1	C:\wlua_dump\path\Lotus\InterfaceLotusNetworkUtilities.lua
Pos   Hex Data           Description or Code
------------------------------------------------------------------------
0000                     ** source chunk: C:\wlua_dump\path\Lotus\InterfaceLotusNetworkUtilities.lua
                         ** global header start **
0000  7F                 header signature: ""
0001  00                 version (major:minor hex digits)
0002  00                 format (0=official)
0003  00                 endianness (1=little endian)
0004  00                 size of int (bytes)
0005  00                 size of size_t (bytes)
0006  02                 size of Instruction (bytes)
0007  33                 size of number (bytes)
0008  B3                 integral (1=integral)
4179
                         * number type: single
                         * x86 standard (32-bit, little endian, doubles)
                         ** global header end **
package
seeall
EE.Interface.Utilities
Lotus.Interface.LotusUtilities
Lotus.Interface.MissionRequirementUtilities
Lotus.Scripts.Nemesis.NemesisGenerator
SESSION_FFA
SESSION_CLAN_ONLY
SESSION_ALLIANCE_ONLY
SolNode973
/Lotus/Interface/ThemedProjectionManager.swf
/Lotus/Interface/ArenaGambling.swf
/Lotus/Types/Game/EnemySpecs/GhostTowerSquadOne
/Lotus/Levels/ClanDojo/ClanDojoProcLevel
/Lotus/Levels/ClanDojo/ClanDojoDuelProcLevel
/Lotus/Levels/ClanDojo/ClanDojoCustomObstacleCourseProcLevel
/Lotus/Types/Keys/SacrificeQuest/SacrificeQuestKeyTrackUmbraC
/Lotus/Powersuits/Excalibur/ExcaliburUmbra
/Lotus/Weapons/Tenno/Melee/Swords/UmbraKatana/UmbraKatana
/Lotus/Types/Enemies/AdvancedSpawners/ZealotSpawner
IsPlayingLevelKey
IsPlayingDojoKey
IsPlayingPublicLevelKey
IsHostElectionAllowed
Host_AdvertisePublicGame
ConfirmLaunchFailurePopup
SetContextObjectsFromSquadLoadOuts
AddMissionContextObjects
GetMissionOpenLevelArgs
Host_LoadMission
JoinLobby
JoinDojo
GetMaxSquadPvpRank
FindPublicSessionsForNode
FindSessionById
GetDojoHostSettings
HostClanDojoLobby
JoinClanDojoLobby
OnFindClanDojoSessionComplete
InviteFriends
StartLobby
ExitLobby
GetLocalSquadMember
GetSquadMemberByOnlineId
GetSquadMemberByName
CheckGameInvitePermission
ShowInviteCommand
CheckJoinSessionPermission
ShowJoinSessionCommand
InSession
HostSquadSession
GetMissionInfoForKey
InSquad
CheckInvitation
CheckSingleSessionResults
ResetSquadMission
GetSquadMissionForInvite
mMovie
_T
gSelectedNodeName
string
KEY_TAG
_T
gSelectedNodeName
string
Dojo
_T
gKeyGameMode
MATCHMAKING_QUICKMATCH_GAMEMODE
_T
gSelectedNodeName

gPendingMission
name
string
HUB_TAG
gMatchingService
gPlayerProfileMgr
regionId
_T
gActiveMatchMakingMode
MATCHMAKING_QUICKMATCH_GAMEMODE
Engine
PRIVATE
string
BADLAND_ATTACKER_TAG
Attempted to host Solar Rail Conflict as DEFENDER? Rejecting
MATCHMAKING_INVITE_ONLY_GAMEMODE
INVITE_ONLY
MATCHMAKING_OFFLINE_GAMEMODE
HUB_TAG
LOCKED

TAG_SEPERATOR
gameModeId
maxPlayers
In setting place, region id is: 
usingPlayNow
PlayNowActive
sec
KEY_TAG
ACTIVE_MISSION_TAG
CachedActiveMissions
mMissionInfo
activeMissionTag
_G
CachedGoalInfo
mMaxConclave
mBonusActive
mBonusMaxConclave
eloRating
gFlashMgr
Multiplayer.RankedPVP
guildId
gClanOnlyMatchMaking
SESSION_CLAN_ONLY
SESSION_ALLIANCE_ONLY
Host changed to gameModeId=
 (
)
ELO=
_T
gSelectedNodeName
string
NEMESIS_MISSION_TAG
gMatchingService
cjson
loadout
PvpLoadOuts
Items
table
NORMAL
OPERATOR
SENTINEL
ItemType
WeaponUpgrades
LocTag

Level
/Lotus/Types/Game/KubrowPet/KubrowPetPowerSuit
/Lotus/Types/Game/CatbrowPet/CatbrowPetPowerSuit
/Lotus/Types/Friendly/Pets/KubrowPetAgent
/Lotus/Types/Friendly/Pets/KubrowPetAvatar
/Lotus/Types/Friendly/Pets/CatbrowPetAgent
/Lotus/Types/Friendly/Pets/CatbrowPetAvatar
/Lotus/Types/Sentinels/SentinelAgent
/Lotus/Types/Sentinels/SentinelAvatar
ARCHWING
operatorSuit
OperatorSkins
FocusAbility
Consumables
Nemesis
extraLoadoutDeps
LoadoutDeps
ModularPartTypes
ShipType
agent
weaponOverrides
resource
buddyAgents
eomBoss
eomBossTransmission
eomBossTaunt
badlandAttackerSpectres
mSuit
mLongGun
mPistol
mMelee
badlandDefenderSpectres
syndicateId

location
_T
CachedSyndicateMissions
mBuddyAgents
CachedGoalKeys
keyChainName
transmissionOverrides
resources
mStoreItem
mItemType
mDecoType
drops
vipAgent
EMPTY_SYMBOL
LotusNetworkUtilities:Host_LoadMission, missionInfo is null
missionType
Lotus_Game
MT_SECTOR
string
BADLAND_ATTACKER_TAG
BADLAND_DEFENDER_TAG
gMatchingService
/Lotus/Language/Menu/OnlineModeRequired
ConfirmLaunchFailurePopup
_T
gSelectedNodeName
_G
HUB_TAG
soloMode
gDojoData
Result
DojoDuel
DojoCustomObstacleCourse
regionId
Engine
LOCKED
OnUpdateSessionSettings
maxPlayersOverride
/Lotus/Language/Menu/Multiplayer_FailedToHost
gPlayerProfileMgr
_GetMissionOpenLevelArgs: playerProfile is null
gKeyChainUsed
levelKeyOwnerId

NIGHTMARE_TAG
MT_RAID
location
seed
mission
difficulty
minEnemyLevel
maxEnemyLevel
periodicMissionTag
NightmareRegion
region
periodicMissionCooldown
NIGHTMARE_MISSION_INTERVAL
mSeasonInfo
mSeason
mPhase
archwingRequired
MT_LANDSCAPE
MT_ARENA
MT_ASSASSINATION
MT_GENERIC
conclaveRange
maxValue
goalId
sortieId
keyChainName
EventNode
ELITE_ALERT_PERIODIC_MISSION_TAG
ELITE_ALERT_PERIODIC_MISSION_TAG_ALT
faction
FC_SENTIENT
levelOverride
hostingMultiplayer
migrateServer
streamingLayer
Body
Error constructing Dojo with data retrieved!
GuildId
gPendingDuel
DojoMgr
RoomId
Error constructing Dojo Duel level!
ActivatedObstacleCourse
RoomID
obstacleCourseRoomID
Error constructing custom obstacle course level!
gGameRules
gLotusAttractModeGameRulesType
Error nil level from GetLevelForMission!
Error nil level from missionInfo.levelOverride!
Host loading level with MissionInfo: 

cjson
Name
AllianceId
TradeTax
0
Class
NumContributors
CeremonyResetDate
$date
$numberLong
courseMode
loadingScreenOverride
gameRules
teamId
gLotusHubGameRulesType
loadToLobby
isLobby
gGameData
LOT_NORMAL
SUIT_SLOT
mItemId
MELEE_SLOT
mItemType
mId
MT_PVP
OpponentId
MAX_LoadOutSlot
mWeaponUpgrades
ACTIVE_MISSION_TAG
CachedActiveMissions
mCustomEnemies
mLevelObjects
GetMissionOpenLevelArgs: Active mission expired! Using default enemySpec
VoidTearDefaultEnemySpec
goalTag
KUVA_TOWER_GOAL_TAG
mGoals
mFaction
mActivation
mExpiry
mRoamingVIP
gGameConfig
enhancement
item
enemyMarkerType
enemySpawnTransmission
chooseBestHost
loadFromLobby
isAutonomous
Lobby::Host_StartMatch: launching level for 
 (
)
ContextObjects:
contextObjects
null context object at index 
! Check for broken types referenced by mission info enemySpec etc
    
Engine
/Lotus/Language/Menu/Multiplayer_FailedToHost
mMovie
gMatchingService
gPlayerProfileMgr
LotusNetworkUtilities - lobby ready!
true
LotusNetworkUtilities.lua - JoinLobby
mMovie
gMatchingService
gPlayerProfileMgr
LotusNetworkUtilities - lobby ready!
true
LotusNetworkUtilities.lua - JoinLobby
gMatchingService
cjson
loadout
pvpRank
eloRating
maxEloDifference
enforceElo
gameModeId
_G
gClanOnlyMatchMaking
guildOnly
gMatchingService
string
HUB_TAG
FindPublicSessionsForNode
gPlayerProfileMgr
Engine
matchType
RANKED
LAN
gameModeId
regionId
_G
gClanOnlyMatchMaking
SESSION_ALLIANCE_ONLY
guildId
KEY_TAG
map
wantMap
TAG_SEPERATOR
mission
missionType
Lotus_Game
MT_LANDSCAPE
_T
gPendingMission
job
eloRating
PLAINS_ELO_INSIDE_SAFE_ZONE
maxEloDifference
enforceElo
wantTeam
BADLAND_ATTACKER_FLAG
teamId
BADLAND_DEFENDER_TAG
BADLAND_ATTACKER_TAG
wantPlayers
players
math
SectorWars looking for attacker session with 
 free slot(s)
gFlashMgr
Multiplayer.RankedPVP
Looking for session with 
StalkerMode
gActiveMatchMakingMode
MATCHMAKING_QUICKMATCH_GAMEMODE
missionsCompleted
nodeType
NT_MISSION
NT_BONUS_MISSION
CachedAlerts
mVisible
CachedGoalInfo
CachedInvasionInfo
CachedSyndicateMissions
allowJoinInProgress
mMaxConclave
mBonusActive
mBonusMaxConclave
Client gameModeId=
, ELO=
, range 
, allowJoinInProgress=
REGION_ID_DERELICT
maxPing
Multiplayer.DedicatedServersOnly
dedicatedServer
Incremental search ping limit: 
incrementalPingLimit
gMatchingService
LNU - FindSessionById
Current session id=
gPlayerProfileMgr
Engine
matchType
NORMAL
LAN
originalSessionId
sessionId
ignoreBadReputation
gPlayerProfileMgr
gMatchingService
matchType
Engine
NORMAL
LAN
regionId
INVITE_ONLY
minPlayers
maxPlayers
enableVoice
dojoP2P
customSettings
cjson
gameModeId
originalSessionId
LotusNetworkUtilities::HostClanDojoLobby
gMatchingService
Can't host dojo due to active session or pending async task. MatchingService state=
/Lotus/Language/Menu/HostDojoFailureSessionActive
Engine
gGameRules
Failed to host/join dojo, connection issues
/Lotus/Language/Menu/Dojo_ConnectionError
gPlayerProfileMgr
Host settings: matchType=
matchType
, originalSessionId (guildId)=
originalSessionId
, regionId=
regionId
, gameModeId=
gameModeId
, map=

LotusUtils::JoinClanDojoLobby
gPlayerProfileMgr
Engine
gMatchingService
matchType
NORMAL
LAN
originalSessionId
gameModeId
wantMap
map
_T
gNumDojoTries
Num dojo tries=
gJoinDojoStartTime
Time passed 
Searching for originalSessionId (guildId)=
LotusUtils::OnFindClanDojoSessionComplete - success=
gMatchingService
No clandojo hosts found -- preparing to host locally
_T
gNumDojoTries

Available clandojo hosts:
searchResults[
]=
/Lotus/Language/Menu/SocialOverlay_SessionFull
/Lotus/Language/Menu/SocialOverlay_SessionStrictNAT
gGameConfig
/Lotus/Language/Menu/MainMenu_NewBuildMissionsBlocked
/Lotus/Language/Menu/MainMenu_BugReportMissionsBlocked
joining 
_T
BackgroundMovie
gMatchingService
/Lotus/Language/Menu/GameInvitesDisabled
gActiveMatchMakingMode
MATCHMAKING_OFFLINE_GAMEMODE
Engine
gPlayerProfileMgr
/Lotus/Language/Menu/GameInvitesDisabledXBone
/Lotus/Language/Menu/GameInvitesDisabledFrontend
InvitePanel
_T
ForegroundMovie
SetLobbyStatusMessage

EnableKeyButton
true
BackgroundMovie
TerminateQuickMatch
gSelectedRegionId
gMatchingService
isLocal
gMatchingService
onlineId
gMatchingService
name
gPlayerProfileMgr
/Language/Menu/SignInMessageBoxTitle
gGameConfig
/Lotus/Language/Menu/MainMenu_NewBuildMissionsBlocked
/Lotus/Language/Menu/MainMenu_BugReportMissionsBlocked
gMatchingService
_T
gActiveMatchMakingMode
MATCHMAKING_OFFLINE_GAMEMODE
Engine
/Lotus/Language/Menu/GameInvitesDisabledXBone
/Lotus/Language/Menu/GameInvitesDisabledFrontend
/Lotus/Language/Menu/GameInvitesDisabled
session
id
/Lotus/Language/Menu/SocialOverlay_PlayerAlreadyInGame
gGameRules
gLotusDojoGameRulesType

/Lotus/Language/Menu/SocialOverlay_GuestInviteDenied
regionId
INVITE_ONLY
onlineId
/Lotus/Language/Menu/SocialOverlay_SessionRequiresInvite
LOCKED
/Lotus/Language/Menu/SocialOverlay_SessionLocked
/Lotus/Language/Menu/SocialOverlay_HostSessionFull
/Lotus/Language/Menu/SocialOverlay_SessionFull
gPendingMission
name
teamToJoin
/Lotus/Language/Menu/SocialOverlay_TeamFull
gMatchingService
session
id
gPlayerProfileMgr
/Language/Menu/SignInMessageBoxTitle
Engine
/Lotus/Language/Menu/GameJoinDisabledXBone
gGameConfig
/Lotus/Language/Menu/MainMenu_NewBuildMissionsBlocked
/Lotus/Language/Menu/MainMenu_BugReportMissionsBlocked
session
id

state
PlayerProfile_PS_OFFLINE
PlayerProfile_PS_FRONTEND
/Lotus/Language/Menu/SocialOverlay_FriendNotInSession
gameModeId
gMatchingService
/Lotus/Language/Menu/SocialOverlay_PlayerAlreadyInGame
filledSlots
totalSlots
_G
StalkerMode
/Lotus/Language/Menu/SocialOverlay_SessionFull
regionId
LOCKED
/Lotus/Language/Menu/SocialOverlay_SessionLocked
INVITE_ONLY
/Lotus/Language/Menu/SocialOverlay_SessionRequiresInvite
strictNAT
/Lotus/Language/Menu/SocialOverlay_SessionStrictNAT
gRegion
level
/Lotus/Language/Menu/SocialOverlay_SessionJoinFromTutorial
session
id

state
Engine
PlayerProfile_PS_OFFLINE
PlayerProfile_PS_FRONTEND
gMatchingService
UI_MODE_IN_GAME
UI_MODE_IN_SPACE_SHIP
UI_MODE_IN_SPACE_HUB
UI_MODE_IN_DOJO
gMatchingService
gPlayerProfileMgr
gMatchingService
matchType
Engine
NORMAL
LAN
minPlayers
maxPlayers
regionId
_T
gActiveMatchMakingMode
MATCHMAKING_INVITE_ONLY_GAMEMODE
INVITE_ONLY
PRIVATE
gGameRules
hosting squad session with gameModeIdOverride
gameModeId
UI_MODE_IN_DOJO
originalSessionId

eloRating
levelKeyName
gMatchingService
playerName
accountId
session
id
/Lotus/Language/Menu/SocialOverlay_SessionExpired
gGameConfig
/Lotus/Language/Menu/MainMenu_NewBuildMissionsBlocked
/Lotus/Language/Menu/MainMenu_BugReportMissionsBlocked
gMatchingService
strictNAT
/Lotus/Language/Menu/SocialOverlay_SessionStrictNAT
/Lotus/Language/Menu/SocialOverlay_AlreadyInGame
_T
LockedGoalList

gameModeId
name
string
TAG_SEPERATOR
/Lotus/Language/Menu/SocialOverlay_EventMissionLocked
sortieId
jobTier
Lotus_Game
JobDifficultyTier_PERMANENT_JOB
JCE_CAN_PLAY
string
/Keys/
DojoKey
KEY_TAG
gMatchingService
false
_T
MadeProjectionChoice
MadeWagerChoice

/Lotus/Language/Menu/SocialOverlay_SessionJoinFail
gPlayerProfileMgr
/Language/Menu/SignInMessageBoxTitle
gameModeId
_G
StalkerMode
/Lotus/Language/Menu/SocialOverlay_SessionFull
/Lotus/Language/Menu/SocialOverlay_TeamFull
regionId
Engine
LOCKED
/Lotus/Language/Menu/SocialOverlay_SessionLocked
/Lotus/Language/Menu/SocialOverlay_SessionExpired
gGameConfig
/Lotus/Language/Menu/MainMenu_NewBuildMissionsBlocked
/Lotus/Language/Menu/MainMenu_BugReportMissionsBlocked
/Lotus/Language/Menu/SocialOverlay_SessionStrictNAT
/Lotus/Language/Menu/KubrowLocked_Busy
originalSessionId
/Lotus/Language/Menu/SocialOverlay_DojoKeyRequired
/Lotus/Language/Menu/SocialOverlay_SessionRequiresInvite
/Lotus/Language/Menu/ServerIsFull
INVITE_ONLY
gGameRules
gLotusHubGameRulesType
TradeHUB1
location
/Lotus/Language/Menu/JoinFail_RelayFromRelay
ACTIVE_MISSION_TAG
BackgroundMovie
ShowBlockingMessage
0
VOID_PROJECTION_ITEMS
VoidT1
mActiveMissions
mNode
mModifier
SetExclusiveTier
missionType
Lotus_Game
MT_ARENA
faction
FC_CORPUS
SetSectorNameAndCloseCallback
text
PLAYER_NAME
player
VALUE
value
MIN
MAX
ITEM
LockedGoalList
/Lotus/Language/Menu/SocialOverlay_EventMissionLocked
gFlashMgr
Multiplayer.RankedPVP
eloRating
/Lotus/Language/Menu/SocialOverlay_PVP_RankTooHigh
hasStarted
ResetSquadMission
cjson
gMatchingService
jobLevelGenerationSeed
UI_MODE_IN_GAME

gMatchingService

cjson
name
UI_MODE_IN_SPACE_SHIP
gGameRules
UI_MODE_IN_SPACE_HUB
UI_MODE_IN_DOJO
location
HUB_TAG
UI_MODE_IN_GAME
quest
difficulty
/Lotus/Language/Menu/OmegaLimit_RestrictSortie
                         
0001                     ** function [0] definition (level 1)
                         ** start of function **
0001  00                 string size (0)
                         source name: (none)
0002  00                 line defined (0)
0003  00                 last line defined (0)
0004  00                 nups (0)
0005  00                 numparams (0)
0006  02                 is_vararg (2)
0007  33                 maxstacksize (51)
                         * code:
0009  02                 sizecode (307)
000A  1D000000           [001] getglobal  0   0        ; 954442511
000E  41000001           [002] vararg     1   2      
0012  9D400000           [003] getglobal  2   1        ; package
0016  8E804001           [004] gettable   2   2   258  ; "seeall"
001A  22408001           [005] call       0   3   1  
001E  1DC00000           [006] getglobal  0   3        ; 849075268
0022  59000100           [007] loadk      1   4        ; "EE.Interface.Utilities"
0026  22800001           [008] call       0   2   2  
002A  5DC00000           [009] getglobal  1   3        ; 849075268
002E  99400100           [010] loadk      2   5        ; "Lotus.Interface.LotusUtilities"
0032  62800001           [011] call       1   2   2  
0036  9DC00000           [012] getglobal  2   3        ; 849075268
003A  D9800100           [013] loadk      3   6        ; "Lotus.Interface.MissionRequirementUtilities"
003E  A2800001           [014] call       2   2   2  
0042  DDC00000           [015] getglobal  3   3        ; 849075268
0046  19C10100           [016] loadk      4   7        ; "Lotus.Scripts.Nemesis.NemesisGenerator"
004A  E2800001           [017] call       3   2   2  
004E  06010002           [018] loadnil    4   4      
0052  20010200           [019] setglobal  4   8        ; SESSION_FFA
0056  19810200           [020] loadk      4   10       ; 0
005A  20410200           [021] setglobal  4   9        ; SESSION_CLAN_ONLY
005E  19010300           [022] loadk      4   12       ; 0
0062  20C10200           [023] setglobal  4   11       ; SESSION_ALLIANCE_ONLY
0066  19410300           [024] loadk      4   13       ; 0
006A  59410300           [025] loadk      5   13       ; 0
006E  99810300           [026] loadk      6   14       ; 0
0072  D9410300           [027] loadk      7   13       ; 0
0076  19C20300           [028] loadk      8   15       ; 0
007A  59820200           [029] loadk      9   10       ; 0
007E  99020400           [030] loadk      10  16       ; 0
0082  D9420400           [031] loadk      11  17       ; 0
0086  19030400           [032] loadk      12  16       ; 0
008A  59830400           [033] loadk      13  18       ; 0
008E  99C30400           [034] loadk      14  19       ; 0
0092  DD030500           [035] getglobal  15  20       ; -332969190
0096  19440500           [036] loadk      16  21       ; "SolNode973"
009A  E2830001           [037] call       15  2   2  
009E  1D840500           [038] getglobal  16  22       ; 2083004503
00A2  59C40500           [039] loadk      17  23       ; "/Lotus/Interface/ThemedProjectionManager.swf"
00A6  22840001           [040] call       16  2   2  
00AA  5D840500           [041] getglobal  17  22       ; 2083004503
00AE  99040600           [042] loadk      18  24       ; "/Lotus/Interface/ArenaGambling.swf"
00B2  62840001           [043] call       17  2   2  
00B6  9D840500           [044] getglobal  18  22       ; 2083004503
00BA  D9440600           [045] loadk      19  25       ; "/Lotus/Types/Game/EnemySpecs/GhostTowerSquadOne"
00BE  A2840001           [046] call       18  2   2  
00C2  DD840600           [047] getglobal  19  26       ; 738251817
00C6  19C50600           [048] loadk      20  27       ; "/Lotus/Levels/ClanDojo/ClanDojoProcLevel"
00CA  E2840001           [049] call       19  2   2  
00CE  1D850600           [050] getglobal  20  26       ; 738251817
00D2  59050700           [051] loadk      21  28       ; "/Lotus/Levels/ClanDojo/ClanDojoDuelProcLevel"
00D6  22850001           [052] call       20  2   2  
00DA  5D850600           [053] getglobal  21  26       ; 738251817
00DE  99450700           [054] loadk      22  29       ; "/Lotus/Levels/ClanDojo/ClanDojoCustomObstacleCourseProcLevel"
00E2  62850001           [055] call       21  2   2  
00E6  9D850600           [056] getglobal  22  26       ; 738251817
00EA  D9850700           [057] loadk      23  30       ; "/Lotus/Types/Keys/SacrificeQuest/SacrificeQuestKeyTrackUmbraC"
00EE  A2850001           [058] call       22  2   2  
00F2  DD850600           [059] getglobal  23  26       ; 738251817
00F6  19C60700           [060] loadk      24  31       ; "/Lotus/Powersuits/Excalibur/ExcaliburUmbra"
00FA  E2850001           [061] call       23  2   2  
00FE  1D860600           [062] getglobal  24  26       ; 738251817
0102  59060800           [063] loadk      25  32       ; "/Lotus/Weapons/Tenno/Melee/Swords/UmbraKatana/UmbraKatana"
0106  22860001           [064] call       24  2   2  
010A  5D860600           [065] getglobal  25  26       ; 738251817
010E  99460800           [066] loadk      26  33       ; "/Lotus/Types/Enemies/AdvancedSpawners/ZealotSpawner"
0112  62860001           [067] call       25  2   2  
0116  8606800D           [068] loadnil    26  27     
011A  25070000           [069] closure    28  0      
011E  65470000           [070] closure    29  1      
0122  12008000           [071] move       0   1      
0126  A5870000           [072] closure    30  2      
012A  1200800E           [073] move       0   29     
012E  A0870800           [074] setglobal  30  34       ; IsPlayingLevelKey
0132  A0C70800           [075] setglobal  30  35       ; 355582742
0136  A5C70000           [076] closure    30  3      
013A  E5070100           [077] closure    31  4      
013E  1200000F           [078] move       0   30     
0142  E0070900           [079] setglobal  31  36       ; IsPlayingDojoKey
0146  E0470900           [080] setglobal  31  37       ; 741955544
014A  E5470100           [081] closure    31  5      
014E  1200800E           [082] move       0   29     
0152  25880100           [083] closure    32  6      
0156  1200800F           [084] move       0   31     
015A  20880900           [085] setglobal  32  38       ; IsPlayingPublicLevelKey
015E  20C80900           [086] setglobal  32  39       ; 1330110904
0162  25C80100           [087] closure    32  7      
0166  12000000           [088] move       0   0      
016A  12008000           [089] move       0   1      
016E  65080200           [090] closure    33  8      
0172  1200000F           [091] move       0   30     
0176  12000010           [092] move       0   32     
017A  A5480200           [093] closure    34  9      
017E  12008010           [094] move       0   33     
0182  A0080A00           [095] setglobal  34  40       ; IsHostElectionAllowed
0186  A0480A00           [096] setglobal  34  41       ; 1334807754
018A  A5880200           [097] closure    34  10     
018E  E5C80200           [098] closure    35  11     
0192  12008000           [099] move       0   1      
0196  1200800E           [100] move       0   29     
019A  12000011           [101] move       0   34     
019E  12000000           [102] move       0   0      
01A2  12000003           [103] move       0   6      
01A6  12000004           [104] move       0   8      
01AA  12008003           [105] move       0   7      
01AE  12008004           [106] move       0   9      
01B2  12000002           [107] move       0   4      
01B6  12000007           [108] move       0   14     
01BA  1200000D           [109] move       0   26     
01BE  12008002           [110] move       0   5      
01C2  25090300           [111] closure    36  12     
01C6  12008011           [112] move       0   35     
01CA  20890A00           [113] setglobal  36  42       ; Host_AdvertisePublicGame
01CE  20C90A00           [114] setglobal  36  43       ; -1389893254
01D2  25490300           [115] closure    36  13     
01D6  20090B00           [116] setglobal  36  44       ; ConfirmLaunchFailurePopup
01DA  20490B00           [117] setglobal  36  45       ; -1304179946
01DE  25890300           [118] closure    36  14     
01E2  65C90300           [119] closure    37  15     
01E6  12008000           [120] move       0   1      
01EA  12000012           [121] move       0   36     
01EE  12008001           [122] move       0   3      
01F2  A5090400           [123] closure    38  16     
01F6  12008012           [124] move       0   37     
01FA  A0890B00           [125] setglobal  38  46       ; SetContextObjectsFromSquadLoadOuts
01FE  A0C90B00           [126] setglobal  38  47       ; -179936696
0202  A5490400           [127] closure    38  17     
0206  E5890400           [128] closure    39  18     
020A  12000013           [129] move       0   38     
020E  12008000           [130] move       0   1      
0212  25CA0400           [131] closure    40  19     
0216  12008013           [132] move       0   39     
021A  200A0C00           [133] setglobal  40  48       ; AddMissionContextObjects
021E  204A0C00           [134] setglobal  40  49       ; -300876800
0222  250A0500           [135] closure    40  20     
0226  12008000           [136] move       0   1      
022A  12000000           [137] move       0   0      
022E  12008011           [138] move       0   35     
0232  1200800E           [139] move       0   29     
0236  1200800C           [140] move       0   25     
023A  12008009           [141] move       0   19     
023E  1200000A           [142] move       0   20     
0242  1200800A           [143] move       0   21     
0246  12000004           [144] move       0   8      
024A  1200000B           [145] move       0   22     
024E  1200800B           [146] move       0   23     
0252  1200000C           [147] move       0   24     
0256  12008012           [148] move       0   37     
025A  12008013           [149] move       0   39     
025E  12000012           [150] move       0   36     
0262  12000013           [151] move       0   38     
0266  12000009           [152] move       0   18     
026A  12008010           [153] move       0   33     
026E  654A0500           [154] closure    41  21     
0272  12000014           [155] move       0   40     
0276  608A0C00           [156] setglobal  41  50       ; GetMissionOpenLevelArgs
027A  60CA0C00           [157] setglobal  41  51       ; -1354612052
027E  658A0500           [158] closure    41  22     
0282  12000014           [159] move       0   40     
0286  12000000           [160] move       0   0      
028A  600A0D00           [161] setglobal  41  52       ; Host_LoadMission
028E  604A0D00           [162] setglobal  41  53       ; -806928904
0292  65CA0500           [163] closure    41  23     
0296  1200000E           [164] move       0   28     
029A  608A0D00           [165] setglobal  41  54       ; JoinLobby
029E  60CA0D00           [166] setglobal  41  55       ; -1299602686
02A2  650A0600           [167] closure    41  24     
02A6  1200000E           [168] move       0   28     
02AA  A54A0600           [169] closure    42  25     
02AE  12008014           [170] move       0   41     
02B2  A00A0E00           [171] setglobal  42  56       ; JoinDojo
02B6  A04A0E00           [172] setglobal  42  57       ; 1089891899
02BA  A58A0600           [173] closure    42  26     
02BE  E5CA0600           [174] closure    43  27     
02C2  12000015           [175] move       0   42     
02C6  E08A0E00           [176] setglobal  43  58       ; GetMaxSquadPvpRank
02CA  E0CA0E00           [177] setglobal  43  59       ; -1391668896
02CE  E50A0700           [178] closure    43  28     
02D2  12008000           [179] move       0   1      
02D6  12000015           [180] move       0   42     
02DA  A5460700           [181] closure    26  29     
02DE  12000005           [182] move       0   10     
02E2  12008015           [183] move       0   43     
02E6  12008000           [184] move       0   1      
02EA  258B0700           [185] closure    44  30     
02EE  12008000           [186] move       0   1      
02F2  12000011           [187] move       0   34     
02F6  1200000D           [188] move       0   26     
02FA  12000000           [189] move       0   0      
02FE  200B0F00           [190] setglobal  44  60       ; FindPublicSessionsForNode
0302  204B0F00           [191] setglobal  44  61       ; 1863232550
0306  25CB0700           [192] closure    44  31     
030A  208B0F00           [193] setglobal  44  62       ; FindSessionById
030E  20CB0F00           [194] setglobal  44  63       ; -760932337
0312  250B0800           [195] closure    44  32     
0316  12008005           [196] move       0   11     
031A  12008000           [197] move       0   1      
031E  654B0800           [198] closure    45  33     
0322  12000016           [199] move       0   44     
0326  600B1000           [200] setglobal  45  64       ; GetDojoHostSettings
032A  604B1000           [201] setglobal  45  65       ; -1311921320
032E  658B0800           [202] closure    45  34     
0332  12000006           [203] move       0   12     
0336  12000016           [204] move       0   44     
033A  A5CB0800           [205] closure    46  35     
033E  12008016           [206] move       0   45     
0342  A08B1000           [207] setglobal  46  66       ; HostClanDojoLobby
0346  A0CB1000           [208] setglobal  46  67       ; -1072887579
034A  A50B0900           [209] closure    46  36     
034E  12008000           [210] move       0   1      
0352  12008006           [211] move       0   13     
0356  12000006           [212] move       0   12     
035A  12008016           [213] move       0   45     
035E  A00B1100           [214] setglobal  46  68       ; JoinClanDojoLobby
0362  A04B1100           [215] setglobal  46  69       ; 1717865005
0366  A54B0900           [216] closure    46  37     
036A  12008016           [217] move       0   45     
036E  12008014           [218] move       0   41     
0372  A08B1100           [219] setglobal  46  70       ; OnFindClanDojoSessionComplete
0376  A0CB1100           [220] setglobal  46  71       ; -1938298559
037A  A58B0900           [221] closure    46  38     
037E  12008000           [222] move       0   1      
0382  12000000           [223] move       0   0      
0386  A00B1200           [224] setglobal  46  72       ; InviteFriends
038A  A04B1200           [225] setglobal  46  73       ; 580636259
038E  A5CB0900           [226] closure    46  39     
0392  A08B1200           [227] setglobal  46  74       ; StartLobby
0396  A0CB1200           [228] setglobal  46  75       ; -925714658
039A  A50B0A00           [229] closure    46  40     
039E  A00B1300           [230] setglobal  46  76       ; ExitLobby
03A2  A04B1300           [231] setglobal  46  77       ; 539758504
03A6  A54B0A00           [232] closure    46  41     
03AA  E58B0A00           [233] closure    47  42     
03AE  12000017           [234] move       0   46     
03B2  E08B1300           [235] setglobal  47  78       ; GetLocalSquadMember
03B6  E0CB1300           [236] setglobal  47  79       ; -1227391150
03BA  E5CB0A00           [237] closure    47  43     
03BE  250C0B00           [238] closure    48  44     
03C2  12008017           [239] move       0   47     
03C6  200C1400           [240] setglobal  48  80       ; GetSquadMemberByOnlineId
03CA  204C1400           [241] setglobal  48  81       ; -1332653553
03CE  254C0B00           [242] closure    48  45     
03D2  208C1400           [243] setglobal  48  82       ; GetSquadMemberByName
03D6  20CC1400           [244] setglobal  48  83       ; -995736261
03DA  258C0B00           [245] closure    48  46     
03DE  12008000           [246] move       0   1      
03E2  12000017           [247] move       0   46     
03E6  12008017           [248] move       0   47     
03EA  12008007           [249] move       0   15     
03EE  200C1500           [250] setglobal  48  84       ; CheckGameInvitePermission
03F2  204C1500           [251] setglobal  48  85       ; -192902433
03F6  25CC0B00           [252] closure    48  47     
03FA  208C1500           [253] setglobal  48  86       ; ShowInviteCommand
03FE  20CC1500           [254] setglobal  48  87       ; -169711756
0402  250C0C00           [255] closure    48  48     
0406  12008000           [256] move       0   1      
040A  1200800D           [257] move       0   27     
040E  200C1600           [258] setglobal  48  88       ; CheckJoinSessionPermission
0412  204C1600           [259] setglobal  48  89       ; -99102073
0416  254C0C00           [260] closure    48  49     
041A  12008000           [261] move       0   1      
041E  208C1600           [262] setglobal  48  90       ; ShowJoinSessionCommand
0422  20CC1600           [263] setglobal  48  91       ; 189119486
0426  258C0C00           [264] closure    48  50     
042A  65CC0C00           [265] closure    49  51     
042E  12000018           [266] move       0   48     
0432  600C1700           [267] setglobal  49  92       ; InSession
0436  604C1700           [268] setglobal  49  93       ; -332184872
043A  650C0D00           [269] closure    49  52     
043E  12000000           [270] move       0   0      
0442  12008000           [271] move       0   1      
0446  608C1700           [272] setglobal  49  94       ; HostSquadSession
044A  60CC1700           [273] setglobal  49  95       ; 589862477
044E  654C0D00           [274] closure    49  53     
0452  600C1800           [275] setglobal  49  96       ; GetMissionInfoForKey
0456  604C1800           [276] setglobal  49  97       ; 796179934
045A  658C0D00           [277] closure    49  54     
045E  608C1800           [278] setglobal  49  98       ; InSquad
0462  60CC1800           [279] setglobal  49  99       ; 1049893472
0466  65CC0D00           [280] closure    49  55     
046A  12000018           [281] move       0   48     
046E  12008000           [282] move       0   1      
0472  1200800D           [283] move       0   27     
0476  12000001           [284] move       0   2      
047A  600C1900           [285] setglobal  49  100      ; CheckInvitation
047E  604C1900           [286] setglobal  49  101      ; -111423719
0482  650C0E00           [287] closure    49  56     
0486  12008000           [288] move       0   1      
048A  A54C0E00           [289] closure    50  57     
048E  12008000           [290] move       0   1      
0492  12000008           [291] move       0   16     
0496  12008008           [292] move       0   17     
049A  12008018           [293] move       0   49     
049E  12000001           [294] move       0   2      
04A2  A08C1900           [295] setglobal  50  102      ; CheckSingleSessionResults
04A6  A0CC1900           [296] setglobal  50  103      ; -1594132932
04AA  A58C0E00           [297] closure    50  58     
04AE  12008000           [298] move       0   1      
04B2  A00C1A00           [299] setglobal  50  104      ; ResetSquadMission
04B6  A04C1A00           [300] setglobal  50  105      ; 789186312
04BA  A5CC0E00           [301] closure    50  59     
04BE  12008000           [302] move       0   1      
04C2  A08C1A00           [303] setglobal  50  106      ; GetSquadMissionForInvite
04C6  A0CC1A00           [304] setglobal  50  107      ; 188102613
04CA  E5060F00           [305] closure    27  60     
04CE  12008000           [306] move       0   1      
04D2  1E008000           [307] return     0   1      
                         * constants:
04D6  6C                 sizek (108)
04D7  01                 const type 3
04D8  0FA3E338           const [0]: (954442511)
04DC  04                 const type 4
04DD  08                 string size (8)
04DE  7061636B61676500   "package\0"
                         const [1]: "package"
04E6  04                 const type 4
04E7  07                 string size (7)
04E8  736565616C6C00     "seeall\0"
                         const [2]: "seeall"
04EF  01                 const type 3
04F0  44DC9B32           const [3]: (849075268)
04F4  04                 const type 4
04F5  17                 string size (23)
04F6  45452E496E746572+  "EE.Inter"
04FE  666163652E557469+  "face.Uti"
0506  6C697469657300     "lities\0"
                         const [4]: "EE.Interface.Utilities"
050D  04                 const type 4
050E  1F                 string size (31)
050F  4C6F7475732E496E+  "Lotus.In"
0517  746572666163652E+  "terface."
051F  4C6F747573557469+  "LotusUti"
0527  6C697469657300     "lities\0"
                         const [5]: "Lotus.Interface.LotusUtilities"
052E  04                 const type 4
052F  2C                 string size (44)
0530  4C6F7475732E496E+  "Lotus.In"
0538  746572666163652E+  "terface."
0540  4D697373696F6E52+  "MissionR"
0548  6571756972656D65+  "equireme"
0550  6E745574696C6974+  "ntUtilit"
0558  69657300           "ies\0"
                         const [6]: "Lotus.Interface.MissionRequirementUtilities"
055C  04                 const type 4
055D  27                 string size (39)
055E  4C6F7475732E5363+  "Lotus.Sc"
0566  72697074732E4E65+  "ripts.Ne"
056E  6D657369732E4E65+  "mesis.Ne"
0576  6D6573697347656E+  "mesisGen"
057E  657261746F7200     "erator\0"
                         const [7]: "Lotus.Scripts.Nemesis.NemesisGenerator"
0585  04                 const type 4
0586  0C                 string size (12)
0587  53455353494F4E5F+  "SESSION_"
058F  46464100           "FFA\0"
                         const [8]: "SESSION_FFA"
0593  04                 const type 4
0594  12                 string size (18)
0595  53455353494F4E5F+  "SESSION_"
059D  434C414E5F4F4E4C+  "CLAN_ONL"
05A5  5900               "Y\0"
                         const [9]: "SESSION_CLAN_ONLY"
05A7  03                 const type 3
05A8  0000803F           const [10]: (0)
05AC  04                 const type 4
05AD  16                 string size (22)
05AE  53455353494F4E5F+  "SESSION_"
05B6  414C4C49414E4345+  "ALLIANCE"
05BE  5F4F4E4C5900       "_ONLY\0"
                         const [11]: "SESSION_ALLIANCE_ONLY"
05C4  03                 const type 3
05C5  00000040           const [12]: (0)
05C9  03                 const type 3
05CA  00008040           const [13]: (0)
05CE  03                 const type 3
05CF  00000041           const [14]: (0)
05D3  03                 const type 3
05D4  00000000           const [15]: (0)
05D8  03                 const type 3
05D9  00002041           const [16]: (0)
05DD  03                 const type 3
05DE  00004843           const [17]: (0)
05E2  03                 const type 3
05E3  0000F041           const [18]: (0)
05E7  03                 const type 3
05E8  00507845           const [19]: (0)
05EC  01                 const type 3
05ED  1A4B27EC           const [20]: (-332969190)
05F1  04                 const type 4
05F2  0B                 string size (11)
05F3  536F6C4E6F646539+  "SolNode9"
05FB  373300             "73\0"
                         const [21]: "SolNode973"
05FE  01                 const type 3
05FF  5720287C           const [22]: (2083004503)
0603  04                 const type 4
0604  2D                 string size (45)
0605  2F4C6F7475732F49+  "/Lotus/I"
060D  6E74657266616365+  "nterface"
0615  2F5468656D656450+  "/ThemedP"
061D  726F6A656374696F+  "rojectio"
0625  6E4D616E61676572+  "nManager"
062D  2E73776600         ".swf\0"
                         const [23]: "/Lotus/Interface/ThemedProjectionManager.swf"
0632  04                 const type 4
0633  23                 string size (35)
0634  2F4C6F7475732F49+  "/Lotus/I"
063C  6E74657266616365+  "nterface"
0644  2F4172656E614761+  "/ArenaGa"
064C  6D626C696E672E73+  "mbling.s"
0654  776600             "wf\0"
                         const [24]: "/Lotus/Interface/ArenaGambling.swf"
0657  04                 const type 4
0658  30                 string size (48)
0659  2F4C6F7475732F54+  "/Lotus/T"
0661  797065732F47616D+  "ypes/Gam"
0669  652F456E656D7953+  "e/EnemyS"
0671  706563732F47686F+  "pecs/Gho"
0679  7374546F77657253+  "stTowerS"
0681  717561644F6E6500   "quadOne\0"
                         const [25]: "/Lotus/Types/Game/EnemySpecs/GhostTowerSquadOne"
0689  01                 const type 3
068A  29D4002C           const [26]: (738251817)
068E  04                 const type 4
068F  29                 string size (41)
0690  2F4C6F7475732F4C+  "/Lotus/L"
0698  6576656C732F436C+  "evels/Cl"
06A0  616E446F6A6F2F43+  "anDojo/C"
06A8  6C616E446F6A6F50+  "lanDojoP"
06B0  726F634C6576656C+  "rocLevel"
06B8  00                 "\0"
                         const [27]: "/Lotus/Levels/ClanDojo/ClanDojoProcLevel"
06B9  04                 const type 4
06BA  2D                 string size (45)
06BB  2F4C6F7475732F4C+  "/Lotus/L"
06C3  6576656C732F436C+  "evels/Cl"
06CB  616E446F6A6F2F43+  "anDojo/C"
06D3  6C616E446F6A6F44+  "lanDojoD"
06DB  75656C50726F634C+  "uelProcL"
06E3  6576656C00         "evel\0"
                         const [28]: "/Lotus/Levels/ClanDojo/ClanDojoDuelProcLevel"
06E8  04                 const type 4
06E9  3D                 string size (61)
06EA  2F4C6F7475732F4C+  "/Lotus/L"
06F2  6576656C732F436C+  "evels/Cl"
06FA  616E446F6A6F2F43+  "anDojo/C"
0702  6C616E446F6A6F43+  "lanDojoC"
070A  7573746F6D4F6273+  "ustomObs"
0712  7461636C65436F75+  "tacleCou"
071A  72736550726F634C+  "rseProcL"
0722  6576656C00         "evel\0"
                         const [29]: "/Lotus/Levels/ClanDojo/ClanDojoCustomObstacleCourseProcLevel"
0727  04                 const type 4
0728  3E                 string size (62)
0729  2F4C6F7475732F54+  "/Lotus/T"
0731  797065732F4B6579+  "ypes/Key"
0739  732F536163726966+  "s/Sacrif"
0741  6963655175657374+  "iceQuest"
0749  2F53616372696669+  "/Sacrifi"
0751  636551756573744B+  "ceQuestK"
0759  6579547261636B55+  "eyTrackU"
0761  6D6272614300       "mbraC\0"
                         const [30]: "/Lotus/Types/Keys/SacrificeQuest/SacrificeQuestKeyTrackUmbraC"
0767  04                 const type 4
0768  2B                 string size (43)
0769  2F4C6F7475732F50+  "/Lotus/P"
0771  6F77657273756974+  "owersuit"
0779  732F457863616C69+  "s/Excali"
0781  6275722F45786361+  "bur/Exca"
0789  6C69627572556D62+  "liburUmb"
0791  726100             "ra\0"
                         const [31]: "/Lotus/Powersuits/Excalibur/ExcaliburUmbra"
0794  04                 const type 4
0795  3A                 string size (58)
0796  2F4C6F7475732F57+  "/Lotus/W"
079E  6561706F6E732F54+  "eapons/T"
07A6  656E6E6F2F4D656C+  "enno/Mel"
07AE  65652F53776F7264+  "ee/Sword"
07B6  732F556D6272614B+  "s/UmbraK"
07BE  6174616E612F556D+  "atana/Um"
07C6  6272614B6174616E+  "braKatan"
07CE  6100               "a\0"
                         const [32]: "/Lotus/Weapons/Tenno/Melee/Swords/UmbraKatana/UmbraKatana"
07D0  04                 const type 4
07D1  34                 string size (52)
07D2  2F4C6F7475732F54+  "/Lotus/T"
07DA  797065732F456E65+  "ypes/Ene"
07E2  6D6965732F416476+  "mies/Adv"
07EA  616E636564537061+  "ancedSpa"
07F2  776E6572732F5A65+  "wners/Ze"
07FA  616C6F7453706177+  "alotSpaw"
0802  6E657200           "ner\0"
                         const [33]: "/Lotus/Types/Enemies/AdvancedSpawners/ZealotSpawner"
0806  04                 const type 4
0807  12                 string size (18)
0808  4973506C6179696E+  "IsPlayin"
0810  674C6576656C4B65+  "gLevelKe"
0818  7900               "y\0"
                         const [34]: "IsPlayingLevelKey"
081A  01                 const type 3
081B  16C33115           const [35]: (355582742)
081F  04                 const type 4
0820  11                 string size (17)
0821  4973506C6179696E+  "IsPlayin"
0829  67446F6A6F4B6579+  "gDojoKey"
0831  00                 "\0"
                         const [36]: "IsPlayingDojoKey"
0832  01                 const type 3
0833  D857392C           const [37]: (741955544)
0837  04                 const type 4
0838  18                 string size (24)
0839  4973506C6179696E+  "IsPlayin"
0841  675075626C69634C+  "gPublicL"
0849  6576656C4B657900   "evelKey\0"
                         const [38]: "IsPlayingPublicLevelKey"
0851  01                 const type 3
0852  B8E1474F           const [39]: (1330110904)
0856  04                 const type 4
0857  16                 string size (22)
0858  4973486F7374456C+  "IsHostEl"
0860  656374696F6E416C+  "ectionAl"
0868  6C6F77656400       "lowed\0"
                         const [40]: "IsHostElectionAllowed"
086E  01                 const type 3
086F  CA8C8F4F           const [41]: (1334807754)
0873  04                 const type 4
0874  19                 string size (25)
0875  486F73745F416476+  "Host_Adv"
087D  6572746973655075+  "ertisePu"
0885  626C696347616D65+  "blicGame"
088D  00                 "\0"
                         const [42]: "Host_AdvertisePublicGame"
088E  01                 const type 3
088F  7AE927AD           const [43]: (-1389893254)
0893  04                 const type 4
0894  1A                 string size (26)
0895  436F6E6669726D4C+  "ConfirmL"
089D  61756E6368466169+  "aunchFai"
08A5  6C757265506F7075+  "lurePopu"
08AD  7000               "p\0"
                         const [44]: "ConfirmLaunchFailurePopup"
08AF  01                 const type 3
08B0  16CB43B2           const [45]: (-1304179946)
08B4  04                 const type 4
08B5  23                 string size (35)
08B6  536574436F6E7465+  "SetConte"
08BE  78744F626A656374+  "xtObject"
08C6  7346726F6D537175+  "sFromSqu"
08CE  61644C6F61644F75+  "adLoadOu"
08D6  747300             "ts\0"
                         const [46]: "SetContextObjectsFromSquadLoadOuts"
08D9  01                 const type 3
08DA  486246F5           const [47]: (-179936696)
08DE  04                 const type 4
08DF  19                 string size (25)
08E0  4164644D69737369+  "AddMissi"
08E8  6F6E436F6E746578+  "onContex"
08F0  744F626A65637473+  "tObjects"
08F8  00                 "\0"
                         const [48]: "AddMissionContextObjects"
08F9  01                 const type 3
08FA  00FC10EE           const [49]: (-300876800)
08FE  04                 const type 4
08FF  18                 string size (24)
0900  4765744D69737369+  "GetMissi"
0908  6F6E4F70656E4C65+  "onOpenLe"
0910  76656C4172677300   "velArgs\0"
                         const [50]: "GetMissionOpenLevelArgs"
0918  01                 const type 3
0919  AC4242AF           const [51]: (-1354612052)
091D  04                 const type 4
091E  11                 string size (17)
091F  486F73745F4C6F61+  "Host_Loa"
0927  644D697373696F6E+  "dMission"
092F  00                 "\0"
                         const [52]: "Host_LoadMission"
0930  01                 const type 3
0931  F83DE7CF           const [53]: (-806928904)
0935  04                 const type 4
0936  0A                 string size (10)
0937  4A6F696E4C6F6262+  "JoinLobb"
093F  7900               "y\0"
                         const [54]: "JoinLobby"
0941  01                 const type 3
0942  02A389B2           const [55]: (-1299602686)
0946  04                 const type 4
0947  09                 string size (9)
0948  4A6F696E446F6A6F+  "JoinDojo"
0950  00                 "\0"
                         const [56]: "JoinDojo"
0951  01                 const type 3
0952  3B6EF640           const [57]: (1089891899)
0956  04                 const type 4
0957  13                 string size (19)
0958  4765744D61785371+  "GetMaxSq"
0960  7561645076705261+  "uadPvpRa"
0968  6E6B00             "nk\0"
                         const [58]: "GetMaxSquadPvpRank"
096B  01                 const type 3
096C  60D10CAD           const [59]: (-1391668896)
0970  04                 const type 4
0971  1A                 string size (26)
0972  46696E645075626C+  "FindPubl"
097A  696353657373696F+  "icSessio"
0982  6E73466F724E6F64+  "nsForNod"
098A  6500               "e\0"
                         const [60]: "FindPublicSessionsForNode"
098C  01                 const type 3
098D  26AC0E6F           const [61]: (1863232550)
0991  04                 const type 4
0992  10                 string size (16)
0993  46696E6453657373+  "FindSess"
099B  696F6E4279496400   "ionById\0"
                         const [62]: "FindSessionById"
09A3  01                 const type 3
09A4  0F18A5D2           const [63]: (-760932337)
09A8  04                 const type 4
09A9  14                 string size (20)
09AA  476574446F6A6F48+  "GetDojoH"
09B2  6F73745365747469+  "ostSetti"
09BA  6E677300           "ngs\0"
                         const [64]: "GetDojoHostSettings"
09BE  01                 const type 3
09BF  58ABCDB1           const [65]: (-1311921320)
09C3  04                 const type 4
09C4  12                 string size (18)
09C5  486F7374436C616E+  "HostClan"
09CD  446F6A6F4C6F6262+  "DojoLobb"
09D5  7900               "y\0"
                         const [66]: "HostClanDojoLobby"
09D7  01                 const type 3
09D8  E5080DC0           const [67]: (-1072887579)
09DC  04                 const type 4
09DD  12                 string size (18)
09DE  4A6F696E436C616E+  "JoinClan"
09E6  446F6A6F4C6F6262+  "DojoLobb"
09EE  7900               "y\0"
                         const [68]: "JoinClanDojoLobby"
09F0  01                 const type 3
09F1  2D8A6466           const [69]: (1717865005)
09F5  04                 const type 4
09F6  1E                 string size (30)
09F7  4F6E46696E64436C+  "OnFindCl"
09FF  616E446F6A6F5365+  "anDojoSe"
0A07  7373696F6E436F6D+  "ssionCom"
0A0F  706C65746500       "plete\0"
                         const [70]: "OnFindClanDojoSessionComplete"
0A15  01                 const type 3
0A16  41E9778C           const [71]: (-1938298559)
0A1A  04                 const type 4
0A1B  0E                 string size (14)
0A1C  496E766974654672+  "InviteFr"
0A24  69656E647300       "iends\0"
                         const [72]: "InviteFriends"
0A2A  01                 const type 3
0A2B  63CE9B22           const [73]: (580636259)
0A2F  04                 const type 4
0A30  0B                 string size (11)
0A31  53746172744C6F62+  "StartLob"
0A39  627900             "by\0"
                         const [74]: "StartLobby"
0A3C  01                 const type 3
0A3D  1EB7D2C8           const [75]: (-925714658)
0A41  04                 const type 4
0A42  0A                 string size (10)
0A43  457869744C6F6262+  "ExitLobb"
0A4B  7900               "y\0"
                         const [76]: "ExitLobby"
0A4D  01                 const type 3
0A4E  A80F2C20           const [77]: (539758504)
0A52  04                 const type 4
0A53  14                 string size (20)
0A54  4765744C6F63616C+  "GetLocal"
0A5C  53717561644D656D+  "SquadMem"
0A64  62657200           "ber\0"
                         const [78]: "GetLocalSquadMember"
0A68  01                 const type 3
0A69  527FD7B6           const [79]: (-1227391150)
0A6D  04                 const type 4
0A6E  19                 string size (25)
0A6F  4765745371756164+  "GetSquad"
0A77  4D656D6265724279+  "MemberBy"
0A7F  4F6E6C696E654964+  "OnlineId"
0A87  00                 "\0"
                         const [80]: "GetSquadMemberByOnlineId"
0A88  01                 const type 3
0A89  0F5291B0           const [81]: (-1332653553)
0A8D  04                 const type 4
0A8E  15                 string size (21)
0A8F  4765745371756164+  "GetSquad"
0A97  4D656D6265724279+  "MemberBy"
0A9F  4E616D6500         "Name\0"
                         const [82]: "GetSquadMemberByName"
0AA4  01                 const type 3
0AA5  3B45A6C4           const [83]: (-995736261)
0AA9  04                 const type 4
0AAA  1A                 string size (26)
0AAB  436865636B47616D+  "CheckGam"
0AB3  65496E7669746550+  "eInviteP"
0ABB  65726D697373696F+  "ermissio"
0AC3  6E00               "n\0"
                         const [84]: "CheckGameInvitePermission"
0AC5  01                 const type 3
0AC6  DF8A80F4           const [85]: (-192902433)
0ACA  04                 const type 4
0ACB  12                 string size (18)
0ACC  53686F77496E7669+  "ShowInvi"
0AD4  7465436F6D6D616E+  "teComman"
0ADC  6400               "d\0"
                         const [86]: "ShowInviteCommand"
0ADE  01                 const type 3
0ADF  7467E2F5           const [87]: (-169711756)
0AE3  04                 const type 4
0AE4  1B                 string size (27)
0AE5  436865636B4A6F69+  "CheckJoi"
0AED  6E53657373696F6E+  "nSession"
0AF5  5065726D69737369+  "Permissi"
0AFD  6F6E00             "on\0"
                         const [88]: "CheckJoinSessionPermission"
0B00  01                 const type 3
0B01  87D217FA           const [89]: (-99102073)
0B05  04                 const type 4
0B06  17                 string size (23)
0B07  53686F774A6F696E+  "ShowJoin"
0B0F  53657373696F6E43+  "SessionC"
0B17  6F6D6D616E6400     "ommand\0"
                         const [90]: "ShowJoinSessionCommand"
0B1E  01                 const type 3
0B1F  FEBB450B           const [91]: (189119486)
0B23  04                 const type 4
0B24  0A                 string size (10)
0B25  496E53657373696F+  "InSessio"
0B2D  6E00               "n\0"
                         const [92]: "InSession"
0B2F  01                 const type 3
0B30  D84233EC           const [93]: (-332184872)
0B34  04                 const type 4
0B35  11                 string size (17)
0B36  486F737453717561+  "HostSqua"
0B3E  6453657373696F6E+  "dSession"
0B46  00                 "\0"
                         const [94]: "HostSquadSession"
0B47  01                 const type 3
0B48  4D962823           const [95]: (589862477)
0B4C  04                 const type 4
0B4D  15                 string size (21)
0B4E  4765744D69737369+  "GetMissi"
0B56  6F6E496E666F466F+  "onInfoFo"
0B5E  724B657900         "rKey\0"
                         const [96]: "GetMissionInfoForKey"
0B63  01                 const type 3
0B64  DEBD742F           const [97]: (796179934)
0B68  04                 const type 4
0B69  08                 string size (8)
0B6A  496E537175616400   "InSquad\0"
                         const [98]: "InSquad"
0B72  01                 const type 3
0B73  601A943E           const [99]: (1049893472)
0B77  04                 const type 4
0B78  10                 string size (16)
0B79  436865636B496E76+  "CheckInv"
0B81  69746174696F6E00   "itation\0"
                         const [100]: "CheckInvitation"
0B89  01                 const type 3
0B8A  19CF5BF9           const [101]: (-111423719)
0B8E  04                 const type 4
0B8F  1A                 string size (26)
0B90  436865636B53696E+  "CheckSin"
0B98  676C655365737369+  "gleSessi"
0BA0  6F6E526573756C74+  "onResult"
0BA8  7300               "s\0"
                         const [102]: "CheckSingleSessionResults"
0BAA  01                 const type 3
0BAB  3C76FBA0           const [103]: (-1594132932)
0BAF  04                 const type 4
0BB0  12                 string size (18)
0BB1  5265736574537175+  "ResetSqu"
0BB9  61644D697373696F+  "adMissio"
0BC1  6E00               "n\0"
                         const [104]: "ResetSquadMission"
0BC3  01                 const type 3
0BC4  08070A2F           const [105]: (789186312)
0BC8  04                 const type 4
0BC9  19                 string size (25)
0BCA  4765745371756164+  "GetSquad"
0BD2  4D697373696F6E46+  "MissionF"
0BDA  6F72496E76697465+  "orInvite"
0BE2  00                 "\0"
                         const [106]: "GetSquadMissionForInvite"
0BE3  01                 const type 3
0BE4  D537360B           const [107]: (188102613)
                         * functions:
0BE8  3D                 sizep (61)
                         
0BE9                     ** function [0] definition (level 2)
                         ** start of function **
0BE9  00                 string size (0)
                         source name: (none)
0BEA  2E                 line defined (46)
0BEB  36                 last line defined (54)
0BEC  00                 nups (0)
0BED  00                 numparams (0)
0BEE  00                 is_vararg (0)
0BEF  04                 maxstacksize (4)
                         * code:
0BF0  0F                 sizecode (15)
0BF1  19000000           [01] loadk      0   0        ; 0
0BF5  5D400000           [02] getglobal  1   1        ; 1802065273
0BF9  92000000           [03] move       2   0      
0BFD  62800001           [04] call       1   2   2  
0C01  8E80C000           [05] gettable   2   1   258  ; "mMovie"
0C05  98400000           [06] test       2       1    ; to [8] if false
0C09  1A400180           [07] jmp        6            ; to [14]
0C0D  03C04000           [08] add        0   0   259  ; 0
0C11  9D400000           [09] getglobal  2   1        ; 1802065273
0C15  D2000000           [10] move       3   0      
0C19  A2800001           [11] call       2   2   2  
0C1D  52000001           [12] move       1   2      
0C21  1A80FD7F           [13] jmp        -9           ; to [5]
0C25  5E000001           [14] return     1   2      
0C29  1E008000           [15] return     0   1      
                         * constants:
0C2D  04                 sizek (4)
0C2E  03                 const type 3
0C2F  00000040           const [0]: (0)
0C33  01                 const type 3
0C34  7955696B           const [1]: (1802065273)
0C38  04                 const type 4
0C39  07                 string size (7)
0C3A  6D4D6F76696500     "mMovie\0"
                         const [2]: "mMovie"
0C41  03                 const type 3
0C42  0000803F           const [3]: (0)
                         * functions:
0C46  00                 sizep (0)
                         * lines:
0C47  0F                 sizelineinfo (15)
                         [pc] (line)
0C48  2F                 [01] (47)
0C49  00                 [02] (48)
0C4A  00                 [03] (48)
0C4B  00                 [04] (48)
0C4C  30                 [05] (49)
0C4D  00                 [06] (49)
0C4E  00                 [07] (49)
0C4F  00                 [08] (50)
0C50  30                 [09] (51)
0C51  00                 [10] (51)
0C52  00                 [11] (51)
0C53  00                 [12] (51)
0C54  30                 [13] (51)
0C55  00                 [14] (53)
0C56  00                 [15] (54)
                         * locals:
0C84  00                 sizelocvars (0)
                         * upvalues:
0C85  00                 sizeupvalues (0)
                         ** end of function **

                         
0C86                     ** function [1] definition (level 2)
                         ** start of function **
0C86  00                 string size (0)
                         source name: (none)
0C87  38                 line defined (56)
0C88  3A                 last line defined (58)
0C89  01                 nups (1)
0C8A  00                 numparams (0)
0C8B  00                 is_vararg (0)
0C8C  03                 maxstacksize (3)
                         * code:
0C8D  11                 sizecode (17)
0C8E  1D000000           [01] getglobal  0   0        ; _T
0C92  0E404000           [02] gettable   0   0   257  ; "gSelectedNodeName"
fail op	35
0C96  63804000           [03] close      1  
0C9A  1A000280           [04] jmp        9            ; to [14]
0C9E  1DC00000           [05] getglobal  0   3        ; string
0CA2  0E004100           [06] gettable   0   0   260  ; -565905820
0CA6  5D000000           [07] getglobal  1   0        ; _T
0CAA  4E40C000           [08] gettable   1   1   257  ; "gSelectedNodeName"
0CAE  93000000           [09] getupval   2   0      
0CB2  8E404101           [10] gettable   2   2   261  ; "KEY_TAG"
0CB6  22808001           [11] call       0   3   2  
fail op	35
0CBA  23804000           [12] close      0  
0CBE  1A000080           [13] jmp        1            ; to [15]
0CC2  17400000           [14] loadbool   0   0   1    ; false, to [16]
0CC6  17008000           [15] loadbool   0   1   0    ; true
0CCA  1E000001           [16] return     0   2      
0CCE  1E008000           [17] return     0   1      
                         * constants:
0CD2  06                 sizek (6)
0CD3  04                 const type 4
0CD4  03                 string size (3)
0CD5  5F5400             "_T\0"
                         const [0]: "_T"
0CD8  04                 const type 4
0CD9  12                 string size (18)
0CDA  6753656C65637465+  "gSelecte"
0CE2  644E6F64654E616D+  "dNodeNam"
0CEA  6500               "e\0"
                         const [1]: "gSelectedNodeName"
0CEC  00                 const type 0
                         const [2]: nil
0CED  04                 const type 4
0CEE  07                 string size (7)
0CEF  737472696E6700     "string\0"
                         const [3]: "string"
0CF6  01                 const type 3
0CF7  64F644DE           const [4]: (-565905820)
0CFB  04                 const type 4
0CFC  08                 string size (8)
0CFD  4B45595F54414700   "KEY_TAG\0"
                         const [5]: "KEY_TAG"
                         * functions:
0D05  00                 sizep (0)
                         * lines:
0D06  11                 sizelineinfo (17)
                         [pc] (line)
0D07  39                 [01] (57)
0D08  00                 [02] (57)
0D09  00                 [03] (57)
0D0A  00                 [04] (57)
0D0B  39                 [05] (57)
0D0C  00                 [06] (57)
0D0D  00                 [07] (57)
0D0E  00                 [08] (57)
0D0F  39                 [09] (57)
0D10  00                 [10] (57)
0D11  00                 [11] (57)
0D12  00                 [12] (57)
0D13  39                 [13] (57)
0D14  00                 [14] (57)
0D15  00                 [15] (57)
0D16  00                 [16] (57)
0D17  39                 [17] (58)
                         * locals:
0D4B  00                 sizelocvars (0)
                         * upvalues:
0D4C  00                 sizeupvalues (0)
                         ** end of function **

                         
0D4D                     ** function [2] definition (level 2)
                         ** start of function **
0D4D  00                 string size (0)
                         source name: (none)
0D4E  3C                 line defined (60)
0D4F  3E                 last line defined (62)
0D50  01                 nups (1)
0D51  00                 numparams (0)
0D52  00                 is_vararg (0)
0D53  02                 maxstacksize (2)
                         * code:
0D54  04                 sizecode (4)
0D55  13000000           [1] getupval   0   0      
0D59  22808000           [2] call       0   1   2  
0D5D  1E000001           [3] return     0   2      
0D61  1E008000           [4] return     0   1      
                         * constants:
0D65  00                 sizek (0)
                         * functions:
0D66  00                 sizep (0)
                         * lines:
0D67  04                 sizelineinfo (4)
                         [pc] (line)
0D68  3D                 [1] (61)
0D69  00                 [2] (61)
0D6A  00                 [3] (61)
0D6B  00                 [4] (62)
                         * locals:
0D78  00                 sizelocvars (0)
                         * upvalues:
0D79  00                 sizeupvalues (0)
                         ** end of function **

                         
0D7A                     ** function [3] definition (level 2)
                         ** start of function **
0D7A  00                 string size (0)
                         source name: (none)
0D7B  40                 line defined (64)
0D7C  42                 last line defined (66)
0D7D  00                 nups (0)
0D7E  00                 numparams (0)
0D7F  00                 is_vararg (0)
0D80  03                 maxstacksize (3)
                         * code:
0D81  10                 sizecode (16)
0D82  1D000000           [01] getglobal  0   0        ; _T
0D86  0E404000           [02] gettable   0   0   257  ; "gSelectedNodeName"
fail op	35
0D8A  63804000           [03] close      1  
0D8E  1AC00180           [04] jmp        8            ; to [13]
0D92  1DC00000           [05] getglobal  0   3        ; string
0D96  0E004100           [06] gettable   0   0   260  ; -565905820
0D9A  5D000000           [07] getglobal  1   0        ; _T
0D9E  4E40C000           [08] gettable   1   1   257  ; "gSelectedNodeName"
0DA2  99400100           [09] loadk      2   5        ; "Dojo"
0DA6  22808001           [10] call       0   3   2  
fail op	35
0DAA  23804000           [11] close      0  
0DAE  1A000080           [12] jmp        1            ; to [14]
0DB2  17400000           [13] loadbool   0   0   1    ; false, to [15]
0DB6  17008000           [14] loadbool   0   1   0    ; true
0DBA  1E000001           [15] return     0   2      
0DBE  1E008000           [16] return     0   1      
                         * constants:
0DC2  06                 sizek (6)
0DC3  04                 const type 4
0DC4  03                 string size (3)
0DC5  5F5400             "_T\0"
                         const [0]: "_T"
0DC8  04                 const type 4
0DC9  12                 string size (18)
0DCA  6753656C65637465+  "gSelecte"
0DD2  644E6F64654E616D+  "dNodeNam"
0DDA  6500               "e\0"
                         const [1]: "gSelectedNodeName"
0DDC  00                 const type 0
                         const [2]: nil
0DDD  04                 const type 4
0DDE  07                 string size (7)
0DDF  737472696E6700     "string\0"
                         const [3]: "string"
0DE6  01                 const type 3
0DE7  64F644DE           const [4]: (-565905820)
0DEB  04                 const type 4
0DEC  05                 string size (5)
0DED  446F6A6F00         "Dojo\0"
                         const [5]: "Dojo"
                         * functions:
0DF2  00                 sizep (0)
                         * lines:
0DF3  10                 sizelineinfo (16)
                         [pc] (line)
0DF4  41                 [01] (65)
0DF5  00                 [02] (65)
0DF6  00                 [03] (65)
0DF7  00                 [04] (65)
0DF8  41                 [05] (65)
0DF9  00                 [06] (65)
0DFA  00                 [07] (65)
0DFB  00                 [08] (65)
0DFC  41                 [09] (65)
0DFD  00                 [10] (65)
0DFE  00                 [11] (65)
0DFF  00                 [12] (65)
0E00  41                 [13] (65)
0E01  00                 [14] (65)
0E02  00                 [15] (65)
0E03  00                 [16] (66)
                         * locals:
0E34  00                 sizelocvars (0)
                         * upvalues:
0E35  00                 sizeupvalues (0)
                         ** end of function **

                         
0E36                     ** function [4] definition (level 2)
                         ** start of function **
0E36  00                 string size (0)
                         source name: (none)
0E37  44                 line defined (68)
0E38  46                 last line defined (70)
0E39  01                 nups (1)
0E3A  00                 numparams (0)
0E3B  00                 is_vararg (0)
0E3C  02                 maxstacksize (2)
                         * code:
0E3D  04                 sizecode (4)
0E3E  13000000           [1] getupval   0   0      
0E42  22808000           [2] call       0   1   2  
0E46  1E000001           [3] return     0   2      
0E4A  1E008000           [4] return     0   1      
                         * constants:
0E4E  00                 sizek (0)
                         * functions:
0E4F  00                 sizep (0)
                         * lines:
0E50  04                 sizelineinfo (4)
                         [pc] (line)
0E51  45                 [1] (69)
0E52  00                 [2] (69)
0E53  00                 [3] (69)
0E54  00                 [4] (70)
                         * locals:
0E61  00                 sizelocvars (0)
                         * upvalues:
0E62  00                 sizeupvalues (0)
                         ** end of function **

                         
0E63                     ** function [5] definition (level 2)
                         ** start of function **
0E63  00                 string size (0)
                         source name: (none)
0E64  48                 line defined (72)
0E65  4A                 last line defined (74)
0E66  01                 nups (1)
0E67  00                 numparams (0)
0E68  00                 is_vararg (0)
0E69  02                 maxstacksize (2)
                         * code:
0E6A  0E                 sizecode (14)
0E6B  13000000           [01] getupval   0   0      
0E6F  22808000           [02] call       0   1   2  
0E73  18000000           [03] test       0       0    ; to [5] if true
0E77  1AC00180           [04] jmp        8            ; to [13]
0E7B  1D000000           [05] getglobal  0   0        ; _T
0E7F  0E404000           [06] gettable   0   0   257  ; "gKeyGameMode"
0E83  5D000000           [07] getglobal  1   0        ; _T
0E87  4E80C000           [08] gettable   1   1   258  ; "MATCHMAKING_QUICKMATCH_GAMEMODE"
fail op	35
0E8B  63400000           [09] close      1  
0E8F  1A000080           [10] jmp        1            ; to [12]
0E93  17400000           [11] loadbool   0   0   1    ; false, to [13]
0E97  17008000           [12] loadbool   0   1   0    ; true
0E9B  1E000001           [13] return     0   2      
0E9F  1E008000           [14] return     0   1      
                         * constants:
0EA3  03                 sizek (3)
0EA4  04                 const type 4
0EA5  03                 string size (3)
0EA6  5F5400             "_T\0"
                         const [0]: "_T"
0EA9  04                 const type 4
0EAA  0D                 string size (13)
0EAB  674B657947616D65+  "gKeyGame"
0EB3  4D6F646500         "Mode\0"
                         const [1]: "gKeyGameMode"
0EB8  04                 const type 4
0EB9  20                 string size (32)
0EBA  4D415443484D414B+  "MATCHMAK"
0EC2  494E475F51554943+  "ING_QUIC"
0ECA  4B4D415443485F47+  "KMATCH_G"
0ED2  414D454D4F444500   "AMEMODE\0"
                         const [2]: "MATCHMAKING_QUICKMATCH_GAMEMODE"
                         * functions:
0EDA  00                 sizep (0)
                         * lines:
0EDB  0E                 sizelineinfo (14)
                         [pc] (line)
0EDC  49                 [01] (73)
0EDD  00                 [02] (73)
0EDE  00                 [03] (73)
0EDF  00                 [04] (73)
0EE0  49                 [05] (73)
0EE1  00                 [06] (73)
0EE2  00                 [07] (73)
0EE3  00                 [08] (73)
0EE4  49                 [09] (73)
0EE5  00                 [10] (73)
0EE6  00                 [11] (73)
0EE7  00                 [12] (73)
0EE8  49                 [13] (73)
0EE9  00                 [14] (74)
                         * locals:
0F14  00                 sizelocvars (0)
                         * upvalues:
0F15  00                 sizeupvalues (0)
                         ** end of function **

                         
0F16                     ** function [6] definition (level 2)
                         ** start of function **
0F16  00                 string size (0)
                         source name: (none)
0F17  4C                 line defined (76)
0F18  4E                 last line defined (78)
0F19  01                 nups (1)
0F1A  00                 numparams (0)
0F1B  00                 is_vararg (0)
0F1C  02                 maxstacksize (2)
                         * code:
0F1D  04                 sizecode (4)
0F1E  13000000           [1] getupval   0   0      
0F22  22808000           [2] call       0   1   2  
0F26  1E000001           [3] return     0   2      
0F2A  1E008000           [4] return     0   1      
                         * constants:
0F2E  00                 sizek (0)
                         * functions:
0F2F  00                 sizep (0)
                         * lines:
0F30  04                 sizelineinfo (4)
                         [pc] (line)
0F31  4D                 [1] (77)
0F32  00                 [2] (77)
0F33  00                 [3] (77)
0F34  00                 [4] (78)
                         * locals:
0F41  00                 sizelocvars (0)
                         * upvalues:
0F42  00                 sizeupvalues (0)
                         ** end of function **

                         
0F43                     ** function [7] definition (level 2)
                         ** start of function **
0F43  00                 string size (0)
                         source name: (none)
0F44  50                 line defined (80)
0F45  57                 last line defined (87)
0F46  02                 nups (2)
0F47  00                 numparams (0)
0F48  00                 is_vararg (0)
0F49  04                 maxstacksize (4)
                         * code:
0F4A  28                 sizecode (40)
0F4B  13000000           [01] getupval   0   0      
0F4F  0E004000           [02] gettable   0   0   256  ; -132701534
0F53  5D400000           [03] getglobal  1   1        ; _T
0F57  4E80C000           [04] gettable   1   1   258  ; "gSelectedNodeName"
fail op	35
0F5B  63C0C000           [05] close      1  
0F5F  1A000080           [06] jmp        1            ; to [8]
0F63  57400000           [07] loadbool   1   0   1    ; false, to [9]
0F67  57008000           [08] loadbool   1   1   0    ; true
0F6B  99000100           [09] loadk      2   4        ; ""
0F6F  DD400000           [10] getglobal  3   1        ; _T
0F73  CE80C001           [11] gettable   3   3   258  ; "gSelectedNodeName"
0F77  22800002           [12] call       0   4   2  
0F7B  18000000           [13] test       0       0    ; to [15] if true
0F7F  1A400080           [14] jmp        2            ; to [17]
fail op	35
0F83  23004100           [15] close      0  
0F87  1AC00280           [16] jmp        12           ; to [29]
0F8B  5D400100           [17] getglobal  1   5        ; 1074689893
0F8F  9D400000           [18] getglobal  2   1        ; _T
0F93  8E804101           [19] gettable   2   2   262  ; "gPendingMission"
0F97  62800001           [20] call       1   2   2  
0F9B  58400000           [21] test       1       1    ; to [23] if false
0F9F  1A400180           [22] jmp        6            ; to [29]
0FA3  5DC00100           [23] getglobal  1   7        ; -1615931716
0FA7  9D400000           [24] getglobal  2   1        ; _T
0FAB  8E804101           [25] gettable   2   2   262  ; "gPendingMission"
0FAF  8E004201           [26] gettable   2   2   264  ; "name"
0FB3  62800001           [27] call       1   2   2  
0FB7  12008000           [28] move       0   1      
0FBB  5D400200           [29] getglobal  1   9        ; string
0FBF  4E80C200           [30] gettable   1   1   266  ; -565905820
0FC3  92000000           [31] move       2   0      
0FC7  D3008000           [32] getupval   3   1      
0FCB  CEC0C201           [33] gettable   3   3   267  ; "HUB_TAG"
0FCF  62808001           [34] call       1   3   2  
fail op	35
0FD3  23C0C000           [35] close      0  
0FD7  1A000080           [36] jmp        1            ; to [38]
0FDB  57400000           [37] loadbool   1   0   1    ; false, to [39]
0FDF  57008000           [38] loadbool   1   1   0    ; true
0FE3  5E000001           [39] return     1   2      
0FE7  1E008000           [40] return     0   1      
                         * constants:
0FEB  0C                 sizek (12)
0FEC  01                 const type 3
0FED  A22217F8           const [0]: (-132701534)
0FF1  04                 const type 4
0FF2  03                 string size (3)
0FF3  5F5400             "_T\0"
                         const [1]: "_T"
0FF6  04                 const type 4
0FF7  12                 string size (18)
0FF8  6753656C65637465+  "gSelecte"
1000  644E6F64654E616D+  "dNodeNam"
1008  6500               "e\0"
                         const [2]: "gSelectedNodeName"
100A  00                 const type 0
                         const [3]: nil
100B  04                 const type 4
100C  01                 string size (0)
                         const [4]: ""
100E  01                 const type 3
100F  65770E40           const [5]: (1074689893)
1013  04                 const type 4
1014  10                 string size (16)
1015  6750656E64696E67+  "gPending"
101D  4D697373696F6E00   "Mission\0"
                         const [6]: "gPendingMission"
1025  01                 const type 3
1026  BCD6AE9F           const [7]: (-1615931716)
102A  04                 const type 4
102B  05                 string size (5)
102C  6E616D6500         "name\0"
                         const [8]: "name"
1031  04                 const type 4
1032  07                 string size (7)
1033  737472696E6700     "string\0"
                         const [9]: "string"
103A  01                 const type 3
103B  64F644DE           const [10]: (-565905820)
103F  04                 const type 4
1040  08                 string size (8)
1041  4855425F54414700   "HUB_TAG\0"
                         const [11]: "HUB_TAG"
                         * functions:
1049  00                 sizep (0)
                         * lines:
104A  28                 sizelineinfo (40)
                         [pc] (line)
104B  51                 [01] (81)
104C  00                 [02] (81)
104D  00                 [03] (81)
104E  00                 [04] (81)
104F  51                 [05] (81)
1050  00                 [06] (81)
1051  00                 [07] (81)
1052  00                 [08] (81)
1053  51                 [09] (81)
1054  00                 [10] (81)
1055  00                 [11] (81)
1056  00                 [12] (81)
1057  51                 [13] (82)
1058  00                 [14] (82)
1059  00                 [15] (82)
105A  00                 [16] (82)
105B  51                 [17] (82)
105C  00                 [18] (82)
105D  00                 [19] (82)
105E  00                 [20] (82)
105F  51                 [21] (82)
1060  00                 [22] (82)
1061  00                 [23] (83)
1062  00                 [24] (83)
1063  51                 [25] (83)
1064  00                 [26] (83)
1065  00                 [27] (83)
1066  00                 [28] (83)
1067  51                 [29] (86)
1068  00                 [30] (86)
1069  00                 [31] (86)
106A  00                 [32] (86)
106B  51                 [33] (86)
106C  00                 [34] (86)
106D  00                 [35] (86)
106E  00                 [36] (86)
106F  51                 [37] (86)
1070  00                 [38] (86)
1071  00                 [39] (86)
1072  00                 [40] (87)
                         * locals:
10EB  00                 sizelocvars (0)
                         * upvalues:
10EC  00                 sizeupvalues (0)
                         ** end of function **

                         
10ED                     ** function [8] definition (level 2)
                         ** start of function **
10ED  00                 string size (0)
                         source name: (none)
10EE  59                 line defined (89)
10EF  5B                 last line defined (91)
10F0  02                 nups (2)
10F1  00                 numparams (0)
10F2  00                 is_vararg (0)
10F3  02                 maxstacksize (2)
                         * code:
10F4  0C                 sizecode (12)
10F5  13000000           [01] getupval   0   0      
10F9  22808000           [02] call       0   1   2  
10FD  18400000           [03] test       0       1    ; to [5] if false
1101  1AC00080           [04] jmp        4            ; to [9]
1105  13008000           [05] getupval   0   1      
1109  22808000           [06] call       0   1   2  
fail op	9
110D  09000000           [07] settable   0   0   0  
1111  1A400080           [08] jmp        2            ; to [11]
1115  17400000           [09] loadbool   0   0   1    ; false, to [11]
1119  17008000           [10] loadbool   0   1   0    ; true
111D  1E000001           [11] return     0   2      
1121  1E008000           [12] return     0   1      
                         * constants:
1125  00                 sizek (0)
                         * functions:
1126  00                 sizep (0)
                         * lines:
1127  0C                 sizelineinfo (12)
                         [pc] (line)
1128  5A                 [01] (90)
1129  00                 [02] (90)
112A  00                 [03] (90)
112B  00                 [04] (90)
112C  5A                 [05] (90)
112D  00                 [06] (90)
112E  00                 [07] (90)
112F  00                 [08] (90)
1130  5A                 [09] (90)
1131  00                 [10] (90)
1132  00                 [11] (90)
1133  00                 [12] (91)
                         * locals:
1158  00                 sizelocvars (0)
                         * upvalues:
1159  00                 sizeupvalues (0)
                         ** end of function **

                         
115A                     ** function [9] definition (level 2)
                         ** start of function **
115A  00                 string size (0)
                         source name: (none)
115B  5E                 line defined (94)
115C  60                 last line defined (96)
115D  01                 nups (1)
115E  00                 numparams (0)
115F  00                 is_vararg (0)
1160  02                 maxstacksize (2)
                         * code:
1161  04                 sizecode (4)
1162  13000000           [1] getupval   0   0      
1166  07008000           [2] tailcall   0   1   0  
116A  1E000000           [3] return     0   0      
116E  1E008000           [4] return     0   1      
                         * constants:
1172  00                 sizek (0)
                         * functions:
1173  00                 sizep (0)
                         * lines:
1174  04                 sizelineinfo (4)
                         [pc] (line)
1175  5F                 [1] (95)
1176  00                 [2] (95)
1177  00                 [3] (95)
1178  00                 [4] (96)
                         * locals:
1185  00                 sizelocvars (0)
                         * upvalues:
1186  00                 sizeupvalues (0)
                         ** end of function **

                         
1187                     ** function [10] definition (level 2)
                         ** start of function **
1187  00                 string size (0)
                         source name: (none)
1188  63                 line defined (99)
1189  65                 last line defined (101)
118A  00                 nups (0)
118B  01                 numparams (1)
118C  00                 is_vararg (0)
118D  02                 maxstacksize (2)
                         * code:
118E  02                 sizecode (2)
118F  1E000001           [1] return     0   2      
1193  1E008000           [2] return     0   1      
                         * constants:
1197  00                 sizek (0)
                         * functions:
1198  00                 sizep (0)
                         * lines:
1199  02                 sizelineinfo (2)
                         [pc] (line)
119A  64                 [1] (100)
119B  00                 [2] (101)
                         * locals:
11A2  00                 sizelocvars (0)
                         * upvalues:
11A3  00                 sizeupvalues (0)
                         ** end of function **

                         
11A4                     ** function [11] definition (level 2)
                         ** start of function **
11A4  00                 string size (0)
                         source name: (none)
11A5  67                 line defined (103)
11A6  FC                 last line defined (252)
11A7  01                 nups (12)
11A8  0C                 numparams (6)
11A9  06                 is_vararg (0)
11AA  00                 maxstacksize (30)
                         * code:
11AD  03                 sizecode (408)
11AE  9D010000           [001] getglobal  6   0        ; 1074689893
11B2  D2010002           [002] move       7   4      
11B6  A2810001           [003] call       6   2   2  
11BA  98010000           [004] test       6       0    ; to [6] if true
11BE  1A000080           [005] jmp        1            ; to [7]
11C2  17010000           [006] loadbool   4   0   0    ; false
11C6  9D410000           [007] getglobal  6   1        ; gMatchingService
11CA  A4814003           [008] self       6   6   258  ; -706726330
11CE  A2810001           [009] call       6   2   2  
11D2  DD010000           [010] getglobal  7   0        ; 1074689893
11D6  12020003           [011] move       8   6      
11DA  E2810001           [012] call       7   2   2  
11DE  D8410000           [013] test       7       1    ; to [15] if false
11E2  1A806180           [014] jmp        391          ; to [406]
11E6  DD410000           [015] getglobal  7   1        ; gMatchingService
11EA  E4C1C003           [016] self       7   7   259  ; -506968081
11EE  E2810001           [017] call       7   2   2  
11F2  D8010000           [018] test       7       0    ; to [20] if true
11F6  1A406080           [019] jmp        386          ; to [406]
11FA  DD010100           [020] getglobal  7   4        ; gPlayerProfileMgr
11FE  E441C103           [021] self       7   7   261  ; 569342746
1202  59820100           [022] loadk      9   6        ; 0
1206  E2818001           [023] call       7   3   2  
120A  24C2C103           [024] self       8   7   263  ; 1055613230
120E  22820001           [025] call       8   2   2  
1212  24024204           [026] self       8   8   264  ; 1582861505
1216  22820001           [027] call       8   2   2  
121A  59420200           [028] loadk      9   9        ; 0
121E  18010000           [029] test       4       0    ; to [31] if true
1222  1A400680           [030] jmp        26           ; to [57]
1226  4E824204           [031] gettable   9   8   266  ; "regionId"
122A  97020000           [032] loadbool   10  0   0    ; false
122E  98020000           [033] test       10      0    ; to [35] if true
1232  1AC00180           [034] jmp        8            ; to [43]
1236  9DC20200           [035] getglobal  10  11       ; _T
123A  8E024305           [036] gettable   10  10  268  ; "gActiveMatchMakingMode"
123E  DDC20200           [037] getglobal  11  11       ; _T
1242  CE42C305           [038] gettable   11  11  269  ; "MATCHMAKING_QUICKMATCH_GAMEMODE"
fail op	35
1246  63C00205           [039] close      1  
124A  1A400080           [040] jmp        2            ; to [43]
124E  9D820300           [041] getglobal  10  14       ; Engine
1252  4EC24305           [042] gettable   9   10  271  ; "PRIVATE"
1256  9D020400           [043] getglobal  10  16       ; string
125A  8E424405           [044] gettable   10  10  273  ; -565905820
125E  D2020000           [045] move       11  0      
1262  13030000           [046] getupval   12  0      
1266  0E834406           [047] gettable   12  12  274  ; "BADLAND_ATTACKER_TAG"
126A  A2828001           [048] call       10  3   2  
126E  98420000           [049] test       10      1    ; to [51] if false
1272  1A800F80           [050] jmp        63           ; to [114]
1276  DDC20400           [051] getglobal  11  19       ; -1817107093
127A  19030500           [052] loadk      12  20       ; "Attempted to host Solar Rail Conflict as DEFENDER? Rejecting"
127E  E2420001           [053] call       11  2   1  
1282  D7020000           [054] loadbool   11  0   0    ; false
1286  DE020001           [055] return     11  2      
128A  1A000E80           [056] jmp        57           ; to [114]
128E  DDC20200           [057] getglobal  11  11       ; _T
1292  CE02C305           [058] gettable   11  11  268  ; "gActiveMatchMakingMode"
1296  1DC30200           [059] getglobal  12  11       ; _T
129A  0E434506           [060] gettable   12  12  277  ; "MATCHMAKING_INVITE_ONLY_GAMEMODE"
fail op	35
129E  63008305           [061] close      1  
12A2  1AC00080           [062] jmp        4            ; to [67]
12A6  D3028000           [063] getupval   11  1      
12AA  E2828000           [064] call       11  1   2  
12AE  D8020000           [065] test       11      0    ; to [67] if true
12B2  1A800080           [066] jmp        3            ; to [70]
12B6  DD820300           [067] getglobal  11  14       ; Engine
12BA  4E82C505           [068] gettable   9   11  278  ; "INVITE_ONLY"
12BE  1A000580           [069] jmp        21           ; to [91]
12C2  58000000           [070] test       1       0    ; to [72] if true
12C6  1AC00180           [071] jmp        8            ; to [80]
12CA  DDC20200           [072] getglobal  11  11       ; _T
12CE  CE02C305           [073] gettable   11  11  268  ; "gActiveMatchMakingMode"
12D2  1DC30200           [074] getglobal  12  11       ; _T
12D6  0E434306           [075] gettable   12  12  269  ; "MATCHMAKING_QUICKMATCH_GAMEMODE"
fail op	35
12DA  23008305           [076] close      0  
12DE  1A400080           [077] jmp        2            ; to [80]
12E2  4E824204           [078] gettable   9   8   266  ; "regionId"
12E6  1A800280           [079] jmp        11           ; to [91]
12EA  DDC20200           [080] getglobal  11  11       ; _T
12EE  CE02C305           [081] gettable   11  11  268  ; "gActiveMatchMakingMode"
12F2  1DC30200           [082] getglobal  12  11       ; _T
12F6  0EC34506           [083] gettable   12  12  279  ; "MATCHMAKING_OFFLINE_GAMEMODE"
fail op	35
12FA  23008305           [084] close      0  
12FE  1A800080           [085] jmp        3            ; to [89]
1302  DD820300           [086] getglobal  11  14       ; Engine
1306  4E82C505           [087] gettable   9   11  278  ; "INVITE_ONLY"
130A  1A400080           [088] jmp        2            ; to [91]
130E  DD820300           [089] getglobal  11  14       ; Engine
1312  4EC2C305           [090] gettable   9   11  271  ; "PRIVATE"
1316  D7020000           [091] loadbool   11  0   0    ; false
fail op	35
131A  63004600           [092] close      1  
131E  1A000280           [093] jmp        9            ; to [103]
1322  1D030400           [094] getglobal  12  16       ; string
1326  0E434406           [095] gettable   12  12  273  ; -565905820
132A  52030000           [096] move       13  0      
132E  93030000           [097] getupval   14  0      
1332  8E434607           [098] gettable   14  14  281  ; "HUB_TAG"
1336  22838001           [099] call       12  3   2  
133A  18030000           [100] test       12      0    ; to [102] if true
133E  1A000080           [101] jmp        1            ; to [103]
1342  D7028000           [102] loadbool   11  1   0    ; true
1346  24834603           [103] self       12  6   282  ; -348174914
134A  22830001           [104] call       12  2   2  
134E  4E834206           [105] gettable   13  12  266  ; "regionId"
1352  9D830300           [106] getglobal  14  14       ; Engine
1356  8EC34607           [107] gettable   14  14  283  ; "LOCKED"
fail op	35
135A  23808306           [108] close      0  
135E  1AC00080           [109] jmp        4            ; to [114]
1362  D8420000           [110] test       11      1    ; to [112] if false
1366  1A400080           [111] jmp        2            ; to [114]
136A  5D830300           [112] getglobal  13  14       ; Engine
136E  4EC2C606           [113] gettable   9   13  283  ; "LOCKED"
1372  59030700           [114] loadk      13  28       ; ""
1376  18000000           [115] test       0       0    ; to [117] if true
137A  1A800480           [116] jmp        19           ; to [136]
137E  9D430700           [117] getglobal  14  29       ; -1615931716
1382  D2030000           [118] move       15  0      
1386  A2830001           [119] call       14  2   2  
138A  52030007           [120] move       13  14     
138E  9D030400           [121] getglobal  14  16       ; string
1392  8E434407           [122] gettable   14  14  273  ; -565905820
1396  D2030000           [123] move       15  0      
139A  13040000           [124] getupval   16  0      
139E  0E844708           [125] gettable   16  16  286  ; "TAG_SEPERATOR"
13A2  A2838001           [126] call       14  3   2  
fail op	35
13A6  63004607           [127] close      1  
13AA  1A800180           [128] jmp        7            ; to [136]
13AE  DD030400           [129] getglobal  15  16       ; string
13B2  CEC3C707           [130] gettable   15  15  287  ; 2071470131
13B6  12040000           [131] move       16  0      
13BA  59040800           [132] loadk      17  32       ; 0
13BE  8D044807           [133] sub        18  14  288  ; 0
13C2  E2830002           [134] call       15  4   2  
13C6  52038007           [135] move       13  15     
13CA  D9830100           [136] loadk      15  6        ; 0
13CE  58000000           [137] test       1       0    ; to [139] if true
13D2  1A000180           [138] jmp        5            ; to [144]
13D6  13040000           [139] getupval   16  0      
13DA  0E444808           [140] gettable   16  16  289  ; -454716625
13DE  52040000           [141] move       17  0      
13E2  22840001           [142] call       16  2   2  
13E6  D2030008           [143] move       15  16     
13EA  13040001           [144] getupval   16  2      
13EE  52048004           [145] move       17  9      
13F2  22840001           [146] call       16  2   2  
13F6  52020008           [147] move       9   16     
13FA  24844603           [148] self       16  6   282  ; -348174914
13FE  22840001           [149] call       16  2   2  
1402  4E844208           [150] gettable   17  16  266  ; "regionId"
fail op	35
1406  23408208           [151] close      0  
140A  1A400380           [152] jmp        14           ; to [167]
140E  4E844808           [153] gettable   17  16  290  ; "gameModeId"
fail op	35
1412  23C08308           [154] close      0  
1416  1A800280           [155] jmp        11           ; to [167]
141A  18410000           [156] test       4       1    ; to [158] if false
141E  1A000280           [157] jmp        9            ; to [167]
1422  58010000           [158] test       5       0    ; to [160] if true
1426  1A400080           [159] jmp        2            ; to [162]
fail op	21
142A  55400183           [160] concat     1   262 5  
142E  1A000180           [161] jmp        5            ; to [167]
1432  58410000           [162] test       5       1    ; to [164] if false
1436  1A403C80           [163] jmp        242          ; to [406]
143A  4EC44808           [164] gettable   17  16  291  ; "maxPlayers"
fail op	21
143E  15400492           [165] concat     0   292 17 
1442  1A803B80           [166] jmp        239          ; to [406]
1446  0C440285           [167] settable   16  266 9    ; "regionId"
144A  0CC40391           [168] settable   16  290 15   ; "gameModeId"
144E  5DC40400           [169] getglobal  17  19       ; -1817107093
1452  99440900           [170] loadk      18  37       ; "In setting place, region id is: "
1456  DD440700           [171] getglobal  19  29       ; -1615931716
145A  12058004           [172] move       20  9      
145E  E2840001           [173] call       19  2   2  
1462  82C40409           [174] concat     18  18  19 
1466  62440001           [175] call       17  2   1  
146A  53048001           [176] getupval   17  3      
146E  4EC4C908           [177] gettable   17  17  295  ; -132701534
1472  9D040000           [178] getglobal  18  0        ; 1074689893
1476  DDC40200           [179] getglobal  19  11       ; _T
147A  CE04CA09           [180] gettable   19  19  296  ; "PlayNowActive"
147E  A2840001           [181] call       18  2   2  
1482  D7040000           [182] loadbool   19  0   0    ; false
1486  1DC50200           [183] getglobal  20  11       ; _T
148A  0E054A0A           [184] gettable   20  20  296  ; "PlayNowActive"
148E  62840002           [185] call       17  4   2  
1492  0C440493           [186] settable   16  294 17   ; "usingPlayNow"
1496  53040000           [187] getupval   17  0      
149A  4E44CA08           [188] gettable   17  17  297  ; -1304984966
149E  8E844808           [189] gettable   18  16  290  ; "gameModeId"
14A2  62840001           [190] call       17  2   2  
14A6  58040000           [191] test       17      0    ; to [193] if true
14AA  1A000380           [192] jmp        13           ; to [206]
14AE  53040000           [193] getupval   17  0      
14B2  4E84CA08           [194] gettable   17  17  298  ; 60519835
14B6  92040000           [195] move       18  0      
14BA  62840001           [196] call       17  2   2  
14BE  9D040000           [197] getglobal  18  0        ; 1074689893
14C2  D2048008           [198] move       19  17     
14C6  A2840001           [199] call       18  2   2  
14CA  98440000           [200] test       18      1    ; to [202] if false
14CE  1A800E80           [201] jmp        59           ; to [261]
14D2  A4C44A08           [202] self       18  16  299  ; -435281401
14D6  0E05CB08           [203] gettable   20  17  300  ; "sec"
14DA  A2448001           [204] call       18  3   1  
14DE  1A800D80           [205] jmp        55           ; to [261]
14E2  58000000           [206] test       1       0    ; to [208] if true
14E6  1A400680           [207] jmp        26           ; to [234]
14EA  9D040400           [208] getglobal  18  16       ; string
14EE  8E444409           [209] gettable   18  18  273  ; -565905820
14F2  D2040000           [210] move       19  0      
14F6  13050000           [211] getupval   20  0      
14FA  0E454B0A           [212] gettable   20  20  301  ; "KEY_TAG"
14FE  A2848001           [213] call       18  3   2  
1502  98040000           [214] test       18      0    ; to [216] if true
1506  1A400480           [215] jmp        18           ; to [234]
150A  9D040400           [216] getglobal  18  16       ; string
150E  8E444409           [217] gettable   18  18  273  ; -565905820
1512  D2040000           [218] move       19  0      
1516  13050000           [219] getupval   20  0      
151A  0E454B0A           [220] gettable   20  20  301  ; "KEY_TAG"
151E  A2848001           [221] call       18  3   2  
1522  98040000           [222] test       18      0    ; to [224] if true
1526  1A000980           [223] jmp        37           ; to [261]
152A  DD040400           [224] getglobal  19  16       ; string
152E  CEC4C709           [225] gettable   19  19  287  ; 2071470131
1532  12050000           [226] move       20  0      
1536  59050800           [227] loadk      21  32       ; 0
153A  8D054809           [228] sub        22  18  288  ; 0
153E  E2840002           [229] call       19  4   2  
1542  24C54A08           [230] self       20  16  299  ; -435281401
1546  92058009           [231] move       22  19     
154A  22458001           [232] call       20  3   1  
154E  1A800680           [233] jmp        27           ; to [261]
fail op	35
1552  63004600           [234] close      1  
1556  1A800580           [235] jmp        23           ; to [259]
155A  1D050400           [236] getglobal  20  16       ; string
155E  0E45440A           [237] gettable   20  20  273  ; -565905820
1562  52050000           [238] move       21  0      
1566  93050000           [239] getupval   22  0      
156A  8E854B0B           [240] gettable   22  22  302  ; "ACTIVE_MISSION_TAG"
156E  22858001           [241] call       20  3   2  
fail op	35
1572  6300460A           [242] close      1  
1576  1A800380           [243] jmp        15           ; to [259]
157A  1DC50200           [244] getglobal  20  11       ; _T
157E  0EC54B0A           [245] gettable   20  20  303  ; "CachedActiveMissions"
1582  0E45030A           [246] gettable   20  20  13 
1586  18050000           [247] test       20      0    ; to [249] if true
158A  1A400280           [248] jmp        10           ; to [259]
158E  24C54A08           [249] self       20  16  299  ; -435281401
1592  9DC50200           [250] getglobal  22  11       ; _T
1596  8EC54B0B           [251] gettable   22  22  303  ; "CachedActiveMissions"
159A  8E45030B           [252] gettable   22  22  13 
159E  8E054C0B           [253] gettable   22  22  304  ; "mMissionInfo"
15A2  8E454C0B           [254] gettable   22  22  305  ; "activeMissionTag"
15A6  A4854C0B           [255] self       22  22  306  ; 1590141906
15AA  A2050001           [256] call       22  2   0  
15AE  22450000           [257] call       20  0   1  
15B2  1A400080           [258] jmp        2            ; to [261]
15B6  24C54C08           [259] self       20  16  307  ; 881469584
15BA  22450001           [260] call       20  2   1  
15BE  18010000           [261] test       4       0    ; to [263] if true
15C2  1A800380           [262] jmp        15           ; to [278]
15C6  13050002           [263] getupval   20  4      
15CA  0C048591           [264] settable   16  291 20   ; "maxPlayers"
15CE  24054D08           [265] self       20  16  308  ; -1847263965
15D2  93058002           [266] getupval   22  5      
15D6  D3050003           [267] getupval   23  6      
15DA  22450002           [268] call       20  4   1  
15DE  24054D08           [269] self       20  16  308  ; -1847263965
15E2  93058003           [270] getupval   22  7      
15E6  D3050003           [271] getupval   23  6      
15EA  22450002           [272] call       20  4   1  
15EE  1D450000           [273] getglobal  20  1        ; gMatchingService
15F2  24454D0A           [274] self       20  20  309  ; 1232771896
15F6  93058002           [275] getupval   22  5      
15FA  22458001           [276] call       20  3   1  
15FE  1AC00480           [277] jmp        20           ; to [298]
1602  58010000           [278] test       5       0    ; to [280] if true
1606  1AC00080           [279] jmp        4            ; to [284]
fail op	21
160A  15400183           [280] concat     0   262 5  
160E  1A400080           [281] jmp        2            ; to [284]
1612  0C448191           [282] settable   16  291 5    ; "maxPlayers"
1616  1A400380           [283] jmp        14           ; to [298]
fail op	35
161A  23804D01           [284] close      0  
161E  1A800080           [285] jmp        3            ; to [289]
1622  13050004           [286] getupval   20  8      
1626  0C048591           [287] settable   16  291 20   ; "maxPlayers"
162A  1A000280           [288] jmp        9            ; to [298]
162E  13058004           [289] getupval   20  9      
fail op	35
1632  23008507           [290] close      0  
1636  1A400080           [291] jmp        2            ; to [294]
163A  0CC4CD91           [292] settable   16  291 311  ; "maxPlayers" 0
163E  1AC00080           [293] jmp        4            ; to [298]
1642  0EC54808           [294] gettable   20  16  291  ; "maxPlayers"
fail op	21
1646  15000592           [295] concat     0   292 20 
164A  1A000080           [296] jmp        1            ; to [298]
164E  0C04C991           [297] settable   16  291 292  ; "maxPlayers" 0
1652  1D050E00           [298] getglobal  20  56       ; _G
1656  0E454E0A           [299] gettable   20  20  313  ; "CachedGoalInfo"
165A  0E45030A           [300] gettable   20  20  13 
165E  18050000           [301] test       20      0    ; to [303] if true
1662  1A000B80           [302] jmp        45           ; to [348]
1666  1D050E00           [303] getglobal  20  56       ; _G
166A  0E454E0A           [304] gettable   20  20  313  ; "CachedGoalInfo"
166E  0E45030A           [305] gettable   20  20  13 
1672  0E854E0A           [306] gettable   20  20  314  ; "mMaxConclave"
fail op	21
1676  55000583           [307] concat     1   262 20 
167A  1AC00280           [308] jmp        12           ; to [321]
167E  1D050E00           [309] getglobal  20  56       ; _G
1682  0E454E0A           [310] gettable   20  20  313  ; "CachedGoalInfo"
1686  0E45030A           [311] gettable   20  20  13 
168A  0EC54E0A           [312] gettable   20  20  315  ; "mBonusActive"
168E  18050000           [313] test       20      0    ; to [315] if true
1692  1A000880           [314] jmp        33           ; to [348]
1696  1D050E00           [315] getglobal  20  56       ; _G
169A  0E454E0A           [316] gettable   20  20  313  ; "CachedGoalInfo"
169E  0E45030A           [317] gettable   20  20  13 
16A2  0E054F0A           [318] gettable   20  20  316  ; "mBonusMaxConclave"
fail op	21
16A6  15000583           [319] concat     0   262 20 
16AA  1A800680           [320] jmp        27           ; to [348]
16AE  13058001           [321] getupval   20  3      
16B2  0EC5490A           [322] gettable   20  20  295  ; -132701534
16B6  5D050E00           [323] getglobal  21  56       ; _G
16BA  4E45CE0A           [324] gettable   21  21  313  ; "CachedGoalInfo"
16BE  4E45830A           [325] gettable   21  21  13 
16C2  4EC5CE0A           [326] gettable   21  21  315  ; "mBonusActive"
16C6  58050000           [327] test       21      0    ; to [329] if true
16CA  1AC00180           [328] jmp        8            ; to [337]
16CE  5D050E00           [329] getglobal  21  56       ; _G
16D2  4E45CE0A           [330] gettable   21  21  313  ; "CachedGoalInfo"
16D6  4E45830A           [331] gettable   21  21  13 
16DA  4E05CF0A           [332] gettable   21  21  316  ; "mBonusMaxConclave"
fail op	21
16DE  55400583           [333] concat     1   262 21 
16E2  1A000080           [334] jmp        1            ; to [336]
16E6  57450000           [335] loadbool   21  0   1    ; false, to [337]
16EA  57058000           [336] loadbool   21  1   0    ; true
16EE  9D050E00           [337] getglobal  22  56       ; _G
16F2  8E454E0B           [338] gettable   22  22  313  ; "CachedGoalInfo"
16F6  8E45030B           [339] gettable   22  22  13 
16FA  8E054F0B           [340] gettable   22  22  316  ; "mBonusMaxConclave"
16FE  DD050E00           [341] getglobal  23  56       ; _G
1702  CE45CE0B           [342] gettable   23  23  313  ; "CachedGoalInfo"
1706  CE45830B           [343] gettable   23  23  13 
170A  CE85CE0B           [344] gettable   23  23  314  ; "mMaxConclave"
170E  22850002           [345] call       20  4   2  
1712  0C04859E           [346] settable   16  317 20   ; "eloRating"
1716  1A400280           [347] jmp        10           ; to [358]
fail op	5
171A  05050001           [348] getglobal  20  1024     ; nil
171E  1AC00080           [349] jmp        4            ; to [354]
1722  1D850F00           [350] getglobal  20  62       ; gFlashMgr
1726  24C54F0A           [351] self       20  20  319  ; 277467219
172A  99051000           [352] loadk      22  64       ; "Multiplayer.RankedPVP"
172E  22858001           [353] call       20  3   2  
1732  53050005           [354] getupval   21  10     
1736  92050008           [355] move       22  16     
173A  D205000A           [356] move       23  20     
173E  62458001           [357] call       21  3   1  
1742  0C04C7A0           [358] settable   16  321 284  ; "guildId" ""
1746  98000000           [359] test       2       0    ; to [361] if true
174A  1A000580           [360] jmp        21           ; to [382]
174E  5D050E00           [361] getglobal  21  56       ; _G
1752  4E85D00A           [362] gettable   21  21  322  ; "gClanOnlyMatchMaking"
1756  9DC51000           [363] getglobal  22  67       ; SESSION_CLAN_ONLY
fail op	35
175A  2380850A           [364] close      0  
175E  1A400180           [365] jmp        6            ; to [372]
1762  6405D103           [366] self       21  7   324  ; 1699680402
1766  62850001           [367] call       21  2   2  
176A  6445D10A           [368] self       21  21  325  ; 360266085
176E  62850001           [369] call       21  2   2  
1772  0C4485A0           [370] settable   16  321 21   ; "guildId"
1776  1A400280           [371] jmp        10           ; to [382]
177A  5D050E00           [372] getglobal  21  56       ; _G
177E  4E85D00A           [373] gettable   21  21  322  ; "gClanOnlyMatchMaking"
1782  9D851100           [374] getglobal  22  70       ; SESSION_ALLIANCE_ONLY
fail op	35
1786  2380850A           [375] close      0  
178A  1A000180           [376] jmp        5            ; to [382]
178E  6405D103           [377] self       21  7   324  ; 1699680402
1792  62850001           [378] call       21  2   2  
1796  64C5D10A           [379] self       21  21  327  ; 2040103689
179A  62850001           [380] call       21  2   2  
179E  0C4485A0           [381] settable   16  321 21   ; "guildId"
17A2  4E854808           [382] gettable   21  16  290  ; "gameModeId"
fail op	35
17A6  2380C10A           [383] close      0  
17AA  1A400080           [384] jmp        2            ; to [387]
17AE  53058005           [385] getupval   21  11     
17B2  0C448591           [386] settable   16  291 21   ; "maxPlayers"
17B6  5DC50400           [387] getglobal  21  19       ; -1817107093
17BA  99051200           [388] loadk      22  72       ; "Host changed to gameModeId="
17BE  CE854808           [389] gettable   23  16  290  ; "gameModeId"
17C2  19461200           [390] loadk      24  73       ; " ("
17C6  5D460700           [391] getglobal  25  29       ; -1615931716
17CA  92060000           [392] move       26  0      
17CE  62860001           [393] call       25  2   2  
17D2  99861200           [394] loadk      26  74       ; ")"
17D6  D9C61200           [395] loadk      27  75       ; "ELO="
17DA  1D470700           [396] getglobal  28  29       ; -1615931716
17DE  4E474F08           [397] gettable   29  16  317  ; "eloRating"
17E2  22870001           [398] call       28  2   2  
17E6  8205070B           [399] concat     22  22  28 
17EA  62450001           [400] call       21  2   1  
17EE  5D450000           [401] getglobal  21  1        ; gMatchingService
17F2  6405D30A           [402] self       21  21  332  ; -1498972169
17F6  D2050008           [403] move       23  16     
17FA  12068001           [404] move       24  3      
17FE  62450002           [405] call       21  4   1  
1802  57058000           [406] loadbool   21  1   0    ; true
1806  5E050001           [407] return     21  2      
180A  1E008000           [408] return     0   1      
                         * constants:
180E  4D                 sizek (77)
180F  01                 const type 3
1810  65770E40           const [0]: (1074689893)
1814  04                 const type 4
1815  11                 string size (17)
1816  674D61746368696E+  "gMatchin"
181E  6753657276696365+  "gService"
1826  00                 "\0"
                         const [1]: "gMatchingService"
1827  01                 const type 3
1828  4636E0D5           const [2]: (-706726330)
182C  01                 const type 3
182D  EF47C8E1           const [3]: (-506968081)
1831  04                 const type 4
1832  12                 string size (18)
1833  67506C6179657250+  "gPlayerP"
183B  726F66696C654D67+  "rofileMg"
1843  7200               "r\0"
                         const [4]: "gPlayerProfileMgr"
1845  01                 const type 3
1846  1A7BEF21           const [5]: (569342746)
184A  03                 const type 3
184B  00000000           const [6]: (0)
184F  01                 const type 3
1850  2E61EB3E           const [7]: (1055613230)
1854  01                 const type 3
1855  C18C585E           const [8]: (1582861505)
1859  03                 const type 3
185A  000080BF           const [9]: (0)
185E  04                 const type 4
185F  09                 string size (9)
1860  726567696F6E4964+  "regionId"
1868  00                 "\0"
                         const [10]: "regionId"
1869  04                 const type 4
186A  03                 string size (3)
186B  5F5400             "_T\0"
                         const [11]: "_T"
186E  04                 const type 4
186F  17                 string size (23)
1870  674163746976654D+  "gActiveM"
1878  617463684D616B69+  "atchMaki"
1880  6E674D6F646500     "ngMode\0"
                         const [12]: "gActiveMatchMakingMode"
1887  04                 const type 4
1888  20                 string size (32)
1889  4D415443484D414B+  "MATCHMAK"
1891  494E475F51554943+  "ING_QUIC"
1899  4B4D415443485F47+  "KMATCH_G"
18A1  414D454D4F444500   "AMEMODE\0"
                         const [13]: "MATCHMAKING_QUICKMATCH_GAMEMODE"
18A9  04                 const type 4
18AA  07                 string size (7)
18AB  456E67696E6500     "Engine\0"
                         const [14]: "Engine"
18B2  04                 const type 4
18B3  08                 string size (8)
18B4  5052495641544500   "PRIVATE\0"
                         const [15]: "PRIVATE"
18BC  04                 const type 4
18BD  07                 string size (7)
18BE  737472696E6700     "string\0"
                         const [16]: "string"
18C5  01                 const type 3
18C6  64F644DE           const [17]: (-565905820)
18CA  04                 const type 4
18CB  15                 string size (21)
18CC  4241444C414E445F+  "BADLAND_"
18D4  41545441434B4552+  "ATTACKER"
18DC  5F54414700         "_TAG\0"
                         const [18]: "BADLAND_ATTACKER_TAG"
18E1  01                 const type 3
18E2  6B25B193           const [19]: (-1817107093)
18E6  04                 const type 4
18E7  3D                 string size (61)
18E8  417474656D707465+  "Attempte"
18F0  6420746F20686F73+  "d to hos"
18F8  7420536F6C617220+  "t Solar "
1900  5261696C20436F6E+  "Rail Con"
1908  666C696374206173+  "flict as"
1910  20444546454E4445+  " DEFENDE"
1918  523F2052656A6563+  "R? Rejec"
1920  74696E6700         "ting\0"
                         const [20]: "Attempted to host Solar Rail Conflict as DEFENDER? Rejecting"
1925  04                 const type 4
1926  21                 string size (33)
1927  4D415443484D414B+  "MATCHMAK"
192F  494E475F494E5649+  "ING_INVI"
1937  54455F4F4E4C595F+  "TE_ONLY_"
193F  47414D454D4F4445+  "GAMEMODE"
1947  00                 "\0"
                         const [21]: "MATCHMAKING_INVITE_ONLY_GAMEMODE"
1948  04                 const type 4
1949  0C                 string size (12)
194A  494E564954455F4F+  "INVITE_O"
1952  4E4C5900           "NLY\0"
                         const [22]: "INVITE_ONLY"
1956  04                 const type 4
1957  1D                 string size (29)
1958  4D415443484D414B+  "MATCHMAK"
1960  494E475F4F46464C+  "ING_OFFL"
1968  494E455F47414D45+  "INE_GAME"
1970  4D4F444500         "MODE\0"
                         const [23]: "MATCHMAKING_OFFLINE_GAMEMODE"
1975  00                 const type 0
                         const [24]: nil
1976  04                 const type 4
1977  08                 string size (8)
1978  4855425F54414700   "HUB_TAG\0"
                         const [25]: "HUB_TAG"
1980  01                 const type 3
1981  BE453FEB           const [26]: (-348174914)
1985  04                 const type 4
1986  07                 string size (7)
1987  4C4F434B454400     "LOCKED\0"
                         const [27]: "LOCKED"
198E  04                 const type 4
198F  01                 string size (0)
                         const [28]: ""
1991  01                 const type 3
1992  BCD6AE9F           const [29]: (-1615931716)
1996  04                 const type 4
1997  0E                 string size (14)
1998  5441475F53455045+  "TAG_SEPE"
19A0  5241544F5200       "RATOR\0"
                         const [30]: "TAG_SEPERATOR"
19A6  01                 const type 3
19A7  3320787B           const [31]: (2071470131)
19AB  03                 const type 3
19AC  0000803F           const [32]: (0)
19B0  01                 const type 3
19B1  2F93E5E4           const [33]: (-454716625)
19B5  04                 const type 4
19B6  0B                 string size (11)
19B7  67616D654D6F6465+  "gameMode"
19BF  496400             "Id\0"
                         const [34]: "gameModeId"
19C2  04                 const type 4
19C3  0B                 string size (11)
19C4  6D6178506C617965+  "maxPlaye"
19CC  727300             "rs\0"
                         const [35]: "maxPlayers"
19CF  03                 const type 3
19D0  00008040           const [36]: (0)
19D4  04                 const type 4
19D5  21                 string size (33)
19D6  496E207365747469+  "In setti"
19DE  6E6720706C616365+  "ng place"
19E6  2C20726567696F6E+  ", region"
19EE  2069642069733A20+  " id is: "
19F6  00                 "\0"
                         const [37]: "In setting place, region id is: "
19F7  04                 const type 4
19F8  0D                 string size (13)
19F9  7573696E67506C61+  "usingPla"
1A01  794E6F7700         "yNow\0"
                         const [38]: "usingPlayNow"
1A06  01                 const type 3
1A07  A22217F8           const [39]: (-132701534)
1A0B  04                 const type 4
1A0C  0E                 string size (14)
1A0D  506C61794E6F7741+  "PlayNowA"
1A15  637469766500       "ctive\0"
                         const [40]: "PlayNowActive"
1A1B  01                 const type 3
1A1C  7A8237B2           const [41]: (-1304984966)
1A20  01                 const type 3
1A21  9B759B03           const [42]: (60519835)
1A25  01                 const type 3
1A26  07220EE6           const [43]: (-435281401)
1A2A  04                 const type 4
1A2B  04                 string size (4)
1A2C  73656300           "sec\0"
                         const [44]: "sec"
1A30  04                 const type 4
1A31  08                 string size (8)
1A32  4B45595F54414700   "KEY_TAG\0"
                         const [45]: "KEY_TAG"
1A3A  04                 const type 4
1A3B  13                 string size (19)
1A3C  4143544956455F4D+  "ACTIVE_M"
1A44  495353494F4E5F54+  "ISSION_T"
1A4C  414700             "AG\0"
                         const [46]: "ACTIVE_MISSION_TAG"
1A4F  04                 const type 4
1A50  15                 string size (21)
1A51  4361636865644163+  "CachedAc"
1A59  746976654D697373+  "tiveMiss"
1A61  696F6E7300         "ions\0"
                         const [47]: "CachedActiveMissions"
1A66  04                 const type 4
1A67  0D                 string size (13)
1A68  6D4D697373696F6E+  "mMission"
1A70  496E666F00         "Info\0"
                         const [48]: "mMissionInfo"
1A75  04                 const type 4
1A76  11                 string size (17)
1A77  6163746976654D69+  "activeMi"
1A7F  7373696F6E546167+  "ssionTag"
1A87  00                 "\0"
                         const [49]: "activeMissionTag"
1A88  01                 const type 3
1A89  D2A3C75E           const [50]: (1590141906)
1A8D  01                 const type 3
1A8E  90288A34           const [51]: (881469584)
1A92  01                 const type 3
1A93  23FDE491           const [52]: (-1847263965)
1A97  01                 const type 3
1A98  389B7A49           const [53]: (1232771896)
1A9C  01                 const type 3
1A9D  01000000           const [54]: (1)
1AA1  03                 const type 3
1AA2  00000040           const [55]: (0)
1AA6  04                 const type 4
1AA7  03                 string size (3)
1AA8  5F4700             "_G\0"
                         const [56]: "_G"
1AAB  04                 const type 4
1AAC  0F                 string size (15)
1AAD  436163686564476F+  "CachedGo"
1AB5  616C496E666F00     "alInfo\0"
                         const [57]: "CachedGoalInfo"
1ABC  04                 const type 4
1ABD  0D                 string size (13)
1ABE  6D4D6178436F6E63+  "mMaxConc"
1AC6  6C61766500         "lave\0"
                         const [58]: "mMaxConclave"
1ACB  04                 const type 4
1ACC  0D                 string size (13)
1ACD  6D426F6E75734163+  "mBonusAc"
1AD5  7469766500         "tive\0"
                         const [59]: "mBonusActive"
1ADA  04                 const type 4
1ADB  12                 string size (18)
1ADC  6D426F6E75734D61+  "mBonusMa"
1AE4  78436F6E636C6176+  "xConclav"
1AEC  6500               "e\0"
                         const [60]: "mBonusMaxConclave"
1AEE  04                 const type 4
1AEF  0A                 string size (10)
1AF0  656C6F526174696E+  "eloRatin"
1AF8  6700               "g\0"
                         const [61]: "eloRating"
1AFA  04                 const type 4
1AFB  0A                 string size (10)
1AFC  67466C6173684D67+  "gFlashMg"
1B04  7200               "r\0"
                         const [62]: "gFlashMgr"
1B06  01                 const type 3
1B07  53D08910           const [63]: (277467219)
1B0B  04                 const type 4
1B0C  16                 string size (22)
1B0D  4D756C7469706C61+  "Multipla"
1B15  7965722E52616E6B+  "yer.Rank"
1B1D  656450565000       "edPVP\0"
                         const [64]: "Multiplayer.RankedPVP"
1B23  04                 const type 4
1B24  08                 string size (8)
1B25  6775696C64496400   "guildId\0"
                         const [65]: "guildId"
1B2D  04                 const type 4
1B2E  15                 string size (21)
1B2F  67436C616E4F6E6C+  "gClanOnl"
1B37  794D617463684D61+  "yMatchMa"
1B3F  6B696E6700         "king\0"
                         const [66]: "gClanOnlyMatchMaking"
1B44  04                 const type 4
1B45  12                 string size (18)
1B46  53455353494F4E5F+  "SESSION_"
1B4E  434C414E5F4F4E4C+  "CLAN_ONL"
1B56  5900               "Y\0"
                         const [67]: "SESSION_CLAN_ONLY"
1B58  01                 const type 3
1B59  92104F65           const [68]: (1699680402)
1B5D  01                 const type 3
1B5E  65397915           const [69]: (360266085)
1B62  04                 const type 4
1B63  16                 string size (22)
1B64  53455353494F4E5F+  "SESSION_"
1B6C  414C4C49414E4345+  "ALLIANCE"
1B74  5F4F4E4C5900       "_ONLY\0"
                         const [70]: "SESSION_ALLIANCE_ONLY"
1B7A  01                 const type 3
1B7B  09839979           const [71]: (2040103689)
1B7F  04                 const type 4
1B80  1C                 string size (28)
1B81  486F737420636861+  "Host cha"
1B89  6E67656420746F20+  "nged to "
1B91  67616D654D6F6465+  "gameMode"
1B99  49643D00           "Id=\0"
                         const [72]: "Host changed to gameModeId="
1B9D  04                 const type 4
1B9E  03                 string size (3)
1B9F  202800             " (\0"
                         const [73]: " ("
1BA2  04                 const type 4
1BA3  02                 string size (2)
1BA4  2900               ")\0"
                         const [74]: ")"
1BA6  04                 const type 4
1BA7  05                 string size (5)
1BA8  454C4F3D00         "ELO=\0"
                         const [75]: "ELO="
1BAD  01                 const type 3
1BAE  F77FA7A6           const [76]: (-1498972169)
                         * functions:
1BB2  00                 sizep (0)
                         * lines:
1BB4  03                 sizelineinfo (408)
                         [pc] (line)
1BB5  69                 [001] (105)
1BB6  00                 [002] (105)
1BB7  00                 [003] (105)
1BB8  00                 [004] (105)
1BB9  69                 [005] (105)
1BBA  00                 [006] (106)
1BBB  00                 [007] (109)
1BBC  00                 [008] (109)
1BBD  69                 [009] (109)
1BBE  00                 [010] (110)
1BBF  00                 [011] (110)
1BC0  00                 [012] (110)
1BC1  69                 [013] (110)
1BC2  00                 [014] (110)
1BC3  00                 [015] (110)
1BC4  00                 [016] (110)
1BC5  69                 [017] (110)
1BC6  00                 [018] (110)
1BC7  00                 [019] (110)
1BC8  00                 [020] (111)
1BC9  6A                 [021] (111)
1BCA  00                 [022] (111)
1BCB  00                 [023] (111)
1BCC  00                 [024] (112)
1BCD  6D                 [025] (112)
1BCE  00                 [026] (112)
1BCF  00                 [027] (112)
1BD0  00                 [028] (115)
1BD1  6D                 [029] (117)
1BD2  00                 [030] (117)
1BD3  00                 [031] (119)
1BD4  00                 [032] (120)
1BD5  6D                 [033] (120)
1BD6  00                 [034] (120)
1BD7  00                 [035] (120)
1BD8  00                 [036] (120)
1BD9  6E                 [037] (120)
1BDA  00                 [038] (120)
1BDB  00                 [039] (120)
1BDC  00                 [040] (120)
1BDD  6E                 [041] (122)
1BDE  00                 [042] (122)
1BDF  00                 [043] (126)
1BE0  00                 [044] (126)
1BE1  6E                 [045] (126)
1BE2  00                 [046] (126)
1BE3  00                 [047] (126)
1BE4  00                 [048] (126)
1BE5  6E                 [049] (127)
1BE6  00                 [050] (127)
1BE7  00                 [051] (-128)
1BE8  00                 [052] (-128)
1BE9  6E                 [053] (-128)
1BEA  00                 [054] (-127)
1BEB  00                 [055] (-127)
1BEC  00                 [056] (-126)
1BED  6E                 [057] (-119)
1BEE  00                 [058] (-119)
1BEF  00                 [059] (-119)
1BF0  00                 [060] (-119)
1BF1  6E                 [061] (-119)
1BF2  00                 [062] (-119)
1BF3  00                 [063] (-119)
1BF4  00                 [064] (-119)
1BF5  6E                 [065] (-119)
1BF6  00                 [066] (-119)
1BF7  00                 [067] (-118)
1BF8  00                 [068] (-118)
1BF9  6E                 [069] (-118)
1BFA  00                 [070] (-117)
1BFB  00                 [071] (-117)
1BFC  00                 [072] (-117)
1BFD  6E                 [073] (-117)
1BFE  00                 [074] (-117)
1BFF  00                 [075] (-117)
1C00  00                 [076] (-117)
1C01  6F                 [077] (-117)
1C02  00                 [078] (-116)
1C03  00                 [079] (-116)
1C04  00                 [080] (-115)
1C05  6F                 [081] (-115)
1C06  00                 [082] (-115)
1C07  00                 [083] (-115)
1C08  00                 [084] (-115)
1C09  6F                 [085] (-115)
1C0A  00                 [086] (-113)
1C0B  00                 [087] (-113)
1C0C  00                 [088] (-113)
1C0D  6F                 [089] (-111)
1C0E  00                 [090] (-111)
1C0F  00                 [091] (-108)
1C10  00                 [092] (-107)
1C11  70                 [093] (-107)
1C12  00                 [094] (-107)
1C13  00                 [095] (-107)
1C14  00                 [096] (-107)
1C15  70                 [097] (-107)
1C16  00                 [098] (-107)
1C17  00                 [099] (-107)
1C18  00                 [100] (-107)
1C19  70                 [101] (-107)
1C1A  00                 [102] (-106)
1C1B  00                 [103] (-103)
1C1C  00                 [104] (-103)
1C1D  70                 [105] (-102)
1C1E  00                 [106] (-102)
1C1F  00                 [107] (-102)
1C20  00                 [108] (-102)
1C21  73                 [109] (-102)
1C22  00                 [110] (-102)
1C23  00                 [111] (-102)
1C24  00                 [112] (-101)
1C25  75                 [113] (-101)
1C26  00                 [114] (-96)
1C27  00                 [115] (-95)
1C28  00                 [116] (-95)
1C29  75                 [117] (-94)
1C2A  00                 [118] (-94)
1C2B  00                 [119] (-94)
1C2C  00                 [120] (-94)
1C2D  77                 [121] (-93)
1C2E  00                 [122] (-93)
1C2F  00                 [123] (-93)
1C30  00                 [124] (-93)
1C31  78                 [125] (-93)
1C32  00                 [126] (-93)
1C33  00                 [127] (-92)
1C34  00                 [128] (-92)
1C35  78                 [129] (-91)
1C36  00                 [130] (-91)
1C37  00                 [131] (-91)
1C38  00                 [132] (-91)
1C39  78                 [133] (-91)
1C3A  00                 [134] (-91)
1C3B  00                 [135] (-91)
1C3C  00                 [136] (-87)
1C3D  78                 [137] (-86)
1C3E  00                 [138] (-86)
1C3F  00                 [139] (-85)
1C40  00                 [140] (-85)
1C41  78                 [141] (-85)
1C42  00                 [142] (-85)
1C43  00                 [143] (-85)
1C44  00                 [144] (-82)
1C45  78                 [145] (-82)
1C46  00                 [146] (-82)
1C47  00                 [147] (-82)
1C48  00                 [148] (-80)
1C49  78                 [149] (-80)
1C4A  00                 [150] (-79)
1C4B  00                 [151] (-79)
1C4C  00                 [152] (-79)
1C4D  78                 [153] (-79)
1C4E  00                 [154] (-79)
1C4F  00                 [155] (-79)
1C50  00                 [156] (-79)
1C51  78                 [157] (-79)
1C52  00                 [158] (-79)
1C53  00                 [159] (-79)
1C54  00                 [160] (-79)
1C55  7A                 [161] (-79)
1C56  00                 [162] (-79)
1C57  00                 [163] (-79)
1C58  00                 [164] (-79)
1C59  7A                 [165] (-79)
1C5A  00                 [166] (-79)
1C5B  00                 [167] (-78)
1C5C  00                 [168] (-77)
1C5D  7E                 [169] (-75)
1C5E  00                 [170] (-75)
1C5F  00                 [171] (-75)
1C60  00                 [172] (-75)
1C61  7E                 [173] (-75)
1C62  00                 [174] (-75)
1C63  00                 [175] (-75)
1C64  00                 [176] (-73)
1C65  7E                 [177] (-73)
1C66  00                 [178] (-73)
1C67  00                 [179] (-73)
1C68  00                 [180] (-73)
1C69  7E                 [181] (-73)
1C6A  00                 [182] (-73)
1C6B  00                 [183] (-73)
1C6C  00                 [184] (-73)
1C6D  7E                 [185] (-73)
1C6E  00                 [186] (-73)
1C6F  00                 [187] (-71)
1C70  00                 [188] (-71)
1C71  7E                 [189] (-71)
1C72  00                 [190] (-71)
1C73  00                 [191] (-71)
1C74  00                 [192] (-71)
1C75  7F                 [193] (-70)
1C76  00                 [194] (-70)
1C77  00                 [195] (-70)
1C78  00                 [196] (-70)
1C79  7F                 [197] (-69)
1C7A  00                 [198] (-69)
1C7B  00                 [199] (-69)
1C7C  00                 [200] (-69)
1C7D  80                 [201] (-69)
1C7E  00                 [202] (-68)
1C7F  00                 [203] (-68)
1C80  00                 [204] (-68)
1C81  80                 [205] (-67)
1C82  00                 [206] (-66)
1C83  00                 [207] (-66)
1C84  00                 [208] (-66)
1C85  80                 [209] (-66)
1C86  00                 [210] (-66)
1C87  00                 [211] (-66)
1C88  00                 [212] (-66)
1C89  81                 [213] (-66)
1C8A  00                 [214] (-66)
1C8B  00                 [215] (-66)
1C8C  00                 [216] (-65)
1C8D  81                 [217] (-65)
1C8E  00                 [218] (-65)
1C8F  00                 [219] (-65)
1C90  00                 [220] (-65)
1C91  82                 [221] (-65)
1C92  00                 [222] (-64)
1C93  00                 [223] (-64)
1C94  00                 [224] (-63)
1C95  89                 [225] (-63)
1C96  00                 [226] (-63)
1C97  00                 [227] (-63)
1C98  00                 [228] (-63)
1C99  89                 [229] (-63)
1C9A  00                 [230] (-62)
1C9B  00                 [231] (-62)
1C9C  00                 [232] (-62)
1C9D  89                 [233] (-61)
1C9E  00                 [234] (-60)
1C9F  00                 [235] (-60)
1CA0  00                 [236] (-60)
1CA1  89                 [237] (-60)
1CA2  00                 [238] (-60)
1CA3  00                 [239] (-60)
1CA4  00                 [240] (-60)
1CA5  89                 [241] (-60)
1CA6  00                 [242] (-60)
1CA7  00                 [243] (-60)
1CA8  00                 [244] (-60)
1CA9  89                 [245] (-60)
1CAA  00                 [246] (-60)
1CAB  00                 [247] (-60)
1CAC  00                 [248] (-60)
1CAD  89                 [249] (-59)
1CAE  00                 [250] (-59)
1CAF  00                 [251] (-59)
1CB0  00                 [252] (-59)
1CB1  89                 [253] (-59)
1CB2  00                 [254] (-59)
1CB3  00                 [255] (-59)
1CB4  00                 [256] (-59)
1CB5  89                 [257] (-59)
1CB6  00                 [258] (-59)
1CB7  00                 [259] (-57)
1CB8  00                 [260] (-57)
1CB9  89                 [261] (-54)
1CBA  00                 [262] (-54)
1CBB  00                 [263] (-52)
1CBC  00                 [264] (-52)
1CBD  8A                 [265] (-51)
1CBE  00                 [266] (-51)
1CBF  00                 [267] (-51)
1CC0  00                 [268] (-51)
1CC1  8A                 [269] (-50)
1CC2  00                 [270] (-50)
1CC3  00                 [271] (-50)
1CC4  00                 [272] (-50)
1CC5  8A                 [273] (-48)
1CC6  00                 [274] (-48)
1CC7  00                 [275] (-48)
1CC8  00                 [276] (-48)
1CC9  8B                 [277] (-48)
1CCA  00                 [278] (-46)
1CCB  00                 [279] (-46)
1CCC  00                 [280] (-46)
1CCD  8B                 [281] (-46)
1CCE  00                 [282] (-45)
1CCF  00                 [283] (-45)
1CD0  00                 [284] (-43)
1CD1  8B                 [285] (-43)
1CD2  00                 [286] (-42)
1CD3  00                 [287] (-42)
1CD4  00                 [288] (-42)
1CD5  8B                 [289] (-40)
1CD6  00                 [290] (-40)
1CD7  00                 [291] (-40)
1CD8  00                 [292] (-39)
1CD9  8B                 [293] (-39)
1CDA  00                 [294] (-37)
1CDB  00                 [295] (-37)
1CDC  00                 [296] (-37)
1CDD  8B                 [297] (-36)
1CDE  00                 [298] (-32)
1CDF  00                 [299] (-32)
1CE0  00                 [300] (-32)
1CE1  8B                 [301] (-32)
1CE2  00                 [302] (-32)
1CE3  00                 [303] (-32)
1CE4  00                 [304] (-32)
1CE5  8B                 [305] (-32)
1CE6  00                 [306] (-32)
1CE7  00                 [307] (-32)
1CE8  00                 [308] (-32)
1CE9  8C                 [309] (-32)
1CEA  00                 [310] (-32)
1CEB  00                 [311] (-32)
1CEC  00                 [312] (-32)
1CED  8C                 [313] (-32)
1CEE  00                 [314] (-32)
1CEF  00                 [315] (-32)
1CF0  00                 [316] (-32)
1CF1  8D                 [317] (-32)
1CF2  00                 [318] (-32)
1CF3  00                 [319] (-32)
1CF4  00                 [320] (-32)
1CF5  8D                 [321] (-30)
1CF6  00                 [322] (-30)
1CF7  00                 [323] (-30)
1CF8  00                 [324] (-30)
1CF9  8D                 [325] (-30)
1CFA  00                 [326] (-30)
1CFB  00                 [327] (-30)
1CFC  00                 [328] (-30)
1CFD  8D                 [329] (-30)
1CFE  00                 [330] (-30)
1CFF  00                 [331] (-30)
1D00  00                 [332] (-30)
1D01  8D                 [333] (-30)
1D02  00                 [334] (-30)
1D03  00                 [335] (-30)
1D04  00                 [336] (-30)
1D05  8D                 [337] (-30)
1D06  00                 [338] (-30)
1D07  00                 [339] (-30)
1D08  00                 [340] (-30)
1D09  8F                 [341] (-30)
1D0A  00                 [342] (-30)
1D0B  00                 [343] (-30)
1D0C  00                 [344] (-30)
1D0D  8F                 [345] (-30)
1D0E  00                 [346] (-30)
1D0F  00                 [347] (-30)
1D10  00                 [348] (-28)
1D11  8F                 [349] (-28)
1D12  00                 [350] (-28)
1D13  00                 [351] (-28)
1D14  00                 [352] (-28)
1D15  91                 [353] (-28)
1D16  00                 [354] (-27)
1D17  00                 [355] (-27)
1D18  00                 [356] (-27)
1D19  91                 [357] (-27)
1D1A  00                 [358] (-24)
1D1B  00                 [359] (-23)
1D1C  00                 [360] (-23)
1D1D  94                 [361] (-22)
1D1E  00                 [362] (-22)
1D1F  00                 [363] (-22)
1D20  00                 [364] (-22)
1D21  95                 [365] (-22)
1D22  00                 [366] (-21)
1D23  00                 [367] (-21)
1D24  00                 [368] (-21)
1D25  95                 [369] (-21)
1D26  00                 [370] (-21)
1D27  00                 [371] (-21)
1D28  00                 [372] (-20)
1D29  95                 [373] (-20)
1D2A  00                 [374] (-20)
1D2B  00                 [375] (-20)
1D2C  00                 [376] (-20)
1D2D  95                 [377] (-19)
1D2E  00                 [378] (-19)
1D2F  00                 [379] (-19)
1D30  00                 [380] (-19)
1D31  95                 [381] (-19)
1D32  00                 [382] (-15)
1D33  00                 [383] (-15)
1D34  00                 [384] (-15)
1D35  95                 [385] (-13)
1D36  00                 [386] (-13)
1D37  00                 [387] (-10)
1D38  00                 [388] (-10)
1D39  95                 [389] (-10)
1D3A  00                 [390] (-10)
1D3B  00                 [391] (-10)
1D3C  00                 [392] (-10)
1D3D  95                 [393] (-10)
1D3E  00                 [394] (-10)
1D3F  00                 [395] (-10)
1D40  00                 [396] (-10)
1D41  95                 [397] (-10)
1D42  00                 [398] (-10)
1D43  00                 [399] (-10)
1D44  00                 [400] (-10)
1D45  95                 [401] (-9)
1D46  00                 [402] (-9)
1D47  00                 [403] (-9)
1D48  00                 [404] (-9)
1D49  96                 [405] (-9)
1D4A  00                 [406] (-5)
1D4B  00                 [407] (-5)
1D4C  00                 [408] (-4)
                         * locals:
2215  00                 sizelocvars (0)
                         * upvalues:
2216  00                 sizeupvalues (0)
                         ** end of function **

                         
2217                     ** function [12] definition (level 2)
                         ** start of function **
2217  00                 string size (0)
                         source name: (none)
2219  01                 line defined (254)
221A  80                 last line defined (256)
221B  02                 nups (1)
221C  01                 numparams (6)
221D  06                 is_vararg (0)
221E  00                 maxstacksize (13)
                         * code:
2220  0A                 sizecode (10)
2221  93010000           [01] getupval   6   0      
2225  D2010000           [02] move       7   0      
2229  12028000           [03] move       8   1      
222D  52020001           [04] move       9   2      
2231  92028001           [05] move       10  3      
2235  D2020002           [06] move       11  4      
2239  12038002           [07] move       12  5      
223D  87018003           [08] tailcall   6   7   0  
2241  9E010000           [09] return     6   0      
2245  1E008000           [10] return     0   1      
                         * constants:
2249  00                 sizek (0)
                         * functions:
224A  00                 sizep (0)
                         * lines:
224B  0A                 sizelineinfo (10)
                         [pc] (line)
224C  FF                 [01] (-1)
224D  00                 [02] (-1)
224E  00                 [03] (-1)
224F  00                 [04] (-1)
2250  FF                 [05] (-1)
2251  00                 [06] (-1)
2252  00                 [07] (-1)
2253  00                 [08] (-1)
2254  FF                 [09] (-1)
2255  00                 [10] (0)
                         * locals:
2274  00                 sizelocvars (0)
                         * upvalues:
2275  00                 sizeupvalues (0)
                         ** end of function **

                         
2276                     ** function [13] definition (level 2)
                         ** start of function **
2276  00                 string size (0)
                         source name: (none)
2278  02                 line defined (258)
2279  83                 last line defined (259)
227A  02                 nups (0)
227B  00                 numparams (0)
227C  00                 is_vararg (0)
227D  00                 maxstacksize (2)
                         * code:
227F  01                 sizecode (1)
2280  1E008000           [1] return     0   1      
                         * constants:
2284  00                 sizek (0)
                         * functions:
2285  00                 sizep (0)
                         * lines:
2286  01                 sizelineinfo (1)
                         [pc] (line)
2287  03                 [1] (3)
                         * locals:
228B  00                 sizelocvars (0)
                         * upvalues:
228C  00                 sizeupvalues (0)
                         ** end of function **

                         
228D                     ** function [14] definition (level 2)
                         ** start of function **
228D  00                 string size (0)
                         source name: (none)
228F  02                 line defined (261)
2290  8A                 last line defined (266)
2291  02                 nups (0)
2292  00                 numparams (2)
2293  02                 is_vararg (0)
2294  00                 maxstacksize (6)
                         * code:
2296  0C                 sizecode (12)
2297  9D000000           [01] getglobal  2   0        ; 738251817
229B  D2008000           [02] move       3   1      
229F  A2800001           [03] call       2   2   2  
22A3  DD400000           [04] getglobal  3   1        ; 1074689893
22A7  12010001           [05] move       4   2      
22AB  E2800001           [06] call       3   2   2  
22AF  D8400000           [07] test       3       1    ; to [9] if false
22B3  1A800080           [08] jmp        3            ; to [12]
22B7  E4804000           [09] self       3   0   258  ; -1926901631
22BB  52010001           [10] move       5   2      
22BF  E2408001           [11] call       3   3   1  
22C3  1E008000           [12] return     0   1      
                         * constants:
22C7  03                 sizek (3)
22C8  01                 const type 3
22C9  29D4002C           const [0]: (738251817)
22CD  01                 const type 3
22CE  65770E40           const [1]: (1074689893)
22D2  01                 const type 3
22D3  81D0258D           const [2]: (-1926901631)
                         * functions:
22D7  00                 sizep (0)
                         * lines:
22D8  0C                 sizelineinfo (12)
                         [pc] (line)
22D9  06                 [01] (6)
22DA  01                 [02] (6)
22DB  00                 [03] (6)
22DC  00                 [04] (7)
22DD  06                 [05] (7)
22DE  01                 [06] (7)
22DF  00                 [07] (7)
22E0  00                 [08] (7)
22E1  06                 [09] (8)
22E2  01                 [10] (8)
22E3  00                 [11] (8)
22E4  00                 [12] (10)
                         * locals:
2309  00                 sizelocvars (0)
                         * upvalues:
230A  00                 sizeupvalues (0)
                         ** end of function **

                         
230B                     ** function [15] definition (level 2)
                         ** start of function **
230B  00                 string size (0)
                         source name: (none)
230D  02                 line defined (268)
230E  FE                 last line defined (382)
230F  02                 nups (3)
2310  03                 numparams (3)
2311  03                 is_vararg (0)
2312  00                 maxstacksize (66)
                         * code:
2315  02                 sizecode (310)
2316  DD000000           [001] getglobal  3   0        ; _T
231A  CE40C001           [002] gettable   3   3   257  ; "gSelectedNodeName"
231E  D8000000           [003] test       3       0    ; to [5] if true
2322  1A800280           [004] jmp        11           ; to [16]
2326  DD800000           [005] getglobal  3   2        ; string
232A  CEC0C001           [006] gettable   3   3   259  ; -565905820
232E  1D010000           [007] getglobal  4   0        ; _T
2332  0E414002           [008] gettable   4   4   257  ; "gSelectedNodeName"
2336  53010000           [009] getupval   5   0      
233A  4E01C102           [010] gettable   5   5   260  ; "NEMESIS_MISSION_TAG"
233E  E2808001           [011] call       3   3   2  
fail op	35
2342  2340C101           [012] close      0  
2346  1A000080           [013] jmp        1            ; to [15]
234A  D7400000           [014] loadbool   3   0   1    ; false, to [16]
234E  D7008000           [015] loadbool   3   1   0    ; true
2352  1D810100           [016] getglobal  4   6        ; gMatchingService
2356  24C14102           [017] self       4   4   263  ; -1985412809
235A  22810001           [018] call       4   2   2  
235E  59010200           [019] loadk      5   8        ; 0
2362  8A010002           [020] len        6   4      
2366  D9010200           [021] loadk      7   8        ; 0
236A  50414780           [022] forprep    5   286      ; to [309]
236E  5D420200           [023] getglobal  9   9        ; 469076166
2372  99820200           [024] loadk      10  10       ; 0
2376  62420001           [025] call       9   2   1  
237A  4E020202           [026] gettable   9   4   8  
237E  9DC20200           [027] getglobal  10  11       ; cjson
2382  8E024305           [028] gettable   10  10  268  ; -1976663275
2386  CE42C304           [029] gettable   11  9   269  ; "loadout"
238A  A2820001           [030] call       10  2   2  
238E  CB020000           [031] newtable   11  0   0    ; array=0, hash=0
2392  58000000           [032] test       1       0    ; to [34] if true
2396  1A400480           [033] jmp        18           ; to [52]
239A  1D830300           [034] getglobal  12  14       ; 1672515847
239E  4EC34305           [035] gettable   13  10  271  ; "PvpLoadOuts"
23A2  22030101           [036] call       12  2   4  
23A6  1A800280           [037] jmp        11           ; to [49]
23AA  5D840300           [038] getglobal  17  14       ; 1672515847
23AE  8E044408           [039] gettable   18  16  272  ; "Items"
23B2  62040101           [040] call       17  2   4  
23B6  1A000180           [041] jmp        5            ; to [47]
23BA  9D450400           [042] getglobal  22  17       ; table
23BE  8E85440B           [043] gettable   22  22  274  ; -431682403
23C2  D2058005           [044] move       23  11     
23C6  1206800A           [045] move       24  21     
23CA  A2458001           [046] call       22  3   1  
23CE  56840000           [047] tforloop   17      2    ; to [49] if exit
23D2  1A00FE7F           [048] jmp        -7           ; to [42]
23D6  16830000           [049] tforloop   12      2    ; to [51] if exit
23DA  1A80FC7F           [050] jmp        -13          ; to [38]
23DE  1A802980           [051] jmp        167          ; to [219]
23E2  8B058002           [052] newtable   22  5   0    ; array=5, hash=0
23E6  CEC54405           [053] gettable   23  10  275  ; "NORMAL"
23EA  CE05C20B           [054] gettable   23  23  264  ; 0
23EE  0EC64405           [055] gettable   24  10  275  ; "NORMAL"
23F2  0E06450C           [056] gettable   24  24  276  ; 0
23F6  4EC64405           [057] gettable   25  10  275  ; "NORMAL"
23FA  4E46C50C           [058] gettable   25  25  277  ; 0
23FE  8EC64405           [059] gettable   26  10  275  ; "NORMAL"
2402  8E86450D           [060] gettable   26  26  278  ; 0
2406  CEC64505           [061] gettable   27  10  279  ; "OPERATOR"
240A  CE46C50D           [062] gettable   27  27  277  ; 0
240E  9B458002           [063] setlist    22  5   1    ; index 1 to 5
2412  D202000B           [064] move       11  22     
2416  8E054605           [065] gettable   22  10  280  ; "SENTINEL"
241A  98050000           [066] test       22      0    ; to [68] if true
241E  1A801180           [067] jmp        71           ; to [139]
2422  9D450400           [068] getglobal  22  17       ; table
2426  8E85440B           [069] gettable   22  22  274  ; -431682403
242A  D2058005           [070] move       23  11     
242E  0E064605           [071] gettable   24  10  280  ; "SENTINEL"
2432  0E06420C           [072] gettable   24  24  264  ; 0
2436  A2458001           [073] call       22  3   1  
243A  9D450400           [074] getglobal  22  17       ; table
243E  8E85440B           [075] gettable   22  22  274  ; -431682403
2442  D2058005           [076] move       23  11     
2446  0E064605           [077] gettable   24  10  280  ; "SENTINEL"
244A  0E46450C           [078] gettable   24  24  277  ; 0
244E  A2458001           [079] call       22  3   1  
2452  9D450600           [080] getglobal  22  25       ; 738251817
2456  CE054605           [081] gettable   23  10  280  ; "SENTINEL"
245A  CE05C20B           [082] gettable   23  23  264  ; 0
245E  CE85C60B           [083] gettable   23  23  282  ; "ItemType"
2462  A2850001           [084] call       22  2   2  
2466  DDC50600           [085] getglobal  23  27       ; 1074689893
246A  1206000B           [086] move       24  22     
246E  E2850001           [087] call       23  2   2  
2472  D8450000           [088] test       23      1    ; to [90] if false
2476  1A000C80           [089] jmp        49           ; to [139]
247A  CBC50000           [090] newtable   23  0   3    ; array=0, hash=3
247E  0B060000           [091] newtable   24  0   0    ; array=0, hash=0
2482  CC05068E           [092] settable   23  284 24   ; "WeaponUpgrades"
2486  CC85C78E           [093] settable   23  285 286  ; "LocTag" ""
248A  CC05C28F           [094] settable   23  287 264  ; "Level" 0
248E  1D460600           [095] getglobal  24  25       ; 738251817
2492  59060800           [096] loadk      25  32       ; "/Lotus/Types/Game/KubrowPet/KubrowPetPowerSuit"
2496  22860001           [097] call       24  2   2  
249A  5D460600           [098] getglobal  25  25       ; 738251817
249E  99460800           [099] loadk      26  33       ; "/Lotus/Types/Game/CatbrowPet/CatbrowPetPowerSuit"
24A2  62860001           [100] call       25  2   2  
24A6  A486480B           [101] self       26  22  290  ; -1957065004
24AA  1207000C           [102] move       28  24     
24AE  A2868001           [103] call       26  3   2  
24B2  98060000           [104] test       26      0    ; to [106] if true
24B6  1AC00180           [105] jmp        8            ; to [114]
24BA  CCC5488D           [106] settable   23  282 291  ; "ItemType" "/Lotus/Types/Friendly/Pets/KubrowPetAgent"
24BE  93068000           [107] getupval   26  1      
24C2  D2060000           [108] move       27  0      
24C6  1D470600           [109] getglobal  28  25       ; 738251817
24CA  59070900           [110] loadk      29  36       ; "/Lotus/Types/Friendly/Pets/KubrowPetAvatar"
24CE  22070001           [111] call       28  2   0  
24D2  A2460000           [112] call       26  0   1  
24D6  1AC00480           [113] jmp        20           ; to [134]
24DA  A486480B           [114] self       26  22  290  ; -1957065004
24DE  1207800C           [115] move       28  25     
24E2  A2868001           [116] call       26  3   2  
24E6  98060000           [117] test       26      0    ; to [119] if true
24EA  1AC00180           [118] jmp        8            ; to [127]
24EE  CC45498D           [119] settable   23  282 293  ; "ItemType" "/Lotus/Types/Friendly/Pets/CatbrowPetAgent"
24F2  93068000           [120] getupval   26  1      
24F6  D2060000           [121] move       27  0      
24FA  1D470600           [122] getglobal  28  25       ; 738251817
24FE  59870900           [123] loadk      29  38       ; "/Lotus/Types/Friendly/Pets/CatbrowPetAvatar"
2502  22070001           [124] call       28  2   0  
2506  A2460000           [125] call       26  0   1  
250A  1A800180           [126] jmp        7            ; to [134]
250E  CCC5498D           [127] settable   23  282 295  ; "ItemType" "/Lotus/Types/Sentinels/SentinelAgent"
2512  93068000           [128] getupval   26  1      
2516  D2060000           [129] move       27  0      
251A  1D470600           [130] getglobal  28  25       ; 738251817
251E  59070A00           [131] loadk      29  40       ; "/Lotus/Types/Sentinels/SentinelAvatar"
2522  22070001           [132] call       28  2   0  
2526  A2460000           [133] call       26  0   1  
252A  9D460400           [134] getglobal  26  17       ; table
252E  8E86440D           [135] gettable   26  26  274  ; -431682403
2532  D2068005           [136] move       27  11     
2536  1207800B           [137] move       28  23     
253A  A2468001           [138] call       26  3   1  
253E  98000000           [139] test       2       0    ; to [141] if true
2542  1A800380           [140] jmp        15           ; to [156]
2546  8E464A05           [141] gettable   26  10  297  ; "ARCHWING"
254A  98060000           [142] test       26      0    ; to [144] if true
254E  1AC00280           [143] jmp        12           ; to [156]
2552  99060200           [144] loadk      26  8        ; 0
2556  CE464A05           [145] gettable   27  10  297  ; "ARCHWING"
255A  CA06800D           [146] len        27  27     
255E  19070200           [147] loadk      28  8        ; 0
2562  90460180           [148] forprep    26  6        ; to [155]
2566  9D470400           [149] getglobal  30  17       ; table
256A  8E87440F           [150] gettable   30  30  274  ; -431682403
256E  D2078005           [151] move       31  11     
2572  0E484A05           [152] gettable   32  10  297  ; "ARCHWING"
2576  0E480710           [153] gettable   32  32  29 
257A  A2478001           [154] call       30  3   1  
257E  9406FE7F           [155] forloop    26  -7       ; to [149] if loop
2582  8E874A05           [156] gettable   30  10  298  ; "operatorSuit"
2586  98070000           [157] test       30      0    ; to [159] if true
258A  1AC00080           [158] jmp        4            ; to [163]
258E  93078000           [159] getupval   30  1      
2592  D2070000           [160] move       31  0      
2596  0E884A05           [161] gettable   32  10  298  ; "operatorSuit"
259A  A2478001           [162] call       30  3   1  
259E  8EC74A05           [163] gettable   30  10  299  ; "OperatorSkins"
25A2  98070000           [164] test       30      0    ; to [166] if true
25A6  1A800280           [165] jmp        11           ; to [177]
25AA  99070200           [166] loadk      30  8        ; 0
25AE  CEC74A05           [167] gettable   31  10  299  ; "OperatorSkins"
25B2  CA07800F           [168] len        31  31     
25B6  19080200           [169] loadk      32  8        ; 0
25BA  90070180           [170] forprep    30  5        ; to [176]
25BE  93088000           [171] getupval   34  1      
25C2  D2080000           [172] move       35  0      
25C6  0EC94A05           [173] gettable   36  10  299  ; "OperatorSkins"
25CA  0E490812           [174] gettable   36  36  33 
25CE  A2488001           [175] call       34  3   1  
25D2  9447FE7F           [176] forloop    30  -6       ; to [171] if loop
25D6  8E084B05           [177] gettable   34  10  300  ; "FocusAbility"
25DA  98080000           [178] test       34      0    ; to [180] if true
25DE  1AC00080           [179] jmp        4            ; to [184]
25E2  93088000           [180] getupval   34  1      
25E6  D2080000           [181] move       35  0      
25EA  0E094B05           [182] gettable   36  10  300  ; "FocusAbility"
25EE  A2488001           [183] call       34  3   1  
25F2  99080200           [184] loadk      34  8        ; 0
25F6  CE484B05           [185] gettable   35  10  301  ; "Consumables"
25FA  CA088011           [186] len        35  35     
25FE  19090200           [187] loadk      36  8        ; 0
2602  90080180           [188] forprep    34  5        ; to [194]
2606  93098000           [189] getupval   38  1      
260A  D2090000           [190] move       39  0      
260E  0E4A4B05           [191] gettable   40  10  301  ; "Consumables"
2612  0E4A0914           [192] gettable   40  40  37 
2616  A2498001           [193] call       38  3   1  
261A  9448FE7F           [194] forloop    34  -6       ; to [189] if loop
261E  D8000000           [195] test       3       0    ; to [197] if true
2622  1A400580           [196] jmp        22           ; to [219]
2626  8E894B05           [197] gettable   38  10  302  ; "Nemesis"
262A  98090000           [198] test       38      0    ; to [200] if true
262E  1A800480           [199] jmp        19           ; to [219]
2632  93090001           [200] getupval   38  2      
2636  8EC94B13           [201] gettable   38  38  303  ; -198334568
263A  CE894B05           [202] gettable   39  10  302  ; "Nemesis"
263E  A2890001           [203] call       38  2   2  
2642  98090000           [204] test       38      0    ; to [206] if true
2646  1A000380           [205] jmp        13           ; to [219]
264A  D3090001           [206] getupval   39  2      
264E  CE09CC13           [207] gettable   39  39  304  ; -1186560387
2652  120A0013           [208] move       40  38     
2656  E2890001           [209] call       39  2   2  
265A  190A0200           [210] loadk      40  8        ; 0
265E  4A0A8013           [211] len        41  39     
2662  990A0200           [212] loadk      42  8        ; 0
2666  10CA0080           [213] forprep    40  4        ; to [218]
266A  130B8000           [214] getupval   44  1      
266E  520B0000           [215] move       45  0      
2672  8ECB8A13           [216] gettable   46  39  43 
2676  224B8001           [217] call       44  3   1  
267A  148AFE7F           [218] forloop    40  -5       ; to [214] if loop
267E  0E4BCC04           [219] gettable   44  9   305  ; "extraLoadoutDeps"
2682  180B0000           [220] test       44      0    ; to [222] if true
2686  1A000580           [221] jmp        21           ; to [243]
268A  0E4BCC04           [222] gettable   44  9   305  ; "extraLoadoutDeps"
fail op	35
268E  63804716           [223] close      1  
2692  1A400480           [224] jmp        18           ; to [243]
2696  1DCB0200           [225] getglobal  44  11       ; cjson
269A  0E0B4316           [226] gettable   44  44  268  ; -1976663275
269E  4E4BCC04           [227] gettable   45  9   305  ; "extraLoadoutDeps"
26A2  228B0001           [228] call       44  2   2  
26A6  4E8B4C16           [229] gettable   45  44  306  ; "LoadoutDeps"
26AA  580B0000           [230] test       45      0    ; to [232] if true
26AE  1A800280           [231] jmp        11           ; to [243]
26B2  590B0200           [232] loadk      45  8        ; 0
26B6  8E8B4C16           [233] gettable   46  44  306  ; "LoadoutDeps"
26BA  8A0B0017           [234] len        46  46     
26BE  D90B0200           [235] loadk      47  8        ; 0
26C2  500B0180           [236] forprep    45  5        ; to [242]
26C6  530C8000           [237] getupval   49  1      
26CA  920C0000           [238] move       50  0      
26CE  CE8C4C16           [239] gettable   51  44  306  ; "LoadoutDeps"
26D2  CE0C8C19           [240] gettable   51  51  48 
26D6  624C8001           [241] call       49  3   1  
26DA  544BFE7F           [242] forloop    45  -6       ; to [237] if loop
26DE  590C0200           [243] loadk      49  8        ; 0
26E2  8A0C8005           [244] len        50  11     
26E6  D90C0200           [245] loadk      51  8        ; 0
26EA  50CC0C80           [246] forprep    49  52       ; to [299]
26EE  5DCD0600           [247] getglobal  53  27       ; 1074689893
26F2  8E0D8D05           [248] gettable   54  11  52 
26F6  628D0001           [249] call       53  2   2  
26FA  584D0000           [250] test       53      1    ; to [252] if false
26FE  1A800B80           [251] jmp        47           ; to [299]
2702  5DCD0600           [252] getglobal  53  27       ; 1074689893
2706  8E0D8D05           [253] gettable   54  11  52 
270A  8E8D461B           [254] gettable   54  54  282  ; "ItemType"
270E  628D0001           [255] call       53  2   2  
2712  584D0000           [256] test       53      1    ; to [258] if false
2716  1A000A80           [257] jmp        41           ; to [299]
271A  530D8000           [258] getupval   53  1      
271E  920D0000           [259] move       54  0      
2722  CE0D8D05           [260] gettable   55  11  52 
2726  CE8DC61B           [261] gettable   55  55  282  ; "ItemType"
272A  624D8001           [262] call       53  3   1  
272E  5DCD0600           [263] getglobal  53  27       ; 1074689893
2732  8E0D8D05           [264] gettable   54  11  52 
2736  8E0D471B           [265] gettable   54  54  284  ; "WeaponUpgrades"
273A  628D0001           [266] call       53  2   2  
273E  584D0000           [267] test       53      1    ; to [269] if false
2742  1AC00280           [268] jmp        12           ; to [281]
2746  4E0D8D05           [269] gettable   53  11  52 
274A  990D0200           [270] loadk      54  8        ; 0
274E  CE0DC71A           [271] gettable   55  53  284  ; "WeaponUpgrades"
2752  CA0D801B           [272] len        55  55     
2756  190E0200           [273] loadk      56  8        ; 0
275A  900D0180           [274] forprep    54  5        ; to [280]
275E  930E8000           [275] getupval   58  1      
2762  D20E0000           [276] move       59  0      
2766  0E0FC71A           [277] gettable   60  53  284  ; "WeaponUpgrades"
276A  0E4F0E1E           [278] gettable   60  60  57 
276E  A24E8001           [279] call       58  3   1  
2772  944DFE7F           [280] forloop    54  -6       ; to [275] if loop
2776  9DCE0600           [281] getglobal  58  27       ; 1074689893
277A  CE0E8D05           [282] gettable   59  11  52 
277E  CECECC1D           [283] gettable   59  59  307  ; "ModularPartTypes"
2782  A28E0001           [284] call       58  2   2  
2786  984E0000           [285] test       58      1    ; to [287] if false
278A  1AC00280           [286] jmp        12           ; to [299]
278E  8E0E8D05           [287] gettable   58  11  52 
2792  D90E0200           [288] loadk      59  8        ; 0
2796  0ECF4C1D           [289] gettable   60  58  307  ; "ModularPartTypes"
279A  0A0F001E           [290] len        60  60     
279E  590F0200           [291] loadk      61  8        ; 0
27A2  D00E0180           [292] forprep    59  5        ; to [298]
27A6  D30F8000           [293] getupval   63  1      
27AA  12100000           [294] move       64  0      
27AE  4ED04C1D           [295] gettable   65  58  307  ; "ModularPartTypes"
27B2  4E908F20           [296] gettable   65  65  62 
27B6  E24F8001           [297] call       63  3   1  
27BA  D44EFE7F           [298] forloop    59  -6       ; to [293] if loop
27BE  548CF27F           [299] forloop    49  -53      ; to [247] if loop
27C2  DDCF0600           [300] getglobal  63  27       ; 1074689893
27C6  0E104D05           [301] gettable   64  10  308  ; "ShipType"
27CA  E28F0001           [302] call       63  2   2  
27CE  D84F0000           [303] test       63      1    ; to [305] if false
27D2  1AC00080           [304] jmp        4            ; to [309]
27D6  D30F8000           [305] getupval   63  1      
27DA  12100000           [306] move       64  0      
27DE  4E104D05           [307] gettable   65  10  308  ; "ShipType"
27E2  E24F8001           [308] call       63  3   1  
27E6  5401B87F           [309] forloop    5   -287     ; to [23] if loop
27EA  1E008000           [310] return     0   1      
                         * constants:
27EE  35                 sizek (53)
27EF  04                 const type 4
27F0  03                 string size (3)
27F1  5F5400             "_T\0"
                         const [0]: "_T"
27F4  04                 const type 4
27F5  12                 string size (18)
27F6  6753656C65637465+  "gSelecte"
27FE  644E6F64654E616D+  "dNodeNam"
2806  6500               "e\0"
                         const [1]: "gSelectedNodeName"
2808  04                 const type 4
2809  07                 string size (7)
280A  737472696E6700     "string\0"
                         const [2]: "string"
2811  01                 const type 3
2812  64F644DE           const [3]: (-565905820)
2816  04                 const type 4
2817  14                 string size (20)
2818  4E454D455349535F+  "NEMESIS_"
2820  4D495353494F4E5F+  "MISSION_"
2828  54414700           "TAG\0"
                         const [4]: "NEMESIS_MISSION_TAG"
282C  00                 const type 0
                         const [5]: nil
282D  04                 const type 4
282E  11                 string size (17)
282F  674D61746368696E+  "gMatchin"
2837  6753657276696365+  "gService"
283F  00                 "\0"
                         const [6]: "gMatchingService"
2840  01                 const type 3
2841  3701A989           const [7]: (-1985412809)
2845  03                 const type 3
2846  0000803F           const [8]: (0)
284A  01                 const type 3
284B  C688F51B           const [9]: (469076166)
284F  03                 const type 3
2850  00000000           const [10]: (0)
2854  04                 const type 4
2855  06                 string size (6)
2856  636A736F6E00       "cjson\0"
                         const [11]: "cjson"
285C  01                 const type 3
285D  15832E8A           const [12]: (-1976663275)
2861  04                 const type 4
2862  08                 string size (8)
2863  6C6F61646F757400   "loadout\0"
                         const [13]: "loadout"
286B  01                 const type 3
286C  0791B063           const [14]: (1672515847)
2870  04                 const type 4
2871  0C                 string size (12)
2872  5076704C6F61644F+  "PvpLoadO"
287A  75747300           "uts\0"
                         const [15]: "PvpLoadOuts"
287E  04                 const type 4
287F  06                 string size (6)
2880  4974656D7300       "Items\0"
                         const [16]: "Items"
2886  04                 const type 4
2887  06                 string size (6)
2888  7461626C6500       "table\0"
                         const [17]: "table"
288E  01                 const type 3
288F  9D0C45E6           const [18]: (-431682403)
2893  04                 const type 4
2894  07                 string size (7)
2895  4E4F524D414C00     "NORMAL\0"
                         const [19]: "NORMAL"
289C  03                 const type 3
289D  00000040           const [20]: (0)
28A1  03                 const type 3
28A2  00004040           const [21]: (0)
28A6  03                 const type 3
28A7  00008040           const [22]: (0)
28AB  04                 const type 4
28AC  09                 string size (9)
28AD  4F50455241544F52+  "OPERATOR"
28B5  00                 "\0"
                         const [23]: "OPERATOR"
28B6  04                 const type 4
28B7  09                 string size (9)
28B8  53454E54494E454C+  "SENTINEL"
28C0  00                 "\0"
                         const [24]: "SENTINEL"
28C1  01                 const type 3
28C2  29D4002C           const [25]: (738251817)
28C6  04                 const type 4
28C7  09                 string size (9)
28C8  4974656D54797065+  "ItemType"
28D0  00                 "\0"
                         const [26]: "ItemType"
28D1  01                 const type 3
28D2  65770E40           const [27]: (1074689893)
28D6  04                 const type 4
28D7  0F                 string size (15)
28D8  576561706F6E5570+  "WeaponUp"
28E0  67726164657300     "grades\0"
                         const [28]: "WeaponUpgrades"
28E7  04                 const type 4
28E8  07                 string size (7)
28E9  4C6F6354616700     "LocTag\0"
                         const [29]: "LocTag"
28F0  04                 const type 4
28F1  01                 string size (0)
                         const [30]: ""
28F3  04                 const type 4
28F4  06                 string size (6)
28F5  4C6576656C00       "Level\0"
                         const [31]: "Level"
28FB  04                 const type 4
28FC  2F                 string size (47)
28FD  2F4C6F7475732F54+  "/Lotus/T"
2905  797065732F47616D+  "ypes/Gam"
290D  652F4B7562726F77+  "e/Kubrow"
2915  5065742F4B756272+  "Pet/Kubr"
291D  6F77506574506F77+  "owPetPow"
2925  65725375697400     "erSuit\0"
                         const [32]: "/Lotus/Types/Game/KubrowPet/KubrowPetPowerSuit"
292C  04                 const type 4
292D  31                 string size (49)
292E  2F4C6F7475732F54+  "/Lotus/T"
2936  797065732F47616D+  "ypes/Gam"
293E  652F43617462726F+  "e/Catbro"
2946  775065742F436174+  "wPet/Cat"
294E  62726F7750657450+  "browPetP"
2956  6F77657253756974+  "owerSuit"
295E  00                 "\0"
                         const [33]: "/Lotus/Types/Game/CatbrowPet/CatbrowPetPowerSuit"
295F  01                 const type 3
2960  D48E598B           const [34]: (-1957065004)
2964  04                 const type 4
2965  2A                 string size (42)
2966  2F4C6F7475732F54+  "/Lotus/T"
296E  797065732F467269+  "ypes/Fri"
2976  656E646C792F5065+  "endly/Pe"
297E  74732F4B7562726F+  "ts/Kubro"
2986  775065744167656E+  "wPetAgen"
298E  7400               "t\0"
                         const [35]: "/Lotus/Types/Friendly/Pets/KubrowPetAgent"
2990  04                 const type 4
2991  2B                 string size (43)
2992  2F4C6F7475732F54+  "/Lotus/T"
299A  797065732F467269+  "ypes/Fri"
29A2  656E646C792F5065+  "endly/Pe"
29AA  74732F4B7562726F+  "ts/Kubro"
29B2  7750657441766174+  "wPetAvat"
29BA  617200             "ar\0"
                         const [36]: "/Lotus/Types/Friendly/Pets/KubrowPetAvatar"
29BD  04                 const type 4
29BE  2B                 string size (43)
29BF  2F4C6F7475732F54+  "/Lotus/T"
29C7  797065732F467269+  "ypes/Fri"
29CF  656E646C792F5065+  "endly/Pe"
29D7  74732F4361746272+  "ts/Catbr"
29DF  6F77506574416765+  "owPetAge"
29E7  6E7400             "nt\0"
                         const [37]: "/Lotus/Types/Friendly/Pets/CatbrowPetAgent"
29EA  04                 const type 4
29EB  2C                 string size (44)
29EC  2F4C6F7475732F54+  "/Lotus/T"
29F4  797065732F467269+  "ypes/Fri"
29FC  656E646C792F5065+  "endly/Pe"
2A04  74732F4361746272+  "ts/Catbr"
2A0C  6F77506574417661+  "owPetAva"
2A14  74617200           "tar\0"
                         const [38]: "/Lotus/Types/Friendly/Pets/CatbrowPetAvatar"
2A18  04                 const type 4
2A19  25                 string size (37)
2A1A  2F4C6F7475732F54+  "/Lotus/T"
2A22  797065732F53656E+  "ypes/Sen"
2A2A  74696E656C732F53+  "tinels/S"
2A32  656E74696E656C41+  "entinelA"
2A3A  67656E7400         "gent\0"
                         const [39]: "/Lotus/Types/Sentinels/SentinelAgent"
2A3F  04                 const type 4
2A40  26                 string size (38)
2A41  2F4C6F7475732F54+  "/Lotus/T"
2A49  797065732F53656E+  "ypes/Sen"
2A51  74696E656C732F53+  "tinels/S"
2A59  656E74696E656C41+  "entinelA"
2A61  766174617200       "vatar\0"
                         const [40]: "/Lotus/Types/Sentinels/SentinelAvatar"
2A67  04                 const type 4
2A68  09                 string size (9)
2A69  4152434857494E47+  "ARCHWING"
2A71  00                 "\0"
                         const [41]: "ARCHWING"
2A72  04                 const type 4
2A73  0D                 string size (13)
2A74  6F70657261746F72+  "operator"
2A7C  5375697400         "Suit\0"
                         const [42]: "operatorSuit"
2A81  04                 const type 4
2A82  0E                 string size (14)
2A83  4F70657261746F72+  "Operator"
2A8B  536B696E7300       "Skins\0"
                         const [43]: "OperatorSkins"
2A91  04                 const type 4
2A92  0D                 string size (13)
2A93  466F637573416269+  "FocusAbi"
2A9B  6C69747900         "lity\0"
                         const [44]: "FocusAbility"
2AA0  04                 const type 4
2AA1  0C                 string size (12)
2AA2  436F6E73756D6162+  "Consumab"
2AAA  6C657300           "les\0"
                         const [45]: "Consumables"
2AAE  04                 const type 4
2AAF  08                 string size (8)
2AB0  4E656D6573697300   "Nemesis\0"
                         const [46]: "Nemesis"
2AB8  01                 const type 3
2AB9  98A72DF4           const [47]: (-198334568)
2ABD  01                 const type 3
2ABE  7D8646B9           const [48]: (-1186560387)
2AC2  04                 const type 4
2AC3  11                 string size (17)
2AC4  65787472614C6F61+  "extraLoa"
2ACC  646F757444657073+  "doutDeps"
2AD4  00                 "\0"
                         const [49]: "extraLoadoutDeps"
2AD5  04                 const type 4
2AD6  0C                 string size (12)
2AD7  4C6F61646F757444+  "LoadoutD"
2ADF  65707300           "eps\0"
                         const [50]: "LoadoutDeps"
2AE3  04                 const type 4
2AE4  11                 string size (17)
2AE5  4D6F64756C617250+  "ModularP"
2AED  6172745479706573+  "artTypes"
2AF5  00                 "\0"
                         const [51]: "ModularPartTypes"
2AF6  04                 const type 4
2AF7  09                 string size (9)
2AF8  5368697054797065+  "ShipType"
2B00  00                 "\0"
                         const [52]: "ShipType"
                         * functions:
2B01  00                 sizep (0)
                         * lines:
2B03  02                 sizelineinfo (310)
                         [pc] (line)
2B04  0D                 [001] (13)
2B05  01                 [002] (13)
2B06  00                 [003] (13)
2B07  00                 [004] (13)
2B08  0D                 [005] (13)
2B09  01                 [006] (13)
2B0A  00                 [007] (13)
2B0B  00                 [008] (13)
2B0C  0D                 [009] (13)
2B0D  01                 [010] (13)
2B0E  00                 [011] (13)
2B0F  00                 [012] (13)
2B10  0D                 [013] (13)
2B11  01                 [014] (13)
2B12  00                 [015] (13)
2B13  00                 [016] (16)
2B14  0D                 [017] (16)
2B15  01                 [018] (16)
2B16  00                 [019] (17)
2B17  00                 [020] (17)
2B18  0D                 [021] (17)
2B19  01                 [022] (17)
2B1A  00                 [023] (18)
2B1B  00                 [024] (18)
2B1C  0D                 [025] (18)
2B1D  01                 [026] (19)
2B1E  00                 [027] (20)
2B1F  00                 [028] (20)
2B20  0D                 [029] (20)
2B21  01                 [030] (20)
2B22  00                 [031] (21)
2B23  00                 [032] (23)
2B24  0D                 [033] (23)
2B25  01                 [034] (24)
2B26  00                 [035] (24)
2B27  00                 [036] (24)
2B28  0D                 [037] (24)
2B29  01                 [038] (25)
2B2A  00                 [039] (25)
2B2B  00                 [040] (25)
2B2C  0D                 [041] (25)
2B2D  01                 [042] (26)
2B2E  00                 [043] (26)
2B2F  00                 [044] (26)
2B30  0D                 [045] (26)
2B31  01                 [046] (26)
2B32  00                 [047] (25)
2B33  00                 [048] (26)
2B34  0D                 [049] (24)
2B35  01                 [050] (27)
2B36  00                 [051] (28)
2B37  00                 [052] (30)
2B38  0D                 [053] (30)
2B39  01                 [054] (30)
2B3A  00                 [055] (30)
2B3B  00                 [056] (30)
2B3C  0D                 [057] (30)
2B3D  01                 [058] (30)
2B3E  00                 [059] (30)
2B3F  00                 [060] (30)
2B40  10                 [061] (30)
2B41  01                 [062] (30)
2B42  00                 [063] (30)
2B43  00                 [064] (30)
2B44  10                 [065] (31)
2B45  01                 [066] (31)
2B46  00                 [067] (31)
2B47  00                 [068] (32)
2B48  10                 [069] (32)
2B49  01                 [070] (32)
2B4A  00                 [071] (32)
2B4B  00                 [072] (32)
2B4C  11                 [073] (32)
2B4D  01                 [074] (33)
2B4E  00                 [075] (33)
2B4F  00                 [076] (33)
2B50  11                 [077] (33)
2B51  01                 [078] (33)
2B52  00                 [079] (33)
2B53  00                 [080] (36)
2B54  11                 [081] (36)
2B55  01                 [082] (36)
2B56  00                 [083] (36)
2B57  00                 [084] (36)
2B58  11                 [085] (37)
2B59  01                 [086] (37)
2B5A  00                 [087] (37)
2B5B  00                 [088] (37)
2B5C  12                 [089] (37)
2B5D  01                 [090] (38)
2B5E  00                 [091] (38)
2B5F  00                 [092] (38)
2B60  12                 [093] (38)
2B61  01                 [094] (38)
2B62  00                 [095] (39)
2B63  00                 [096] (39)
2B64  12                 [097] (39)
2B65  01                 [098] (40)
2B66  00                 [099] (40)
2B67  00                 [100] (40)
2B68  13                 [101] (41)
2B69  01                 [102] (41)
2B6A  00                 [103] (41)
2B6B  00                 [104] (41)
2B6C  14                 [105] (41)
2B6D  01                 [106] (42)
2B6E  00                 [107] (43)
2B6F  00                 [108] (43)
2B70  14                 [109] (43)
2B71  01                 [110] (43)
2B72  00                 [111] (43)
2B73  00                 [112] (43)
2B74  14                 [113] (43)
2B75  01                 [114] (44)
2B76  00                 [115] (44)
2B77  00                 [116] (44)
2B78  14                 [117] (44)
2B79  01                 [118] (44)
2B7A  00                 [119] (45)
2B7B  00                 [120] (46)
2B7C  15                 [121] (46)
2B7D  01                 [122] (46)
2B7E  00                 [123] (46)
2B7F  00                 [124] (46)
2B80  17                 [125] (46)
2B81  01                 [126] (46)
2B82  00                 [127] (48)
2B83  00                 [128] (49)
2B84  17                 [129] (49)
2B85  01                 [130] (49)
2B86  00                 [131] (49)
2B87  00                 [132] (49)
2B88  18                 [133] (49)
2B89  01                 [134] (51)
2B8A  00                 [135] (51)
2B8B  00                 [136] (51)
2B8C  18                 [137] (51)
2B8D  01                 [138] (51)
2B8E  00                 [139] (55)
2B8F  00                 [140] (55)
2B90  18                 [141] (56)
2B91  01                 [142] (56)
2B92  00                 [143] (56)
2B93  00                 [144] (57)
2B94  18                 [145] (57)
2B95  01                 [146] (57)
2B96  00                 [147] (57)
2B97  00                 [148] (57)
2B98  19                 [149] (58)
2B99  01                 [150] (58)
2B9A  00                 [151] (58)
2B9B  00                 [152] (58)
2B9C  19                 [153] (58)
2B9D  01                 [154] (58)
2B9E  00                 [155] (57)
2B9F  00                 [156] (63)
2BA0  19                 [157] (63)
2BA1  01                 [158] (63)
2BA2  00                 [159] (64)
2BA3  00                 [160] (64)
2BA4  19                 [161] (64)
2BA5  01                 [162] (64)
2BA6  00                 [163] (67)
2BA7  00                 [164] (67)
2BA8  1A                 [165] (67)
2BA9  01                 [166] (68)
2BAA  00                 [167] (68)
2BAB  00                 [168] (68)
2BAC  1A                 [169] (68)
2BAD  01                 [170] (68)
2BAE  00                 [171] (69)
2BAF  00                 [172] (69)
2BB0  1A                 [173] (69)
2BB1  01                 [174] (69)
2BB2  00                 [175] (69)
2BB3  00                 [176] (68)
2BB4  1A                 [177] (73)
2BB5  01                 [178] (73)
2BB6  00                 [179] (73)
2BB7  00                 [180] (74)
2BB8  1A                 [181] (74)
2BB9  01                 [182] (74)
2BBA  00                 [183] (74)
2BBB  00                 [184] (77)
2BBC  19                 [185] (77)
2BBD  01                 [186] (77)
2BBE  00                 [187] (77)
2BBF  00                 [188] (77)
2BC0  1A                 [189] (78)
2BC1  01                 [190] (78)
2BC2  00                 [191] (78)
2BC3  00                 [192] (78)
2BC4  18                 [193] (78)
2BC5  01                 [194] (77)
2BC6  00                 [195] (81)
2BC7  00                 [196] (81)
2BC8  1B                 [197] (81)
2BC9  01                 [198] (81)
2BCA  00                 [199] (81)
2BCB  00                 [200] (82)
2BCC  1C                 [201] (82)
2BCD  01                 [202] (82)
2BCE  00                 [203] (82)
2BCF  00                 [204] (83)
2BD0  1E                 [205] (83)
2BD1  01                 [206] (84)
2BD2  00                 [207] (84)
2BD3  00                 [208] (84)
2BD4  1E                 [209] (84)
2BD5  01                 [210] (85)
2BD6  00                 [211] (85)
2BD7  00                 [212] (85)
2BD8  1E                 [213] (85)
2BD9  01                 [214] (86)
2BDA  00                 [215] (86)
2BDB  00                 [216] (86)
2BDC  1E                 [217] (86)
2BDD  01                 [218] (85)
2BDE  00                 [219] (93)
2BDF  00                 [220] (93)
2BE0  1E                 [221] (93)
2BE1  01                 [222] (93)
2BE2  00                 [223] (93)
2BE3  00                 [224] (93)
2BE4  1E                 [225] (94)
2BE5  01                 [226] (94)
2BE6  00                 [227] (94)
2BE7  00                 [228] (94)
2BE8  1E                 [229] (95)
2BE9  01                 [230] (95)
2BEA  00                 [231] (95)
2BEB  00                 [232] (96)
2BEC  1E                 [233] (96)
2BED  01                 [234] (96)
2BEE  00                 [235] (96)
2BEF  00                 [236] (96)
2BF0  1E                 [237] (97)
2BF1  01                 [238] (97)
2BF2  00                 [239] (97)
2BF3  00                 [240] (97)
2BF4  1E                 [241] (97)
2BF5  01                 [242] (96)
2BF6  00                 [243] (102)
2BF7  00                 [244] (102)
2BF8  1E                 [245] (102)
2BF9  01                 [246] (102)
2BFA  00                 [247] (103)
2BFB  00                 [248] (103)
2BFC  1E                 [249] (103)
2BFD  01                 [250] (103)
2BFE  00                 [251] (103)
2BFF  00                 [252] (103)
2C00  1E                 [253] (103)
2C01  01                 [254] (103)
2C02  00                 [255] (103)
2C03  00                 [256] (103)
2C04  1F                 [257] (103)
2C05  01                 [258] (104)
2C06  00                 [259] (104)
2C07  00                 [260] (104)
2C08  1F                 [261] (104)
2C09  01                 [262] (104)
2C0A  00                 [263] (106)
2C0B  00                 [264] (106)
2C0C  1F                 [265] (106)
2C0D  01                 [266] (106)
2C0E  00                 [267] (106)
2C0F  00                 [268] (106)
2C10  20                 [269] (107)
2C11  01                 [270] (108)
2C12  00                 [271] (108)
2C13  00                 [272] (108)
2C14  20                 [273] (108)
2C15  01                 [274] (108)
2C16  00                 [275] (109)
2C17  00                 [276] (109)
2C18  20                 [277] (109)
2C19  01                 [278] (109)
2C1A  00                 [279] (109)
2C1B  00                 [280] (108)
2C1C  20                 [281] (113)
2C1D  01                 [282] (113)
2C1E  00                 [283] (113)
2C1F  00                 [284] (113)
2C20  20                 [285] (113)
2C21  01                 [286] (113)
2C22  00                 [287] (114)
2C23  00                 [288] (115)
2C24  20                 [289] (115)
2C25  01                 [290] (115)
2C26  00                 [291] (115)
2C27  00                 [292] (115)
2C28  21                 [293] (116)
2C29  01                 [294] (116)
2C2A  00                 [295] (116)
2C2B  00                 [296] (116)
2C2C  21                 [297] (116)
2C2D  01                 [298] (115)
2C2E  00                 [299] (102)
2C2F  00                 [300] (122)
2C30  21                 [301] (122)
2C31  01                 [302] (122)
2C32  00                 [303] (122)
2C33  00                 [304] (122)
2C34  21                 [305] (123)
2C35  01                 [306] (123)
2C36  00                 [307] (123)
2C37  00                 [308] (123)
2C38  21                 [309] (17)
2C39  01                 [310] (126)
                         * locals:
2FDC  00                 sizelocvars (0)
                         * upvalues:
2FDD  00                 sizeupvalues (0)
                         ** end of function **

                         
2FDE                     ** function [16] definition (level 2)
                         ** start of function **
2FDE  00                 string size (0)
                         source name: (none)
2FE0  03                 line defined (384)
2FE1  82                 last line defined (386)
2FE2  03                 nups (1)
2FE3  01                 numparams (3)
2FE4  03                 is_vararg (0)
2FE5  00                 maxstacksize (7)
                         * code:
2FE7  06                 sizecode (6)
2FE8  D3000000           [1] getupval   3   0      
2FEC  12010000           [2] move       4   0      
2FF0  52018000           [3] move       5   1      
2FF4  92010001           [4] move       6   2      
2FF8  E2400002           [5] call       3   4   1  
2FFC  1E008000           [6] return     0   1      
                         * constants:
3000  00                 sizek (0)
                         * functions:
3001  00                 sizep (0)
                         * lines:
3002  06                 sizelineinfo (6)
                         [pc] (line)
3003  81                 [1] (-127)
3004  01                 [2] (-127)
3005  00                 [3] (-127)
3006  00                 [4] (-127)
3007  81                 [5] (-127)
3008  01                 [6] (-126)
                         * locals:
301B  00                 sizelocvars (0)
                         * upvalues:
301C  00                 sizeupvalues (0)
                         ** end of function **

                         
301D                     ** function [17] definition (level 2)
                         ** start of function **
301D  00                 string size (0)
                         source name: (none)
301F  03                 line defined (388)
3020  91                 last line defined (401)
3021  03                 nups (0)
3022  00                 numparams (2)
3023  02                 is_vararg (0)
3024  00                 maxstacksize (15)
                         * code:
3026  22                 sizecode (34)
3027  9D000000           [01] getglobal  2   0        ; 1672515847
302B  D2000000           [02] move       3   0      
302F  A2000101           [03] call       2   2   4  
3033  1A800680           [04] jmp        27           ; to [32]
3037  DD410000           [05] getglobal  7   1        ; 1074689893
303B  0E824003           [06] gettable   8   6   258  ; "agent"
303F  E2810001           [07] call       7   2   2  
3043  D8410000           [08] test       7       1    ; to [10] if false
3047  1A800080           [09] jmp        3            ; to [13]
304B  E4C1C000           [10] self       7   1   259  ; -1926901631
304F  4E824003           [11] gettable   9   6   258  ; "agent"
3053  E2418001           [12] call       7   3   1  
3057  DD410000           [13] getglobal  7   1        ; 1074689893
305B  0E024103           [14] gettable   8   6   260  ; "weaponOverrides"
305F  E2810001           [15] call       7   2   2  
3063  D8410000           [16] test       7       1    ; to [18] if false
3067  1A400380           [17] jmp        14           ; to [32]
306B  DD010000           [18] getglobal  7   0        ; 1672515847
306F  0E024103           [19] gettable   8   6   260  ; "weaponOverrides"
3073  E2010101           [20] call       7   2   4  
3077  1AC00180           [21] jmp        8            ; to [30]
307B  1D430000           [22] getglobal  12  1        ; 1074689893
307F  52038005           [23] move       13  11     
3083  22830001           [24] call       12  2   2  
3087  18430000           [25] test       12      1    ; to [27] if false
308B  1A800080           [26] jmp        3            ; to [30]
308F  24C3C000           [27] self       12  1   259  ; -1926901631
3093  92038005           [28] move       14  11     
3097  22438001           [29] call       12  3   1  
309B  D6810000           [30] tforloop   7       2    ; to [32] if exit
309F  1A40FD7F           [31] jmp        -10          ; to [22]
30A3  96800000           [32] tforloop   2       2    ; to [34] if exit
30A7  1A80F87F           [33] jmp        -29          ; to [5]
30AB  1E008000           [34] return     0   1      
                         * constants:
30AF  05                 sizek (5)
30B0  01                 const type 3
30B1  0791B063           const [0]: (1672515847)
30B5  01                 const type 3
30B6  65770E40           const [1]: (1074689893)
30BA  04                 const type 4
30BB  06                 string size (6)
30BC  6167656E7400       "agent\0"
                         const [2]: "agent"
30C2  01                 const type 3
30C3  81D0258D           const [3]: (-1926901631)
30C7  04                 const type 4
30C8  10                 string size (16)
30C9  776561706F6E4F76+  "weaponOv"
30D1  6572726964657300   "errides\0"
                         const [4]: "weaponOverrides"
                         * functions:
30D9  00                 sizep (0)
                         * lines:
30DA  22                 sizelineinfo (34)
                         [pc] (line)
30DB  85                 [01] (-123)
30DC  01                 [02] (-123)
30DD  00                 [03] (-123)
30DE  00                 [04] (-123)
30DF  85                 [05] (-122)
30E0  01                 [06] (-122)
30E1  00                 [07] (-122)
30E2  00                 [08] (-122)
30E3  85                 [09] (-122)
30E4  01                 [10] (-121)
30E5  00                 [11] (-121)
30E6  00                 [12] (-121)
30E7  85                 [13] (-119)
30E8  01                 [14] (-119)
30E9  00                 [15] (-119)
30EA  00                 [16] (-119)
30EB  86                 [17] (-119)
30EC  01                 [18] (-118)
30ED  00                 [19] (-118)
30EE  00                 [20] (-118)
30EF  86                 [21] (-118)
30F0  01                 [22] (-117)
30F1  00                 [23] (-117)
30F2  00                 [24] (-117)
30F3  86                 [25] (-117)
30F4  01                 [26] (-117)
30F5  00                 [27] (-116)
30F6  00                 [28] (-116)
30F7  86                 [29] (-116)
30F8  01                 [30] (-118)
30F9  00                 [31] (-115)
30FA  00                 [32] (-123)
30FB  86                 [33] (-113)
30FC  01                 [34] (-111)
                         * locals:
3163  00                 sizelocvars (0)
                         * upvalues:
3164  00                 sizeupvalues (0)
                         ** end of function **

                         
3165                     ** function [18] definition (level 2)
                         ** start of function **
3165  00                 string size (0)
                         source name: (none)
3167  03                 line defined (403)
3168  BB                 last line defined (571)
3169  04                 nups (2)
316A  02                 numparams (3)
316B  03                 is_vararg (0)
316C  00                 maxstacksize (81)
                         * code:
316F  02                 sizecode (375)
3170  E400C000           [001] self       3   1   256  ; 1891965785
3174  E2800001           [002] call       3   2   2  
3178  13010000           [003] getupval   4   0      
317C  52018001           [004] move       5   3      
3180  92010000           [005] move       6   0      
3184  22418001           [006] call       4   3   1  
3188  2441C000           [007] self       4   1   257  ; 39546429
318C  22810001           [008] call       4   2   2  
3190  53010000           [009] getupval   5   0      
3194  92010002           [010] move       6   4      
3198  D2010000           [011] move       7   0      
319C  62418001           [012] call       5   3   1  
31A0  6481C000           [013] self       5   1   258  ; 262978310
31A4  62810001           [014] call       5   2   2  
31A8  99C10000           [015] loadk      6   3        ; 0
31AC  CA018002           [016] len        7   5      
31B0  19C20000           [017] loadk      8   3        ; 0
31B4  90C10080           [018] forprep    6   4        ; to [23]
31B8  8E428202           [019] gettable   10  5   9  
31BC  E4024100           [020] self       11  0   260  ; -1926901631
31C0  4E434105           [021] gettable   13  10  261  ; "resource"
31C4  E2428001           [022] call       11  3   1  
31C8  9481FE7F           [023] forloop    6   -5       ; to [19] if loop
31CC  E482C100           [024] self       11  1   262  ; -1025162298
31D0  E2820001           [025] call       11  2   2  
31D4  19C30000           [026] loadk      12  3        ; 0
31D8  4A038005           [027] len        13  11     
31DC  99C30000           [028] loadk      14  3        ; 0
31E0  10C30080           [029] forprep    12  4        ; to [34]
31E4  0EC48305           [030] gettable   16  11  15 
31E8  64044100           [031] self       17  0   260  ; -1926901631
31EC  CE444108           [032] gettable   19  16  261  ; "resource"
31F0  62448001           [033] call       17  3   1  
31F4  1483FE7F           [034] forloop    12  -5       ; to [30] if loop
31F8  64C4C100           [035] self       17  1   263  ; 259980271
31FC  62840001           [036] call       17  2   2  
3200  99C40000           [037] loadk      18  3        ; 0
3204  CA048008           [038] len        19  17     
3208  19C50000           [039] loadk      20  3        ; 0
320C  90C40080           [040] forprep    18  4        ; to [45]
3210  8E458508           [041] gettable   22  17  21 
3214  E4054100           [042] self       23  0   260  ; -1926901631
3218  5206000B           [043] move       25  22     
321C  E2458001           [044] call       23  3   1  
3220  9484FE7F           [045] forloop    18  -5       ; to [41] if loop
3224  E405C200           [046] self       23  1   264  ; 65437096
3228  E2850001           [047] call       23  2   2  
322C  5204800B           [048] move       17  23     
3230  D9C50000           [049] loadk      23  3        ; 0
3234  0A068008           [050] len        24  17     
3238  59C60000           [051] loadk      25  3        ; 0
323C  D0C50080           [052] forprep    23  4        ; to [57]
3240  CE868608           [053] gettable   27  17  26 
3244  24074100           [054] self       28  0   260  ; -1926901631
3248  9207800D           [055] move       30  27     
324C  22478001           [056] call       28  3   1  
3250  D485FE7F           [057] forloop    23  -5       ; to [53] if loop
3254  1D470200           [058] getglobal  28  9        ; 248503575
3258  4E87C200           [059] gettable   29  1   266  ; "buddyAgents"
325C  22070101           [060] call       28  2   4  
3260  1A800080           [061] jmp        3            ; to [65]
3264  64084100           [062] self       33  0   260  ; -1926901631
3268  D2080010           [063] move       35  32     
326C  62488001           [064] call       33  3   1  
3270  16870000           [065] tforloop   28      2    ; to [67] if exit
3274  1A80FE7F           [066] jmp        -5           ; to [62]
3278  64C8C200           [067] self       33  1   267  ; -1142256695
327C  62880001           [068] call       33  2   2  
3280  99C80000           [069] loadk      34  3        ; 0
3284  CA088010           [070] len        35  33     
3288  19C90000           [071] loadk      36  3        ; 0
328C  90C80180           [072] forprep    34  8        ; to [81]
3290  9D090300           [073] getglobal  38  12       ; 1074689893
3294  CE498910           [074] gettable   39  33  37 
3298  A2890001           [075] call       38  2   2  
329C  98490000           [076] test       38      1    ; to [78] if false
32A0  1A800080           [077] jmp        3            ; to [81]
32A4  A4094100           [078] self       38  0   260  ; -1926901631
32A8  0E4A8910           [079] gettable   40  33  37 
32AC  A2498001           [080] call       38  3   1  
32B0  9488FD7F           [081] forloop    34  -9       ; to [73] if loop
32B4  A449C300           [082] self       38  1   269  ; 1019488064
32B8  A2890001           [083] call       38  2   2  
32BC  D9C90000           [084] loadk      39  3        ; 0
32C0  0A0A0013           [085] len        40  38     
32C4  59CA0000           [086] loadk      41  3        ; 0
32C8  D0090280           [087] forprep    39  9        ; to [97]
32CC  CE8A0A13           [088] gettable   43  38  42 
32D0  1D0B0300           [089] getglobal  44  12       ; 1074689893
32D4  520B8015           [090] move       45  43     
32D8  228B0001           [091] call       44  2   2  
32DC  184B0000           [092] test       44      1    ; to [94] if false
32E0  1A800080           [093] jmp        3            ; to [97]
32E4  240B4100           [094] self       44  0   260  ; -1926901631
32E8  920B8015           [095] move       46  43     
32EC  224B8001           [096] call       44  3   1  
32F0  D449FD7F           [097] forloop    39  -10      ; to [88] if loop
32F4  1D0B0300           [098] getglobal  44  12       ; 1074689893
32F8  4E8BC300           [099] gettable   45  1   270  ; "eomBoss"
32FC  228B0001           [100] call       44  2   2  
3300  184B0000           [101] test       44      1    ; to [103] if false
3304  1A800080           [102] jmp        3            ; to [106]
3308  240B4100           [103] self       44  0   260  ; -1926901631
330C  8E8BC300           [104] gettable   46  1   270  ; "eomBoss"
3310  224B8001           [105] call       44  3   1  
3314  1D0B0300           [106] getglobal  44  12       ; 1074689893
3318  4ECBC300           [107] gettable   45  1   271  ; "eomBossTransmission"
331C  228B0001           [108] call       44  2   2  
3320  184B0000           [109] test       44      1    ; to [111] if false
3324  1A800080           [110] jmp        3            ; to [114]
3328  240B4100           [111] self       44  0   260  ; -1926901631
332C  8ECBC300           [112] gettable   46  1   271  ; "eomBossTransmission"
3330  224B8001           [113] call       44  3   1  
3334  1D0B0300           [114] getglobal  44  12       ; 1074689893
3338  4E0BC400           [115] gettable   45  1   272  ; "eomBossTaunt"
333C  228B0001           [116] call       44  2   2  
3340  184B0000           [117] test       44      1    ; to [119] if false
3344  1A800080           [118] jmp        3            ; to [122]
3348  240B4100           [119] self       44  0   260  ; -1926901631
334C  8E0BC400           [120] gettable   46  1   272  ; "eomBossTaunt"
3350  224B8001           [121] call       44  3   1  
3354  19CB0000           [122] loadk      44  3        ; 0
3358  4E4BC400           [123] gettable   45  1   273  ; "badlandAttackerSpectres"
335C  4A0B8016           [124] len        45  45     
3360  99CB0000           [125] loadk      46  3        ; 0
3364  104B0380           [126] forprep    44  14       ; to [141]
3368  0E4CC400           [127] gettable   48  1   273  ; "badlandAttackerSpectres"
336C  0ECC0B18           [128] gettable   48  48  47 
3370  640C4100           [129] self       49  0   260  ; -1926901631
3374  CE8C4418           [130] gettable   51  48  274  ; "mSuit"
3378  624C8001           [131] call       49  3   1  
337C  640C4100           [132] self       49  0   260  ; -1926901631
3380  CECC4418           [133] gettable   51  48  275  ; "mLongGun"
3384  624C8001           [134] call       49  3   1  
3388  640C4100           [135] self       49  0   260  ; -1926901631
338C  CE0C4518           [136] gettable   51  48  276  ; "mPistol"
3390  624C8001           [137] call       49  3   1  
3394  640C4100           [138] self       49  0   260  ; -1926901631
3398  CE4C4518           [139] gettable   51  48  277  ; "mMelee"
339C  624C8001           [140] call       49  3   1  
33A0  140BFC7F           [141] forloop    44  -15      ; to [127] if loop
33A4  59CC0000           [142] loadk      49  3        ; 0
33A8  8E8CC500           [143] gettable   50  1   278  ; "badlandDefenderSpectres"
33AC  8A0C0019           [144] len        50  50     
33B0  D9CC0000           [145] loadk      51  3        ; 0
33B4  504C0380           [146] forprep    49  14       ; to [161]
33B8  4E8DC500           [147] gettable   53  1   278  ; "badlandDefenderSpectres"
33BC  4E0D8D1A           [148] gettable   53  53  52 
33C0  A40D4100           [149] self       54  0   260  ; -1926901631
33C4  0E8EC41A           [150] gettable   56  53  274  ; "mSuit"
33C8  A24D8001           [151] call       54  3   1  
33CC  A40D4100           [152] self       54  0   260  ; -1926901631
33D0  0ECEC41A           [153] gettable   56  53  275  ; "mLongGun"
33D4  A24D8001           [154] call       54  3   1  
33D8  A40D4100           [155] self       54  0   260  ; -1926901631
33DC  0E0EC51A           [156] gettable   56  53  276  ; "mPistol"
33E0  A24D8001           [157] call       54  3   1  
33E4  A40D4100           [158] self       54  0   260  ; -1926901631
33E8  0E4EC51A           [159] gettable   56  53  277  ; "mMelee"
33EC  A24D8001           [160] call       54  3   1  
33F0  540CFC7F           [161] forloop    49  -15      ; to [147] if loop
33F4  8ECDC500           [162] gettable   54  1   279  ; "syndicateId"
fail op	35
33F8  6300461B           [163] close      1  
33FC  1AC00780           [164] jmp        32           ; to [197]
3400  9D4D0600           [165] getglobal  54  25       ; -1615931716
3404  CE8DC600           [166] gettable   55  1   282  ; "location"
3408  A28D0001           [167] call       54  2   2  
340C  DDCD0600           [168] getglobal  55  27       ; _T
3410  CE0DC71B           [169] gettable   55  55  284  ; "CachedSyndicateMissions"
3414  CE8D8D1B           [170] gettable   55  55  54 
3418  D80D0000           [171] test       55      0    ; to [173] if true
341C  1AC00580           [172] jmp        24           ; to [197]
3420  DD0D0300           [173] getglobal  55  12       ; 1074689893
3424  1DCE0600           [174] getglobal  56  27       ; _T
3428  0E0E471C           [175] gettable   56  56  284  ; "CachedSyndicateMissions"
342C  0E8E0D1C           [176] gettable   56  56  54 
3430  0E4E471C           [177] gettable   56  56  285  ; "mBuddyAgents"
3434  E28D0001           [178] call       55  2   2  
3438  D84D0000           [179] test       55      1    ; to [181] if false
343C  1AC00380           [180] jmp        16           ; to [197]
3440  D9CD0000           [181] loadk      55  3        ; 0
3444  1DCE0600           [182] getglobal  56  27       ; _T
3448  0E0E471C           [183] gettable   56  56  284  ; "CachedSyndicateMissions"
344C  0E8E0D1C           [184] gettable   56  56  54 
3450  0E4E471C           [185] gettable   56  56  285  ; "mBuddyAgents"
3454  0A0E001C           [186] len        56  56     
3458  59CE0000           [187] loadk      57  3        ; 0
345C  D08D0180           [188] forprep    55  7        ; to [196]
3460  E40E4100           [189] self       59  0   260  ; -1926901631
3464  5DCF0600           [190] getglobal  61  27       ; _T
3468  4E0FC71E           [191] gettable   61  61  284  ; "CachedSyndicateMissions"
346C  4E8F8D1E           [192] gettable   61  61  54 
3470  4E4FC71E           [193] gettable   61  61  285  ; "mBuddyAgents"
3474  4E8F8E1E           [194] gettable   61  61  58 
3478  E24E8001           [195] call       59  3   1  
347C  D4CDFD7F           [196] forloop    55  -8       ; to [189] if loop
3480  DD0E0300           [197] getglobal  59  12       ; 1074689893
3484  120F0001           [198] move       60  2      
3488  E28E0001           [199] call       59  2   2  
348C  D80E0000           [200] test       59      0    ; to [202] if true
3490  1AC00480           [201] jmp        20           ; to [222]
3494  DDCE0600           [202] getglobal  59  27       ; _T
3498  CE8EC71D           [203] gettable   59  59  286  ; "CachedGoalKeys"
349C  D80E0000           [204] test       59      0    ; to [206] if true
34A0  1AC00380           [205] jmp        16           ; to [222]
34A4  DD0E0300           [206] getglobal  59  12       ; 1074689893
34A8  1DCF0600           [207] getglobal  60  27       ; _T
34AC  0E8F471E           [208] gettable   60  60  286  ; "CachedGoalKeys"
34B0  5D4F0600           [209] getglobal  61  25       ; -1615931716
34B4  8E8FC600           [210] gettable   62  1   282  ; "location"
34B8  628F0001           [211] call       61  2   2  
34BC  0E4F0F1E           [212] gettable   60  60  61 
34C0  E28E0001           [213] call       59  2   2  
34C4  D84E0000           [214] test       59      1    ; to [216] if false
34C8  1A400180           [215] jmp        6            ; to [222]
34CC  DDCE0600           [216] getglobal  59  27       ; _T
34D0  CE8EC71D           [217] gettable   59  59  286  ; "CachedGoalKeys"
34D4  1D4F0600           [218] getglobal  60  25       ; -1615931716
34D8  4E8FC600           [219] gettable   61  1   282  ; "location"
34DC  228F0001           [220] call       60  2   2  
34E0  8E008F1D           [221] gettable   2   59  60 
34E4  DD0E0300           [222] getglobal  59  12       ; 1074689893
34E8  120F0001           [223] move       60  2      
34EC  E28E0001           [224] call       59  2   2  
34F0  D84E0000           [225] test       59      1    ; to [227] if false
34F4  1A800080           [226] jmp        3            ; to [230]
34F8  E40E4100           [227] self       59  0   260  ; -1926901631
34FC  520F0001           [228] move       61  2      
3500  E24E8001           [229] call       59  3   1  
3504  DD0E0300           [230] getglobal  59  12       ; 1074689893
3508  0ECFC700           [231] gettable   60  1   287  ; "keyChainName"
350C  E28E0001           [232] call       59  2   2  
3510  D84E0000           [233] test       59      1    ; to [235] if false
3514  1A800080           [234] jmp        3            ; to [238]
3518  E40E4100           [235] self       59  0   260  ; -1926901631
351C  4ECFC700           [236] gettable   61  1   287  ; "keyChainName"
3520  E24E8001           [237] call       59  3   1  
3524  DD0E0300           [238] getglobal  59  12       ; 1074689893
3528  0E0FC800           [239] gettable   60  1   288  ; "transmissionOverrides"
352C  E28E0001           [240] call       59  2   2  
3530  D84E0000           [241] test       59      1    ; to [243] if false
3534  1A800080           [242] jmp        3            ; to [246]
3538  E40E4100           [243] self       59  0   260  ; -1926901631
353C  4E0FC800           [244] gettable   61  1   288  ; "transmissionOverrides"
3540  E24E8001           [245] call       59  3   1  
3544  D30E8000           [246] getupval   59  1      
3548  CE4EC81D           [247] gettable   59  59  289  ; -1153782542
354C  E28E8000           [248] call       59  1   2  
3550  1D0F0300           [249] getglobal  60  12       ; 1074689893
3554  520F801D           [250] move       61  59     
3558  228F0001           [251] call       60  2   2  
355C  180F0000           [252] test       60      0    ; to [254] if true
3560  1A000080           [253] jmp        1            ; to [255]
3564  1E008000           [254] return     0   1      
3568  060F001E           [255] loadnil    60  60     
356C  5D0F0300           [256] getglobal  61  12       ; 1074689893
3570  920F0001           [257] move       62  2      
3574  628F0001           [258] call       61  2   2  
3578  584F0000           [259] test       61      1    ; to [261] if false
357C  1A400380           [260] jmp        14           ; to [275]
3580  5D8F0800           [261] getglobal  61  34       ; 2083004503
3584  920F0001           [262] move       62  2      
3588  628F0001           [263] call       61  2   2  
358C  9D0F0300           [264] getglobal  62  12       ; 1074689893
3590  D20F801E           [265] move       63  61     
3594  A28F0001           [266] call       62  2   2  
3598  984F0000           [267] test       62      1    ; to [269] if false
359C  1A400280           [268] jmp        10           ; to [279]
35A0  A4CFC81D           [269] self       62  59  291  ; 1527673913
35A4  A28F0001           [270] call       62  2   2  
35A8  E40FC91E           [271] self       63  61  292  ; -1692997971
35AC  E28F0001           [272] call       63  2   2  
35B0  0ECF0F1F           [273] gettable   60  62  63 
35B4  1AC00080           [274] jmp        4            ; to [279]
35B8  A44FC91D           [275] self       62  59  293  ; -163473155
35BC  0E90C600           [276] gettable   64  1   282  ; "location"
35C0  A28F8001           [277] call       62  3   2  
35C4  120F001F           [278] move       60  62     
35C8  9D0F0300           [279] getglobal  62  12       ; 1074689893
35CC  D20F001E           [280] move       63  60     
35D0  A28F0001           [281] call       62  2   2  
35D4  980F0000           [282] test       62      0    ; to [284] if true
35D8  1A000080           [283] jmp        1            ; to [285]
35DC  1E008000           [284] return     0   1      
35E0  8E8F491E           [285] gettable   62  60  294  ; "resources"
fail op	35
35E4  63C0491F           [286] close      1  
35E8  1A400780           [287] jmp        30           ; to [318]
35EC  9D0F0A00           [288] getglobal  62  40       ; 1672515847
35F0  CE8F491E           [289] gettable   63  60  294  ; "resources"
35F4  A20F0101           [290] call       62  2   4  
35F8  1AC00580           [291] jmp        24           ; to [316]
35FC  DD100300           [292] getglobal  67  12       ; 1074689893
3600  0E514A21           [293] gettable   68  66  297  ; "mStoreItem"
3604  E2900001           [294] call       67  2   2  
3608  D8500000           [295] test       67      1    ; to [297] if false
360C  1A800080           [296] jmp        3            ; to [300]
3610  E4104100           [297] self       67  0   260  ; -1926901631
3614  4E514A21           [298] gettable   69  66  297  ; "mStoreItem"
3618  E2508001           [299] call       67  3   1  
361C  DD100300           [300] getglobal  67  12       ; 1074689893
3620  0E914A21           [301] gettable   68  66  298  ; "mItemType"
3624  E2900001           [302] call       67  2   2  
3628  D8500000           [303] test       67      1    ; to [305] if false
362C  1A800080           [304] jmp        3            ; to [308]
3630  E4104100           [305] self       67  0   260  ; -1926901631
3634  4E914A21           [306] gettable   69  66  298  ; "mItemType"
3638  E2508001           [307] call       67  3   1  
363C  DD100300           [308] getglobal  67  12       ; 1074689893
3640  0ED14A21           [309] gettable   68  66  299  ; "mDecoType"
3644  E2900001           [310] call       67  2   2  
3648  D8500000           [311] test       67      1    ; to [313] if false
364C  1A800080           [312] jmp        3            ; to [316]
3650  E4104100           [313] self       67  0   260  ; -1926901631
3654  4ED14A21           [314] gettable   69  66  299  ; "mDecoType"
3658  E2508001           [315] call       67  3   1  
365C  968F0000           [316] tforloop   62      2    ; to [318] if exit
3660  1A40F97F           [317] jmp        -26          ; to [292]
3664  CE104B1E           [318] gettable   67  60  300  ; "drops"
fail op	35
3668  63C0C921           [319] close      1  
366C  1A400780           [320] jmp        30           ; to [351]
3670  DD100A00           [321] getglobal  67  40       ; 1672515847
3674  0E114B1E           [322] gettable   68  60  300  ; "drops"
3678  E2100101           [323] call       67  2   4  
367C  1AC00580           [324] jmp        24           ; to [349]
3680  1D120300           [325] getglobal  72  12       ; 1074689893
3684  4E52CA23           [326] gettable   73  71  297  ; "mStoreItem"
3688  22920001           [327] call       72  2   2  
368C  18520000           [328] test       72      1    ; to [330] if false
3690  1A800080           [329] jmp        3            ; to [333]
3694  24124100           [330] self       72  0   260  ; -1926901631
3698  8E52CA23           [331] gettable   74  71  297  ; "mStoreItem"
369C  22528001           [332] call       72  3   1  
36A0  1D120300           [333] getglobal  72  12       ; 1074689893
36A4  4E92CA23           [334] gettable   73  71  298  ; "mItemType"
36A8  22920001           [335] call       72  2   2  
36AC  18520000           [336] test       72      1    ; to [338] if false
36B0  1A800080           [337] jmp        3            ; to [341]
36B4  24124100           [338] self       72  0   260  ; -1926901631
36B8  8E92CA23           [339] gettable   74  71  298  ; "mItemType"
36BC  22528001           [340] call       72  3   1  
36C0  1D120300           [341] getglobal  72  12       ; 1074689893
36C4  4ED2CA23           [342] gettable   73  71  299  ; "mDecoType"
36C8  22920001           [343] call       72  2   2  
36CC  18520000           [344] test       72      1    ; to [346] if false
36D0  1A800080           [345] jmp        3            ; to [349]
36D4  24124100           [346] self       72  0   260  ; -1926901631
36D8  8ED2CA23           [347] gettable   74  71  299  ; "mDecoType"
36DC  22528001           [348] call       72  3   1  
36E0  D6900000           [349] tforloop   67      2    ; to [351] if exit
36E4  1A40F97F           [350] jmp        -26          ; to [325]
36E8  1D120300           [351] getglobal  72  12       ; 1074689893
36EC  4E52CB00           [352] gettable   73  1   301  ; "vipAgent"
36F0  22920001           [353] call       72  2   2  
36F4  18520000           [354] test       72      1    ; to [356] if false
36F8  1A800380           [355] jmp        15           ; to [371]
36FC  24124100           [356] self       72  0   260  ; -1926901631
3700  8E52CB00           [357] gettable   74  1   301  ; "vipAgent"
3704  22528001           [358] call       72  3   1  
3708  2492CB1D           [359] self       72  59  302  ; 1751146558
370C  8E92C600           [360] gettable   74  1   282  ; "location"
3710  CE52CB00           [361] gettable   75  1   301  ; "vipAgent"
3714  22920002           [362] call       72  4   2  
3718  59D20000           [363] loadk      73  3        ; 0
371C  8A120024           [364] len        74  72     
3720  D9D20000           [365] loadk      75  3        ; 0
3724  50920080           [366] forprep    73  3        ; to [370]
3728  64134100           [367] self       77  0   260  ; -1926901631
372C  CE131324           [368] gettable   79  72  76 
3730  62538001           [369] call       77  3   1  
3734  54D2FE7F           [370] forloop    73  -4       ; to [367] if loop
3738  64D34B00           [371] self       77  0   303  ; 265771605
373C  E4134C1E           [372] self       79  60  304  ; -1900091106
3740  E2130001           [373] call       79  2   0  
3744  62530000           [374] call       77  0   1  
3748  1E008000           [375] return     0   1      
                         * constants:
374C  31                 sizek (49)
374D  01                 const type 3
374E  591BC570           const [0]: (1891965785)
3752  01                 const type 3
3753  3D6E5B02           const [1]: (39546429)
3757  01                 const type 3
3758  06BBAC0F           const [2]: (262978310)
375C  03                 const type 3
375D  0000803F           const [3]: (0)
3761  01                 const type 3
3762  81D0258D           const [4]: (-1926901631)
3766  04                 const type 4
3767  09                 string size (9)
3768  7265736F75726365+  "resource"
3770  00                 "\0"
                         const [5]: "resource"
3771  01                 const type 3
3772  C643E5C2           const [6]: (-1025162298)
3776  01                 const type 3
3777  EFFB7E0F           const [7]: (259980271)
377B  01                 const type 3
377C  A87DE603           const [8]: (65437096)
3780  01                 const type 3
3781  17DDCF0E           const [9]: (248503575)
3785  04                 const type 4
3786  0C                 string size (12)
3787  6275646479416765+  "buddyAge"
378F  6E747300           "nts\0"
                         const [10]: "buddyAgents"
3793  01                 const type 3
3794  C98BEABB           const [11]: (-1142256695)
3798  01                 const type 3
3799  65770E40           const [12]: (1074689893)
379D  01                 const type 3
379E  4027C43C           const [13]: (1019488064)
37A2  04                 const type 4
37A3  08                 string size (8)
37A4  656F6D426F737300   "eomBoss\0"
                         const [14]: "eomBoss"
37AC  04                 const type 4
37AD  14                 string size (20)
37AE  656F6D426F737354+  "eomBossT"
37B6  72616E736D697373+  "ransmiss"
37BE  696F6E00           "ion\0"
                         const [15]: "eomBossTransmission"
37C2  04                 const type 4
37C3  0D                 string size (13)
37C4  656F6D426F737354+  "eomBossT"
37CC  61756E7400         "aunt\0"
                         const [16]: "eomBossTaunt"
37D1  04                 const type 4
37D2  18                 string size (24)
37D3  6261646C616E6441+  "badlandA"
37DB  747461636B657253+  "ttackerS"
37E3  7065637472657300   "pectres\0"
                         const [17]: "badlandAttackerSpectres"
37EB  04                 const type 4
37EC  06                 string size (6)
37ED  6D5375697400       "mSuit\0"
                         const [18]: "mSuit"
37F3  04                 const type 4
37F4  09                 string size (9)
37F5  6D4C6F6E6747756E+  "mLongGun"
37FD  00                 "\0"
                         const [19]: "mLongGun"
37FE  04                 const type 4
37FF  08                 string size (8)
3800  6D506973746F6C00   "mPistol\0"
                         const [20]: "mPistol"
3808  04                 const type 4
3809  07                 string size (7)
380A  6D4D656C656500     "mMelee\0"
                         const [21]: "mMelee"
3811  04                 const type 4
3812  18                 string size (24)
3813  6261646C616E6444+  "badlandD"
381B  6566656E64657253+  "efenderS"
3823  7065637472657300   "pectres\0"
                         const [22]: "badlandDefenderSpectres"
382B  04                 const type 4
382C  0C                 string size (12)
382D  73796E6469636174+  "syndicat"
3835  65496400           "eId\0"
                         const [23]: "syndicateId"
3839  04                 const type 4
383A  01                 string size (0)
                         const [24]: ""
383C  01                 const type 3
383D  BCD6AE9F           const [25]: (-1615931716)
3841  04                 const type 4
3842  09                 string size (9)
3843  6C6F636174696F6E+  "location"
384B  00                 "\0"
                         const [26]: "location"
384C  04                 const type 4
384D  03                 string size (3)
384E  5F5400             "_T\0"
                         const [27]: "_T"
3851  04                 const type 4
3852  18                 string size (24)
3853  4361636865645379+  "CachedSy"
385B  6E6469636174654D+  "ndicateM"
3863  697373696F6E7300   "issions\0"
                         const [28]: "CachedSyndicateMissions"
386B  04                 const type 4
386C  0D                 string size (13)
386D  6D42756464794167+  "mBuddyAg"
3875  656E747300         "ents\0"
                         const [29]: "mBuddyAgents"
387A  04                 const type 4
387B  0F                 string size (15)
387C  436163686564476F+  "CachedGo"
3884  616C4B65797300     "alKeys\0"
                         const [30]: "CachedGoalKeys"
388B  04                 const type 4
388C  0D                 string size (13)
388D  6B6579436861696E+  "keyChain"
3895  4E616D6500         "Name\0"
                         const [31]: "keyChainName"
389A  04                 const type 4
389B  16                 string size (22)
389C  7472616E736D6973+  "transmis"
38A4  73696F6E4F766572+  "sionOver"
38AC  726964657300       "rides\0"
                         const [32]: "transmissionOverrides"
38B2  01                 const type 3
38B3  F2AC3ABB           const [33]: (-1153782542)
38B7  01                 const type 3
38B8  5720287C           const [34]: (2083004503)
38BC  01                 const type 3
38BD  39740E5B           const [35]: (1527673913)
38C1  01                 const type 3
38C2  ADE6169B           const [36]: (-1692997971)
38C6  01                 const type 3
38C7  FD9841F6           const [37]: (-163473155)
38CB  04                 const type 4
38CC  0A                 string size (10)
38CD  7265736F75726365+  "resource"
38D5  7300               "s\0"
                         const [38]: "resources"
38D7  00                 const type 0
                         const [39]: nil
38D8  01                 const type 3
38D9  0791B063           const [40]: (1672515847)
38DD  04                 const type 4
38DE  0B                 string size (11)
38DF  6D53746F72654974+  "mStoreIt"
38E7  656D00             "em\0"
                         const [41]: "mStoreItem"
38EA  04                 const type 4
38EB  0A                 string size (10)
38EC  6D4974656D547970+  "mItemTyp"
38F4  6500               "e\0"
                         const [42]: "mItemType"
38F6  04                 const type 4
38F7  0A                 string size (10)
38F8  6D4465636F547970+  "mDecoTyp"
3900  6500               "e\0"
                         const [43]: "mDecoType"
3902  04                 const type 4
3903  06                 string size (6)
3904  64726F707300       "drops\0"
                         const [44]: "drops"
390A  04                 const type 4
390B  09                 string size (9)
390C  7669704167656E74+  "vipAgent"
3914  00                 "\0"
                         const [45]: "vipAgent"
3915  01                 const type 3
3916  3E606068           const [46]: (1751146558)
391A  01                 const type 3
391B  555AD70F           const [47]: (265771605)
391F  01                 const type 3
3920  1EE9BE8E           const [48]: (-1900091106)
                         * functions:
3924  00                 sizep (0)
                         * lines:
3926  02                 sizelineinfo (375)
                         [pc] (line)
3927  94                 [001] (-108)
3928  01                 [002] (-108)
3929  00                 [003] (-107)
392A  00                 [004] (-107)
392B  94                 [005] (-107)
392C  01                 [006] (-107)
392D  00                 [007] (-105)
392E  00                 [008] (-105)
392F  95                 [009] (-104)
3930  01                 [010] (-104)
3931  00                 [011] (-104)
3932  00                 [012] (-104)
3933  95                 [013] (-102)
3934  01                 [014] (-102)
3935  00                 [015] (-101)
3936  00                 [016] (-101)
3937  95                 [017] (-101)
3938  01                 [018] (-101)
3939  00                 [019] (-100)
393A  00                 [020] (-99)
393B  95                 [021] (-99)
393C  01                 [022] (-99)
393D  00                 [023] (-101)
393E  00                 [024] (-96)
393F  97                 [025] (-96)
3940  01                 [026] (-95)
3941  00                 [027] (-95)
3942  00                 [028] (-95)
3943  97                 [029] (-95)
3944  01                 [030] (-94)
3945  00                 [031] (-93)
3946  00                 [032] (-93)
3947  98                 [033] (-93)
3948  01                 [034] (-95)
3949  00                 [035] (-90)
394A  00                 [036] (-90)
394B  98                 [037] (-89)
394C  01                 [038] (-89)
394D  00                 [039] (-89)
394E  00                 [040] (-89)
394F  98                 [041] (-88)
3950  01                 [042] (-87)
3951  00                 [043] (-87)
3952  00                 [044] (-87)
3953  98                 [045] (-89)
3954  01                 [046] (-84)
3955  00                 [047] (-84)
3956  00                 [048] (-84)
3957  9A                 [049] (-83)
3958  01                 [050] (-83)
3959  00                 [051] (-83)
395A  00                 [052] (-83)
395B  9A                 [053] (-82)
395C  01                 [054] (-81)
395D  00                 [055] (-81)
395E  00                 [056] (-81)
395F  9B                 [057] (-83)
3960  01                 [058] (-78)
3961  00                 [059] (-78)
3962  00                 [060] (-78)
3963  9B                 [061] (-78)
3964  01                 [062] (-77)
3965  00                 [063] (-77)
3966  00                 [064] (-77)
3967  9B                 [065] (-78)
3968  01                 [066] (-77)
3969  00                 [067] (-74)
396A  00                 [068] (-74)
396B  9B                 [069] (-73)
396C  01                 [070] (-73)
396D  00                 [071] (-73)
396E  00                 [072] (-73)
396F  9C                 [073] (-72)
3970  01                 [074] (-72)
3971  00                 [075] (-72)
3972  00                 [076] (-72)
3973  9D                 [077] (-72)
3974  01                 [078] (-71)
3975  00                 [079] (-71)
3976  00                 [080] (-71)
3977  9D                 [081] (-73)
3978  01                 [082] (-67)
3979  00                 [083] (-67)
397A  00                 [084] (-66)
397B  9D                 [085] (-66)
397C  01                 [086] (-66)
397D  00                 [087] (-66)
397E  00                 [088] (-65)
397F  9B                 [089] (-64)
3980  01                 [090] (-64)
3981  00                 [091] (-64)
3982  00                 [092] (-64)
3983  A0                 [093] (-64)
3984  01                 [094] (-63)
3985  00                 [095] (-63)
3986  00                 [096] (-63)
3987  A0                 [097] (-66)
3988  01                 [098] (-59)
3989  00                 [099] (-59)
398A  00                 [100] (-59)
398B  A1                 [101] (-59)
398C  01                 [102] (-59)
398D  00                 [103] (-58)
398E  00                 [104] (-58)
398F  A1                 [105] (-58)
3990  01                 [106] (-55)
3991  00                 [107] (-55)
3992  00                 [108] (-55)
3993  A1                 [109] (-55)
3994  01                 [110] (-55)
3995  00                 [111] (-54)
3996  00                 [112] (-54)
3997  A1                 [113] (-54)
3998  01                 [114] (-51)
3999  00                 [115] (-51)
399A  00                 [116] (-51)
399B  A2                 [117] (-51)
399C  01                 [118] (-51)
399D  00                 [119] (-50)
399E  00                 [120] (-50)
399F  A3                 [121] (-50)
39A0  01                 [122] (-47)
39A1  00                 [123] (-47)
39A2  00                 [124] (-47)
39A3  A3                 [125] (-47)
39A4  01                 [126] (-47)
39A5  00                 [127] (-46)
39A6  00                 [128] (-46)
39A7  A3                 [129] (-45)
39A8  01                 [130] (-45)
39A9  00                 [131] (-45)
39AA  00                 [132] (-43)
39AB  A1                 [133] (-43)
39AC  01                 [134] (-43)
39AD  00                 [135] (-42)
39AE  00                 [136] (-42)
39AF  A6                 [137] (-42)
39B0  01                 [138] (-41)
39B1  00                 [139] (-41)
39B2  00                 [140] (-41)
39B3  A6                 [141] (-47)
39B4  01                 [142] (-38)
39B5  00                 [143] (-38)
39B6  00                 [144] (-38)
39B7  A7                 [145] (-38)
39B8  01                 [146] (-38)
39B9  00                 [147] (-37)
39BA  00                 [148] (-37)
39BB  A7                 [149] (-36)
39BC  01                 [150] (-36)
39BD  00                 [151] (-36)
39BE  00                 [152] (-34)
39BF  A7                 [153] (-34)
39C0  01                 [154] (-34)
39C1  00                 [155] (-33)
39C2  00                 [156] (-33)
39C3  A7                 [157] (-33)
39C4  01                 [158] (-32)
39C5  00                 [159] (-32)
39C6  00                 [160] (-32)
39C7  A8                 [161] (-38)
39C8  01                 [162] (-28)
39C9  00                 [163] (-28)
39CA  00                 [164] (-28)
39CB  A9                 [165] (-27)
39CC  01                 [166] (-27)
39CD  00                 [167] (-27)
39CE  00                 [168] (-26)
39CF  A9                 [169] (-26)
39D0  01                 [170] (-26)
39D1  00                 [171] (-26)
39D2  00                 [172] (-26)
39D3  A9                 [173] (-26)
39D4  01                 [174] (-26)
39D5  00                 [175] (-26)
39D6  00                 [176] (-26)
39D7  A7                 [177] (-26)
39D8  01                 [178] (-26)
39D9  00                 [179] (-26)
39DA  00                 [180] (-26)
39DB  AC                 [181] (-25)
39DC  01                 [182] (-25)
39DD  00                 [183] (-25)
39DE  00                 [184] (-25)
39DF  AC                 [185] (-25)
39E0  01                 [186] (-25)
39E1  00                 [187] (-25)
39E2  00                 [188] (-25)
39E3  AC                 [189] (-24)
39E4  01                 [190] (-24)
39E5  00                 [191] (-24)
39E6  00                 [192] (-24)
39E7  AD                 [193] (-24)
39E8  01                 [194] (-24)
39E9  00                 [195] (-24)
39EA  00                 [196] (-25)
39EB  AD                 [197] (-19)
39EC  01                 [198] (-19)
39ED  00                 [199] (-19)
39EE  00                 [200] (-19)
39EF  AD                 [201] (-19)
39F0  01                 [202] (-19)
39F1  00                 [203] (-19)
39F2  00                 [204] (-19)
39F3  AD                 [205] (-19)
39F4  01                 [206] (-19)
39F5  00                 [207] (-19)
39F6  00                 [208] (-19)
39F7  AE                 [209] (-19)
39F8  01                 [210] (-19)
39F9  00                 [211] (-19)
39FA  00                 [212] (-19)
39FB  AF                 [213] (-19)
39FC  01                 [214] (-19)
39FD  00                 [215] (-19)
39FE  00                 [216] (-18)
39FF  AF                 [217] (-18)
3A00  01                 [218] (-18)
3A01  00                 [219] (-18)
3A02  00                 [220] (-18)
3A03  AF                 [221] (-18)
3A04  01                 [222] (-15)
3A05  00                 [223] (-15)
3A06  00                 [224] (-15)
3A07  AD                 [225] (-15)
3A08  01                 [226] (-15)
3A09  00                 [227] (-14)
3A0A  00                 [228] (-14)
3A0B  B2                 [229] (-14)
3A0C  01                 [230] (-11)
3A0D  00                 [231] (-11)
3A0E  00                 [232] (-11)
3A0F  B2                 [233] (-11)
3A10  01                 [234] (-11)
3A11  00                 [235] (-10)
3A12  00                 [236] (-10)
3A13  B2                 [237] (-10)
3A14  01                 [238] (-7)
3A15  00                 [239] (-7)
3A16  00                 [240] (-7)
3A17  B2                 [241] (-7)
3A18  01                 [242] (-7)
3A19  00                 [243] (-6)
3A1A  00                 [244] (-6)
3A1B  B3                 [245] (-6)
3A1C  01                 [246] (-3)
3A1D  00                 [247] (-3)
3A1E  00                 [248] (-3)
3A1F  B3                 [249] (-1)
3A20  01                 [250] (-1)
3A21  00                 [251] (-1)
3A22  00                 [252] (-1)
3A23  B3                 [253] (-1)
3A24  01                 [254] (0)
3A25  00                 [255] (4)
3A26  00                 [256] (5)
3A27  B2                 [257] (5)
3A28  01                 [258] (5)
3A29  00                 [259] (5)
3A2A  00                 [260] (5)
3A2B  B3                 [261] (6)
3A2C  01                 [262] (6)
3A2D  00                 [263] (6)
3A2E  00                 [264] (7)
3A2F  B6                 [265] (7)
3A30  01                 [266] (7)
3A31  00                 [267] (7)
3A32  00                 [268] (7)
3A33  B6                 [269] (8)
3A34  01                 [270] (8)
3A35  00                 [271] (8)
3A36  00                 [272] (8)
3A37  B7                 [273] (8)
3A38  01                 [274] (9)
3A39  00                 [275] (11)
3A3A  00                 [276] (11)
3A3B  B7                 [277] (11)
3A3C  01                 [278] (11)
3A3D  00                 [279] (14)
3A3E  00                 [280] (14)
3A3F  B7                 [281] (14)
3A40  01                 [282] (14)
3A41  00                 [283] (14)
3A42  00                 [284] (15)
3A43  B7                 [285] (19)
3A44  01                 [286] (19)
3A45  00                 [287] (19)
3A46  00                 [288] (20)
3A47  B8                 [289] (20)
3A48  01                 [290] (20)
3A49  00                 [291] (20)
3A4A  00                 [292] (21)
3A4B  B8                 [293] (21)
3A4C  01                 [294] (21)
3A4D  00                 [295] (21)
3A4E  00                 [296] (21)
3A4F  B8                 [297] (22)
3A50  01                 [298] (22)
3A51  00                 [299] (22)
3A52  00                 [300] (24)
3A53  B8                 [301] (24)
3A54  01                 [302] (24)
3A55  00                 [303] (24)
3A56  00                 [304] (24)
3A57  B8                 [305] (25)
3A58  01                 [306] (25)
3A59  00                 [307] (25)
3A5A  00                 [308] (27)
3A5B  B9                 [309] (27)
3A5C  01                 [310] (27)
3A5D  00                 [311] (27)
3A5E  00                 [312] (27)
3A5F  B9                 [313] (28)
3A60  01                 [314] (28)
3A61  00                 [315] (28)
3A62  00                 [316] (20)
3A63  B9                 [317] (29)
3A64  01                 [318] (33)
3A65  00                 [319] (33)
3A66  00                 [320] (33)
3A67  B7                 [321] (34)
3A68  01                 [322] (34)
3A69  00                 [323] (34)
3A6A  00                 [324] (34)
3A6B  BD                 [325] (35)
3A6C  01                 [326] (35)
3A6D  00                 [327] (35)
3A6E  00                 [328] (35)
3A6F  BD                 [329] (35)
3A70  01                 [330] (36)
3A71  00                 [331] (36)
3A72  00                 [332] (36)
3A73  BE                 [333] (38)
3A74  01                 [334] (38)
3A75  00                 [335] (38)
3A76  00                 [336] (38)
3A77  BE                 [337] (38)
3A78  01                 [338] (39)
3A79  00                 [339] (39)
3A7A  00                 [340] (39)
3A7B  BE                 [341] (41)
3A7C  01                 [342] (41)
3A7D  00                 [343] (41)
3A7E  00                 [344] (41)
3A7F  BE                 [345] (41)
3A80  01                 [346] (42)
3A81  00                 [347] (42)
3A82  00                 [348] (42)
3A83  BF                 [349] (34)
3A84  01                 [350] (43)
3A85  00                 [351] (47)
3A86  00                 [352] (47)
3A87  C0                 [353] (47)
3A88  01                 [354] (47)
3A89  00                 [355] (47)
3A8A  00                 [356] (48)
3A8B  C0                 [357] (48)
3A8C  01                 [358] (48)
3A8D  00                 [359] (50)
3A8E  00                 [360] (50)
3A8F  C0                 [361] (50)
3A90  01                 [362] (50)
3A91  00                 [363] (51)
3A92  00                 [364] (51)
3A93  C0                 [365] (51)
3A94  01                 [366] (51)
3A95  00                 [367] (52)
3A96  00                 [368] (52)
3A97  C0                 [369] (52)
3A98  01                 [370] (51)
3A99  00                 [371] (57)
3A9A  00                 [372] (57)
3A9B  C1                 [373] (57)
3A9C  01                 [374] (57)
3A9D  00                 [375] (59)
                         * locals:
3F03  00                 sizelocvars (0)
                         * upvalues:
3F04  00                 sizeupvalues (0)
                         ** end of function **

                         
3F05                     ** function [19] definition (level 2)
                         ** start of function **
3F05  00                 string size (0)
                         source name: (none)
3F07  04                 line defined (573)
3F08  BF                 last line defined (575)
3F09  04                 nups (1)
3F0A  01                 numparams (2)
3F0B  02                 is_vararg (0)
3F0C  00                 maxstacksize (5)
                         * code:
3F0E  05                 sizecode (5)
3F0F  93000000           [1] getupval   2   0      
3F13  D2000000           [2] move       3   0      
3F17  12018000           [3] move       4   1      
3F1B  A2408001           [4] call       2   3   1  
3F1F  1E008000           [5] return     0   1      
                         * constants:
3F23  00                 sizek (0)
                         * functions:
3F24  00                 sizep (0)
                         * lines:
3F25  05                 sizelineinfo (5)
                         [pc] (line)
3F26  3E                 [1] (62)
3F27  02                 [2] (62)
3F28  00                 [3] (62)
3F29  00                 [4] (62)
3F2A  3E                 [5] (63)
                         * locals:
3F3A  00                 sizelocvars (0)
                         * upvalues:
3F3B  00                 sizeupvalues (0)
                         ** end of function **

                         
3F3C                     ** function [20] definition (level 2)
                         ** start of function **
3F3C  00                 string size (0)
                         source name: (none)
3F3E  04                 line defined (577)
3F3F  E2                 last line defined (994)
3F40  07                 nups (18)
3F41  12                 numparams (8)
3F42  08                 is_vararg (0)
3F43  00                 maxstacksize (121)
                         * code:
3F46  09                 sizecode (1157)
3F47  1D020000           [0001] getglobal  8   0        ; 1074689893
3F4B  52020000           [0002] move       9   0      
3F4F  22820001           [0003] call       8   2   2  
3F53  18420000           [0004] test       8       1    ; to [6] if false
3F57  1A800080           [0005] jmp        3            ; to [9]
3F5B  1D420000           [0006] getglobal  8   1        ; EMPTY_SYMBOL
fail op	35
3F5F  23000200           [0007] close      0  
3F63  1A000080           [0008] jmp        1            ; to [10]
3F67  1E008000           [0009] return     0   1      
3F6B  1D820000           [0010] getglobal  8   2        ; -1615931716
3F6F  52020000           [0011] move       9   0      
3F73  22820001           [0012] call       8   2   2  
fail op	35
3F77  23C0C000           [0013] close      0  
3F7B  1AC00080           [0014] jmp        4            ; to [19]
3F7F  5D020100           [0015] getglobal  9   4        ; -1817107093
3F83  99420100           [0016] loadk      10  5        ; "LotusNetworkUtilities:Host_LoadMission, missionInfo is null"
3F87  62420001           [0017] call       9   2   1  
3F8B  1E008000           [0018] return     0   1      
3F8F  57020000           [0019] loadbool   9   0   0    ; false
3F93  8E82C100           [0020] gettable   10  1   262  ; "missionType"
3F97  DDC20100           [0021] getglobal  11  7        ; Lotus_Game
3F9B  CE02C205           [0022] gettable   11  11  264  ; "MT_SECTOR"
fail op	35
3F9F  63C00205           [0023] close      1  
3FA3  1AC00180           [0024] jmp        8            ; to [33]
3FA7  9D420200           [0025] getglobal  10  9        ; string
3FAB  8E824205           [0026] gettable   10  10  266  ; -565905820
3FAF  D2020004           [0027] move       11  8      
3FB3  13030000           [0028] getupval   12  0      
3FB7  0EC34206           [0029] gettable   12  12  267  ; "BADLAND_ATTACKER_TAG"
3FBB  A2828001           [0030] call       10  3   2  
3FBF  98020000           [0031] test       10      0    ; to [33] if true
3FC3  1A000080           [0032] jmp        1            ; to [34]
3FC7  57028000           [0033] loadbool   9   1   0    ; true
3FCB  9D420200           [0034] getglobal  10  9        ; string
3FCF  8E824205           [0035] gettable   10  10  266  ; -565905820
3FD3  D2020004           [0036] move       11  8      
3FD7  13030000           [0037] getupval   12  0      
3FDB  0E034306           [0038] gettable   12  12  268  ; "BADLAND_DEFENDER_TAG"
3FDF  A2828001           [0039] call       10  3   2  
fail op	35
3FE3  23C04005           [0040] close      0  
3FE7  1AC00180           [0041] jmp        8            ; to [50]
3FEB  9D420200           [0042] getglobal  10  9        ; string
3FEF  8E824205           [0043] gettable   10  10  266  ; -565905820
3FF3  D2020004           [0044] move       11  8      
3FF7  13030000           [0045] getupval   12  0      
3FFB  0EC34206           [0046] gettable   12  12  267  ; "BADLAND_ATTACKER_TAG"
3FFF  A2828001           [0047] call       10  3   2  
4003  1A400080           [0048] jmp        2            ; to [51]
4007  97420000           [0049] loadbool   10  0   1    ; false, to [51]
400B  97028000           [0050] loadbool   10  1   0    ; true
400F  58020000           [0051] test       9       0    ; to [53] if true
4013  1A000380           [0052] jmp        13           ; to [66]
4017  DD020000           [0053] getglobal  11  0        ; 1074689893
401B  1D430300           [0054] getglobal  12  13       ; gMatchingService
401F  24834306           [0055] self       12  12  270  ; -706726330
4023  22030001           [0056] call       12  2   0  
4027  E2820000           [0057] call       11  0   2  
402B  D8020000           [0058] test       11      0    ; to [60] if true
402F  1A400180           [0059] jmp        6            ; to [66]
4033  D3028000           [0060] getupval   11  1      
4037  CEC2C305           [0061] gettable   11  11  271  ; 185724978
403B  19030400           [0062] loadk      12  16       ; "/Lotus/Language/Menu/OnlineModeRequired"
403F  59430400           [0063] loadk      13  17       ; "ConfirmLaunchFailurePopup"
4043  E2428001           [0064] call       11  3   1  
4047  1E008000           [0065] return     0   1      
404B  DD820400           [0066] getglobal  11  18       ; _T
404F  24034500           [0067] self       12  0   276  ; 1590141906
4053  22830001           [0068] call       12  2   2  
4057  CC028389           [0069] settable   11  275 12   ; "gSelectedNodeName"
405B  DD420500           [0070] getglobal  11  21       ; _G
405F  1D830400           [0071] getglobal  12  18       ; _T
4063  0EC34406           [0072] gettable   12  12  275  ; "gSelectedNodeName"
4067  CC028389           [0073] settable   11  275 12   ; "gSelectedNodeName"
406B  DD420200           [0074] getglobal  11  9        ; string
406F  CE82C205           [0075] gettable   11  11  266  ; -565905820
4073  1D830400           [0076] getglobal  12  18       ; _T
4077  0EC34406           [0077] gettable   12  12  275  ; "gSelectedNodeName"
407B  53030000           [0078] getupval   13  0      
407F  4E83C506           [0079] gettable   13  13  278  ; "HUB_TAG"
4083  E2828001           [0080] call       11  3   2  
4087  0EC3C500           [0081] gettable   12  1   279  ; "soloMode"
fail op	35
408B  23C0C005           [0082] close      0  
408F  1A000080           [0083] jmp        1            ; to [85]
4093  57430000           [0084] loadbool   13  0   1    ; false, to [86]
4097  57038000           [0085] loadbool   13  1   0    ; true
fail op	5
409B  85038006           [0086] getglobal  14  6656     ; nil
409F  1AC00280           [0087] jmp        12           ; to [100]
40A3  9D030000           [0088] getglobal  14  0        ; 1074689893
40A7  DD830400           [0089] getglobal  15  18       ; _T
40AB  CE03C607           [0090] gettable   15  15  280  ; "gDojoData"
40AF  A2830001           [0091] call       14  2   2  
40B3  98430000           [0092] test       14      1    ; to [94] if false
40B7  1AC00080           [0093] jmp        4            ; to [98]
40BB  9D830400           [0094] getglobal  14  18       ; _T
40BF  8E034607           [0095] gettable   14  14  280  ; "gDojoData"
40C3  8E434607           [0096] gettable   14  14  281  ; "Result"
40C7  1A400080           [0097] jmp        2            ; to [100]
40CB  97430000           [0098] loadbool   14  0   1    ; false, to [100]
40CF  97038000           [0099] loadbool   14  1   0    ; true
40D3  DD430200           [0100] getglobal  15  9        ; string
40D7  CE83C207           [0101] gettable   15  15  266  ; -565905820
40DB  12040004           [0102] move       16  8      
40DF  59840600           [0103] loadk      17  26       ; "DojoDuel"
40E3  E2838001           [0104] call       15  3   2  
fail op	35
40E7  23C0C007           [0105] close      0  
40EB  1A000080           [0106] jmp        1            ; to [108]
40EF  D7430000           [0107] loadbool   15  0   1    ; false, to [109]
40F3  D7038000           [0108] loadbool   15  1   0    ; true
40F7  1D440200           [0109] getglobal  16  9        ; string
40FB  0E844208           [0110] gettable   16  16  266  ; -565905820
40FF  52040004           [0111] move       17  8      
4103  99C40600           [0112] loadk      18  27       ; "DojoCustomObstacleCourse"
4107  22848001           [0113] call       16  3   2  
fail op	35
410B  23C04008           [0114] close      0  
410F  1A000080           [0115] jmp        1            ; to [117]
4113  17440000           [0116] loadbool   16  0   1    ; false, to [118]
4117  17048000           [0117] loadbool   16  1   0    ; true
411B  18030000           [0118] test       12      0    ; to [120] if true
411F  1A400680           [0119] jmp        26           ; to [146]
4123  5D040000           [0120] getglobal  17  0        ; 1074689893
4127  9D440300           [0121] getglobal  18  13       ; gMatchingService
412B  A4844309           [0122] self       18  18  270  ; -706726330
412F  A2040001           [0123] call       18  2   0  
4133  62840000           [0124] call       17  0   2  
4137  58440000           [0125] test       17      1    ; to [127] if false
413B  1A400D80           [0126] jmp        54           ; to [181]
413F  5D440300           [0127] getglobal  17  13       ; gMatchingService
4143  6484C308           [0128] self       17  17  270  ; -706726330
4147  62840001           [0129] call       17  2   2  
414B  6404C708           [0130] self       17  17  284  ; -348174914
414F  62840001           [0131] call       17  2   2  
4153  8E44C708           [0132] gettable   18  17  285  ; "regionId"
4157  DD840700           [0133] getglobal  19  30       ; Engine
415B  CEC4C709           [0134] gettable   19  19  287  ; "LOCKED"
fail op	35
415F  63C00409           [0135] close      1  
4163  1AC00A80           [0136] jmp        44           ; to [181]
4167  9D840700           [0137] getglobal  18  30       ; Engine
416B  8EC44709           [0138] gettable   18  18  287  ; "LOCKED"
416F  4C84848E           [0139] settable   17  285 18   ; "regionId"
4173  9D440300           [0140] getglobal  18  13       ; gMatchingService
4177  A4044809           [0141] self       18  18  288  ; -1498972169
417B  12058008           [0142] move       20  17     
417F  59450800           [0143] loadk      21  33       ; "OnUpdateSessionSettings"
4183  A2440002           [0144] call       18  4   1  
4187  1A800880           [0145] jmp        35           ; to [181]
fail op	35
418B  23C0C005           [0146] close      0  
418F  1A000880           [0147] jmp        33           ; to [181]
4193  D8430000           [0148] test       15      1    ; to [150] if false
4197  1A800780           [0149] jmp        31           ; to [181]
419B  18440000           [0150] test       16      1    ; to [152] if false
419F  1A000780           [0151] jmp        29           ; to [181]
41A3  93048000           [0152] getupval   18  1      
41A7  8E844809           [0153] gettable   18  18  290  ; -132701534
fail op	35
41AB  63C0C803           [0154] close      1  
41AF  1A000080           [0155] jmp        1            ; to [157]
41B3  D7440000           [0156] loadbool   19  0   1    ; false, to [158]
41B7  D7048000           [0157] loadbool   19  1   0    ; true
41BB  0E05C900           [0158] gettable   20  1   292  ; "maxPlayersOverride"
41BF  4605800A           [0159] loadnil    21  21     
41C3  A2840002           [0160] call       18  4   2  
41C7  D3040001           [0161] getupval   19  2      
41CB  1D850400           [0162] getglobal  20  18       ; _T
41CF  0EC5440A           [0163] gettable   20  20  275  ; "gSelectedNodeName"
fail op	35
41D3  63C0C005           [0164] close      1  
41D7  1A000080           [0165] jmp        1            ; to [167]
41DB  57450000           [0166] loadbool   21  0   1    ; false, to [168]
41DF  57058000           [0167] loadbool   21  1   0    ; true
41E3  92058001           [0168] move       22  3      
41E7  D9450800           [0169] loadk      23  33       ; "OnUpdateSessionSettings"
41EB  12068004           [0170] move       24  9      
41EF  52060009           [0171] move       25  18     
41F3  E2848003           [0172] call       19  7   2  
41F7  D8440000           [0173] test       19      1    ; to [175] if false
41FB  1A400180           [0174] jmp        6            ; to [181]
41FF  13058000           [0175] getupval   20  1      
4203  0EC5430A           [0176] gettable   20  20  271  ; 185724978
4207  59450900           [0177] loadk      21  37       ; "/Lotus/Language/Menu/Multiplayer_FailedToHost"
420B  99450400           [0178] loadk      22  17       ; "ConfirmLaunchFailurePopup"
420F  22458001           [0179] call       20  3   1  
4213  1E008000           [0180] return     0   1      
4217  1D850900           [0181] getglobal  20  38       ; gPlayerProfileMgr
421B  24C5490A           [0182] self       20  20  295  ; 569342746
421F  99050A00           [0183] loadk      22  40       ; 0
4223  22858001           [0184] call       20  3   2  
4227  4605800A           [0185] loadnil    21  21     
422B  9D050000           [0186] getglobal  22  0        ; 1074689893
422F  D205000A           [0187] move       23  20     
4233  A2850001           [0188] call       22  2   2  
4237  98450000           [0189] test       22      1    ; to [191] if false
423B  1A400580           [0190] jmp        22           ; to [213]
423F  A4454A0A           [0191] self       22  20  297  ; 1699680402
4243  A2850001           [0192] call       22  2   2  
4247  5205000B           [0193] move       21  22     
424B  9D050000           [0194] getglobal  22  0        ; 1074689893
424F  D205800A           [0195] move       23  21     
4253  A2850001           [0196] call       22  2   2  
4257  98450000           [0197] test       22      1    ; to [199] if false
425B  1A400480           [0198] jmp        18           ; to [217]
425F  93050000           [0199] getupval   22  0      
4263  8E854A0B           [0200] gettable   22  22  298  ; -454716625
4267  DD850400           [0201] getglobal  23  18       ; _T
426B  CEC5C40B           [0202] gettable   23  23  275  ; "gSelectedNodeName"
426F  A2850001           [0203] call       22  2   2  
4273  D8400000           [0204] test       3       1    ; to [206] if false
4277  1A800080           [0205] jmp        3            ; to [209]
427B  E4C5CA0A           [0206] self       23  21  299  ; -1610995610
427F  5206000B           [0207] move       25  22     
4283  E2458001           [0208] call       23  3   1  
4287  E405CB0A           [0209] self       23  21  300  ; 1963876188
428B  5206000B           [0210] move       25  22     
428F  E2458001           [0211] call       23  3   1  
4293  1AC00080           [0212] jmp        4            ; to [217]
4297  DD050100           [0213] getglobal  23  4        ; -1817107093
429B  19460B00           [0214] loadk      24  45       ; "_GetMissionOpenLevelArgs: playerProfile is null"
429F  E2450001           [0215] call       23  2   1  
42A3  1E008000           [0216] return     0   1      
42A7  DD050000           [0217] getglobal  23  0        ; 1074689893
42AB  1D860400           [0218] getglobal  24  18       ; _T
42AF  0E864B0C           [0219] gettable   24  24  302  ; "gKeyChainUsed"
42B3  E2850001           [0220] call       23  2   2  
42B7  D8450000           [0221] test       23      1    ; to [223] if false
42BB  1A400080           [0222] jmp        2            ; to [225]
42BF  4C00CC97           [0223] settable   1   303 304  ; "levelKeyOwnerId" ""
42C3  1A800380           [0224] jmp        15           ; to [240]
42C7  DD050000           [0225] getglobal  23  0        ; 1074689893
42CB  12060003           [0226] move       24  6      
42CF  E2850001           [0227] call       23  2   2  
42D3  D8450000           [0228] test       23      1    ; to [230] if false
42D7  1A400080           [0229] jmp        2            ; to [232]
42DB  98010000           [0230] test       6       0    ; to [232] if true
42DF  1AC00180           [0231] jmp        8            ; to [240]
42E3  D3058001           [0232] getupval   23  3      
42E7  E2858000           [0233] call       23  1   2  
42EB  D8050000           [0234] test       23      0    ; to [236] if true
42EF  1AC00080           [0235] jmp        4            ; to [240]
42F3  DD450300           [0236] getglobal  23  13       ; gMatchingService
42F7  E445CC0B           [0237] self       23  23  305  ; -230468042
42FB  E2850001           [0238] call       23  2   2  
42FF  4CC08597           [0239] settable   1   303 23   ; "levelKeyOwnerId"
4303  D8010000           [0240] test       7       0    ; to [242] if true
4307  1A000B80           [0241] jmp        45           ; to [287]
430B  DD050000           [0242] getglobal  23  0        ; 1074689893
430F  12060001           [0243] move       24  2      
4313  E2850001           [0244] call       23  2   2  
4317  D8050000           [0245] test       23      0    ; to [247] if true
431B  1AC00980           [0246] jmp        40           ; to [287]
431F  DD450200           [0247] getglobal  23  9        ; string
4323  CE85C20B           [0248] gettable   23  23  266  ; -565905820
4327  1D860400           [0249] getglobal  24  18       ; _T
432B  0EC6440C           [0250] gettable   24  24  275  ; "gSelectedNodeName"
432F  53060000           [0251] getupval   25  0      
4333  4E86CC0C           [0252] gettable   25  25  306  ; "NIGHTMARE_TAG"
4337  E2858001           [0253] call       23  3   2  
433B  D8050000           [0254] test       23      0    ; to [256] if true
433F  1A800780           [0255] jmp        31           ; to [287]
4343  CE85C100           [0256] gettable   23  1   262  ; "missionType"
4347  1DC60100           [0257] getglobal  24  7        ; Lotus_Game
434B  0EC64C0C           [0258] gettable   24  24  307  ; "MT_RAID"
fail op	35
434F  6300860B           [0259] close      1  
4353  1A400680           [0260] jmp        26           ; to [287]
4357  D3050000           [0261] getupval   23  0      
435B  CE05CD0B           [0262] gettable   23  23  308  ; -1153782542
435F  E2858000           [0263] call       23  1   2  
4363  E445CD0B           [0264] self       23  23  309  ; -551469855
4367  4E86CD00           [0265] gettable   25  1   310  ; "location"
436B  E2858001           [0266] call       23  3   2  
436F  0E06CE0B           [0267] gettable   24  23  312  ; "mission"
4373  0EC64D0C           [0268] gettable   24  24  311  ; "seed"
4377  4C00869B           [0269] settable   1   311 24   ; "seed"
437B  4C80CE9C           [0270] settable   1   313 314  ; "difficulty" 0
437F  0EC6CE00           [0271] gettable   24  1   315  ; "minEnemyLevel"
4383  03064F0C           [0272] add        24  24  316  ; 0
4387  4C00869D           [0273] settable   1   315 24   ; "minEnemyLevel"
438B  0E46CF00           [0274] gettable   24  1   317  ; "maxEnemyLevel"
438F  03064F0C           [0275] add        24  24  316  ; 0
4393  4C00869E           [0276] settable   1   317 24   ; "maxEnemyLevel"
4397  1DC60F00           [0277] getglobal  24  63       ; -332969190
439B  59061000           [0278] loadk      25  64       ; "NightmareRegion"
439F  8E46D00B           [0279] gettable   26  23  321  ; "region"
43A3  83864E0D           [0280] add        26  26  314  ; 0
43A7  4286860C           [0281] concat     25  25  26 
43AB  22860001           [0282] call       24  2   2  
43AF  4C00069F           [0283] settable   1   318 24   ; "periodicMissionTag"
43B3  13060000           [0284] getupval   24  0      
43B7  0EC6500C           [0285] gettable   24  24  323  ; "NIGHTMARE_MISSION_INTERVAL"
43BB  4C0006A1           [0286] settable   1   322 24   ; "periodicMissionCooldown"
43BF  1D060000           [0287] getglobal  24  0        ; 1074689893
43C3  5206800A           [0288] move       25  21     
43C7  22860001           [0289] call       24  2   2  
43CB  18460000           [0290] test       24      1    ; to [292] if false
43CF  1AC01680           [0291] jmp        92           ; to [384]
43D3  13060000           [0292] getupval   24  0      
43D7  0E06510C           [0293] gettable   24  24  324  ; 1536078401
43DB  22868000           [0294] call       24  1   2  
43DF  18060000           [0295] test       24      0    ; to [297] if true
43E3  1A801580           [0296] jmp        87           ; to [384]
43E7  2446D10A           [0297] self       24  21  325  ; 755731078
43EB  22860001           [0298] call       24  2   2  
43EF  0E86510C           [0299] gettable   24  24  326  ; "mSeasonInfo"
43F3  4EC6510C           [0300] gettable   25  24  327  ; "mSeason"
fail op	35
43F7  2300D20C           [0301] close      0  
43FB  1A001480           [0302] jmp        81           ; to [384]
43FF  4E46520C           [0303] gettable   25  24  329  ; "mPhase"
fail op	21
4403  1540069D           [0304] concat     0   314 25 
4407  1A401380           [0305] jmp        78           ; to [384]
440B  5D860000           [0306] getglobal  25  2        ; -1615931716
440F  8E86CD00           [0307] gettable   26  1   310  ; "location"
4413  62860001           [0308] call       25  2   2  
4417  8E86D200           [0309] gettable   26  1   330  ; "archwingRequired"
441B  98460000           [0310] test       26      1    ; to [312] if false
441F  1AC01180           [0311] jmp        72           ; to [384]
4423  8E86C100           [0312] gettable   26  1   262  ; "missionType"
4427  DDC60100           [0313] getglobal  27  7        ; Lotus_Game
442B  CEC6D20D           [0314] gettable   27  27  331  ; "MT_LANDSCAPE"
fail op	35
442F  63C0060D           [0315] close      1  
4433  1A801080           [0316] jmp        67           ; to [384]
4437  8E86C100           [0317] gettable   26  1   262  ; "missionType"
443B  DDC60100           [0318] getglobal  27  7        ; Lotus_Game
443F  CEC6CC0D           [0319] gettable   27  27  307  ; "MT_RAID"
fail op	35
4443  63C0060D           [0320] close      1  
4447  1A400F80           [0321] jmp        62           ; to [384]
444B  8E86C100           [0322] gettable   26  1   262  ; "missionType"
444F  DDC60100           [0323] getglobal  27  7        ; Lotus_Game
4453  CE06D30D           [0324] gettable   27  27  332  ; "MT_ARENA"
fail op	35
4457  63C0060D           [0325] close      1  
445B  1A000E80           [0326] jmp        57           ; to [384]
445F  8E86C100           [0327] gettable   26  1   262  ; "missionType"
4463  DDC60100           [0328] getglobal  27  7        ; Lotus_Game
4467  CE46D30D           [0329] gettable   27  27  333  ; "MT_ASSASSINATION"
fail op	35
446B  63C0060D           [0330] close      1  
446F  1AC00C80           [0331] jmp        52           ; to [384]
4473  8E86C100           [0332] gettable   26  1   262  ; "missionType"
4477  DDC60100           [0333] getglobal  27  7        ; Lotus_Game
447B  CE86D30D           [0334] gettable   27  27  334  ; "MT_GENERIC"
fail op	35
447F  63C0060D           [0335] close      1  
4483  1A800B80           [0336] jmp        47           ; to [384]
4487  8EC6CE00           [0337] gettable   26  1   315  ; "minEnemyLevel"
fail op	21
448B  158086A7           [0338] concat     0   335 26 
448F  1AC00A80           [0339] jmp        44           ; to [384]
4493  8E06D400           [0340] gettable   26  1   336  ; "conclaveRange"
4497  8E46540D           [0341] gettable   26  26  337  ; "maxValue"
fail op	33
449B  21004A0D           [0342] tforloop   0       296  ; to [344] if exit
449F  1AC00980           [0343] jmp        40           ; to [384]
44A3  8E86D400           [0344] gettable   26  1   338  ; "goalId"
fail op	35
44A7  23004C0D           [0345] close      0  
44AB  1A000980           [0346] jmp        37           ; to [384]
44AF  8EC6D400           [0347] gettable   26  1   339  ; "sortieId"
fail op	35
44B3  23004C0D           [0348] close      0  
44B7  1A400880           [0349] jmp        34           ; to [384]
44BB  9D060000           [0350] getglobal  26  0        ; 1074689893
44BF  CE06D500           [0351] gettable   27  1   340  ; "keyChainName"
44C3  A2860001           [0352] call       26  2   2  
44C7  98060000           [0353] test       26      0    ; to [355] if true
44CB  1A000780           [0354] jmp        29           ; to [384]
44CF  9D460200           [0355] getglobal  26  9        ; string
44D3  8E86420D           [0356] gettable   26  26  266  ; -565905820
44D7  D206800C           [0357] move       27  25     
44DB  19471500           [0358] loadk      28  85       ; "EventNode"
44DF  A2868001           [0359] call       26  3   2  
44E3  98460000           [0360] test       26      1    ; to [362] if false
44E7  1A400580           [0361] jmp        22           ; to [384]
44EB  8E86CF00           [0362] gettable   26  1   318  ; "periodicMissionTag"
44EF  D3060000           [0363] getupval   27  0      
44F3  CE86D50D           [0364] gettable   27  27  342  ; "ELITE_ALERT_PERIODIC_MISSION_TAG"
fail op	35
44F7  63C0060D           [0365] close      1  
44FB  1A000480           [0366] jmp        17           ; to [384]
44FF  8E86CF00           [0367] gettable   26  1   318  ; "periodicMissionTag"
4503  D3060000           [0368] getupval   27  0      
4507  CEC6D50D           [0369] gettable   27  27  343  ; "ELITE_ALERT_PERIODIC_MISSION_TAG_ALT"
fail op	35
450B  63C0060D           [0370] close      1  
450F  1AC00280           [0371] jmp        12           ; to [384]
4513  8E06D600           [0372] gettable   26  1   344  ; "faction"
4517  DDC60100           [0373] getglobal  27  7        ; Lotus_Game
451B  CE46D60D           [0374] gettable   27  27  345  ; "FC_SENTIENT"
fail op	35
451F  63C0060D           [0375] close      1  
4523  1A800180           [0376] jmp        7            ; to [384]
4527  A486D600           [0377] self       26  1   346  ; -1659838271
452B  A2860001           [0378] call       26  2   2  
fail op	21
452F  158086AD           [0379] concat     0   347 26 
4533  1A800080           [0380] jmp        3            ; to [384]
4537  A406D700           [0381] self       26  1   348  ; 1915733237
453B  13070002           [0382] getupval   28  4      
453F  A2468001           [0383] call       26  3   1  
4543  8E46D700           [0384] gettable   26  1   349  ; "levelOverride"
fail op	9
4547  C9060006           [0385] settable   27  12  0  
454B  1D870700           [0386] getglobal  28  30       ; Engine
454F  0E87570E           [0387] gettable   28  28  350  ; 140909057
4553  22878000           [0388] call       28  1   2  
4557  0CC786AF           [0389] settable   28  351 27   ; "hostingMultiplayer"
455B  0CC748B0           [0390] settable   28  352 291  ; "migrateServer" 1
455F  4E87C100           [0391] gettable   29  1   262  ; "missionType"
4563  9DC70100           [0392] getglobal  30  7        ; Lotus_Game
4567  8EC7520F           [0393] gettable   30  30  331  ; "MT_LANDSCAPE"
fail op	35
456B  2380870E           [0394] close      0  
456F  1AC00180           [0395] jmp        8            ; to [404]
4573  0C87D8B0           [0396] settable   28  353 354  ; "streamingLayer" 0
4577  53070000           [0397] getupval   29  0      
457B  4E07CD0E           [0398] gettable   29  29  308  ; -1153782542
457F  62878000           [0399] call       29  1   2  
4583  64C7D80E           [0400] self       29  29  355  ; 470954408
4587  CE87CD00           [0401] gettable   31  1   310  ; "location"
458B  1208000E           [0402] move       32  28     
458F  62470002           [0403] call       29  4   1  
4593  98030000           [0404] test       14      0    ; to [406] if true
4597  1A000980           [0405] jmp        37           ; to [443]
459B  5D071900           [0406] getglobal  29  100      ; 2083004503
459F  93078002           [0407] getupval   30  5      
45A3  62870001           [0408] call       29  2   2  
45A7  A447D90E           [0409] self       30  29  357  ; 1296643612
45AB  1D880400           [0410] getglobal  32  18       ; _T
45AF  0E084610           [0411] gettable   32  32  280  ; "gDojoData"
45B3  0E885910           [0412] gettable   32  32  358  ; "Body"
45B7  A2878001           [0413] call       30  3   2  
45BB  9206000F           [0414] move       26  30     
45BF  9D070000           [0415] getglobal  30  0        ; 1074689893
45C3  D207000D           [0416] move       31  26     
45C7  A2870001           [0417] call       30  2   2  
45CB  98070000           [0418] test       30      0    ; to [420] if true
45CF  1A400180           [0419] jmp        6            ; to [426]
45D3  9D070100           [0420] getglobal  30  4        ; -1817107093
45D7  D9C71900           [0421] loadk      31  103      ; "Error constructing Dojo with data retrieved!"
45DB  A2470001           [0422] call       30  2   1  
45DF  8607000F           [0423] loadnil    30  30     
45E3  9E070001           [0424] return     30  2      
45E7  1A802180           [0425] jmp        135          ; to [561]
45EB  A407DA0E           [0426] self       30  29  360  ; 1798106962
45EF  A2870001           [0427] call       30  2   2  
45F3  D9870E00           [0428] loadk      31  58       ; 0
45F7  0A08000F           [0429] len        32  30     
45FB  59880E00           [0430] loadk      33  58       ; 0
45FF  D0870080           [0431] forprep    31  3        ; to [435]
4603  E4485A0E           [0432] self       35  28  361  ; -1926901631
4607  4E89080F           [0433] gettable   37  30  34 
460B  E2488001           [0434] call       35  3   1  
460F  D4C7FE7F           [0435] forloop    31  -4       ; to [432] if loop
4613  DDC80F00           [0436] getglobal  35  63       ; -332969190
4617  1D890400           [0437] getglobal  36  18       ; _T
461B  0E094612           [0438] gettable   36  36  280  ; "gDojoData"
461F  0E895A12           [0439] gettable   36  36  362  ; "GuildId"
4623  E2880001           [0440] call       35  2   2  
4627  4CC0089B           [0441] settable   1   310 35   ; "location"
462B  1A401D80           [0442] jmp        118          ; to [561]
462F  D8030000           [0443] test       15      0    ; to [445] if true
4633  1A400B80           [0444] jmp        46           ; to [491]
4637  DD081900           [0445] getglobal  35  100      ; 2083004503
463B  13090003           [0446] getupval   36  6      
463F  E2880001           [0447] call       35  2   2  
4643  1D090000           [0448] getglobal  36  0        ; 1074689893
4647  5D890400           [0449] getglobal  37  18       ; _T
464B  4EC9DA12           [0450] gettable   37  37  363  ; "gPendingDuel"
464F  22890001           [0451] call       36  2   2  
4653  18090000           [0452] test       36      0    ; to [454] if true
4657  1A400080           [0453] jmp        2            ; to [456]
465B  8606000D           [0454] loadnil    26  26     
465F  1A000380           [0455] jmp        13           ; to [469]
4663  0B090000           [0456] newtable   36  0   0    ; array=0, hash=0
4667  5D890400           [0457] getglobal  37  18       ; _T
466B  4E09DB12           [0458] gettable   37  37  364  ; "DojoMgr"
466F  6449DB12           [0459] self       37  37  365  ; -1923409885
4673  DD890400           [0460] getglobal  39  18       ; _T
4677  CEC9DA13           [0461] gettable   39  39  363  ; "gPendingDuel"
467B  CE89DB13           [0462] gettable   39  39  366  ; "RoomId"
467F  62098001           [0463] call       37  3   0  
4683  1B490000           [0464] setlist    36  0   1    ; index 1 to top
4687  64C9DB11           [0465] self       37  35  367  ; -1596770241
468B  D2090012           [0466] move       39  36     
468F  62898001           [0467] call       37  3   2  
4693  92068012           [0468] move       26  37     
4697  5D090000           [0469] getglobal  37  0        ; 1074689893
469B  9209000D           [0470] move       38  26     
469F  62890001           [0471] call       37  2   2  
46A3  58090000           [0472] test       37      0    ; to [474] if true
46A7  1A400180           [0473] jmp        6            ; to [480]
46AB  5D090100           [0474] getglobal  37  4        ; -1817107093
46AF  99091C00           [0475] loadk      38  112      ; "Error constructing Dojo Duel level!"
46B3  62490001           [0476] call       37  2   1  
46B7  46098012           [0477] loadnil    37  37     
46BB  5E090001           [0478] return     37  2      
46BF  1A001480           [0479] jmp        81           ; to [561]
46C3  6409DA11           [0480] self       37  35  360  ; 1798106962
46C7  62890001           [0481] call       37  2   2  
46CB  99890E00           [0482] loadk      38  58       ; 0
46CF  CA098012           [0483] len        39  37     
46D3  198A0E00           [0484] loadk      40  58       ; 0
46D7  90890080           [0485] forprep    38  3        ; to [489]
46DB  A44A5A0E           [0486] self       42  28  361  ; -1926901631
46DF  0E4B8A12           [0487] gettable   44  37  41 
46E3  A24A8001           [0488] call       42  3   1  
46E7  94C9FE7F           [0489] forloop    38  -4       ; to [486] if loop
46EB  1A401180           [0490] jmp        70           ; to [561]
46EF  18040000           [0491] test       16      0    ; to [493] if true
46F3  1A000A80           [0492] jmp        41           ; to [534]
46F7  9D8A0400           [0493] getglobal  42  18       ; _T
46FB  8E4A5C15           [0494] gettable   42  42  369  ; "ActivatedObstacleCourse"
46FF  8E8A5C15           [0495] gettable   42  42  370  ; "RoomID"
4703  DD4A0500           [0496] getglobal  43  21       ; _G
4707  CC8A8AB9           [0497] settable   43  371 42   ; "obstacleCourseRoomID"
470B  CB0A0000           [0498] newtable   43  0   0    ; array=0, hash=0
470F  1D8B0400           [0499] getglobal  44  18       ; _T
4713  0E0B5B16           [0500] gettable   44  44  364  ; "DojoMgr"
4717  244B5B16           [0501] self       44  44  365  ; -1923409885
471B  920B0015           [0502] move       46  42     
471F  220B8001           [0503] call       44  3   0  
4723  DB4A0000           [0504] setlist    43  0   1    ; index 1 to top
4727  1D0B1900           [0505] getglobal  44  100      ; 2083004503
472B  530B8003           [0506] getupval   45  7      
472F  228B0001           [0507] call       44  2   2  
4733  64CB5B16           [0508] self       45  44  367  ; -1596770241
4737  D20B8015           [0509] move       47  43     
473B  628B8001           [0510] call       45  3   2  
473F  92068016           [0511] move       26  45     
4743  5D0B0000           [0512] getglobal  45  0        ; 1074689893
4747  920B000D           [0513] move       46  26     
474B  628B0001           [0514] call       45  2   2  
474F  580B0000           [0515] test       45      0    ; to [517] if true
4753  1A400180           [0516] jmp        6            ; to [523]
4757  5D0B0100           [0517] getglobal  45  4        ; -1817107093
475B  990B1D00           [0518] loadk      46  116      ; "Error constructing custom obstacle course level!"
475F  624B0001           [0519] call       45  2   1  
4763  460B8016           [0520] loadnil    45  45     
4767  5E0B0001           [0521] return     45  2      
476B  1A400980           [0522] jmp        38           ; to [561]
476F  640B5A16           [0523] self       45  44  360  ; 1798106962
4773  628B0001           [0524] call       45  2   2  
4777  998B0E00           [0525] loadk      46  58       ; 0
477B  CA0B8016           [0526] len        47  45     
477F  198C0E00           [0527] loadk      48  58       ; 0
4783  908B0080           [0528] forprep    46  3        ; to [532]
4787  A44C5A0E           [0529] self       50  28  361  ; -1926901631
478B  0E4D8C16           [0530] gettable   52  45  49 
478F  A24C8001           [0531] call       50  3   1  
4793  94CBFE7F           [0532] forloop    46  -4       ; to [529] if loop
4797  1A800680           [0533] jmp        27           ; to [561]
479B  9D0C0000           [0534] getglobal  50  0        ; 1074689893
479F  DD4C1D00           [0535] getglobal  51  117      ; gGameRules
47A3  A28C0001           [0536] call       50  2   2  
47A7  984C0000           [0537] test       50      1    ; to [539] if false
47AB  1A400580           [0538] jmp        22           ; to [561]
47AF  9D4C1D00           [0539] getglobal  50  117      ; gGameRules
47B3  A48C5D19           [0540] self       50  50  374  ; -1957065004
47B7  1DCD1D00           [0541] getglobal  52  119      ; gLotusAttractModeGameRulesType
47BB  A28C8001           [0542] call       50  3   2  
47BF  980C0000           [0543] test       50      0    ; to [545] if true
47C3  1AC00380           [0544] jmp        16           ; to [561]
47C7  9D4C1D00           [0545] getglobal  50  117      ; gGameRules
47CB  A40C5E19           [0546] self       50  50  376  ; -332373236
47CF  120D000D           [0547] move       52  26     
47D3  520D0000           [0548] move       53  0      
47D7  A28C0002           [0549] call       50  4   2  
47DB  92060019           [0550] move       26  50     
47DF  9D0C0000           [0551] getglobal  50  0        ; 1074689893
47E3  D20C000D           [0552] move       51  26     
47E7  A28C0001           [0553] call       50  2   2  
47EB  980C0000           [0554] test       50      0    ; to [556] if true
47EF  1A000180           [0555] jmp        5            ; to [561]
47F3  9D0C0100           [0556] getglobal  50  4        ; -1817107093
47F7  D94C1E00           [0557] loadk      51  121      ; "Error nil level from GetLevelForMission!"
47FB  A24C0001           [0558] call       50  2   1  
47FF  860C0019           [0559] loadnil    50  50     
4803  9E0C0001           [0560] return     50  2      
4807  9D0C0000           [0561] getglobal  50  0        ; 1074689893
480B  D20C000D           [0562] move       51  26     
480F  A28C0001           [0563] call       50  2   2  
4813  980C0000           [0564] test       50      0    ; to [566] if true
4817  1A000180           [0565] jmp        5            ; to [571]
481B  9D0C0100           [0566] getglobal  50  4        ; -1817107093
481F  D98C1E00           [0567] loadk      51  122      ; "Error nil level from missionInfo.levelOverride!"
4823  A24C0001           [0568] call       50  2   1  
4827  860C0019           [0569] loadnil    50  50     
482B  9E0C0001           [0570] return     50  2      
482F  A4CC5E0E           [0571] self       50  28  379  ; -378851698
4833  240D5F0D           [0572] self       52  26  380  ; 455421500
4837  220D0001           [0573] call       52  2   0  
483B  A24C0000           [0574] call       50  0   1  
483F  A44CDF00           [0575] self       50  1   381  ; 582088778
4843  A28C0001           [0576] call       50  2   2  
4847  DD0C0100           [0577] getglobal  51  4        ; -1817107093
484B  198D1F00           [0578] loadk      52  126      ; "Host loading level with MissionInfo: \n"
484F  520D0019           [0579] move       53  50     
4853  024D0D1A           [0580] concat     52  52  53 
4857  E24C0001           [0581] call       51  2   1  
485B  E4CC5F0E           [0582] self       51  28  383  ; 39912447
485F  520D0019           [0583] move       53  50     
4863  E24C8001           [0584] call       51  3   1  
4867  98030000           [0585] test       14      0    ; to [587] if true
486B  1A801180           [0586] jmp        71           ; to [658]
486F  DD0C2000           [0587] getglobal  51  128      ; cjson
4873  CE4CE019           [0588] gettable   51  51  385  ; -1976663275
4877  1D8D0400           [0589] getglobal  52  18       ; _T
487B  0E0D461A           [0590] gettable   52  52  280  ; "gDojoData"
487F  0E8D591A           [0591] gettable   52  52  358  ; "Body"
4883  E28C0001           [0592] call       51  2   2  
4887  24CD5F0E           [0593] self       52  28  383  ; 39912447
488B  9D8D0400           [0594] getglobal  54  18       ; _T
488F  8E0D461B           [0595] gettable   54  54  280  ; "gDojoData"
4893  8E8D5A1B           [0596] gettable   54  54  362  ; "GuildId"
4897  224D8001           [0597] call       52  3   1  
489B  24CD5F0E           [0598] self       52  28  383  ; 39912447
489F  8E8DE019           [0599] gettable   54  51  386  ; "Name"
48A3  224D8001           [0600] call       52  3   1  
48A7  24CD5F0E           [0601] self       52  28  383  ; 39912447
48AB  9D8D0400           [0602] getglobal  54  18       ; _T
48AF  8E0D461B           [0603] gettable   54  54  280  ; "gDojoData"
48B3  8ECD601B           [0604] gettable   54  54  387  ; "AllianceId"
48B7  224D8001           [0605] call       52  3   1  
48BB  0E0DE119           [0606] gettable   52  51  388  ; "TradeTax"
fail op	35
48BF  63C0401A           [0607] close      1  
48C3  1A400180           [0608] jmp        6            ; to [615]
48C7  24CD5F0E           [0609] self       52  28  383  ; 39912447
48CB  9D8D0000           [0610] getglobal  54  2        ; -1615931716
48CF  CE0DE119           [0611] gettable   55  51  388  ; "TradeTax"
48D3  A20D0001           [0612] call       54  2   0  
48D7  224D0000           [0613] call       52  0   1  
48DB  1A800080           [0614] jmp        3            ; to [618]
48DF  24CD5F0E           [0615] self       52  28  383  ; 39912447
48E3  994D2100           [0616] loadk      54  133      ; "0"
48E7  224D8001           [0617] call       52  3   1  
48EB  0E8DE119           [0618] gettable   52  51  390  ; "Class"
fail op	35
48EF  63C0401A           [0619] close      1  
48F3  1A400180           [0620] jmp        6            ; to [627]
48F7  24CD5F0E           [0621] self       52  28  383  ; 39912447
48FB  9D8D0000           [0622] getglobal  54  2        ; -1615931716
48FF  CE8DE119           [0623] gettable   55  51  390  ; "Class"
4903  A20D0001           [0624] call       54  2   0  
4907  224D0000           [0625] call       52  0   1  
490B  1A800080           [0626] jmp        3            ; to [630]
490F  24CD5F0E           [0627] self       52  28  383  ; 39912447
4913  994D2100           [0628] loadk      54  133      ; "0"
4917  224D8001           [0629] call       52  3   1  
491B  0ECDE119           [0630] gettable   52  51  391  ; "NumContributors"
fail op	35
491F  63C0401A           [0631] close      1  
4923  1A000180           [0632] jmp        5            ; to [638]
4927  24CD5F0E           [0633] self       52  28  383  ; 39912447
492B  9D8D0000           [0634] getglobal  54  2        ; -1615931716
492F  CECDE119           [0635] gettable   55  51  391  ; "NumContributors"
4933  A20D0001           [0636] call       54  2   0  
4937  224D0000           [0637] call       52  0   1  
493B  0E0DE219           [0638] gettable   52  51  392  ; "CeremonyResetDate"
fail op	35
493F  63C0401A           [0639] close      1  
4943  1A801280           [0640] jmp        75           ; to [716]
4947  0E0DE219           [0641] gettable   52  51  392  ; "CeremonyResetDate"
494B  0E4D621A           [0642] gettable   52  52  393  ; "$date"
494F  0E8D621A           [0643] gettable   52  52  394  ; "$numberLong"
4953  5D4D0200           [0644] getglobal  53  9        ; string
4957  4ECDE21A           [0645] gettable   53  53  395  ; 2071470131
495B  920D001A           [0646] move       54  52     
495F  D98D0E00           [0647] loadk      55  58       ; 0
4963  1D4E0200           [0648] getglobal  56  9        ; string
4967  0E0E631C           [0649] gettable   56  56  396  ; -965268854
496B  520E001A           [0650] move       57  52     
496F  228E0001           [0651] call       56  2   2  
4973  0D4E631C           [0652] sub        56  56  397  ; 0
4977  628D0002           [0653] call       53  4   2  
497B  A4CD5F0E           [0654] self       54  28  383  ; 39912447
497F  120E801A           [0655] move       56  53     
4983  A24D8001           [0656] call       54  3   1  
4987  1A400E80           [0657] jmp        58           ; to [716]
498B  D8030000           [0658] test       15      0    ; to [660] if true
498F  1A000580           [0659] jmp        21           ; to [681]
4993  A4CD5F0E           [0660] self       54  28  383  ; 39912447
4997  1D4E1D00           [0661] getglobal  56  117      ; gGameRules
499B  248E631C           [0662] self       56  56  398  ; 360266085
499F  220E0001           [0663] call       56  2   0  
49A3  A24D0000           [0664] call       54  0   1  
49A7  A4CD5F0E           [0665] self       54  28  383  ; 39912447
49AB  1D4E1D00           [0666] getglobal  56  117      ; gGameRules
49AF  24CE631C           [0667] self       56  56  399  ; 1830250344
49B3  220E0001           [0668] call       56  2   0  
49B7  A24D0000           [0669] call       54  0   1  
49BB  A4CD5F0E           [0670] self       54  28  383  ; 39912447
49BF  1D4E1D00           [0671] getglobal  56  117      ; gGameRules
49C3  240E641C           [0672] self       56  56  400  ; 2040103689
49C7  220E0001           [0673] call       56  2   0  
49CB  A24D0000           [0674] call       54  0   1  
49CF  A4CD5F0E           [0675] self       54  28  383  ; 39912447
49D3  1D8E0400           [0676] getglobal  56  18       ; _T
49D7  0ECE5A1C           [0677] gettable   56  56  363  ; "gPendingDuel"
49DB  0E8E5B1C           [0678] gettable   56  56  366  ; "RoomId"
49DF  A24D8001           [0679] call       54  3   1  
49E3  1A800880           [0680] jmp        35           ; to [716]
49E7  18040000           [0681] test       16      0    ; to [683] if true
49EB  1A000880           [0682] jmp        33           ; to [716]
49EF  9D8D0400           [0683] getglobal  54  18       ; _T
49F3  8E4D5C1B           [0684] gettable   54  54  369  ; "ActivatedObstacleCourse"
49F7  8E8D5C1B           [0685] gettable   54  54  370  ; "RoomID"
49FB  DD4D0500           [0686] getglobal  55  21       ; _G
49FF  CC8D8DB9           [0687] settable   55  371 54   ; "obstacleCourseRoomID"
4A03  E4CD5F0E           [0688] self       55  28  383  ; 39912447
4A07  5D4E1D00           [0689] getglobal  57  117      ; gGameRules
4A0B  648EE31C           [0690] self       57  57  398  ; 360266085
4A0F  620E0001           [0691] call       57  2   0  
4A13  E24D0000           [0692] call       55  0   1  
4A17  E4CD5F0E           [0693] self       55  28  383  ; 39912447
4A1B  5D4E1D00           [0694] getglobal  57  117      ; gGameRules
4A1F  64CEE31C           [0695] self       57  57  399  ; 1830250344
4A23  620E0001           [0696] call       57  2   0  
4A27  E24D0000           [0697] call       55  0   1  
4A2B  E4CD5F0E           [0698] self       55  28  383  ; 39912447
4A2F  5D4E1D00           [0699] getglobal  57  117      ; gGameRules
4A33  640EE41C           [0700] self       57  57  400  ; 2040103689
4A37  620E0001           [0701] call       57  2   0  
4A3B  E24D0000           [0702] call       55  0   1  
4A3F  E4CD5F0E           [0703] self       55  28  383  ; 39912447
4A43  5D8E0400           [0704] getglobal  57  18       ; _T
4A47  4E4EDC1C           [0705] gettable   57  57  369  ; "ActivatedObstacleCourse"
4A4B  4E8EDC1C           [0706] gettable   57  57  370  ; "RoomID"
4A4F  E24D8001           [0707] call       55  3   1  
4A53  DD8D0000           [0708] getglobal  55  2        ; -1615931716
4A57  1D8E0400           [0709] getglobal  56  18       ; _T
4A5B  0E4E5C1C           [0710] gettable   56  56  369  ; "ActivatedObstacleCourse"
4A5F  0E4E641C           [0711] gettable   56  56  401  ; "courseMode"
4A63  E28D0001           [0712] call       55  2   2  
4A67  24CE5F0E           [0713] self       56  28  383  ; 39912447
4A6B  920E801B           [0714] move       58  55     
4A6F  224E8001           [0715] call       56  3   1  
4A73  1D0E0000           [0716] getglobal  56  0        ; 1074689893
4A77  4E8EE400           [0717] gettable   57  1   402  ; "loadingScreenOverride"
4A7B  228E0001           [0718] call       56  2   2  
4A7F  184E0000           [0719] test       56      1    ; to [721] if false
4A83  1A000180           [0720] jmp        5            ; to [726]
4A87  24CE640E           [0721] self       56  28  403  ; -470446665
4A8B  8E8EE400           [0722] gettable   58  1   402  ; "loadingScreenOverride"
4A8F  A40E5F1D           [0723] self       58  58  380  ; 455421500
4A93  A20E0001           [0724] call       58  2   0  
4A97  224E0000           [0725] call       56  0   1  
4A9B  D8000000           [0726] test       3       0    ; to [728] if true
4A9F  1A400080           [0727] jmp        2            ; to [730]
4AA3  0C0701CA           [0728] settable   28  404 4    ; "gameRules"
4AA7  1AC00080           [0729] jmp        4            ; to [734]
4AAB  58020000           [0730] test       9       0    ; to [732] if true
4AAF  1A400080           [0731] jmp        2            ; to [734]
4AB3  130E0004           [0732] getupval   56  8      
4AB7  0C078ECA           [0733] settable   28  405 56   ; "teamId"
fail op	35
4ABB  63C0C005           [0734] close      1  
4ABF  1AC00680           [0735] jmp        28           ; to [764]
4AC3  98430000           [0736] test       14      1    ; to [738] if false
4AC7  1A400680           [0737] jmp        26           ; to [764]
4ACB  1D4E1D00           [0738] getglobal  56  117      ; gGameRules
4ACF  248E5D1C           [0739] self       56  56  374  ; -1957065004
4AD3  9DCE1D00           [0740] getglobal  58  119      ; gLotusAttractModeGameRulesType
4AD7  228E8001           [0741] call       56  3   2  
4ADB  184E0000           [0742] test       56      1    ; to [744] if false
4ADF  1A400180           [0743] jmp        6            ; to [750]
4AE3  1D4E1D00           [0744] getglobal  56  117      ; gGameRules
4AE7  248E5D1C           [0745] self       56  56  374  ; -1957065004
4AEB  9D8E2500           [0746] getglobal  58  150      ; gLotusHubGameRulesType
4AEF  228E8001           [0747] call       56  3   2  
4AF3  180E0000           [0748] test       56      0    ; to [750] if true
4AF7  1A400380           [0749] jmp        14           ; to [764]
4AFB  0C4701CA           [0750] settable   28  404 5    ; "gameRules"
4AFF  0CC7C8CB           [0751] settable   28  407 291  ; "loadToLobby" 1
4B03  0CC748CC           [0752] settable   28  408 291  ; "isLobby" 1
4B07  1D4E1D00           [0753] getglobal  56  117      ; gGameRules
4B0B  244E661C           [0754] self       56  56  409  ; -1043011175
4B0F  228E0001           [0755] call       56  2   2  
4B13  598E0E00           [0756] loadk      57  58       ; 0
4B17  8A0E001C           [0757] len        58  56     
4B1B  D98E0E00           [0758] loadk      59  58       ; 0
4B1F  508E0080           [0759] forprep    57  3        ; to [763]
4B23  644F5A0E           [0760] self       61  28  361  ; -1926901631
4B27  CE0F0F1C           [0761] gettable   63  56  60 
4B2B  624F8001           [0762] call       61  3   1  
4B2F  54CEFE7F           [0763] forloop    57  -4       ; to [760] if loop
4B33  5D0F0000           [0764] getglobal  61  0        ; 1074689893
4B37  8E0F650E           [0765] gettable   62  28  404  ; "gameRules"
4B3B  628F0001           [0766] call       61  2   2  
4B3F  580F0000           [0767] test       61      0    ; to [769] if true
4B43  1A400080           [0768] jmp        2            ; to [771]
4B47  4E0FE500           [0769] gettable   61  1   404  ; "gameRules"
4B4B  0C470FCA           [0770] settable   28  404 61   ; "gameRules"
4B4F  530F8004           [0771] getupval   61  9      
fail op	35
4B53  23400F01           [0772] close      0  
4B57  1AC01880           [0773] jmp        100          ; to [874]
4B5B  5D8F2600           [0774] getglobal  61  154      ; gGameData
4B5F  64CFE61E           [0775] self       61  61  411  ; 1865287165
4B63  628F0001           [0776] call       61  2   2  
4B67  A40FE71E           [0777] self       62  61  412  ; 1516752192
4B6B  1DD00100           [0778] getglobal  64  7        ; Lotus_Game
4B6F  0E506720           [0779] gettable   64  64  413  ; "LOT_NORMAL"
4B73  6490E71E           [0780] self       65  61  414  ; 1094587633
4B77  DDD00100           [0781] getglobal  67  7        ; Lotus_Game
4B7B  CE50E721           [0782] gettable   67  67  413  ; "LOT_NORMAL"
4B7F  62108001           [0783] call       65  3   0  
4B83  A28F0000           [0784] call       62  0   2  
4B87  E4CF671F           [0785] self       63  62  415  ; -1540973124
4B8B  E28F0001           [0786] call       63  2   2  
4B8F  2410681F           [0787] self       64  62  416  ; -1474540701
4B93  9DD00100           [0788] getglobal  66  7        ; Lotus_Game
4B97  8E506821           [0789] gettable   66  66  417  ; "SUIT_SLOT"
4B9B  22908001           [0790] call       64  3   2  
4B9F  4E906820           [0791] gettable   65  64  418  ; "mItemId"
4BA3  A410681F           [0792] self       66  62  416  ; -1474540701
4BA7  1DD10100           [0793] getglobal  68  7        ; Lotus_Game
4BAB  0ED16822           [0794] gettable   68  68  419  ; "MELEE_SLOT"
4BAF  A2908001           [0795] call       66  3   2  
4BB3  CE906821           [0796] gettable   67  66  418  ; "mItemId"
4BB7  2411E91E           [0797] self       68  61  420  ; -744042907
4BBB  22910001           [0798] call       68  2   2  
4BBF  6451E91E           [0799] self       69  61  421  ; -1473626832
4BC3  62910001           [0800] call       69  2   2  
4BC7  99910E00           [0801] loadk      70  58       ; 0
4BCB  CA110022           [0802] len        71  68     
4BCF  19920E00           [0803] loadk      72  58       ; 0
4BD3  90110580           [0804] forprep    70  21       ; to [826]
4BD7  8E521222           [0805] gettable   74  68  73 
4BDB  CE926925           [0806] gettable   75  74  422  ; "mItemType"
4BDF  13130005           [0807] getupval   76  10     
fail op	35
4BE3  23009325           [0808] close      0  
4BE7  1AC00380           [0809] jmp        16           ; to [826]
4BEB  CE926825           [0810] gettable   75  74  418  ; "mItemId"
4BEF  CED2E925           [0811] gettable   75  75  423  ; "mId"
4BF3  0ED3E920           [0812] gettable   76  65  423  ; "mId"
fail op	35
4BF7  63009325           [0813] close      1  
4BFB  1AC00280           [0814] jmp        12           ; to [827]
4BFF  DDD20100           [0815] getglobal  75  7        ; Lotus_Game
4C03  CE12EA25           [0816] gettable   75  75  424  ; -544723374
4C07  E2928000           [0817] call       75  1   2  
4C0B  0E936825           [0818] gettable   76  74  418  ; "mItemId"
4C0F  CC1213D1           [0819] settable   75  418 76   ; "mItemId"
4C13  24536A1F           [0820] self       76  62  425  ; 1723761275
4C17  9DD30100           [0821] getglobal  78  7        ; Lotus_Game
4C1B  8E536827           [0822] gettable   78  78  417  ; "SUIT_SLOT"
4C1F  D2138025           [0823] move       79  75     
4C23  22530002           [0824] call       76  4   1  
4C27  1A000080           [0825] jmp        1            ; to [827]
4C2B  9451FA7F           [0826] forloop    70  -22      ; to [805] if loop
4C2F  19930E00           [0827] loadk      76  58       ; 0
4C33  4A138022           [0828] len        77  69     
4C37  99930E00           [0829] loadk      78  58       ; 0
4C3B  10130580           [0830] forprep    76  21       ; to [852]
4C3F  0ED49322           [0831] gettable   80  69  79 
4C43  4E946928           [0832] gettable   81  80  422  ; "mItemType"
4C47  93148005           [0833] getupval   82  11     
fail op	35
4C4B  23809428           [0834] close      0  
4C4F  1AC00380           [0835] jmp        16           ; to [852]
4C53  4E946828           [0836] gettable   81  80  418  ; "mItemId"
4C57  4ED4E928           [0837] gettable   81  81  423  ; "mId"
4C5B  8ED4E921           [0838] gettable   82  67  423  ; "mId"
fail op	35
4C5F  63809428           [0839] close      1  
4C63  1AC00280           [0840] jmp        12           ; to [853]
4C67  5DD40100           [0841] getglobal  81  7        ; Lotus_Game
4C6B  4E14EA28           [0842] gettable   81  81  424  ; -544723374
4C6F  62948000           [0843] call       81  1   2  
4C73  8E946828           [0844] gettable   82  80  418  ; "mItemId"
4C77  4C9414D1           [0845] settable   81  418 82   ; "mItemId"
4C7B  A4546A1F           [0846] self       82  62  425  ; 1723761275
4C7F  1DD50100           [0847] getglobal  84  7        ; Lotus_Game
4C83  0ED5682A           [0848] gettable   84  84  419  ; "MELEE_SLOT"
4C87  52158028           [0849] move       85  81     
4C8B  A2540002           [0850] call       82  4   1  
4C8F  1A000080           [0851] jmp        1            ; to [853]
4C93  1453FA7F           [0852] forloop    76  -22      ; to [831] if loop
4C97  A494EA1E           [0853] self       82  61  426  ; 1851169770
4C9B  1DD50100           [0854] getglobal  84  7        ; Lotus_Game
4C9F  0E55672A           [0855] gettable   84  84  413  ; "LOT_NORMAL"
4CA3  5215001F           [0856] move       85  62     
4CA7  97150000           [0857] loadbool   86  0   0    ; false
4CAB  A2548002           [0858] call       82  5   1  
4CAF  9D942600           [0859] getglobal  82  154      ; gGameData
4CB3  A4D46A29           [0860] self       82  82  427  ; 1776726008
4CB7  1DD50100           [0861] getglobal  84  7        ; Lotus_Game
4CBB  0E55672A           [0862] gettable   84  84  413  ; "LOT_NORMAL"
4CBF  5215001F           [0863] move       85  62     
4CC3  97158000           [0864] loadbool   86  1   0    ; true
4CC7  D7150000           [0865] loadbool   87  0   0    ; false
4CCB  17160000           [0866] loadbool   88  0   0    ; false
4CCF  A2548003           [0867] call       82  7   1  
4CD3  A494EA1E           [0868] self       82  61  426  ; 1851169770
4CD7  1DD50100           [0869] getglobal  84  7        ; Lotus_Game
4CDB  0E55672A           [0870] gettable   84  84  413  ; "LOT_NORMAL"
4CDF  5215801F           [0871] move       85  63     
4CE3  97150000           [0872] loadbool   86  0   0    ; false
4CE7  A2548002           [0873] call       82  5   1  
4CEB  8E94C100           [0874] gettable   82  1   262  ; "missionType"
4CEF  DDD40100           [0875] getglobal  83  7        ; Lotus_Game
4CF3  CE14EB29           [0876] gettable   83  83  428  ; "MT_PVP"
fail op	35
4CF7  63C01429           [0877] close      1  
4CFB  1A400080           [0878] jmp        2            ; to [881]
fail op	5
4CFF  85140005           [0879] getglobal  82  5120     ; nil
4D03  1A400180           [0880] jmp        6            ; to [887]
4D07  D8430000           [0881] test       15      1    ; to [883] if false
4D0B  1A400080           [0882] jmp        2            ; to [885]
fail op	9
4D0F  89148006           [0883] settable   82  13  0  
4D13  1A400080           [0884] jmp        2            ; to [887]
4D17  97540000           [0885] loadbool   82  0   1    ; false, to [887]
4D1B  97148000           [0886] loadbool   82  1   0    ; true
4D1F  D3140006           [0887] getupval   83  12     
4D23  1215000E           [0888] move       84  28     
4D27  52150029           [0889] move       85  82     
4D2B  8E95D200           [0890] gettable   86  1   330  ; "archwingRequired"
4D2F  E2540002           [0891] call       83  4   1  
4D33  D3148006           [0892] getupval   83  13     
4D37  1215000E           [0893] move       84  28     
4D3B  52158000           [0894] move       85  1      
4D3F  92150001           [0895] move       86  2      
4D43  E2540002           [0896] call       83  4   1  
4D47  D8030000           [0897] test       15      0    ; to [899] if true
4D4B  1A800D80           [0898] jmp        55           ; to [954]
4D4F  DD140000           [0899] getglobal  83  0        ; 1074689893
4D53  1D950400           [0900] getglobal  84  18       ; _T
4D57  0ED55A2A           [0901] gettable   84  84  363  ; "gPendingDuel"
4D5B  0E556B2A           [0902] gettable   84  84  429  ; "OpponentId"
4D5F  E2940001           [0903] call       83  2   2  
4D63  D8540000           [0904] test       83      1    ; to [906] if false
4D67  1AC00B80           [0905] jmp        48           ; to [954]
4D6B  DD541D00           [0906] getglobal  83  117      ; gGameRules
4D6F  E494EB29           [0907] self       83  83  430  ; 696851230
4D73  5D950400           [0908] getglobal  85  18       ; _T
4D77  4ED5DA2A           [0909] gettable   85  85  363  ; "gPendingDuel"
4D7B  4E55EB2A           [0910] gettable   85  85  429  ; "OpponentId"
4D7F  E2948001           [0911] call       83  3   2  
4D83  19150A00           [0912] loadk      84  40       ; 0
4D87  5DD50100           [0913] getglobal  85  7        ; Lotus_Game
4D8B  4ED5EB2A           [0914] gettable   85  85  431  ; "MAX_LoadOutSlot"
4D8F  4D95CE2A           [0915] sub        85  85  314  ; 0
4D93  99950E00           [0916] loadk      86  58       ; 0
4D97  10950880           [0917] forprep    84  35       ; to [953]
4D9B  2416EC29           [0918] self       88  83  432  ; 1644212373
4D9F  9DD60100           [0919] getglobal  90  7        ; Lotus_Game
4DA3  8E56672D           [0920] gettable   90  90  413  ; "LOT_NORMAL"
4DA7  D216802B           [0921] move       91  87     
4DAB  22960002           [0922] call       88  4   2  
4DAF  5D160000           [0923] getglobal  89  0        ; 1074689893
4DB3  9216002C           [0924] move       90  88     
4DB7  62960001           [0925] call       89  2   2  
4DBB  58560000           [0926] test       89      1    ; to [928] if false
4DBF  1A000680           [0927] jmp        25           ; to [953]
4DC3  5D160000           [0928] getglobal  89  0        ; 1074689893
4DC7  8E96692C           [0929] gettable   90  88  422  ; "mItemType"
4DCB  62960001           [0930] call       89  2   2  
4DCF  58560000           [0931] test       89      1    ; to [933] if false
4DD3  1AC00480           [0932] jmp        20           ; to [953]
4DD7  53160007           [0933] getupval   89  14     
4DDB  9216000E           [0934] move       90  28     
4DDF  CE96692C           [0935] gettable   91  88  422  ; "mItemType"
4DE3  62568001           [0936] call       89  3   1  
4DE7  5D160000           [0937] getglobal  89  0        ; 1074689893
4DEB  8E566C2C           [0938] gettable   90  88  433  ; "mWeaponUpgrades"
4DEF  62960001           [0939] call       89  2   2  
4DF3  58560000           [0940] test       89      1    ; to [942] if false
4DF7  1A800280           [0941] jmp        11           ; to [953]
4DFB  59960E00           [0942] loadk      89  58       ; 0
4DFF  8E566C2C           [0943] gettable   90  88  433  ; "mWeaponUpgrades"
4E03  8A16002D           [0944] len        90  90     
4E07  D9960E00           [0945] loadk      91  58       ; 0
4E0B  50160180           [0946] forprep    89  5        ; to [952]
4E0F  53170007           [0947] getupval   93  14     
4E13  9217000E           [0948] move       94  28     
4E17  CE576C2C           [0949] gettable   95  88  433  ; "mWeaponUpgrades"
4E1B  CE17972F           [0950] gettable   95  95  92 
4E1F  62578001           [0951] call       93  3   1  
4E23  5456FE7F           [0952] forloop    89  -6       ; to [947] if loop
4E27  14D5F67F           [0953] forloop    84  -36      ; to [918] if loop
4E2B  5D570200           [0954] getglobal  93  9        ; string
4E2F  4E97C22E           [0955] gettable   93  93  266  ; -565905820
4E33  9D970400           [0956] getglobal  94  18       ; _T
4E37  8ED7442F           [0957] gettable   94  94  275  ; "gSelectedNodeName"
4E3B  D3170000           [0958] getupval   95  0      
4E3F  CE97EC2F           [0959] gettable   95  95  434  ; "ACTIVE_MISSION_TAG"
4E43  62978001           [0960] call       93  3   2  
4E47  58170000           [0961] test       93      0    ; to [963] if true
4E4B  1A400D80           [0962] jmp        54           ; to [1017]
4E4F  9D570200           [0963] getglobal  94  9        ; string
4E53  8ED7622F           [0964] gettable   94  94  395  ; 2071470131
4E57  DD970400           [0965] getglobal  95  18       ; _T
4E5B  CED7C42F           [0966] gettable   95  95  275  ; "gSelectedNodeName"
4E5F  19980E00           [0967] loadk      96  58       ; 0
4E63  4D98CE2E           [0968] sub        97  93  314  ; 0
4E67  A2970002           [0969] call       94  4   2  
4E6B  C6170030           [0970] loadnil    95  96     
4E6F  5D980400           [0971] getglobal  97  18       ; _T
4E73  4ED8EC30           [0972] gettable   97  97  435  ; "CachedActiveMissions"
4E77  4E989730           [0973] gettable   97  97  94 
4E7B  58180000           [0974] test       97      0    ; to [976] if true
4E7F  1AC00280           [0975] jmp        12           ; to [988]
4E83  5D980400           [0976] getglobal  97  18       ; _T
4E87  4ED8EC30           [0977] gettable   97  97  435  ; "CachedActiveMissions"
4E8B  4E989730           [0978] gettable   97  97  94 
4E8F  4E18ED30           [0979] gettable   97  97  436  ; "mCustomEnemies"
4E93  6458ED30           [0980] self       97  97  437  ; 1891965785
4E97  62980001           [0981] call       97  2   2  
4E9B  D2178030           [0982] move       95  97     
4E9F  5D980400           [0983] getglobal  97  18       ; _T
4EA3  4ED8EC30           [0984] gettable   97  97  435  ; "CachedActiveMissions"
4EA7  4E989730           [0985] gettable   97  97  94 
4EAB  0E98ED30           [0986] gettable   96  97  438  ; "mLevelObjects"
4EAF  1AC00280           [0987] jmp        12           ; to [1000]
4EB3  5D180100           [0988] getglobal  97  4        ; -1817107093
4EB7  99D82D00           [0989] loadk      98  183      ; "GetMissionOpenLevelArgs: Active mission expired! Using default enemySpec"
4EBB  62580001           [0990] call       97  2   1  
4EBF  5D980400           [0991] getglobal  97  18       ; _T
4EC3  4E18EE30           [0992] gettable   97  97  440  ; "VoidTearDefaultEnemySpec"
4EC7  58180000           [0993] test       97      0    ; to [995] if true
4ECB  1A000180           [0994] jmp        5            ; to [1000]
4ECF  5D980400           [0995] getglobal  97  18       ; _T
4ED3  4E18EE30           [0996] gettable   97  97  440  ; "VoidTearDefaultEnemySpec"
4ED7  6458ED30           [0997] self       97  97  437  ; 1891965785
4EDB  62980001           [0998] call       97  2   2  
4EDF  D2178030           [0999] move       95  97     
4EE3  18180000           [1000] test       96      0    ; to [1002] if true
4EE7  1A000280           [1001] jmp        9            ; to [1011]
4EEB  5D582E00           [1002] getglobal  97  185      ; 248503575
4EEF  92180030           [1003] move       98  96     
4EF3  62180101           [1004] call       97  2   4  
4EF7  1A800080           [1005] jmp        3            ; to [1009]
4EFB  A4595A0E           [1006] self       102 28  361  ; -1926901631
4EFF  121A8032           [1007] move       104 101    
4F03  A2598001           [1008] call       102 3   1  
4F07  56980000           [1009] tforloop   97      2    ; to [1011] if exit
4F0B  1A80FE7F           [1010] jmp        -5           ; to [1006]
4F0F  D8170000           [1011] test       95      0    ; to [1013] if true
4F13  1AC00080           [1012] jmp        4            ; to [1017]
4F17  93198007           [1013] getupval   102 15     
4F1B  D219802F           [1014] move       103 95     
4F1F  121A000E           [1015] move       104 28     
4F23  A2598001           [1016] call       102 3   1  
4F27  8E99EE00           [1017] gettable   102 1   442  ; "goalTag"
4F2B  D3190000           [1018] getupval   103 0      
4F2F  CED9EE33           [1019] gettable   103 103 443  ; "KUVA_TOWER_GOAL_TAG"
fail op	35
4F33  23C01933           [1020] close      0  
4F37  1A800280           [1021] jmp        11           ; to [1033]
4F3B  9D190000           [1022] getglobal  102 0        ; 1074689893
4F3F  D3190008           [1023] getupval   103 16     
4F43  A2990001           [1024] call       102 2   2  
4F47  98590000           [1025] test       102     1    ; to [1027] if false
4F4B  1A400180           [1026] jmp        6            ; to [1033]
4F4F  93198007           [1027] getupval   102 15     
4F53  D3190008           [1028] getupval   103 16     
4F57  E459ED33           [1029] self       103 103 437  ; 1891965785
4F5B  E2990001           [1030] call       103 2   2  
4F5F  121A000E           [1031] move       104 28     
4F63  A2598001           [1032] call       102 3   1  
4F67  9D190000           [1033] getglobal  102 0        ; 1074689893
4F6B  D219800A           [1034] move       103 21     
4F6F  A2990001           [1035] call       102 2   2  
4F73  98590000           [1036] test       102     1    ; to [1038] if false
4F77  1AC00880           [1037] jmp        36           ; to [1074]
4F7B  A459D10A           [1038] self       102 21  325  ; 755731078
4F7F  A2990001           [1039] call       102 2   2  
4F83  DD192F00           [1040] getglobal  103 188      ; 1672515847
4F87  0E5A6F33           [1041] gettable   104 102 445  ; "mGoals"
4F8B  E2190101           [1042] call       103 2   4  
4F8F  1AC00680           [1043] jmp        28           ; to [1072]
4F93  0E9BEF35           [1044] gettable   108 107 446  ; "mFaction"
4F97  5D5B0000           [1045] getglobal  109 1        ; EMPTY_SYMBOL
fail op	35
4F9B  63401B36           [1046] close      1  
4F9F  1AC00080           [1047] jmp        4            ; to [1052]
4FA3  0E9BEF35           [1048] gettable   108 107 446  ; "mFaction"
4FA7  4E1BD600           [1049] gettable   109 1   344  ; "faction"
fail op	35
4FAB  23401B36           [1050] close      0  
4FAF  1AC00480           [1051] jmp        20           ; to [1072]
4FB3  1D9B0700           [1052] getglobal  108 30       ; Engine
4FB7  0EDB6F36           [1053] gettable   108 108 447  ; -794986224
4FBB  4E1BF035           [1054] gettable   109 107 448  ; "mActivation"
4FBF  229B0001           [1055] call       108 2   2  
fail op	21
4FC3  15004A36           [1056] concat     0   108 296
4FC7  1A400380           [1057] jmp        14           ; to [1072]
4FCB  1D9B0700           [1058] getglobal  108 30       ; Engine
4FCF  0EDB6F36           [1059] gettable   108 108 447  ; -794986224
4FD3  4E5BF035           [1060] gettable   109 107 449  ; "mExpiry"
4FD7  229B0001           [1061] call       108 2   2  
fail op	21
4FDB  15001B94           [1062] concat     0   296 108
4FDF  1AC00180           [1063] jmp        8            ; to [1072]
4FE3  1D1B0000           [1064] getglobal  108 0        ; 1074689893
4FE7  4E9BF035           [1065] gettable   109 107 450  ; "mRoamingVIP"
4FEB  229B0001           [1066] call       108 2   2  
4FEF  185B0000           [1067] test       108     1    ; to [1069] if false
4FF3  1A800080           [1068] jmp        3            ; to [1072]
4FF7  245B5A0E           [1069] self       108 28  361  ; -1926901631
4FFB  8E9BF035           [1070] gettable   110 107 450  ; "mRoamingVIP"
4FFF  225B8001           [1071] call       108 3   1  
5003  D6990000           [1072] tforloop   103     2    ; to [1074] if exit
5007  1A40F87F           [1073] jmp        -30          ; to [1044]
500B  24DB700E           [1074] self       108 28  451  ; 265771605
500F  A41BF100           [1075] self       110 1   452  ; 1340129923
5013  A21B0001           [1076] call       110 2   0  
5017  225B0000           [1077] call       108 0   1  
501B  131B0000           [1078] getupval   108 0      
501F  0E5B7136           [1079] gettable   108 108 453  ; 1300753914
5023  521B8000           [1080] move       109 1      
5027  22DB0001           [1081] call       108 2   3  
502B  181B0000           [1082] test       108     0    ; to [1084] if true
502F  1A800380           [1083] jmp        15           ; to [1099]
5033  9D9B3100           [1084] getglobal  110 198      ; gGameConfig
5037  A4DB7137           [1085] self       110 110 455  ; 44834797
503B  A29B0001           [1086] call       110 2   2  
503F  E45B5A0E           [1087] self       111 28  361  ; -1926901631
5043  4E1C7237           [1088] gettable   113 110 456  ; "enhancement"
5047  E25B8001           [1089] call       111 3   1  
504B  E45B5A0E           [1090] self       111 28  361  ; -1926901631
504F  4E5C7237           [1091] gettable   113 110 457  ; "item"
5053  E25B8001           [1092] call       111 3   1  
5057  E45B5A0E           [1093] self       111 28  361  ; -1926901631
505B  4E9C7237           [1094] gettable   113 110 458  ; "enemyMarkerType"
505F  E25B8001           [1095] call       111 3   1  
5063  E45B5A0E           [1096] self       111 28  361  ; -1926901631
5067  4EDC7237           [1097] gettable   113 110 459  ; "enemySpawnTransmission"
506B  E25B8001           [1098] call       111 3   1  
506F  58430000           [1099] test       13      1    ; to [1101] if false
5073  1A400180           [1100] jmp        6            ; to [1107]
5077  D31B8008           [1101] getupval   111 17     
507B  E29B8000           [1102] call       111 1   2  
507F  D81B0000           [1103] test       111     0    ; to [1105] if true
5083  1A400080           [1104] jmp        2            ; to [1107]
5087  0CC748E6           [1105] settable   28  460 291  ; "chooseBestHost" 1
508B  1A000080           [1106] jmp        1            ; to [1108]
508F  0C4773E6           [1107] settable   28  460 461  ; "chooseBestHost" 0
5093  0CC706E7           [1108] settable   28  462 27   ; "loadFromLobby"
5097  0C4783E7           [1109] settable   28  463 13   ; "isAutonomous"
509B  DD1B0100           [1110] getglobal  111 4        ; -1817107093
509F  191C3400           [1111] loadk      112 208      ; "Lobby::Host_StartMatch: launching level for "
50A3  5D9C0400           [1112] getglobal  113 18       ; _T
50A7  4EDCC438           [1113] gettable   113 113 275  ; "gSelectedNodeName"
50AB  995C3400           [1114] loadk      114 209      ; " ("
50AF  E41C5F0D           [1115] self       115 26  380  ; 455421500
50B3  E29C0001           [1116] call       115 2   2  
50B7  199D3400           [1117] loadk      116 210      ; ")"
50BB  021C1D38           [1118] concat     112 112 116
50BF  E25B0001           [1119] call       111 2   1  
50C3  CE9BC100           [1120] gettable   111 1   262  ; "missionType"
50C7  1DDC0100           [1121] getglobal  112 7        ; Lotus_Game
50CB  0EDC5238           [1122] gettable   112 112 331  ; "MT_LANDSCAPE"
fail op	35
50CF  23009C37           [1123] close      0  
50D3  1A800780           [1124] jmp        31           ; to [1156]
50D7  DD1B0100           [1125] getglobal  111 4        ; -1817107093
50DB  19DC3400           [1126] loadk      112 211      ; "ContextObjects:"
50DF  E25B0001           [1127] call       111 2   1  
50E3  CE1B750E           [1128] gettable   111 28  468  ; "contextObjects"
50E7  199C0E00           [1129] loadk      112 58       ; 0
50EB  4A1C8037           [1130] len        113 111    
50EF  999C0E00           [1131] loadk      114 58       ; 0
50F3  105C0580           [1132] forprep    112 22       ; to [1155]
50F7  1D1D0000           [1133] getglobal  116 0        ; 1074689893
50FB  4EDD9C37           [1134] gettable   117 111 115
50FF  229D0001           [1135] call       116 2   2  
5103  181D0000           [1136] test       116     0    ; to [1138] if true
5107  1AC00180           [1137] jmp        8            ; to [1146]
510B  1D5D3500           [1138] getglobal  116 213      ; 317968122
510F  571D0000           [1139] loadbool   117 0   0    ; false
5113  999D3500           [1140] loadk      118 214      ; "null context object at index "
5117  D21D8039           [1141] move       119 115    
511B  19DE3500           [1142] loadk      120 215      ; "! Check for broken types referenced by mission info enemySpec etc"
511F  821D1E3B           [1143] concat     118 118 120
5123  225D8001           [1144] call       116 3   1  
5127  1A000280           [1145] jmp        9            ; to [1155]
512B  1D1D0100           [1146] getglobal  116 4        ; -1817107093
512F  591D3600           [1147] loadk      117 216      ; "    "
5133  9D9D0000           [1148] getglobal  118 2        ; -1615931716
5137  CEDD9C37           [1149] gettable   119 111 115
513B  E41DDF3B           [1150] self       119 119 380  ; 455421500
513F  E21D0001           [1151] call       119 2   0  
5143  A29D0000           [1152] call       118 0   2  
5147  429D9D3A           [1153] concat     117 117 118
514B  225D0001           [1154] call       116 2   1  
514F  141CFA7F           [1155] forloop    112 -23      ; to [1133] if loop
5153  1E070001           [1156] return     28  2      
5157  1E008000           [1157] return     0   1      
                         * constants:
515C  01                 sizek (217)
515D  01                 const type 3
515E  65770E40           const [0]: (1074689893)
5162  04                 const type 4
5163  0D                 string size (13)
5164  454D5054595F5359+  "EMPTY_SY"
516C  4D424F4C00         "MBOL\0"
                         const [1]: "EMPTY_SYMBOL"
5171  01                 const type 3
5172  BCD6AE9F           const [2]: (-1615931716)
5176  00                 const type 0
                         const [3]: nil
5177  01                 const type 3
5178  6B25B193           const [4]: (-1817107093)
517C  04                 const type 4
517D  3C                 string size (60)
517E  4C6F7475734E6574+  "LotusNet"
5186  776F726B5574696C+  "workUtil"
518E  69746965733A486F+  "ities:Ho"
5196  73745F4C6F61644D+  "st_LoadM"
519E  697373696F6E2C20+  "ission, "
51A6  6D697373696F6E49+  "missionI"
51AE  6E666F206973206E+  "nfo is n"
51B6  756C6C00           "ull\0"
                         const [5]: "LotusNetworkUtilities:Host_LoadMission, missionInfo is null"
51BA  04                 const type 4
51BB  0C                 string size (12)
51BC  6D697373696F6E54+  "missionT"
51C4  79706500           "ype\0"
                         const [6]: "missionType"
51C8  04                 const type 4
51C9  0B                 string size (11)
51CA  4C6F7475735F4761+  "Lotus_Ga"
51D2  6D6500             "me\0"
                         const [7]: "Lotus_Game"
51D5  04                 const type 4
51D6  0A                 string size (10)
51D7  4D545F534543544F+  "MT_SECTO"
51DF  5200               "R\0"
                         const [8]: "MT_SECTOR"
51E1  04                 const type 4
51E2  07                 string size (7)
51E3  737472696E6700     "string\0"
                         const [9]: "string"
51EA  01                 const type 3
51EB  64F644DE           const [10]: (-565905820)
51EF  04                 const type 4
51F0  15                 string size (21)
51F1  4241444C414E445F+  "BADLAND_"
51F9  41545441434B4552+  "ATTACKER"
5201  5F54414700         "_TAG\0"
                         const [11]: "BADLAND_ATTACKER_TAG"
5206  04                 const type 4
5207  15                 string size (21)
5208  4241444C414E445F+  "BADLAND_"
5210  444546454E444552+  "DEFENDER"
5218  5F54414700         "_TAG\0"
                         const [12]: "BADLAND_DEFENDER_TAG"
521D  04                 const type 4
521E  11                 string size (17)
521F  674D61746368696E+  "gMatchin"
5227  6753657276696365+  "gService"
522F  00                 "\0"
                         const [13]: "gMatchingService"
5230  01                 const type 3
5231  4636E0D5           const [14]: (-706726330)
5235  01                 const type 3
5236  32F0110B           const [15]: (185724978)
523A  04                 const type 4
523B  28                 string size (40)
523C  2F4C6F7475732F4C+  "/Lotus/L"
5244  616E67756167652F+  "anguage/"
524C  4D656E752F4F6E6C+  "Menu/Onl"
5254  696E654D6F646552+  "ineModeR"
525C  6571756972656400   "equired\0"
                         const [16]: "/Lotus/Language/Menu/OnlineModeRequired"
5264  04                 const type 4
5265  1A                 string size (26)
5266  436F6E6669726D4C+  "ConfirmL"
526E  61756E6368466169+  "aunchFai"
5276  6C757265506F7075+  "lurePopu"
527E  7000               "p\0"
                         const [17]: "ConfirmLaunchFailurePopup"
5280  04                 const type 4
5281  03                 string size (3)
5282  5F5400             "_T\0"
                         const [18]: "_T"
5285  04                 const type 4
5286  12                 string size (18)
5287  6753656C65637465+  "gSelecte"
528F  644E6F64654E616D+  "dNodeNam"
5297  6500               "e\0"
                         const [19]: "gSelectedNodeName"
5299  01                 const type 3
529A  D2A3C75E           const [20]: (1590141906)
529E  04                 const type 4
529F  03                 string size (3)
52A0  5F4700             "_G\0"
                         const [21]: "_G"
52A3  04                 const type 4
52A4  08                 string size (8)
52A5  4855425F54414700   "HUB_TAG\0"
                         const [22]: "HUB_TAG"
52AD  04                 const type 4
52AE  09                 string size (9)
52AF  736F6C6F4D6F6465+  "soloMode"
52B7  00                 "\0"
                         const [23]: "soloMode"
52B8  04                 const type 4
52B9  0A                 string size (10)
52BA  67446F6A6F446174+  "gDojoDat"
52C2  6100               "a\0"
                         const [24]: "gDojoData"
52C4  04                 const type 4
52C5  07                 string size (7)
52C6  526573756C7400     "Result\0"
                         const [25]: "Result"
52CD  04                 const type 4
52CE  09                 string size (9)
52CF  446F6A6F4475656C+  "DojoDuel"
52D7  00                 "\0"
                         const [26]: "DojoDuel"
52D8  04                 const type 4
52D9  19                 string size (25)
52DA  446F6A6F43757374+  "DojoCust"
52E2  6F6D4F6273746163+  "omObstac"
52EA  6C65436F75727365+  "leCourse"
52F2  00                 "\0"
                         const [27]: "DojoCustomObstacleCourse"
52F3  01                 const type 3
52F4  BE453FEB           const [28]: (-348174914)
52F8  04                 const type 4
52F9  09                 string size (9)
52FA  726567696F6E4964+  "regionId"
5302  00                 "\0"
                         const [29]: "regionId"
5303  04                 const type 4
5304  07                 string size (7)
5305  456E67696E6500     "Engine\0"
                         const [30]: "Engine"
530C  04                 const type 4
530D  07                 string size (7)
530E  4C4F434B454400     "LOCKED\0"
                         const [31]: "LOCKED"
5315  01                 const type 3
5316  F77FA7A6           const [32]: (-1498972169)
531A  04                 const type 4
531B  18                 string size (24)
531C  4F6E557064617465+  "OnUpdate"
5324  53657373696F6E53+  "SessionS"
532C  657474696E677300   "ettings\0"
                         const [33]: "OnUpdateSessionSettings"
5334  01                 const type 3
5335  A22217F8           const [34]: (-132701534)
5339  01                 const type 3
533A  01000000           const [35]: (1)
533E  04                 const type 4
533F  13                 string size (19)
5340  6D6178506C617965+  "maxPlaye"
5348  72734F7665727269+  "rsOverri"
5350  646500             "de\0"
                         const [36]: "maxPlayersOverride"
5353  04                 const type 4
5354  2E                 string size (46)
5355  2F4C6F7475732F4C+  "/Lotus/L"
535D  616E67756167652F+  "anguage/"
5365  4D656E752F4D756C+  "Menu/Mul"
536D  7469706C61796572+  "tiplayer"
5375  5F4661696C656454+  "_FailedT"
537D  6F486F737400       "oHost\0"
                         const [37]: "/Lotus/Language/Menu/Multiplayer_FailedToHost"
5383  04                 const type 4
5384  12                 string size (18)
5385  67506C6179657250+  "gPlayerP"
538D  726F66696C654D67+  "rofileMg"
5395  7200               "r\0"
                         const [38]: "gPlayerProfileMgr"
5397  01                 const type 3
5398  1A7BEF21           const [39]: (569342746)
539C  03                 const type 3
539D  00000000           const [40]: (0)
53A1  01                 const type 3
53A2  92104F65           const [41]: (1699680402)
53A6  01                 const type 3
53A7  2F93E5E4           const [42]: (-454716625)
53AB  01                 const type 3
53AC  6628FA9F           const [43]: (-1610995610)
53B0  01                 const type 3
53B1  5C5F0E75           const [44]: (1963876188)
53B5  04                 const type 4
53B6  30                 string size (48)
53B7  5F4765744D697373+  "_GetMiss"
53BF  696F6E4F70656E4C+  "ionOpenL"
53C7  6576656C41726773+  "evelArgs"
53CF  3A20706C61796572+  ": player"
53D7  50726F66696C6520+  "Profile "
53DF  6973206E756C6C00   "is null\0"
                         const [45]: "_GetMissionOpenLevelArgs: playerProfile is null"
53E7  04                 const type 4
53E8  0E                 string size (14)
53E9  674B657943686169+  "gKeyChai"
53F1  6E5573656400       "nUsed\0"
                         const [46]: "gKeyChainUsed"
53F7  04                 const type 4
53F8  10                 string size (16)
53F9  6C6576656C4B6579+  "levelKey"
5401  4F776E6572496400   "OwnerId\0"
                         const [47]: "levelKeyOwnerId"
5409  04                 const type 4
540A  01                 string size (0)
                         const [48]: ""
540C  01                 const type 3
540D  365643F2           const [49]: (-230468042)
5411  04                 const type 4
5412  0E                 string size (14)
5413  4E494748544D4152+  "NIGHTMAR"
541B  455F54414700       "E_TAG\0"
                         const [50]: "NIGHTMARE_TAG"
5421  04                 const type 4
5422  08                 string size (8)
5423  4D545F5241494400   "MT_RAID\0"
                         const [51]: "MT_RAID"
542B  01                 const type 3
542C  F2AC3ABB           const [52]: (-1153782542)
5430  01                 const type 3
5431  E13C21DF           const [53]: (-551469855)
5435  04                 const type 4
5436  09                 string size (9)
5437  6C6F636174696F6E+  "location"
543F  00                 "\0"
                         const [54]: "location"
5440  04                 const type 4
5441  05                 string size (5)
5442  7365656400         "seed\0"
                         const [55]: "seed"
5447  04                 const type 4
5448  08                 string size (8)
5449  6D697373696F6E00   "mission\0"
                         const [56]: "mission"
5451  04                 const type 4
5452  0B                 string size (11)
5453  646966666963756C+  "difficul"
545B  747900             "ty\0"
                         const [57]: "difficulty"
545E  03                 const type 3
545F  0000803F           const [58]: (0)
5463  04                 const type 4
5464  0E                 string size (14)
5465  6D696E456E656D79+  "minEnemy"
546D  4C6576656C00       "Level\0"
                         const [59]: "minEnemyLevel"
5473  03                 const type 3
5474  00002041           const [60]: (0)
5478  04                 const type 4
5479  0E                 string size (14)
547A  6D6178456E656D79+  "maxEnemy"
5482  4C6576656C00       "Level\0"
                         const [61]: "maxEnemyLevel"
5488  04                 const type 4
5489  13                 string size (19)
548A  706572696F646963+  "periodic"
5492  4D697373696F6E54+  "MissionT"
549A  616700             "ag\0"
                         const [62]: "periodicMissionTag"
549D  01                 const type 3
549E  1A4B27EC           const [63]: (-332969190)
54A2  04                 const type 4
54A3  10                 string size (16)
54A4  4E696768746D6172+  "Nightmar"
54AC  65526567696F6E00   "eRegion\0"
                         const [64]: "NightmareRegion"
54B4  04                 const type 4
54B5  07                 string size (7)
54B6  726567696F6E00     "region\0"
                         const [65]: "region"
54BD  04                 const type 4
54BE  18                 string size (24)
54BF  706572696F646963+  "periodic"
54C7  4D697373696F6E43+  "MissionC"
54CF  6F6F6C646F776E00   "ooldown\0"
                         const [66]: "periodicMissionCooldown"
54D7  04                 const type 4
54D8  1B                 string size (27)
54D9  4E494748544D4152+  "NIGHTMAR"
54E1  455F4D495353494F+  "E_MISSIO"
54E9  4E5F494E54455256+  "N_INTERV"
54F1  414C00             "AL\0"
                         const [67]: "NIGHTMARE_MISSION_INTERVAL"
54F4  01                 const type 3
54F5  41B28E5B           const [68]: (1536078401)
54F9  01                 const type 3
54FA  868A0B2D           const [69]: (755731078)
54FE  04                 const type 4
54FF  0C                 string size (12)
5500  6D536561736F6E49+  "mSeasonI"
5508  6E666F00           "nfo\0"
                         const [70]: "mSeasonInfo"
550C  04                 const type 4
550D  08                 string size (8)
550E  6D536561736F6E00   "mSeason\0"
                         const [71]: "mSeason"
5516  03                 const type 3
5517  00000040           const [72]: (0)
551B  04                 const type 4
551C  07                 string size (7)
551D  6D506861736500     "mPhase\0"
                         const [73]: "mPhase"
5524  04                 const type 4
5525  11                 string size (17)
5526  6172636877696E67+  "archwing"
552E  5265717569726564+  "Required"
5536  00                 "\0"
                         const [74]: "archwingRequired"
5537  04                 const type 4
5538  0D                 string size (13)
5539  4D545F4C414E4453+  "MT_LANDS"
5541  4341504500         "CAPE\0"
                         const [75]: "MT_LANDSCAPE"
5546  04                 const type 4
5547  09                 string size (9)
5548  4D545F4152454E41+  "MT_ARENA"
5550  00                 "\0"
                         const [76]: "MT_ARENA"
5551  04                 const type 4
5552  11                 string size (17)
5553  4D545F4153534153+  "MT_ASSAS"
555B  53494E4154494F4E+  "SINATION"
5563  00                 "\0"
                         const [77]: "MT_ASSASSINATION"
5564  04                 const type 4
5565  0B                 string size (11)
5566  4D545F47454E4552+  "MT_GENER"
556E  494300             "IC\0"
                         const [78]: "MT_GENERIC"
5571  03                 const type 3
5572  0000A040           const [79]: (0)
5576  04                 const type 4
5577  0E                 string size (14)
5578  636F6E636C617665+  "conclave"
5580  52616E676500       "Range\0"
                         const [80]: "conclaveRange"
5586  04                 const type 4
5587  09                 string size (9)
5588  6D617856616C7565+  "maxValue"
5590  00                 "\0"
                         const [81]: "maxValue"
5591  04                 const type 4
5592  07                 string size (7)
5593  676F616C496400     "goalId\0"
                         const [82]: "goalId"
559A  04                 const type 4
559B  09                 string size (9)
559C  736F727469654964+  "sortieId"
55A4  00                 "\0"
                         const [83]: "sortieId"
55A5  04                 const type 4
55A6  0D                 string size (13)
55A7  6B6579436861696E+  "keyChain"
55AF  4E616D6500         "Name\0"
                         const [84]: "keyChainName"
55B4  04                 const type 4
55B5  0A                 string size (10)
55B6  4576656E744E6F64+  "EventNod"
55BE  6500               "e\0"
                         const [85]: "EventNode"
55C0  04                 const type 4
55C1  21                 string size (33)
55C2  454C4954455F414C+  "ELITE_AL"
55CA  4552545F50455249+  "ERT_PERI"
55D2  4F4449435F4D4953+  "ODIC_MIS"
55DA  53494F4E5F544147+  "SION_TAG"
55E2  00                 "\0"
                         const [86]: "ELITE_ALERT_PERIODIC_MISSION_TAG"
55E3  04                 const type 4
55E4  25                 string size (37)
55E5  454C4954455F414C+  "ELITE_AL"
55ED  4552545F50455249+  "ERT_PERI"
55F5  4F4449435F4D4953+  "ODIC_MIS"
55FD  53494F4E5F544147+  "SION_TAG"
5605  5F414C5400         "_ALT\0"
                         const [87]: "ELITE_ALERT_PERIODIC_MISSION_TAG_ALT"
560A  04                 const type 4
560B  08                 string size (8)
560C  66616374696F6E00   "faction\0"
                         const [88]: "faction"
5614  04                 const type 4
5615  0C                 string size (12)
5616  46435F53454E5449+  "FC_SENTI"
561E  454E5400           "ENT\0"
                         const [89]: "FC_SENTIENT"
5622  01                 const type 3
5623  C1E0109D           const [90]: (-1659838271)
5627  03                 const type 3
5628  00008040           const [91]: (0)
562C  01                 const type 3
562D  F5C42F72           const [92]: (1915733237)
5631  04                 const type 4
5632  0E                 string size (14)
5633  6C6576656C4F7665+  "levelOve"
563B  727269646500       "rride\0"
                         const [93]: "levelOverride"
5641  01                 const type 3
5642  011A6608           const [94]: (140909057)
5646  04                 const type 4
5647  13                 string size (19)
5648  686F7374696E674D+  "hostingM"
5650  756C7469706C6179+  "ultiplay"
5658  657200             "er\0"
                         const [95]: "hostingMultiplayer"
565B  04                 const type 4
565C  0E                 string size (14)
565D  6D69677261746553+  "migrateS"
5665  657276657200       "erver\0"
                         const [96]: "migrateServer"
566B  04                 const type 4
566C  0F                 string size (15)
566D  73747265616D696E+  "streamin"
5675  674C6179657200     "gLayer\0"
                         const [97]: "streamingLayer"
567C  03                 const type 3
567D  00007F43           const [98]: (0)
5681  01                 const type 3
5682  A831121C           const [99]: (470954408)
5686  01                 const type 3
5687  5720287C           const [100]: (2083004503)
568B  01                 const type 3
568C  1C36494D           const [101]: (1296643612)
5690  04                 const type 4
5691  05                 string size (5)
5692  426F647900         "Body\0"
                         const [102]: "Body"
5697  04                 const type 4
5698  2D                 string size (45)
5699  4572726F7220636F+  "Error co"
56A1  6E73747275637469+  "nstructi"
56A9  6E6720446F6A6F20+  "ng Dojo "
56B1  7769746820646174+  "with dat"
56B9  6120726574726965+  "a retrie"
56C1  7665642100         "ved!\0"
                         const [103]: "Error constructing Dojo with data retrieved!"
56C6  01                 const type 3
56C7  52EF2C6B           const [104]: (1798106962)
56CB  01                 const type 3
56CC  81D0258D           const [105]: (-1926901631)
56D0  04                 const type 4
56D1  08                 string size (8)
56D2  4775696C64496400   "GuildId\0"
                         const [106]: "GuildId"
56DA  04                 const type 4
56DB  0D                 string size (13)
56DC  6750656E64696E67+  "gPending"
56E4  4475656C00         "Duel\0"
                         const [107]: "gPendingDuel"
56E9  04                 const type 4
56EA  08                 string size (8)
56EB  446F6A6F4D677200   "DojoMgr\0"
                         const [108]: "DojoMgr"
56F3  01                 const type 3
56F4  23185B8D           const [109]: (-1923409885)
56F8  04                 const type 4
56F9  07                 string size (7)
56FA  526F6F6D496400     "RoomId\0"
                         const [110]: "RoomId"
5701  01                 const type 3
5702  3F38D3A0           const [111]: (-1596770241)
5706  04                 const type 4
5707  24                 string size (36)
5708  4572726F7220636F+  "Error co"
5710  6E73747275637469+  "nstructi"
5718  6E6720446F6A6F20+  "ng Dojo "
5720  4475656C206C6576+  "Duel lev"
5728  656C2100           "el!\0"
                         const [112]: "Error constructing Dojo Duel level!"
572C  04                 const type 4
572D  18                 string size (24)
572E  4163746976617465+  "Activate"
5736  644F62737461636C+  "dObstacl"
573E  65436F7572736500   "eCourse\0"
                         const [113]: "ActivatedObstacleCourse"
5746  04                 const type 4
5747  07                 string size (7)
5748  526F6F6D494400     "RoomID\0"
                         const [114]: "RoomID"
574F  04                 const type 4
5750  15                 string size (21)
5751  6F62737461636C65+  "obstacle"
5759  436F75727365526F+  "CourseRo"
5761  6F6D494400         "omID\0"
                         const [115]: "obstacleCourseRoomID"
5766  04                 const type 4
5767  31                 string size (49)
5768  4572726F7220636F+  "Error co"
5770  6E73747275637469+  "nstructi"
5778  6E6720637573746F+  "ng custo"
5780  6D206F6273746163+  "m obstac"
5788  6C6520636F757273+  "le cours"
5790  65206C6576656C21+  "e level!"
5798  00                 "\0"
                         const [116]: "Error constructing custom obstacle course level!"
5799  04                 const type 4
579A  0B                 string size (11)
579B  6747616D6552756C+  "gGameRul"
57A3  657300             "es\0"
                         const [117]: "gGameRules"
57A6  01                 const type 3
57A7  D48E598B           const [118]: (-1957065004)
57AB  04                 const type 4
57AC  1F                 string size (31)
57AD  674C6F7475734174+  "gLotusAt"
57B5  74726163744D6F64+  "tractMod"
57BD  6547616D6552756C+  "eGameRul"
57C5  65735479706500     "esType\0"
                         const [119]: "gLotusAttractModeGameRulesType"
57CC  01                 const type 3
57CD  0C6330EC           const [120]: (-332373236)
57D1  04                 const type 4
57D2  29                 string size (41)
57D3  4572726F72206E69+  "Error ni"
57DB  6C206C6576656C20+  "l level "
57E3  66726F6D20476574+  "from Get"
57EB  4C6576656C466F72+  "LevelFor"
57F3  4D697373696F6E21+  "Mission!"
57FB  00                 "\0"
                         const [121]: "Error nil level from GetLevelForMission!"
57FC  04                 const type 4
57FD  30                 string size (48)
57FE  4572726F72206E69+  "Error ni"
5806  6C206C6576656C20+  "l level "
580E  66726F6D206D6973+  "from mis"
5816  73696F6E496E666F+  "sionInfo"
581E  2E6C6576656C4F76+  ".levelOv"
5826  6572726964652100   "erride!\0"
                         const [122]: "Error nil level from missionInfo.levelOverride!"
582E  01                 const type 3
582F  8E2E6BE9           const [123]: (-378851698)
5833  01                 const type 3
5834  3C2E251B           const [124]: (455421500)
5838  01                 const type 3
5839  4AF8B122           const [125]: (582088778)
583D  04                 const type 4
583E  27                 string size (39)
583F  486F7374206C6F61+  "Host loa"
5847  64696E67206C6576+  "ding lev"
584F  656C207769746820+  "el with "
5857  4D697373696F6E49+  "MissionI"
585F  6E666F3A200A00     "nfo: \n\0"
                         const [126]: "Host loading level with MissionInfo: \n"
5866  01                 const type 3
5867  FF036102           const [127]: (39912447)
586B  04                 const type 4
586C  06                 string size (6)
586D  636A736F6E00       "cjson\0"
                         const [128]: "cjson"
5873  01                 const type 3
5874  15832E8A           const [129]: (-1976663275)
5878  04                 const type 4
5879  05                 string size (5)
587A  4E616D6500         "Name\0"
                         const [130]: "Name"
587F  04                 const type 4
5880  0B                 string size (11)
5881  416C6C69616E6365+  "Alliance"
5889  496400             "Id\0"
                         const [131]: "AllianceId"
588C  04                 const type 4
588D  09                 string size (9)
588E  5472616465546178+  "TradeTax"
5896  00                 "\0"
                         const [132]: "TradeTax"
5897  04                 const type 4
5898  02                 string size (2)
5899  3000               "0\0"
                         const [133]: "0"
589B  04                 const type 4
589C  06                 string size (6)
589D  436C61737300       "Class\0"
                         const [134]: "Class"
58A3  04                 const type 4
58A4  10                 string size (16)
58A5  4E756D436F6E7472+  "NumContr"
58AD  696275746F727300   "ibutors\0"
                         const [135]: "NumContributors"
58B5  04                 const type 4
58B6  12                 string size (18)
58B7  436572656D6F6E79+  "Ceremony"
58BF  5265736574446174+  "ResetDat"
58C7  6500               "e\0"
                         const [136]: "CeremonyResetDate"
58C9  04                 const type 4
58CA  06                 string size (6)
58CB  246461746500       "$date\0"
                         const [137]: "$date"
58D1  04                 const type 4
58D2  0C                 string size (12)
58D3  246E756D6265724C+  "$numberL"
58DB  6F6E6700           "ong\0"
                         const [138]: "$numberLong"
58DF  01                 const type 3
58E0  3320787B           const [139]: (2071470131)
58E4  01                 const type 3
58E5  8A2A77C6           const [140]: (-965268854)
58E9  03                 const type 3
58EA  00004040           const [141]: (0)
58EE  01                 const type 3
58EF  65397915           const [142]: (360266085)
58F3  01                 const type 3
58F4  6867176D           const [143]: (1830250344)
58F8  01                 const type 3
58F9  09839979           const [144]: (2040103689)
58FD  04                 const type 4
58FE  0B                 string size (11)
58FF  636F757273654D6F+  "courseMo"
5907  646500             "de\0"
                         const [145]: "courseMode"
590A  04                 const type 4
590B  16                 string size (22)
590C  6C6F6164696E6753+  "loadingS"
5914  637265656E4F7665+  "creenOve"
591C  727269646500       "rride\0"
                         const [146]: "loadingScreenOverride"
5922  01                 const type 3
5923  B78DF5E3           const [147]: (-470446665)
5927  04                 const type 4
5928  0A                 string size (10)
5929  67616D6552756C65+  "gameRule"
5931  7300               "s\0"
                         const [148]: "gameRules"
5933  04                 const type 4
5934  07                 string size (7)
5935  7465616D496400     "teamId\0"
                         const [149]: "teamId"
593C  04                 const type 4
593D  17                 string size (23)
593E  674C6F7475734875+  "gLotusHu"
5946  6247616D6552756C+  "bGameRul"
594E  65735479706500     "esType\0"
                         const [150]: "gLotusHubGameRulesType"
5955  04                 const type 4
5956  0C                 string size (12)
5957  6C6F6164546F4C6F+  "loadToLo"
595F  62627900           "bby\0"
                         const [151]: "loadToLobby"
5963  04                 const type 4
5964  08                 string size (8)
5965  69734C6F62627900   "isLobby\0"
                         const [152]: "isLobby"
596D  01                 const type 3
596E  99E9D4C1           const [153]: (-1043011175)
5972  04                 const type 4
5973  0A                 string size (10)
5974  6747616D65446174+  "gGameDat"
597C  6100               "a\0"
                         const [154]: "gGameData"
597E  01                 const type 3
597F  FD052E6F           const [155]: (1865287165)
5983  01                 const type 3
5984  40CD675A           const [156]: (1516752192)
5988  04                 const type 4
5989  0B                 string size (11)
598A  4C4F545F4E4F524D+  "LOT_NORM"
5992  414C00             "AL\0"
                         const [157]: "LOT_NORMAL"
5995  01                 const type 3
5996  F1143E41           const [158]: (1094587633)
599A  01                 const type 3
599B  BC9D26A4           const [159]: (-1540973124)
599F  01                 const type 3
59A0  634B1CA8           const [160]: (-1474540701)
59A4  04                 const type 4
59A5  0A                 string size (10)
59A6  535549545F534C4F+  "SUIT_SLO"
59AE  5400               "T\0"
                         const [161]: "SUIT_SLOT"
59B0  04                 const type 4
59B1  08                 string size (8)
59B2  6D4974656D496400   "mItemId\0"
                         const [162]: "mItemId"
59BA  04                 const type 4
59BB  0B                 string size (11)
59BC  4D454C45455F534C+  "MELEE_SL"
59C4  4F5400             "OT\0"
                         const [163]: "MELEE_SLOT"
59C7  01                 const type 3
59C8  65CEA6D3           const [164]: (-744042907)
59CC  01                 const type 3
59CD  303D2AA8           const [165]: (-1473626832)
59D1  04                 const type 4
59D2  0A                 string size (10)
59D3  6D4974656D547970+  "mItemTyp"
59DB  6500               "e\0"
                         const [166]: "mItemType"
59DD  04                 const type 4
59DE  04                 string size (4)
59DF  6D496400           "mId\0"
                         const [167]: "mId"
59E3  01                 const type 3
59E4  522E88DF           const [168]: (-544723374)
59E8  01                 const type 3
59E9  7B82BE66           const [169]: (1723761275)
59ED  01                 const type 3
59EE  EA9B566E           const [170]: (1851169770)
59F2  01                 const type 3
59F3  F8AFE669           const [171]: (1776726008)
59F7  04                 const type 4
59F8  07                 string size (7)
59F9  4D545F50565000     "MT_PVP\0"
                         const [172]: "MT_PVP"
5A00  04                 const type 4
5A01  0B                 string size (11)
5A02  4F70706F6E656E74+  "Opponent"
5A0A  496400             "Id\0"
                         const [173]: "OpponentId"
5A0D  01                 const type 3
5A0E  1E1B8929           const [174]: (696851230)
5A12  04                 const type 4
5A13  10                 string size (16)
5A14  4D41585F4C6F6164+  "MAX_Load"
5A1C  4F7574536C6F7400   "OutSlot\0"
                         const [175]: "MAX_LoadOutSlot"
5A24  01                 const type 3
5A25  95B00062           const [176]: (1644212373)
5A29  04                 const type 4
5A2A  10                 string size (16)
5A2B  6D576561706F6E55+  "mWeaponU"
5A33  7067726164657300   "pgrades\0"
                         const [177]: "mWeaponUpgrades"
5A3B  04                 const type 4
5A3C  13                 string size (19)
5A3D  4143544956455F4D+  "ACTIVE_M"
5A45  495353494F4E5F54+  "ISSION_T"
5A4D  414700             "AG\0"
                         const [178]: "ACTIVE_MISSION_TAG"
5A50  04                 const type 4
5A51  15                 string size (21)
5A52  4361636865644163+  "CachedAc"
5A5A  746976654D697373+  "tiveMiss"
5A62  696F6E7300         "ions\0"
                         const [179]: "CachedActiveMissions"
5A67  04                 const type 4
5A68  0F                 string size (15)
5A69  6D437573746F6D45+  "mCustomE"
5A71  6E656D69657300     "nemies\0"
                         const [180]: "mCustomEnemies"
5A78  01                 const type 3
5A79  591BC570           const [181]: (1891965785)
5A7D  04                 const type 4
5A7E  0E                 string size (14)
5A7F  6D4C6576656C4F62+  "mLevelOb"
5A87  6A6563747300       "jects\0"
                         const [182]: "mLevelObjects"
5A8D  04                 const type 4
5A8E  49                 string size (73)
5A8F  4765744D69737369+  "GetMissi"
5A97  6F6E4F70656E4C65+  "onOpenLe"
5A9F  76656C417267733A+  "velArgs:"
5AA7  2041637469766520+  " Active "
5AAF  6D697373696F6E20+  "mission "
5AB7  6578706972656421+  "expired!"
5ABF  205573696E672064+  " Using d"
5AC7  656661756C742065+  "efault e"
5ACF  6E656D7953706563+  "nemySpec"
5AD7  00                 "\0"
                         const [183]: "GetMissionOpenLevelArgs: Active mission expired! Using default enemySpec"
5AD8  04                 const type 4
5AD9  19                 string size (25)
5ADA  566F696454656172+  "VoidTear"
5AE2  44656661756C7445+  "DefaultE"
5AEA  6E656D7953706563+  "nemySpec"
5AF2  00                 "\0"
                         const [184]: "VoidTearDefaultEnemySpec"
5AF3  01                 const type 3
5AF4  17DDCF0E           const [185]: (248503575)
5AF8  04                 const type 4
5AF9  08                 string size (8)
5AFA  676F616C54616700   "goalTag\0"
                         const [186]: "goalTag"
5B02  04                 const type 4
5B03  14                 string size (20)
5B04  4B5556415F544F57+  "KUVA_TOW"
5B0C  45525F474F414C5F+  "ER_GOAL_"
5B14  54414700           "TAG\0"
                         const [187]: "KUVA_TOWER_GOAL_TAG"
5B18  01                 const type 3
5B19  0791B063           const [188]: (1672515847)
5B1D  04                 const type 4
5B1E  07                 string size (7)
5B1F  6D476F616C7300     "mGoals\0"
                         const [189]: "mGoals"
5B26  04                 const type 4
5B27  09                 string size (9)
5B28  6D46616374696F6E+  "mFaction"
5B30  00                 "\0"
                         const [190]: "mFaction"
5B31  01                 const type 3
5B32  10799DD0           const [191]: (-794986224)
5B36  04                 const type 4
5B37  0C                 string size (12)
5B38  6D41637469766174+  "mActivat"
5B40  696F6E00           "ion\0"
                         const [192]: "mActivation"
5B44  04                 const type 4
5B45  08                 string size (8)
5B46  6D45787069727900   "mExpiry\0"
                         const [193]: "mExpiry"
5B4E  04                 const type 4
5B4F  0C                 string size (12)
5B50  6D526F616D696E67+  "mRoaming"
5B58  56495000           "VIP\0"
                         const [194]: "mRoamingVIP"
5B5C  01                 const type 3
5B5D  555AD70F           const [195]: (265771605)
5B61  01                 const type 3
5B62  83C2E04F           const [196]: (1340129923)
5B66  01                 const type 3
5B67  FAED874D           const [197]: (1300753914)
5B6B  04                 const type 4
5B6C  0C                 string size (12)
5B6D  6747616D65436F6E+  "gGameCon"
5B75  66696700           "fig\0"
                         const [198]: "gGameConfig"
5B79  01                 const type 3
5B7A  ED1FAC02           const [199]: (44834797)
5B7E  04                 const type 4
5B7F  0C                 string size (12)
5B80  656E68616E63656D+  "enhancem"
5B88  656E7400           "ent\0"
                         const [200]: "enhancement"
5B8C  04                 const type 4
5B8D  05                 string size (5)
5B8E  6974656D00         "item\0"
                         const [201]: "item"
5B93  04                 const type 4
5B94  10                 string size (16)
5B95  656E656D794D6172+  "enemyMar"
5B9D  6B65725479706500   "kerType\0"
                         const [202]: "enemyMarkerType"
5BA5  04                 const type 4
5BA6  17                 string size (23)
5BA7  656E656D79537061+  "enemySpa"
5BAF  776E5472616E736D+  "wnTransm"
5BB7  697373696F6E00     "ission\0"
                         const [203]: "enemySpawnTransmission"
5BBE  04                 const type 4
5BBF  0F                 string size (15)
5BC0  63686F6F73654265+  "chooseBe"
5BC8  7374486F737400     "stHost\0"
                         const [204]: "chooseBestHost"
5BCF  01                 const type 3
5BD0  00000000           const [205]: (0)
5BD4  04                 const type 4
5BD5  0E                 string size (14)
5BD6  6C6F616446726F6D+  "loadFrom"
5BDE  4C6F62627900       "Lobby\0"
                         const [206]: "loadFromLobby"
5BE4  04                 const type 4
5BE5  0D                 string size (13)
5BE6  69734175746F6E6F+  "isAutono"
5BEE  6D6F757300         "mous\0"
                         const [207]: "isAutonomous"
5BF3  04                 const type 4
5BF4  2D                 string size (45)
5BF5  4C6F6262793A3A48+  "Lobby::H"
5BFD  6F73745F53746172+  "ost_Star"
5C05  744D617463683A20+  "tMatch: "
5C0D  6C61756E6368696E+  "launchin"
5C15  67206C6576656C20+  "g level "
5C1D  666F722000         "for \0"
                         const [208]: "Lobby::Host_StartMatch: launching level for "
5C22  04                 const type 4
5C23  03                 string size (3)
5C24  202800             " (\0"
                         const [209]: " ("
5C27  04                 const type 4
5C28  02                 string size (2)
5C29  2900               ")\0"
                         const [210]: ")"
5C2B  04                 const type 4
5C2C  10                 string size (16)
5C2D  436F6E746578744F+  "ContextO"
5C35  626A656374733A00   "bjects:\0"
                         const [211]: "ContextObjects:"
5C3D  04                 const type 4
5C3E  0F                 string size (15)
5C3F  636F6E746578744F+  "contextO"
5C47  626A6563747300     "bjects\0"
                         const [212]: "contextObjects"
5C4E  01                 const type 3
5C4F  FACEF312           const [213]: (317968122)
5C53  04                 const type 4
5C54  1E                 string size (30)
5C55  6E756C6C20636F6E+  "null con"
5C5D  74657874206F626A+  "text obj"
5C65  6563742061742069+  "ect at i"
5C6D  6E6465782000       "ndex \0"
                         const [214]: "null context object at index "
5C73  04                 const type 4
5C74  42                 string size (66)
5C75  2120436865636B20+  "! Check "
5C7D  666F722062726F6B+  "for brok"
5C85  656E207479706573+  "en types"
5C8D  207265666572656E+  " referen"
5C95  636564206279206D+  "ced by m"
5C9D  697373696F6E2069+  "ission i"
5CA5  6E666F20656E656D+  "nfo enem"
5CAD  7953706563206574+  "ySpec et"
5CB5  6300               "c\0"
                         const [215]: "! Check for broken types referenced by mission info enemySpec etc"
5CB7  04                 const type 4
5CB8  05                 string size (5)
5CB9  2020202000         "    \0"
                         const [216]: "    "
                         * functions:
5CBE  00                 sizep (0)
                         * lines:
5CC0  09                 sizelineinfo (1157)
                         [pc] (line)
5CC1  43                 [0001] (67)
5CC2  02                 [0002] (67)
5CC3  00                 [0003] (67)
5CC4  00                 [0004] (67)
5CC5  43                 [0005] (67)
5CC6  02                 [0006] (67)
5CC7  00                 [0007] (67)
5CC8  00                 [0008] (67)
5CC9  43                 [0009] (68)
5CCA  02                 [0010] (71)
5CCB  00                 [0011] (71)
5CCC  00                 [0012] (71)
5CCD  43                 [0013] (73)
5CCE  02                 [0014] (73)
5CCF  00                 [0015] (74)
5CD0  00                 [0016] (74)
5CD1  43                 [0017] (74)
5CD2  02                 [0018] (75)
5CD3  00                 [0019] (78)
5CD4  00                 [0020] (79)
5CD5  43                 [0021] (79)
5CD6  02                 [0022] (79)
5CD7  00                 [0023] (79)
5CD8  00                 [0024] (79)
5CD9  43                 [0025] (79)
5CDA  02                 [0026] (79)
5CDB  00                 [0027] (79)
5CDC  00                 [0028] (79)
5CDD  43                 [0029] (79)
5CDE  02                 [0030] (79)
5CDF  00                 [0031] (79)
5CE0  00                 [0032] (79)
5CE1  44                 [0033] (80)
5CE2  02                 [0034] (83)
5CE3  00                 [0035] (83)
5CE4  00                 [0036] (83)
5CE5  47                 [0037] (83)
5CE6  02                 [0038] (83)
5CE7  00                 [0039] (83)
5CE8  00                 [0040] (83)
5CE9  47                 [0041] (83)
5CEA  02                 [0042] (83)
5CEB  00                 [0043] (83)
5CEC  00                 [0044] (83)
5CED  47                 [0045] (83)
5CEE  02                 [0046] (83)
5CEF  00                 [0047] (83)
5CF0  00                 [0048] (83)
5CF1  49                 [0049] (83)
5CF2  02                 [0050] (83)
5CF3  00                 [0051] (85)
5CF4  00                 [0052] (85)
5CF5  49                 [0053] (85)
5CF6  02                 [0054] (85)
5CF7  00                 [0055] (85)
5CF8  00                 [0056] (85)
5CF9  4A                 [0057] (85)
5CFA  02                 [0058] (85)
5CFB  00                 [0059] (85)
5CFC  00                 [0060] (86)
5CFD  4A                 [0061] (86)
5CFE  02                 [0062] (86)
5CFF  00                 [0063] (86)
5D00  00                 [0064] (86)
5D01  4A                 [0065] (87)
5D02  02                 [0066] (90)
5D03  00                 [0067] (90)
5D04  00                 [0068] (90)
5D05  4B                 [0069] (90)
5D06  02                 [0070] (91)
5D07  00                 [0071] (91)
5D08  00                 [0072] (91)
5D09  4E                 [0073] (91)
5D0A  02                 [0074] (93)
5D0B  00                 [0075] (93)
5D0C  00                 [0076] (93)
5D0D  4F                 [0077] (93)
5D0E  02                 [0078] (93)
5D0F  00                 [0079] (93)
5D10  00                 [0080] (93)
5D11  4F                 [0081] (94)
5D12  02                 [0082] (95)
5D13  00                 [0083] (95)
5D14  00                 [0084] (95)
5D15  4F                 [0085] (95)
5D16  02                 [0086] (96)
5D17  00                 [0087] (96)
5D18  00                 [0088] (96)
5D19  4F                 [0089] (96)
5D1A  02                 [0090] (96)
5D1B  00                 [0091] (96)
5D1C  00                 [0092] (96)
5D1D  4F                 [0093] (96)
5D1E  02                 [0094] (96)
5D1F  00                 [0095] (96)
5D20  00                 [0096] (96)
5D21  4F                 [0097] (96)
5D22  02                 [0098] (96)
5D23  00                 [0099] (96)
5D24  00                 [0100] (97)
5D25  4F                 [0101] (97)
5D26  02                 [0102] (97)
5D27  00                 [0103] (97)
5D28  00                 [0104] (97)
5D29  4F                 [0105] (97)
5D2A  02                 [0106] (97)
5D2B  00                 [0107] (97)
5D2C  00                 [0108] (97)
5D2D  4F                 [0109] (98)
5D2E  02                 [0110] (98)
5D2F  00                 [0111] (98)
5D30  00                 [0112] (98)
5D31  4F                 [0113] (98)
5D32  02                 [0114] (98)
5D33  00                 [0115] (98)
5D34  00                 [0116] (98)
5D35  4F                 [0117] (98)
5D36  02                 [0118] (100)
5D37  00                 [0119] (100)
5D38  00                 [0120] (101)
5D39  4F                 [0121] (101)
5D3A  02                 [0122] (101)
5D3B  00                 [0123] (101)
5D3C  00                 [0124] (101)
5D3D  4F                 [0125] (101)
5D3E  02                 [0126] (101)
5D3F  00                 [0127] (102)
5D40  00                 [0128] (102)
5D41  50                 [0129] (102)
5D42  02                 [0130] (102)
5D43  00                 [0131] (102)
5D44  00                 [0132] (103)
5D45  53                 [0133] (103)
5D46  02                 [0134] (103)
5D47  00                 [0135] (103)
5D48  00                 [0136] (103)
5D49  53                 [0137] (104)
5D4A  02                 [0138] (104)
5D4B  00                 [0139] (104)
5D4C  00                 [0140] (105)
5D4D  53                 [0141] (105)
5D4E  02                 [0142] (105)
5D4F  00                 [0143] (105)
5D50  00                 [0144] (105)
5D51  53                 [0145] (107)
5D52  02                 [0146] (109)
5D53  00                 [0147] (109)
5D54  00                 [0148] (109)
5D55  53                 [0149] (109)
5D56  02                 [0150] (109)
5D57  00                 [0151] (109)
5D58  00                 [0152] (110)
5D59  53                 [0153] (110)
5D5A  02                 [0154] (110)
5D5B  00                 [0155] (110)
5D5C  00                 [0156] (110)
5D5D  53                 [0157] (110)
5D5E  02                 [0158] (110)
5D5F  00                 [0159] (110)
5D60  00                 [0160] (110)
5D61  53                 [0161] (111)
5D62  02                 [0162] (111)
5D63  00                 [0163] (111)
5D64  00                 [0164] (111)
5D65  53                 [0165] (111)
5D66  02                 [0166] (111)
5D67  00                 [0167] (111)
5D68  00                 [0168] (111)
5D69  53                 [0169] (111)
5D6A  02                 [0170] (111)
5D6B  00                 [0171] (111)
5D6C  00                 [0172] (111)
5D6D  53                 [0173] (112)
5D6E  02                 [0174] (112)
5D6F  00                 [0175] (113)
5D70  00                 [0176] (113)
5D71  53                 [0177] (113)
5D72  02                 [0178] (113)
5D73  00                 [0179] (113)
5D74  00                 [0180] (114)
5D75  53                 [0181] (118)
5D76  02                 [0182] (118)
5D77  00                 [0183] (118)
5D78  00                 [0184] (118)
5D79  53                 [0185] (119)
5D7A  02                 [0186] (120)
5D7B  00                 [0187] (120)
5D7C  00                 [0188] (120)
5D7D  53                 [0189] (120)
5D7E  02                 [0190] (120)
5D7F  00                 [0191] (121)
5D80  00                 [0192] (121)
5D81  53                 [0193] (121)
5D82  02                 [0194] (122)
5D83  00                 [0195] (122)
5D84  00                 [0196] (122)
5D85  53                 [0197] (122)
5D86  02                 [0198] (122)
5D87  00                 [0199] (123)
5D88  00                 [0200] (123)
5D89  55                 [0201] (123)
5D8A  02                 [0202] (123)
5D8B  00                 [0203] (123)
5D8C  00                 [0204] (124)
5D8D  55                 [0205] (124)
5D8E  02                 [0206] (125)
5D8F  00                 [0207] (125)
5D90  00                 [0208] (125)
5D91  55                 [0209] (-128)
5D92  02                 [0210] (-128)
5D93  00                 [0211] (-128)
5D94  00                 [0212] (-127)
5D95  55                 [0213] (-125)
5D96  02                 [0214] (-125)
5D97  00                 [0215] (-125)
5D98  00                 [0216] (-124)
5D99  55                 [0217] (-120)
5D9A  02                 [0218] (-120)
5D9B  00                 [0219] (-120)
5D9C  00                 [0220] (-120)
5D9D  55                 [0221] (-120)
5D9E  02                 [0222] (-120)
5D9F  00                 [0223] (-119)
5DA0  00                 [0224] (-119)
5DA1  55                 [0225] (-118)
5DA2  02                 [0226] (-118)
5DA3  00                 [0227] (-118)
5DA4  00                 [0228] (-118)
5DA5  55                 [0229] (-118)
5DA6  02                 [0230] (-118)
5DA7  00                 [0231] (-118)
5DA8  00                 [0232] (-118)
5DA9  55                 [0233] (-118)
5DAA  02                 [0234] (-118)
5DAB  00                 [0235] (-118)
5DAC  00                 [0236] (-117)
5DAD  56                 [0237] (-117)
5DAE  02                 [0238] (-117)
5DAF  00                 [0239] (-117)
5DB0  00                 [0240] (-113)
5DB1  56                 [0241] (-113)
5DB2  02                 [0242] (-113)
5DB3  00                 [0243] (-113)
5DB4  00                 [0244] (-113)
5DB5  56                 [0245] (-113)
5DB6  02                 [0246] (-113)
5DB7  00                 [0247] (-113)
5DB8  00                 [0248] (-113)
5DB9  56                 [0249] (-113)
5DBA  02                 [0250] (-113)
5DBB  00                 [0251] (-113)
5DBC  00                 [0252] (-113)
5DBD  56                 [0253] (-113)
5DBE  02                 [0254] (-113)
5DBF  00                 [0255] (-113)
5DC0  00                 [0256] (-113)
5DC1  57                 [0257] (-113)
5DC2  02                 [0258] (-113)
5DC3  00                 [0259] (-113)
5DC4  00                 [0260] (-113)
5DC5  5A                 [0261] (-112)
5DC6  02                 [0262] (-112)
5DC7  00                 [0263] (-112)
5DC8  00                 [0264] (-112)
5DC9  5A                 [0265] (-112)
5DCA  02                 [0266] (-112)
5DCB  00                 [0267] (-111)
5DCC  00                 [0268] (-111)
5DCD  5A                 [0269] (-111)
5DCE  02                 [0270] (-110)
5DCF  00                 [0271] (-109)
5DD0  00                 [0272] (-109)
5DD1  5A                 [0273] (-109)
5DD2  02                 [0274] (-108)
5DD3  00                 [0275] (-108)
5DD4  00                 [0276] (-108)
5DD5  5B                 [0277] (-107)
5DD6  02                 [0278] (-107)
5DD7  00                 [0279] (-107)
5DD8  00                 [0280] (-107)
5DD9  5B                 [0281] (-107)
5DDA  02                 [0282] (-107)
5DDB  00                 [0283] (-107)
5DDC  00                 [0284] (-106)
5DDD  5B                 [0285] (-106)
5DDE  02                 [0286] (-106)
5DDF  00                 [0287] (-102)
5DE0  00                 [0288] (-102)
5DE1  5B                 [0289] (-102)
5DE2  02                 [0290] (-102)
5DE3  00                 [0291] (-102)
5DE4  00                 [0292] (-102)
5DE5  5D                 [0293] (-102)
5DE6  02                 [0294] (-102)
5DE7  00                 [0295] (-102)
5DE8  00                 [0296] (-102)
5DE9  5D                 [0297] (-101)
5DEA  02                 [0298] (-101)
5DEB  00                 [0299] (-101)
5DEC  00                 [0300] (-100)
5DED  5D                 [0301] (-100)
5DEE  02                 [0302] (-100)
5DEF  00                 [0303] (-100)
5DF0  00                 [0304] (-100)
5DF1  5D                 [0305] (-100)
5DF2  02                 [0306] (-99)
5DF3  00                 [0307] (-99)
5DF4  00                 [0308] (-99)
5DF5  5D                 [0309] (-98)
5DF6  02                 [0310] (-98)
5DF7  00                 [0311] (-98)
5DF8  00                 [0312] (-97)
5DF9  5D                 [0313] (-97)
5DFA  02                 [0314] (-97)
5DFB  00                 [0315] (-97)
5DFC  00                 [0316] (-97)
5DFD  5D                 [0317] (-96)
5DFE  02                 [0318] (-96)
5DFF  00                 [0319] (-96)
5E00  00                 [0320] (-96)
5E01  5E                 [0321] (-96)
5E02  02                 [0322] (-95)
5E03  00                 [0323] (-95)
5E04  00                 [0324] (-95)
5E05  5F                 [0325] (-95)
5E06  02                 [0326] (-95)
5E07  00                 [0327] (-94)
5E08  00                 [0328] (-94)
5E09  5F                 [0329] (-94)
5E0A  02                 [0330] (-94)
5E0B  00                 [0331] (-94)
5E0C  00                 [0332] (-93)
5E0D  5F                 [0333] (-93)
5E0E  02                 [0334] (-93)
5E0F  00                 [0335] (-93)
5E10  00                 [0336] (-93)
5E11  5F                 [0337] (-92)
5E12  02                 [0338] (-92)
5E13  00                 [0339] (-92)
5E14  00                 [0340] (-91)
5E15  60                 [0341] (-91)
5E16  02                 [0342] (-91)
5E17  00                 [0343] (-91)
5E18  00                 [0344] (-90)
5E19  60                 [0345] (-90)
5E1A  02                 [0346] (-90)
5E1B  00                 [0347] (-89)
5E1C  00                 [0348] (-89)
5E1D  60                 [0349] (-89)
5E1E  02                 [0350] (-88)
5E1F  00                 [0351] (-88)
5E20  00                 [0352] (-88)
5E21  60                 [0353] (-88)
5E22  02                 [0354] (-88)
5E23  00                 [0355] (-87)
5E24  00                 [0356] (-87)
5E25  60                 [0357] (-87)
5E26  02                 [0358] (-87)
5E27  00                 [0359] (-87)
5E28  00                 [0360] (-87)
5E29  60                 [0361] (-87)
5E2A  02                 [0362] (-86)
5E2B  00                 [0363] (-86)
5E2C  00                 [0364] (-86)
5E2D  60                 [0365] (-86)
5E2E  02                 [0366] (-86)
5E2F  00                 [0367] (-85)
5E30  00                 [0368] (-85)
5E31  60                 [0369] (-85)
5E32  02                 [0370] (-85)
5E33  00                 [0371] (-85)
5E34  00                 [0372] (-84)
5E35  60                 [0373] (-84)
5E36  02                 [0374] (-84)
5E37  00                 [0375] (-84)
5E38  00                 [0376] (-84)
5E39  60                 [0377] (-83)
5E3A  02                 [0378] (-83)
5E3B  00                 [0379] (-83)
5E3C  00                 [0380] (-83)
5E3D  60                 [0381] (-81)
5E3E  02                 [0382] (-81)
5E3F  00                 [0383] (-81)
5E40  00                 [0384] (-76)
5E41  60                 [0385] (-75)
5E42  02                 [0386] (-72)
5E43  00                 [0387] (-72)
5E44  00                 [0388] (-72)
5E45  60                 [0389] (-71)
5E46  02                 [0390] (-70)
5E47  00                 [0391] (-68)
5E48  00                 [0392] (-68)
5E49  60                 [0393] (-68)
5E4A  02                 [0394] (-68)
5E4B  00                 [0395] (-68)
5E4C  00                 [0396] (-67)
5E4D  61                 [0397] (-66)
5E4E  02                 [0398] (-66)
5E4F  00                 [0399] (-66)
5E50  00                 [0400] (-66)
5E51  61                 [0401] (-66)
5E52  02                 [0402] (-66)
5E53  00                 [0403] (-66)
5E54  00                 [0404] (-63)
5E55  61                 [0405] (-63)
5E56  02                 [0406] (-62)
5E57  00                 [0407] (-62)
5E58  00                 [0408] (-62)
5E59  61                 [0409] (-61)
5E5A  02                 [0410] (-61)
5E5B  00                 [0411] (-61)
5E5C  00                 [0412] (-61)
5E5D  61                 [0413] (-61)
5E5E  02                 [0414] (-61)
5E5F  00                 [0415] (-59)
5E60  00                 [0416] (-59)
5E61  61                 [0417] (-59)
5E62  02                 [0418] (-59)
5E63  00                 [0419] (-59)
5E64  00                 [0420] (-58)
5E65  61                 [0421] (-58)
5E66  02                 [0422] (-58)
5E67  00                 [0423] (-57)
5E68  00                 [0424] (-57)
5E69  61                 [0425] (-57)
5E6A  02                 [0426] (-54)
5E6B  00                 [0427] (-54)
5E6C  00                 [0428] (-52)
5E6D  61                 [0429] (-52)
5E6E  02                 [0430] (-52)
5E6F  00                 [0431] (-52)
5E70  00                 [0432] (-51)
5E71  62                 [0433] (-51)
5E72  02                 [0434] (-51)
5E73  00                 [0435] (-52)
5E74  00                 [0436] (-48)
5E75  62                 [0437] (-48)
5E76  02                 [0438] (-48)
5E77  00                 [0439] (-48)
5E78  00                 [0440] (-48)
5E79  62                 [0441] (-48)
5E7A  02                 [0442] (-47)
5E7B  00                 [0443] (-46)
5E7C  00                 [0444] (-46)
5E7D  62                 [0445] (-45)
5E7E  02                 [0446] (-45)
5E7F  00                 [0447] (-45)
5E80  00                 [0448] (-44)
5E81  62                 [0449] (-44)
5E82  02                 [0450] (-44)
5E83  00                 [0451] (-44)
5E84  00                 [0452] (-44)
5E85  62                 [0453] (-44)
5E86  02                 [0454] (-43)
5E87  00                 [0455] (-43)
5E88  00                 [0456] (-41)
5E89  62                 [0457] (-41)
5E8A  02                 [0458] (-41)
5E8B  00                 [0459] (-41)
5E8C  00                 [0460] (-41)
5E8D  62                 [0461] (-41)
5E8E  02                 [0462] (-41)
5E8F  00                 [0463] (-41)
5E90  00                 [0464] (-41)
5E91  62                 [0465] (-40)
5E92  02                 [0466] (-40)
5E93  00                 [0467] (-40)
5E94  00                 [0468] (-40)
5E95  64                 [0469] (-37)
5E96  02                 [0470] (-37)
5E97  00                 [0471] (-37)
5E98  00                 [0472] (-37)
5E99  64                 [0473] (-37)
5E9A  02                 [0474] (-36)
5E9B  00                 [0475] (-36)
5E9C  00                 [0476] (-36)
5E9D  65                 [0477] (-35)
5E9E  02                 [0478] (-35)
5E9F  00                 [0479] (-35)
5EA0  00                 [0480] (-32)
5EA1  65                 [0481] (-32)
5EA2  02                 [0482] (-30)
5EA3  00                 [0483] (-30)
5EA4  00                 [0484] (-30)
5EA5  65                 [0485] (-30)
5EA6  02                 [0486] (-29)
5EA7  00                 [0487] (-29)
5EA8  00                 [0488] (-29)
5EA9  65                 [0489] (-30)
5EAA  02                 [0490] (-27)
5EAB  00                 [0491] (-26)
5EAC  00                 [0492] (-26)
5EAD  65                 [0493] (-25)
5EAE  02                 [0494] (-25)
5EAF  00                 [0495] (-25)
5EB0  00                 [0496] (-24)
5EB1  65                 [0497] (-24)
5EB2  02                 [0498] (-23)
5EB3  00                 [0499] (-23)
5EB4  00                 [0500] (-23)
5EB5  65                 [0501] (-23)
5EB6  02                 [0502] (-23)
5EB7  00                 [0503] (-23)
5EB8  00                 [0504] (-23)
5EB9  66                 [0505] (-22)
5EBA  02                 [0506] (-22)
5EBB  00                 [0507] (-22)
5EBC  00                 [0508] (-21)
5EBD  66                 [0509] (-21)
5EBE  02                 [0510] (-21)
5EBF  00                 [0511] (-21)
5EC0  00                 [0512] (-19)
5EC1  66                 [0513] (-19)
5EC2  02                 [0514] (-19)
5EC3  00                 [0515] (-19)
5EC4  00                 [0516] (-19)
5EC5  66                 [0517] (-18)
5EC6  02                 [0518] (-18)
5EC7  00                 [0519] (-18)
5EC8  00                 [0520] (-17)
5EC9  66                 [0521] (-17)
5ECA  02                 [0522] (-17)
5ECB  00                 [0523] (-15)
5ECC  00                 [0524] (-15)
5ECD  67                 [0525] (-14)
5ECE  02                 [0526] (-14)
5ECF  00                 [0527] (-14)
5ED0  00                 [0528] (-14)
5ED1  67                 [0529] (-13)
5ED2  02                 [0530] (-13)
5ED3  00                 [0531] (-13)
5ED4  00                 [0532] (-14)
5ED5  67                 [0533] (-11)
5ED6  02                 [0534] (-9)
5ED7  00                 [0535] (-9)
5ED8  00                 [0536] (-9)
5ED9  67                 [0537] (-9)
5EDA  02                 [0538] (-9)
5EDB  00                 [0539] (-9)
5EDC  00                 [0540] (-9)
5EDD  67                 [0541] (-9)
5EDE  02                 [0542] (-9)
5EDF  00                 [0543] (-9)
5EE0  00                 [0544] (-9)
5EE1  68                 [0545] (-8)
5EE2  02                 [0546] (-8)
5EE3  00                 [0547] (-8)
5EE4  00                 [0548] (-8)
5EE5  68                 [0549] (-8)
5EE6  02                 [0550] (-8)
5EE7  00                 [0551] (-7)
5EE8  00                 [0552] (-7)
5EE9  68                 [0553] (-7)
5EEA  02                 [0554] (-7)
5EEB  00                 [0555] (-7)
5EEC  00                 [0556] (-6)
5EED  69                 [0557] (-6)
5EEE  02                 [0558] (-6)
5EEF  00                 [0559] (-5)
5EF0  00                 [0560] (-5)
5EF1  69                 [0561] (-1)
5EF2  02                 [0562] (-1)
5EF3  00                 [0563] (-1)
5EF4  00                 [0564] (-1)
5EF5  69                 [0565] (-1)
5EF6  02                 [0566] (0)
5EF7  00                 [0567] (0)
5EF8  00                 [0568] (0)
5EF9  69                 [0569] (1)
5EFA  02                 [0570] (1)
5EFB  00                 [0571] (3)
5EFC  00                 [0572] (3)
5EFD  69                 [0573] (3)
5EFE  02                 [0574] (3)
5EFF  00                 [0575] (5)
5F00  00                 [0576] (5)
5F01  6B                 [0577] (6)
5F02  02                 [0578] (6)
5F03  00                 [0579] (6)
5F04  00                 [0580] (6)
5F05  6D                 [0581] (6)
5F06  02                 [0582] (7)
5F07  00                 [0583] (7)
5F08  00                 [0584] (7)
5F09  6D                 [0585] (9)
5F0A  02                 [0586] (9)
5F0B  00                 [0587] (11)
5F0C  00                 [0588] (11)
5F0D  6D                 [0589] (11)
5F0E  02                 [0590] (11)
5F0F  00                 [0591] (11)
5F10  00                 [0592] (11)
5F11  6D                 [0593] (13)
5F12  02                 [0594] (13)
5F13  00                 [0595] (13)
5F14  00                 [0596] (13)
5F15  6D                 [0597] (13)
5F16  02                 [0598] (14)
5F17  00                 [0599] (14)
5F18  00                 [0600] (14)
5F19  6D                 [0601] (15)
5F1A  02                 [0602] (15)
5F1B  00                 [0603] (15)
5F1C  00                 [0604] (15)
5F1D  6E                 [0605] (15)
5F1E  02                 [0606] (17)
5F1F  00                 [0607] (17)
5F20  00                 [0608] (17)
5F21  6E                 [0609] (18)
5F22  02                 [0610] (18)
5F23  00                 [0611] (18)
5F24  00                 [0612] (18)
5F25  6E                 [0613] (18)
5F26  02                 [0614] (18)
5F27  00                 [0615] (20)
5F28  00                 [0616] (20)
5F29  6E                 [0617] (20)
5F2A  02                 [0618] (23)
5F2B  00                 [0619] (23)
5F2C  00                 [0620] (23)
5F2D  6E                 [0621] (24)
5F2E  02                 [0622] (24)
5F2F  00                 [0623] (24)
5F30  00                 [0624] (24)
5F31  6E                 [0625] (24)
5F32  02                 [0626] (24)
5F33  00                 [0627] (26)
5F34  00                 [0628] (26)
5F35  6E                 [0629] (26)
5F36  02                 [0630] (29)
5F37  00                 [0631] (29)
5F38  00                 [0632] (29)
5F39  6E                 [0633] (30)
5F3A  02                 [0634] (30)
5F3B  00                 [0635] (30)
5F3C  00                 [0636] (30)
5F3D  6E                 [0637] (30)
5F3E  02                 [0638] (33)
5F3F  00                 [0639] (33)
5F40  00                 [0640] (33)
5F41  6F                 [0641] (34)
5F42  02                 [0642] (34)
5F43  00                 [0643] (34)
5F44  00                 [0644] (35)
5F45  6F                 [0645] (35)
5F46  02                 [0646] (35)
5F47  00                 [0647] (35)
5F48  00                 [0648] (35)
5F49  6F                 [0649] (35)
5F4A  02                 [0650] (35)
5F4B  00                 [0651] (35)
5F4C  00                 [0652] (35)
5F4D  6F                 [0653] (35)
5F4E  02                 [0654] (36)
5F4F  00                 [0655] (36)
5F50  00                 [0656] (36)
5F51  6F                 [0657] (37)
5F52  02                 [0658] (38)
5F53  00                 [0659] (38)
5F54  00                 [0660] (39)
5F55  6F                 [0661] (39)
5F56  02                 [0662] (39)
5F57  00                 [0663] (39)
5F58  00                 [0664] (39)
5F59  6F                 [0665] (40)
5F5A  02                 [0666] (40)
5F5B  00                 [0667] (40)
5F5C  00                 [0668] (40)
5F5D  6F                 [0669] (40)
5F5E  02                 [0670] (41)
5F5F  00                 [0671] (41)
5F60  00                 [0672] (41)
5F61  6F                 [0673] (41)
5F62  02                 [0674] (41)
5F63  00                 [0675] (42)
5F64  00                 [0676] (42)
5F65  6F                 [0677] (42)
5F66  02                 [0678] (42)
5F67  00                 [0679] (42)
5F68  00                 [0680] (42)
5F69  6F                 [0681] (43)
5F6A  02                 [0682] (43)
5F6B  00                 [0683] (44)
5F6C  00                 [0684] (44)
5F6D  6F                 [0685] (44)
5F6E  02                 [0686] (45)
5F6F  00                 [0687] (45)
5F70  00                 [0688] (46)
5F71  70                 [0689] (46)
5F72  02                 [0690] (46)
5F73  00                 [0691] (46)
5F74  00                 [0692] (46)
5F75  70                 [0693] (47)
5F76  02                 [0694] (47)
5F77  00                 [0695] (47)
5F78  00                 [0696] (47)
5F79  71                 [0697] (47)
5F7A  02                 [0698] (48)
5F7B  00                 [0699] (48)
5F7C  00                 [0700] (48)
5F7D  71                 [0701] (48)
5F7E  02                 [0702] (48)
5F7F  00                 [0703] (49)
5F80  00                 [0704] (49)
5F81  71                 [0705] (49)
5F82  02                 [0706] (49)
5F83  00                 [0707] (49)
5F84  00                 [0708] (50)
5F85  71                 [0709] (50)
5F86  02                 [0710] (50)
5F87  00                 [0711] (50)
5F88  00                 [0712] (50)
5F89  71                 [0713] (51)
5F8A  02                 [0714] (51)
5F8B  00                 [0715] (51)
5F8C  00                 [0716] (54)
5F8D  72                 [0717] (54)
5F8E  02                 [0718] (54)
5F8F  00                 [0719] (54)
5F90  00                 [0720] (54)
5F91  76                 [0721] (55)
5F92  02                 [0722] (55)
5F93  00                 [0723] (55)
5F94  00                 [0724] (55)
5F95  76                 [0725] (55)
5F96  02                 [0726] (58)
5F97  00                 [0727] (58)
5F98  00                 [0728] (59)
5F99  76                 [0729] (59)
5F9A  02                 [0730] (60)
5F9B  00                 [0731] (60)
5F9C  00                 [0732] (61)
5F9D  76                 [0733] (61)
5F9E  02                 [0734] (64)
5F9F  00                 [0735] (64)
5FA0  00                 [0736] (64)
5FA1  77                 [0737] (64)
5FA2  02                 [0738] (64)
5FA3  00                 [0739] (64)
5FA4  00                 [0740] (64)
5FA5  78                 [0741] (64)
5FA6  02                 [0742] (64)
5FA7  00                 [0743] (64)
5FA8  00                 [0744] (64)
5FA9  78                 [0745] (64)
5FAA  02                 [0746] (64)
5FAB  00                 [0747] (64)
5FAC  00                 [0748] (64)
5FAD  78                 [0749] (64)
5FAE  02                 [0750] (65)
5FAF  00                 [0751] (66)
5FB0  00                 [0752] (67)
5FB1  78                 [0753] (70)
5FB2  02                 [0754] (70)
5FB3  00                 [0755] (70)
5FB4  00                 [0756] (71)
5FB5  78                 [0757] (71)
5FB6  02                 [0758] (71)
5FB7  00                 [0759] (71)
5FB8  00                 [0760] (72)
5FB9  79                 [0761] (72)
5FBA  02                 [0762] (72)
5FBB  00                 [0763] (71)
5FBC  00                 [0764] (76)
5FBD  79                 [0765] (76)
5FBE  02                 [0766] (76)
5FBF  00                 [0767] (76)
5FC0  00                 [0768] (76)
5FC1  79                 [0769] (78)
5FC2  02                 [0770] (78)
5FC3  00                 [0771] (82)
5FC4  00                 [0772] (82)
5FC5  7A                 [0773] (82)
5FC6  02                 [0774] (83)
5FC7  00                 [0775] (83)
5FC8  00                 [0776] (83)
5FC9  7A                 [0777] (84)
5FCA  02                 [0778] (84)
5FCB  00                 [0779] (84)
5FCC  00                 [0780] (84)
5FCD  7A                 [0781] (84)
5FCE  02                 [0782] (84)
5FCF  00                 [0783] (84)
5FD0  00                 [0784] (84)
5FD1  7A                 [0785] (86)
5FD2  02                 [0786] (86)
5FD3  00                 [0787] (88)
5FD4  00                 [0788] (88)
5FD5  7A                 [0789] (88)
5FD6  02                 [0790] (88)
5FD7  00                 [0791] (89)
5FD8  00                 [0792] (91)
5FD9  7B                 [0793] (91)
5FDA  02                 [0794] (91)
5FDB  00                 [0795] (91)
5FDC  00                 [0796] (92)
5FDD  7B                 [0797] (94)
5FDE  02                 [0798] (94)
5FDF  00                 [0799] (95)
5FE0  00                 [0800] (95)
5FE1  7B                 [0801] (97)
5FE2  02                 [0802] (97)
5FE3  00                 [0803] (97)
5FE4  00                 [0804] (97)
5FE5  7B                 [0805] (98)
5FE6  02                 [0806] (99)
5FE7  00                 [0807] (99)
5FE8  00                 [0808] (99)
5FE9  7B                 [0809] (99)
5FEA  02                 [0810] (100)
5FEB  00                 [0811] (100)
5FEC  00                 [0812] (100)
5FED  7C                 [0813] (100)
5FEE  02                 [0814] (100)
5FEF  00                 [0815] (101)
5FF0  00                 [0816] (101)
5FF1  7C                 [0817] (101)
5FF2  02                 [0818] (102)
5FF3  00                 [0819] (102)
5FF4  00                 [0820] (103)
5FF5  7D                 [0821] (103)
5FF6  02                 [0822] (103)
5FF7  00                 [0823] (103)
5FF8  00                 [0824] (103)
5FF9  7D                 [0825] (106)
5FFA  02                 [0826] (97)
5FFB  00                 [0827] (110)
5FFC  00                 [0828] (110)
5FFD  7D                 [0829] (110)
5FFE  02                 [0830] (110)
5FFF  00                 [0831] (111)
6000  00                 [0832] (112)
6001  80                 [0833] (112)
6002  02                 [0834] (112)
6003  00                 [0835] (112)
6004  00                 [0836] (113)
6005  80                 [0837] (113)
6006  02                 [0838] (113)
6007  00                 [0839] (113)
6008  00                 [0840] (113)
6009  80                 [0841] (114)
600A  02                 [0842] (114)
600B  00                 [0843] (114)
600C  00                 [0844] (115)
600D  81                 [0845] (115)
600E  02                 [0846] (116)
600F  00                 [0847] (116)
6010  00                 [0848] (116)
6011  83                 [0849] (116)
6012  02                 [0850] (116)
6013  00                 [0851] (119)
6014  00                 [0852] (110)
6015  83                 [0853] (123)
6016  02                 [0854] (123)
6017  00                 [0855] (123)
6018  00                 [0856] (123)
6019  83                 [0857] (123)
601A  02                 [0858] (123)
601B  00                 [0859] (124)
601C  00                 [0860] (124)
601D  84                 [0861] (124)
601E  02                 [0862] (124)
601F  00                 [0863] (124)
6020  00                 [0864] (124)
6021  88                 [0865] (124)
6022  02                 [0866] (124)
6023  00                 [0867] (124)
6024  00                 [0868] (127)
6025  88                 [0869] (127)
6026  02                 [0870] (127)
6027  00                 [0871] (127)
6028  00                 [0872] (127)
6029  88                 [0873] (127)
602A  02                 [0874] (-126)
602B  00                 [0875] (-126)
602C  00                 [0876] (-126)
602D  88                 [0877] (-126)
602E  02                 [0878] (-126)
602F  00                 [0879] (-126)
6030  00                 [0880] (-126)
6031  88                 [0881] (-126)
6032  02                 [0882] (-126)
6033  00                 [0883] (-126)
6034  00                 [0884] (-126)
6035  88                 [0885] (-126)
6036  02                 [0886] (-126)
6037  00                 [0887] (-125)
6038  00                 [0888] (-125)
6039  89                 [0889] (-125)
603A  02                 [0890] (-125)
603B  00                 [0891] (-125)
603C  00                 [0892] (-124)
603D  89                 [0893] (-124)
603E  02                 [0894] (-124)
603F  00                 [0895] (-124)
6040  00                 [0896] (-124)
6041  8A                 [0897] (-121)
6042  02                 [0898] (-121)
6043  00                 [0899] (-121)
6044  00                 [0900] (-121)
6045  8A                 [0901] (-121)
6046  02                 [0902] (-121)
6047  00                 [0903] (-121)
6048  00                 [0904] (-121)
6049  8A                 [0905] (-121)
604A  02                 [0906] (-120)
604B  00                 [0907] (-120)
604C  00                 [0908] (-120)
604D  8A                 [0909] (-120)
604E  02                 [0910] (-120)
604F  00                 [0911] (-120)
6050  00                 [0912] (-119)
6051  8A                 [0913] (-119)
6052  02                 [0914] (-119)
6053  00                 [0915] (-119)
6054  00                 [0916] (-119)
6055  8A                 [0917] (-119)
6056  02                 [0918] (-118)
6057  00                 [0919] (-118)
6058  00                 [0920] (-118)
6059  8A                 [0921] (-118)
605A  02                 [0922] (-118)
605B  00                 [0923] (-117)
605C  00                 [0924] (-117)
605D  8A                 [0925] (-117)
605E  02                 [0926] (-117)
605F  00                 [0927] (-117)
6060  00                 [0928] (-117)
6061  8A                 [0929] (-117)
6062  02                 [0930] (-117)
6063  00                 [0931] (-117)
6064  00                 [0932] (-117)
6065  8A                 [0933] (-116)
6066  02                 [0934] (-116)
6067  00                 [0935] (-116)
6068  00                 [0936] (-116)
6069  8A                 [0937] (-114)
606A  02                 [0938] (-114)
606B  00                 [0939] (-114)
606C  00                 [0940] (-114)
606D  8B                 [0941] (-114)
606E  02                 [0942] (-113)
606F  00                 [0943] (-113)
6070  00                 [0944] (-113)
6071  8B                 [0945] (-113)
6072  02                 [0946] (-113)
6073  00                 [0947] (-112)
6074  00                 [0948] (-112)
6075  8B                 [0949] (-112)
6076  02                 [0950] (-112)
6077  00                 [0951] (-112)
6078  00                 [0952] (-113)
6079  8B                 [0953] (-119)
607A  02                 [0954] (-105)
607B  00                 [0955] (-105)
607C  00                 [0956] (-105)
607D  8F                 [0957] (-105)
607E  02                 [0958] (-105)
607F  00                 [0959] (-105)
6080  00                 [0960] (-105)
6081  8F                 [0961] (-104)
6082  02                 [0962] (-104)
6083  00                 [0963] (-103)
6084  00                 [0964] (-103)
6085  8F                 [0965] (-103)
6086  02                 [0966] (-103)
6087  00                 [0967] (-103)
6088  00                 [0968] (-103)
6089  8F                 [0969] (-103)
608A  02                 [0970] (-102)
608B  00                 [0971] (-99)
608C  00                 [0972] (-99)
608D  8F                 [0973] (-99)
608E  02                 [0974] (-99)
608F  00                 [0975] (-99)
6090  00                 [0976] (-98)
6091  8F                 [0977] (-98)
6092  02                 [0978] (-98)
6093  00                 [0979] (-98)
6094  00                 [0980] (-98)
6095  8F                 [0981] (-98)
6096  02                 [0982] (-98)
6097  00                 [0983] (-97)
6098  00                 [0984] (-97)
6099  8F                 [0985] (-97)
609A  02                 [0986] (-97)
609B  00                 [0987] (-97)
609C  00                 [0988] (-95)
609D  8F                 [0989] (-95)
609E  02                 [0990] (-95)
609F  00                 [0991] (-94)
60A0  00                 [0992] (-94)
60A1  8F                 [0993] (-94)
60A2  02                 [0994] (-94)
60A3  00                 [0995] (-93)
60A4  00                 [0996] (-93)
60A5  8F                 [0997] (-93)
60A6  02                 [0998] (-93)
60A7  00                 [0999] (-93)
60A8  00                 [1000] (-89)
60A9  8F                 [1001] (-89)
60AA  02                 [1002] (-88)
60AB  00                 [1003] (-88)
60AC  00                 [1004] (-88)
60AD  8F                 [1005] (-88)
60AE  02                 [1006] (-87)
60AF  00                 [1007] (-87)
60B0  00                 [1008] (-87)
60B1  8F                 [1009] (-88)
60B2  02                 [1010] (-87)
60B3  00                 [1011] (-83)
60B4  00                 [1012] (-83)
60B5  8F                 [1013] (-82)
60B6  02                 [1014] (-82)
60B7  00                 [1015] (-82)
60B8  00                 [1016] (-82)
60B9  8F                 [1017] (-78)
60BA  02                 [1018] (-78)
60BB  00                 [1019] (-78)
60BC  00                 [1020] (-78)
60BD  8F                 [1021] (-78)
60BE  02                 [1022] (-78)
60BF  00                 [1023] (-78)
60C0  00                 [1024] (-78)
60C1  8F                 [1025] (-78)
60C2  02                 [1026] (-78)
60C3  00                 [1027] (-77)
60C4  00                 [1028] (-77)
60C5  8F                 [1029] (-77)
60C6  02                 [1030] (-77)
60C7  00                 [1031] (-77)
60C8  00                 [1032] (-77)
60C9  8F                 [1033] (-74)
60CA  02                 [1034] (-74)
60CB  00                 [1035] (-74)
60CC  00                 [1036] (-74)
60CD  8F                 [1037] (-74)
60CE  02                 [1038] (-73)
60CF  00                 [1039] (-73)
60D0  00                 [1040] (-72)
60D1  90                 [1041] (-72)
60D2  02                 [1042] (-72)
60D3  00                 [1043] (-72)
60D4  00                 [1044] (-71)
60D5  90                 [1045] (-71)
60D6  02                 [1046] (-71)
60D7  00                 [1047] (-71)
60D8  00                 [1048] (-71)
60D9  90                 [1049] (-71)
60DA  02                 [1050] (-71)
60DB  00                 [1051] (-71)
60DC  00                 [1052] (-71)
60DD  90                 [1053] (-71)
60DE  02                 [1054] (-71)
60DF  00                 [1055] (-71)
60E0  00                 [1056] (-71)
60E1  90                 [1057] (-71)
60E2  02                 [1058] (-71)
60E3  00                 [1059] (-71)
60E4  00                 [1060] (-71)
60E5  90                 [1061] (-71)
60E6  02                 [1062] (-71)
60E7  00                 [1063] (-71)
60E8  00                 [1064] (-71)
60E9  91                 [1065] (-71)
60EA  02                 [1066] (-71)
60EB  00                 [1067] (-71)
60EC  00                 [1068] (-71)
60ED  91                 [1069] (-70)
60EE  02                 [1070] (-70)
60EF  00                 [1071] (-70)
60F0  00                 [1072] (-72)
60F1  91                 [1073] (-69)
60F2  02                 [1074] (-64)
60F3  00                 [1075] (-64)
60F4  00                 [1076] (-64)
60F5  92                 [1077] (-64)
60F6  02                 [1078] (-62)
60F7  00                 [1079] (-62)
60F8  00                 [1080] (-62)
60F9  93                 [1081] (-62)
60FA  02                 [1082] (-61)
60FB  00                 [1083] (-61)
60FC  00                 [1084] (-60)
60FD  93                 [1085] (-60)
60FE  02                 [1086] (-60)
60FF  00                 [1087] (-59)
6100  00                 [1088] (-59)
6101  93                 [1089] (-59)
6102  02                 [1090] (-58)
6103  00                 [1091] (-58)
6104  00                 [1092] (-58)
6105  94                 [1093] (-57)
6106  02                 [1094] (-57)
6107  00                 [1095] (-57)
6108  00                 [1096] (-56)
6109  94                 [1097] (-56)
610A  02                 [1098] (-56)
610B  00                 [1099] (-53)
610C  00                 [1100] (-53)
610D  94                 [1101] (-53)
610E  02                 [1102] (-53)
610F  00                 [1103] (-53)
6110  00                 [1104] (-53)
6111  95                 [1105] (-52)
6112  02                 [1106] (-52)
6113  00                 [1107] (-50)
6114  00                 [1108] (-47)
6115  95                 [1109] (-46)
6116  02                 [1110] (-44)
6117  00                 [1111] (-44)
6118  00                 [1112] (-44)
6119  95                 [1113] (-44)
611A  02                 [1114] (-44)
611B  00                 [1115] (-44)
611C  00                 [1116] (-44)
611D  95                 [1117] (-44)
611E  02                 [1118] (-44)
611F  00                 [1119] (-44)
6120  00                 [1120] (-43)
6121  95                 [1121] (-43)
6122  02                 [1122] (-43)
6123  00                 [1123] (-43)
6124  00                 [1124] (-43)
6125  95                 [1125] (-42)
6126  02                 [1126] (-42)
6127  00                 [1127] (-42)
6128  00                 [1128] (-41)
6129  95                 [1129] (-40)
612A  02                 [1130] (-40)
612B  00                 [1131] (-40)
612C  00                 [1132] (-40)
612D  96                 [1133] (-39)
612E  02                 [1134] (-39)
612F  00                 [1135] (-39)
6130  00                 [1136] (-39)
6131  96                 [1137] (-39)
6132  02                 [1138] (-38)
6133  00                 [1139] (-38)
6134  00                 [1140] (-38)
6135  96                 [1141] (-38)
6136  02                 [1142] (-38)
6137  00                 [1143] (-38)
6138  00                 [1144] (-38)
6139  9A                 [1145] (-38)
613A  02                 [1146] (-36)
613B  00                 [1147] (-36)
613C  00                 [1148] (-36)
613D  9A                 [1149] (-36)
613E  02                 [1150] (-36)
613F  00                 [1151] (-36)
6140  00                 [1152] (-36)
6141  9A                 [1153] (-36)
6142  02                 [1154] (-36)
6143  00                 [1155] (-40)
6144  00                 [1156] (-31)
6145  9A                 [1157] (-30)
                         * locals:
6ED5  00                 sizelocvars (0)
                         * upvalues:
6ED6  00                 sizeupvalues (0)
                         ** end of function **

                         
6ED7                     ** function [21] definition (level 2)
                         ** start of function **
6ED7  00                 string size (0)
                         source name: (none)
6ED9  07                 line defined (996)
6EDA  E6                 last line defined (998)
6EDB  07                 nups (1)
6EDC  01                 numparams (8)
6EDD  08                 is_vararg (0)
6EDE  00                 maxstacksize (17)
                         * code:
6EE0  0C                 sizecode (12)
6EE1  13020000           [01] getupval   8   0      
6EE5  52020000           [02] move       9   0      
6EE9  92028000           [03] move       10  1      
6EED  D2020001           [04] move       11  2      
6EF1  12038001           [05] move       12  3      
6EF5  52030002           [06] move       13  4      
6EF9  92038002           [07] move       14  5      
6EFD  D2030003           [08] move       15  6      
6F01  12048003           [09] move       16  7      
6F05  22828004           [10] call       8   9   2  
6F09  1E020001           [11] return     8   2      
6F0D  1E008000           [12] return     0   1      
                         * constants:
6F11  00                 sizek (0)
                         * functions:
6F12  00                 sizep (0)
                         * lines:
6F13  0C                 sizelineinfo (12)
                         [pc] (line)
6F14  E5                 [01] (-27)
6F15  03                 [02] (-27)
6F16  00                 [03] (-27)
6F17  00                 [04] (-27)
6F18  E5                 [05] (-27)
6F19  03                 [06] (-27)
6F1A  00                 [07] (-27)
6F1B  00                 [08] (-27)
6F1C  E5                 [09] (-27)
6F1D  03                 [10] (-27)
6F1E  00                 [11] (-27)
6F1F  00                 [12] (-26)
                         * locals:
6F44  00                 sizelocvars (0)
                         * upvalues:
6F45  00                 sizeupvalues (0)
                         ** end of function **

                         
6F46                     ** function [22] definition (level 2)
                         ** start of function **
6F46  00                 string size (0)
                         source name: (none)
6F48  07                 line defined (1000)
6F49  F0                 last line defined (1008)
6F4A  07                 nups (2)
6F4B  02                 numparams (7)
6F4C  07                 is_vararg (0)
6F4D  00                 maxstacksize (16)
                         * code:
6F4F  17                 sizecode (23)
6F50  D3010000           [01] getupval   7   0      
6F54  12020000           [02] move       8   0      
6F58  52028000           [03] move       9   1      
6F5C  92020001           [04] move       10  2      
6F60  D2028001           [05] move       11  3      
6F64  12030002           [06] move       12  4      
6F68  52038002           [07] move       13  5      
6F6C  92030003           [08] move       14  6      
6F70  D7038000           [09] loadbool   15  1   0    ; true
6F74  E2818004           [10] call       7   9   2  
fail op	35
6F78  6300C003           [11] close      1  
6F7C  1A000180           [12] jmp        5            ; to [18]
6F80  1D420000           [13] getglobal  8   1        ; Engine
6F84  0E824004           [14] gettable   8   8   258  ; 1457489501
6F88  52028003           [15] move       9   7      
6F8C  22420001           [16] call       8   2   1  
6F90  1AC00080           [17] jmp        4            ; to [22]
6F94  13028000           [18] getupval   8   1      
6F98  0EC24004           [19] gettable   8   8   259  ; 185724978
6F9C  59020100           [20] loadk      9   4        ; "/Lotus/Language/Menu/Multiplayer_FailedToHost"
6FA0  22420001           [21] call       8   2   1  
6FA4  DE010001           [22] return     7   2      
6FA8  1E008000           [23] return     0   1      
                         * constants:
6FAC  05                 sizek (5)
6FAD  00                 const type 0
                         const [0]: nil
6FAE  04                 const type 4
6FAF  07                 string size (7)
6FB0  456E67696E6500     "Engine\0"
                         const [1]: "Engine"
6FB7  01                 const type 3
6FB8  5D86DF56           const [2]: (1457489501)
6FBC  01                 const type 3
6FBD  32F0110B           const [3]: (185724978)
6FC1  04                 const type 4
6FC2  2E                 string size (46)
6FC3  2F4C6F7475732F4C+  "/Lotus/L"
6FCB  616E67756167652F+  "anguage/"
6FD3  4D656E752F4D756C+  "Menu/Mul"
6FDB  7469706C61796572+  "tiplayer"
6FE3  5F4661696C656454+  "_FailedT"
6FEB  6F486F737400       "oHost\0"
                         const [4]: "/Lotus/Language/Menu/Multiplayer_FailedToHost"
                         * functions:
6FF1  00                 sizep (0)
                         * lines:
6FF2  17                 sizelineinfo (23)
                         [pc] (line)
6FF3  E9                 [01] (-23)
6FF4  03                 [02] (-23)
6FF5  00                 [03] (-23)
6FF6  00                 [04] (-23)
6FF7  E9                 [05] (-23)
6FF8  03                 [06] (-23)
6FF9  00                 [07] (-23)
6FFA  00                 [08] (-23)
6FFB  E9                 [09] (-23)
6FFC  03                 [10] (-23)
6FFD  00                 [11] (-22)
6FFE  00                 [12] (-22)
6FFF  E9                 [13] (-21)
7000  03                 [14] (-21)
7001  00                 [15] (-21)
7002  00                 [16] (-21)
7003  E9                 [17] (-21)
7004  03                 [18] (-19)
7005  00                 [19] (-19)
7006  00                 [20] (-19)
7007  E9                 [21] (-19)
7008  03                 [22] (-17)
7009  00                 [23] (-16)
                         * locals:
704F  00                 sizelocvars (0)
                         * upvalues:
7050  00                 sizeupvalues (0)
                         ** end of function **

                         
7051                     ** function [23] definition (level 2)
                         ** start of function **
7051  00                 string size (0)
                         source name: (none)
7053  07                 line defined (1010)
7054  82                 last line defined (1026)
7055  08                 nups (1)
7056  01                 numparams (3)
7057  03                 is_vararg (0)
7058  00                 maxstacksize (13)
                         * code:
705A  2E                 sizecode (46)
705B  D3000000           [01] getupval   3   0      
705F  E2808000           [02] call       3   1   2  
7063  0E01C001           [03] gettable   4   3   256  ; "mMovie"
7067  5D410000           [04] getglobal  5   1        ; gMatchingService
706B  6481C002           [05] self       5   5   258  ; -506968081
706F  62810001           [06] call       5   2   2  
7073  58010000           [07] test       5       0    ; to [9] if true
7077  1A400280           [08] jmp        10           ; to [19]
707B  5DC10000           [09] getglobal  5   3        ; 1074689893
707F  92010001           [10] move       6   2      
7083  62810001           [11] call       5   2   2  
7087  58410000           [12] test       5       1    ; to [14] if false
708B  1A000180           [13] jmp        5            ; to [19]
708F  5D410000           [14] getglobal  5   1        ; gMatchingService
7093  6401C102           [15] self       5   5   260  ; -686847424
7097  D2010000           [16] move       7   0      
709B  62418001           [17] call       5   3   1  
709F  1A800680           [18] jmp        27           ; to [46]
70A3  5D410100           [19] getglobal  5   5        ; gPlayerProfileMgr
70A7  6481C102           [20] self       5   5   262  ; 569342746
70AB  D9C10100           [21] loadk      7   7        ; 0
70AF  62818001           [22] call       5   3   2  
70B3  A401C200           [23] self       6   1   264  ; 1307201780
70B7  A2810001           [24] call       6   2   2  
70BB  98010000           [25] test       6       0    ; to [27] if true
70BF  1AC00180           [26] jmp        8            ; to [35]
70C3  9D410200           [27] getglobal  6   9        ; -1817107093
70C7  D9810200           [28] loadk      7   10       ; "LotusNetworkUtilities - lobby ready!"
70CB  A2410001           [29] call       6   2   1  
70CF  A4C14202           [30] self       6   4   267  ; 1167009705
70D3  12020000           [31] move       8   0      
70D7  59020300           [32] loadk      9   12       ; "true"
70DB  A2410002           [33] call       6   4   1  
70DF  1A800280           [34] jmp        11           ; to [46]
70E3  9D410200           [35] getglobal  6   9        ; -1817107093
70E7  D9410300           [36] loadk      7   13       ; "LotusNetworkUtilities.lua - JoinLobby"
70EB  A2410001           [37] call       6   2   1  
70EF  9D410000           [38] getglobal  6   1        ; gMatchingService
70F3  A4814303           [39] self       6   6   270  ; 952090384
70F7  12028002           [40] move       8   5      
70FB  52028000           [41] move       9   1      
70FF  97020000           [42] loadbool   10  0   0    ; false
7103  D9C20300           [43] loadk      11  15       ; 0
7107  12030000           [44] move       12  0      
710B  A2418003           [45] call       6   7   1  
710F  1E008000           [46] return     0   1      
                         * constants:
7113  10                 sizek (16)
7114  04                 const type 4
7115  07                 string size (7)
7116  6D4D6F76696500     "mMovie\0"
                         const [0]: "mMovie"
711D  04                 const type 4
711E  11                 string size (17)
711F  674D61746368696E+  "gMatchin"
7127  6753657276696365+  "gService"
712F  00                 "\0"
                         const [1]: "gMatchingService"
7130  01                 const type 3
7131  EF47C8E1           const [2]: (-506968081)
7135  01                 const type 3
7136  65770E40           const [3]: (1074689893)
713A  01                 const type 3
713B  408A0FD7           const [4]: (-686847424)
713F  04                 const type 4
7140  12                 string size (18)
7141  67506C6179657250+  "gPlayerP"
7149  726F66696C654D67+  "rofileMg"
7151  7200               "r\0"
                         const [5]: "gPlayerProfileMgr"
7153  01                 const type 3
7154  1A7BEF21           const [6]: (569342746)
7158  03                 const type 3
7159  00000000           const [7]: (0)
715D  01                 const type 3
715E  F450EA4D           const [8]: (1307201780)
7162  01                 const type 3
7163  6B25B193           const [9]: (-1817107093)
7167  04                 const type 4
7168  25                 string size (37)
7169  4C6F7475734E6574+  "LotusNet"
7171  776F726B5574696C+  "workUtil"
7179  6974696573202D20+  "ities - "
7181  6C6F626279207265+  "lobby re"
7189  6164792100         "ady!\0"
                         const [10]: "LotusNetworkUtilities - lobby ready!"
718E  01                 const type 3
718F  A9278F45           const [11]: (1167009705)
7193  04                 const type 4
7194  05                 string size (5)
7195  7472756500         "true\0"
                         const [12]: "true"
719A  04                 const type 4
719B  26                 string size (38)
719C  4C6F7475734E6574+  "LotusNet"
71A4  776F726B5574696C+  "workUtil"
71AC  69746965732E6C75+  "ities.lu"
71B4  61202D204A6F696E+  "a - Join"
71BC  4C6F62627900       "Lobby\0"
                         const [13]: "LotusNetworkUtilities.lua - JoinLobby"
71C2  01                 const type 3
71C3  10BFBF38           const [14]: (952090384)
71C7  03                 const type 3
71C8  00007F43           const [15]: (0)
                         * functions:
71CC  00                 sizep (0)
                         * lines:
71CD  2E                 sizelineinfo (46)
                         [pc] (line)
71CE  F3                 [01] (-13)
71CF  03                 [02] (-13)
71D0  00                 [03] (-12)
71D1  00                 [04] (-10)
71D2  F3                 [05] (-10)
71D3  03                 [06] (-10)
71D4  00                 [07] (-10)
71D5  00                 [08] (-10)
71D6  F4                 [09] (-10)
71D7  03                 [10] (-10)
71D8  00                 [11] (-10)
71D9  00                 [12] (-10)
71DA  F6                 [13] (-10)
71DB  03                 [14] (-9)
71DC  00                 [15] (-9)
71DD  00                 [16] (-9)
71DE  F6                 [17] (-9)
71DF  03                 [18] (-9)
71E0  00                 [19] (-7)
71E1  00                 [20] (-7)
71E2  F6                 [21] (-7)
71E3  03                 [22] (-7)
71E4  00                 [23] (-6)
71E5  00                 [24] (-6)
71E6  F6                 [25] (-6)
71E7  03                 [26] (-6)
71E8  00                 [27] (-5)
71E9  00                 [28] (-5)
71EA  F6                 [29] (-5)
71EB  03                 [30] (-4)
71EC  00                 [31] (-4)
71ED  00                 [32] (-4)
71EE  F6                 [33] (-4)
71EF  03                 [34] (-4)
71F0  00                 [35] (-2)
71F1  00                 [36] (-2)
71F2  F6                 [37] (-2)
71F3  03                 [38] (-1)
71F4  00                 [39] (-1)
71F5  00                 [40] (-1)
71F6  F6                 [41] (-1)
71F7  03                 [42] (-1)
71F8  00                 [43] (-1)
71F9  00                 [44] (-1)
71FA  F6                 [45] (-1)
71FB  03                 [46] (2)
                         * locals:
7286  00                 sizelocvars (0)
                         * upvalues:
7287  00                 sizeupvalues (0)
                         ** end of function **

                         
7288                     ** function [24] definition (level 2)
                         ** start of function **
7288  00                 string size (0)
                         source name: (none)
728A  08                 line defined (1028)
728B  9A                 last line defined (1050)
728C  08                 nups (1)
728D  01                 numparams (4)
728E  04                 is_vararg (0)
728F  00                 maxstacksize (14)
                         * code:
7291  35                 sizecode (53)
fail op	35
7292  2300C001           [01] close      0  
7296  1A800080           [02] jmp        3            ; to [6]
729A  53010000           [03] getupval   5   0      
729E  62818000           [04] call       5   1   2  
72A2  0E41C002           [05] gettable   4   5   257  ; "mMovie"
72A6  9D810000           [06] getglobal  6   2        ; gMatchingService
72AA  A4C14003           [07] self       6   6   259  ; -506968081
72AE  A2810001           [08] call       6   2   2  
72B2  98010000           [09] test       6       0    ; to [11] if true
72B6  1A400280           [10] jmp        10           ; to [21]
72BA  9D010100           [11] getglobal  6   4        ; 1074689893
72BE  D2010001           [12] move       7   2      
72C2  A2810001           [13] call       6   2   2  
72C6  98410000           [14] test       6       1    ; to [16] if false
72CA  1A000180           [15] jmp        5            ; to [21]
72CE  9D810000           [16] getglobal  6   2        ; gMatchingService
72D2  A4414103           [17] self       6   6   261  ; -686847424
72D6  12020000           [18] move       8   0      
72DA  A2418001           [19] call       6   3   1  
72DE  1AC00780           [20] jmp        32           ; to [53]
72E2  9D810100           [21] getglobal  6   6        ; gPlayerProfileMgr
72E6  A4C14103           [22] self       6   6   263  ; 569342746
72EA  19020200           [23] loadk      8   8        ; 0
72EE  A2818001           [24] call       6   3   2  
72F2  E441C200           [25] self       7   1   265  ; 1307201780
72F6  E2810001           [26] call       7   2   2  
72FA  D8010000           [27] test       7       0    ; to [29] if true
72FE  1A000380           [28] jmp        13           ; to [42]
7302  DD810200           [29] getglobal  7   10       ; -1817107093
7306  19C20200           [30] loadk      8   11       ; "LotusNetworkUtilities - lobby ready!"
730A  E2410001           [31] call       7   2   1  
730E  DD010100           [32] getglobal  7   4        ; 1074689893
7312  12020002           [33] move       8   4      
7316  E2810001           [34] call       7   2   2  
731A  D8410000           [35] test       7       1    ; to [37] if false
731E  1AC00380           [36] jmp        16           ; to [53]
7322  E4014302           [37] self       7   4   268  ; 1167009705
7326  52020000           [38] move       9   0      
732A  99420300           [39] loadk      10  13       ; "true"
732E  E2410002           [40] call       7   4   1  
7332  1A800280           [41] jmp        11           ; to [53]
7336  DD810200           [42] getglobal  7   10       ; -1817107093
733A  19820300           [43] loadk      8   14       ; "LotusNetworkUtilities.lua - JoinLobby"
733E  E2410001           [44] call       7   2   1  
7342  DD810000           [45] getglobal  7   2        ; gMatchingService
7346  E4C1C303           [46] self       7   7   271  ; -1602145785
734A  52020003           [47] move       9   6      
734E  92028000           [48] move       10  1      
7352  D7020000           [49] loadbool   11  0   0    ; false
7356  19030400           [50] loadk      12  16       ; 0
735A  52030000           [51] move       13  0      
735E  E2418003           [52] call       7   7   1  
7362  1E008000           [53] return     0   1      
                         * constants:
7366  11                 sizek (17)
7367  00                 const type 0
                         const [0]: nil
7368  04                 const type 4
7369  07                 string size (7)
736A  6D4D6F76696500     "mMovie\0"
                         const [1]: "mMovie"
7371  04                 const type 4
7372  11                 string size (17)
7373  674D61746368696E+  "gMatchin"
737B  6753657276696365+  "gService"
7383  00                 "\0"
                         const [2]: "gMatchingService"
7384  01                 const type 3
7385  EF47C8E1           const [3]: (-506968081)
7389  01                 const type 3
738A  65770E40           const [4]: (1074689893)
738E  01                 const type 3
738F  408A0FD7           const [5]: (-686847424)
7393  04                 const type 4
7394  12                 string size (18)
7395  67506C6179657250+  "gPlayerP"
739D  726F66696C654D67+  "rofileMg"
73A5  7200               "r\0"
                         const [6]: "gPlayerProfileMgr"
73A7  01                 const type 3
73A8  1A7BEF21           const [7]: (569342746)
73AC  03                 const type 3
73AD  00000000           const [8]: (0)
73B1  01                 const type 3
73B2  F450EA4D           const [9]: (1307201780)
73B6  01                 const type 3
73B7  6B25B193           const [10]: (-1817107093)
73BB  04                 const type 4
73BC  25                 string size (37)
73BD  4C6F7475734E6574+  "LotusNet"
73C5  776F726B5574696C+  "workUtil"
73CD  6974696573202D20+  "ities - "
73D5  6C6F626279207265+  "lobby re"
73DD  6164792100         "ady!\0"
                         const [11]: "LotusNetworkUtilities - lobby ready!"
73E2  01                 const type 3
73E3  A9278F45           const [12]: (1167009705)
73E7  04                 const type 4
73E8  05                 string size (5)
73E9  7472756500         "true\0"
                         const [13]: "true"
73EE  04                 const type 4
73EF  26                 string size (38)
73F0  4C6F7475734E6574+  "LotusNet"
73F8  776F726B5574696C+  "workUtil"
7400  69746965732E6C75+  "ities.lu"
7408  61202D204A6F696E+  "a - Join"
7410  4C6F62627900       "Lobby\0"
                         const [14]: "LotusNetworkUtilities.lua - JoinLobby"
7416  01                 const type 3
7417  073281A0           const [15]: (-1602145785)
741B  03                 const type 3
741C  00007F43           const [16]: (0)
                         * functions:
7420  00                 sizep (0)
                         * lines:
7421  35                 sizelineinfo (53)
                         [pc] (line)
7422  07                 [01] (7)
7423  04                 [02] (7)
7424  00                 [03] (8)
7425  00                 [04] (8)
7426  07                 [05] (9)
7427  04                 [06] (12)
7428  00                 [07] (12)
7429  00                 [08] (12)
742A  08                 [09] (12)
742B  04                 [10] (12)
742C  00                 [11] (12)
742D  00                 [12] (12)
742E  08                 [13] (12)
742F  04                 [14] (12)
7430  00                 [15] (12)
7431  00                 [16] (13)
7432  09                 [17] (13)
7433  04                 [18] (13)
7434  00                 [19] (13)
7435  00                 [20] (13)
7436  0C                 [21] (15)
7437  04                 [22] (15)
7438  00                 [23] (15)
7439  00                 [24] (15)
743A  0C                 [25] (16)
743B  04                 [26] (16)
743C  00                 [27] (16)
743D  00                 [28] (16)
743E  0C                 [29] (17)
743F  04                 [30] (17)
7440  00                 [31] (17)
7441  00                 [32] (18)
7442  0C                 [33] (18)
7443  04                 [34] (18)
7444  00                 [35] (18)
7445  00                 [36] (18)
7446  0C                 [37] (19)
7447  04                 [38] (19)
7448  00                 [39] (19)
7449  00                 [40] (19)
744A  0C                 [41] (20)
744B  04                 [42] (22)
744C  00                 [43] (22)
744D  00                 [44] (22)
744E  0C                 [45] (23)
744F  04                 [46] (23)
7450  00                 [47] (23)
7451  00                 [48] (23)
7452  0C                 [49] (23)
7453  04                 [50] (23)
7454  00                 [51] (23)
7455  00                 [52] (23)
7456  0C                 [53] (26)
                         * locals:
74F6  00                 sizelocvars (0)
                         * upvalues:
74F7  00                 sizeupvalues (0)
                         ** end of function **

                         
74F8                     ** function [25] definition (level 2)
                         ** start of function **
74F8  00                 string size (0)
                         source name: (none)
74FA  08                 line defined (1052)
74FB  9E                 last line defined (1054)
74FC  08                 nups (1)
74FD  01                 numparams (4)
74FE  04                 is_vararg (0)
74FF  00                 maxstacksize (9)
                         * code:
7501  07                 sizecode (7)
7502  13010000           [1] getupval   4   0      
7506  52010000           [2] move       5   0      
750A  92018000           [3] move       6   1      
750E  D2010001           [4] move       7   2      
7512  12028001           [5] move       8   3      
7516  22418002           [6] call       4   5   1  
751A  1E008000           [7] return     0   1      
                         * constants:
751E  00                 sizek (0)
                         * functions:
751F  00                 sizep (0)
                         * lines:
7520  07                 sizelineinfo (7)
                         [pc] (line)
7521  1D                 [1] (29)
7522  04                 [2] (29)
7523  00                 [3] (29)
7524  00                 [4] (29)
7525  1D                 [5] (29)
7526  04                 [6] (29)
7527  00                 [7] (30)
                         * locals:
753D  00                 sizelocvars (0)
                         * upvalues:
753E  00                 sizeupvalues (0)
                         ** end of function **

                         
753F                     ** function [26] definition (level 2)
                         ** start of function **
753F  00                 string size (0)
                         source name: (none)
7541  08                 line defined (1056)
7542  B3                 last line defined (1075)
7543  08                 nups (0)
7544  00                 numparams (2)
7545  02                 is_vararg (0)
7546  00                 maxstacksize (11)
                         * code:
7548  1D                 sizecode (29)
7549  18400000           [01] test       0       1    ; to [3] if false
754D  1A000080           [02] jmp        1            ; to [4]
7551  5E000001           [03] return     1   2      
7555  9D000000           [04] getglobal  2   0        ; gMatchingService
7559  A4404001           [05] self       2   2   257  ; -1985412809
755D  A2800001           [06] call       2   2   2  
7561  D2008000           [07] move       3   1      
7565  19810000           [08] loadk      4   2        ; 0
7569  4A010001           [09] len        5   2      
756D  99810000           [10] loadk      6   2        ; 0
7571  10810380           [11] forprep    4   15       ; to [27]
7575  1DC20000           [12] getglobal  8   3        ; 469076166
7579  59020100           [13] loadk      9   4        ; 0
757D  22420001           [14] call       8   2   1  
7581  0EC20101           [15] gettable   8   2   7  
7585  5D420100           [16] getglobal  9   5        ; cjson
7589  4E82C104           [17] gettable   9   9   262  ; -1976663275
758D  8EC24104           [18] gettable   10  8   263  ; "loadout"
7591  62820001           [19] call       9   2   2  
7595  8E02C204           [20] gettable   10  9   264  ; "pvpRank"
7599  98020000           [21] test       10      0    ; to [23] if true
759D  1AC00080           [22] jmp        4            ; to [27]
75A1  8E02C204           [23] gettable   10  9   264  ; "pvpRank"
fail op	21
75A5  15808201           [24] concat     0   3   10 
75A9  1A000080           [25] jmp        1            ; to [27]
75AD  CE00C204           [26] gettable   3   9   264  ; "pvpRank"
75B1  14C1FB7F           [27] forloop    4   -16      ; to [12] if loop
75B5  DE000001           [28] return     3   2      
75B9  1E008000           [29] return     0   1      
                         * constants:
75BD  09                 sizek (9)
75BE  04                 const type 4
75BF  11                 string size (17)
75C0  674D61746368696E+  "gMatchin"
75C8  6753657276696365+  "gService"
75D0  00                 "\0"
                         const [0]: "gMatchingService"
75D1  01                 const type 3
75D2  3701A989           const [1]: (-1985412809)
75D6  03                 const type 3
75D7  0000803F           const [2]: (0)
75DB  01                 const type 3
75DC  C688F51B           const [3]: (469076166)
75E0  03                 const type 3
75E1  00000000           const [4]: (0)
75E5  04                 const type 4
75E6  06                 string size (6)
75E7  636A736F6E00       "cjson\0"
                         const [5]: "cjson"
75ED  01                 const type 3
75EE  15832E8A           const [6]: (-1976663275)
75F2  04                 const type 4
75F3  08                 string size (8)
75F4  6C6F61646F757400   "loadout\0"
                         const [7]: "loadout"
75FC  04                 const type 4
75FD  08                 string size (8)
75FE  70767052616E6B00   "pvpRank\0"
                         const [8]: "pvpRank"
                         * functions:
7606  00                 sizep (0)
                         * lines:
7607  1D                 sizelineinfo (29)
                         [pc] (line)
7608  22                 [01] (34)
7609  04                 [02] (34)
760A  00                 [03] (35)
760B  00                 [04] (38)
760C  22                 [05] (38)
760D  04                 [06] (38)
760E  00                 [07] (39)
760F  00                 [08] (40)
7610  23                 [09] (40)
7611  04                 [10] (40)
7612  00                 [11] (40)
7613  00                 [12] (41)
7614  26                 [13] (41)
7615  04                 [14] (41)
7616  00                 [15] (42)
7617  00                 [16] (43)
7618  26                 [17] (43)
7619  04                 [18] (43)
761A  00                 [19] (43)
761B  00                 [20] (45)
761C  26                 [21] (45)
761D  04                 [22] (45)
761E  00                 [23] (45)
761F  00                 [24] (45)
7620  27                 [25] (45)
7621  04                 [26] (46)
7622  00                 [27] (40)
7623  00                 [28] (50)
7624  28                 [29] (51)
                         * locals:
767C  00                 sizelocvars (0)
                         * upvalues:
767D  00                 sizeupvalues (0)
                         ** end of function **

                         
767E                     ** function [27] definition (level 2)
                         ** start of function **
767E  00                 string size (0)
                         source name: (none)
7680  08                 line defined (1077)
7681  B7                 last line defined (1079)
7682  08                 nups (1)
7683  01                 numparams (2)
7684  02                 is_vararg (0)
7685  00                 maxstacksize (5)
                         * code:
7687  06                 sizecode (6)
7688  93000000           [1] getupval   2   0      
768C  D2000000           [2] move       3   0      
7690  12018000           [3] move       4   1      
7694  87008001           [4] tailcall   2   3   0  
7698  9E000000           [5] return     2   0      
769C  1E008000           [6] return     0   1      
                         * constants:
76A0  00                 sizek (0)
                         * functions:
76A1  00                 sizep (0)
                         * lines:
76A2  06                 sizelineinfo (6)
                         [pc] (line)
76A3  36                 [1] (54)
76A4  04                 [2] (54)
76A5  00                 [3] (54)
76A6  00                 [4] (54)
76A7  36                 [5] (54)
76A8  04                 [6] (55)
                         * locals:
76BB  00                 sizelocvars (0)
                         * upvalues:
76BC  00                 sizeupvalues (0)
                         ** end of function **

                         
76BD                     ** function [28] definition (level 2)
                         ** start of function **
76BD  00                 string size (0)
                         source name: (none)
76BF  08                 line defined (1081)
76C0  C4                 last line defined (1092)
76C1  08                 nups (2)
76C2  02                 numparams (2)
76C3  02                 is_vararg (0)
76C4  00                 maxstacksize (5)
                         * code:
76C6  12                 sizecode (18)
76C7  93000000           [01] getupval   2   0      
76CB  8E404001           [02] gettable   2   2   257  ; -566530878
76CF  D2008000           [03] move       3   1      
76D3  A2800001           [04] call       2   2   2  
76D7  0C800080           [05] settable   0   256 2    ; "eloRating"
76DB  93008000           [06] getupval   2   1      
76DF  D2008000           [07] move       3   1      
76E3  19810000           [08] loadk      4   2        ; 0
76E7  A2808001           [09] call       2   3   2  
76EB  D3000000           [10] getupval   3   0      
76EF  CEC0C001           [11] gettable   3   3   259  ; 385817931
76F3  12010001           [12] move       4   2      
76F7  E2800001           [13] call       3   2   2  
76FB  0E014000           [14] gettable   4   0   256  ; "eloRating"
fail op	21
76FF  15C00002           [15] concat     0   4   3  
7703  1A000080           [16] jmp        1            ; to [18]
7707  0CC00080           [17] settable   0   256 3    ; "eloRating"
770B  1E008000           [18] return     0   1      
                         * constants:
770F  04                 sizek (4)
7710  04                 const type 4
7711  0A                 string size (10)
7712  656C6F526174696E+  "eloRatin"
771A  6700               "g\0"
                         const [0]: "eloRating"
771C  01                 const type 3
771D  C26C3BDE           const [1]: (-566530878)
7721  03                 const type 3
7722  00000000           const [2]: (0)
7726  01                 const type 3
7727  4B1DFF16           const [3]: (385817931)
                         * functions:
772B  00                 sizep (0)
                         * lines:
772C  12                 sizelineinfo (18)
                         [pc] (line)
772D  3A                 [01] (58)
772E  04                 [02] (58)
772F  00                 [03] (58)
7730  00                 [04] (58)
7731  3A                 [05] (58)
7732  04                 [06] (63)
7733  00                 [07] (63)
7734  00                 [08] (63)
7735  3A                 [09] (63)
7736  04                 [10] (64)
7737  00                 [11] (64)
7738  00                 [12] (64)
7739  3A                 [13] (64)
773A  04                 [14] (65)
773B  00                 [15] (65)
773C  00                 [16] (65)
773D  3A                 [17] (66)
773E  04                 [18] (68)
                         * locals:
7775  00                 sizelocvars (0)
                         * upvalues:
7776  00                 sizeupvalues (0)
                         ** end of function **

                         
7777                     ** function [29] definition (level 2)
                         ** start of function **
7777  00                 string size (0)
                         source name: (none)
7779  08                 line defined (1094)
777A  D4                 last line defined (1108)
777B  08                 nups (3)
777C  03                 numparams (2)
777D  02                 is_vararg (0)
777E  00                 maxstacksize (5)
                         * code:
7780  17                 sizecode (23)
7781  58000000           [01] test       1       0    ; to [3] if true
7785  1A800080           [02] jmp        3            ; to [6]
7789  0C404080           [03] settable   0   256 257  ; "maxEloDifference" 0
778D  0CC04081           [04] settable   0   258 259  ; "enforceElo" 1
7791  1A400080           [05] jmp        2            ; to [8]
7795  93000000           [06] getupval   2   0      
7799  0C800080           [07] settable   0   256 2    ; "maxEloDifference"
779D  93008000           [08] getupval   2   1      
77A1  D2000000           [09] move       3   0      
77A5  12018000           [10] move       4   1      
77A9  A2408001           [11] call       2   3   1  
77AD  93000001           [12] getupval   2   2      
77B1  8E004101           [13] gettable   2   2   260  ; -323475314
77B5  CE404100           [14] gettable   3   0   261  ; "gameModeId"
77B9  A2800001           [15] call       2   2   2  
77BD  98000000           [16] test       2       0    ; to [18] if true
77C1  1A000180           [17] jmp        5            ; to [23]
77C5  9D800100           [18] getglobal  2   6        ; _G
77C9  8EC04101           [19] gettable   2   2   263  ; "gClanOnlyMatchMaking"
77CD  98000000           [20] test       2       0    ; to [22] if true
77D1  1A000080           [21] jmp        1            ; to [23]
77D5  0CC04084           [22] settable   0   264 259  ; "guildOnly" 1
77D9  1E008000           [23] return     0   1      
                         * constants:
77DD  09                 sizek (9)
77DE  04                 const type 4
77DF  11                 string size (17)
77E0  6D6178456C6F4469+  "maxEloDi"
77E8  66666572656E6365+  "fference"
77F0  00                 "\0"
                         const [0]: "maxEloDifference"
77F1  03                 const type 3
77F2  0000803F           const [1]: (0)
77F6  04                 const type 4
77F7  0B                 string size (11)
77F8  656E666F72636545+  "enforceE"
7800  6C6F00             "lo\0"
                         const [2]: "enforceElo"
7803  01                 const type 3
7804  01000000           const [3]: (1)
7808  01                 const type 3
7809  8E28B8EC           const [4]: (-323475314)
780D  04                 const type 4
780E  0B                 string size (11)
780F  67616D654D6F6465+  "gameMode"
7817  496400             "Id\0"
                         const [5]: "gameModeId"
781A  04                 const type 4
781B  03                 string size (3)
781C  5F4700             "_G\0"
                         const [6]: "_G"
781F  04                 const type 4
7820  15                 string size (21)
7821  67436C616E4F6E6C+  "gClanOnl"
7829  794D617463684D61+  "yMatchMa"
7831  6B696E6700         "king\0"
                         const [7]: "gClanOnlyMatchMaking"
7836  04                 const type 4
7837  0A                 string size (10)
7838  6775696C644F6E6C+  "guildOnl"
7840  7900               "y\0"
                         const [8]: "guildOnly"
                         * functions:
7842  00                 sizep (0)
                         * lines:
7843  17                 sizelineinfo (23)
                         [pc] (line)
7844  47                 [01] (71)
7845  04                 [02] (71)
7846  00                 [03] (72)
7847  00                 [04] (73)
7848  47                 [05] (73)
7849  04                 [06] (75)
784A  00                 [07] (75)
784B  00                 [08] (78)
784C  48                 [09] (78)
784D  04                 [10] (78)
784E  00                 [11] (78)
784F  00                 [12] (81)
7850  49                 [13] (81)
7851  04                 [14] (81)
7852  00                 [15] (81)
7853  00                 [16] (81)
7854  49                 [17] (81)
7855  04                 [18] (81)
7856  00                 [19] (81)
7857  00                 [20] (81)
7858  4B                 [21] (81)
7859  04                 [22] (82)
785A  00                 [23] (84)
                         * locals:
78A0  00                 sizelocvars (0)
                         * upvalues:
78A1  00                 sizeupvalues (0)
                         ** end of function **

                         
78A2                     ** function [30] definition (level 2)
                         ** start of function **
78A2  00                 string size (0)
                         source name: (none)
78A4  08                 line defined (1110)
78A5  E8                 last line defined (1256)
78A6  09                 nups (4)
78A7  04                 numparams (3)
78A8  03                 is_vararg (0)
78A9  00                 maxstacksize (28)
                         * code:
78AC  03                 sizecode (415)
78AD  DD000000           [001] getglobal  3   0        ; gMatchingService
78B1  E440C001           [002] self       3   3   257  ; 149256425
78B5  E2800001           [003] call       3   2   2  
78B9  D8000000           [004] test       3       0    ; to [6] if true
78BD  1A400080           [005] jmp        2            ; to [8]
78C1  D7000000           [006] loadbool   3   0   0    ; false
78C5  DE000001           [007] return     3   2      
78C9  DD800000           [008] getglobal  3   2        ; string
78CD  CEC0C001           [009] gettable   3   3   259  ; -565905820
78D1  12010000           [010] move       4   0      
78D5  53010000           [011] getupval   5   0      
78D9  4E01C102           [012] gettable   5   5   260  ; "HUB_TAG"
78DD  E2808001           [013] call       3   3   2  
78E1  D8000000           [014] test       3       0    ; to [16] if true
78E5  1A400080           [015] jmp        2            ; to [18]
78E9  D7000000           [016] loadbool   3   0   0    ; false
78ED  DE000001           [017] return     3   2      
78F1  DD400100           [018] getglobal  3   5        ; -1817107093
78F5  19810100           [019] loadk      4   6        ; "FindPublicSessionsForNode"
78F9  E2400001           [020] call       3   2   1  
78FD  DDC00100           [021] getglobal  3   7        ; gPlayerProfileMgr
7901  E400C201           [022] self       3   3   264  ; 569342746
7905  59410200           [023] loadk      5   9        ; 0
7909  E2808001           [024] call       3   3   2  
790D  2481C201           [025] self       4   3   266  ; 1055613230
7911  22810001           [026] call       4   2   2  
7915  64C14202           [027] self       5   4   267  ; 1582861505
7919  62810001           [028] call       5   2   2  
791D  9D010300           [029] getglobal  6   12       ; Engine
7921  8E414303           [030] gettable   6   6   269  ; 433648266
7925  A2818000           [031] call       6   1   2  
7929  DD010000           [032] getglobal  7   0        ; gMatchingService
792D  E481C303           [033] self       7   7   270  ; 619827627
7931  E2810001           [034] call       7   2   2  
7935  D8010000           [035] test       7       0    ; to [37] if true
7939  1AC00080           [036] jmp        4            ; to [41]
793D  1D020300           [037] getglobal  8   12       ; Engine
7941  0E024404           [038] gettable   8   8   272  ; "RANKED"
7945  8C018287           [039] settable   6   271 8    ; "matchType"
7949  1A800080           [040] jmp        3            ; to [44]
794D  1D020300           [041] getglobal  8   12       ; Engine
7951  0E424404           [042] gettable   8   8   273  ; "LAN"
7955  8C018287           [043] settable   6   271 8    ; "matchType"
7959  13020000           [044] getupval   8   0      
795D  0EC24404           [045] gettable   8   8   275  ; -454716625
7961  52020000           [046] move       9   0      
7965  22820001           [047] call       8   2   2  
7969  8C010289           [048] settable   6   274 8    ; "gameModeId"
796D  13028000           [049] getupval   8   1      
7971  4E02C502           [050] gettable   9   5   276  ; "regionId"
7975  22820001           [051] call       8   2   2  
7979  8C01028A           [052] settable   6   276 8    ; "regionId"
797D  1D420500           [053] getglobal  8   21       ; _G
7981  0E824504           [054] gettable   8   8   278  ; "gClanOnlyMatchMaking"
7985  5DC20500           [055] getglobal  9   23       ; SESSION_ALLIANCE_ONLY
fail op	35
7989  23400204           [056] close      0  
798D  1A400180           [057] jmp        6            ; to [64]
7991  2442C601           [058] self       8   3   281  ; 1699680402
7995  22820001           [059] call       8   2   2  
7999  24824604           [060] self       8   8   282  ; 2040103689
799D  22820001           [061] call       8   2   2  
79A1  8C01028C           [062] settable   6   280 8    ; "guildId"
79A5  1A000180           [063] jmp        5            ; to [69]
79A9  2442C601           [064] self       8   3   281  ; 1699680402
79AD  22820001           [065] call       8   2   2  
79B1  24C24604           [066] self       8   8   283  ; 360266085
79B5  22820001           [067] call       8   2   2  
79B9  8C01028C           [068] settable   6   280 8    ; "guildId"
79BD  1D820000           [069] getglobal  8   2        ; string
79C1  0EC24004           [070] gettable   8   8   259  ; -565905820
79C5  52020000           [071] move       9   0      
79C9  93020000           [072] getupval   10  0      
79CD  8E024705           [073] gettable   10  10  284  ; "KEY_TAG"
79D1  22828001           [074] call       8   3   2  
79D5  18020000           [075] test       8       0    ; to [77] if true
79D9  1AC00180           [076] jmp        8            ; to [85]
79DD  5D820000           [077] getglobal  9   2        ; string
79E1  4E42C704           [078] gettable   9   9   285  ; 2071470131
79E5  92020000           [079] move       10  0      
79E9  D9820700           [080] loadk      11  30       ; 0
79ED  0D834704           [081] sub        12  8   286  ; 0
79F1  62820002           [082] call       9   4   2  
79F5  8C41828F           [083] settable   6   287 9    ; "map"
79F9  8C414890           [084] settable   6   288 289  ; "wantMap" 1
79FD  92020000           [085] move       10  0      
7A01  DD820000           [086] getglobal  11  2        ; string
7A05  CEC2C005           [087] gettable   11  11  259  ; -565905820
7A09  12030000           [088] move       12  0      
7A0D  53030000           [089] getupval   13  0      
7A11  4E83C806           [090] gettable   13  13  290  ; "TAG_SEPERATOR"
7A15  E2828001           [091] call       11  3   2  
fail op	35
7A19  63C0C805           [092] close      1  
7A1D  1A800180           [093] jmp        7            ; to [101]
7A21  1D830000           [094] getglobal  12  2        ; string
7A25  0E434706           [095] gettable   12  12  285  ; 2071470131
7A29  52030000           [096] move       13  0      
7A2D  99830700           [097] loadk      14  30       ; 0
7A31  CD83C705           [098] sub        15  11  286  ; 0
7A35  22830002           [099] call       12  4   2  
7A39  92020006           [100] move       10  12     
7A3D  13030000           [101] getupval   12  0      
7A41  0E034906           [102] gettable   12  12  292  ; -1153782542
7A45  22838000           [103] call       12  1   2  
7A49  24434906           [104] self       12  12  293  ; -551469855
7A4D  9D830900           [105] getglobal  14  38       ; -332969190
7A51  D2030005           [106] move       15  10     
7A55  A2030001           [107] call       14  2   0  
7A59  22830000           [108] call       12  0   2  
7A5D  57030000           [109] loadbool   13  0   0    ; false
7A61  8EC34906           [110] gettable   14  12  295  ; "mission"
7A65  98030000           [111] test       14      0    ; to [113] if true
7A69  1A400680           [112] jmp        26           ; to [139]
7A6D  8EC34906           [113] gettable   14  12  295  ; "mission"
7A71  8E034A07           [114] gettable   14  14  296  ; "missionType"
7A75  DD430A00           [115] getglobal  15  41       ; Lotus_Game
7A79  CE83CA07           [116] gettable   15  15  298  ; "MT_LANDSCAPE"
fail op	35
7A7D  23C00307           [117] close      0  
7A81  1AC00480           [118] jmp        20           ; to [139]
7A85  9DC30A00           [119] getglobal  14  43       ; 1074689893
7A89  DD030B00           [120] getglobal  15  44       ; _T
7A8D  CE43CB07           [121] gettable   15  15  301  ; "gPendingMission"
7A91  CE83CB07           [122] gettable   15  15  302  ; "job"
7A95  A2830001           [123] call       14  2   2  
7A99  98430000           [124] test       14      1    ; to [126] if false
7A9D  1A400180           [125] jmp        6            ; to [132]
7AA1  8C414890           [126] settable   6   288 289  ; "wantMap" 1
7AA5  9D030B00           [127] getglobal  14  44       ; _T
7AA9  8E434B07           [128] gettable   14  14  301  ; "gPendingMission"
7AAD  8E834B07           [129] gettable   14  14  302  ; "job"
7AB1  8C81838F           [130] settable   6   287 14   ; "map"
7AB5  1A800180           [131] jmp        7            ; to [139]
7AB9  93030000           [132] getupval   14  0      
7ABD  8E034C07           [133] gettable   14  14  304  ; "PLAINS_ELO_INSIDE_SAFE_ZONE"
7AC1  8C818397           [134] settable   6   303 14   ; "eloRating"
7AC5  8C81C798           [135] settable   6   305 286  ; "maxEloDifference" 0
7AC9  8C414899           [136] settable   6   306 289  ; "enforceElo" 1
7ACD  57038000           [137] loadbool   13  1   0    ; true
7AD1  8C414890           [138] settable   6   288 289  ; "wantMap" 1
7AD5  93030000           [139] getupval   14  0      
7AD9  8EC34C07           [140] gettable   14  14  307  ; 561439263
7ADD  CE834403           [141] gettable   15  6   274  ; "gameModeId"
7AE1  A2830001           [142] call       14  2   2  
7AE5  98030000           [143] test       14      0    ; to [145] if true
7AE9  1A400A80           [144] jmp        42           ; to [187]
7AED  8C41489A           [145] settable   6   308 289  ; "wantTeam" 1
7AF1  93030000           [146] getupval   14  0      
7AF5  8E434D07           [147] gettable   14  14  309  ; -532376892
7AF9  CE834403           [148] gettable   15  6   274  ; "gameModeId"
7AFD  A2830001           [149] call       14  2   2  
7B01  D3030000           [150] getupval   15  0      
7B05  CE83CD07           [151] gettable   15  15  310  ; "BADLAND_ATTACKER_FLAG"
fail op	35
7B09  23C00307           [152] close      0  
7B0D  1A400080           [153] jmp        2            ; to [156]
7B11  8C41C29B           [154] settable   6   311 265  ; "teamId" 0
7B15  1A403680           [155] jmp        218          ; to [374]
7B19  DD830000           [156] getglobal  15  2        ; string
7B1D  CEC3C007           [157] gettable   15  15  259  ; -565905820
7B21  12040000           [158] move       16  0      
7B25  53040000           [159] getupval   17  0      
7B29  4E04CE08           [160] gettable   17  17  312  ; "BADLAND_DEFENDER_TAG"
7B2D  E2838001           [161] call       15  3   2  
7B31  13040000           [162] getupval   16  0      
7B35  0EC44408           [163] gettable   16  16  275  ; -454716625
7B39  52040005           [164] move       17  10     
7B3D  93040000           [165] getupval   18  0      
7B41  8E444E09           [166] gettable   18  18  313  ; "BADLAND_ATTACKER_TAG"
7B45  42848408           [167] concat     17  17  18 
7B49  22840001           [168] call       16  2   2  
7B4D  8C010489           [169] settable   6   274 16   ; "gameModeId"
7B51  8C81C79B           [170] settable   6   311 286  ; "teamId" 0
7B55  8C41489D           [171] settable   6   314 289  ; "wantPlayers" 1
7B59  1D040F00           [172] getglobal  16  60       ; math
7B5D  0E444F08           [173] gettable   16  16  317  ; -1962864584
7B61  59840700           [174] loadk      17  30       ; 0
7B65  9D040000           [175] getglobal  18  0        ; gMatchingService
7B69  A4844F09           [176] self       18  18  318  ; 903726717
7B6D  A2040001           [177] call       18  2   0  
7B71  22840000           [178] call       16  0   2  
7B75  8C01849D           [179] settable   6   315 16   ; "players"
7B79  1D440100           [180] getglobal  16  5        ; -1817107093
7B7D  59C40F00           [181] loadk      17  63       ; "SectorWars looking for attacker session with "
7B81  8EC44E03           [182] gettable   18  6   315  ; "players"
7B85  D9041000           [183] loadk      19  64       ; " free slot(s)"
7B89  42C48408           [184] concat     17  17  19 
7B8D  22440001           [185] call       16  2   1  
7B91  1A802E80           [186] jmp        187          ; to [374]
7B95  13040000           [187] getupval   16  0      
7B99  0E445008           [188] gettable   16  16  321  ; -1558684589
7B9D  4E844403           [189] gettable   17  6   274  ; "gameModeId"
7BA1  22840001           [190] call       16  2   2  
7BA5  18040000           [191] test       16      0    ; to [193] if true
7BA9  1AC00580           [192] jmp        24           ; to [217]
7BAD  8C41489D           [193] settable   6   314 289  ; "wantPlayers" 1
7BB1  1D040F00           [194] getglobal  16  60       ; math
7BB5  0E444F08           [195] gettable   16  16  317  ; -1962864584
7BB9  59840700           [196] loadk      17  30       ; 0
7BBD  9D040000           [197] getglobal  18  0        ; gMatchingService
7BC1  A4844F09           [198] self       18  18  318  ; 903726717
7BC5  A2040001           [199] call       18  2   0  
7BC9  22840000           [200] call       16  0   2  
7BCD  8C01849D           [201] settable   6   315 16   ; "players"
7BD1  1D841000           [202] getglobal  16  66       ; gFlashMgr
7BD5  24C45008           [203] self       16  16  323  ; 277467219
7BD9  99041100           [204] loadk      18  68       ; "Multiplayer.RankedPVP"
7BDD  22848001           [205] call       16  3   2  
7BE1  53040001           [206] getupval   17  2      
7BE5  92040003           [207] move       18  6      
7BE9  D2040008           [208] move       19  16     
7BED  62448001           [209] call       17  3   1  
7BF1  5D440100           [210] getglobal  17  5        ; -1817107093
7BF5  99441100           [211] loadk      18  69       ; "Looking for session with "
7BF9  CEC44E03           [212] gettable   19  6   315  ; "players"
7BFD  19051000           [213] loadk      20  64       ; " free slot(s)"
7C01  82040509           [214] concat     18  18  20 
7C05  62440001           [215] call       17  2   1  
7C09  1A002780           [216] jmp        157          ; to [374]
7C0D  5D440500           [217] getglobal  17  21       ; _G
7C11  4E84D108           [218] gettable   17  17  326  ; "StalkerMode"
7C15  58040000           [219] test       17      0    ; to [221] if true
7C19  1A800080           [220] jmp        3            ; to [224]
7C1D  8C41489D           [221] settable   6   314 289  ; "wantPlayers" 1
7C21  8C41C29D           [222] settable   6   315 265  ; "players" 0
7C25  1A402580           [223] jmp        150          ; to [374]
7C29  5D040B00           [224] getglobal  17  44       ; _T
7C2D  4EC4D108           [225] gettable   17  17  327  ; "gActiveMatchMakingMode"
7C31  9D040B00           [226] getglobal  18  44       ; _T
7C35  8E045209           [227] gettable   18  18  328  ; "MATCHMAKING_QUICKMATCH_GAMEMODE"
fail op	35
7C39  23808408           [228] close      0  
7C3D  1AC02380           [229] jmp        144          ; to [374]
7C41  5D841000           [230] getglobal  17  66       ; gFlashMgr
7C45  64C4D008           [231] self       17  17  323  ; 277467219
7C49  D9041100           [232] loadk      19  68       ; "Multiplayer.RankedPVP"
7C4D  62848001           [233] call       17  3   2  
7C51  58040000           [234] test       17      0    ; to [236] if true
7C55  1AC00080           [235] jmp        4            ; to [240]
7C59  53040000           [236] getupval   17  0      
7C5D  4E44D208           [237] gettable   17  17  329  ; -323475314
7C61  8E844403           [238] gettable   18  6   274  ; "gameModeId"
7C65  62840001           [239] call       17  2   2  
7C69  58430000           [240] test       13      1    ; to [242] if false
7C6D  1AC00080           [241] jmp        4            ; to [246]
7C71  93040001           [242] getupval   18  2      
7C75  D2040003           [243] move       19  6      
7C79  12058008           [244] move       20  17     
7C7D  A2448001           [245] call       18  3   1  
7C81  8E845206           [246] gettable   18  12  330  ; "missionsCompleted"
fail op	35
7C85  23404209           [247] close      0  
7C89  1A000F80           [248] jmp        61           ; to [310]
7C8D  8EC45206           [249] gettable   18  12  331  ; "nodeType"
7C91  DD440A00           [250] getglobal  19  41       ; Lotus_Game
7C95  CE04D309           [251] gettable   19  19  332  ; "NT_MISSION"
fail op	35
7C99  63C00409           [252] close      1  
7C9D  1A000180           [253] jmp        5            ; to [259]
7CA1  8EC45206           [254] gettable   18  12  331  ; "nodeType"
7CA5  DD440A00           [255] getglobal  19  41       ; Lotus_Game
7CA9  CE44D309           [256] gettable   19  19  333  ; "NT_BONUS_MISSION"
fail op	35
7CAD  23C00409           [257] close      0  
7CB1  1A800C80           [258] jmp        51           ; to [310]
7CB5  9D040B00           [259] getglobal  18  44       ; _T
7CB9  8E845309           [260] gettable   18  18  334  ; "CachedAlerts"
7CBD  98040000           [261] test       18      0    ; to [263] if true
7CC1  1A800280           [262] jmp        11           ; to [274]
7CC5  9D040B00           [263] getglobal  18  44       ; _T
7CC9  8E845309           [264] gettable   18  18  334  ; "CachedAlerts"
7CCD  8E840209           [265] gettable   18  18  10 
7CD1  98040000           [266] test       18      0    ; to [268] if true
7CD5  1A400180           [267] jmp        6            ; to [274]
7CD9  9D040B00           [268] getglobal  18  44       ; _T
7CDD  8E845309           [269] gettable   18  18  334  ; "CachedAlerts"
7CE1  8E840209           [270] gettable   18  18  10 
7CE5  8EC45309           [271] gettable   18  18  335  ; "mVisible"
7CE9  98440000           [272] test       18      1    ; to [274] if false
7CED  1AC00880           [273] jmp        36           ; to [310]
7CF1  9D440500           [274] getglobal  18  21       ; _G
7CF5  8E045409           [275] gettable   18  18  336  ; "CachedGoalInfo"
7CF9  8E840209           [276] gettable   18  18  10 
7CFD  98440000           [277] test       18      1    ; to [279] if false
7D01  1A800780           [278] jmp        31           ; to [310]
7D05  9D040B00           [279] getglobal  18  44       ; _T
7D09  8E445409           [280] gettable   18  18  337  ; "CachedInvasionInfo"
7D0D  98040000           [281] test       18      0    ; to [283] if true
7D11  1A000180           [282] jmp        5            ; to [288]
7D15  9D040B00           [283] getglobal  18  44       ; _T
7D19  8E445409           [284] gettable   18  18  337  ; "CachedInvasionInfo"
7D1D  8E840209           [285] gettable   18  18  10 
7D21  98440000           [286] test       18      1    ; to [288] if false
7D25  1A400580           [287] jmp        22           ; to [310]
7D29  93040000           [288] getupval   18  0      
7D2D  8E845409           [289] gettable   18  18  338  ; 1600312217
7D31  D2040005           [290] move       19  10     
7D35  A2840001           [291] call       18  2   2  
7D39  98440000           [292] test       18      1    ; to [294] if false
7D3D  1AC00380           [293] jmp        16           ; to [310]
7D41  9D040B00           [294] getglobal  18  44       ; _T
7D45  8EC45409           [295] gettable   18  18  339  ; "CachedSyndicateMissions"
7D49  98040000           [296] test       18      0    ; to [298] if true
7D4D  1A800280           [297] jmp        11           ; to [309]
7D51  9D040B00           [298] getglobal  18  44       ; _T
7D55  8EC45409           [299] gettable   18  18  339  ; "CachedSyndicateMissions"
7D59  8E840209           [300] gettable   18  18  10 
7D5D  98040000           [301] test       18      0    ; to [303] if true
7D61  1A400180           [302] jmp        6            ; to [309]
7D65  9D040B00           [303] getglobal  18  44       ; _T
7D69  8EC45409           [304] gettable   18  18  339  ; "CachedSyndicateMissions"
7D6D  8E840209           [305] gettable   18  18  10 
7D71  8EC45309           [306] gettable   18  18  335  ; "mVisible"
7D75  98440000           [307] test       18      1    ; to [309] if false
7D79  1A000080           [308] jmp        1            ; to [310]
7D7D  8C4155AA           [309] settable   6   340 341  ; "allowJoinInProgress" 0
7D81  9D440500           [310] getglobal  18  21       ; _G
7D85  8E045409           [311] gettable   18  18  336  ; "CachedGoalInfo"
7D89  8E840209           [312] gettable   18  18  10 
7D8D  98040000           [313] test       18      0    ; to [315] if true
7D91  1A400B80           [314] jmp        46           ; to [361]
7D95  9D440500           [315] getglobal  18  21       ; _G
7D99  8E045409           [316] gettable   18  18  336  ; "CachedGoalInfo"
7D9D  8E840209           [317] gettable   18  18  10 
7DA1  8E845509           [318] gettable   18  18  342  ; "mMaxConclave"
fail op	21
7DA5  55808484           [319] concat     1   265 18 
7DA9  1AC00280           [320] jmp        12           ; to [333]
7DAD  9D440500           [321] getglobal  18  21       ; _G
7DB1  8E045409           [322] gettable   18  18  336  ; "CachedGoalInfo"
7DB5  8E840209           [323] gettable   18  18  10 
7DB9  8EC45509           [324] gettable   18  18  343  ; "mBonusActive"
7DBD  98040000           [325] test       18      0    ; to [327] if true
7DC1  1A400880           [326] jmp        34           ; to [361]
7DC5  9D440500           [327] getglobal  18  21       ; _G
7DC9  8E045409           [328] gettable   18  18  336  ; "CachedGoalInfo"
7DCD  8E840209           [329] gettable   18  18  10 
7DD1  8E045609           [330] gettable   18  18  344  ; "mBonusMaxConclave"
fail op	21
7DD5  15808484           [331] concat     0   265 18 
7DD9  1AC00680           [332] jmp        28           ; to [361]
7DDD  93048001           [333] getupval   18  3      
7DE1  8E445609           [334] gettable   18  18  345  ; -132701534
7DE5  DD440500           [335] getglobal  19  21       ; _G
7DE9  CE04D409           [336] gettable   19  19  336  ; "CachedGoalInfo"
7DED  CE848209           [337] gettable   19  19  10 
7DF1  CEC4D509           [338] gettable   19  19  343  ; "mBonusActive"
7DF5  D8040000           [339] test       19      0    ; to [341] if true
7DF9  1AC00180           [340] jmp        8            ; to [349]
7DFD  DD440500           [341] getglobal  19  21       ; _G
7E01  CE04D409           [342] gettable   19  19  336  ; "CachedGoalInfo"
7E05  CE848209           [343] gettable   19  19  10 
7E09  CE04D609           [344] gettable   19  19  344  ; "mBonusMaxConclave"
fail op	21
7E0D  55C08484           [345] concat     1   265 19 
7E11  1A000080           [346] jmp        1            ; to [348]
7E15  D7440000           [347] loadbool   19  0   1    ; false, to [349]
7E19  D7048000           [348] loadbool   19  1   0    ; true
7E1D  1D450500           [349] getglobal  20  21       ; _G
7E21  0E05540A           [350] gettable   20  20  336  ; "CachedGoalInfo"
7E25  0E85020A           [351] gettable   20  20  10 
7E29  0E05560A           [352] gettable   20  20  344  ; "mBonusMaxConclave"
7E2D  5D450500           [353] getglobal  21  21       ; _G
7E31  4E05D40A           [354] gettable   21  21  336  ; "CachedGoalInfo"
7E35  4E85820A           [355] gettable   21  21  10 
7E39  4E85D50A           [356] gettable   21  21  342  ; "mMaxConclave"
7E3D  A2840002           [357] call       18  4   2  
7E41  8C818497           [358] settable   6   303 18   ; "eloRating"
7E45  8C41C298           [359] settable   6   305 265  ; "maxEloDifference" 0
7E49  8C414899           [360] settable   6   306 289  ; "enforceElo" 1
7E4D  9D440100           [361] getglobal  18  5        ; -1817107093
7E51  D9841600           [362] loadk      19  90       ; "Client gameModeId="
7E55  0E854403           [363] gettable   20  6   274  ; "gameModeId"
7E59  59C51600           [364] loadk      21  91       ; ", ELO="
7E5D  8EC54B03           [365] gettable   22  6   303  ; "eloRating"
7E61  D9051700           [366] loadk      23  92       ; ", range "
7E65  0E464C03           [367] gettable   24  6   305  ; "maxEloDifference"
7E69  59461700           [368] loadk      25  93       ; ", allowJoinInProgress="
7E6D  9D861700           [369] getglobal  26  94       ; -1615931716
7E71  CE065503           [370] gettable   27  6   340  ; "allowJoinInProgress"
7E75  A2860001           [371] call       26  2   2  
7E79  C2848609           [372] concat     19  19  26 
7E7D  A2440001           [373] call       18  2   1  
7E81  93040000           [374] getupval   18  0      
7E85  8EC45709           [375] gettable   18  18  351  ; 1033569056
7E89  CE844403           [376] gettable   19  6   274  ; "gameModeId"
7E8D  A2840001           [377] call       18  2   2  
7E91  DD040B00           [378] getglobal  19  44       ; _T
7E95  CE04D809           [379] gettable   19  19  352  ; "REGION_ID_DERELICT"
fail op	35
7E99  23C00409           [380] close      0  
7E9D  1A400080           [381] jmp        2            ; to [384]
7EA1  D7040000           [382] loadbool   19  0   0    ; false
7EA5  DE040001           [383] return     19  2      
7EA9  E4445802           [384] self       19  4   353  ; -480388638
7EAD  E2840001           [385] call       19  2   2  
7EB1  19851800           [386] loadk      20  98       ; 0
fail op	21
7EB5  15008509           [387] concat     0   19  20 
7EB9  1A000080           [388] jmp        1            ; to [390]
7EBD  8CC184B1           [389] settable   6   355 19   ; "maxPing"
7EC1  5D851000           [390] getglobal  21  66       ; gFlashMgr
7EC5  64C5D00A           [391] self       21  21  323  ; 277467219
7EC9  D9051900           [392] loadk      23  100      ; "Multiplayer.DedicatedServersOnly"
7ECD  62858001           [393] call       21  3   2  
7ED1  58050000           [394] test       21      0    ; to [396] if true
7ED5  1A000080           [395] jmp        1            ; to [397]
7ED9  8C41C8B2           [396] settable   6   357 289  ; "dedicatedServer" 1
7EDD  98000000           [397] test       2       0    ; to [399] if true
7EE1  1AC00180           [398] jmp        8            ; to [407]
7EE5  5D450100           [399] getglobal  21  5        ; -1817107093
7EE9  99851900           [400] loadk      22  102      ; "Incremental search ping limit: "
7EED  DD851700           [401] getglobal  23  94       ; -1615931716
7EF1  12060001           [402] move       24  2      
7EF5  E2850001           [403] call       23  2   2  
7EF9  82C5050B           [404] concat     22  22  23 
7EFD  62450001           [405] call       21  2   1  
7F01  8C8180B3           [406] settable   6   359 2    ; "incrementalPingLimit"
7F05  5D050000           [407] getglobal  21  0        ; gMatchingService
7F09  6405DA0A           [408] self       21  21  360  ; 1920212887
7F0D  D2058001           [409] move       23  3      
7F11  12060003           [410] move       24  6      
7F15  52068000           [411] move       25  1      
7F19  62458002           [412] call       21  5   1  
7F1D  57058000           [413] loadbool   21  1   0    ; true
7F21  5E050001           [414] return     21  2      
7F25  1E008000           [415] return     0   1      
                         * constants:
7F29  69                 sizek (105)
7F2A  04                 const type 4
7F2B  11                 string size (17)
7F2C  674D61746368696E+  "gMatchin"
7F34  6753657276696365+  "gService"
7F3C  00                 "\0"
                         const [0]: "gMatchingService"
7F3D  01                 const type 3
7F3E  E978E508           const [1]: (149256425)
7F42  04                 const type 4
7F43  07                 string size (7)
7F44  737472696E6700     "string\0"
                         const [2]: "string"
7F4B  01                 const type 3
7F4C  64F644DE           const [3]: (-565905820)
7F50  04                 const type 4
7F51  08                 string size (8)
7F52  4855425F54414700   "HUB_TAG\0"
                         const [4]: "HUB_TAG"
7F5A  01                 const type 3
7F5B  6B25B193           const [5]: (-1817107093)
7F5F  04                 const type 4
7F60  1A                 string size (26)
7F61  46696E645075626C+  "FindPubl"
7F69  696353657373696F+  "icSessio"
7F71  6E73466F724E6F64+  "nsForNod"
7F79  6500               "e\0"
                         const [6]: "FindPublicSessionsForNode"
7F7B  04                 const type 4
7F7C  12                 string size (18)
7F7D  67506C6179657250+  "gPlayerP"
7F85  726F66696C654D67+  "rofileMg"
7F8D  7200               "r\0"
                         const [7]: "gPlayerProfileMgr"
7F8F  01                 const type 3
7F90  1A7BEF21           const [8]: (569342746)
7F94  03                 const type 3
7F95  00000000           const [9]: (0)
7F99  01                 const type 3
7F9A  2E61EB3E           const [10]: (1055613230)
7F9E  01                 const type 3
7F9F  C18C585E           const [11]: (1582861505)
7FA3  04                 const type 4
7FA4  07                 string size (7)
7FA5  456E67696E6500     "Engine\0"
                         const [12]: "Engine"
7FAC  01                 const type 3
7FAD  8AF2D819           const [13]: (433648266)
7FB1  01                 const type 3
7FB2  ABD1F124           const [14]: (619827627)
7FB6  04                 const type 4
7FB7  0A                 string size (10)
7FB8  6D61746368547970+  "matchTyp"
7FC0  6500               "e\0"
                         const [15]: "matchType"
7FC2  04                 const type 4
7FC3  07                 string size (7)
7FC4  52414E4B454400     "RANKED\0"
                         const [16]: "RANKED"
7FCB  04                 const type 4
7FCC  04                 string size (4)
7FCD  4C414E00           "LAN\0"
                         const [17]: "LAN"
7FD1  04                 const type 4
7FD2  0B                 string size (11)
7FD3  67616D654D6F6465+  "gameMode"
7FDB  496400             "Id\0"
                         const [18]: "gameModeId"
7FDE  01                 const type 3
7FDF  2F93E5E4           const [19]: (-454716625)
7FE3  04                 const type 4
7FE4  09                 string size (9)
7FE5  726567696F6E4964+  "regionId"
7FED  00                 "\0"
                         const [20]: "regionId"
7FEE  04                 const type 4
7FEF  03                 string size (3)
7FF0  5F4700             "_G\0"
                         const [21]: "_G"
7FF3  04                 const type 4
7FF4  15                 string size (21)
7FF5  67436C616E4F6E6C+  "gClanOnl"
7FFD  794D617463684D61+  "yMatchMa"
8005  6B696E6700         "king\0"
                         const [22]: "gClanOnlyMatchMaking"
800A  04                 const type 4
800B  16                 string size (22)
800C  53455353494F4E5F+  "SESSION_"
8014  414C4C49414E4345+  "ALLIANCE"
801C  5F4F4E4C5900       "_ONLY\0"
                         const [23]: "SESSION_ALLIANCE_ONLY"
8022  04                 const type 4
8023  08                 string size (8)
8024  6775696C64496400   "guildId\0"
                         const [24]: "guildId"
802C  01                 const type 3
802D  92104F65           const [25]: (1699680402)
8031  01                 const type 3
8032  09839979           const [26]: (2040103689)
8036  01                 const type 3
8037  65397915           const [27]: (360266085)
803B  04                 const type 4
803C  08                 string size (8)
803D  4B45595F54414700   "KEY_TAG\0"
                         const [28]: "KEY_TAG"
8045  01                 const type 3
8046  3320787B           const [29]: (2071470131)
804A  03                 const type 3
804B  0000803F           const [30]: (0)
804F  04                 const type 4
8050  04                 string size (4)
8051  6D617000           "map\0"
                         const [31]: "map"
8055  04                 const type 4
8056  08                 string size (8)
8057  77616E744D617000   "wantMap\0"
                         const [32]: "wantMap"
805F  01                 const type 3
8060  01000000           const [33]: (1)
8064  04                 const type 4
8065  0E                 string size (14)
8066  5441475F53455045+  "TAG_SEPE"
806E  5241544F5200       "RATOR\0"
                         const [34]: "TAG_SEPERATOR"
8074  00                 const type 0
                         const [35]: nil
8075  01                 const type 3
8076  F2AC3ABB           const [36]: (-1153782542)
807A  01                 const type 3
807B  E13C21DF           const [37]: (-551469855)
807F  01                 const type 3
8080  1A4B27EC           const [38]: (-332969190)
8084  04                 const type 4
8085  08                 string size (8)
8086  6D697373696F6E00   "mission\0"
                         const [39]: "mission"
808E  04                 const type 4
808F  0C                 string size (12)
8090  6D697373696F6E54+  "missionT"
8098  79706500           "ype\0"
                         const [40]: "missionType"
809C  04                 const type 4
809D  0B                 string size (11)
809E  4C6F7475735F4761+  "Lotus_Ga"
80A6  6D6500             "me\0"
                         const [41]: "Lotus_Game"
80A9  04                 const type 4
80AA  0D                 string size (13)
80AB  4D545F4C414E4453+  "MT_LANDS"
80B3  4341504500         "CAPE\0"
                         const [42]: "MT_LANDSCAPE"
80B8  01                 const type 3
80B9  65770E40           const [43]: (1074689893)
80BD  04                 const type 4
80BE  03                 string size (3)
80BF  5F5400             "_T\0"
                         const [44]: "_T"
80C2  04                 const type 4
80C3  10                 string size (16)
80C4  6750656E64696E67+  "gPending"
80CC  4D697373696F6E00   "Mission\0"
                         const [45]: "gPendingMission"
80D4  04                 const type 4
80D5  04                 string size (4)
80D6  6A6F6200           "job\0"
                         const [46]: "job"
80DA  04                 const type 4
80DB  0A                 string size (10)
80DC  656C6F526174696E+  "eloRatin"
80E4  6700               "g\0"
                         const [47]: "eloRating"
80E6  04                 const type 4
80E7  1C                 string size (28)
80E8  504C41494E535F45+  "PLAINS_E"
80F0  4C4F5F494E534944+  "LO_INSID"
80F8  455F534146455F5A+  "E_SAFE_Z"
8100  4F4E4500           "ONE\0"
                         const [48]: "PLAINS_ELO_INSIDE_SAFE_ZONE"
8104  04                 const type 4
8105  11                 string size (17)
8106  6D6178456C6F4469+  "maxEloDi"
810E  66666572656E6365+  "fference"
8116  00                 "\0"
                         const [49]: "maxEloDifference"
8117  04                 const type 4
8118  0B                 string size (11)
8119  656E666F72636545+  "enforceE"
8121  6C6F00             "lo\0"
                         const [50]: "enforceElo"
8124  01                 const type 3
8125  1FE27621           const [51]: (561439263)
8129  04                 const type 4
812A  09                 string size (9)
812B  77616E745465616D+  "wantTeam"
8133  00                 "\0"
                         const [52]: "wantTeam"
8134  01                 const type 3
8135  C49244E0           const [53]: (-532376892)
8139  04                 const type 4
813A  16                 string size (22)
813B  4241444C414E445F+  "BADLAND_"
8143  41545441434B4552+  "ATTACKER"
814B  5F464C414700       "_FLAG\0"
                         const [54]: "BADLAND_ATTACKER_FLAG"
8151  04                 const type 4
8152  07                 string size (7)
8153  7465616D496400     "teamId\0"
                         const [55]: "teamId"
815A  04                 const type 4
815B  15                 string size (21)
815C  4241444C414E445F+  "BADLAND_"
8164  444546454E444552+  "DEFENDER"
816C  5F54414700         "_TAG\0"
                         const [56]: "BADLAND_DEFENDER_TAG"
8171  04                 const type 4
8172  15                 string size (21)
8173  4241444C414E445F+  "BADLAND_"
817B  41545441434B4552+  "ATTACKER"
8183  5F54414700         "_TAG\0"
                         const [57]: "BADLAND_ATTACKER_TAG"
8188  04                 const type 4
8189  0C                 string size (12)
818A  77616E74506C6179+  "wantPlay"
8192  65727300           "ers\0"
                         const [58]: "wantPlayers"
8196  04                 const type 4
8197  08                 string size (8)
8198  706C617965727300   "players\0"
                         const [59]: "players"
81A0  04                 const type 4
81A1  05                 string size (5)
81A2  6D61746800         "math\0"
                         const [60]: "math"
81A7  01                 const type 3
81A8  3810018B           const [61]: (-1962864584)
81AC  01                 const type 3
81AD  7DC6DD35           const [62]: (903726717)
81B1  04                 const type 4
81B2  2E                 string size (46)
81B3  536563746F725761+  "SectorWa"
81BB  7273206C6F6F6B69+  "rs looki"
81C3  6E6720666F722061+  "ng for a"
81CB  747461636B657220+  "ttacker "
81D3  73657373696F6E20+  "session "
81DB  776974682000       "with \0"
                         const [63]: "SectorWars looking for attacker session with "
81E1  04                 const type 4
81E2  0E                 string size (14)
81E3  206672656520736C+  " free sl"
81EB  6F7428732900       "ot(s)\0"
                         const [64]: " free slot(s)"
81F1  01                 const type 3
81F2  535C18A3           const [65]: (-1558684589)
81F6  04                 const type 4
81F7  0A                 string size (10)
81F8  67466C6173684D67+  "gFlashMg"
8200  7200               "r\0"
                         const [66]: "gFlashMgr"
8202  01                 const type 3
8203  53D08910           const [67]: (277467219)
8207  04                 const type 4
8208  16                 string size (22)
8209  4D756C7469706C61+  "Multipla"
8211  7965722E52616E6B+  "yer.Rank"
8219  656450565000       "edPVP\0"
                         const [68]: "Multiplayer.RankedPVP"
821F  04                 const type 4
8220  1A                 string size (26)
8221  4C6F6F6B696E6720+  "Looking "
8229  666F722073657373+  "for sess"
8231  696F6E2077697468+  "ion with"
8239  2000               " \0"
                         const [69]: "Looking for session with "
823B  04                 const type 4
823C  0C                 string size (12)
823D  5374616C6B65724D+  "StalkerM"
8245  6F646500           "ode\0"
                         const [70]: "StalkerMode"
8249  04                 const type 4
824A  17                 string size (23)
824B  674163746976654D+  "gActiveM"
8253  617463684D616B69+  "atchMaki"
825B  6E674D6F646500     "ngMode\0"
                         const [71]: "gActiveMatchMakingMode"
8262  04                 const type 4
8263  20                 string size (32)
8264  4D415443484D414B+  "MATCHMAK"
826C  494E475F51554943+  "ING_QUIC"
8274  4B4D415443485F47+  "KMATCH_G"
827C  414D454D4F444500   "AMEMODE\0"
                         const [72]: "MATCHMAKING_QUICKMATCH_GAMEMODE"
8284  01                 const type 3
8285  8E28B8EC           const [73]: (-323475314)
8289  04                 const type 4
828A  12                 string size (18)
828B  6D697373696F6E73+  "missions"
8293  436F6D706C657465+  "Complete"
829B  6400               "d\0"
                         const [74]: "missionsCompleted"
829D  04                 const type 4
829E  09                 string size (9)
829F  6E6F646554797065+  "nodeType"
82A7  00                 "\0"
                         const [75]: "nodeType"
82A8  04                 const type 4
82A9  0B                 string size (11)
82AA  4E545F4D49535349+  "NT_MISSI"
82B2  4F4E00             "ON\0"
                         const [76]: "NT_MISSION"
82B5  04                 const type 4
82B6  11                 string size (17)
82B7  4E545F424F4E5553+  "NT_BONUS"
82BF  5F4D495353494F4E+  "_MISSION"
82C7  00                 "\0"
                         const [77]: "NT_BONUS_MISSION"
82C8  04                 const type 4
82C9  0D                 string size (13)
82CA  436163686564416C+  "CachedAl"
82D2  6572747300         "erts\0"
                         const [78]: "CachedAlerts"
82D7  04                 const type 4
82D8  09                 string size (9)
82D9  6D56697369626C65+  "mVisible"
82E1  00                 "\0"
                         const [79]: "mVisible"
82E2  04                 const type 4
82E3  0F                 string size (15)
82E4  436163686564476F+  "CachedGo"
82EC  616C496E666F00     "alInfo\0"
                         const [80]: "CachedGoalInfo"
82F3  04                 const type 4
82F4  13                 string size (19)
82F5  436163686564496E+  "CachedIn"
82FD  766173696F6E496E+  "vasionIn"
8305  666F00             "fo\0"
                         const [81]: "CachedInvasionInfo"
8308  01                 const type 3
8309  99D3625F           const [82]: (1600312217)
830D  04                 const type 4
830E  18                 string size (24)
830F  4361636865645379+  "CachedSy"
8317  6E6469636174654D+  "ndicateM"
831F  697373696F6E7300   "issions\0"
                         const [83]: "CachedSyndicateMissions"
8327  04                 const type 4
8328  14                 string size (20)
8329  616C6C6F774A6F69+  "allowJoi"
8331  6E496E50726F6772+  "nInProgr"
8339  65737300           "ess\0"
                         const [84]: "allowJoinInProgress"
833D  01                 const type 3
833E  00000000           const [85]: (0)
8342  04                 const type 4
8343  0D                 string size (13)
8344  6D4D6178436F6E63+  "mMaxConc"
834C  6C61766500         "lave\0"
                         const [86]: "mMaxConclave"
8351  04                 const type 4
8352  0D                 string size (13)
8353  6D426F6E75734163+  "mBonusAc"
835B  7469766500         "tive\0"
                         const [87]: "mBonusActive"
8360  04                 const type 4
8361  12                 string size (18)
8362  6D426F6E75734D61+  "mBonusMa"
836A  78436F6E636C6176+  "xConclav"
8372  6500               "e\0"
                         const [88]: "mBonusMaxConclave"
8374  01                 const type 3
8375  A22217F8           const [89]: (-132701534)
8379  04                 const type 4
837A  13                 string size (19)
837B  436C69656E742067+  "Client g"
8383  616D654D6F646549+  "ameModeI"
838B  643D00             "d=\0"
                         const [90]: "Client gameModeId="
838E  04                 const type 4
838F  07                 string size (7)
8390  2C20454C4F3D00     ", ELO=\0"
                         const [91]: ", ELO="
8397  04                 const type 4
8398  09                 string size (9)
8399  2C2072616E676520+  ", range "
83A1  00                 "\0"
                         const [92]: ", range "
83A2  04                 const type 4
83A3  17                 string size (23)
83A4  2C20616C6C6F774A+  ", allowJ"
83AC  6F696E496E50726F+  "oinInPro"
83B4  67726573733D00     "gress=\0"
                         const [93]: ", allowJoinInProgress="
83BB  01                 const type 3
83BC  BCD6AE9F           const [94]: (-1615931716)
83C0  01                 const type 3
83C1  20039B3D           const [95]: (1033569056)
83C5  04                 const type 4
83C6  13                 string size (19)
83C7  524547494F4E5F49+  "REGION_I"
83CF  445F444552454C49+  "D_DERELI"
83D7  435400             "CT\0"
                         const [96]: "REGION_ID_DERELICT"
83DA  01                 const type 3
83DB  E2D95DE3           const [97]: (-480388638)
83DF  03                 const type 3
83E0  0080BB44           const [98]: (0)
83E4  04                 const type 4
83E5  08                 string size (8)
83E6  6D617850696E6700   "maxPing\0"
                         const [99]: "maxPing"
83EE  04                 const type 4
83EF  21                 string size (33)
83F0  4D756C7469706C61+  "Multipla"
83F8  7965722E44656469+  "yer.Dedi"
8400  6361746564536572+  "catedSer"
8408  766572734F6E6C79+  "versOnly"
8410  00                 "\0"
                         const [100]: "Multiplayer.DedicatedServersOnly"
8411  04                 const type 4
8412  10                 string size (16)
8413  6465646963617465+  "dedicate"
841B  6453657276657200   "dServer\0"
                         const [101]: "dedicatedServer"
8423  04                 const type 4
8424  20                 string size (32)
8425  496E6372656D656E+  "Incremen"
842D  74616C2073656172+  "tal sear"
8435  63682070696E6720+  "ch ping "
843D  6C696D69743A2000   "limit: \0"
                         const [102]: "Incremental search ping limit: "
8445  04                 const type 4
8446  15                 string size (21)
8447  696E6372656D656E+  "incremen"
844F  74616C50696E674C+  "talPingL"
8457  696D697400         "imit\0"
                         const [103]: "incrementalPingLimit"
845C  01                 const type 3
845D  971F7472           const [104]: (1920212887)
                         * functions:
8461  00                 sizep (0)
                         * lines:
8463  03                 sizelineinfo (415)
                         [pc] (line)
8464  57                 [001] (87)
8465  04                 [002] (87)
8466  00                 [003] (87)
8467  00                 [004] (87)
8468  57                 [005] (87)
8469  04                 [006] (88)
846A  00                 [007] (88)
846B  00                 [008] (91)
846C  57                 [009] (91)
846D  04                 [010] (91)
846E  00                 [011] (91)
846F  00                 [012] (91)
8470  57                 [013] (91)
8471  04                 [014] (91)
8472  00                 [015] (91)
8473  00                 [016] (92)
8474  57                 [017] (92)
8475  04                 [018] (95)
8476  00                 [019] (95)
8477  00                 [020] (95)
8478  58                 [021] (97)
8479  04                 [022] (97)
847A  00                 [023] (97)
847B  00                 [024] (97)
847C  58                 [025] (98)
847D  04                 [026] (98)
847E  00                 [027] (99)
847F  00                 [028] (99)
8480  5B                 [029] (101)
8481  04                 [030] (101)
8482  00                 [031] (101)
8483  00                 [032] (102)
8484  5B                 [033] (102)
8485  04                 [034] (102)
8486  00                 [035] (103)
8487  00                 [036] (103)
8488  5B                 [037] (104)
8489  04                 [038] (104)
848A  00                 [039] (104)
848B  00                 [040] (104)
848C  5B                 [041] (106)
848D  04                 [042] (106)
848E  00                 [043] (106)
848F  00                 [044] (109)
8490  5B                 [045] (109)
8491  04                 [046] (109)
8492  00                 [047] (109)
8493  00                 [048] (109)
8494  5B                 [049] (110)
8495  04                 [050] (110)
8496  00                 [051] (110)
8497  00                 [052] (110)
8498  5B                 [053] (111)
8499  04                 [054] (111)
849A  00                 [055] (111)
849B  00                 [056] (111)
849C  5B                 [057] (111)
849D  04                 [058] (112)
849E  00                 [059] (112)
849F  00                 [060] (112)
84A0  5C                 [061] (112)
84A1  04                 [062] (112)
84A2  00                 [063] (112)
84A3  00                 [064] (114)
84A4  5C                 [065] (114)
84A5  04                 [066] (114)
84A6  00                 [067] (114)
84A7  00                 [068] (114)
84A8  5F                 [069] (117)
84A9  04                 [070] (117)
84AA  00                 [071] (117)
84AB  00                 [072] (117)
84AC  5F                 [073] (117)
84AD  04                 [074] (117)
84AE  00                 [075] (118)
84AF  00                 [076] (118)
84B0  5F                 [077] (119)
84B1  04                 [078] (119)
84B2  00                 [079] (119)
84B3  00                 [080] (119)
84B4  61                 [081] (119)
84B5  04                 [082] (119)
84B6  00                 [083] (120)
84B7  00                 [084] (121)
84B8  61                 [085] (124)
84B9  04                 [086] (125)
84BA  00                 [087] (125)
84BB  00                 [088] (125)
84BC  61                 [089] (125)
84BD  04                 [090] (125)
84BE  00                 [091] (125)
84BF  00                 [092] (126)
84C0  61                 [093] (126)
84C1  04                 [094] (127)
84C2  00                 [095] (127)
84C3  00                 [096] (127)
84C4  62                 [097] (127)
84C5  04                 [098] (127)
84C6  00                 [099] (127)
84C7  00                 [100] (127)
84C8  62                 [101] (-127)
84C9  04                 [102] (-127)
84CA  00                 [103] (-127)
84CB  00                 [104] (-127)
84CC  63                 [105] (-127)
84CD  04                 [106] (-127)
84CE  00                 [107] (-127)
84CF  00                 [108] (-127)
84D0  63                 [109] (-125)
84D1  04                 [110] (-124)
84D2  00                 [111] (-124)
84D3  00                 [112] (-124)
84D4  65                 [113] (-124)
84D5  04                 [114] (-124)
84D6  00                 [115] (-124)
84D7  00                 [116] (-124)
84D8  65                 [117] (-124)
84D9  04                 [118] (-124)
84DA  00                 [119] (-122)
84DB  00                 [120] (-122)
84DC  65                 [121] (-122)
84DD  04                 [122] (-122)
84DE  00                 [123] (-122)
84DF  00                 [124] (-122)
84E0  66                 [125] (-122)
84E1  04                 [126] (-121)
84E2  00                 [127] (-120)
84E3  00                 [128] (-120)
84E4  66                 [129] (-120)
84E5  04                 [130] (-120)
84E6  00                 [131] (-120)
84E7  00                 [132] (-118)
84E8  66                 [133] (-118)
84E9  04                 [134] (-118)
84EA  00                 [135] (-117)
84EB  00                 [136] (-116)
84EC  67                 [137] (-115)
84ED  04                 [138] (-113)
84EE  00                 [139] (-109)
84EF  00                 [140] (-109)
84F0  67                 [141] (-109)
84F1  04                 [142] (-109)
84F2  00                 [143] (-109)
84F3  00                 [144] (-109)
84F4  68                 [145] (-107)
84F5  04                 [146] (-105)
84F6  00                 [147] (-105)
84F7  00                 [148] (-105)
84F8  68                 [149] (-105)
84F9  04                 [150] (-104)
84FA  00                 [151] (-104)
84FB  00                 [152] (-104)
84FC  68                 [153] (-104)
84FD  04                 [154] (-103)
84FE  00                 [155] (-103)
84FF  00                 [156] (-100)
8500  68                 [157] (-100)
8501  04                 [158] (-100)
8502  00                 [159] (-100)
8503  00                 [160] (-100)
8504  6A                 [161] (-100)
8505  04                 [162] (-99)
8506  00                 [163] (-99)
8507  00                 [164] (-99)
8508  6A                 [165] (-99)
8509  04                 [166] (-99)
850A  00                 [167] (-99)
850B  00                 [168] (-99)
850C  6A                 [169] (-99)
850D  04                 [170] (-98)
850E  00                 [171] (-95)
850F  00                 [172] (-94)
8510  6D                 [173] (-94)
8511  04                 [174] (-94)
8512  00                 [175] (-94)
8513  00                 [176] (-94)
8514  6D                 [177] (-94)
8515  04                 [178] (-94)
8516  00                 [179] (-94)
8517  00                 [180] (-93)
8518  6D                 [181] (-93)
8519  04                 [182] (-93)
851A  00                 [183] (-93)
851B  00                 [184] (-93)
851C  6D                 [185] (-93)
851D  04                 [186] (-92)
851E  00                 [187] (-90)
851F  00                 [188] (-90)
8520  6D                 [189] (-90)
8521  04                 [190] (-90)
8522  00                 [191] (-90)
8523  00                 [192] (-90)
8524  6E                 [193] (-89)
8525  04                 [194] (-88)
8526  00                 [195] (-88)
8527  00                 [196] (-88)
8528  6E                 [197] (-88)
8529  04                 [198] (-88)
852A  00                 [199] (-88)
852B  00                 [200] (-88)
852C  6E                 [201] (-88)
852D  04                 [202] (-87)
852E  00                 [203] (-87)
852F  00                 [204] (-87)
8530  6E                 [205] (-87)
8531  04                 [206] (-86)
8532  00                 [207] (-86)
8533  00                 [208] (-86)
8534  6F                 [209] (-86)
8535  04                 [210] (-84)
8536  00                 [211] (-84)
8537  00                 [212] (-84)
8538  6F                 [213] (-84)
8539  04                 [214] (-84)
853A  00                 [215] (-84)
853B  00                 [216] (-84)
853C  6F                 [217] (-82)
853D  04                 [218] (-82)
853E  00                 [219] (-82)
853F  00                 [220] (-82)
8540  6F                 [221] (-80)
8541  04                 [222] (-79)
8542  00                 [223] (-79)
8543  00                 [224] (-77)
8544  6F                 [225] (-77)
8545  04                 [226] (-77)
8546  00                 [227] (-77)
8547  00                 [228] (-77)
8548  70                 [229] (-77)
8549  04                 [230] (-75)
854A  00                 [231] (-75)
854B  00                 [232] (-75)
854C  70                 [233] (-75)
854D  04                 [234] (-75)
854E  00                 [235] (-75)
854F  00                 [236] (-75)
8550  70                 [237] (-75)
8551  04                 [238] (-75)
8552  00                 [239] (-75)
8553  00                 [240] (-74)
8554  70                 [241] (-74)
8555  04                 [242] (-73)
8556  00                 [243] (-73)
8557  00                 [244] (-73)
8558  70                 [245] (-73)
8559  04                 [246] (-70)
855A  00                 [247] (-70)
855B  00                 [248] (-70)
855C  70                 [249] (-69)
855D  04                 [250] (-69)
855E  00                 [251] (-69)
855F  00                 [252] (-69)
8560  72                 [253] (-69)
8561  04                 [254] (-69)
8562  00                 [255] (-69)
8563  00                 [256] (-69)
8564  72                 [257] (-69)
8565  04                 [258] (-69)
8566  00                 [259] (-68)
8567  00                 [260] (-68)
8568  72                 [261] (-68)
8569  04                 [262] (-68)
856A  00                 [263] (-68)
856B  00                 [264] (-68)
856C  72                 [265] (-68)
856D  04                 [266] (-68)
856E  00                 [267] (-68)
856F  00                 [268] (-68)
8570  72                 [269] (-68)
8571  04                 [270] (-68)
8572  00                 [271] (-68)
8573  00                 [272] (-67)
8574  75                 [273] (-67)
8575  04                 [274] (-67)
8576  00                 [275] (-67)
8577  00                 [276] (-67)
8578  75                 [277] (-66)
8579  04                 [278] (-66)
857A  00                 [279] (-66)
857B  00                 [280] (-66)
857C  75                 [281] (-66)
857D  04                 [282] (-66)
857E  00                 [283] (-66)
857F  00                 [284] (-66)
8580  75                 [285] (-66)
8581  04                 [286] (-65)
8582  00                 [287] (-65)
8583  00                 [288] (-65)
8584  75                 [289] (-65)
8585  04                 [290] (-65)
8586  00                 [291] (-65)
8587  00                 [292] (-64)
8588  75                 [293] (-64)
8589  04                 [294] (-64)
858A  00                 [295] (-64)
858B  00                 [296] (-64)
858C  76                 [297] (-64)
858D  04                 [298] (-64)
858E  00                 [299] (-64)
858F  00                 [300] (-64)
8590  76                 [301] (-64)
8591  04                 [302] (-64)
8592  00                 [303] (-64)
8593  00                 [304] (-64)
8594  77                 [305] (-64)
8595  04                 [306] (-64)
8596  00                 [307] (-64)
8597  00                 [308] (-64)
8598  77                 [309] (-61)
8599  04                 [310] (-58)
859A  00                 [311] (-58)
859B  00                 [312] (-58)
859C  77                 [313] (-58)
859D  04                 [314] (-58)
859E  00                 [315] (-58)
859F  00                 [316] (-58)
85A0  77                 [317] (-58)
85A1  04                 [318] (-58)
85A2  00                 [319] (-58)
85A3  00                 [320] (-58)
85A4  77                 [321] (-58)
85A5  04                 [322] (-58)
85A6  00                 [323] (-58)
85A7  00                 [324] (-58)
85A8  77                 [325] (-58)
85A9  04                 [326] (-58)
85AA  00                 [327] (-58)
85AB  00                 [328] (-58)
85AC  78                 [329] (-58)
85AD  04                 [330] (-58)
85AE  00                 [331] (-58)
85AF  00                 [332] (-58)
85B0  79                 [333] (-56)
85B1  04                 [334] (-56)
85B2  00                 [335] (-56)
85B3  00                 [336] (-56)
85B4  7C                 [337] (-56)
85B5  04                 [338] (-56)
85B6  00                 [339] (-56)
85B7  00                 [340] (-56)
85B8  7D                 [341] (-56)
85B9  04                 [342] (-56)
85BA  00                 [343] (-56)
85BB  00                 [344] (-56)
85BC  7D                 [345] (-56)
85BD  04                 [346] (-56)
85BE  00                 [347] (-56)
85BF  00                 [348] (-56)
85C0  7D                 [349] (-56)
85C1  04                 [350] (-56)
85C2  00                 [351] (-56)
85C3  00                 [352] (-56)
85C4  7D                 [353] (-56)
85C5  04                 [354] (-56)
85C6  00                 [355] (-56)
85C7  00                 [356] (-56)
85C8  7D                 [357] (-56)
85C9  04                 [358] (-56)
85CA  00                 [359] (-55)
85CB  00                 [360] (-54)
85CC  7D                 [361] (-51)
85CD  04                 [362] (-51)
85CE  00                 [363] (-51)
85CF  00                 [364] (-51)
85D0  7E                 [365] (-51)
85D1  04                 [366] (-51)
85D2  00                 [367] (-51)
85D3  00                 [368] (-51)
85D4  7E                 [369] (-51)
85D5  04                 [370] (-51)
85D6  00                 [371] (-51)
85D7  00                 [372] (-51)
85D8  7F                 [373] (-51)
85D9  04                 [374] (-48)
85DA  00                 [375] (-48)
85DB  00                 [376] (-48)
85DC  7F                 [377] (-48)
85DD  04                 [378] (-47)
85DE  00                 [379] (-47)
85DF  00                 [380] (-47)
85E0  7F                 [381] (-47)
85E1  04                 [382] (-45)
85E2  00                 [383] (-45)
85E3  00                 [384] (-42)
85E4  7F                 [385] (-42)
85E5  04                 [386] (-41)
85E6  00                 [387] (-40)
85E7  00                 [388] (-40)
85E8  7F                 [389] (-39)
85E9  04                 [390] (-36)
85EA  00                 [391] (-36)
85EB  00                 [392] (-36)
85EC  7F                 [393] (-36)
85ED  04                 [394] (-36)
85EE  00                 [395] (-36)
85EF  00                 [396] (-35)
85F0  7F                 [397] (-32)
85F1  04                 [398] (-32)
85F2  00                 [399] (-31)
85F3  00                 [400] (-31)
85F4  81                 [401] (-31)
85F5  04                 [402] (-31)
85F6  00                 [403] (-31)
85F7  00                 [404] (-31)
85F8  81                 [405] (-31)
85F9  04                 [406] (-30)
85FA  00                 [407] (-27)
85FB  00                 [408] (-27)
85FC  81                 [409] (-27)
85FD  04                 [410] (-27)
85FE  00                 [411] (-27)
85FF  00                 [412] (-27)
8600  81                 [413] (-25)
8601  04                 [414] (-25)
8602  00                 [415] (-24)
                         * locals:
8AE0  00                 sizelocvars (0)
                         * upvalues:
8AE1  00                 sizeupvalues (0)
                         ** end of function **

                         
8AE2                     ** function [31] definition (level 2)
                         ** start of function **
8AE2  00                 string size (0)
                         source name: (none)
8AE4  09                 line defined (1258)
8AE5  8F                 last line defined (1295)
8AE6  0A                 nups (0)
8AE7  00                 numparams (4)
8AE8  04                 is_vararg (0)
8AE9  00                 maxstacksize (14)
                         * code:
8AEB  44                 sizecode (68)
8AEC  1D010000           [01] getglobal  4   0        ; gMatchingService
8AF0  24414002           [02] self       4   4   257  ; 149256425
8AF4  22810001           [03] call       4   2   2  
8AF8  18010000           [04] test       4       0    ; to [6] if true
8AFC  1A400080           [05] jmp        2            ; to [8]
8B00  17010000           [06] loadbool   4   0   0    ; false
8B04  1E010001           [07] return     4   2      
8B08  1D810000           [08] getglobal  4   2        ; -1817107093
8B0C  59C10000           [09] loadk      5   3        ; "LNU - FindSessionById"
8B10  22410001           [10] call       4   2   1  
8B14  1D010000           [11] getglobal  4   0        ; gMatchingService
8B18  24014102           [12] self       4   4   260  ; -706726330
8B1C  22810001           [13] call       4   2   2  
8B20  5D410100           [14] getglobal  5   5        ; 1074689893
8B24  92010002           [15] move       6   4      
8B28  62810001           [16] call       5   2   2  
8B2C  58410000           [17] test       5       1    ; to [19] if false
8B30  1A400380           [18] jmp        14           ; to [33]
8B34  5D810000           [19] getglobal  5   2        ; -1817107093
8B38  99810100           [20] loadk      6   6        ; "Current session id="
8B3C  DDC10100           [21] getglobal  7   7        ; -1615931716
8B40  24024202           [22] self       8   4   264  ; -1518391629
8B44  22020001           [23] call       8   2   0  
8B48  E2810000           [24] call       7   0   2  
8B4C  82C10103           [25] concat     6   6   7  
8B50  62410001           [26] call       5   2   1  
8B54  64014202           [27] self       5   4   264  ; -1518391629
8B58  62810001           [28] call       5   2   2  
fail op	35
8B5C  23008002           [29] close      0  
8B60  1A400080           [30] jmp        2            ; to [33]
8B64  57010000           [31] loadbool   5   0   0    ; false
8B68  5E010001           [32] return     5   2      
8B6C  5D410200           [33] getglobal  5   9        ; gPlayerProfileMgr
8B70  6481C202           [34] self       5   5   266  ; 569342746
8B74  D9C10200           [35] loadk      7   11       ; 0
8B78  62818001           [36] call       5   3   2  
8B7C  A401C302           [37] self       6   5   268  ; 1055613230
8B80  A2810001           [38] call       6   2   2  
8B84  DD410300           [39] getglobal  7   13       ; Engine
8B88  CE81C303           [40] gettable   7   7   270  ; 433648266
8B8C  E2818000           [41] call       7   1   2  
8B90  1D020000           [42] getglobal  8   0        ; gMatchingService
8B94  24C24304           [43] self       8   8   271  ; 619827627
8B98  22820001           [44] call       8   2   2  
8B9C  18020000           [45] test       8       0    ; to [47] if true
8BA0  1AC00080           [46] jmp        4            ; to [51]
8BA4  5D420300           [47] getglobal  9   13       ; Engine
8BA8  4E42C404           [48] gettable   9   9   273  ; "NORMAL"
8BAC  CC410288           [49] settable   7   272 9    ; "matchType"
8BB0  1A800080           [50] jmp        3            ; to [54]
8BB4  5D420300           [51] getglobal  9   13       ; Engine
8BB8  4E82C404           [52] gettable   9   9   274  ; "LAN"
8BBC  CC410288           [53] settable   7   272 9    ; "matchType"
fail op	35
8BC0  23C04401           [54] close      0  
8BC4  1A400080           [55] jmp        2            ; to [58]
8BC8  CC01008A           [56] settable   7   276 0    ; "originalSessionId"
8BCC  1A000080           [57] jmp        1            ; to [59]
8BD0  CC01808A           [58] settable   7   277 0    ; "sessionId"
8BD4  D8000000           [59] test       3       0    ; to [61] if true
8BD8  1A000080           [60] jmp        1            ; to [62]
8BDC  CCC1008B           [61] settable   7   278 3    ; "ignoreBadReputation"
8BE0  5D020000           [62] getglobal  9   0        ; gMatchingService
8BE4  64C2C504           [63] self       9   9   279  ; 1920212887
8BE8  D2028002           [64] move       11  5      
8BEC  12038003           [65] move       12  7      
8BF0  52038000           [66] move       13  1      
8BF4  62428002           [67] call       9   5   1  
8BF8  1E008000           [68] return     0   1      
                         * constants:
8BFC  18                 sizek (24)
8BFD  04                 const type 4
8BFE  11                 string size (17)
8BFF  674D61746368696E+  "gMatchin"
8C07  6753657276696365+  "gService"
8C0F  00                 "\0"
                         const [0]: "gMatchingService"
8C10  01                 const type 3
8C11  E978E508           const [1]: (149256425)
8C15  01                 const type 3
8C16  6B25B193           const [2]: (-1817107093)
8C1A  04                 const type 4
8C1B  16                 string size (22)
8C1C  4C4E55202D204669+  "LNU - Fi"
8C24  6E6453657373696F+  "ndSessio"
8C2C  6E4279496400       "nById\0"
                         const [3]: "LNU - FindSessionById"
8C32  01                 const type 3
8C33  4636E0D5           const [4]: (-706726330)
8C37  01                 const type 3
8C38  65770E40           const [5]: (1074689893)
8C3C  04                 const type 4
8C3D  14                 string size (20)
8C3E  43757272656E7420+  "Current "
8C46  73657373696F6E20+  "session "
8C4E  69643D00           "id=\0"
                         const [6]: "Current session id="
8C52  01                 const type 3
8C53  BCD6AE9F           const [7]: (-1615931716)
8C57  01                 const type 3
8C58  B32E7FA5           const [8]: (-1518391629)
8C5C  04                 const type 4
8C5D  12                 string size (18)
8C5E  67506C6179657250+  "gPlayerP"
8C66  726F66696C654D67+  "rofileMg"
8C6E  7200               "r\0"
                         const [9]: "gPlayerProfileMgr"
8C70  01                 const type 3
8C71  1A7BEF21           const [10]: (569342746)
8C75  03                 const type 3
8C76  00000000           const [11]: (0)
8C7A  01                 const type 3
8C7B  2E61EB3E           const [12]: (1055613230)
8C7F  04                 const type 4
8C80  07                 string size (7)
8C81  456E67696E6500     "Engine\0"
                         const [13]: "Engine"
8C88  01                 const type 3
8C89  8AF2D819           const [14]: (433648266)
8C8D  01                 const type 3
8C8E  ABD1F124           const [15]: (619827627)
8C92  04                 const type 4
8C93  0A                 string size (10)
8C94  6D61746368547970+  "matchTyp"
8C9C  6500               "e\0"
                         const [16]: "matchType"
8C9E  04                 const type 4
8C9F  07                 string size (7)
8CA0  4E4F524D414C00     "NORMAL\0"
                         const [17]: "NORMAL"
8CA7  04                 const type 4
8CA8  04                 string size (4)
8CA9  4C414E00           "LAN\0"
                         const [18]: "LAN"
8CAD  01                 const type 3
8CAE  01000000           const [19]: (1)
8CB2  04                 const type 4
8CB3  12                 string size (18)
8CB4  6F726967696E616C+  "original"
8CBC  53657373696F6E49+  "SessionI"
8CC4  6400               "d\0"
                         const [20]: "originalSessionId"
8CC6  04                 const type 4
8CC7  0A                 string size (10)
8CC8  73657373696F6E49+  "sessionI"
8CD0  6400               "d\0"
                         const [21]: "sessionId"
8CD2  04                 const type 4
8CD3  14                 string size (20)
8CD4  69676E6F72654261+  "ignoreBa"
8CDC  6452657075746174+  "dReputat"
8CE4  696F6E00           "ion\0"
                         const [22]: "ignoreBadReputation"
8CE8  01                 const type 3
8CE9  971F7472           const [23]: (1920212887)
                         * functions:
8CED  00                 sizep (0)
                         * lines:
8CEE  44                 sizelineinfo (68)
                         [pc] (line)
8CEF  EB                 [01] (-21)
8CF0  04                 [02] (-21)
8CF1  00                 [03] (-21)
8CF2  00                 [04] (-21)
8CF3  EB                 [05] (-21)
8CF4  04                 [06] (-20)
8CF5  00                 [07] (-20)
8CF6  00                 [08] (-17)
8CF7  EB                 [09] (-17)
8CF8  04                 [10] (-17)
8CF9  00                 [11] (-15)
8CFA  00                 [12] (-15)
8CFB  EB                 [13] (-15)
8CFC  04                 [14] (-14)
8CFD  00                 [15] (-14)
8CFE  00                 [16] (-14)
8CFF  EB                 [17] (-14)
8D00  04                 [18] (-14)
8D01  00                 [19] (-13)
8D02  00                 [20] (-13)
8D03  EC                 [21] (-13)
8D04  04                 [22] (-13)
8D05  00                 [23] (-13)
8D06  00                 [24] (-13)
8D07  EC                 [25] (-13)
8D08  04                 [26] (-13)
8D09  00                 [27] (-11)
8D0A  00                 [28] (-11)
8D0B  EF                 [29] (-11)
8D0C  04                 [30] (-11)
8D0D  00                 [31] (-10)
8D0E  00                 [32] (-10)
8D0F  EF                 [33] (-6)
8D10  04                 [34] (-6)
8D11  00                 [35] (-6)
8D12  00                 [36] (-6)
8D13  EF                 [37] (-5)
8D14  04                 [38] (-5)
8D15  00                 [39] (-4)
8D16  00                 [40] (-4)
8D17  F1                 [41] (-4)
8D18  04                 [42] (-3)
8D19  00                 [43] (-3)
8D1A  00                 [44] (-3)
8D1B  F1                 [45] (-2)
8D1C  04                 [46] (-2)
8D1D  00                 [47] (-1)
8D1E  00                 [48] (-1)
8D1F  F1                 [49] (-1)
8D20  04                 [50] (-1)
8D21  00                 [51] (1)
8D22  00                 [52] (1)
8D23  F2                 [53] (1)
8D24  04                 [54] (4)
8D25  00                 [55] (4)
8D26  00                 [56] (5)
8D27  F2                 [57] (5)
8D28  04                 [58] (7)
8D29  00                 [59] (10)
8D2A  00                 [60] (10)
8D2B  F2                 [61] (11)
8D2C  04                 [62] (14)
8D2D  00                 [63] (14)
8D2E  00                 [64] (14)
8D2F  F2                 [65] (14)
8D30  04                 [66] (14)
8D31  00                 [67] (14)
8D32  00                 [68] (15)
                         * locals:
8DFF  00                 sizelocvars (0)
                         * upvalues:
8E00  00                 sizeupvalues (0)
                         ** end of function **

                         
8E01                     ** function [32] definition (level 2)
                         ** start of function **
8E01  00                 string size (0)
                         source name: (none)
8E03  0A                 line defined (1297)
8E04  AD                 last line defined (1325)
8E05  0A                 nups (2)
8E06  02                 numparams (2)
8E07  02                 is_vararg (0)
8E08  00                 maxstacksize (10)
                         * code:
8E0A  3E                 sizecode (62)
8E0B  9D000000           [01] getglobal  2   0        ; gPlayerProfileMgr
8E0F  A4404001           [02] self       2   2   257  ; 569342746
8E13  19810000           [03] loadk      4   2        ; 0
8E17  A2808001           [04] call       2   3   2  
8E1B  E4C04001           [05] self       3   2   259  ; 1055613230
8E1F  E2800001           [06] call       3   2   2  
8E23  E400C101           [07] self       3   3   260  ; 1582861505
8E27  E2800001           [08] call       3   2   2  
8E2B  1D410100           [09] getglobal  4   5        ; gMatchingService
8E2F  24814102           [10] self       4   4   262  ; 619827627
8E33  22810001           [11] call       4   2   2  
8E37  18010000           [12] test       4       0    ; to [14] if true
8E3B  1AC00080           [13] jmp        4            ; to [18]
8E3F  5D010200           [14] getglobal  5   8        ; Engine
8E43  4E41C202           [15] gettable   5   5   265  ; "NORMAL"
8E47  CC408183           [16] settable   3   263 5    ; "matchType"
8E4B  1A800080           [17] jmp        3            ; to [21]
8E4F  5D010200           [18] getglobal  5   8        ; Engine
8E53  4E81C202           [19] gettable   5   5   266  ; "LAN"
8E57  CC408183           [20] settable   3   263 5    ; "matchType"
8E5B  5D010200           [21] getglobal  5   8        ; Engine
8E5F  4E01C302           [22] gettable   5   5   268  ; "INVITE_ONLY"
8E63  CC408185           [23] settable   3   267 5    ; "regionId"
8E67  CC80C386           [24] settable   3   269 270  ; "minPlayers" 0
8E6B  53010000           [25] getupval   5   0      
8E6F  CC408187           [26] settable   3   271 5    ; "maxPlayers"
8E73  CC404488           [27] settable   3   272 273  ; "enableVoice" 0
8E77  4B410000           [28] newtable   5   0   1    ; array=0, hash=1
8E7B  4CC14489           [29] settable   5   274 275  ; "dojoP2P" 1
8E7F  9D410500           [30] getglobal  6   21       ; cjson
8E83  8E814503           [31] gettable   6   6   278  ; -1916729509
8E87  D2018002           [32] move       7   5      
8E8B  A2810001           [33] call       6   2   2  
8E8F  CC80018A           [34] settable   3   276 6    ; "customSettings"
fail op	35
8E93  63C04500           [35] close      1  
8E97  1A000280           [36] jmp        9            ; to [46]
8E9B  93018000           [37] getupval   6   1      
8E9F  8E414603           [38] gettable   6   6   281  ; 1740987431
8EA3  A2818000           [39] call       6   1   2  
8EA7  CC80018C           [40] settable   3   280 6    ; "gameModeId"
8EAB  CC00008D           [41] settable   3   282 0    ; "originalSessionId"
8EAF  A4C1C601           [42] self       6   3   283  ; -435281401
8EB3  12028000           [43] move       8   1      
8EB7  A2418001           [44] call       6   3   1  
8EBB  1A800380           [45] jmp        15           ; to [61]
8EBF  93018000           [46] getupval   6   1      
8EC3  8E014703           [47] gettable   6   6   284  ; 1017661185
8EC7  A2818000           [48] call       6   1   2  
8ECB  CC80018C           [49] settable   3   280 6    ; "gameModeId"
8ECF  A4414701           [50] self       6   2   285  ; 1699680402
8ED3  A2810001           [51] call       6   2   2  
8ED7  A4814703           [52] self       6   6   286  ; 360266085
8EDB  A2810001           [53] call       6   2   2  
8EDF  CC80018D           [54] settable   3   282 6    ; "originalSessionId"
8EE3  A4C1C601           [55] self       6   3   283  ; -435281401
8EE7  24424701           [56] self       8   2   285  ; 1699680402
8EEB  22820001           [57] call       8   2   2  
8EEF  24C24704           [58] self       8   8   287  ; 1830250344
8EF3  22020001           [59] call       8   2   0  
8EF7  A2410000           [60] call       6   0   1  
8EFB  DE000001           [61] return     3   2      
8EFF  1E008000           [62] return     0   1      
                         * constants:
8F03  20                 sizek (32)
8F04  04                 const type 4
8F05  12                 string size (18)
8F06  67506C6179657250+  "gPlayerP"
8F0E  726F66696C654D67+  "rofileMg"
8F16  7200               "r\0"
                         const [0]: "gPlayerProfileMgr"
8F18  01                 const type 3
8F19  1A7BEF21           const [1]: (569342746)
8F1D  03                 const type 3
8F1E  00000000           const [2]: (0)
8F22  01                 const type 3
8F23  2E61EB3E           const [3]: (1055613230)
8F27  01                 const type 3
8F28  C18C585E           const [4]: (1582861505)
8F2C  04                 const type 4
8F2D  11                 string size (17)
8F2E  674D61746368696E+  "gMatchin"
8F36  6753657276696365+  "gService"
8F3E  00                 "\0"
                         const [5]: "gMatchingService"
8F3F  01                 const type 3
8F40  ABD1F124           const [6]: (619827627)
8F44  04                 const type 4
8F45  0A                 string size (10)
8F46  6D61746368547970+  "matchTyp"
8F4E  6500               "e\0"
                         const [7]: "matchType"
8F50  04                 const type 4
8F51  07                 string size (7)
8F52  456E67696E6500     "Engine\0"
                         const [8]: "Engine"
8F59  04                 const type 4
8F5A  07                 string size (7)
8F5B  4E4F524D414C00     "NORMAL\0"
                         const [9]: "NORMAL"
8F62  04                 const type 4
8F63  04                 string size (4)
8F64  4C414E00           "LAN\0"
                         const [10]: "LAN"
8F68  04                 const type 4
8F69  09                 string size (9)
8F6A  726567696F6E4964+  "regionId"
8F72  00                 "\0"
                         const [11]: "regionId"
8F73  04                 const type 4
8F74  0C                 string size (12)
8F75  494E564954455F4F+  "INVITE_O"
8F7D  4E4C5900           "NLY\0"
                         const [12]: "INVITE_ONLY"
8F81  04                 const type 4
8F82  0B                 string size (11)
8F83  6D696E506C617965+  "minPlaye"
8F8B  727300             "rs\0"
                         const [13]: "minPlayers"
8F8E  03                 const type 3
8F8F  0000803F           const [14]: (0)
8F93  04                 const type 4
8F94  0B                 string size (11)
8F95  6D6178506C617965+  "maxPlaye"
8F9D  727300             "rs\0"
                         const [15]: "maxPlayers"
8FA0  04                 const type 4
8FA1  0C                 string size (12)
8FA2  656E61626C65566F+  "enableVo"
8FAA  69636500           "ice\0"
                         const [16]: "enableVoice"
8FAE  01                 const type 3
8FAF  00000000           const [17]: (0)
8FB3  04                 const type 4
8FB4  08                 string size (8)
8FB5  646F6A6F50325000   "dojoP2P\0"
                         const [18]: "dojoP2P"
8FBD  01                 const type 3
8FBE  01000000           const [19]: (1)
8FC2  04                 const type 4
8FC3  0F                 string size (15)
8FC4  637573746F6D5365+  "customSe"
8FCC  7474696E677300     "ttings\0"
                         const [20]: "customSettings"
8FD3  04                 const type 4
8FD4  06                 string size (6)
8FD5  636A736F6E00       "cjson\0"
                         const [21]: "cjson"
8FDB  01                 const type 3
8FDC  5B07C18D           const [22]: (-1916729509)
8FE0  00                 const type 0
                         const [23]: nil
8FE1  04                 const type 4
8FE2  0B                 string size (11)
8FE3  67616D654D6F6465+  "gameMode"
8FEB  496400             "Id\0"
                         const [24]: "gameModeId"
8FEE  01                 const type 3
8FEF  275CC567           const [25]: (1740987431)
8FF3  04                 const type 4
8FF4  12                 string size (18)
8FF5  6F726967696E616C+  "original"
8FFD  53657373696F6E49+  "SessionI"
9005  6400               "d\0"
                         const [26]: "originalSessionId"
9007  01                 const type 3
9008  07220EE6           const [27]: (-435281401)
900C  01                 const type 3
900D  0147A83C           const [28]: (1017661185)
9011  01                 const type 3
9012  92104F65           const [29]: (1699680402)
9016  01                 const type 3
9017  65397915           const [30]: (360266085)
901B  01                 const type 3
901C  6867176D           const [31]: (1830250344)
                         * functions:
9020  00                 sizep (0)
                         * lines:
9021  3E                 sizelineinfo (62)
                         [pc] (line)
9022  12                 [01] (18)
9023  05                 [02] (18)
9024  00                 [03] (18)
9025  00                 [04] (18)
9026  12                 [05] (19)
9027  05                 [06] (19)
9028  00                 [07] (19)
9029  00                 [08] (19)
902A  12                 [09] (20)
902B  05                 [10] (20)
902C  00                 [11] (20)
902D  00                 [12] (21)
902E  12                 [13] (21)
902F  05                 [14] (22)
9030  00                 [15] (22)
9031  00                 [16] (22)
9032  13                 [17] (22)
9033  05                 [18] (24)
9034  00                 [19] (24)
9035  00                 [20] (24)
9036  13                 [21] (26)
9037  05                 [22] (26)
9038  00                 [23] (26)
9039  00                 [24] (27)
903A  13                 [25] (28)
903B  05                 [26] (28)
903C  00                 [27] (29)
903D  00                 [28] (31)
903E  13                 [29] (31)
903F  05                 [30] (32)
9040  00                 [31] (32)
9041  00                 [32] (32)
9042  14                 [33] (32)
9043  05                 [34] (32)
9044  00                 [35] (34)
9045  00                 [36] (34)
9046  14                 [37] (35)
9047  05                 [38] (35)
9048  00                 [39] (35)
9049  00                 [40] (35)
904A  14                 [41] (36)
904B  05                 [42] (37)
904C  00                 [43] (37)
904D  00                 [44] (37)
904E  15                 [45] (37)
904F  05                 [46] (39)
9050  00                 [47] (39)
9051  00                 [48] (39)
9052  15                 [49] (39)
9053  05                 [50] (40)
9054  00                 [51] (40)
9055  00                 [52] (40)
9056  16                 [53] (40)
9057  05                 [54] (40)
9058  00                 [55] (41)
9059  00                 [56] (41)
905A  16                 [57] (41)
905B  05                 [58] (41)
905C  00                 [59] (41)
905D  00                 [60] (41)
905E  16                 [61] (44)
905F  05                 [62] (45)
                         * locals:
911A  00                 sizelocvars (0)
                         * upvalues:
911B  00                 sizeupvalues (0)
                         ** end of function **

                         
911C                     ** function [33] definition (level 2)
                         ** start of function **
911C  00                 string size (0)
                         source name: (none)
911E  0A                 line defined (1327)
911F  B1                 last line defined (1329)
9120  0A                 nups (1)
9121  01                 numparams (2)
9122  02                 is_vararg (0)
9123  00                 maxstacksize (5)
                         * code:
9125  06                 sizecode (6)
9126  93000000           [1] getupval   2   0      
912A  D2000000           [2] move       3   0      
912E  12018000           [3] move       4   1      
9132  87008001           [4] tailcall   2   3   0  
9136  9E000000           [5] return     2   0      
913A  1E008000           [6] return     0   1      
                         * constants:
913E  00                 sizek (0)
                         * functions:
913F  00                 sizep (0)
                         * lines:
9140  06                 sizelineinfo (6)
                         [pc] (line)
9141  30                 [1] (48)
9142  05                 [2] (48)
9143  00                 [3] (48)
9144  00                 [4] (48)
9145  30                 [5] (48)
9146  05                 [6] (49)
                         * locals:
9159  00                 sizelocvars (0)
                         * upvalues:
915A  00                 sizeupvalues (0)
                         ** end of function **

                         
915B                     ** function [34] definition (level 2)
                         ** start of function **
915B  00                 string size (0)
                         source name: (none)
915D  0A                 line defined (1331)
915E  CF                 last line defined (1359)
915F  0A                 nups (2)
9160  02                 numparams (4)
9161  04                 is_vararg (0)
9162  00                 maxstacksize (18)
                         * code:
9164  64                 sizecode (100)
9165  1D010000           [001] getglobal  4   0        ; -1817107093
9169  59410000           [002] loadk      5   1        ; "LotusNetworkUtilities::HostClanDojoLobby"
916D  22410001           [003] call       4   2   1  
9171  1D810000           [004] getglobal  4   2        ; gMatchingService
9175  24C14002           [005] self       4   4   259  ; 149256425
9179  22810001           [006] call       4   2   2  
917D  18010000           [007] test       4       0    ; to [9] if true
9181  1A000380           [008] jmp        13           ; to [22]
9185  1D010000           [009] getglobal  4   0        ; -1817107093
9189  59010100           [010] loadk      5   4        ; "Can't host dojo due to active session or pending async task. MatchingService state="
918D  9D410100           [011] getglobal  6   5        ; -1615931716
9191  DD810000           [012] getglobal  7   2        ; gMatchingService
9195  E481C103           [013] self       7   7   262  ; -803264084
9199  E2010001           [014] call       7   2   0  
919D  A2810000           [015] call       6   0   2  
91A1  42818102           [016] concat     5   5   6  
91A5  22410001           [017] call       4   2   1  
91A9  17010000           [018] loadbool   4   0   0    ; false
91AD  59C10100           [019] loadk      5   7        ; "/Lotus/Language/Menu/HostDojoFailureSessionActive"
91B1  97010000           [020] loadbool   6   0   0    ; false
91B5  1E010002           [021] return     4   4      
91B9  1D010200           [022] getglobal  4   8        ; Engine
91BD  0E414202           [023] gettable   4   4   265  ; -1802437008
91C1  22818000           [024] call       4   1   2  
91C5  18010000           [025] test       4       0    ; to [27] if true
91C9  1A800480           [026] jmp        19           ; to [46]
91CD  13010000           [027] getupval   4   0      
fail op	33
91D1  61000002           [028] tforloop   1       0    ; to [30] if exit
91D5  1A000280           [029] jmp        9            ; to [39]
91D9  13010000           [030] getupval   4   0      
91DD  1C814202           [031] div        4   4   266  ; 0
fail op	33
91E1  21000002           [032] tforloop   0       0    ; to [34] if exit
91E5  1AC00280           [033] jmp        12           ; to [46]
91E9  1DC10200           [034] getglobal  4   11       ; gGameRules
91ED  24014302           [035] self       4   4   268  ; 316976974
91F1  22810001           [036] call       4   2   2  
91F5  18410000           [037] test       4       1    ; to [39] if false
91F9  1A800180           [038] jmp        7            ; to [46]
91FD  1D010000           [039] getglobal  4   0        ; -1817107093
9201  59410300           [040] loadk      5   13       ; "Failed to host/join dojo, connection issues"
9205  22410001           [041] call       4   2   1  
9209  17010000           [042] loadbool   4   0   0    ; false
920D  59810300           [043] loadk      5   14       ; "/Lotus/Language/Menu/Dojo_ConnectionError"
9211  97018000           [044] loadbool   6   1   0    ; true
9215  1E010002           [045] return     4   4      
9219  1DC10300           [046] getglobal  4   15       ; gPlayerProfileMgr
921D  24014402           [047] self       4   4   272  ; 569342746
9221  99410400           [048] loadk      6   17       ; 0
9225  22818001           [049] call       4   3   2  
9229  53018000           [050] getupval   5   1      
922D  92010001           [051] move       6   2      
9231  D2018001           [052] move       7   3      
9235  62818001           [053] call       5   3   2  
9239  9D010000           [054] getglobal  6   0        ; -1817107093
923D  D9810400           [055] loadk      7   18       ; "Host settings: matchType="
9241  1D420100           [056] getglobal  8   5        ; -1615931716
9245  4EC2C402           [057] gettable   9   5   275  ; "matchType"
9249  22820001           [058] call       8   2   2  
924D  59020500           [059] loadk      9   20       ; ", originalSessionId (guildId)="
9251  9D420100           [060] getglobal  10  5        ; -1615931716
9255  CE42C502           [061] gettable   11  5   277  ; "originalSessionId"
9259  A2820001           [062] call       10  2   2  
925D  D9820500           [063] loadk      11  22       ; ", regionId="
9261  1D430100           [064] getglobal  12  5        ; -1615931716
9265  4EC3C502           [065] gettable   13  5   279  ; "regionId"
9269  22830001           [066] call       12  2   2  
926D  59030600           [067] loadk      13  24       ; ", gameModeId="
9271  9D430100           [068] getglobal  14  5        ; -1615931716
9275  CE43C602           [069] gettable   15  5   281  ; "gameModeId"
9279  A2830001           [070] call       14  2   2  
927D  D9830600           [071] loadk      15  26       ; ", map="
9281  24C4C602           [072] self       16  5   283  ; 1057964316
9285  22840001           [073] call       16  2   2  
9289  0E044708           [074] gettable   16  16  284  ; 0
928D  C2018403           [075] concat     7   7   16 
9291  A2410001           [076] call       6   2   1  
9295  9D410700           [077] getglobal  6   29       ; 1074689893
9299  DD810000           [078] getglobal  7   2        ; gMatchingService
929D  E481C703           [079] self       7   7   286  ; -706726330
92A1  E2010001           [080] call       7   2   0  
92A5  A2810000           [081] call       6   0   2  
92A9  98410000           [082] test       6       1    ; to [84] if false
92AD  1A400180           [083] jmp        6            ; to [90]
92B1  9D810000           [084] getglobal  6   2        ; gMatchingService
92B5  A4C14703           [085] self       6   6   287  ; -1498972169
92B9  12028002           [086] move       8   5      
92BD  52028000           [087] move       9   1      
92C1  A2410002           [088] call       6   4   1  
92C5  1A400180           [089] jmp        6            ; to [96]
92C9  9D810000           [090] getglobal  6   2        ; gMatchingService
92CD  A4014803           [091] self       6   6   288  ; 589862477
92D1  12020002           [092] move       8   4      
92D5  52028002           [093] move       9   5      
92D9  92028000           [094] move       10  1      
92DD  A2418002           [095] call       6   5   1  
92E1  97018000           [096] loadbool   6   1   0    ; true
92E5  D9410800           [097] loadk      7   33       ; ""
92E9  17020000           [098] loadbool   8   0   0    ; false
92ED  9E010002           [099] return     6   4      
92F1  1E008000           [100] return     0   1      
                         * constants:
92F5  22                 sizek (34)
92F6  01                 const type 3
92F7  6B25B193           const [0]: (-1817107093)
92FB  04                 const type 4
92FC  29                 string size (41)
92FD  4C6F7475734E6574+  "LotusNet"
9305  776F726B5574696C+  "workUtil"
930D  69746965733A3A48+  "ities::H"
9315  6F7374436C616E44+  "ostClanD"
931D  6F6A6F4C6F626279+  "ojoLobby"
9325  00                 "\0"
                         const [1]: "LotusNetworkUtilities::HostClanDojoLobby"
9326  04                 const type 4
9327  11                 string size (17)
9328  674D61746368696E+  "gMatchin"
9330  6753657276696365+  "gService"
9338  00                 "\0"
                         const [2]: "gMatchingService"
9339  01                 const type 3
933A  E978E508           const [3]: (149256425)
933E  04                 const type 4
933F  54                 string size (84)
9340  43616E277420686F+  "Can't ho"
9348  737420646F6A6F20+  "st dojo "
9350  64756520746F2061+  "due to a"
9358  6374697665207365+  "ctive se"
9360  7373696F6E206F72+  "ssion or"
9368  2070656E64696E67+  " pending"
9370  206173796E632074+  " async t"
9378  61736B2E204D6174+  "ask. Mat"
9380  6368696E67536572+  "chingSer"
9388  7669636520737461+  "vice sta"
9390  74653D00           "te=\0"
                         const [4]: "Can't host dojo due to active session or pending async task. MatchingService state="
9394  01                 const type 3
9395  BCD6AE9F           const [5]: (-1615931716)
9399  01                 const type 3
939A  AC291FD0           const [6]: (-803264084)
939E  04                 const type 4
939F  32                 string size (50)
93A0  2F4C6F7475732F4C+  "/Lotus/L"
93A8  616E67756167652F+  "anguage/"
93B0  4D656E752F486F73+  "Menu/Hos"
93B8  74446F6A6F466169+  "tDojoFai"
93C0  6C75726553657373+  "lureSess"
93C8  696F6E4163746976+  "ionActiv"
93D0  6500               "e\0"
                         const [7]: "/Lotus/Language/Menu/HostDojoFailureSessionActive"
93D2  04                 const type 4
93D3  07                 string size (7)
93D4  456E67696E6500     "Engine\0"
                         const [8]: "Engine"
93DB  01                 const type 3
93DC  70FE9094           const [9]: (-1802437008)
93E0  03                 const type 3
93E1  00000040           const [10]: (0)
93E5  04                 const type 4
93E6  0B                 string size (11)
93E7  6747616D6552756C+  "gGameRul"
93EF  657300             "es\0"
                         const [11]: "gGameRules"
93F2  01                 const type 3
93F3  4EAFE412           const [12]: (316976974)
93F7  04                 const type 4
93F8  2C                 string size (44)
93F9  4661696C65642074+  "Failed t"
9401  6F20686F73742F6A+  "o host/j"
9409  6F696E20646F6A6F+  "oin dojo"
9411  2C20636F6E6E6563+  ", connec"
9419  74696F6E20697373+  "tion iss"
9421  75657300           "ues\0"
                         const [13]: "Failed to host/join dojo, connection issues"
9425  04                 const type 4
9426  2A                 string size (42)
9427  2F4C6F7475732F4C+  "/Lotus/L"
942F  616E67756167652F+  "anguage/"
9437  4D656E752F446F6A+  "Menu/Doj"
943F  6F5F436F6E6E6563+  "o_Connec"
9447  74696F6E4572726F+  "tionErro"
944F  7200               "r\0"
                         const [14]: "/Lotus/Language/Menu/Dojo_ConnectionError"
9451  04                 const type 4
9452  12                 string size (18)
9453  67506C6179657250+  "gPlayerP"
945B  726F66696C654D67+  "rofileMg"
9463  7200               "r\0"
                         const [15]: "gPlayerProfileMgr"
9465  01                 const type 3
9466  1A7BEF21           const [16]: (569342746)
946A  03                 const type 3
946B  00000000           const [17]: (0)
946F  04                 const type 4
9470  1A                 string size (26)
9471  486F737420736574+  "Host set"
9479  74696E67733A206D+  "tings: m"
9481  6174636854797065+  "atchType"
9489  3D00               "=\0"
                         const [18]: "Host settings: matchType="
948B  04                 const type 4
948C  0A                 string size (10)
948D  6D61746368547970+  "matchTyp"
9495  6500               "e\0"
                         const [19]: "matchType"
9497  04                 const type 4
9498  1F                 string size (31)
9499  2C206F726967696E+  ", origin"
94A1  616C53657373696F+  "alSessio"
94A9  6E49642028677569+  "nId (gui"
94B1  6C644964293D00     "ldId)=\0"
                         const [20]: ", originalSessionId (guildId)="
94B8  04                 const type 4
94B9  12                 string size (18)
94BA  6F726967696E616C+  "original"
94C2  53657373696F6E49+  "SessionI"
94CA  6400               "d\0"
                         const [21]: "originalSessionId"
94CC  04                 const type 4
94CD  0C                 string size (12)
94CE  2C20726567696F6E+  ", region"
94D6  49643D00           "Id=\0"
                         const [22]: ", regionId="
94DA  04                 const type 4
94DB  09                 string size (9)
94DC  726567696F6E4964+  "regionId"
94E4  00                 "\0"
                         const [23]: "regionId"
94E5  04                 const type 4
94E6  0E                 string size (14)
94E7  2C2067616D654D6F+  ", gameMo"
94EF  646549643D00       "deId=\0"
                         const [24]: ", gameModeId="
94F5  04                 const type 4
94F6  0B                 string size (11)
94F7  67616D654D6F6465+  "gameMode"
94FF  496400             "Id\0"
                         const [25]: "gameModeId"
9502  04                 const type 4
9503  07                 string size (7)
9504  2C206D61703D00     ", map=\0"
                         const [26]: ", map="
950B  01                 const type 3
950C  1C410F3F           const [27]: (1057964316)
9510  03                 const type 3
9511  0000803F           const [28]: (0)
9515  01                 const type 3
9516  65770E40           const [29]: (1074689893)
951A  01                 const type 3
951B  4636E0D5           const [30]: (-706726330)
951F  01                 const type 3
9520  F77FA7A6           const [31]: (-1498972169)
9524  01                 const type 3
9525  4D962823           const [32]: (589862477)
9529  04                 const type 4
952A  01                 string size (0)
                         const [33]: ""
                         * functions:
952C  00                 sizep (0)
                         * lines:
952D  64                 sizelineinfo (100)
                         [pc] (line)
952E  35                 [001] (53)
952F  05                 [002] (53)
9530  00                 [003] (53)
9531  00                 [004] (55)
9532  35                 [005] (55)
9533  05                 [006] (55)
9534  00                 [007] (55)
9535  00                 [008] (55)
9536  35                 [009] (56)
9537  05                 [010] (56)
9538  00                 [011] (56)
9539  00                 [012] (56)
953A  37                 [013] (56)
953B  05                 [014] (56)
953C  00                 [015] (56)
953D  00                 [016] (56)
953E  37                 [017] (56)
953F  05                 [018] (57)
9540  00                 [019] (57)
9541  00                 [020] (57)
9542  37                 [021] (57)
9543  05                 [022] (60)
9544  00                 [023] (60)
9545  00                 [024] (60)
9546  37                 [025] (60)
9547  05                 [026] (60)
9548  00                 [027] (61)
9549  00                 [028] (61)
954A  37                 [029] (61)
954B  05                 [030] (61)
954C  00                 [031] (61)
954D  00                 [032] (61)
954E  38                 [033] (61)
954F  05                 [034] (61)
9550  00                 [035] (61)
9551  00                 [036] (61)
9552  38                 [037] (61)
9553  05                 [038] (61)
9554  00                 [039] (62)
9555  00                 [040] (62)
9556  38                 [041] (62)
9557  05                 [042] (63)
9558  00                 [043] (63)
9559  00                 [044] (63)
955A  38                 [045] (63)
955B  05                 [046] (67)
955C  00                 [047] (67)
955D  00                 [048] (67)
955E  38                 [049] (67)
955F  05                 [050] (68)
9560  00                 [051] (68)
9561  00                 [052] (68)
9562  38                 [053] (68)
9563  05                 [054] (70)
9564  00                 [055] (70)
9565  00                 [056] (70)
9566  38                 [057] (70)
9567  05                 [058] (70)
9568  00                 [059] (70)
9569  00                 [060] (70)
956A  38                 [061] (70)
956B  05                 [062] (70)
956C  00                 [063] (70)
956D  00                 [064] (70)
956E  38                 [065] (70)
956F  05                 [066] (70)
9570  00                 [067] (70)
9571  00                 [068] (70)
9572  39                 [069] (70)
9573  05                 [070] (70)
9574  00                 [071] (70)
9575  00                 [072] (70)
9576  39                 [073] (70)
9577  05                 [074] (70)
9578  00                 [075] (70)
9579  00                 [076] (70)
957A  39                 [077] (72)
957B  05                 [078] (72)
957C  00                 [079] (72)
957D  00                 [080] (72)
957E  39                 [081] (72)
957F  05                 [082] (72)
9580  00                 [083] (72)
9581  00                 [084] (73)
9582  3C                 [085] (73)
9583  05                 [086] (73)
9584  00                 [087] (73)
9585  00                 [088] (73)
9586  3C                 [089] (73)
9587  05                 [090] (75)
9588  00                 [091] (75)
9589  00                 [092] (75)
958A  3C                 [093] (75)
958B  05                 [094] (75)
958C  00                 [095] (75)
958D  00                 [096] (78)
958E  3C                 [097] (78)
958F  05                 [098] (78)
9590  00                 [099] (78)
9591  00                 [100] (79)
                         * locals:
96BE  00                 sizelocvars (0)
                         * upvalues:
96BF  00                 sizeupvalues (0)
                         ** end of function **

                         
96C0                     ** function [35] definition (level 2)
                         ** start of function **
96C0  00                 string size (0)
                         source name: (none)
96C2  0A                 line defined (1361)
96C3  D3                 last line defined (1363)
96C4  0A                 nups (1)
96C5  01                 numparams (4)
96C6  04                 is_vararg (0)
96C7  00                 maxstacksize (9)
                         * code:
96C9  08                 sizecode (8)
96CA  13010000           [1] getupval   4   0      
96CE  52010000           [2] move       5   0      
96D2  92018000           [3] move       6   1      
96D6  D2010001           [4] move       7   2      
96DA  12028001           [5] move       8   3      
96DE  07018002           [6] tailcall   4   5   0  
96E2  1E010000           [7] return     4   0      
96E6  1E008000           [8] return     0   1      
                         * constants:
96EA  00                 sizek (0)
                         * functions:
96EB  00                 sizep (0)
                         * lines:
96EC  08                 sizelineinfo (8)
                         [pc] (line)
96ED  52                 [1] (82)
96EE  05                 [2] (82)
96EF  00                 [3] (82)
96F0  00                 [4] (82)
96F1  52                 [5] (82)
96F2  05                 [6] (82)
96F3  00                 [7] (82)
96F4  00                 [8] (83)
                         * locals:
970D  00                 sizelocvars (0)
                         * upvalues:
970E  00                 sizeupvalues (0)
                         ** end of function **

                         
970F                     ** function [36] definition (level 2)
                         ** start of function **
970F  00                 string size (0)
                         source name: (none)
9711  0A                 line defined (1365)
9712  92                 last line defined (1426)
9713  0B                 nups (4)
9714  04                 numparams (5)
9715  05                 is_vararg (0)
9716  00                 maxstacksize (17)
                         * code:
9719  01                 sizecode (138)
971A  5D010000           [001] getglobal  5   0        ; -1817107093
971E  99410000           [002] loadk      6   1        ; "LotusUtils::JoinClanDojoLobby"
9722  62410001           [003] call       5   2   1  
9726  5D810000           [004] getglobal  5   2        ; gPlayerProfileMgr
972A  64C1C002           [005] self       5   5   259  ; 569342746
972E  D9010100           [006] loadk      7   4        ; 0
9732  62818001           [007] call       5   3   2  
9736  9D410100           [008] getglobal  6   5        ; Engine
973A  8E814103           [009] gettable   6   6   262  ; 433648266
973E  A2818000           [010] call       6   1   2  
9742  DDC10100           [011] getglobal  7   7        ; gMatchingService
9746  E401C203           [012] self       7   7   264  ; 619827627
974A  E2810001           [013] call       7   2   2  
974E  D8010000           [014] test       7       0    ; to [16] if true
9752  1AC00080           [015] jmp        4            ; to [20]
9756  1D420100           [016] getglobal  8   5        ; Engine
975A  0E824204           [017] gettable   8   8   266  ; "NORMAL"
975E  8C018284           [018] settable   6   265 8    ; "matchType"
9762  1A800080           [019] jmp        3            ; to [23]
9766  1D420100           [020] getglobal  8   5        ; Engine
976A  0EC24204           [021] gettable   8   8   267  ; "LAN"
976E  8C018284           [022] settable   6   265 8    ; "matchType"
fail op	35
9772  63004301           [023] close      1  
9776  1A400080           [024] jmp        2            ; to [27]
977A  8C818086           [025] settable   6   269 2    ; "originalSessionId"
977E  1A000280           [026] jmp        9            ; to [36]
9782  1D820000           [027] getglobal  8   2        ; gPlayerProfileMgr
9786  24C24004           [028] self       8   8   259  ; 569342746
978A  99020100           [029] loadk      10  4        ; 0
978E  22828001           [030] call       8   3   2  
9792  24824304           [031] self       8   8   270  ; 1699680402
9796  22820001           [032] call       8   2   2  
979A  24C24304           [033] self       8   8   271  ; 360266085
979E  22820001           [034] call       8   2   2  
97A2  8C018286           [035] settable   6   269 8    ; "originalSessionId"
97A6  1D420100           [036] getglobal  8   5        ; Engine
97AA  0E024404           [037] gettable   8   8   272  ; -1802437008
97AE  22828000           [038] call       8   1   2  
97B2  18020000           [039] test       8       0    ; to [41] if true
97B6  1A400480           [040] jmp        18           ; to [59]
97BA  13020000           [041] getupval   8   0      
97BE  0E824404           [042] gettable   8   8   274  ; 1740987431
97C2  22828000           [043] call       8   1   2  
97C6  8C018288           [044] settable   6   273 8    ; "gameModeId"
97CA  8C01C589           [045] settable   6   275 276  ; "wantMap" 1
fail op	35
97CE  6300C301           [046] close      1  
97D2  1A400080           [047] jmp        2            ; to [50]
97D6  8CC1808A           [048] settable   6   277 3    ; "map"
97DA  1A000280           [049] jmp        9            ; to [59]
97DE  1D820000           [050] getglobal  8   2        ; gPlayerProfileMgr
97E2  24C24004           [051] self       8   8   259  ; 569342746
97E6  99020100           [052] loadk      10  4        ; 0
97EA  22828001           [053] call       8   3   2  
97EE  24824304           [054] self       8   8   270  ; 1699680402
97F2  22820001           [055] call       8   2   2  
97F6  24824504           [056] self       8   8   278  ; 1830250344
97FA  22820001           [057] call       8   2   2  
97FE  8C01828A           [058] settable   6   277 8    ; "map"
9802  1DC20500           [059] getglobal  8   23       ; _T
9806  0E024604           [060] gettable   8   8   280  ; "gNumDojoTries"
fail op	35
980A  23004304           [061] close      0  
980E  1A400080           [062] jmp        2            ; to [65]
9812  1DC20500           [063] getglobal  8   23       ; _T
9816  0C02418C           [064] settable   8   280 260  ; "gNumDojoTries" 0
981A  1DC20500           [065] getglobal  8   23       ; _T
981E  5DC20500           [066] getglobal  9   23       ; _T
9822  4E02C604           [067] gettable   9   9   280  ; "gNumDojoTries"
9826  4342C604           [068] add        9   9   281  ; 0
982A  0C42028C           [069] settable   8   280 9    ; "gNumDojoTries"
982E  1D020000           [070] getglobal  8   0        ; -1817107093
9832  59820600           [071] loadk      9   26       ; "Num dojo tries="
9836  9DC20600           [072] getglobal  10  27       ; -1615931716
983A  DDC20500           [073] getglobal  11  23       ; _T
983E  CE02C605           [074] gettable   11  11  280  ; "gNumDojoTries"
9842  A2820001           [075] call       10  2   2  
9846  42828204           [076] concat     9   9   10 
984A  22420001           [077] call       8   2   1  
984E  1DC20500           [078] getglobal  8   23       ; _T
9852  0E024604           [079] gettable   8   8   280  ; "gNumDojoTries"
fail op	35
9856  23404604           [080] close      0  
985A  1A000180           [081] jmp        5            ; to [87]
985E  1DC20500           [082] getglobal  8   23       ; _T
9862  5D420700           [083] getglobal  9   29       ; 1491452635
9866  62828000           [084] call       9   1   2  
986A  0C42028E           [085] settable   8   284 9    ; "gJoinDojoStartTime"
986E  1AC00880           [086] jmp        36           ; to [123]
9872  18410000           [087] test       4       1    ; to [89] if false
9876  1A400880           [088] jmp        34           ; to [123]
987A  1D420700           [089] getglobal  8   29       ; 1491452635
987E  22828000           [090] call       8   1   2  
9882  5DC20500           [091] getglobal  9   23       ; _T
9886  4E02C704           [092] gettable   9   9   284  ; "gJoinDojoStartTime"
988A  0D420204           [093] sub        8   8   9  
988E  5D020000           [094] getglobal  9   0        ; -1817107093
9892  99820700           [095] loadk      10  30       ; "Time passed "
9896  DDC20600           [096] getglobal  11  27       ; -1615931716
989A  12030004           [097] move       12  8      
989E  E2820001           [098] call       11  2   2  
98A2  82C20205           [099] concat     10  10  11 
98A6  62420001           [100] call       9   2   1  
98AA  53028000           [101] getupval   9   1      
fail op	21
98AE  15008204           [102] concat     0   9   8  
98B2  1A800480           [103] jmp        19           ; to [123]
98B6  5DC20500           [104] getglobal  9   23       ; _T
98BA  93020001           [105] getupval   10  2      
98BE  4C82028C           [106] settable   9   280 10   ; "gNumDojoTries"
fail op	35
98C2  6300C300           [107] close      1  
98C6  1AC00280           [108] jmp        12           ; to [121]
98CA  53028001           [109] getupval   9   3      
98CE  9DC20500           [110] getglobal  10  23       ; _T
98D2  8E024605           [111] gettable   10  10  280  ; "gNumDojoTries"
98D6  D2028000           [112] move       11  1      
98DA  12030001           [113] move       12  2      
98DE  52038001           [114] move       13  3      
98E2  62028102           [115] call       9   5   4  
98E6  58420000           [116] test       9       1    ; to [118] if false
98EA  1A800080           [117] jmp        3            ; to [121]
98EE  12030005           [118] move       12  10     
98F2  52038005           [119] move       13  11     
98F6  1E038001           [120] return     12  3      
98FA  06038006           [121] loadnil    12  13     
98FE  1E038001           [122] return     12  3      
9902  1D030000           [123] getglobal  12  0        ; -1817107093
9906  59C30700           [124] loadk      13  31       ; "Searching for originalSessionId (guildId)="
990A  9DC30600           [125] getglobal  14  27       ; -1615931716
990E  CE434303           [126] gettable   15  6   269  ; "originalSessionId"
9912  A2830001           [127] call       14  2   2  
9916  42838306           [128] concat     13  13  14 
991A  22430001           [129] call       12  2   1  
991E  1DC30100           [130] getglobal  12  7        ; gMatchingService
9922  24034806           [131] self       12  12  288  ; 1920212887
9926  92038002           [132] move       14  5      
992A  D2030003           [133] move       15  6      
992E  12040000           [134] move       16  0      
9932  22438002           [135] call       12  5   1  
9936  06038006           [136] loadnil    12  13     
993A  1E038001           [137] return     12  3      
993E  1E008000           [138] return     0   1      
                         * constants:
9942  21                 sizek (33)
9943  01                 const type 3
9944  6B25B193           const [0]: (-1817107093)
9948  04                 const type 4
9949  1E                 string size (30)
994A  4C6F747573557469+  "LotusUti"
9952  6C733A3A4A6F696E+  "ls::Join"
995A  436C616E446F6A6F+  "ClanDojo"
9962  4C6F62627900       "Lobby\0"
                         const [1]: "LotusUtils::JoinClanDojoLobby"
9968  04                 const type 4
9969  12                 string size (18)
996A  67506C6179657250+  "gPlayerP"
9972  726F66696C654D67+  "rofileMg"
997A  7200               "r\0"
                         const [2]: "gPlayerProfileMgr"
997C  01                 const type 3
997D  1A7BEF21           const [3]: (569342746)
9981  03                 const type 3
9982  00000000           const [4]: (0)
9986  04                 const type 4
9987  07                 string size (7)
9988  456E67696E6500     "Engine\0"
                         const [5]: "Engine"
998F  01                 const type 3
9990  8AF2D819           const [6]: (433648266)
9994  04                 const type 4
9995  11                 string size (17)
9996  674D61746368696E+  "gMatchin"
999E  6753657276696365+  "gService"
99A6  00                 "\0"
                         const [7]: "gMatchingService"
99A7  01                 const type 3
99A8  ABD1F124           const [8]: (619827627)
99AC  04                 const type 4
99AD  0A                 string size (10)
99AE  6D61746368547970+  "matchTyp"
99B6  6500               "e\0"
                         const [9]: "matchType"
99B8  04                 const type 4
99B9  07                 string size (7)
99BA  4E4F524D414C00     "NORMAL\0"
                         const [10]: "NORMAL"
99C1  04                 const type 4
99C2  04                 string size (4)
99C3  4C414E00           "LAN\0"
                         const [11]: "LAN"
99C7  00                 const type 0
                         const [12]: nil
99C8  04                 const type 4
99C9  12                 string size (18)
99CA  6F726967696E616C+  "original"
99D2  53657373696F6E49+  "SessionI"
99DA  6400               "d\0"
                         const [13]: "originalSessionId"
99DC  01                 const type 3
99DD  92104F65           const [14]: (1699680402)
99E1  01                 const type 3
99E2  65397915           const [15]: (360266085)
99E6  01                 const type 3
99E7  70FE9094           const [16]: (-1802437008)
99EB  04                 const type 4
99EC  0B                 string size (11)
99ED  67616D654D6F6465+  "gameMode"
99F5  496400             "Id\0"
                         const [17]: "gameModeId"
99F8  01                 const type 3
99F9  275CC567           const [18]: (1740987431)
99FD  04                 const type 4
99FE  08                 string size (8)
99FF  77616E744D617000   "wantMap\0"
                         const [19]: "wantMap"
9A07  01                 const type 3
9A08  01000000           const [20]: (1)
9A0C  04                 const type 4
9A0D  04                 string size (4)
9A0E  6D617000           "map\0"
                         const [21]: "map"
9A12  01                 const type 3
9A13  6867176D           const [22]: (1830250344)
9A17  04                 const type 4
9A18  03                 string size (3)
9A19  5F5400             "_T\0"
                         const [23]: "_T"
9A1C  04                 const type 4
9A1D  0E                 string size (14)
9A1E  674E756D446F6A6F+  "gNumDojo"
9A26  547269657300       "Tries\0"
                         const [24]: "gNumDojoTries"
9A2C  03                 const type 3
9A2D  0000803F           const [25]: (0)
9A31  04                 const type 4
9A32  10                 string size (16)
9A33  4E756D20646F6A6F+  "Num dojo"
9A3B  2074726965733D00   " tries=\0"
                         const [26]: "Num dojo tries="
9A43  01                 const type 3
9A44  BCD6AE9F           const [27]: (-1615931716)
9A48  04                 const type 4
9A49  13                 string size (19)
9A4A  674A6F696E446F6A+  "gJoinDoj"
9A52  6F53746172745469+  "oStartTi"
9A5A  6D6500             "me\0"
                         const [28]: "gJoinDojoStartTime"
9A5D  01                 const type 3
9A5E  DBC2E558           const [29]: (1491452635)
9A62  04                 const type 4
9A63  0D                 string size (13)
9A64  54696D6520706173+  "Time pas"
9A6C  7365642000         "sed \0"
                         const [30]: "Time passed "
9A71  04                 const type 4
9A72  2B                 string size (43)
9A73  536561726368696E+  "Searchin"
9A7B  6720666F72206F72+  "g for or"
9A83  6967696E616C5365+  "iginalSe"
9A8B  7373696F6E496420+  "ssionId "
9A93  286775696C644964+  "(guildId"
9A9B  293D00             ")=\0"
                         const [31]: "Searching for originalSessionId (guildId)="
9A9E  01                 const type 3
9A9F  971F7472           const [32]: (1920212887)
                         * functions:
9AA3  00                 sizep (0)
                         * lines:
9AA5  01                 sizelineinfo (138)
                         [pc] (line)
9AA6  57                 [001] (87)
9AA7  05                 [002] (87)
9AA8  00                 [003] (87)
9AA9  00                 [004] (89)
9AAA  57                 [005] (89)
9AAB  05                 [006] (89)
9AAC  00                 [007] (89)
9AAD  00                 [008] (90)
9AAE  57                 [009] (90)
9AAF  05                 [010] (90)
9AB0  00                 [011] (91)
9AB1  00                 [012] (91)
9AB2  59                 [013] (91)
9AB3  05                 [014] (92)
9AB4  00                 [015] (92)
9AB5  00                 [016] (93)
9AB6  59                 [017] (93)
9AB7  05                 [018] (93)
9AB8  00                 [019] (93)
9AB9  00                 [020] (95)
9ABA  59                 [021] (95)
9ABB  05                 [022] (95)
9ABC  00                 [023] (98)
9ABD  00                 [024] (98)
9ABE  59                 [025] (99)
9ABF  05                 [026] (99)
9AC0  00                 [027] (101)
9AC1  00                 [028] (101)
9AC2  5A                 [029] (101)
9AC3  05                 [030] (101)
9AC4  00                 [031] (101)
9AC5  00                 [032] (101)
9AC6  5A                 [033] (101)
9AC7  05                 [034] (101)
9AC8  00                 [035] (101)
9AC9  00                 [036] (105)
9ACA  5A                 [037] (105)
9ACB  05                 [038] (105)
9ACC  00                 [039] (105)
9ACD  00                 [040] (105)
9ACE  5B                 [041] (106)
9ACF  05                 [042] (106)
9AD0  00                 [043] (106)
9AD1  00                 [044] (106)
9AD2  5B                 [045] (107)
9AD3  05                 [046] (109)
9AD4  00                 [047] (109)
9AD5  00                 [048] (110)
9AD6  5B                 [049] (110)
9AD7  05                 [050] (112)
9AD8  00                 [051] (112)
9AD9  00                 [052] (112)
9ADA  5C                 [053] (112)
9ADB  05                 [054] (112)
9ADC  00                 [055] (112)
9ADD  00                 [056] (112)
9ADE  5C                 [057] (112)
9ADF  05                 [058] (112)
9AE0  00                 [059] (116)
9AE1  00                 [060] (116)
9AE2  5D                 [061] (116)
9AE3  05                 [062] (116)
9AE4  00                 [063] (117)
9AE5  00                 [064] (117)
9AE6  5D                 [065] (120)
9AE7  05                 [066] (120)
9AE8  00                 [067] (120)
9AE9  00                 [068] (120)
9AEA  5D                 [069] (120)
9AEB  05                 [070] (121)
9AEC  00                 [071] (121)
9AED  00                 [072] (121)
9AEE  5D                 [073] (121)
9AEF  05                 [074] (121)
9AF0  00                 [075] (121)
9AF1  00                 [076] (121)
9AF2  5F                 [077] (121)
9AF3  05                 [078] (123)
9AF4  00                 [079] (123)
9AF5  00                 [080] (123)
9AF6  5F                 [081] (123)
9AF7  05                 [082] (124)
9AF8  00                 [083] (124)
9AF9  00                 [084] (124)
9AFA  5F                 [085] (124)
9AFB  05                 [086] (124)
9AFC  00                 [087] (125)
9AFD  00                 [088] (125)
9AFE  62                 [089] (126)
9AFF  05                 [090] (126)
9B00  00                 [091] (126)
9B01  00                 [092] (126)
9B02  62                 [093] (126)
9B03  05                 [094] (127)
9B04  00                 [095] (127)
9B05  00                 [096] (127)
9B06  63                 [097] (127)
9B07  05                 [098] (127)
9B08  00                 [099] (127)
9B09  00                 [100] (127)
9B0A  63                 [101] (-128)
9B0B  05                 [102] (-128)
9B0C  00                 [103] (-128)
9B0D  00                 [104] (-127)
9B0E  65                 [105] (-127)
9B0F  05                 [106] (-127)
9B10  00                 [107] (-125)
9B11  00                 [108] (-125)
9B12  65                 [109] (-124)
9B13  05                 [110] (-124)
9B14  00                 [111] (-124)
9B15  00                 [112] (-124)
9B16  65                 [113] (-124)
9B17  05                 [114] (-124)
9B18  00                 [115] (-124)
9B19  00                 [116] (-123)
9B1A  65                 [117] (-123)
9B1B  05                 [118] (-122)
9B1C  00                 [119] (-122)
9B1D  00                 [120] (-122)
9B1E  65                 [121] (-118)
9B1F  05                 [122] (-118)
9B20  00                 [123] (-114)
9B21  00                 [124] (-114)
9B22  65                 [125] (-114)
9B23  05                 [126] (-114)
9B24  00                 [127] (-114)
9B25  00                 [128] (-114)
9B26  65                 [129] (-114)
9B27  05                 [130] (-113)
9B28  00                 [131] (-113)
9B29  00                 [132] (-113)
9B2A  65                 [133] (-113)
9B2B  05                 [134] (-113)
9B2C  00                 [135] (-113)
9B2D  00                 [136] (-111)
9B2E  65                 [137] (-111)
9B2F  05                 [138] (-110)
                         * locals:
9CCE  00                 sizelocvars (0)
                         * upvalues:
9CCF  00                 sizeupvalues (0)
                         ** end of function **

                         
9CD0                     ** function [37] definition (level 2)
                         ** start of function **
9CD0  00                 string size (0)
                         source name: (none)
9CD2  0B                 line defined (1428)
9CD3  C4                 last line defined (1476)
9CD4  0B                 nups (2)
9CD5  02                 numparams (6)
9CD6  06                 is_vararg (0)
9CD7  00                 maxstacksize (25)
                         * code:
9CD9  73                 sizecode (115)
9CDA  9D010000           [001] getglobal  6   0        ; -1817107093
9CDE  D9410000           [002] loadk      7   1        ; "LotusUtils::OnFindClanDojoSessionComplete - success="
9CE2  1D820000           [003] getglobal  8   2        ; -1615931716
9CE6  52020000           [004] move       9   0      
9CEA  22820001           [005] call       8   2   2  
9CEE  C2018203           [006] concat     7   7   8  
9CF2  A2410001           [007] call       6   2   1  
9CF6  9DC10000           [008] getglobal  6   3        ; gMatchingService
9CFA  A4014103           [009] self       6   6   260  ; -1702588160
9CFE  A2810001           [010] call       6   2   2  
9D02  18000000           [011] test       0       0    ; to [13] if true
9D06  1AC00180           [012] jmp        8            ; to [21]
9D0A  DD410100           [013] getglobal  7   5        ; 1074689893
9D0E  12020003           [014] move       8   6      
9D12  E2810001           [015] call       7   2   2  
9D16  D8410000           [016] test       7       1    ; to [18] if false
9D1A  1A800080           [017] jmp        3            ; to [21]
9D1E  CA010003           [018] len        7   6      
fail op	35
9D22  2380C103           [019] close      0  
9D26  1AC00580           [020] jmp        24           ; to [45]
fail op	35
9D2A  63C04101           [021] close      1  
9D2E  1A800480           [022] jmp        19           ; to [42]
9D32  58410000           [023] test       5       1    ; to [25] if false
9D36  1A000480           [024] jmp        17           ; to [42]
9D3A  DD010000           [025] getglobal  7   0        ; -1817107093
9D3E  19020200           [026] loadk      8   8        ; "No clandojo hosts found -- preparing to host locally"
9D42  E2410001           [027] call       7   2   1  
9D46  D3010000           [028] getupval   7   0      
9D4A  1D420200           [029] getglobal  8   9        ; _T
9D4E  0E824204           [030] gettable   8   8   266  ; "gNumDojoTries"
9D52  52020001           [031] move       9   2      
9D56  92028001           [032] move       10  3      
9D5A  D2020002           [033] move       11  4      
9D5E  E2018102           [034] call       7   5   4  
9D62  D8410000           [035] test       7       1    ; to [37] if false
9D66  1A800080           [036] jmp        3            ; to [40]
9D6A  92020004           [037] move       10  8      
9D6E  D2028004           [038] move       11  9      
9D72  9E028001           [039] return     10  3      
9D76  86028005           [040] loadnil    10  11     
9D7A  9E028001           [041] return     10  3      
9D7E  99C20200           [042] loadk      10  11       ; ""
9D82  C6028005           [043] loadnil    11  11     
9D86  9E028001           [044] return     10  3      
9D8A  9D020000           [045] getglobal  10  0        ; -1817107093
9D8E  D9020300           [046] loadk      11  12       ; "Available clandojo hosts:"
9D92  A2420001           [047] call       10  2   1  
9D96  99420300           [048] loadk      10  13       ; 0
9D9A  CA020003           [049] len        11  6      
9D9E  19430300           [050] loadk      12  13       ; 0
9DA2  90020280           [051] forprep    10  9        ; to [61]
9DA6  9D030000           [052] getglobal  14  0        ; -1817107093
9DAA  D9830300           [053] loadk      15  14       ; "searchResults["
9DAE  12048006           [054] move       16  13     
9DB2  59C40300           [055] loadk      17  15       ; "]="
9DB6  8E440303           [056] gettable   18  6   13 
9DBA  A4044409           [057] self       18  18  272  ; 2122390761
9DBE  A2840001           [058] call       18  2   2  
9DC2  C2838407           [059] concat     15  15  18 
9DC6  A2430001           [060] call       14  2   1  
9DCA  9442FD7F           [061] forloop    10  -10      ; to [52] if loop
9DCE  99C30200           [062] loadk      14  11       ; ""
9DD2  D9430300           [063] loadk      15  13       ; 0
9DD6  0A040003           [064] len        16  6      
9DDA  59440300           [065] loadk      17  13       ; 0
9DDE  D0C30A80           [066] forprep    15  44       ; to [111]
9DE2  CE840403           [067] gettable   19  6   18 
9DE6  2445C409           [068] self       20  19  273  ; -1295768401
9DEA  22850001           [069] call       20  2   2  
fail op	35
9DEE  2380410A           [070] close      0  
9DF2  1A400080           [071] jmp        2            ; to [74]
9DF6  99830400           [072] loadk      14  18       ; "/Lotus/Language/Menu/SocialOverlay_SessionFull"
9DFA  1A000980           [073] jmp        37           ; to [111]
9DFE  1DC50000           [074] getglobal  20  3        ; gMatchingService
9E02  24C5440A           [075] self       20  20  275  ; -1089206238
9E06  A405C509           [076] self       22  19  276  ; -952083072
9E0A  A2050001           [077] call       22  2   0  
9E0E  22850000           [078] call       20  0   2  
9E12  18450000           [079] test       20      1    ; to [81] if false
9E16  1A400080           [080] jmp        2            ; to [83]
9E1A  99430500           [081] loadk      14  21       ; "/Lotus/Language/Menu/SocialOverlay_SessionStrictNAT"
9E1E  1AC00680           [082] jmp        28           ; to [111]
9E22  1D850500           [083] getglobal  20  22       ; gGameConfig
9E26  24C5450A           [084] self       20  20  279  ; -1981466301
9E2A  22850001           [085] call       20  2   2  
9E2E  18050000           [086] test       20      0    ; to [88] if true
9E32  1A400080           [087] jmp        2            ; to [90]
9E36  99030600           [088] loadk      14  24       ; "/Lotus/Language/Menu/MainMenu_NewBuildMissionsBlocked"
9E3A  1A000580           [089] jmp        21           ; to [111]
9E3E  1D850500           [090] getglobal  20  22       ; gGameConfig
9E42  2445460A           [091] self       20  20  281  ; 360880768
9E46  22850001           [092] call       20  2   2  
9E4A  18050000           [093] test       20      0    ; to [95] if true
9E4E  1A400080           [094] jmp        2            ; to [97]
9E52  99830600           [095] loadk      14  26       ; "/Lotus/Language/Menu/MainMenu_BugReportMissionsBlocked"
9E56  1A400380           [096] jmp        14           ; to [111]
9E5A  1D050000           [097] getglobal  20  0        ; -1817107093
9E5E  59C50600           [098] loadk      21  27       ; "joining "
9E62  A405C409           [099] self       22  19  272  ; 2122390761
9E66  A2850001           [100] call       22  2   2  
9E6A  4285850A           [101] concat     21  21  22 
9E6E  22450001           [102] call       20  2   1  
9E72  13058000           [103] getupval   20  1      
9E76  52058000           [104] move       21  1      
9E7A  92058009           [105] move       22  19     
9E7E  C605800B           [106] loadnil    23  23     
9E82  12068001           [107] move       24  3      
9E86  22458002           [108] call       20  5   1  
9E8A  0605800A           [109] loadnil    20  21     
9E8E  1E058001           [110] return     20  3      
9E92  D483F47F           [111] forloop    15  -45      ; to [67] if loop
9E96  12050007           [112] move       20  14     
9E9A  4605800A           [113] loadnil    21  21     
9E9E  1E058001           [114] return     20  3      
9EA2  1E008000           [115] return     0   1      
                         * constants:
9EA6  1C                 sizek (28)
9EA7  01                 const type 3
9EA8  6B25B193           const [0]: (-1817107093)
9EAC  04                 const type 4
9EAD  35                 string size (53)
9EAE  4C6F747573557469+  "LotusUti"
9EB6  6C733A3A4F6E4669+  "ls::OnFi"
9EBE  6E64436C616E446F+  "ndClanDo"
9EC6  6A6F53657373696F+  "joSessio"
9ECE  6E436F6D706C6574+  "nComplet"
9ED6  65202D2073756363+  "e - succ"
9EDE  6573733D00         "ess=\0"
                         const [1]: "LotusUtils::OnFindClanDojoSessionComplete - success="
9EE3  01                 const type 3
9EE4  BCD6AE9F           const [2]: (-1615931716)
9EE8  04                 const type 4
9EE9  11                 string size (17)
9EEA  674D61746368696E+  "gMatchin"
9EF2  6753657276696365+  "gService"
9EFA  00                 "\0"
                         const [3]: "gMatchingService"
9EFB  01                 const type 3
9EFC  0091849A           const [4]: (-1702588160)
9F00  01                 const type 3
9F01  65770E40           const [5]: (1074689893)
9F05  03                 const type 3
9F06  00000000           const [6]: (0)
9F0A  00                 const type 0
                         const [7]: nil
9F0B  04                 const type 4
9F0C  35                 string size (53)
9F0D  4E6F20636C616E64+  "No cland"
9F15  6F6A6F20686F7374+  "ojo host"
9F1D  7320666F756E6420+  "s found "
9F25  2D2D207072657061+  "-- prepa"
9F2D  72696E6720746F20+  "ring to "
9F35  686F7374206C6F63+  "host loc"
9F3D  616C6C7900         "ally\0"
                         const [8]: "No clandojo hosts found -- preparing to host locally"
9F42  04                 const type 4
9F43  03                 string size (3)
9F44  5F5400             "_T\0"
                         const [9]: "_T"
9F47  04                 const type 4
9F48  0E                 string size (14)
9F49  674E756D446F6A6F+  "gNumDojo"
9F51  547269657300       "Tries\0"
                         const [10]: "gNumDojoTries"
9F57  04                 const type 4
9F58  01                 string size (0)
                         const [11]: ""
9F5A  04                 const type 4
9F5B  1A                 string size (26)
9F5C  417661696C61626C+  "Availabl"
9F64  6520636C616E646F+  "e clando"
9F6C  6A6F20686F737473+  "jo hosts"
9F74  3A00               ":\0"
                         const [12]: "Available clandojo hosts:"
9F76  03                 const type 3
9F77  0000803F           const [13]: (0)
9F7B  04                 const type 4
9F7C  0F                 string size (15)
9F7D  7365617263685265+  "searchRe"
9F85  73756C74735B00     "sults[\0"
                         const [14]: "searchResults["
9F8C  04                 const type 4
9F8D  03                 string size (3)
9F8E  5D3D00             "]=\0"
                         const [15]: "]="
9F91  01                 const type 3
9F92  E91C817E           const [16]: (2122390761)
9F96  01                 const type 3
9F97  AF24C4B2           const [17]: (-1295768401)
9F9B  04                 const type 4
9F9C  2F                 string size (47)
9F9D  2F4C6F7475732F4C+  "/Lotus/L"
9FA5  616E67756167652F+  "anguage/"
9FAD  4D656E752F536F63+  "Menu/Soc"
9FB5  69616C4F7665726C+  "ialOverl"
9FBD  61795F5365737369+  "ay_Sessi"
9FC5  6F6E46756C6C00     "onFull\0"
                         const [18]: "/Lotus/Language/Menu/SocialOverlay_SessionFull"
9FCC  01                 const type 3
9FCD  220814BF           const [19]: (-1089206238)
9FD1  01                 const type 3
9FD2  805D40C7           const [20]: (-952083072)
9FD6  04                 const type 4
9FD7  34                 string size (52)
9FD8  2F4C6F7475732F4C+  "/Lotus/L"
9FE0  616E67756167652F+  "anguage/"
9FE8  4D656E752F536F63+  "Menu/Soc"
9FF0  69616C4F7665726C+  "ialOverl"
9FF8  61795F5365737369+  "ay_Sessi"
A000  6F6E537472696374+  "onStrict"
A008  4E415400           "NAT\0"
                         const [21]: "/Lotus/Language/Menu/SocialOverlay_SessionStrictNAT"
A00C  04                 const type 4
A00D  0C                 string size (12)
A00E  6747616D65436F6E+  "gGameCon"
A016  66696700           "fig\0"
                         const [22]: "gGameConfig"
A01A  01                 const type 3
A01B  4339E589           const [23]: (-1981466301)
A01F  04                 const type 4
A020  36                 string size (54)
A021  2F4C6F7475732F4C+  "/Lotus/L"
A029  616E67756167652F+  "anguage/"
A031  4D656E752F4D6169+  "Menu/Mai"
A039  6E4D656E755F4E65+  "nMenu_Ne"
A041  774275696C644D69+  "wBuildMi"
A049  7373696F6E73426C+  "ssionsBl"
A051  6F636B656400       "ocked\0"
                         const [24]: "/Lotus/Language/Menu/MainMenu_NewBuildMissionsBlocked"
A057  01                 const type 3
A058  809A8215           const [25]: (360880768)
A05C  04                 const type 4
A05D  37                 string size (55)
A05E  2F4C6F7475732F4C+  "/Lotus/L"
A066  616E67756167652F+  "anguage/"
A06E  4D656E752F4D6169+  "Menu/Mai"
A076  6E4D656E755F4275+  "nMenu_Bu"
A07E  675265706F72744D+  "gReportM"
A086  697373696F6E7342+  "issionsB"
A08E  6C6F636B656400     "locked\0"
                         const [26]: "/Lotus/Language/Menu/MainMenu_BugReportMissionsBlocked"
A095  04                 const type 4
A096  09                 string size (9)
A097  6A6F696E696E6720+  "joining "
A09F  00                 "\0"
                         const [27]: "joining "
                         * functions:
A0A0  00                 sizep (0)
                         * lines:
A0A1  73                 sizelineinfo (115)
                         [pc] (line)
A0A2  96                 [001] (-106)
A0A3  05                 [002] (-106)
A0A4  00                 [003] (-106)
A0A5  00                 [004] (-106)
A0A6  96                 [005] (-106)
A0A7  05                 [006] (-106)
A0A8  00                 [007] (-106)
A0A9  00                 [008] (-105)
A0AA  96                 [009] (-105)
A0AB  05                 [010] (-105)
A0AC  00                 [011] (-104)
A0AD  00                 [012] (-104)
A0AE  96                 [013] (-104)
A0AF  05                 [014] (-104)
A0B0  00                 [015] (-104)
A0B1  00                 [016] (-104)
A0B2  96                 [017] (-104)
A0B3  05                 [018] (-104)
A0B4  00                 [019] (-104)
A0B5  00                 [020] (-104)
A0B6  96                 [021] (-102)
A0B7  05                 [022] (-102)
A0B8  00                 [023] (-102)
A0B9  00                 [024] (-102)
A0BA  96                 [025] (-101)
A0BB  05                 [026] (-101)
A0BC  00                 [027] (-101)
A0BD  00                 [028] (-100)
A0BE  97                 [029] (-100)
A0BF  05                 [030] (-100)
A0C0  00                 [031] (-100)
A0C1  00                 [032] (-100)
A0C2  97                 [033] (-100)
A0C3  05                 [034] (-100)
A0C4  00                 [035] (-99)
A0C5  00                 [036] (-99)
A0C6  97                 [037] (-98)
A0C7  05                 [038] (-98)
A0C8  00                 [039] (-98)
A0C9  00                 [040] (-95)
A0CA  98                 [041] (-95)
A0CB  05                 [042] (-92)
A0CC  00                 [043] (-92)
A0CD  00                 [044] (-92)
A0CE  98                 [045] (-89)
A0CF  05                 [046] (-89)
A0D0  00                 [047] (-89)
A0D1  00                 [048] (-88)
A0D2  98                 [049] (-88)
A0D3  05                 [050] (-88)
A0D4  00                 [051] (-88)
A0D5  00                 [052] (-87)
A0D6  98                 [053] (-87)
A0D7  05                 [054] (-87)
A0D8  00                 [055] (-87)
A0D9  00                 [056] (-87)
A0DA  98                 [057] (-87)
A0DB  05                 [058] (-87)
A0DC  00                 [059] (-87)
A0DD  00                 [060] (-87)
A0DE  98                 [061] (-88)
A0DF  05                 [062] (-84)
A0E0  00                 [063] (-82)
A0E1  00                 [064] (-82)
A0E2  98                 [065] (-82)
A0E3  05                 [066] (-82)
A0E4  00                 [067] (-81)
A0E5  00                 [068] (-79)
A0E6  98                 [069] (-79)
A0E7  05                 [070] (-79)
A0E8  00                 [071] (-79)
A0E9  00                 [072] (-78)
A0EA  98                 [073] (-78)
A0EB  05                 [074] (-77)
A0EC  00                 [075] (-77)
A0ED  00                 [076] (-77)
A0EE  98                 [077] (-77)
A0EF  05                 [078] (-77)
A0F0  00                 [079] (-77)
A0F1  00                 [080] (-77)
A0F2  9A                 [081] (-76)
A0F3  05                 [082] (-76)
A0F4  00                 [083] (-75)
A0F5  00                 [084] (-75)
A0F6  9A                 [085] (-75)
A0F7  05                 [086] (-75)
A0F8  00                 [087] (-75)
A0F9  00                 [088] (-74)
A0FA  9A                 [089] (-74)
A0FB  05                 [090] (-73)
A0FC  00                 [091] (-73)
A0FD  00                 [092] (-73)
A0FE  9A                 [093] (-73)
A0FF  05                 [094] (-73)
A100  00                 [095] (-72)
A101  00                 [096] (-72)
A102  9B                 [097] (-69)
A103  05                 [098] (-69)
A104  00                 [099] (-69)
A105  00                 [100] (-69)
A106  9B                 [101] (-69)
A107  05                 [102] (-69)
A108  00                 [103] (-67)
A109  00                 [104] (-67)
A10A  9B                 [105] (-67)
A10B  05                 [106] (-67)
A10C  00                 [107] (-67)
A10D  00                 [108] (-67)
A10E  9C                 [109] (-65)
A10F  05                 [110] (-65)
A110  00                 [111] (-82)
A111  00                 [112] (-61)
A112  9C                 [113] (-61)
A113  05                 [114] (-61)
A114  00                 [115] (-60)
                         * locals:
A26E  00                 sizelocvars (0)
                         * upvalues:
A26F  00                 sizeupvalues (0)
                         ** end of function **

                         
A270                     ** function [38] definition (level 2)
                         ** start of function **
A270  00                 string size (0)
                         source name: (none)
A272  0B                 line defined (1478)
A273  D4                 last line defined (1492)
A274  0B                 nups (2)
A275  02                 numparams (0)
A276  00                 is_vararg (0)
A277  00                 maxstacksize (3)
                         * code:
A279  3A                 sizecode (58)
A27A  1D000000           [01] getglobal  0   0        ; 1074689893
A27E  5D400000           [02] getglobal  1   1        ; _T
A282  4E80C000           [03] gettable   1   1   258  ; "BackgroundMovie"
A286  22800001           [04] call       0   2   2  
A28A  18400000           [05] test       0       1    ; to [7] if false
A28E  1A800C80           [06] jmp        51           ; to [58]
A292  13000000           [07] getupval   0   0      
A296  0EC04000           [08] gettable   0   0   259  ; 254078837
A29A  22808000           [09] call       0   1   2  
A29E  18000000           [10] test       0       0    ; to [12] if true
A2A2  1AC00280           [11] jmp        12           ; to [24]
A2A6  1D000000           [12] getglobal  0   0        ; 1074689893
A2AA  5D000100           [13] getglobal  1   4        ; gMatchingService
A2AE  6440C100           [14] self       1   1   261  ; -706726330
A2B2  62000001           [15] call       1   2   0  
A2B6  22800000           [16] call       0   0   2  
A2BA  18000000           [17] test       0       0    ; to [19] if true
A2BE  1A000180           [18] jmp        5            ; to [24]
A2C2  13008000           [19] getupval   0   1      
A2C6  0E804100           [20] gettable   0   0   262  ; 185724978
A2CA  59C00100           [21] loadk      1   7        ; "/Lotus/Language/Menu/GameInvitesDisabled"
A2CE  22400001           [22] call       0   2   1  
A2D2  1A400880           [23] jmp        34           ; to [58]
A2D6  1D400000           [24] getglobal  0   1        ; _T
A2DA  0E004200           [25] gettable   0   0   264  ; "gActiveMatchMakingMode"
A2DE  5D400000           [26] getglobal  1   1        ; _T
A2E2  4E40C200           [27] gettable   1   1   265  ; "MATCHMAKING_OFFLINE_GAMEMODE"
fail op	35
A2E6  23400000           [28] close      0  
A2EA  1A800580           [29] jmp        23           ; to [53]
A2EE  1D800200           [30] getglobal  0   10       ; Engine
A2F2  0EC04200           [31] gettable   0   0   267  ; 1767719465
A2F6  22808000           [32] call       0   1   2  
A2FA  18000000           [33] test       0       0    ; to [35] if true
A2FE  1A000380           [34] jmp        13           ; to [48]
A302  1D000300           [35] getglobal  0   12       ; gPlayerProfileMgr
A306  24404300           [36] self       0   0   269  ; 569342746
A30A  99800300           [37] loadk      2   14       ; 0
A30E  22808001           [38] call       0   3   2  
A312  24C04300           [39] self       0   0   271  ; -1697107066
A316  22800001           [40] call       0   2   2  
A31A  18400000           [41] test       0       1    ; to [43] if false
A31E  1A000180           [42] jmp        5            ; to [48]
A322  13008000           [43] getupval   0   1      
A326  0E804100           [44] gettable   0   0   262  ; 185724978
A32A  59000400           [45] loadk      1   16       ; "/Lotus/Language/Menu/GameInvitesDisabledXBone"
A32E  22400001           [46] call       0   2   1  
A332  1A400280           [47] jmp        10           ; to [58]
A336  13008000           [48] getupval   0   1      
A33A  0E804100           [49] gettable   0   0   262  ; 185724978
A33E  59400400           [50] loadk      1   17       ; "/Lotus/Language/Menu/GameInvitesDisabledFrontend"
A342  22400001           [51] call       0   2   1  
A346  1A000180           [52] jmp        5            ; to [58]
A34A  1D400000           [53] getglobal  0   1        ; _T
A34E  0E804400           [54] gettable   0   0   274  ; 284681872
A352  59C00400           [55] loadk      1   19       ; "InvitePanel"
A356  22800001           [56] call       0   2   2  
A35A  1E000001           [57] return     0   2      
A35E  1E008000           [58] return     0   1      
                         * constants:
A362  14                 sizek (20)
A363  01                 const type 3
A364  65770E40           const [0]: (1074689893)
A368  04                 const type 4
A369  03                 string size (3)
A36A  5F5400             "_T\0"
                         const [1]: "_T"
A36D  04                 const type 4
A36E  10                 string size (16)
A36F  4261636B67726F75+  "Backgrou"
A377  6E644D6F76696500   "ndMovie\0"
                         const [2]: "BackgroundMovie"
A37F  01                 const type 3
A380  75EF240F           const [3]: (254078837)
A384  04                 const type 4
A385  11                 string size (17)
A386  674D61746368696E+  "gMatchin"
A38E  6753657276696365+  "gService"
A396  00                 "\0"
                         const [4]: "gMatchingService"
A397  01                 const type 3
A398  4636E0D5           const [5]: (-706726330)
A39C  01                 const type 3
A39D  32F0110B           const [6]: (185724978)
A3A1  04                 const type 4
A3A2  29                 string size (41)
A3A3  2F4C6F7475732F4C+  "/Lotus/L"
A3AB  616E67756167652F+  "anguage/"
A3B3  4D656E752F47616D+  "Menu/Gam"
A3BB  65496E7669746573+  "eInvites"
A3C3  44697361626C6564+  "Disabled"
A3CB  00                 "\0"
                         const [7]: "/Lotus/Language/Menu/GameInvitesDisabled"
A3CC  04                 const type 4
A3CD  17                 string size (23)
A3CE  674163746976654D+  "gActiveM"
A3D6  617463684D616B69+  "atchMaki"
A3DE  6E674D6F646500     "ngMode\0"
                         const [8]: "gActiveMatchMakingMode"
A3E5  04                 const type 4
A3E6  1D                 string size (29)
A3E7  4D415443484D414B+  "MATCHMAK"
A3EF  494E475F4F46464C+  "ING_OFFL"
A3F7  494E455F47414D45+  "INE_GAME"
A3FF  4D4F444500         "MODE\0"
                         const [9]: "MATCHMAKING_OFFLINE_GAMEMODE"
A404  04                 const type 4
A405  07                 string size (7)
A406  456E67696E6500     "Engine\0"
                         const [10]: "Engine"
A40D  01                 const type 3
A40E  29425D69           const [11]: (1767719465)
A412  04                 const type 4
A413  12                 string size (18)
A414  67506C6179657250+  "gPlayerP"
A41C  726F66696C654D67+  "rofileMg"
A424  7200               "r\0"
                         const [12]: "gPlayerProfileMgr"
A426  01                 const type 3
A427  1A7BEF21           const [13]: (569342746)
A42B  03                 const type 3
A42C  00000000           const [14]: (0)
A430  01                 const type 3
A431  8633D89A           const [15]: (-1697107066)
A435  04                 const type 4
A436  2E                 string size (46)
A437  2F4C6F7475732F4C+  "/Lotus/L"
A43F  616E67756167652F+  "anguage/"
A447  4D656E752F47616D+  "Menu/Gam"
A44F  65496E7669746573+  "eInvites"
A457  44697361626C6564+  "Disabled"
A45F  58426F6E6500       "XBone\0"
                         const [16]: "/Lotus/Language/Menu/GameInvitesDisabledXBone"
A465  04                 const type 4
A466  31                 string size (49)
A467  2F4C6F7475732F4C+  "/Lotus/L"
A46F  616E67756167652F+  "anguage/"
A477  4D656E752F47616D+  "Menu/Gam"
A47F  65496E7669746573+  "eInvites"
A487  44697361626C6564+  "Disabled"
A48F  46726F6E74656E64+  "Frontend"
A497  00                 "\0"
                         const [17]: "/Lotus/Language/Menu/GameInvitesDisabledFrontend"
A498  01                 const type 3
A499  90E6F710           const [18]: (284681872)
A49D  04                 const type 4
A49E  0C                 string size (12)
A49F  496E766974655061+  "InvitePa"
A4A7  6E656C00           "nel\0"
                         const [19]: "InvitePanel"
                         * functions:
A4AB  00                 sizep (0)
                         * lines:
A4AC  3A                 sizelineinfo (58)
                         [pc] (line)
A4AD  C7                 [01] (-57)
A4AE  05                 [02] (-57)
A4AF  00                 [03] (-57)
A4B0  00                 [04] (-57)
A4B1  C7                 [05] (-57)
A4B2  05                 [06] (-57)
A4B3  00                 [07] (-56)
A4B4  00                 [08] (-56)
A4B5  C7                 [09] (-56)
A4B6  05                 [10] (-56)
A4B7  00                 [11] (-56)
A4B8  00                 [12] (-56)
A4B9  C7                 [13] (-56)
A4BA  05                 [14] (-56)
A4BB  00                 [15] (-56)
A4BC  00                 [16] (-56)
A4BD  C7                 [17] (-56)
A4BE  05                 [18] (-56)
A4BF  00                 [19] (-55)
A4C0  00                 [20] (-55)
A4C1  C7                 [21] (-55)
A4C2  05                 [22] (-55)
A4C3  00                 [23] (-55)
A4C4  00                 [24] (-54)
A4C5  C8                 [25] (-54)
A4C6  05                 [26] (-54)
A4C7  00                 [27] (-54)
A4C8  00                 [28] (-54)
A4C9  C8                 [29] (-54)
A4CA  05                 [30] (-53)
A4CB  00                 [31] (-53)
A4CC  00                 [32] (-53)
A4CD  C8                 [33] (-53)
A4CE  05                 [34] (-53)
A4CF  00                 [35] (-53)
A4D0  00                 [36] (-53)
A4D1  C8                 [37] (-53)
A4D2  05                 [38] (-53)
A4D3  00                 [39] (-53)
A4D4  00                 [40] (-53)
A4D5  C8                 [41] (-53)
A4D6  05                 [42] (-53)
A4D7  00                 [43] (-52)
A4D8  00                 [44] (-52)
A4D9  C8                 [45] (-52)
A4DA  05                 [46] (-52)
A4DB  00                 [47] (-52)
A4DC  00                 [48] (-50)
A4DD  C8                 [49] (-50)
A4DE  05                 [50] (-50)
A4DF  00                 [51] (-50)
A4E0  00                 [52] (-49)
A4E1  C8                 [53] (-47)
A4E2  05                 [54] (-47)
A4E3  00                 [55] (-47)
A4E4  00                 [56] (-47)
A4E5  C8                 [57] (-47)
A4E6  05                 [58] (-44)
                         * locals:
A595  00                 sizelocvars (0)
                         * upvalues:
A596  00                 sizeupvalues (0)
                         ** end of function **

                         
A597                     ** function [39] definition (level 2)
                         ** start of function **
A597  00                 string size (0)
                         source name: (none)
A599  0B                 line defined (1494)
A59A  D7                 last line defined (1495)
A59B  0B                 nups (0)
A59C  00                 numparams (0)
A59D  00                 is_vararg (0)
A59E  00                 maxstacksize (2)
                         * code:
A5A0  01                 sizecode (1)
A5A1  1E008000           [1] return     0   1      
                         * constants:
A5A5  00                 sizek (0)
                         * functions:
A5A6  00                 sizep (0)
                         * lines:
A5A7  01                 sizelineinfo (1)
                         [pc] (line)
A5A8  D7                 [1] (-41)
                         * locals:
A5AC  00                 sizelocvars (0)
                         * upvalues:
A5AD  00                 sizeupvalues (0)
                         ** end of function **

                         
A5AE                     ** function [40] definition (level 2)
                         ** start of function **
A5AE  00                 string size (0)
                         source name: (none)
A5B0  0B                 line defined (1497)
A5B1  E2                 last line defined (1506)
A5B2  0B                 nups (0)
A5B3  00                 numparams (0)
A5B4  00                 is_vararg (0)
A5B5  00                 maxstacksize (4)
                         * code:
A5B7  21                 sizecode (33)
A5B8  1D000000           [01] getglobal  0   0        ; 1074689893
A5BC  5D400000           [02] getglobal  1   1        ; _T
A5C0  4E80C000           [03] gettable   1   1   258  ; "ForegroundMovie"
A5C4  22800001           [04] call       0   2   2  
A5C8  18400000           [05] test       0       1    ; to [7] if false
A5CC  1AC00280           [06] jmp        12           ; to [19]
A5D0  1D400000           [07] getglobal  0   1        ; _T
A5D4  0E804000           [08] gettable   0   0   258  ; "ForegroundMovie"
A5D8  24C04000           [09] self       0   0   259  ; 1167009705
A5DC  99000100           [10] loadk      2   4        ; "SetLobbyStatusMessage"
A5E0  D9400100           [11] loadk      3   5        ; ""
A5E4  22400002           [12] call       0   4   1  
A5E8  1D400000           [13] getglobal  0   1        ; _T
A5EC  0E804000           [14] gettable   0   0   258  ; "ForegroundMovie"
A5F0  24C04000           [15] self       0   0   259  ; 1167009705
A5F4  99800100           [16] loadk      2   6        ; "EnableKeyButton"
A5F8  D9C00100           [17] loadk      3   7        ; "true"
A5FC  22400002           [18] call       0   4   1  
A600  1D000000           [19] getglobal  0   0        ; 1074689893
A604  5D400000           [20] getglobal  1   1        ; _T
A608  4E00C200           [21] gettable   1   1   264  ; "BackgroundMovie"
A60C  22800001           [22] call       0   2   2  
A610  18400000           [23] test       0       1    ; to [25] if false
A614  1A400180           [24] jmp        6            ; to [31]
A618  1D400000           [25] getglobal  0   1        ; _T
A61C  0E004200           [26] gettable   0   0   264  ; "BackgroundMovie"
A620  24C04000           [27] self       0   0   259  ; 1167009705
A624  99400200           [28] loadk      2   9        ; "TerminateQuickMatch"
A628  D9400100           [29] loadk      3   5        ; ""
A62C  22400002           [30] call       0   4   1  
A630  1D400000           [31] getglobal  0   1        ; _T
A634  0CC04285           [32] settable   0   266 267  ; "gSelectedRegionId" 0
A638  1E008000           [33] return     0   1      
                         * constants:
A63C  0C                 sizek (12)
A63D  01                 const type 3
A63E  65770E40           const [0]: (1074689893)
A642  04                 const type 4
A643  03                 string size (3)
A644  5F5400             "_T\0"
                         const [1]: "_T"
A647  04                 const type 4
A648  10                 string size (16)
A649  466F726567726F75+  "Foregrou"
A651  6E644D6F76696500   "ndMovie\0"
                         const [2]: "ForegroundMovie"
A659  01                 const type 3
A65A  A9278F45           const [3]: (1167009705)
A65E  04                 const type 4
A65F  16                 string size (22)
A660  5365744C6F626279+  "SetLobby"
A668  5374617475734D65+  "StatusMe"
A670  737361676500       "ssage\0"
                         const [4]: "SetLobbyStatusMessage"
A676  04                 const type 4
A677  01                 string size (0)
                         const [5]: ""
A679  04                 const type 4
A67A  10                 string size (16)
A67B  456E61626C654B65+  "EnableKe"
A683  79427574746F6E00   "yButton\0"
                         const [6]: "EnableKeyButton"
A68B  04                 const type 4
A68C  05                 string size (5)
A68D  7472756500         "true\0"
                         const [7]: "true"
A692  04                 const type 4
A693  10                 string size (16)
A694  4261636B67726F75+  "Backgrou"
A69C  6E644D6F76696500   "ndMovie\0"
                         const [8]: "BackgroundMovie"
A6A4  04                 const type 4
A6A5  14                 string size (20)
A6A6  5465726D696E6174+  "Terminat"
A6AE  65517569636B4D61+  "eQuickMa"
A6B6  74636800           "tch\0"
                         const [9]: "TerminateQuickMatch"
A6BA  04                 const type 4
A6BB  12                 string size (18)
A6BC  6753656C65637465+  "gSelecte"
A6C4  64526567696F6E49+  "dRegionI"
A6CC  6400               "d\0"
                         const [10]: "gSelectedRegionId"
A6CE  03                 const type 3
A6CF  000080BF           const [11]: (0)
                         * functions:
A6D3  00                 sizep (0)
                         * lines:
A6D4  21                 sizelineinfo (33)
                         [pc] (line)
A6D5  DA                 [01] (-38)
A6D6  05                 [02] (-38)
A6D7  00                 [03] (-38)
A6D8  00                 [04] (-38)
A6D9  DA                 [05] (-38)
A6DA  05                 [06] (-38)
A6DB  00                 [07] (-37)
A6DC  00                 [08] (-37)
A6DD  DA                 [09] (-37)
A6DE  05                 [10] (-37)
A6DF  00                 [11] (-37)
A6E0  00                 [12] (-37)
A6E1  DA                 [13] (-36)
A6E2  05                 [14] (-36)
A6E3  00                 [15] (-36)
A6E4  00                 [16] (-36)
A6E5  DA                 [17] (-36)
A6E6  05                 [18] (-36)
A6E7  00                 [19] (-34)
A6E8  00                 [20] (-34)
A6E9  DA                 [21] (-34)
A6EA  05                 [22] (-34)
A6EB  00                 [23] (-34)
A6EC  00                 [24] (-34)
A6ED  DB                 [25] (-33)
A6EE  05                 [26] (-33)
A6EF  00                 [27] (-33)
A6F0  00                 [28] (-33)
A6F1  DB                 [29] (-33)
A6F2  05                 [30] (-33)
A6F3  00                 [31] (-31)
A6F4  00                 [32] (-31)
A6F5  DB                 [33] (-30)
                         * locals:
A759  00                 sizelocvars (0)
                         * upvalues:
A75A  00                 sizeupvalues (0)
                         ** end of function **

                         
A75B                     ** function [41] definition (level 2)
                         ** start of function **
A75B  00                 string size (0)
                         source name: (none)
A75D  0B                 line defined (1508)
A75E  EC                 last line defined (1516)
A75F  0B                 nups (0)
A760  00                 numparams (0)
A761  00                 is_vararg (0)
A762  00                 maxstacksize (6)
                         * code:
A764  11                 sizecode (17)
A765  1D000000           [01] getglobal  0   0        ; gMatchingService
A769  24404000           [02] self       0   0   257  ; -1985412809
A76D  22800001           [03] call       0   2   2  
A771  59800000           [04] loadk      1   2        ; 0
A775  8A000000           [05] len        2   0      
A779  D9800000           [06] loadk      3   2        ; 0
A77D  50400180           [07] forprep    1   6        ; to [14]
A781  4E010100           [08] gettable   5   0   4  
A785  4EC1C002           [09] gettable   5   5   259  ; "isLocal"
A789  58010000           [10] test       5       0    ; to [12] if true
A78D  1A400080           [11] jmp        2            ; to [14]
A791  4E010100           [12] gettable   5   0   4  
A795  5E010001           [13] return     5   2      
A799  5400FE7F           [14] forloop    1   -7       ; to [8] if loop
A79D  46018002           [15] loadnil    5   5      
A7A1  5E010001           [16] return     5   2      
A7A5  1E008000           [17] return     0   1      
                         * constants:
A7A9  04                 sizek (4)
A7AA  04                 const type 4
A7AB  11                 string size (17)
A7AC  674D61746368696E+  "gMatchin"
A7B4  6753657276696365+  "gService"
A7BC  00                 "\0"
                         const [0]: "gMatchingService"
A7BD  01                 const type 3
A7BE  3701A989           const [1]: (-1985412809)
A7C2  03                 const type 3
A7C3  0000803F           const [2]: (0)
A7C7  04                 const type 4
A7C8  08                 string size (8)
A7C9  69734C6F63616C00   "isLocal\0"
                         const [3]: "isLocal"
                         * functions:
A7D1  00                 sizep (0)
                         * lines:
A7D2  11                 sizelineinfo (17)
                         [pc] (line)
A7D3  E5                 [01] (-27)
A7D4  05                 [02] (-27)
A7D5  00                 [03] (-27)
A7D6  00                 [04] (-26)
A7D7  E5                 [05] (-26)
A7D8  05                 [06] (-26)
A7D9  00                 [07] (-26)
A7DA  00                 [08] (-25)
A7DB  E5                 [09] (-25)
A7DC  05                 [10] (-25)
A7DD  00                 [11] (-25)
A7DE  00                 [12] (-24)
A7DF  E6                 [13] (-24)
A7E0  05                 [14] (-26)
A7E1  00                 [15] (-21)
A7E2  00                 [16] (-21)
A7E3  E6                 [17] (-20)
                         * locals:
A817  00                 sizelocvars (0)
                         * upvalues:
A818  00                 sizeupvalues (0)
                         ** end of function **

                         
A819                     ** function [42] definition (level 2)
                         ** start of function **
A819  00                 string size (0)
                         source name: (none)
A81B  0B                 line defined (1518)
A81C  F0                 last line defined (1520)
A81D  0B                 nups (1)
A81E  01                 numparams (0)
A81F  00                 is_vararg (0)
A820  00                 maxstacksize (2)
                         * code:
A822  04                 sizecode (4)
A823  13000000           [1] getupval   0   0      
A827  07008000           [2] tailcall   0   1   0  
A82B  1E000000           [3] return     0   0      
A82F  1E008000           [4] return     0   1      
                         * constants:
A833  00                 sizek (0)
                         * functions:
A834  00                 sizep (0)
                         * lines:
A835  04                 sizelineinfo (4)
                         [pc] (line)
A836  EF                 [1] (-17)
A837  05                 [2] (-17)
A838  00                 [3] (-17)
A839  00                 [4] (-16)
                         * locals:
A846  00                 sizelocvars (0)
                         * upvalues:
A847  00                 sizeupvalues (0)
                         ** end of function **

                         
A848                     ** function [43] definition (level 2)
                         ** start of function **
A848  00                 string size (0)
                         source name: (none)
A84A  0B                 line defined (1522)
A84B  FA                 last line defined (1530)
A84C  0B                 nups (0)
A84D  00                 numparams (1)
A84E  01                 is_vararg (0)
A84F  00                 maxstacksize (7)
                         * code:
A851  11                 sizecode (17)
A852  5D000000           [01] getglobal  1   0        ; gMatchingService
A856  6440C000           [02] self       1   1   257  ; -1985412809
A85A  62800001           [03] call       1   2   2  
A85E  99800000           [04] loadk      2   2        ; 0
A862  CA008000           [05] len        3   1      
A866  19810000           [06] loadk      4   2        ; 0
A86A  90400180           [07] forprep    2   6        ; to [14]
A86E  8E418100           [08] gettable   6   1   5  
A872  8EC14003           [09] gettable   6   6   259  ; "onlineId"
fail op	35
A876  23000003           [10] close      0  
A87A  1A400080           [11] jmp        2            ; to [14]
A87E  8E418100           [12] gettable   6   1   5  
A882  9E010001           [13] return     6   2      
A886  9400FE7F           [14] forloop    2   -7       ; to [8] if loop
A88A  86010003           [15] loadnil    6   6      
A88E  9E010001           [16] return     6   2      
A892  1E008000           [17] return     0   1      
                         * constants:
A896  04                 sizek (4)
A897  04                 const type 4
A898  11                 string size (17)
A899  674D61746368696E+  "gMatchin"
A8A1  6753657276696365+  "gService"
A8A9  00                 "\0"
                         const [0]: "gMatchingService"
A8AA  01                 const type 3
A8AB  3701A989           const [1]: (-1985412809)
A8AF  03                 const type 3
A8B0  0000803F           const [2]: (0)
A8B4  04                 const type 4
A8B5  09                 string size (9)
A8B6  6F6E6C696E654964+  "onlineId"
A8BE  00                 "\0"
                         const [3]: "onlineId"
                         * functions:
A8BF  00                 sizep (0)
                         * lines:
A8C0  11                 sizelineinfo (17)
                         [pc] (line)
A8C1  F3                 [01] (-13)
A8C2  05                 [02] (-13)
A8C3  00                 [03] (-13)
A8C4  00                 [04] (-12)
A8C5  F3                 [05] (-12)
A8C6  05                 [06] (-12)
A8C7  00                 [07] (-12)
A8C8  00                 [08] (-11)
A8C9  F3                 [09] (-11)
A8CA  05                 [10] (-11)
A8CB  00                 [11] (-11)
A8CC  00                 [12] (-10)
A8CD  F4                 [13] (-10)
A8CE  05                 [14] (-12)
A8CF  00                 [15] (-7)
A8D0  00                 [16] (-7)
A8D1  F4                 [17] (-6)
                         * locals:
A905  00                 sizelocvars (0)
                         * upvalues:
A906  00                 sizeupvalues (0)
                         ** end of function **

                         
A907                     ** function [44] definition (level 2)
                         ** start of function **
A907  00                 string size (0)
                         source name: (none)
A909  0B                 line defined (1532)
A90A  FE                 last line defined (1534)
A90B  0B                 nups (1)
A90C  01                 numparams (1)
A90D  01                 is_vararg (0)
A90E  00                 maxstacksize (3)
                         * code:
A910  05                 sizecode (5)
A911  53000000           [1] getupval   1   0      
A915  92000000           [2] move       2   0      
A919  47000001           [3] tailcall   1   2   0  
A91D  5E000000           [4] return     1   0      
A921  1E008000           [5] return     0   1      
                         * constants:
A925  00                 sizek (0)
                         * functions:
A926  00                 sizep (0)
                         * lines:
A927  05                 sizelineinfo (5)
                         [pc] (line)
A928  FD                 [1] (-3)
A929  05                 [2] (-3)
A92A  00                 [3] (-3)
A92B  00                 [4] (-3)
A92C  FD                 [5] (-2)
                         * locals:
A93C  00                 sizelocvars (0)
                         * upvalues:
A93D  00                 sizeupvalues (0)
                         ** end of function **

                         
A93E                     ** function [45] definition (level 2)
                         ** start of function **
A93E  00                 string size (0)
                         source name: (none)
A940  0C                 line defined (1536)
A941  88                 last line defined (1544)
A942  0C                 nups (0)
A943  00                 numparams (1)
A944  01                 is_vararg (0)
A945  00                 maxstacksize (7)
                         * code:
A947  11                 sizecode (17)
A948  5D000000           [01] getglobal  1   0        ; gMatchingService
A94C  6440C000           [02] self       1   1   257  ; -1985412809
A950  62800001           [03] call       1   2   2  
A954  99800000           [04] loadk      2   2        ; 0
A958  CA008000           [05] len        3   1      
A95C  19810000           [06] loadk      4   2        ; 0
A960  90400180           [07] forprep    2   6        ; to [14]
A964  8E418100           [08] gettable   6   1   5  
A968  8EC14003           [09] gettable   6   6   259  ; "name"
fail op	35
A96C  23000003           [10] close      0  
A970  1A400080           [11] jmp        2            ; to [14]
A974  8E418100           [12] gettable   6   1   5  
A978  9E010001           [13] return     6   2      
A97C  9400FE7F           [14] forloop    2   -7       ; to [8] if loop
A980  86010003           [15] loadnil    6   6      
A984  9E010001           [16] return     6   2      
A988  1E008000           [17] return     0   1      
                         * constants:
A98C  04                 sizek (4)
A98D  04                 const type 4
A98E  11                 string size (17)
A98F  674D61746368696E+  "gMatchin"
A997  6753657276696365+  "gService"
A99F  00                 "\0"
                         const [0]: "gMatchingService"
A9A0  01                 const type 3
A9A1  3701A989           const [1]: (-1985412809)
A9A5  03                 const type 3
A9A6  0000803F           const [2]: (0)
A9AA  04                 const type 4
A9AB  05                 string size (5)
A9AC  6E616D6500         "name\0"
                         const [3]: "name"
                         * functions:
A9B1  00                 sizep (0)
                         * lines:
A9B2  11                 sizelineinfo (17)
                         [pc] (line)
A9B3  01                 [01] (1)
A9B4  06                 [02] (1)
A9B5  00                 [03] (1)
A9B6  00                 [04] (2)
A9B7  01                 [05] (2)
A9B8  06                 [06] (2)
A9B9  00                 [07] (2)
A9BA  00                 [08] (3)
A9BB  01                 [09] (3)
A9BC  06                 [10] (3)
A9BD  00                 [11] (3)
A9BE  00                 [12] (4)
A9BF  02                 [13] (4)
A9C0  06                 [14] (2)
A9C1  00                 [15] (7)
A9C2  00                 [16] (7)
A9C3  02                 [17] (8)
                         * locals:
A9F7  00                 sizelocvars (0)
                         * upvalues:
A9F8  00                 sizeupvalues (0)
                         ** end of function **

                         
A9F9                     ** function [46] definition (level 2)
                         ** start of function **
A9F9  00                 string size (0)
                         source name: (none)
A9FB  0C                 line defined (1546)
A9FC  DA                 last line defined (1626)
A9FD  0C                 nups (4)
A9FE  04                 numparams (1)
A9FF  01                 is_vararg (0)
AA00  00                 maxstacksize (12)
                         * code:
AA03  01                 sizecode (204)
AA04  5D000000           [001] getglobal  1   0        ; gPlayerProfileMgr
AA08  6440C000           [002] self       1   1   257  ; 569342746
AA0C  D9800000           [003] loadk      3   2        ; 0
AA10  62808001           [004] call       1   3   2  
AA14  9DC00000           [005] getglobal  2   3        ; 1074689893
AA18  D2008000           [006] move       3   1      
AA1C  A2800001           [007] call       2   2   2  
AA20  98400000           [008] test       2       1    ; to [10] if false
AA24  1A000180           [009] jmp        5            ; to [15]
AA28  9D000000           [010] getglobal  2   0        ; gPlayerProfileMgr
AA2C  A4004101           [011] self       2   2   260  ; 853032131
AA30  A2800001           [012] call       2   2   2  
AA34  98400000           [013] test       2       1    ; to [15] if false
AA38  1A400080           [014] jmp        2            ; to [17]
AA3C  99400100           [015] loadk      2   5        ; "/Language/Menu/SignInMessageBoxTitle"
AA40  9E000001           [016] return     2   2      
AA44  9D800100           [017] getglobal  2   6        ; gGameConfig
AA48  A4C04101           [018] self       2   2   263  ; -1981466301
AA4C  A2800001           [019] call       2   2   2  
AA50  98000000           [020] test       2       0    ; to [22] if true
AA54  1A400080           [021] jmp        2            ; to [24]
AA58  99000200           [022] loadk      2   8        ; "/Lotus/Language/Menu/MainMenu_NewBuildMissionsBlocked"
AA5C  9E000001           [023] return     2   2      
AA60  9D800100           [024] getglobal  2   6        ; gGameConfig
AA64  A4404201           [025] self       2   2   265  ; 360880768
AA68  A2800001           [026] call       2   2   2  
AA6C  98000000           [027] test       2       0    ; to [29] if true
AA70  1A400080           [028] jmp        2            ; to [31]
AA74  99800200           [029] loadk      2   10       ; "/Lotus/Language/Menu/MainMenu_BugReportMissionsBlocked"
AA78  9E000001           [030] return     2   2      
AA7C  9DC00200           [031] getglobal  2   11       ; gMatchingService
AA80  A4004301           [032] self       2   2   268  ; -706726330
AA84  A2800001           [033] call       2   2   2  
AA88  DD400300           [034] getglobal  3   13       ; _T
AA8C  CE80C301           [035] gettable   3   3   270  ; "gActiveMatchMakingMode"
AA90  1D410300           [036] getglobal  4   13       ; _T
AA94  0EC14302           [037] gettable   4   4   271  ; "MATCHMAKING_OFFLINE_GAMEMODE"
fail op	35
AA98  23008101           [038] close      0  
AA9C  1A800380           [039] jmp        15           ; to [55]
AAA0  DD000400           [040] getglobal  3   16       ; Engine
AAA4  CE40C401           [041] gettable   3   3   273  ; 1767719465
AAA8  E2808000           [042] call       3   1   2  
AAAC  D8000000           [043] test       3       0    ; to [45] if true
AAB0  1A800180           [044] jmp        7            ; to [52]
AAB4  E480C400           [045] self       3   1   274  ; -1697107066
AAB8  E2800001           [046] call       3   2   2  
AABC  D8400000           [047] test       3       1    ; to [49] if false
AAC0  1A800080           [048] jmp        3            ; to [52]
AAC4  D9C00400           [049] loadk      3   19       ; "/Lotus/Language/Menu/GameInvitesDisabledXBone"
AAC8  DE000001           [050] return     3   2      
AACC  1A000480           [051] jmp        17           ; to [69]
AAD0  D9000500           [052] loadk      3   20       ; "/Lotus/Language/Menu/GameInvitesDisabledFrontend"
AAD4  DE000001           [053] return     3   2      
AAD8  1A400380           [054] jmp        14           ; to [69]
AADC  DDC00000           [055] getglobal  3   3        ; 1074689893
AAE0  12010001           [056] move       4   2      
AAE4  E2800001           [057] call       3   2   2  
AAE8  D8000000           [058] test       3       0    ; to [60] if true
AAEC  1A000280           [059] jmp        9            ; to [69]
AAF0  D3000000           [060] getupval   3   0      
AAF4  CE40C501           [061] gettable   3   3   277  ; -2016270516
AAF8  E2808000           [062] call       3   1   2  
AAFC  D8000000           [063] test       3       0    ; to [65] if true
AB00  1A400080           [064] jmp        2            ; to [67]
AB04  D9800500           [065] loadk      3   22       ; "/Lotus/Language/Menu/GameInvitesDisabled"
AB08  DE000001           [066] return     3   2      
AB0C  C6008001           [067] loadnil    3   3      
AB10  DE000001           [068] return     3   2      
AB14  E4C04501           [069] self       3   2   279  ; -348174914
AB18  E2800001           [070] call       3   2   2  
AB1C  2401C600           [071] self       4   1   280  ; 1699680402
AB20  22810001           [072] call       4   2   2  
fail op	35
AB24  63404600           [073] close      1  
AB28  1AC00180           [074] jmp        8            ; to [83]
AB2C  4E814600           [075] gettable   5   0   282  ; "session"
AB30  4EC1C602           [076] gettable   5   5   283  ; "id"
AB34  A4014701           [077] self       6   2   284  ; -1518391629
AB38  A2810001           [078] call       6   2   2  
fail op	35
AB3C  23808102           [079] close      0  
AB40  1A400080           [080] jmp        2            ; to [83]
AB44  59410700           [081] loadk      5   29       ; "/Lotus/Language/Menu/SocialOverlay_PlayerAlreadyInGame"
AB48  5E010001           [082] return     5   2      
AB4C  5DC10000           [083] getglobal  5   3        ; 1074689893
AB50  9D810700           [084] getglobal  6   30       ; gGameRules
AB54  62810001           [085] call       5   2   2  
AB58  58410000           [086] test       5       1    ; to [88] if false
AB5C  1A400480           [087] jmp        18           ; to [106]
AB60  5D810700           [088] getglobal  5   30       ; gGameRules
AB64  64C1C702           [089] self       5   5   287  ; -1957065004
AB68  DD010800           [090] getglobal  7   32       ; gLotusDojoGameRulesType
AB6C  62818001           [091] call       5   3   2  
AB70  58010000           [092] test       5       0    ; to [94] if true
AB74  1AC00280           [093] jmp        12           ; to [106]
AB78  5D810700           [094] getglobal  5   30       ; gGameRules
AB7C  6441C802           [095] self       5   5   289  ; 360266085
AB80  62810001           [096] call       5   2   2  
fail op	35
AB84  6380C802           [097] close      1  
AB88  1AC00080           [098] jmp        4            ; to [103]
AB8C  A4414802           [099] self       6   4   289  ; 360266085
AB90  A2810001           [100] call       6   2   2  
fail op	35
AB94  63808102           [101] close      1  
AB98  1A000980           [102] jmp        37           ; to [140]
AB9C  99C10800           [103] loadk      6   35       ; "/Lotus/Language/Menu/SocialOverlay_GuestInviteDenied"
ABA0  9E010001           [104] return     6   2      
ABA4  1A400880           [105] jmp        34           ; to [140]
ABA8  8E01C901           [106] gettable   6   3   292  ; "regionId"
ABAC  DD010400           [107] getglobal  7   16       ; Engine
ABB0  CE41C903           [108] gettable   7   7   293  ; "INVITE_ONLY"
fail op	35
ABB4  23C00103           [109] close      0  
ABB8  1A000780           [110] jmp        29           ; to [140]
ABBC  93018000           [111] getupval   6   1      
ABC0  A2818000           [112] call       6   1   2  
ABC4  DDC10200           [113] getglobal  7   11       ; gMatchingService
ABC8  E481C903           [114] self       7   7   294  ; -833102175
ABCC  E2810001           [115] call       7   2   2  
fail op	35
ABD0  6380C803           [116] close      1  
ABD4  1A400580           [117] jmp        22           ; to [140]
ABD8  1DC20000           [118] getglobal  8   3        ; 1074689893
ABDC  52020003           [119] move       9   6      
ABE0  22820001           [120] call       8   2   2  
ABE4  18420000           [121] test       8       1    ; to [123] if false
ABE8  1A800080           [122] jmp        3            ; to [126]
ABEC  0EC24903           [123] gettable   8   6   295  ; "onlineId"
fail op	35
ABF0  63008203           [124] close      1  
ABF4  1A400380           [125] jmp        14           ; to [140]
ABF8  1DC20200           [126] getglobal  8   11       ; gMatchingService
ABFC  24024A04           [127] self       8   8   296  ; -506968081
AC00  22820001           [128] call       8   2   2  
AC04  18020000           [129] test       8       0    ; to [131] if true
AC08  1A800180           [130] jmp        7            ; to [138]
AC0C  1DC20000           [131] getglobal  8   3        ; 1074689893
AC10  53020001           [132] getupval   9   2      
AC14  92028003           [133] move       10  7      
AC18  62020001           [134] call       9   2   0  
AC1C  22820000           [135] call       8   0   2  
AC20  18420000           [136] test       8       1    ; to [138] if false
AC24  1A400080           [137] jmp        2            ; to [140]
AC28  19420A00           [138] loadk      8   41       ; "/Lotus/Language/Menu/SocialOverlay_SessionRequiresInvite"
AC2C  1E020001           [139] return     8   2      
AC30  0E02C901           [140] gettable   8   3   292  ; "regionId"
AC34  5D020400           [141] getglobal  9   16       ; Engine
AC38  4E82CA04           [142] gettable   9   9   298  ; "LOCKED"
fail op	35
AC3C  23400204           [143] close      0  
AC40  1A400080           [144] jmp        2            ; to [147]
AC44  19C20A00           [145] loadk      8   43       ; "/Lotus/Language/Menu/SocialOverlay_SessionLocked"
AC48  1E020001           [146] return     8   2      
AC4C  24024B01           [147] self       8   2   300  ; -1295768401
AC50  22820001           [148] call       8   2   2  
fail op	35
AC54  23804004           [149] close      0  
AC58  1A400280           [150] jmp        10           ; to [161]
AC5C  1DC20200           [151] getglobal  8   11       ; gMatchingService
AC60  24024A04           [152] self       8   8   296  ; -506968081
AC64  22820001           [153] call       8   2   2  
AC68  18020000           [154] test       8       0    ; to [156] if true
AC6C  1A800080           [155] jmp        3            ; to [159]
AC70  19420B00           [156] loadk      8   45       ; "/Lotus/Language/Menu/SocialOverlay_HostSessionFull"
AC74  1E020001           [157] return     8   2      
AC78  1A400080           [158] jmp        2            ; to [161]
AC7C  19820B00           [159] loadk      8   46       ; "/Lotus/Language/Menu/SocialOverlay_SessionFull"
AC80  1E020001           [160] return     8   2      
AC84  1DC20000           [161] getglobal  8   3        ; 1074689893
AC88  5D420300           [162] getglobal  9   13       ; _T
AC8C  4EC2CB04           [163] gettable   9   9   303  ; "gPendingMission"
AC90  22820001           [164] call       8   2   2  
AC94  18420000           [165] test       8       1    ; to [167] if false
AC98  1A000580           [166] jmp        21           ; to [188]
AC9C  1D420300           [167] getglobal  8   13       ; _T
ACA0  0EC24B04           [168] gettable   8   8   303  ; "gPendingMission"
ACA4  0E024C04           [169] gettable   8   8   304  ; "name"
ACA8  53028001           [170] getupval   9   3      
fail op	35
ACAC  23400204           [171] close      0  
ACB0  1A800380           [172] jmp        15           ; to [188]
ACB4  1DC20200           [173] getglobal  8   11       ; gMatchingService
ACB8  24424C04           [174] self       8   8   305  ; 903726717
ACBC  22820001           [175] call       8   2   2  
fail op	33
ACC0  21000299           [176] tforloop   0       8    ; to [178] if exit
ACC4  1A400280           [177] jmp        10           ; to [188]
ACC8  1DC20200           [178] getglobal  8   11       ; gMatchingService
ACCC  24024A04           [179] self       8   8   296  ; -506968081
ACD0  22820001           [180] call       8   2   2  
ACD4  18020000           [181] test       8       0    ; to [183] if true
ACD8  1A800080           [182] jmp        3            ; to [186]
ACDC  19420B00           [183] loadk      8   45       ; "/Lotus/Language/Menu/SocialOverlay_HostSessionFull"
ACE0  1E020001           [184] return     8   2      
ACE4  1A400080           [185] jmp        2            ; to [188]
ACE8  19820B00           [186] loadk      8   46       ; "/Lotus/Language/Menu/SocialOverlay_SessionFull"
ACEC  1E020001           [187] return     8   2      
ACF0  13028000           [188] getupval   8   1      
ACF4  22828000           [189] call       8   1   2  
fail op	35
ACF8  63404604           [190] close      1  
ACFC  1A400280           [191] jmp        10           ; to [202]
AD00  4EC24C04           [192] gettable   9   8   307  ; "teamToJoin"
fail op	35
AD04  6340C604           [193] close      1  
AD08  1A800180           [194] jmp        7            ; to [202]
AD0C  64024D01           [195] self       9   2   308  ; 1421293059
AD10  CEC24C04           [196] gettable   11  8   307  ; "teamToJoin"
AD14  62828001           [197] call       9   3   2  
fail op	35
AD18  2380C004           [198] close      0  
AD1C  1A400080           [199] jmp        2            ; to [202]
AD20  59420D00           [200] loadk      9   53       ; "/Lotus/Language/Menu/SocialOverlay_TeamFull"
AD24  5E020001           [201] return     9   2      
AD28  46028004           [202] loadnil    9   9      
AD2C  5E020001           [203] return     9   2      
AD30  1E008000           [204] return     0   1      
                         * constants:
AD34  36                 sizek (54)
AD35  04                 const type 4
AD36  12                 string size (18)
AD37  67506C6179657250+  "gPlayerP"
AD3F  726F66696C654D67+  "rofileMg"
AD47  7200               "r\0"
                         const [0]: "gPlayerProfileMgr"
AD49  01                 const type 3
AD4A  1A7BEF21           const [1]: (569342746)
AD4E  03                 const type 3
AD4F  00000000           const [2]: (0)
AD53  01                 const type 3
AD54  65770E40           const [3]: (1074689893)
AD58  01                 const type 3
AD59  C33CD832           const [4]: (853032131)
AD5D  04                 const type 4
AD5E  25                 string size (37)
AD5F  2F4C616E67756167+  "/Languag"
AD67  652F4D656E752F53+  "e/Menu/S"
AD6F  69676E496E4D6573+  "ignInMes"
AD77  73616765426F7854+  "sageBoxT"
AD7F  69746C6500         "itle\0"
                         const [5]: "/Language/Menu/SignInMessageBoxTitle"
AD84  04                 const type 4
AD85  0C                 string size (12)
AD86  6747616D65436F6E+  "gGameCon"
AD8E  66696700           "fig\0"
                         const [6]: "gGameConfig"
AD92  01                 const type 3
AD93  4339E589           const [7]: (-1981466301)
AD97  04                 const type 4
AD98  36                 string size (54)
AD99  2F4C6F7475732F4C+  "/Lotus/L"
ADA1  616E67756167652F+  "anguage/"
ADA9  4D656E752F4D6169+  "Menu/Mai"
ADB1  6E4D656E755F4E65+  "nMenu_Ne"
ADB9  774275696C644D69+  "wBuildMi"
ADC1  7373696F6E73426C+  "ssionsBl"
ADC9  6F636B656400       "ocked\0"
                         const [8]: "/Lotus/Language/Menu/MainMenu_NewBuildMissionsBlocked"
ADCF  01                 const type 3
ADD0  809A8215           const [9]: (360880768)
ADD4  04                 const type 4
ADD5  37                 string size (55)
ADD6  2F4C6F7475732F4C+  "/Lotus/L"
ADDE  616E67756167652F+  "anguage/"
ADE6  4D656E752F4D6169+  "Menu/Mai"
ADEE  6E4D656E755F4275+  "nMenu_Bu"
ADF6  675265706F72744D+  "gReportM"
ADFE  697373696F6E7342+  "issionsB"
AE06  6C6F636B656400     "locked\0"
                         const [10]: "/Lotus/Language/Menu/MainMenu_BugReportMissionsBlocked"
AE0D  04                 const type 4
AE0E  11                 string size (17)
AE0F  674D61746368696E+  "gMatchin"
AE17  6753657276696365+  "gService"
AE1F  00                 "\0"
                         const [11]: "gMatchingService"
AE20  01                 const type 3
AE21  4636E0D5           const [12]: (-706726330)
AE25  04                 const type 4
AE26  03                 string size (3)
AE27  5F5400             "_T\0"
                         const [13]: "_T"
AE2A  04                 const type 4
AE2B  17                 string size (23)
AE2C  674163746976654D+  "gActiveM"
AE34  617463684D616B69+  "atchMaki"
AE3C  6E674D6F646500     "ngMode\0"
                         const [14]: "gActiveMatchMakingMode"
AE43  04                 const type 4
AE44  1D                 string size (29)
AE45  4D415443484D414B+  "MATCHMAK"
AE4D  494E475F4F46464C+  "ING_OFFL"
AE55  494E455F47414D45+  "INE_GAME"
AE5D  4D4F444500         "MODE\0"
                         const [15]: "MATCHMAKING_OFFLINE_GAMEMODE"
AE62  04                 const type 4
AE63  07                 string size (7)
AE64  456E67696E6500     "Engine\0"
                         const [16]: "Engine"
AE6B  01                 const type 3
AE6C  29425D69           const [17]: (1767719465)
AE70  01                 const type 3
AE71  8633D89A           const [18]: (-1697107066)
AE75  04                 const type 4
AE76  2E                 string size (46)
AE77  2F4C6F7475732F4C+  "/Lotus/L"
AE7F  616E67756167652F+  "anguage/"
AE87  4D656E752F47616D+  "Menu/Gam"
AE8F  65496E7669746573+  "eInvites"
AE97  44697361626C6564+  "Disabled"
AE9F  58426F6E6500       "XBone\0"
                         const [19]: "/Lotus/Language/Menu/GameInvitesDisabledXBone"
AEA5  04                 const type 4
AEA6  31                 string size (49)
AEA7  2F4C6F7475732F4C+  "/Lotus/L"
AEAF  616E67756167652F+  "anguage/"
AEB7  4D656E752F47616D+  "Menu/Gam"
AEBF  65496E7669746573+  "eInvites"
AEC7  44697361626C6564+  "Disabled"
AECF  46726F6E74656E64+  "Frontend"
AED7  00                 "\0"
                         const [20]: "/Lotus/Language/Menu/GameInvitesDisabledFrontend"
AED8  01                 const type 3
AED9  4C27D287           const [21]: (-2016270516)
AEDD  04                 const type 4
AEDE  29                 string size (41)
AEDF  2F4C6F7475732F4C+  "/Lotus/L"
AEE7  616E67756167652F+  "anguage/"
AEEF  4D656E752F47616D+  "Menu/Gam"
AEF7  65496E7669746573+  "eInvites"
AEFF  44697361626C6564+  "Disabled"
AF07  00                 "\0"
                         const [22]: "/Lotus/Language/Menu/GameInvitesDisabled"
AF08  01                 const type 3
AF09  BE453FEB           const [23]: (-348174914)
AF0D  01                 const type 3
AF0E  92104F65           const [24]: (1699680402)
AF12  00                 const type 0
                         const [25]: nil
AF13  04                 const type 4
AF14  08                 string size (8)
AF15  73657373696F6E00   "session\0"
                         const [26]: "session"
AF1D  04                 const type 4
AF1E  03                 string size (3)
AF1F  696400             "id\0"
                         const [27]: "id"
AF22  01                 const type 3
AF23  B32E7FA5           const [28]: (-1518391629)
AF27  04                 const type 4
AF28  37                 string size (55)
AF29  2F4C6F7475732F4C+  "/Lotus/L"
AF31  616E67756167652F+  "anguage/"
AF39  4D656E752F536F63+  "Menu/Soc"
AF41  69616C4F7665726C+  "ialOverl"
AF49  61795F506C617965+  "ay_Playe"
AF51  72416C7265616479+  "rAlready"
AF59  496E47616D6500     "InGame\0"
                         const [29]: "/Lotus/Language/Menu/SocialOverlay_PlayerAlreadyInGame"
AF60  04                 const type 4
AF61  0B                 string size (11)
AF62  6747616D6552756C+  "gGameRul"
AF6A  657300             "es\0"
                         const [30]: "gGameRules"
AF6D  01                 const type 3
AF6E  D48E598B           const [31]: (-1957065004)
AF72  04                 const type 4
AF73  18                 string size (24)
AF74  674C6F747573446F+  "gLotusDo"
AF7C  6A6F47616D655275+  "joGameRu"
AF84  6C65735479706500   "lesType\0"
                         const [32]: "gLotusDojoGameRulesType"
AF8C  01                 const type 3
AF8D  65397915           const [33]: (360266085)
AF91  04                 const type 4
AF92  01                 string size (0)
                         const [34]: ""
AF94  04                 const type 4
AF95  35                 string size (53)
AF96  2F4C6F7475732F4C+  "/Lotus/L"
AF9E  616E67756167652F+  "anguage/"
AFA6  4D656E752F536F63+  "Menu/Soc"
AFAE  69616C4F7665726C+  "ialOverl"
AFB6  61795F4775657374+  "ay_Guest"
AFBE  496E766974654465+  "InviteDe"
AFC6  6E69656400         "nied\0"
                         const [35]: "/Lotus/Language/Menu/SocialOverlay_GuestInviteDenied"
AFCB  04                 const type 4
AFCC  09                 string size (9)
AFCD  726567696F6E4964+  "regionId"
AFD5  00                 "\0"
                         const [36]: "regionId"
AFD6  04                 const type 4
AFD7  0C                 string size (12)
AFD8  494E564954455F4F+  "INVITE_O"
AFE0  4E4C5900           "NLY\0"
                         const [37]: "INVITE_ONLY"
AFE4  01                 const type 3
AFE5  A1DE57CE           const [38]: (-833102175)
AFE9  04                 const type 4
AFEA  09                 string size (9)
AFEB  6F6E6C696E654964+  "onlineId"
AFF3  00                 "\0"
                         const [39]: "onlineId"
AFF4  01                 const type 3
AFF5  EF47C8E1           const [40]: (-506968081)
AFF9  04                 const type 4
AFFA  39                 string size (57)
AFFB  2F4C6F7475732F4C+  "/Lotus/L"
B003  616E67756167652F+  "anguage/"
B00B  4D656E752F536F63+  "Menu/Soc"
B013  69616C4F7665726C+  "ialOverl"
B01B  61795F5365737369+  "ay_Sessi"
B023  6F6E526571756972+  "onRequir"
B02B  6573496E76697465+  "esInvite"
B033  00                 "\0"
                         const [41]: "/Lotus/Language/Menu/SocialOverlay_SessionRequiresInvite"
B034  04                 const type 4
B035  07                 string size (7)
B036  4C4F434B454400     "LOCKED\0"
                         const [42]: "LOCKED"
B03D  04                 const type 4
B03E  31                 string size (49)
B03F  2F4C6F7475732F4C+  "/Lotus/L"
B047  616E67756167652F+  "anguage/"
B04F  4D656E752F536F63+  "Menu/Soc"
B057  69616C4F7665726C+  "ialOverl"
B05F  61795F5365737369+  "ay_Sessi"
B067  6F6E4C6F636B6564+  "onLocked"
B06F  00                 "\0"
                         const [43]: "/Lotus/Language/Menu/SocialOverlay_SessionLocked"
B070  01                 const type 3
B071  AF24C4B2           const [44]: (-1295768401)
B075  04                 const type 4
B076  33                 string size (51)
B077  2F4C6F7475732F4C+  "/Lotus/L"
B07F  616E67756167652F+  "anguage/"
B087  4D656E752F536F63+  "Menu/Soc"
B08F  69616C4F7665726C+  "ialOverl"
B097  61795F486F737453+  "ay_HostS"
B09F  657373696F6E4675+  "essionFu"
B0A7  6C6C00             "ll\0"
                         const [45]: "/Lotus/Language/Menu/SocialOverlay_HostSessionFull"
B0AA  04                 const type 4
B0AB  2F                 string size (47)
B0AC  2F4C6F7475732F4C+  "/Lotus/L"
B0B4  616E67756167652F+  "anguage/"
B0BC  4D656E752F536F63+  "Menu/Soc"
B0C4  69616C4F7665726C+  "ialOverl"
B0CC  61795F5365737369+  "ay_Sessi"
B0D4  6F6E46756C6C00     "onFull\0"
                         const [46]: "/Lotus/Language/Menu/SocialOverlay_SessionFull"
B0DB  04                 const type 4
B0DC  10                 string size (16)
B0DD  6750656E64696E67+  "gPending"
B0E5  4D697373696F6E00   "Mission\0"
                         const [47]: "gPendingMission"
B0ED  04                 const type 4
B0EE  05                 string size (5)
B0EF  6E616D6500         "name\0"
                         const [48]: "name"
B0F4  01                 const type 3
B0F5  7DC6DD35           const [49]: (903726717)
B0F9  03                 const type 3
B0FA  00000040           const [50]: (0)
B0FE  04                 const type 4
B0FF  0B                 string size (11)
B100  7465616D546F4A6F+  "teamToJo"
B108  696E00             "in\0"
                         const [51]: "teamToJoin"
B10B  01                 const type 3
B10C  0336B754           const [52]: (1421293059)
B110  04                 const type 4
B111  2C                 string size (44)
B112  2F4C6F7475732F4C+  "/Lotus/L"
B11A  616E67756167652F+  "anguage/"
B122  4D656E752F536F63+  "Menu/Soc"
B12A  69616C4F7665726C+  "ialOverl"
B132  61795F5465616D46+  "ay_TeamF"
B13A  756C6C00           "ull\0"
                         const [53]: "/Lotus/Language/Menu/SocialOverlay_TeamFull"
                         * functions:
B13E  00                 sizep (0)
                         * lines:
B140  01                 sizelineinfo (204)
                         [pc] (line)
B141  0B                 [001] (11)
B142  06                 [002] (11)
B143  00                 [003] (11)
B144  00                 [004] (11)
B145  0B                 [005] (12)
B146  06                 [006] (12)
B147  00                 [007] (12)
B148  00                 [008] (12)
B149  0B                 [009] (12)
B14A  06                 [010] (12)
B14B  00                 [011] (12)
B14C  00                 [012] (12)
B14D  0B                 [013] (12)
B14E  06                 [014] (12)
B14F  00                 [015] (13)
B150  00                 [016] (13)
B151  0C                 [017] (16)
B152  06                 [018] (16)
B153  00                 [019] (16)
B154  00                 [020] (16)
B155  0C                 [021] (16)
B156  06                 [022] (17)
B157  00                 [023] (17)
B158  00                 [024] (20)
B159  0C                 [025] (20)
B15A  06                 [026] (20)
B15B  00                 [027] (20)
B15C  00                 [028] (20)
B15D  0C                 [029] (21)
B15E  06                 [030] (21)
B15F  00                 [031] (24)
B160  00                 [032] (24)
B161  0C                 [033] (24)
B162  06                 [034] (25)
B163  00                 [035] (25)
B164  00                 [036] (25)
B165  0C                 [037] (25)
B166  06                 [038] (25)
B167  00                 [039] (25)
B168  00                 [040] (26)
B169  0C                 [041] (26)
B16A  06                 [042] (26)
B16B  00                 [043] (26)
B16C  00                 [044] (26)
B16D  0C                 [045] (26)
B16E  06                 [046] (26)
B16F  00                 [047] (26)
B170  00                 [048] (26)
B171  0C                 [049] (27)
B172  06                 [050] (27)
B173  00                 [051] (27)
B174  00                 [052] (29)
B175  0C                 [053] (29)
B176  06                 [054] (30)
B177  00                 [055] (31)
B178  00                 [056] (31)
B179  0D                 [057] (31)
B17A  06                 [058] (31)
B17B  00                 [059] (31)
B17C  00                 [060] (32)
B17D  0D                 [061] (32)
B17E  06                 [062] (32)
B17F  00                 [063] (32)
B180  00                 [064] (32)
B181  10                 [065] (33)
B182  06                 [066] (33)
B183  00                 [067] (37)
B184  00                 [068] (37)
B185  10                 [069] (40)
B186  06                 [070] (40)
B187  00                 [071] (41)
B188  00                 [072] (41)
B189  10                 [073] (43)
B18A  06                 [074] (43)
B18B  00                 [075] (43)
B18C  00                 [076] (43)
B18D  10                 [077] (43)
B18E  06                 [078] (43)
B18F  00                 [079] (43)
B190  00                 [080] (43)
B191  10                 [081] (44)
B192  06                 [082] (44)
B193  00                 [083] (47)
B194  00                 [084] (47)
B195  11                 [085] (47)
B196  06                 [086] (47)
B197  00                 [087] (47)
B198  00                 [088] (47)
B199  11                 [089] (47)
B19A  06                 [090] (47)
B19B  00                 [091] (47)
B19C  00                 [092] (47)
B19D  14                 [093] (47)
B19E  06                 [094] (48)
B19F  00                 [095] (48)
B1A0  00                 [096] (48)
B1A1  14                 [097] (49)
B1A2  06                 [098] (49)
B1A3  00                 [099] (49)
B1A4  00                 [100] (49)
B1A5  14                 [101] (49)
B1A6  06                 [102] (49)
B1A7  00                 [103] (51)
B1A8  00                 [104] (51)
B1A9  14                 [105] (52)
B1AA  06                 [106] (53)
B1AB  00                 [107] (53)
B1AC  00                 [108] (53)
B1AD  14                 [109] (53)
B1AE  06                 [110] (53)
B1AF  00                 [111] (55)
B1B0  00                 [112] (55)
B1B1  15                 [113] (56)
B1B2  06                 [114] (56)
B1B3  00                 [115] (56)
B1B4  00                 [116] (57)
B1B5  15                 [117] (57)
B1B6  06                 [118] (57)
B1B7  00                 [119] (57)
B1B8  00                 [120] (57)
B1B9  18                 [121] (57)
B1BA  06                 [122] (57)
B1BB  00                 [123] (57)
B1BC  00                 [124] (57)
B1BD  18                 [125] (57)
B1BE  06                 [126] (57)
B1BF  00                 [127] (57)
B1C0  00                 [128] (57)
B1C1  18                 [129] (57)
B1C2  06                 [130] (57)
B1C3  00                 [131] (57)
B1C4  00                 [132] (57)
B1C5  19                 [133] (57)
B1C6  06                 [134] (57)
B1C7  00                 [135] (57)
B1C8  00                 [136] (57)
B1C9  19                 [137] (57)
B1CA  06                 [138] (58)
B1CB  00                 [139] (58)
B1CC  00                 [140] (62)
B1CD  19                 [141] (62)
B1CE  06                 [142] (62)
B1CF  00                 [143] (62)
B1D0  00                 [144] (62)
B1D1  19                 [145] (63)
B1D2  06                 [146] (63)
B1D3  00                 [147] (66)
B1D4  00                 [148] (66)
B1D5  19                 [149] (66)
B1D6  06                 [150] (66)
B1D7  00                 [151] (67)
B1D8  00                 [152] (67)
B1D9  19                 [153] (67)
B1DA  06                 [154] (67)
B1DB  00                 [155] (67)
B1DC  00                 [156] (68)
B1DD  1A                 [157] (68)
B1DE  06                 [158] (68)
B1DF  00                 [159] (70)
B1E0  00                 [160] (70)
B1E1  1A                 [161] (76)
B1E2  06                 [162] (76)
B1E3  00                 [163] (76)
B1E4  00                 [164] (76)
B1E5  1A                 [165] (76)
B1E6  06                 [166] (76)
B1E7  00                 [167] (76)
B1E8  00                 [168] (76)
B1E9  1A                 [169] (76)
B1EA  06                 [170] (76)
B1EB  00                 [171] (76)
B1EC  00                 [172] (76)
B1ED  1A                 [173] (76)
B1EE  06                 [174] (76)
B1EF  00                 [175] (76)
B1F0  00                 [176] (76)
B1F1  1A                 [177] (76)
B1F2  06                 [178] (77)
B1F3  00                 [179] (77)
B1F4  00                 [180] (77)
B1F5  1A                 [181] (77)
B1F6  06                 [182] (77)
B1F7  00                 [183] (78)
B1F8  00                 [184] (78)
B1F9  1A                 [185] (78)
B1FA  06                 [186] (80)
B1FB  00                 [187] (80)
B1FC  00                 [188] (84)
B1FD  1A                 [189] (84)
B1FE  06                 [190] (85)
B1FF  00                 [191] (85)
B200  00                 [192] (85)
B201  1B                 [193] (85)
B202  06                 [194] (85)
B203  00                 [195] (85)
B204  00                 [196] (85)
B205  1B                 [197] (85)
B206  06                 [198] (85)
B207  00                 [199] (85)
B208  00                 [200] (86)
B209  1B                 [201] (86)
B20A  06                 [202] (89)
B20B  00                 [203] (89)
B20C  00                 [204] (90)
                         * locals:
B471  00                 sizelocvars (0)
                         * upvalues:
B472  00                 sizeupvalues (0)
                         ** end of function **

                         
B473                     ** function [47] definition (level 2)
                         ** start of function **
B473  00                 string size (0)
                         source name: (none)
B475  0C                 line defined (1631)
B476  EB                 last line defined (1643)
B477  0C                 nups (0)
B478  00                 numparams (1)
B479  01                 is_vararg (0)
B47A  00                 maxstacksize (5)
                         * code:
B47C  18                 sizecode (24)
B47D  5D000000           [01] getglobal  1   0        ; gMatchingService
B481  6440C000           [02] self       1   1   257  ; -706726330
B485  62800001           [03] call       1   2   2  
B489  9D800000           [04] getglobal  2   2        ; 1074689893
B48D  D2008000           [05] move       3   1      
B491  A2800001           [06] call       2   2   2  
B495  98000000           [07] test       2       0    ; to [9] if true
B499  1A400080           [08] jmp        2            ; to [11]
B49D  97000000           [09] loadbool   2   0   0    ; false
B4A1  9E000001           [10] return     2   2      
B4A5  18400000           [11] test       0       1    ; to [13] if false
B4A9  1A400080           [12] jmp        2            ; to [15]
B4AD  97008000           [13] loadbool   2   1   0    ; true
B4B1  9E000001           [14] return     2   2      
B4B5  8EC04000           [15] gettable   2   0   259  ; "session"
B4B9  8E004101           [16] gettable   2   2   260  ; "id"
B4BD  E440C100           [17] self       3   1   261  ; -1518391629
B4C1  E2800001           [18] call       3   2   2  
fail op	35
B4C5  23C00001           [19] close      0  
B4C9  1A000080           [20] jmp        1            ; to [22]
B4CD  97400000           [21] loadbool   2   0   1    ; false, to [23]
B4D1  97008000           [22] loadbool   2   1   0    ; true
B4D5  9E000001           [23] return     2   2      
B4D9  1E008000           [24] return     0   1      
                         * constants:
B4DD  06                 sizek (6)
B4DE  04                 const type 4
B4DF  11                 string size (17)
B4E0  674D61746368696E+  "gMatchin"
B4E8  6753657276696365+  "gService"
B4F0  00                 "\0"
                         const [0]: "gMatchingService"
B4F1  01                 const type 3
B4F2  4636E0D5           const [1]: (-706726330)
B4F6  01                 const type 3
B4F7  65770E40           const [2]: (1074689893)
B4FB  04                 const type 4
B4FC  08                 string size (8)
B4FD  73657373696F6E00   "session\0"
                         const [3]: "session"
B505  04                 const type 4
B506  03                 string size (3)
B507  696400             "id\0"
                         const [4]: "id"
B50A  01                 const type 3
B50B  B32E7FA5           const [5]: (-1518391629)
                         * functions:
B50F  00                 sizep (0)
                         * lines:
B510  18                 sizelineinfo (24)
                         [pc] (line)
B511  60                 [01] (96)
B512  06                 [02] (96)
B513  00                 [03] (96)
B514  00                 [04] (98)
B515  60                 [05] (98)
B516  06                 [06] (98)
B517  00                 [07] (98)
B518  00                 [08] (98)
B519  60                 [09] (99)
B51A  06                 [10] (99)
B51B  00                 [11] (102)
B51C  00                 [12] (102)
B51D  62                 [13] (103)
B51E  06                 [14] (103)
B51F  00                 [15] (106)
B520  00                 [16] (106)
B521  62                 [17] (106)
B522  06                 [18] (106)
B523  00                 [19] (106)
B524  00                 [20] (106)
B525  62                 [21] (106)
B526  06                 [22] (106)
B527  00                 [23] (106)
B528  00                 [24] (107)
                         * locals:
B571  00                 sizelocvars (0)
                         * upvalues:
B572  00                 sizeupvalues (0)
                         ** end of function **

                         
B573                     ** function [48] definition (level 2)
                         ** start of function **
B573  00                 string size (0)
                         source name: (none)
B575  0C                 line defined (1647)
B576  BA                 last line defined (1722)
B577  0D                 nups (2)
B578  02                 numparams (1)
B579  01                 is_vararg (0)
B57A  00                 maxstacksize (8)
                         * code:
B57D  01                 sizecode (155)
B57E  5D000000           [001] getglobal  1   0        ; gPlayerProfileMgr
B582  6440C000           [002] self       1   1   257  ; 569342746
B586  D9800000           [003] loadk      3   2        ; 0
B58A  62808001           [004] call       1   3   2  
B58E  9DC00000           [005] getglobal  2   3        ; 1074689893
B592  D2008000           [006] move       3   1      
B596  A2800001           [007] call       2   2   2  
B59A  98400000           [008] test       2       1    ; to [10] if false
B59E  1A000180           [009] jmp        5            ; to [15]
B5A2  9D000000           [010] getglobal  2   0        ; gPlayerProfileMgr
B5A6  A4004101           [011] self       2   2   260  ; 853032131
B5AA  A2800001           [012] call       2   2   2  
B5AE  98400000           [013] test       2       1    ; to [15] if false
B5B2  1A400080           [014] jmp        2            ; to [17]
B5B6  99400100           [015] loadk      2   5        ; "/Language/Menu/SignInMessageBoxTitle"
B5BA  9E000001           [016] return     2   2      
B5BE  9D800100           [017] getglobal  2   6        ; Engine
B5C2  8EC04101           [018] gettable   2   2   263  ; 1767719465
B5C6  A2808000           [019] call       2   1   2  
B5CA  98000000           [020] test       2       0    ; to [22] if true
B5CE  1A400180           [021] jmp        6            ; to [28]
B5D2  A400C200           [022] self       2   1   264  ; -1697107066
B5D6  A2800001           [023] call       2   2   2  
B5DA  98400000           [024] test       2       1    ; to [26] if false
B5DE  1A400080           [025] jmp        2            ; to [28]
B5E2  99400200           [026] loadk      2   9        ; "/Lotus/Language/Menu/GameJoinDisabledXBone"
B5E6  9E000001           [027] return     2   2      
B5EA  9D800200           [028] getglobal  2   10       ; gGameConfig
B5EE  A4C04201           [029] self       2   2   267  ; -1981466301
B5F2  A2800001           [030] call       2   2   2  
B5F6  98000000           [031] test       2       0    ; to [33] if true
B5FA  1A400080           [032] jmp        2            ; to [35]
B5FE  99000300           [033] loadk      2   12       ; "/Lotus/Language/Menu/MainMenu_NewBuildMissionsBlocked"
B602  9E000001           [034] return     2   2      
B606  9D800200           [035] getglobal  2   10       ; gGameConfig
B60A  A4404301           [036] self       2   2   269  ; 360880768
B60E  A2800001           [037] call       2   2   2  
B612  98000000           [038] test       2       0    ; to [40] if true
B616  1A400080           [039] jmp        2            ; to [42]
B61A  99800300           [040] loadk      2   14       ; "/Lotus/Language/Menu/MainMenu_BugReportMissionsBlocked"
B61E  9E000001           [041] return     2   2      
B622  8EC04300           [042] gettable   2   0   271  ; "session"
B626  8E004401           [043] gettable   2   2   272  ; "id"
fail op	35
B62A  63404401           [044] close      1  
B62E  1A400280           [045] jmp        10           ; to [56]
B632  8E804400           [046] gettable   2   0   274  ; "state"
B636  DD800100           [047] getglobal  3   6        ; Engine
B63A  CEC0C401           [048] gettable   3   3   275  ; "PlayerProfile_PS_OFFLINE"
fail op	35
B63E  63C00001           [049] close      1  
B642  1A000180           [050] jmp        5            ; to [56]
B646  8E804400           [051] gettable   2   0   274  ; "state"
B64A  DD800100           [052] getglobal  3   6        ; Engine
B64E  CE00C501           [053] gettable   3   3   276  ; "PlayerProfile_PS_FRONTEND"
fail op	35
B652  23C00001           [054] close      0  
B656  1A400080           [055] jmp        2            ; to [58]
B65A  99400500           [056] loadk      2   21       ; "/Lotus/Language/Menu/SocialOverlay_FriendNotInSession"
B65E  9E000001           [057] return     2   2      
B662  93000000           [058] getupval   2   0      
B666  8E804501           [059] gettable   2   2   278  ; -1941177721
B66A  CEC04300           [060] gettable   3   0   271  ; "session"
B66E  CEC0C501           [061] gettable   3   3   279  ; "gameModeId"
B672  A2800001           [062] call       2   2   2  
B676  98000000           [063] test       2       0    ; to [65] if true
B67A  1A000180           [064] jmp        5            ; to [70]
B67E  93008000           [065] getupval   2   1      
B682  A2808000           [066] call       2   1   2  
fail op	35
B686  63004601           [067] close      1  
B68A  1A000080           [068] jmp        1            ; to [70]
B68E  9E000001           [069] return     2   2      
B692  DD400600           [070] getglobal  3   25       ; gMatchingService
B696  E480C601           [071] self       3   3   282  ; -706726330
B69A  E2800001           [072] call       3   2   2  
B69E  1DC10000           [073] getglobal  4   3        ; 1074689893
B6A2  52018001           [074] move       5   3      
B6A6  22810001           [075] call       4   2   2  
B6AA  18410000           [076] test       4       1    ; to [78] if false
B6AE  1AC00180           [077] jmp        8            ; to [86]
B6B2  0EC14300           [078] gettable   4   0   271  ; "session"
B6B6  0E014402           [079] gettable   4   4   272  ; "id"
B6BA  64C1C601           [080] self       5   3   283  ; -1518391629
B6BE  62810001           [081] call       5   2   2  
fail op	35
B6C2  23400102           [082] close      0  
B6C6  1A400080           [083] jmp        2            ; to [86]
B6CA  19010700           [084] loadk      4   28       ; "/Lotus/Language/Menu/SocialOverlay_PlayerAlreadyInGame"
B6CE  1E010001           [085] return     4   2      
B6D2  0EC14300           [086] gettable   4   0   271  ; "session"
B6D6  0E414702           [087] gettable   4   4   285  ; "filledSlots"
fail op	21
B6DA  15804702           [088] concat     0   4   286
B6DE  1AC00280           [089] jmp        12           ; to [102]
B6E2  0EC14300           [090] gettable   4   0   271  ; "session"
B6E6  0E414702           [091] gettable   4   4   285  ; "filledSlots"
B6EA  4EC14300           [092] gettable   5   0   271  ; "session"
B6EE  4EC1C702           [093] gettable   5   5   287  ; "totalSlots"
fail op	33
B6F2  21008102           [094] tforloop   0       4    ; to [96] if exit
B6F6  1A400180           [095] jmp        6            ; to [102]
B6FA  1D010800           [096] getglobal  4   32       ; _G
B6FE  0E414802           [097] gettable   4   4   289  ; "StalkerMode"
B702  18410000           [098] test       4       1    ; to [100] if false
B706  1A400080           [099] jmp        2            ; to [102]
B70A  19810800           [100] loadk      4   34       ; "/Lotus/Language/Menu/SocialOverlay_SessionFull"
B70E  1E010001           [101] return     4   2      
B712  0EC14300           [102] gettable   4   0   271  ; "session"
B716  0EC14802           [103] gettable   4   4   291  ; "regionId"
B71A  5D810100           [104] getglobal  5   6        ; Engine
B71E  4E01C902           [105] gettable   5   5   292  ; "LOCKED"
fail op	35
B722  23400102           [106] close      0  
B726  1A400080           [107] jmp        2            ; to [110]
B72A  19410900           [108] loadk      4   37       ; "/Lotus/Language/Menu/SocialOverlay_SessionLocked"
B72E  1E010001           [109] return     4   2      
B732  0EC14300           [110] gettable   4   0   271  ; "session"
B736  0EC14802           [111] gettable   4   4   291  ; "regionId"
B73A  5D810100           [112] getglobal  5   6        ; Engine
B73E  4E81C902           [113] gettable   5   5   294  ; "INVITE_ONLY"
fail op	35
B742  23400102           [114] close      0  
B746  1A000480           [115] jmp        17           ; to [133]
B74A  0EC14300           [116] gettable   4   0   271  ; "session"
B74E  0EC14502           [117] gettable   4   4   279  ; "gameModeId"
B752  53010000           [118] getupval   5   0      
B756  4EC1C902           [119] gettable   5   5   295  ; 1017661185
B75A  62818000           [120] call       5   1   2  
fail op	35
B75E  63400102           [121] close      1  
B762  1A400280           [122] jmp        10           ; to [133]
B766  0EC14300           [123] gettable   4   0   271  ; "session"
B76A  0EC14502           [124] gettable   4   4   279  ; "gameModeId"
B76E  53010000           [125] getupval   5   0      
B772  4E01CA02           [126] gettable   5   5   296  ; 1740987431
B776  62818000           [127] call       5   1   2  
fail op	35
B77A  23400102           [128] close      0  
B77E  1A000080           [129] jmp        1            ; to [131]
B782  1A400080           [130] jmp        2            ; to [133]
B786  19410A00           [131] loadk      4   41       ; "/Lotus/Language/Menu/SocialOverlay_SessionRequiresInvite"
B78A  1E010001           [132] return     4   2      
B78E  1D410600           [133] getglobal  4   25       ; gMatchingService
B792  24814A02           [134] self       4   4   298  ; -1089206238
B796  8EC14300           [135] gettable   6   0   271  ; "session"
B79A  8EC14A03           [136] gettable   6   6   299  ; "strictNAT"
B79E  22818001           [137] call       4   3   2  
B7A2  18410000           [138] test       4       1    ; to [140] if false
B7A6  1A400080           [139] jmp        2            ; to [142]
B7AA  19010B00           [140] loadk      4   44       ; "/Lotus/Language/Menu/SocialOverlay_SessionStrictNAT"
B7AE  1E010001           [141] return     4   2      
B7B2  1D810200           [142] getglobal  4   10       ; gGameConfig
B7B6  24414B02           [143] self       4   4   301  ; 1803659381
B7BA  9D810B00           [144] getglobal  6   46       ; gRegion
B7BE  A4C14B03           [145] self       6   6   303  ; -771271018
B7C2  A2810001           [146] call       6   2   2  
B7C6  8E014C03           [147] gettable   6   6   304  ; "level"
B7CA  22818001           [148] call       4   3   2  
B7CE  18010000           [149] test       4       0    ; to [151] if true
B7D2  1A400080           [150] jmp        2            ; to [153]
B7D6  19410C00           [151] loadk      4   49       ; "/Lotus/Language/Menu/SocialOverlay_SessionJoinFromTutorial"
B7DA  1E010001           [152] return     4   2      
B7DE  06010002           [153] loadnil    4   4      
B7E2  1E010001           [154] return     4   2      
B7E6  1E008000           [155] return     0   1      
                         * constants:
B7EA  32                 sizek (50)
B7EB  04                 const type 4
B7EC  12                 string size (18)
B7ED  67506C6179657250+  "gPlayerP"
B7F5  726F66696C654D67+  "rofileMg"
B7FD  7200               "r\0"
                         const [0]: "gPlayerProfileMgr"
B7FF  01                 const type 3
B800  1A7BEF21           const [1]: (569342746)
B804  03                 const type 3
B805  00000000           const [2]: (0)
B809  01                 const type 3
B80A  65770E40           const [3]: (1074689893)
B80E  01                 const type 3
B80F  C33CD832           const [4]: (853032131)
B813  04                 const type 4
B814  25                 string size (37)
B815  2F4C616E67756167+  "/Languag"
B81D  652F4D656E752F53+  "e/Menu/S"
B825  69676E496E4D6573+  "ignInMes"
B82D  73616765426F7854+  "sageBoxT"
B835  69746C6500         "itle\0"
                         const [5]: "/Language/Menu/SignInMessageBoxTitle"
B83A  04                 const type 4
B83B  07                 string size (7)
B83C  456E67696E6500     "Engine\0"
                         const [6]: "Engine"
B843  01                 const type 3
B844  29425D69           const [7]: (1767719465)
B848  01                 const type 3
B849  8633D89A           const [8]: (-1697107066)
B84D  04                 const type 4
B84E  2B                 string size (43)
B84F  2F4C6F7475732F4C+  "/Lotus/L"
B857  616E67756167652F+  "anguage/"
B85F  4D656E752F47616D+  "Menu/Gam"
B867  654A6F696E446973+  "eJoinDis"
B86F  61626C656458426F+  "abledXBo"
B877  6E6500             "ne\0"
                         const [9]: "/Lotus/Language/Menu/GameJoinDisabledXBone"
B87A  04                 const type 4
B87B  0C                 string size (12)
B87C  6747616D65436F6E+  "gGameCon"
B884  66696700           "fig\0"
                         const [10]: "gGameConfig"
B888  01                 const type 3
B889  4339E589           const [11]: (-1981466301)
B88D  04                 const type 4
B88E  36                 string size (54)
B88F  2F4C6F7475732F4C+  "/Lotus/L"
B897  616E67756167652F+  "anguage/"
B89F  4D656E752F4D6169+  "Menu/Mai"
B8A7  6E4D656E755F4E65+  "nMenu_Ne"
B8AF  774275696C644D69+  "wBuildMi"
B8B7  7373696F6E73426C+  "ssionsBl"
B8BF  6F636B656400       "ocked\0"
                         const [12]: "/Lotus/Language/Menu/MainMenu_NewBuildMissionsBlocked"
B8C5  01                 const type 3
B8C6  809A8215           const [13]: (360880768)
B8CA  04                 const type 4
B8CB  37                 string size (55)
B8CC  2F4C6F7475732F4C+  "/Lotus/L"
B8D4  616E67756167652F+  "anguage/"
B8DC  4D656E752F4D6169+  "Menu/Mai"
B8E4  6E4D656E755F4275+  "nMenu_Bu"
B8EC  675265706F72744D+  "gReportM"
B8F4  697373696F6E7342+  "issionsB"
B8FC  6C6F636B656400     "locked\0"
                         const [14]: "/Lotus/Language/Menu/MainMenu_BugReportMissionsBlocked"
B903  04                 const type 4
B904  08                 string size (8)
B905  73657373696F6E00   "session\0"
                         const [15]: "session"
B90D  04                 const type 4
B90E  03                 string size (3)
B90F  696400             "id\0"
                         const [16]: "id"
B912  04                 const type 4
B913  01                 string size (0)
                         const [17]: ""
B915  04                 const type 4
B916  06                 string size (6)
B917  737461746500       "state\0"
                         const [18]: "state"
B91D  04                 const type 4
B91E  19                 string size (25)
B91F  506C617965725072+  "PlayerPr"
B927  6F66696C655F5053+  "ofile_PS"
B92F  5F4F46464C494E45+  "_OFFLINE"
B937  00                 "\0"
                         const [19]: "PlayerProfile_PS_OFFLINE"
B938  04                 const type 4
B939  1A                 string size (26)
B93A  506C617965725072+  "PlayerPr"
B942  6F66696C655F5053+  "ofile_PS"
B94A  5F46524F4E54454E+  "_FRONTEN"
B952  4400               "D\0"
                         const [20]: "PlayerProfile_PS_FRONTEND"
B954  04                 const type 4
B955  36                 string size (54)
B956  2F4C6F7475732F4C+  "/Lotus/L"
B95E  616E67756167652F+  "anguage/"
B966  4D656E752F536F63+  "Menu/Soc"
B96E  69616C4F7665726C+  "ialOverl"
B976  61795F467269656E+  "ay_Frien"
B97E  644E6F74496E5365+  "dNotInSe"
B986  7373696F6E00       "ssion\0"
                         const [21]: "/Lotus/Language/Menu/SocialOverlay_FriendNotInSession"
B98C  01                 const type 3
B98D  87FA4B8C           const [22]: (-1941177721)
B991  04                 const type 4
B992  0B                 string size (11)
B993  67616D654D6F6465+  "gameMode"
B99B  496400             "Id\0"
                         const [23]: "gameModeId"
B99E  00                 const type 0
                         const [24]: nil
B99F  04                 const type 4
B9A0  11                 string size (17)
B9A1  674D61746368696E+  "gMatchin"
B9A9  6753657276696365+  "gService"
B9B1  00                 "\0"
                         const [25]: "gMatchingService"
B9B2  01                 const type 3
B9B3  4636E0D5           const [26]: (-706726330)
B9B7  01                 const type 3
B9B8  B32E7FA5           const [27]: (-1518391629)
B9BC  04                 const type 4
B9BD  37                 string size (55)
B9BE  2F4C6F7475732F4C+  "/Lotus/L"
B9C6  616E67756167652F+  "anguage/"
B9CE  4D656E752F536F63+  "Menu/Soc"
B9D6  69616C4F7665726C+  "ialOverl"
B9DE  61795F506C617965+  "ay_Playe"
B9E6  72416C7265616479+  "rAlready"
B9EE  496E47616D6500     "InGame\0"
                         const [28]: "/Lotus/Language/Menu/SocialOverlay_PlayerAlreadyInGame"
B9F5  04                 const type 4
B9F6  0C                 string size (12)
B9F7  66696C6C6564536C+  "filledSl"
B9FF  6F747300           "ots\0"
                         const [29]: "filledSlots"
BA03  03                 const type 3
BA04  00007F43           const [30]: (0)
BA08  04                 const type 4
BA09  0B                 string size (11)
BA0A  746F74616C536C6F+  "totalSlo"
BA12  747300             "ts\0"
                         const [31]: "totalSlots"
BA15  04                 const type 4
BA16  03                 string size (3)
BA17  5F4700             "_G\0"
                         const [32]: "_G"
BA1A  04                 const type 4
BA1B  0C                 string size (12)
BA1C  5374616C6B65724D+  "StalkerM"
BA24  6F646500           "ode\0"
                         const [33]: "StalkerMode"
BA28  04                 const type 4
BA29  2F                 string size (47)
BA2A  2F4C6F7475732F4C+  "/Lotus/L"
BA32  616E67756167652F+  "anguage/"
BA3A  4D656E752F536F63+  "Menu/Soc"
BA42  69616C4F7665726C+  "ialOverl"
BA4A  61795F5365737369+  "ay_Sessi"
BA52  6F6E46756C6C00     "onFull\0"
                         const [34]: "/Lotus/Language/Menu/SocialOverlay_SessionFull"
BA59  04                 const type 4
BA5A  09                 string size (9)
BA5B  726567696F6E4964+  "regionId"
BA63  00                 "\0"
                         const [35]: "regionId"
BA64  04                 const type 4
BA65  07                 string size (7)
BA66  4C4F434B454400     "LOCKED\0"
                         const [36]: "LOCKED"
BA6D  04                 const type 4
BA6E  31                 string size (49)
BA6F  2F4C6F7475732F4C+  "/Lotus/L"
BA77  616E67756167652F+  "anguage/"
BA7F  4D656E752F536F63+  "Menu/Soc"
BA87  69616C4F7665726C+  "ialOverl"
BA8F  61795F5365737369+  "ay_Sessi"
BA97  6F6E4C6F636B6564+  "onLocked"
BA9F  00                 "\0"
                         const [37]: "/Lotus/Language/Menu/SocialOverlay_SessionLocked"
BAA0  04                 const type 4
BAA1  0C                 string size (12)
BAA2  494E564954455F4F+  "INVITE_O"
BAAA  4E4C5900           "NLY\0"
                         const [38]: "INVITE_ONLY"
BAAE  01                 const type 3
BAAF  0147A83C           const [39]: (1017661185)
BAB3  01                 const type 3
BAB4  275CC567           const [40]: (1740987431)
BAB8  04                 const type 4
BAB9  39                 string size (57)
BABA  2F4C6F7475732F4C+  "/Lotus/L"
BAC2  616E67756167652F+  "anguage/"
BACA  4D656E752F536F63+  "Menu/Soc"
BAD2  69616C4F7665726C+  "ialOverl"
BADA  61795F5365737369+  "ay_Sessi"
BAE2  6F6E526571756972+  "onRequir"
BAEA  6573496E76697465+  "esInvite"
BAF2  00                 "\0"
                         const [41]: "/Lotus/Language/Menu/SocialOverlay_SessionRequiresInvite"
BAF3  01                 const type 3
BAF4  220814BF           const [42]: (-1089206238)
BAF8  04                 const type 4
BAF9  0A                 string size (10)
BAFA  7374726963744E41+  "strictNA"
BB02  5400               "T\0"
                         const [43]: "strictNAT"
BB04  04                 const type 4
BB05  34                 string size (52)
BB06  2F4C6F7475732F4C+  "/Lotus/L"
BB0E  616E67756167652F+  "anguage/"
BB16  4D656E752F536F63+  "Menu/Soc"
BB1E  69616C4F7665726C+  "ialOverl"
BB26  61795F5365737369+  "ay_Sessi"
BB2E  6F6E537472696374+  "onStrict"
BB36  4E415400           "NAT\0"
                         const [44]: "/Lotus/Language/Menu/SocialOverlay_SessionStrictNAT"
BB3A  01                 const type 3
BB3B  75A8816B           const [45]: (1803659381)
BB3F  04                 const type 4
BB40  08                 string size (8)
BB41  67526567696F6E00   "gRegion\0"
                         const [46]: "gRegion"
BB49  01                 const type 3
BB4A  965607D2           const [47]: (-771271018)
BB4E  04                 const type 4
BB4F  06                 string size (6)
BB50  6C6576656C00       "level\0"
                         const [48]: "level"
BB56  04                 const type 4
BB57  3B                 string size (59)
BB58  2F4C6F7475732F4C+  "/Lotus/L"
BB60  616E67756167652F+  "anguage/"
BB68  4D656E752F536F63+  "Menu/Soc"
BB70  69616C4F7665726C+  "ialOverl"
BB78  61795F5365737369+  "ay_Sessi"
BB80  6F6E4A6F696E4672+  "onJoinFr"
BB88  6F6D5475746F7269+  "omTutori"
BB90  616C00             "al\0"
                         const [49]: "/Lotus/Language/Menu/SocialOverlay_SessionJoinFromTutorial"
                         * functions:
BB93  00                 sizep (0)
                         * lines:
BB95  01                 sizelineinfo (155)
                         [pc] (line)
BB96  70                 [001] (112)
BB97  06                 [002] (112)
BB98  00                 [003] (112)
BB99  00                 [004] (112)
BB9A  70                 [005] (113)
BB9B  06                 [006] (113)
BB9C  00                 [007] (113)
BB9D  00                 [008] (113)
BB9E  70                 [009] (113)
BB9F  06                 [010] (113)
BBA0  00                 [011] (113)
BBA1  00                 [012] (113)
BBA2  70                 [013] (113)
BBA3  06                 [014] (113)
BBA4  00                 [015] (114)
BBA5  00                 [016] (114)
BBA6  71                 [017] (117)
BBA7  06                 [018] (117)
BBA8  00                 [019] (117)
BBA9  00                 [020] (117)
BBAA  71                 [021] (117)
BBAB  06                 [022] (117)
BBAC  00                 [023] (117)
BBAD  00                 [024] (117)
BBAE  71                 [025] (117)
BBAF  06                 [026] (118)
BBB0  00                 [027] (118)
BBB1  00                 [028] (121)
BBB2  71                 [029] (121)
BBB3  06                 [030] (121)
BBB4  00                 [031] (121)
BBB5  00                 [032] (121)
BBB6  71                 [033] (122)
BBB7  06                 [034] (122)
BBB8  00                 [035] (125)
BBB9  00                 [036] (125)
BBBA  71                 [037] (125)
BBBB  06                 [038] (125)
BBBC  00                 [039] (125)
BBBD  00                 [040] (126)
BBBE  71                 [041] (126)
BBBF  06                 [042] (-126)
BBC0  00                 [043] (-126)
BBC1  00                 [044] (-126)
BBC2  71                 [045] (-126)
BBC3  06                 [046] (-125)
BBC4  00                 [047] (-125)
BBC5  00                 [048] (-125)
BBC6  71                 [049] (-125)
BBC7  06                 [050] (-125)
BBC8  00                 [051] (-124)
BBC9  00                 [052] (-124)
BBCA  71                 [053] (-124)
BBCB  06                 [054] (-124)
BBCC  00                 [055] (-124)
BBCD  00                 [056] (-122)
BBCE  72                 [057] (-122)
BBCF  06                 [058] (-119)
BBD0  00                 [059] (-119)
BBD1  00                 [060] (-119)
BBD2  72                 [061] (-119)
BBD3  06                 [062] (-119)
BBD4  00                 [063] (-119)
BBD5  00                 [064] (-119)
BBD6  75                 [065] (-118)
BBD7  06                 [066] (-118)
BBD8  00                 [067] (-117)
BBD9  00                 [068] (-117)
BBDA  75                 [069] (-116)
BBDB  06                 [070] (-112)
BBDC  00                 [071] (-112)
BBDD  00                 [072] (-112)
BBDE  75                 [073] (-110)
BBDF  06                 [074] (-110)
BBE0  00                 [075] (-110)
BBE1  00                 [076] (-110)
BBE2  75                 [077] (-110)
BBE3  06                 [078] (-109)
BBE4  00                 [079] (-109)
BBE5  00                 [080] (-109)
BBE6  75                 [081] (-109)
BBE7  06                 [082] (-109)
BBE8  00                 [083] (-109)
BBE9  00                 [084] (-108)
BBEA  75                 [085] (-108)
BBEB  06                 [086] (-100)
BBEC  00                 [087] (-100)
BBED  00                 [088] (-100)
BBEE  75                 [089] (-100)
BBEF  06                 [090] (-100)
BBF0  00                 [091] (-100)
BBF1  00                 [092] (-100)
BBF2  75                 [093] (-100)
BBF3  06                 [094] (-100)
BBF4  00                 [095] (-100)
BBF5  00                 [096] (-100)
BBF6  75                 [097] (-100)
BBF7  06                 [098] (-100)
BBF8  00                 [099] (-100)
BBF9  00                 [100] (-99)
BBFA  76                 [101] (-99)
BBFB  06                 [102] (-92)
BBFC  00                 [103] (-92)
BBFD  00                 [104] (-92)
BBFE  76                 [105] (-92)
BBFF  06                 [106] (-92)
BC00  00                 [107] (-92)
BC01  00                 [108] (-91)
BC02  79                 [109] (-91)
BC03  06                 [110] (-88)
BC04  00                 [111] (-88)
BC05  00                 [112] (-88)
BC06  79                 [113] (-88)
BC07  06                 [114] (-88)
BC08  00                 [115] (-88)
BC09  00                 [116] (-87)
BC0A  79                 [117] (-87)
BC0B  06                 [118] (-87)
BC0C  00                 [119] (-87)
BC0D  00                 [120] (-87)
BC0E  79                 [121] (-87)
BC0F  06                 [122] (-87)
BC10  00                 [123] (-87)
BC11  00                 [124] (-87)
BC12  79                 [125] (-87)
BC13  06                 [126] (-87)
BC14  00                 [127] (-87)
BC15  00                 [128] (-87)
BC16  7A                 [129] (-87)
BC17  06                 [130] (-87)
BC18  00                 [131] (-83)
BC19  00                 [132] (-83)
BC1A  7A                 [133] (-79)
BC1B  06                 [134] (-79)
BC1C  00                 [135] (-79)
BC1D  00                 [136] (-79)
BC1E  7D                 [137] (-79)
BC1F  06                 [138] (-79)
BC20  00                 [139] (-79)
BC21  00                 [140] (-78)
BC22  7D                 [141] (-78)
BC23  06                 [142] (-75)
BC24  00                 [143] (-75)
BC25  00                 [144] (-75)
BC26  7D                 [145] (-75)
BC27  06                 [146] (-75)
BC28  00                 [147] (-75)
BC29  00                 [148] (-75)
BC2A  7D                 [149] (-75)
BC2B  06                 [150] (-75)
BC2C  00                 [151] (-74)
BC2D  00                 [152] (-74)
BC2E  7D                 [153] (-71)
BC2F  06                 [154] (-71)
BC30  00                 [155] (-70)
                         * locals:
BE02  00                 sizelocvars (0)
                         * upvalues:
BE03  00                 sizeupvalues (0)
                         ** end of function **

                         
BE04                     ** function [49] definition (level 2)
                         ** start of function **
BE04  00                 string size (0)
                         source name: (none)
BE06  0D                 line defined (1727)
BE07  D0                 last line defined (1744)
BE08  0D                 nups (1)
BE09  01                 numparams (1)
BE0A  01                 is_vararg (0)
BE0B  00                 maxstacksize (6)
                         * code:
BE0D  3A                 sizecode (58)
BE0E  4E004000           [01] gettable   1   0   256  ; "session"
BE12  4E40C000           [02] gettable   1   1   257  ; "id"
fail op	35
BE16  6380C000           [03] close      1  
BE1A  1A400280           [04] jmp        10           ; to [15]
BE1E  4EC04000           [05] gettable   1   0   259  ; "state"
BE22  9D000100           [06] getglobal  2   4        ; Engine
BE26  8E404101           [07] gettable   2   2   261  ; "PlayerProfile_PS_OFFLINE"
fail op	35
BE2A  63808000           [08] close      1  
BE2E  1A000180           [09] jmp        5            ; to [15]
BE32  4EC04000           [10] gettable   1   0   259  ; "state"
BE36  9D000100           [11] getglobal  2   4        ; Engine
BE3A  8E804101           [12] gettable   2   2   262  ; "PlayerProfile_PS_FRONTEND"
fail op	35
BE3E  23808000           [13] close      0  
BE42  1A400080           [14] jmp        2            ; to [17]
BE46  57000000           [15] loadbool   1   0   0    ; false
BE4A  5E000001           [16] return     1   2      
BE4E  5DC00100           [17] getglobal  1   7        ; gMatchingService
BE52  6400C200           [18] self       1   1   264  ; -706726330
BE56  62800001           [19] call       1   2   2  
BE5A  93000000           [20] getupval   2   0      
BE5E  8E404201           [21] gettable   2   2   265  ; -2065906648
BE62  A2808000           [22] call       2   1   2  
BE66  DD800200           [23] getglobal  3   10       ; 1074689893
BE6A  12018000           [24] move       4   1      
BE6E  E2800001           [25] call       3   2   2  
BE72  D8000000           [26] test       3       0    ; to [28] if true
BE76  1A000280           [27] jmp        9            ; to [37]
BE7A  D3000000           [28] getupval   3   0      
BE7E  CEC0C201           [29] gettable   3   3   267  ; "UI_MODE_IN_GAME"
fail op	35
BE82  23C00001           [30] close      0  
BE86  1A800080           [31] jmp        3            ; to [35]
BE8A  D7000000           [32] loadbool   3   0   0    ; false
BE8E  DE000001           [33] return     3   2      
BE92  1A400080           [34] jmp        2            ; to [37]
BE96  D7008000           [35] loadbool   3   1   0    ; true
BE9A  DE000001           [36] return     3   2      
BE9E  CE004000           [37] gettable   3   0   256  ; "session"
BEA2  CE40C001           [38] gettable   3   3   257  ; "id"
BEA6  2401C300           [39] self       4   1   268  ; -1518391629
BEAA  22810001           [40] call       4   2   2  
fail op	35
BEAE  63008101           [41] close      1  
BEB2  1AC00280           [42] jmp        12           ; to [55]
BEB6  D3000000           [43] getupval   3   0      
BEBA  CE40C301           [44] gettable   3   3   269  ; "UI_MODE_IN_SPACE_SHIP"
fail op	35
BEBE  63C00001           [45] close      1  
BEC2  1A000280           [46] jmp        9            ; to [56]
BEC6  D3000000           [47] getupval   3   0      
BECA  CE80C301           [48] gettable   3   3   270  ; "UI_MODE_IN_SPACE_HUB"
fail op	35
BECE  63C00001           [49] close      1  
BED2  1A000180           [50] jmp        5            ; to [56]
BED6  D3000000           [51] getupval   3   0      
BEDA  CEC0C301           [52] gettable   3   3   271  ; "UI_MODE_IN_DOJO"
fail op	35
BEDE  63C00001           [53] close      1  
BEE2  1A000080           [54] jmp        1            ; to [56]
BEE6  D7400000           [55] loadbool   3   0   1    ; false, to [57]
BEEA  D7008000           [56] loadbool   3   1   0    ; true
BEEE  DE000001           [57] return     3   2      
BEF2  1E008000           [58] return     0   1      
                         * constants:
BEF6  10                 sizek (16)
BEF7  04                 const type 4
BEF8  08                 string size (8)
BEF9  73657373696F6E00   "session\0"
                         const [0]: "session"
BF01  04                 const type 4
BF02  03                 string size (3)
BF03  696400             "id\0"
                         const [1]: "id"
BF06  04                 const type 4
BF07  01                 string size (0)
                         const [2]: ""
BF09  04                 const type 4
BF0A  06                 string size (6)
BF0B  737461746500       "state\0"
                         const [3]: "state"
BF11  04                 const type 4
BF12  07                 string size (7)
BF13  456E67696E6500     "Engine\0"
                         const [4]: "Engine"
BF1A  04                 const type 4
BF1B  19                 string size (25)
BF1C  506C617965725072+  "PlayerPr"
BF24  6F66696C655F5053+  "ofile_PS"
BF2C  5F4F46464C494E45+  "_OFFLINE"
BF34  00                 "\0"
                         const [5]: "PlayerProfile_PS_OFFLINE"
BF35  04                 const type 4
BF36  1A                 string size (26)
BF37  506C617965725072+  "PlayerPr"
BF3F  6F66696C655F5053+  "ofile_PS"
BF47  5F46524F4E54454E+  "_FRONTEN"
BF4F  4400               "D\0"
                         const [6]: "PlayerProfile_PS_FRONTEND"
BF51  04                 const type 4
BF52  11                 string size (17)
BF53  674D61746368696E+  "gMatchin"
BF5B  6753657276696365+  "gService"
BF63  00                 "\0"
                         const [7]: "gMatchingService"
BF64  01                 const type 3
BF65  4636E0D5           const [8]: (-706726330)
BF69  01                 const type 3
BF6A  28C4DC84           const [9]: (-2065906648)
BF6E  01                 const type 3
BF6F  65770E40           const [10]: (1074689893)
BF73  04                 const type 4
BF74  10                 string size (16)
BF75  55495F4D4F44455F+  "UI_MODE_"
BF7D  494E5F47414D4500   "IN_GAME\0"
                         const [11]: "UI_MODE_IN_GAME"
BF85  01                 const type 3
BF86  B32E7FA5           const [12]: (-1518391629)
BF8A  04                 const type 4
BF8B  16                 string size (22)
BF8C  55495F4D4F44455F+  "UI_MODE_"
BF94  494E5F5350414345+  "IN_SPACE"
BF9C  5F5348495000       "_SHIP\0"
                         const [13]: "UI_MODE_IN_SPACE_SHIP"
BFA2  04                 const type 4
BFA3  15                 string size (21)
BFA4  55495F4D4F44455F+  "UI_MODE_"
BFAC  494E5F5350414345+  "IN_SPACE"
BFB4  5F48554200         "_HUB\0"
                         const [14]: "UI_MODE_IN_SPACE_HUB"
BFB9  04                 const type 4
BFBA  10                 string size (16)
BFBB  55495F4D4F44455F+  "UI_MODE_"
BFC3  494E5F444F4A4F00   "IN_DOJO\0"
                         const [15]: "UI_MODE_IN_DOJO"
                         * functions:
BFCB  00                 sizep (0)
                         * lines:
BFCC  3A                 sizelineinfo (58)
                         [pc] (line)
BFCD  C0                 [01] (-64)
BFCE  06                 [02] (-64)
BFCF  00                 [03] (-64)
BFD0  00                 [04] (-64)
BFD1  C0                 [05] (-64)
BFD2  06                 [06] (-64)
BFD3  00                 [07] (-64)
BFD4  00                 [08] (-64)
BFD5  C0                 [09] (-64)
BFD6  06                 [10] (-64)
BFD7  00                 [11] (-64)
BFD8  00                 [12] (-64)
BFD9  C0                 [13] (-64)
BFDA  06                 [14] (-64)
BFDB  00                 [15] (-63)
BFDC  00                 [16] (-63)
BFDD  C0                 [17] (-60)
BFDE  06                 [18] (-60)
BFDF  00                 [19] (-60)
BFE0  00                 [20] (-59)
BFE1  C0                 [21] (-59)
BFE2  06                 [22] (-59)
BFE3  00                 [23] (-57)
BFE4  00                 [24] (-57)
BFE5  C0                 [25] (-57)
BFE6  06                 [26] (-57)
BFE7  00                 [27] (-57)
BFE8  00                 [28] (-56)
BFE9  C0                 [29] (-56)
BFEA  06                 [30] (-56)
BFEB  00                 [31] (-56)
BFEC  00                 [32] (-55)
BFED  C0                 [33] (-55)
BFEE  06                 [34] (-55)
BFEF  00                 [35] (-53)
BFF0  00                 [36] (-53)
BFF1  C0                 [37] (-49)
BFF2  06                 [38] (-49)
BFF3  00                 [39] (-49)
BFF4  00                 [40] (-49)
BFF5  C0                 [41] (-49)
BFF6  06                 [42] (-49)
BFF7  00                 [43] (-49)
BFF8  00                 [44] (-49)
BFF9  C0                 [45] (-49)
BFFA  06                 [46] (-49)
BFFB  00                 [47] (-49)
BFFC  00                 [48] (-49)
BFFD  C0                 [49] (-49)
BFFE  06                 [50] (-49)
BFFF  00                 [51] (-49)
C000  00                 [52] (-49)
C001  C0                 [53] (-49)
C002  06                 [54] (-49)
C003  00                 [55] (-49)
C004  00                 [56] (-49)
C005  C1                 [57] (-49)
C006  06                 [58] (-48)
                         * locals:
C0B5  00                 sizelocvars (0)
                         * upvalues:
C0B6  00                 sizeupvalues (0)
                         ** end of function **

                         
C0B7                     ** function [50] definition (level 2)
                         ** start of function **
C0B7  00                 string size (0)
                         source name: (none)
C0B9  0D                 line defined (1746)
C0BA  D4                 last line defined (1748)
C0BB  0D                 nups (0)
C0BC  00                 numparams (0)
C0BD  00                 is_vararg (0)
C0BE  00                 maxstacksize (3)
                         * code:
C0C0  08                 sizecode (8)
C0C1  1D000000           [1] getglobal  0   0        ; 1074689893
C0C5  5D400000           [2] getglobal  1   1        ; gMatchingService
C0C9  6480C000           [3] self       1   1   258  ; -706726330
C0CD  62000001           [4] call       1   2   0  
C0D1  22800000           [5] call       0   0   2  
fail op	9
C0D5  09000000           [6] settable   0   0   0  
C0D9  1E000001           [7] return     0   2      
C0DD  1E008000           [8] return     0   1      
                         * constants:
C0E1  03                 sizek (3)
C0E2  01                 const type 3
C0E3  65770E40           const [0]: (1074689893)
C0E7  04                 const type 4
C0E8  11                 string size (17)
C0E9  674D61746368696E+  "gMatchin"
C0F1  6753657276696365+  "gService"
C0F9  00                 "\0"
                         const [1]: "gMatchingService"
C0FA  01                 const type 3
C0FB  4636E0D5           const [2]: (-706726330)
                         * functions:
C0FF  00                 sizep (0)
                         * lines:
C100  08                 sizelineinfo (8)
                         [pc] (line)
C101  D3                 [1] (-45)
C102  06                 [2] (-45)
C103  00                 [3] (-45)
C104  00                 [4] (-45)
C105  D3                 [5] (-45)
C106  06                 [6] (-45)
C107  00                 [7] (-45)
C108  00                 [8] (-44)
                         * locals:
C121  00                 sizelocvars (0)
                         * upvalues:
C122  00                 sizeupvalues (0)
                         ** end of function **

                         
C123                     ** function [51] definition (level 2)
                         ** start of function **
C123  00                 string size (0)
                         source name: (none)
C125  0D                 line defined (1750)
C126  D8                 last line defined (1752)
C127  0D                 nups (1)
C128  01                 numparams (0)
C129  00                 is_vararg (0)
C12A  00                 maxstacksize (2)
                         * code:
C12C  04                 sizecode (4)
C12D  13000000           [1] getupval   0   0      
C131  07008000           [2] tailcall   0   1   0  
C135  1E000000           [3] return     0   0      
C139  1E008000           [4] return     0   1      
                         * constants:
C13D  00                 sizek (0)
                         * functions:
C13E  00                 sizep (0)
                         * lines:
C13F  04                 sizelineinfo (4)
                         [pc] (line)
C140  D7                 [1] (-41)
C141  06                 [2] (-41)
C142  00                 [3] (-41)
C143  00                 [4] (-40)
                         * locals:
C150  00                 sizelocvars (0)
                         * upvalues:
C151  00                 sizeupvalues (0)
                         ** end of function **

                         
C152                     ** function [52] definition (level 2)
                         ** start of function **
C152  00                 string size (0)
                         source name: (none)
C154  0D                 line defined (1754)
C155  85                 last line defined (1797)
C156  0E                 nups (2)
C157  02                 numparams (4)
C158  04                 is_vararg (0)
C159  00                 maxstacksize (12)
                         * code:
C15B  67                 sizecode (103)
C15C  1D010000           [001] getglobal  4   0        ; gPlayerProfileMgr
C160  24414002           [002] self       4   4   257  ; 569342746
C164  99810000           [003] loadk      6   2        ; 0
C168  22818001           [004] call       4   3   2  
C16C  5DC10000           [005] getglobal  5   3        ; 1074689893
C170  92010002           [006] move       6   4      
C174  62810001           [007] call       5   2   2  
C178  58010000           [008] test       5       0    ; to [10] if true
C17C  1A000080           [009] jmp        1            ; to [11]
C180  1E008000           [010] return     0   1      
C184  64014102           [011] self       5   4   260  ; 1055613230
C188  62810001           [012] call       5   2   2  
C18C  6441C102           [013] self       5   5   261  ; 1582861505
C190  62810001           [014] call       5   2   2  
C194  9D810100           [015] getglobal  6   6        ; gMatchingService
C198  A4C14103           [016] self       6   6   263  ; 619827627
C19C  A2810001           [017] call       6   2   2  
C1A0  98010000           [018] test       6       0    ; to [20] if true
C1A4  1AC00080           [019] jmp        4            ; to [24]
C1A8  DD410200           [020] getglobal  7   9        ; Engine
C1AC  CE81C203           [021] gettable   7   7   266  ; "NORMAL"
C1B0  4CC10184           [022] settable   5   264 7    ; "matchType"
C1B4  1A800080           [023] jmp        3            ; to [27]
C1B8  DD410200           [024] getglobal  7   9        ; Engine
C1BC  CEC1C203           [025] gettable   7   7   267  ; "LAN"
C1C0  4CC10184           [026] settable   5   264 7    ; "matchType"
C1C4  4C414386           [027] settable   5   268 269  ; "minPlayers" 0
C1C8  DDC10000           [028] getglobal  7   3        ; 1074689893
C1CC  12020001           [029] move       8   2      
C1D0  E2810001           [030] call       7   2   2  
C1D4  D8410000           [031] test       7       1    ; to [33] if false
C1D8  1A400080           [032] jmp        2            ; to [35]
C1DC  4C810087           [033] settable   5   270 2    ; "maxPlayers"
C1E0  1A000080           [034] jmp        1            ; to [36]
C1E4  4CC14387           [035] settable   5   270 271  ; "maxPlayers" 0
C1E8  D3010000           [036] getupval   7   0      
C1EC  CE41C403           [037] gettable   7   7   273  ; -132701534
C1F0  1D820400           [038] getglobal  8   18       ; _T
C1F4  0EC24404           [039] gettable   8   8   275  ; "gActiveMatchMakingMode"
C1F8  5D820400           [040] getglobal  9   18       ; _T
C1FC  4E02C504           [041] gettable   9   9   276  ; "MATCHMAKING_INVITE_ONLY_GAMEMODE"
fail op	35
C200  63400204           [042] close      1  
C204  1A000080           [043] jmp        1            ; to [45]
C208  17420000           [044] loadbool   8   0   1    ; false, to [46]
C20C  17028000           [045] loadbool   8   1   0    ; true
C210  5D420200           [046] getglobal  9   9        ; Engine
C214  4E42C504           [047] gettable   9   9   277  ; "INVITE_ONLY"
C218  9D420200           [048] getglobal  10  9        ; Engine
C21C  8E824505           [049] gettable   10  10  278  ; "PRIVATE"
C220  E2810002           [050] call       7   4   2  
C224  4CC10188           [051] settable   5   272 7    ; "regionId"
C228  E4C1C502           [052] self       7   5   279  ; -1253115631
C22C  5D020600           [053] getglobal  9   24       ; gGameRules
C230  E2418001           [054] call       7   3   1  
C234  DDC10000           [055] getglobal  7   3        ; 1074689893
C238  12028000           [056] move       8   1      
C23C  E2810001           [057] call       7   2   2  
C240  D8410000           [058] test       7       1    ; to [60] if false
C244  1A000280           [059] jmp        9            ; to [69]
C248  DD410600           [060] getglobal  7   25       ; -1817107093
C24C  19820600           [061] loadk      8   26       ; "hosting squad session with gameModeIdOverride"
C250  5DC20600           [062] getglobal  9   27       ; -1615931716
C254  92028000           [063] move       10  1      
C258  62820001           [064] call       9   2   2  
C25C  02420204           [065] concat     8   8   9  
C260  E2410001           [066] call       7   2   1  
C264  4C41008E           [067] settable   5   284 1    ; "gameModeId"
C268  1A000480           [068] jmp        17           ; to [86]
C26C  D3010000           [069] getupval   7   0      
C270  CE41C403           [070] gettable   7   7   273  ; -132701534
C274  13028000           [071] getupval   8   1      
C278  0E424704           [072] gettable   8   8   285  ; -2065906648
C27C  22828000           [073] call       8   1   2  
C280  53028000           [074] getupval   9   1      
C284  4E82C704           [075] gettable   9   9   286  ; "UI_MODE_IN_DOJO"
fail op	35
C288  63400204           [076] close      1  
C28C  1A000080           [077] jmp        1            ; to [79]
C290  17420000           [078] loadbool   8   0   1    ; false, to [80]
C294  17028000           [079] loadbool   8   1   0    ; true
C298  53028000           [080] getupval   9   1      
C29C  4EC2C704           [081] gettable   9   9   287  ; 1017661185
C2A0  62828000           [082] call       9   1   2  
C2A4  99820000           [083] loadk      10  2        ; 0
C2A8  E2810002           [084] call       7   4   2  
C2AC  4CC1018E           [085] settable   5   284 7    ; "gameModeId"
fail op	35
C2B0  6300C801           [086] close      1  
C2B4  1A400080           [087] jmp        2            ; to [90]
C2B8  4CC18090           [088] settable   5   289 3    ; "originalSessionId"
C2BC  1A000080           [089] jmp        1            ; to [91]
C2C0  4C81C890           [090] settable   5   289 290  ; "originalSessionId" ""
C2C4  E4C1C802           [091] self       7   5   291  ; 881469584
C2C8  E2410001           [092] call       7   2   1  
C2CC  D3018000           [093] getupval   7   1      
C2D0  CE41C903           [094] gettable   7   7   293  ; -566530878
C2D4  E2818000           [095] call       7   1   2  
C2D8  4CC10192           [096] settable   5   292 7    ; "eloRating"
C2DC  DD810100           [097] getglobal  7   6        ; gMatchingService
C2E0  E481C903           [098] self       7   7   294  ; 589862477
C2E4  52020002           [099] move       9   4      
C2E8  92028002           [100] move       10  5      
C2EC  D2020000           [101] move       11  0      
C2F0  E2418002           [102] call       7   5   1  
C2F4  1E008000           [103] return     0   1      
                         * constants:
C2F8  27                 sizek (39)
C2F9  04                 const type 4
C2FA  12                 string size (18)
C2FB  67506C6179657250+  "gPlayerP"
C303  726F66696C654D67+  "rofileMg"
C30B  7200               "r\0"
                         const [0]: "gPlayerProfileMgr"
C30D  01                 const type 3
C30E  1A7BEF21           const [1]: (569342746)
C312  03                 const type 3
C313  00000000           const [2]: (0)
C317  01                 const type 3
C318  65770E40           const [3]: (1074689893)
C31C  01                 const type 3
C31D  2E61EB3E           const [4]: (1055613230)
C321  01                 const type 3
C322  C18C585E           const [5]: (1582861505)
C326  04                 const type 4
C327  11                 string size (17)
C328  674D61746368696E+  "gMatchin"
C330  6753657276696365+  "gService"
C338  00                 "\0"
                         const [6]: "gMatchingService"
C339  01                 const type 3
C33A  ABD1F124           const [7]: (619827627)
C33E  04                 const type 4
C33F  0A                 string size (10)
C340  6D61746368547970+  "matchTyp"
C348  6500               "e\0"
                         const [8]: "matchType"
C34A  04                 const type 4
C34B  07                 string size (7)
C34C  456E67696E6500     "Engine\0"
                         const [9]: "Engine"
C353  04                 const type 4
C354  07                 string size (7)
C355  4E4F524D414C00     "NORMAL\0"
                         const [10]: "NORMAL"
C35C  04                 const type 4
C35D  04                 string size (4)
C35E  4C414E00           "LAN\0"
                         const [11]: "LAN"
C362  04                 const type 4
C363  0B                 string size (11)
C364  6D696E506C617965+  "minPlaye"
C36C  727300             "rs\0"
                         const [12]: "minPlayers"
C36F  03                 const type 3
C370  0000803F           const [13]: (0)
C374  04                 const type 4
C375  0B                 string size (11)
C376  6D6178506C617965+  "maxPlaye"
C37E  727300             "rs\0"
                         const [14]: "maxPlayers"
C381  03                 const type 3
C382  00008040           const [15]: (0)
C386  04                 const type 4
C387  09                 string size (9)
C388  726567696F6E4964+  "regionId"
C390  00                 "\0"
                         const [16]: "regionId"
C391  01                 const type 3
C392  A22217F8           const [17]: (-132701534)
C396  04                 const type 4
C397  03                 string size (3)
C398  5F5400             "_T\0"
                         const [18]: "_T"
C39B  04                 const type 4
C39C  17                 string size (23)
C39D  674163746976654D+  "gActiveM"
C3A5  617463684D616B69+  "atchMaki"
C3AD  6E674D6F646500     "ngMode\0"
                         const [19]: "gActiveMatchMakingMode"
C3B4  04                 const type 4
C3B5  21                 string size (33)
C3B6  4D415443484D414B+  "MATCHMAK"
C3BE  494E475F494E5649+  "ING_INVI"
C3C6  54455F4F4E4C595F+  "TE_ONLY_"
C3CE  47414D454D4F4445+  "GAMEMODE"
C3D6  00                 "\0"
                         const [20]: "MATCHMAKING_INVITE_ONLY_GAMEMODE"
C3D7  04                 const type 4
C3D8  0C                 string size (12)
C3D9  494E564954455F4F+  "INVITE_O"
C3E1  4E4C5900           "NLY\0"
                         const [21]: "INVITE_ONLY"
C3E5  04                 const type 4
C3E6  08                 string size (8)
C3E7  5052495641544500   "PRIVATE\0"
                         const [22]: "PRIVATE"
C3EF  01                 const type 3
C3F0  11F94EB5           const [23]: (-1253115631)
C3F4  04                 const type 4
C3F5  0B                 string size (11)
C3F6  6747616D6552756C+  "gGameRul"
C3FE  657300             "es\0"
                         const [24]: "gGameRules"
C401  01                 const type 3
C402  6B25B193           const [25]: (-1817107093)
C406  04                 const type 4
C407  2E                 string size (46)
C408  686F7374696E6720+  "hosting "
C410  7371756164207365+  "squad se"
C418  7373696F6E207769+  "ssion wi"
C420  74682067616D654D+  "th gameM"
C428  6F646549644F7665+  "odeIdOve"
C430  727269646500       "rride\0"
                         const [26]: "hosting squad session with gameModeIdOverride"
C436  01                 const type 3
C437  BCD6AE9F           const [27]: (-1615931716)
C43B  04                 const type 4
C43C  0B                 string size (11)
C43D  67616D654D6F6465+  "gameMode"
C445  496400             "Id\0"
                         const [28]: "gameModeId"
C448  01                 const type 3
C449  28C4DC84           const [29]: (-2065906648)
C44D  04                 const type 4
C44E  10                 string size (16)
C44F  55495F4D4F44455F+  "UI_MODE_"
C457  494E5F444F4A4F00   "IN_DOJO\0"
                         const [30]: "UI_MODE_IN_DOJO"
C45F  01                 const type 3
C460  0147A83C           const [31]: (1017661185)
C464  00                 const type 0
                         const [32]: nil
C465  04                 const type 4
C466  12                 string size (18)
C467  6F726967696E616C+  "original"
C46F  53657373696F6E49+  "SessionI"
C477  6400               "d\0"
                         const [33]: "originalSessionId"
C479  04                 const type 4
C47A  01                 string size (0)
                         const [34]: ""
C47C  01                 const type 3
C47D  90288A34           const [35]: (881469584)
C481  04                 const type 4
C482  0A                 string size (10)
C483  656C6F526174696E+  "eloRatin"
C48B  6700               "g\0"
                         const [36]: "eloRating"
C48D  01                 const type 3
C48E  C26C3BDE           const [37]: (-566530878)
C492  01                 const type 3
C493  4D962823           const [38]: (589862477)
                         * functions:
C497  00                 sizep (0)
                         * lines:
C498  67                 sizelineinfo (103)
                         [pc] (line)
C499  DB                 [001] (-37)
C49A  06                 [002] (-37)
C49B  00                 [003] (-37)
C49C  00                 [004] (-37)
C49D  DB                 [005] (-36)
C49E  06                 [006] (-36)
C49F  00                 [007] (-36)
C4A0  00                 [008] (-36)
C4A1  DB                 [009] (-36)
C4A2  06                 [010] (-35)
C4A3  00                 [011] (-32)
C4A4  00                 [012] (-32)
C4A5  DB                 [013] (-32)
C4A6  06                 [014] (-32)
C4A7  00                 [015] (-31)
C4A8  00                 [016] (-31)
C4A9  DC                 [017] (-31)
C4AA  06                 [018] (-30)
C4AB  00                 [019] (-30)
C4AC  00                 [020] (-29)
C4AD  DC                 [021] (-29)
C4AE  06                 [022] (-29)
C4AF  00                 [023] (-29)
C4B0  00                 [024] (-27)
C4B1  DC                 [025] (-27)
C4B2  06                 [026] (-27)
C4B3  00                 [027] (-24)
C4B4  00                 [028] (-23)
C4B5  DC                 [029] (-23)
C4B6  06                 [030] (-23)
C4B7  00                 [031] (-23)
C4B8  00                 [032] (-23)
C4B9  DC                 [033] (-22)
C4BA  06                 [034] (-22)
C4BB  00                 [035] (-20)
C4BC  00                 [036] (-17)
C4BD  DD                 [037] (-17)
C4BE  06                 [038] (-17)
C4BF  00                 [039] (-17)
C4C0  00                 [040] (-17)
C4C1  E0                 [041] (-17)
C4C2  06                 [042] (-17)
C4C3  00                 [043] (-17)
C4C4  00                 [044] (-17)
C4C5  E0                 [045] (-17)
C4C6  06                 [046] (-17)
C4C7  00                 [047] (-17)
C4C8  00                 [048] (-17)
C4C9  E0                 [049] (-17)
C4CA  06                 [050] (-17)
C4CB  00                 [051] (-17)
C4CC  00                 [052] (-16)
C4CD  E0                 [053] (-16)
C4CE  06                 [054] (-16)
C4CF  00                 [055] (-14)
C4D0  00                 [056] (-14)
C4D1  E1                 [057] (-14)
C4D2  06                 [058] (-14)
C4D3  00                 [059] (-14)
C4D4  00                 [060] (-13)
C4D5  E1                 [061] (-13)
C4D6  06                 [062] (-13)
C4D7  00                 [063] (-13)
C4D8  00                 [064] (-13)
C4D9  E1                 [065] (-13)
C4DA  06                 [066] (-13)
C4DB  00                 [067] (-12)
C4DC  00                 [068] (-12)
C4DD  E2                 [069] (-10)
C4DE  06                 [070] (-10)
C4DF  00                 [071] (-10)
C4E0  00                 [072] (-10)
C4E1  E2                 [073] (-10)
C4E2  06                 [074] (-10)
C4E3  00                 [075] (-10)
C4E4  00                 [076] (-10)
C4E5  E3                 [077] (-10)
C4E6  06                 [078] (-10)
C4E7  00                 [079] (-10)
C4E8  00                 [080] (-10)
C4E9  E3                 [081] (-10)
C4EA  06                 [082] (-10)
C4EB  00                 [083] (-10)
C4EC  00                 [084] (-10)
C4ED  E3                 [085] (-10)
C4EE  06                 [086] (-7)
C4EF  00                 [087] (-7)
C4F0  00                 [088] (-6)
C4F1  E3                 [089] (-6)
C4F2  06                 [090] (-4)
C4F3  00                 [091] (-1)
C4F4  00                 [092] (-1)
C4F5  E5                 [093] (1)
C4F6  06                 [094] (1)
C4F7  00                 [095] (1)
C4F8  00                 [096] (1)
C4F9  E5                 [097] (4)
C4FA  06                 [098] (4)
C4FB  00                 [099] (4)
C4FC  00                 [100] (4)
C4FD  E5                 [101] (4)
C4FE  06                 [102] (4)
C4FF  00                 [103] (5)
                         * locals:
C635  00                 sizelocvars (0)
                         * upvalues:
C636  00                 sizeupvalues (0)
                         ** end of function **

                         
C637                     ** function [53] definition (level 2)
                         ** start of function **
C637  00                 string size (0)
                         source name: (none)
C639  0E                 line defined (1799)
C63A  90                 last line defined (1808)
C63B  0E                 nups (0)
C63C  00                 numparams (1)
C63D  01                 is_vararg (0)
C63E  00                 maxstacksize (5)
                         * code:
C640  11                 sizecode (17)
C641  9D000000           [01] getglobal  2   0        ; 2083004503
C645  D2000000           [02] move       3   0      
C649  A2800001           [03] call       2   2   2  
C64D  DD400000           [04] getglobal  3   1        ; 1074689893
C651  12010001           [05] move       4   2      
C655  E2800001           [06] call       3   2   2  
C659  D8400000           [07] test       3       1    ; to [9] if false
C65D  1A800180           [08] jmp        7            ; to [16]
C661  E4804001           [09] self       3   2   258  ; -1201441975
C665  E2800001           [10] call       3   2   2  
C669  52008001           [11] move       1   3      
C66D  DD000100           [12] getglobal  3   4        ; 738251817
C671  12010000           [13] move       4   0      
C675  E2800001           [14] call       3   2   2  
C679  4CC08081           [15] settable   1   259 3    ; "levelKeyName"
C67D  5E000001           [16] return     1   2      
C681  1E008000           [17] return     0   1      
                         * constants:
C685  05                 sizek (5)
C686  01                 const type 3
C687  5720287C           const [0]: (2083004503)
C68B  01                 const type 3
C68C  65770E40           const [1]: (1074689893)
C690  01                 const type 3
C691  497363B8           const [2]: (-1201441975)
C695  04                 const type 4
C696  0D                 string size (13)
C697  6C6576656C4B6579+  "levelKey"
C69F  4E616D6500         "Name\0"
                         const [3]: "levelKeyName"
C6A4  01                 const type 3
C6A5  29D4002C           const [4]: (738251817)
                         * functions:
C6A9  00                 sizep (0)
                         * lines:
C6AA  11                 sizelineinfo (17)
                         [pc] (line)
C6AB  09                 [01] (9)
C6AC  07                 [02] (9)
C6AD  00                 [03] (9)
C6AE  00                 [04] (10)
C6AF  09                 [05] (10)
C6B0  07                 [06] (10)
C6B1  00                 [07] (10)
C6B2  00                 [08] (10)
C6B3  09                 [09] (11)
C6B4  07                 [10] (11)
C6B5  00                 [11] (11)
C6B6  00                 [12] (12)
C6B7  0A                 [13] (12)
C6B8  07                 [14] (12)
C6B9  00                 [15] (12)
C6BA  00                 [16] (15)
C6BB  0A                 [17] (16)
                         * locals:
C6EF  00                 sizelocvars (0)
                         * upvalues:
C6F0  00                 sizeupvalues (0)
                         ** end of function **

                         
C6F1                     ** function [54] definition (level 2)
                         ** start of function **
C6F1  00                 string size (0)
                         source name: (none)
C6F3  0E                 line defined (1810)
C6F4  94                 last line defined (1812)
C6F5  0E                 nups (0)
C6F6  00                 numparams (0)
C6F7  00                 is_vararg (0)
C6F8  00                 maxstacksize (2)
                         * code:
C6FA  09                 sizecode (9)
C6FB  1D000000           [1] getglobal  0   0        ; gMatchingService
C6FF  24404000           [2] self       0   0   257  ; 903726717
C703  22800001           [3] call       0   2   2  
fail op	33
C707  61000081           [4] tforloop   1       0    ; to [6] if exit
C70B  1A000080           [5] jmp        1            ; to [7]
C70F  17400000           [6] loadbool   0   0   1    ; false, to [8]
C713  17008000           [7] loadbool   0   1   0    ; true
C717  1E000001           [8] return     0   2      
C71B  1E008000           [9] return     0   1      
                         * constants:
C71F  03                 sizek (3)
C720  04                 const type 4
C721  11                 string size (17)
C722  674D61746368696E+  "gMatchin"
C72A  6753657276696365+  "gService"
C732  00                 "\0"
                         const [0]: "gMatchingService"
C733  01                 const type 3
C734  7DC6DD35           const [1]: (903726717)
C738  03                 const type 3
C739  0000803F           const [2]: (0)
                         * functions:
C73D  00                 sizep (0)
                         * lines:
C73E  09                 sizelineinfo (9)
                         [pc] (line)
C73F  13                 [1] (19)
C740  07                 [2] (19)
C741  00                 [3] (19)
C742  00                 [4] (19)
C743  13                 [5] (19)
C744  07                 [6] (19)
C745  00                 [7] (19)
C746  00                 [8] (19)
C747  13                 [9] (20)
                         * locals:
C763  00                 sizelocvars (0)
                         * upvalues:
C764  00                 sizeupvalues (0)
                         ** end of function **

                         
C765                     ** function [55] definition (level 2)
                         ** start of function **
C765  00                 string size (0)
                         source name: (none)
C767  0E                 line defined (1816)
C768  DB                 last line defined (1883)
C769  0E                 nups (4)
C76A  04                 numparams (2)
C76B  02                 is_vararg (0)
C76C  00                 maxstacksize (8)
                         * code:
C76F  01                 sizecode (130)
C770  8E004000           [001] gettable   2   0   256  ; "playerName"
C774  98000000           [002] test       2       0    ; to [4] if true
C778  1A800180           [003] jmp        7            ; to [11]
C77C  8E404000           [004] gettable   2   0   257  ; "accountId"
C780  98000000           [005] test       2       0    ; to [7] if true
C784  1AC00080           [006] jmp        4            ; to [11]
C788  8E804000           [007] gettable   2   0   258  ; "session"
C78C  8EC04001           [008] gettable   2   2   259  ; "id"
C790  98400000           [009] test       2       1    ; to [11] if false
C794  1A400080           [010] jmp        2            ; to [13]
C798  99000100           [011] loadk      2   4        ; "/Lotus/Language/Menu/SocialOverlay_SessionExpired"
C79C  9E000001           [012] return     2   2      
C7A0  9D400100           [013] getglobal  2   5        ; gGameConfig
C7A4  A4804101           [014] self       2   2   262  ; -1981466301
C7A8  A2800001           [015] call       2   2   2  
C7AC  98000000           [016] test       2       0    ; to [18] if true
C7B0  1A400080           [017] jmp        2            ; to [20]
C7B4  99C00100           [018] loadk      2   7        ; "/Lotus/Language/Menu/MainMenu_NewBuildMissionsBlocked"
C7B8  9E000001           [019] return     2   2      
C7BC  9D400100           [020] getglobal  2   5        ; gGameConfig
C7C0  A4004201           [021] self       2   2   264  ; 360880768
C7C4  A2800001           [022] call       2   2   2  
C7C8  98000000           [023] test       2       0    ; to [25] if true
C7CC  1A400080           [024] jmp        2            ; to [27]
C7D0  99400200           [025] loadk      2   9        ; "/Lotus/Language/Menu/MainMenu_BugReportMissionsBlocked"
C7D4  9E000001           [026] return     2   2      
C7D8  9D800200           [027] getglobal  2   10       ; gMatchingService
C7DC  A4C04201           [028] self       2   2   267  ; -1089206238
C7E0  0E814000           [029] gettable   4   0   258  ; "session"
C7E4  0E014302           [030] gettable   4   4   268  ; "strictNAT"
C7E8  A2808001           [031] call       2   3   2  
C7EC  98400000           [032] test       2       1    ; to [34] if false
C7F0  1A400080           [033] jmp        2            ; to [36]
C7F4  99400300           [034] loadk      2   13       ; "/Lotus/Language/Menu/SocialOverlay_SessionStrictNAT"
C7F8  9E000001           [035] return     2   2      
C7FC  93000000           [036] getupval   2   0      
C800  A2808000           [037] call       2   1   2  
C804  98000000           [038] test       2       0    ; to [40] if true
C808  1A800280           [039] jmp        11           ; to [51]
C80C  8E804000           [040] gettable   2   0   258  ; "session"
C810  8EC04001           [041] gettable   2   2   259  ; "id"
C814  DD800200           [042] getglobal  3   10       ; gMatchingService
C818  E480C301           [043] self       3   3   270  ; -706726330
C81C  E2800001           [044] call       3   2   2  
C820  E4C0C301           [045] self       3   3   271  ; -1518391629
C824  E2800001           [046] call       3   2   2  
fail op	35
C828  23C00001           [047] close      0  
C82C  1A400080           [048] jmp        2            ; to [51]
C830  99000400           [049] loadk      2   16       ; "/Lotus/Language/Menu/SocialOverlay_AlreadyInGame"
C834  9E000001           [050] return     2   2      
C838  9D400400           [051] getglobal  2   17       ; _T
C83C  8E804401           [052] gettable   2   2   274  ; "LockedGoalList"
C840  98000000           [053] test       2       0    ; to [55] if true
C844  1A800980           [054] jmp        39           ; to [94]
C848  99C00400           [055] loadk      2   19       ; ""
C84C  CE804000           [056] gettable   3   0   258  ; "session"
C850  CE00C501           [057] gettable   3   3   276  ; "gameModeId"
fail op	35
C854  2340C501           [058] close      0  
C858  1A000580           [059] jmp        21           ; to [81]
C85C  58000000           [060] test       1       0    ; to [62] if true
C860  1A800480           [061] jmp        19           ; to [81]
C864  8E80C500           [062] gettable   2   1   278  ; "name"
C868  98000000           [063] test       2       0    ; to [65] if true
C86C  1A400580           [064] jmp        22           ; to [87]
C870  DDC00500           [065] getglobal  3   23       ; string
C874  CE00C601           [066] gettable   3   3   280  ; -565905820
C878  12010001           [067] move       4   2      
C87C  53018000           [068] getupval   5   1      
C880  4E41C602           [069] gettable   5   5   281  ; "TAG_SEPERATOR"
C884  E2808001           [070] call       3   3   2  
fail op	35
C888  6380C601           [071] close      1  
C88C  1A400380           [072] jmp        14           ; to [87]
C890  1DC10500           [073] getglobal  4   23       ; string
C894  0EC14602           [074] gettable   4   4   283  ; 2071470131
C898  52010001           [075] move       5   2      
C89C  99010700           [076] loadk      6   28       ; 0
C8A0  CD01C701           [077] sub        7   3   284  ; 0
C8A4  22810002           [078] call       4   4   2  
C8A8  92000002           [079] move       2   4      
C8AC  1A400180           [080] jmp        6            ; to [87]
C8B0  13018000           [081] getupval   4   1      
C8B4  0E414702           [082] gettable   4   4   285  ; -553081598
C8B8  4E814000           [083] gettable   5   0   258  ; "session"
C8BC  4E01C502           [084] gettable   5   5   276  ; "gameModeId"
C8C0  22810001           [085] call       4   2   2  
C8C4  92000002           [086] move       2   4      
C8C8  1D410400           [087] getglobal  4   17       ; _T
C8CC  0E814402           [088] gettable   4   4   274  ; "LockedGoalList"
C8D0  0E810002           [089] gettable   4   4   2  
C8D4  18010000           [090] test       4       0    ; to [92] if true
C8D8  1A400080           [091] jmp        2            ; to [94]
C8DC  19810700           [092] loadk      4   30       ; "/Lotus/Language/Menu/SocialOverlay_EventMissionLocked"
C8E0  1E010001           [093] return     4   2      
fail op	35
C8E4  6380C600           [094] close      1  
C8E8  1A800280           [095] jmp        11           ; to [107]
C8EC  0EC1C700           [096] gettable   4   1   287  ; "sortieId"
fail op	35
C8F0  63804602           [097] close      1  
C8F4  1AC00180           [098] jmp        8            ; to [107]
C8F8  0EC1C700           [099] gettable   4   1   287  ; "sortieId"
fail op	35
C8FC  63C04402           [100] close      1  
C900  1A000180           [101] jmp        5            ; to [107]
C904  13010001           [102] getupval   4   2      
C908  22818000           [103] call       4   1   2  
fail op	35
C90C  63804602           [104] close      1  
C910  1A000080           [105] jmp        1            ; to [107]
C914  1E010001           [106] return     4   2      
fail op	35
C918  6380C600           [107] close      1  
C91C  1A800480           [108] jmp        19           ; to [128]
C920  4E01C800           [109] gettable   5   1   288  ; "jobTier"
C924  9D410800           [110] getglobal  6   33       ; Lotus_Game
C928  8E814803           [111] gettable   6   6   290  ; "JobDifficultyTier_PERMANENT_JOB"
fail op	35
C92C  23808102           [112] close      0  
C930  1A400380           [113] jmp        14           ; to [128]
C934  53018001           [114] getupval   5   3      
C938  4EC1C802           [115] gettable   5   5   291  ; -246400775
C93C  92018000           [116] move       6   1      
C940  62C10001           [117] call       5   2   3  
C944  D3018001           [118] getupval   7   3      
C948  CE01C903           [119] gettable   7   7   292  ; "JCE_CAN_PLAY"
fail op	35
C94C  63C08102           [120] close      1  
C950  1A400180           [121] jmp        6            ; to [128]
fail op	35
C954  63804603           [122] close      1  
C958  1A400080           [123] jmp        2            ; to [126]
C95C  9E010001           [124] return     6   2      
C960  1A400080           [125] jmp        2            ; to [128]
C964  D9010100           [126] loadk      7   4        ; "/Lotus/Language/Menu/SocialOverlay_SessionExpired"
C968  DE010001           [127] return     7   2      
C96C  C6018003           [128] loadnil    7   7      
C970  DE010001           [129] return     7   2      
C974  1E008000           [130] return     0   1      
                         * constants:
C978  25                 sizek (37)
C979  04                 const type 4
C97A  0B                 string size (11)
C97B  706C617965724E61+  "playerNa"
C983  6D6500             "me\0"
                         const [0]: "playerName"
C986  04                 const type 4
C987  0A                 string size (10)
C988  6163636F756E7449+  "accountI"
C990  6400               "d\0"
                         const [1]: "accountId"
C992  04                 const type 4
C993  08                 string size (8)
C994  73657373696F6E00   "session\0"
                         const [2]: "session"
C99C  04                 const type 4
C99D  03                 string size (3)
C99E  696400             "id\0"
                         const [3]: "id"
C9A1  04                 const type 4
C9A2  32                 string size (50)
C9A3  2F4C6F7475732F4C+  "/Lotus/L"
C9AB  616E67756167652F+  "anguage/"
C9B3  4D656E752F536F63+  "Menu/Soc"
C9BB  69616C4F7665726C+  "ialOverl"
C9C3  61795F5365737369+  "ay_Sessi"
C9CB  6F6E457870697265+  "onExpire"
C9D3  6400               "d\0"
                         const [4]: "/Lotus/Language/Menu/SocialOverlay_SessionExpired"
C9D5  04                 const type 4
C9D6  0C                 string size (12)
C9D7  6747616D65436F6E+  "gGameCon"
C9DF  66696700           "fig\0"
                         const [5]: "gGameConfig"
C9E3  01                 const type 3
C9E4  4339E589           const [6]: (-1981466301)
C9E8  04                 const type 4
C9E9  36                 string size (54)
C9EA  2F4C6F7475732F4C+  "/Lotus/L"
C9F2  616E67756167652F+  "anguage/"
C9FA  4D656E752F4D6169+  "Menu/Mai"
CA02  6E4D656E755F4E65+  "nMenu_Ne"
CA0A  774275696C644D69+  "wBuildMi"
CA12  7373696F6E73426C+  "ssionsBl"
CA1A  6F636B656400       "ocked\0"
                         const [7]: "/Lotus/Language/Menu/MainMenu_NewBuildMissionsBlocked"
CA20  01                 const type 3
CA21  809A8215           const [8]: (360880768)
CA25  04                 const type 4
CA26  37                 string size (55)
CA27  2F4C6F7475732F4C+  "/Lotus/L"
CA2F  616E67756167652F+  "anguage/"
CA37  4D656E752F4D6169+  "Menu/Mai"
CA3F  6E4D656E755F4275+  "nMenu_Bu"
CA47  675265706F72744D+  "gReportM"
CA4F  697373696F6E7342+  "issionsB"
CA57  6C6F636B656400     "locked\0"
                         const [9]: "/Lotus/Language/Menu/MainMenu_BugReportMissionsBlocked"
CA5E  04                 const type 4
CA5F  11                 string size (17)
CA60  674D61746368696E+  "gMatchin"
CA68  6753657276696365+  "gService"
CA70  00                 "\0"
                         const [10]: "gMatchingService"
CA71  01                 const type 3
CA72  220814BF           const [11]: (-1089206238)
CA76  04                 const type 4
CA77  0A                 string size (10)
CA78  7374726963744E41+  "strictNA"
CA80  5400               "T\0"
                         const [12]: "strictNAT"
CA82  04                 const type 4
CA83  34                 string size (52)
CA84  2F4C6F7475732F4C+  "/Lotus/L"
CA8C  616E67756167652F+  "anguage/"
CA94  4D656E752F536F63+  "Menu/Soc"
CA9C  69616C4F7665726C+  "ialOverl"
CAA4  61795F5365737369+  "ay_Sessi"
CAAC  6F6E537472696374+  "onStrict"
CAB4  4E415400           "NAT\0"
                         const [13]: "/Lotus/Language/Menu/SocialOverlay_SessionStrictNAT"
CAB8  01                 const type 3
CAB9  4636E0D5           const [14]: (-706726330)
CABD  01                 const type 3
CABE  B32E7FA5           const [15]: (-1518391629)
CAC2  04                 const type 4
CAC3  31                 string size (49)
CAC4  2F4C6F7475732F4C+  "/Lotus/L"
CACC  616E67756167652F+  "anguage/"
CAD4  4D656E752F536F63+  "Menu/Soc"
CADC  69616C4F7665726C+  "ialOverl"
CAE4  61795F416C726561+  "ay_Alrea"
CAEC  6479496E47616D65+  "dyInGame"
CAF4  00                 "\0"
                         const [16]: "/Lotus/Language/Menu/SocialOverlay_AlreadyInGame"
CAF5  04                 const type 4
CAF6  03                 string size (3)
CAF7  5F5400             "_T\0"
                         const [17]: "_T"
CAFA  04                 const type 4
CAFB  0F                 string size (15)
CAFC  4C6F636B6564476F+  "LockedGo"
CB04  616C4C69737400     "alList\0"
                         const [18]: "LockedGoalList"
CB0B  04                 const type 4
CB0C  01                 string size (0)
                         const [19]: ""
CB0E  04                 const type 4
CB0F  0B                 string size (11)
CB10  67616D654D6F6465+  "gameMode"
CB18  496400             "Id\0"
                         const [20]: "gameModeId"
CB1B  03                 const type 3
CB1C  00000000           const [21]: (0)
CB20  04                 const type 4
CB21  05                 string size (5)
CB22  6E616D6500         "name\0"
                         const [22]: "name"
CB27  04                 const type 4
CB28  07                 string size (7)
CB29  737472696E6700     "string\0"
                         const [23]: "string"
CB30  01                 const type 3
CB31  64F644DE           const [24]: (-565905820)
CB35  04                 const type 4
CB36  0E                 string size (14)
CB37  5441475F53455045+  "TAG_SEPE"
CB3F  5241544F5200       "RATOR\0"
                         const [25]: "TAG_SEPERATOR"
CB45  00                 const type 0
                         const [26]: nil
CB46  01                 const type 3
CB47  3320787B           const [27]: (2071470131)
CB4B  03                 const type 3
CB4C  0000803F           const [28]: (0)
CB50  01                 const type 3
CB51  02A508DF           const [29]: (-553081598)
CB55  04                 const type 4
CB56  36                 string size (54)
CB57  2F4C6F7475732F4C+  "/Lotus/L"
CB5F  616E67756167652F+  "anguage/"
CB67  4D656E752F536F63+  "Menu/Soc"
CB6F  69616C4F7665726C+  "ialOverl"
CB77  61795F4576656E74+  "ay_Event"
CB7F  4D697373696F6E4C+  "MissionL"
CB87  6F636B656400       "ocked\0"
                         const [30]: "/Lotus/Language/Menu/SocialOverlay_EventMissionLocked"
CB8D  04                 const type 4
CB8E  09                 string size (9)
CB8F  736F727469654964+  "sortieId"
CB97  00                 "\0"
                         const [31]: "sortieId"
CB98  04                 const type 4
CB99  08                 string size (8)
CB9A  6A6F625469657200   "jobTier\0"
                         const [32]: "jobTier"
CBA2  04                 const type 4
CBA3  0B                 string size (11)
CBA4  4C6F7475735F4761+  "Lotus_Ga"
CBAC  6D6500             "me\0"
                         const [33]: "Lotus_Game"
CBAF  04                 const type 4
CBB0  20                 string size (32)
CBB1  4A6F624469666669+  "JobDiffi"
CBB9  63756C7479546965+  "cultyTie"
CBC1  725F5045524D414E+  "r_PERMAN"
CBC9  454E545F4A4F4200   "ENT_JOB\0"
                         const [34]: "JobDifficultyTier_PERMANENT_JOB"
CBD1  01                 const type 3
CBD2  F93850F1           const [35]: (-246400775)
CBD6  04                 const type 4
CBD7  0D                 string size (13)
CBD8  4A43455F43414E5F+  "JCE_CAN_"
CBE0  504C415900         "PLAY\0"
                         const [36]: "JCE_CAN_PLAY"
                         * functions:
CBE5  00                 sizep (0)
                         * lines:
CBE7  01                 sizelineinfo (130)
                         [pc] (line)
CBE8  19                 [001] (25)
CBE9  07                 [002] (25)
CBEA  00                 [003] (25)
CBEB  00                 [004] (25)
CBEC  19                 [005] (25)
CBED  07                 [006] (25)
CBEE  00                 [007] (25)
CBEF  00                 [008] (25)
CBF0  19                 [009] (25)
CBF1  07                 [010] (25)
CBF2  00                 [011] (26)
CBF3  00                 [012] (26)
CBF4  19                 [013] (29)
CBF5  07                 [014] (29)
CBF6  00                 [015] (29)
CBF7  00                 [016] (29)
CBF8  19                 [017] (29)
CBF9  07                 [018] (30)
CBFA  00                 [019] (30)
CBFB  00                 [020] (33)
CBFC  19                 [021] (33)
CBFD  07                 [022] (33)
CBFE  00                 [023] (33)
CBFF  00                 [024] (33)
CC00  19                 [025] (34)
CC01  07                 [026] (34)
CC02  00                 [027] (37)
CC03  00                 [028] (37)
CC04  19                 [029] (37)
CC05  07                 [030] (37)
CC06  00                 [031] (37)
CC07  00                 [032] (37)
CC08  19                 [033] (37)
CC09  07                 [034] (38)
CC0A  00                 [035] (38)
CC0B  00                 [036] (41)
CC0C  19                 [037] (41)
CC0D  07                 [038] (41)
CC0E  00                 [039] (41)
CC0F  00                 [040] (41)
CC10  1A                 [041] (41)
CC11  07                 [042] (41)
CC12  00                 [043] (41)
CC13  00                 [044] (41)
CC14  1A                 [045] (41)
CC15  07                 [046] (41)
CC16  00                 [047] (41)
CC17  00                 [048] (41)
CC18  1D                 [049] (42)
CC19  07                 [050] (42)
CC1A  00                 [051] (45)
CC1B  00                 [052] (45)
CC1C  1D                 [053] (45)
CC1D  07                 [054] (45)
CC1E  00                 [055] (46)
CC1F  00                 [056] (47)
CC20  1D                 [057] (47)
CC21  07                 [058] (47)
CC22  00                 [059] (47)
CC23  00                 [060] (47)
CC24  1D                 [061] (47)
CC25  07                 [062] (48)
CC26  00                 [063] (49)
CC27  00                 [064] (49)
CC28  1D                 [065] (50)
CC29  07                 [066] (50)
CC2A  00                 [067] (50)
CC2B  00                 [068] (50)
CC2C  1E                 [069] (50)
CC2D  07                 [070] (50)
CC2E  00                 [071] (51)
CC2F  00                 [072] (51)
CC30  1E                 [073] (52)
CC31  07                 [074] (52)
CC32  00                 [075] (52)
CC33  00                 [076] (52)
CC34  21                 [077] (52)
CC35  07                 [078] (52)
CC36  00                 [079] (52)
CC37  00                 [080] (54)
CC38  21                 [081] (57)
CC39  07                 [082] (57)
CC3A  00                 [083] (57)
CC3B  00                 [084] (57)
CC3C  21                 [085] (57)
CC3D  07                 [086] (57)
CC3E  00                 [087] (60)
CC3F  00                 [088] (60)
CC40  21                 [089] (60)
CC41  07                 [090] (60)
CC42  00                 [091] (60)
CC43  00                 [092] (61)
CC44  21                 [093] (61)
CC45  07                 [094] (65)
CC46  00                 [095] (65)
CC47  00                 [096] (65)
CC48  22                 [097] (65)
CC49  07                 [098] (65)
CC4A  00                 [099] (65)
CC4B  00                 [100] (65)
CC4C  22                 [101] (65)
CC4D  07                 [102] (66)
CC4E  00                 [103] (66)
CC4F  00                 [104] (67)
CC50  25                 [105] (67)
CC51  07                 [106] (68)
CC52  00                 [107] (72)
CC53  00                 [108] (72)
CC54  25                 [109] (72)
CC55  07                 [110] (72)
CC56  00                 [111] (72)
CC57  00                 [112] (72)
CC58  25                 [113] (72)
CC59  07                 [114] (73)
CC5A  00                 [115] (73)
CC5B  00                 [116] (73)
CC5C  25                 [117] (73)
CC5D  07                 [118] (74)
CC5E  00                 [119] (74)
CC5F  00                 [120] (74)
CC60  25                 [121] (74)
CC61  07                 [122] (75)
CC62  00                 [123] (75)
CC63  00                 [124] (76)
CC64  25                 [125] (76)
CC65  07                 [126] (78)
CC66  00                 [127] (78)
CC67  00                 [128] (90)
CC68  25                 [129] (90)
CC69  07                 [130] (91)
                         * locals:
CDF0  00                 sizelocvars (0)
                         * upvalues:
CDF1  00                 sizeupvalues (0)
                         ** end of function **

                         
CDF2                     ** function [56] definition (level 2)
                         ** start of function **
CDF2  00                 string size (0)
                         source name: (none)
CDF4  0E                 line defined (1885)
CDF5  E6                 last line defined (1894)
CDF6  0E                 nups (1)
CDF7  01                 numparams (1)
CDF8  01                 is_vararg (0)
CDF9  00                 maxstacksize (6)
                         * code:
CDFB  2B                 sizecode (43)
CDFC  64004000           [01] self       1   0   256  ; -348174914
CE00  62800001           [02] call       1   2   2  
CE04  6440C000           [03] self       1   1   257  ; 1057964316
CE08  62800001           [04] call       1   2   2  
CE0C  9D800000           [05] getglobal  2   2        ; 1074689893
CE10  D2008000           [06] move       3   1      
CE14  A2800001           [07] call       2   2   2  
CE18  98400000           [08] test       2       1    ; to [10] if false
CE1C  1A000880           [09] jmp        33           ; to [43]
CE20  8A008000           [10] len        2   1      
fail op	21
CE24  15808081           [11] concat     0   259 2  
CE28  1A400780           [12] jmp        30           ; to [43]
CE2C  9D000100           [13] getglobal  2   4        ; string
CE30  8E404101           [14] gettable   2   2   261  ; -565905820
CE34  CE80C100           [15] gettable   3   1   262  ; 0
CE38  19C10100           [16] loadk      4   7        ; "/Keys/"
CE3C  A2808001           [17] call       2   3   2  
CE40  98000000           [18] test       2       0    ; to [20] if true
CE44  1A800580           [19] jmp        23           ; to [43]
CE48  9D000100           [20] getglobal  2   4        ; string
CE4C  8E404101           [21] gettable   2   2   261  ; -565905820
CE50  CE80C100           [22] gettable   3   1   262  ; 0
CE54  19010200           [23] loadk      4   8        ; "DojoKey"
CE58  A2808001           [24] call       2   3   2  
CE5C  98400000           [25] test       2       1    ; to [27] if false
CE60  1AC00380           [26] jmp        16           ; to [43]
CE64  9D400200           [27] getglobal  2   9        ; 2083004503
CE68  CE80C100           [28] gettable   3   1   262  ; 0
CE6C  A2800001           [29] call       2   2   2  
CE70  DD800000           [30] getglobal  3   2        ; 1074689893
CE74  12010001           [31] move       4   2      
CE78  E2800001           [32] call       3   2   2  
CE7C  D8400000           [33] test       3       1    ; to [35] if false
CE80  1AC00180           [34] jmp        8            ; to [43]
CE84  DD800200           [35] getglobal  3   10       ; -1615931716
CE88  24C14201           [36] self       4   2   267  ; 455421500
CE8C  22010001           [37] call       4   2   0  
CE90  E2800000           [38] call       3   0   2  
CE94  13010000           [39] getupval   4   0      
CE98  0E014302           [40] gettable   4   4   268  ; "KEY_TAG"
CE9C  C2008101           [41] concat     3   3   4  
CEA0  DE000001           [42] return     3   2      
CEA4  1E008000           [43] return     0   1      
                         * constants:
CEA8  0D                 sizek (13)
CEA9  01                 const type 3
CEAA  BE453FEB           const [0]: (-348174914)
CEAE  01                 const type 3
CEAF  1C410F3F           const [1]: (1057964316)
CEB3  01                 const type 3
CEB4  65770E40           const [2]: (1074689893)
CEB8  03                 const type 3
CEB9  00000000           const [3]: (0)
CEBD  04                 const type 4
CEBE  07                 string size (7)
CEBF  737472696E6700     "string\0"
                         const [4]: "string"
CEC6  01                 const type 3
CEC7  64F644DE           const [5]: (-565905820)
CECB  03                 const type 3
CECC  0000803F           const [6]: (0)
CED0  04                 const type 4
CED1  07                 string size (7)
CED2  2F4B6579732F00     "/Keys/\0"
                         const [7]: "/Keys/"
CED9  04                 const type 4
CEDA  08                 string size (8)
CEDB  446F6A6F4B657900   "DojoKey\0"
                         const [8]: "DojoKey"
CEE3  01                 const type 3
CEE4  5720287C           const [9]: (2083004503)
CEE8  01                 const type 3
CEE9  BCD6AE9F           const [10]: (-1615931716)
CEED  01                 const type 3
CEEE  3C2E251B           const [11]: (455421500)
CEF2  04                 const type 4
CEF3  08                 string size (8)
CEF4  4B45595F54414700   "KEY_TAG\0"
                         const [12]: "KEY_TAG"
                         * functions:
CEFC  00                 sizep (0)
                         * lines:
CEFD  2B                 sizelineinfo (43)
                         [pc] (line)
CEFE  5F                 [01] (95)
CEFF  07                 [02] (95)
CF00  00                 [03] (95)
CF01  00                 [04] (95)
CF02  5F                 [05] (96)
CF03  07                 [06] (96)
CF04  00                 [07] (96)
CF05  00                 [08] (96)
CF06  5F                 [09] (96)
CF07  07                 [10] (96)
CF08  00                 [11] (96)
CF09  00                 [12] (96)
CF0A  5F                 [13] (96)
CF0B  07                 [14] (96)
CF0C  00                 [15] (96)
CF0D  00                 [16] (96)
CF0E  60                 [17] (96)
CF0F  07                 [18] (96)
CF10  00                 [19] (96)
CF11  00                 [20] (96)
CF12  60                 [21] (96)
CF13  07                 [22] (96)
CF14  00                 [23] (96)
CF15  00                 [24] (96)
CF16  60                 [25] (96)
CF17  07                 [26] (96)
CF18  00                 [27] (97)
CF19  00                 [28] (97)
CF1A  60                 [29] (97)
CF1B  07                 [30] (98)
CF1C  00                 [31] (98)
CF1D  00                 [32] (98)
CF1E  60                 [33] (98)
CF1F  07                 [34] (98)
CF20  00                 [35] (99)
CF21  00                 [36] (99)
CF22  60                 [37] (99)
CF23  07                 [38] (99)
CF24  00                 [39] (99)
CF25  00                 [40] (99)
CF26  60                 [41] (99)
CF27  07                 [42] (99)
CF28  00                 [43] (102)
                         * locals:
CFAA  00                 sizelocvars (0)
                         * upvalues:
CFAB  00                 sizeupvalues (0)
                         ** end of function **

                         
CFAC                     ** function [57] definition (level 2)
                         ** start of function **
CFAC  00                 string size (0)
                         source name: (none)
CFAE  0E                 line defined (1899)
CFAF  B3                 last line defined (2099)
CFB0  10                 nups (5)
CFB1  05                 numparams (9)
CFB2  09                 is_vararg (0)
CFB3  00                 maxstacksize (39)
                         * code:
CFB6  03                 sizecode (500)
CFB7  5D020000           [001] getglobal  9   0        ; gMatchingService
CFBB  6442C004           [002] self       9   9   257  ; -1702588160
CFBF  62820001           [003] call       9   2   2  
CFC3  18000000           [004] test       0       0    ; to [6] if true
CFC7  1A000180           [005] jmp        5            ; to [11]
fail op	35
CFCB  63804000           [006] close      1  
CFCF  1A800080           [007] jmp        3            ; to [11]
CFD3  8A028004           [008] len        10  9      
fail op	35
CFD7  23C04005           [009] close      0  
CFDB  1A800380           [010] jmp        15           ; to [26]
fail op	35
CFDF  23804000           [011] close      0  
CFE3  1A400180           [012] jmp        6            ; to [19]
CFE7  9D020100           [013] getglobal  10  4        ; _T
CFEB  8C82C182           [014] settable   10  261 262  ; "MadeProjectionChoice" 0
CFEF  9D020100           [015] getglobal  10  4        ; _T
CFF3  8C82C183           [016] settable   10  263 262  ; "MadeWagerChoice" 0
CFF7  99020200           [017] loadk      10  8        ; ""
CFFB  9E020001           [018] return     10  2      
CFFF  9D020000           [019] getglobal  10  0        ; gMatchingService
D003  A4424205           [020] self       10  10  265  ; -1836114857
D007  A2820001           [021] call       10  2   2  
fail op	35
D00B  23004205           [022] close      0  
D00F  1A000080           [023] jmp        1            ; to [25]
D013  99820200           [024] loadk      10  10       ; "/Lotus/Language/Menu/SocialOverlay_SessionJoinFail"
D017  9E020001           [025] return     10  2      
D01B  DDC20200           [026] getglobal  11  11       ; gPlayerProfileMgr
D01F  E402C305           [027] self       11  11  268  ; 569342746
D023  59C30000           [028] loadk      13  3        ; 0
D027  E2828001           [029] call       11  3   2  
D02B  1D430300           [030] getglobal  12  13       ; 1074689893
D02F  52038005           [031] move       13  11     
D033  22830001           [032] call       12  2   2  
D037  18430000           [033] test       12      1    ; to [35] if false
D03B  1A000180           [034] jmp        5            ; to [40]
D03F  1DC30200           [035] getglobal  12  11       ; gPlayerProfileMgr
D043  24834306           [036] self       12  12  270  ; 853032131
D047  22830001           [037] call       12  2   2  
D04B  18430000           [038] test       12      1    ; to [40] if false
D04F  1A400080           [039] jmp        2            ; to [42]
D053  19C30300           [040] loadk      12  15       ; "/Language/Menu/SignInMessageBoxTitle"
D057  1E030001           [041] return     12  2      
D05B  2403C405           [042] self       12  11  272  ; 1699680402
D05F  22830001           [043] call       12  2   2  
D063  4E43C404           [044] gettable   13  9   273  ; 0
D067  A483C406           [045] self       14  13  274  ; -348174914
D06B  A2830001           [046] call       14  2   2  
D06F  8EC34407           [047] gettable   14  14  275  ; "gameModeId"
D073  E403C506           [048] self       15  13  276  ; -1295768401
D077  E2830001           [049] call       15  2   2  
fail op	35
D07B  23C0C007           [050] close      0  
D07F  1A400180           [051] jmp        6            ; to [58]
D083  DD430500           [052] getglobal  15  21       ; _G
D087  CE83C507           [053] gettable   15  15  278  ; "StalkerMode"
D08B  D8430000           [054] test       15      1    ; to [56] if false
D08F  1A400080           [055] jmp        2            ; to [58]
D093  D9C30500           [056] loadk      15  23       ; "/Lotus/Language/Menu/SocialOverlay_SessionFull"
D097  DE030001           [057] return     15  2      
fail op	35
D09B  63004601           [058] close      1  
D09F  1A000280           [059] jmp        9            ; to [69]
fail op	35
D0A3  63404601           [060] close      1  
D0A7  1A800180           [061] jmp        7            ; to [69]
D0AB  E483C606           [062] self       15  13  282  ; 1421293059
D0AF  52040001           [063] move       17  2      
D0B3  E2838001           [064] call       15  3   2  
fail op	35
D0B7  23C0C007           [065] close      0  
D0BB  1A400080           [066] jmp        2            ; to [69]
D0BF  D9C30600           [067] loadk      15  27       ; "/Lotus/Language/Menu/SocialOverlay_TeamFull"
D0C3  DE030001           [068] return     15  2      
D0C7  E483C406           [069] self       15  13  274  ; -348174914
D0CB  E2830001           [070] call       15  2   2  
D0CF  CE03C707           [071] gettable   15  15  284  ; "regionId"
D0D3  1D440700           [072] getglobal  16  29       ; Engine
D0D7  0E844708           [073] gettable   16  16  286  ; "LOCKED"
fail op	35
D0DB  23008407           [074] close      0  
D0DF  1AC00080           [075] jmp        4            ; to [80]
D0E3  D8400000           [076] test       3       1    ; to [78] if false
D0E7  1A400080           [077] jmp        2            ; to [80]
D0EB  D9C30700           [078] loadk      15  31       ; "/Lotus/Language/Menu/SocialOverlay_SessionLocked"
D0EF  DE030001           [079] return     15  2      
D0F3  D3030000           [080] getupval   15  0      
D0F7  CE03C807           [081] gettable   15  15  288  ; -1894670547
D0FB  12048006           [082] move       16  13     
D0FF  E2830001           [083] call       15  2   2  
D103  D8030000           [084] test       15      0    ; to [86] if true
D107  1A400080           [085] jmp        2            ; to [88]
D10B  D9430800           [086] loadk      15  33       ; "/Lotus/Language/Menu/SocialOverlay_SessionExpired"
D10F  DE030001           [087] return     15  2      
D113  DD830800           [088] getglobal  15  34       ; gGameConfig
D117  E4C3C807           [089] self       15  15  291  ; -1981466301
D11B  E2830001           [090] call       15  2   2  
D11F  D8030000           [091] test       15      0    ; to [93] if true
D123  1A400080           [092] jmp        2            ; to [95]
D127  D9030900           [093] loadk      15  36       ; "/Lotus/Language/Menu/MainMenu_NewBuildMissionsBlocked"
D12B  DE030001           [094] return     15  2      
D12F  DD830800           [095] getglobal  15  34       ; gGameConfig
D133  E443C907           [096] self       15  15  293  ; 360880768
D137  E2830001           [097] call       15  2   2  
D13B  D8030000           [098] test       15      0    ; to [100] if true
D13F  1A400080           [099] jmp        2            ; to [102]
D143  D9830900           [100] loadk      15  38       ; "/Lotus/Language/Menu/MainMenu_BugReportMissionsBlocked"
D147  DE030001           [101] return     15  2      
D14B  DD030000           [102] getglobal  15  0        ; gMatchingService
D14F  E4C3C907           [103] self       15  15  295  ; -1089206238
D153  6404CA06           [104] self       17  13  296  ; -952083072
D157  62040001           [105] call       17  2   0  
D15B  E2830000           [106] call       15  0   2  
D15F  D8430000           [107] test       15      1    ; to [109] if false
D163  1A400080           [108] jmp        2            ; to [111]
D167  D9430A00           [109] loadk      15  41       ; "/Lotus/Language/Menu/SocialOverlay_SessionStrictNAT"
D16B  DE030001           [110] return     15  2      
D16F  D3030000           [111] getupval   15  0      
D173  CE83CA07           [112] gettable   15  15  298  ; 1017661185
D177  E2838000           [113] call       15  1   2  
fail op	35
D17B  63C00307           [114] close      1  
D17F  1A000180           [115] jmp        5            ; to [121]
D183  D3030000           [116] getupval   15  0      
D187  CEC3CA07           [117] gettable   15  15  299  ; 1740987431
D18B  E2838000           [118] call       15  1   2  
fail op	35
D18F  23C00307           [119] close      0  
D193  1A400680           [120] jmp        26           ; to [147]
D197  E403CB05           [121] self       15  11  300  ; 1013624098
D19B  E2830001           [122] call       15  2   2  
D19F  D8430000           [123] test       15      1    ; to [125] if false
D1A3  1A400080           [124] jmp        2            ; to [127]
D1A7  D9430B00           [125] loadk      15  45       ; "/Lotus/Language/Menu/KubrowLocked_Busy"
D1AB  DE030001           [126] return     15  2      
D1AF  E483C406           [127] self       15  13  274  ; -348174914
D1B3  E2830001           [128] call       15  2   2  
D1B7  CE83CB07           [129] gettable   15  15  302  ; "originalSessionId"
fail op	35
D1BB  6300C207           [130] close      1  
D1BF  1A800280           [131] jmp        11           ; to [143]
D1C3  24C44B06           [132] self       16  12  303  ; 360266085
D1C7  22840001           [133] call       16  2   2  
fail op	35
D1CB  23008407           [134] close      0  
D1CF  1A800180           [135] jmp        7            ; to [143]
D1D3  24044C06           [136] self       16  12  304  ; 1616926062
D1D7  22840001           [137] call       16  2   2  
D1DB  18440000           [138] test       16      1    ; to [140] if false
D1DF  1A800180           [139] jmp        7            ; to [147]
D1E3  19440C00           [140] loadk      16  49       ; "/Lotus/Language/Menu/SocialOverlay_DojoKeyRequired"
D1E7  1E040001           [141] return     16  2      
D1EB  1AC00080           [142] jmp        4            ; to [147]
D1EF  58400000           [143] test       1       1    ; to [145] if false
D1F3  1A400080           [144] jmp        2            ; to [147]
D1F7  19840C00           [145] loadk      16  50       ; "/Lotus/Language/Menu/SocialOverlay_SessionRequiresInvite"
D1FB  1E040001           [146] return     16  2      
D1FF  13040000           [147] getupval   16  0      
D203  0EC44C08           [148] gettable   16  16  307  ; 793360002
D207  52040007           [149] move       17  14     
D20B  22840001           [150] call       16  2   2  
D20F  18040000           [151] test       16      0    ; to [153] if true
D213  1A400080           [152] jmp        2            ; to [155]
D217  19040D00           [153] loadk      16  52       ; "/Lotus/Language/Menu/ServerIsFull"
D21B  1E040001           [154] return     16  2      
D21F  2484C406           [155] self       16  13  274  ; -348174914
D223  22840001           [156] call       16  2   2  
D227  0E044708           [157] gettable   16  16  284  ; "regionId"
D22B  5D440700           [158] getglobal  17  29       ; Engine
D22F  4E44CD08           [159] gettable   17  17  309  ; "INVITE_ONLY"
fail op	35
D233  23400408           [160] close      0  
D237  1A400180           [161] jmp        6            ; to [168]
D23B  58400000           [162] test       1       1    ; to [164] if false
D23F  1AC00080           [163] jmp        4            ; to [168]
D243  D8400000           [164] test       3       1    ; to [166] if false
D247  1A400080           [165] jmp        2            ; to [168]
D24B  19840C00           [166] loadk      16  50       ; "/Lotus/Language/Menu/SocialOverlay_SessionRequiresInvite"
D24F  1E040001           [167] return     16  2      
D253  13040000           [168] getupval   16  0      
D257  0E844D08           [169] gettable   16  16  310  ; -1153782542
D25B  22848000           [170] call       16  1   2  
D25F  53040000           [171] getupval   17  0      
D263  4EC4CD08           [172] gettable   17  17  311  ; -553081598
D267  92040007           [173] move       18  14     
D26B  62840001           [174] call       17  2   2  
D26F  58040000           [175] test       17      0    ; to [177] if true
D273  1A402F80           [176] jmp        190          ; to [367]
D277  93040000           [177] getupval   18  0      
D27B  8E044E09           [178] gettable   18  18  312  ; 1309233650
D27F  D2040007           [179] move       19  14     
D283  A2840001           [180] call       18  2   2  
D287  98040000           [181] test       18      0    ; to [183] if true
D28B  1A400780           [182] jmp        30           ; to [213]
D28F  9D440E00           [183] getglobal  18  57       ; gGameRules
D293  A4844E09           [184] self       18  18  314  ; -1957065004
D297  1DC50E00           [185] getglobal  20  59       ; gLotusHubGameRulesType
D29B  A2848001           [186] call       18  3   2  
D29F  98040000           [187] test       18      0    ; to [189] if true
D2A3  1AC00580           [188] jmp        24           ; to [213]
D2A7  9D440E00           [189] getglobal  18  57       ; gGameRules
D2AB  A4044F09           [190] self       18  18  316  ; -2124130480
D2AF  A2840001           [191] call       18  2   2  
D2B3  98040000           [192] test       18      0    ; to [194] if true
D2B7  1A400080           [193] jmp        2            ; to [196]
fail op	35
D2BB  6340CF08           [194] close      1  
D2BF  1A800180           [195] jmp        7            ; to [203]
D2C3  9D440E00           [196] getglobal  18  57       ; gGameRules
D2C7  A4044F09           [197] self       18  18  316  ; -2124130480
D2CB  A2840001           [198] call       18  2   2  
D2CF  98440000           [199] test       18      1    ; to [201] if false
D2D3  1AC00280           [200] jmp        12           ; to [213]
fail op	35
D2D7  6340CF08           [201] close      1  
D2DB  1A400280           [202] jmp        10           ; to [213]
D2DF  9D840F00           [203] getglobal  18  62       ; -1615931716
D2E3  DD440E00           [204] getglobal  19  57       ; gGameRules
D2E7  E4C4CF09           [205] self       19  19  319  ; -1201441975
D2EB  E2840001           [206] call       19  2   2  
D2EF  CE04D009           [207] gettable   19  19  320  ; "location"
D2F3  A2840001           [208] call       18  2   2  
fail op	35
D2F7  63400409           [209] close      1  
D2FB  1A400080           [210] jmp        2            ; to [213]
D2FF  D9441000           [211] loadk      19  65       ; "/Lotus/Language/Menu/JoinFail_RelayFromRelay"
D303  DE040001           [212] return     19  2      
D307  D3040000           [213] getupval   19  0      
D30B  CE84D009           [214] gettable   19  19  322  ; 7152614
D30F  12050007           [215] move       20  14     
D313  E2840001           [216] call       19  2   2  
D317  13050000           [217] getupval   20  0      
D31B  0EC5500A           [218] gettable   20  20  323  ; "ACTIVE_MISSION_TAG"
fail op	35
D31F  23008509           [219] close      0  
D323  1A001580           [220] jmp        85           ; to [306]
D327  98410000           [221] test       6       1    ; to [223] if false
D32B  1A801480           [222] jmp        83           ; to [306]
D32F  1D050100           [223] getglobal  20  4        ; _T
D333  0E45410A           [224] gettable   20  20  261  ; "MadeProjectionChoice"
D337  18050000           [225] test       20      0    ; to [227] if true
D33B  1A800080           [226] jmp        3            ; to [230]
D33F  1D050100           [227] getglobal  20  4        ; _T
D343  0C85C182           [228] settable   20  261 262  ; "MadeProjectionChoice" 0
D347  1AC01280           [229] jmp        76           ; to [306]
D34B  24055102           [230] self       20  4   324  ; 1609725115
D34F  93058000           [231] getupval   22  1      
D353  22858001           [232] call       20  3   2  
D357  5D450300           [233] getglobal  21  13       ; 1074689893
D35B  9205000A           [234] move       22  20     
D35F  62850001           [235] call       21  2   2  
D363  58450000           [236] test       21      1    ; to [238] if false
D367  1AC01080           [237] jmp        68           ; to [306]
D36B  5D050100           [238] getglobal  21  4        ; _T
D36F  4E45D10A           [239] gettable   21  21  325  ; "BackgroundMovie"
D373  6485D10A           [240] self       21  21  326  ; 1167009705
D377  D9C51100           [241] loadk      23  71       ; "ShowBlockingMessage"
D37B  19061200           [242] loadk      24  72       ; "0"
D37F  62450002           [243] call       21  4   1  
D383  53050000           [244] getupval   21  0      
D387  4E45D20A           [245] gettable   21  21  329  ; "VOID_PROJECTION_ITEMS"
D38B  4E85D20A           [246] gettable   21  21  330  ; "VoidT1"
D38F  A485C406           [247] self       22  13  274  ; -348174914
D393  A2850001           [248] call       22  2   2  
D397  A4C5520B           [249] self       22  22  331  ; 1057964316
D39B  A2850001           [250] call       22  2   2  
D39F  8A05000B           [251] len        22  22     
fail op	21
D3A3  15808581           [252] concat     0   259 22 
D3A7  1A400380           [253] jmp        14           ; to [268]
D3AB  A485C406           [254] self       22  13  274  ; -348174914
D3AF  A2850001           [255] call       22  2   2  
D3B3  A4C5520B           [256] self       22  22  331  ; 1057964316
D3B7  A2850001           [257] call       22  2   2  
D3BB  8E45440B           [258] gettable   22  22  273  ; 0
D3BF  D3050000           [259] getupval   23  0      
D3C3  CE45D20B           [260] gettable   23  23  329  ; "VOID_PROJECTION_ITEMS"
D3C7  CE85850B           [261] gettable   23  23  22 
D3CB  D8050000           [262] test       23      0    ; to [264] if true
D3CF  1A800780           [263] jmp        31           ; to [295]
D3D3  D3050000           [264] getupval   23  0      
D3D7  CE45D20B           [265] gettable   23  23  329  ; "VOID_PROJECTION_ITEMS"
D3DB  4E85850B           [266] gettable   21  23  22 
D3DF  1A800680           [267] jmp        27           ; to [295]
D3E3  E4055306           [268] self       23  12  332  ; 755731078
D3E7  E2850001           [269] call       23  2   2  
D3EB  CE45D30B           [270] gettable   23  23  333  ; "mActiveMissions"
D3EF  19460400           [271] loadk      24  17       ; 0
D3F3  4A06800B           [272] len        25  23     
D3F7  99460400           [273] loadk      26  17       ; 0
D3FB  10860480           [274] forprep    24  19       ; to [294]
D3FF  1D870F00           [275] getglobal  28  62       ; -1615931716
D403  4EC7860B           [276] gettable   29  23  27 
D407  4E87D30E           [277] gettable   29  29  334  ; "mNode"
D40B  22870001           [278] call       28  2   2  
fail op	35
D40F  2340040E           [279] close      0  
D413  1A000380           [280] jmp        13           ; to [294]
D417  1D870F00           [281] getglobal  28  62       ; -1615931716
D41B  4EC7860B           [282] gettable   29  23  27 
D41F  4EC7D30E           [283] gettable   29  29  335  ; "mModifier"
D423  22870001           [284] call       28  2   2  
D427  53070000           [285] getupval   29  0      
D42B  4E47D20E           [286] gettable   29  29  329  ; "VOID_PROJECTION_ITEMS"
D42F  4E07870E           [287] gettable   29  29  28 
D433  58070000           [288] test       29      0    ; to [290] if true
D437  1A000180           [289] jmp        5            ; to [295]
D43B  53070000           [290] getupval   29  0      
D43F  4E47D20E           [291] gettable   29  29  329  ; "VOID_PROJECTION_ITEMS"
D443  4E05870E           [292] gettable   21  29  28 
D447  1A000080           [293] jmp        1            ; to [295]
D44B  14C6FA7F           [294] forloop    24  -20      ; to [275] if loop
D44F  6407540A           [295] self       29  20  336  ; -1177982048
D453  D9471400           [296] loadk      31  81       ; "SetExclusiveTier"
D457  0B080001           [297] newtable   32  2   0    ; array=2, hash=0
D45B  6488D40A           [298] self       33  21  338  ; 455421500
D45F  62880001           [299] call       33  2   2  
D463  92088002           [300] move       34  5      
D467  1B480001           [301] setlist    32  2   1    ; index 1 to 2
D46B  62470002           [302] call       29  4   1  
D46F  5DC71400           [303] getglobal  29  83       ; 538022378
D473  99C70000           [304] loadk      30  3        ; 0
D477  62470001           [305] call       29  2   1  
D47B  D8410000           [306] test       7       1    ; to [308] if false
D47F  1AC00D80           [307] jmp        56           ; to [364]
D483  64075508           [308] self       29  16  340  ; 1267988059
D487  DD471500           [309] getglobal  31  85       ; -332969190
D48B  12088008           [310] move       32  17     
D48F  E2070001           [311] call       31  2   0  
D493  62870000           [312] call       29  0   2  
D497  9D470300           [313] getglobal  30  13       ; 1074689893
D49B  D207800E           [314] move       31  29     
D49F  A2870001           [315] call       30  2   2  
D4A3  98470000           [316] test       30      1    ; to [318] if false
D4A7  1A400B80           [317] jmp        46           ; to [364]
D4AB  8E87D50E           [318] gettable   30  29  342  ; "missionType"
D4AF  DDC71500           [319] getglobal  31  87       ; Lotus_Game
D4B3  CE07D60F           [320] gettable   31  31  344  ; "MT_ARENA"
fail op	35
D4B7  23C0070F           [321] close      0  
D4BB  1A000A80           [322] jmp        41           ; to [364]
D4BF  8E47D60E           [323] gettable   30  29  345  ; "faction"
D4C3  DDC71500           [324] getglobal  31  87       ; Lotus_Game
D4C7  CE87D60F           [325] gettable   31  31  346  ; "FC_CORPUS"
fail op	35
D4CB  23C0070F           [326] close      0  
D4CF  1AC00880           [327] jmp        36           ; to [364]
D4D3  9D070100           [328] getglobal  30  4        ; _T
D4D7  8EC7410F           [329] gettable   30  30  263  ; "MadeWagerChoice"
D4DB  98470000           [330] test       30      1    ; to [332] if false
D4DF  1AC00780           [331] jmp        32           ; to [364]
D4E3  A4075102           [332] self       30  4   324  ; 1609725115
D4E7  13080001           [333] getupval   32  2      
D4EB  A2878001           [334] call       30  3   2  
D4EF  DD470300           [335] getglobal  31  13       ; 1074689893
D4F3  1208000F           [336] move       32  30     
D4F7  E2870001           [337] call       31  2   2  
D4FB  D8470000           [338] test       31      1    ; to [340] if false
D4FF  1AC00580           [339] jmp        24           ; to [364]
D503  DD070100           [340] getglobal  31  4        ; _T
D507  CE47D10F           [341] gettable   31  31  325  ; "BackgroundMovie"
D50B  E487D10F           [342] self       31  31  326  ; 1167009705
D50F  59C81100           [343] loadk      33  71       ; "ShowBlockingMessage"
D513  99081200           [344] loadk      34  72       ; "0"
D517  E2470002           [345] call       31  4   1  
D51B  D3078001           [346] getupval   31  3      
D51F  12088006           [347] move       32  13     
D523  E2870001           [348] call       31  2   2  
fail op	5
D527  4544800F           [349] getglobal  17  15873    ; nil
D52B  1AC0FF7F           [350] jmp        0            ; to [351]
D52F  E407540F           [351] self       31  30  336  ; -1177982048
D533  59C81600           [352] loadk      33  91       ; "SetSectorNameAndCloseCallback"
D537  8B080001           [353] newtable   34  2   0    ; array=2, hash=0
D53B  D2088008           [354] move       35  17     
D53F  12098002           [355] move       36  5      
D543  5D890F00           [356] getglobal  37  62       ; -1615931716
D547  92090004           [357] move       38  8      
D54B  62090001           [358] call       37  2   0  
D54F  9B480000           [359] setlist    34  0   1    ; index 1 to top
D553  E2470002           [360] call       31  4   1  
D557  DDC71400           [361] getglobal  31  83       ; 538022378
D55B  19C80000           [362] loadk      32  3        ; 0
D55F  E2470001           [363] call       31  2   1  
D563  D2078008           [364] move       31  17     
D567  12088009           [365] move       32  19     
D56B  4204880F           [366] concat     17  31  32 
D56F  D3078001           [367] getupval   31  3      
D573  12088006           [368] move       32  13     
D577  E2870001           [369] call       31  2   2  
fail op	5
D57B  4544800F           [370] getglobal  17  15873    ; nil
D57F  1AC0FF7F           [371] jmp        0            ; to [372]
D583  58040000           [372] test       17      0    ; to [374] if true
D587  1A800980           [373] jmp        39           ; to [413]
D58B  E4075508           [374] self       31  16  340  ; 1267988059
D58F  5D481500           [375] getglobal  33  85       ; -332969190
D593  92088008           [376] move       34  17     
D597  62080001           [377] call       33  2   0  
D59B  E2870000           [378] call       31  0   2  
D59F  13080002           [379] getupval   32  4      
D5A3  0E085710           [380] gettable   32  32  348  ; -1899142750
D5A7  52088008           [381] move       33  17     
D5AB  92088000           [382] move       34  1      
D5AF  22888001           [383] call       32  3   2  
D5B3  18080000           [384] test       32      0    ; to [386] if true
D5B7  1A800680           [385] jmp        27           ; to [413]
D5BB  5D480300           [386] getglobal  33  13       ; 1074689893
D5BF  9D080100           [387] getglobal  34  4        ; _T
D5C3  8E485111           [388] gettable   34  34  325  ; "BackgroundMovie"
D5C7  62880001           [389] call       33  2   2  
D5CB  58480000           [390] test       33      1    ; to [392] if false
D5CF  1A800480           [391] jmp        19           ; to [411]
D5D3  5D080100           [392] getglobal  33  4        ; _T
D5D7  4E48D110           [393] gettable   33  33  325  ; "BackgroundMovie"
D5DB  6448D710           [394] self       33  33  349  ; 98241492
D5DF  CE885710           [395] gettable   35  32  350  ; "text"
D5E3  17090000           [396] loadbool   36  0   0    ; false
D5E7  4B490100           [397] newtable   37  0   5    ; array=0, hash=5
D5EB  8E095810           [398] gettable   38  32  352  ; "player"
D5EF  4C8989AF           [399] settable   37  351 38   ; "PLAYER_NAME"
D5F3  8E895810           [400] gettable   38  32  354  ; "value"
D5F7  4C8989B0           [401] settable   37  353 38   ; "VALUE"
D5FB  8EC95810           [402] gettable   38  32  355  ; "MIN"
D5FF  4C8989B1           [403] settable   37  355 38   ; "MIN"
D603  8E095910           [404] gettable   38  32  356  ; "MAX"
D607  4C8909B2           [405] settable   37  356 38   ; "MAX"
D60B  8E495910           [406] gettable   38  32  357  ; "ITEM"
D60F  4C8989B2           [407] settable   37  357 38   ; "ITEM"
D613  47088002           [408] tailcall   33  5   0  
D617  5E080000           [409] return     33  0      
D61B  1A400080           [410] jmp        2            ; to [413]
D61F  4E885710           [411] gettable   33  32  350  ; "text"
D623  5E080001           [412] return     33  2      
D627  5D080100           [413] getglobal  33  4        ; _T
D62B  4E88D910           [414] gettable   33  33  358  ; "LockedGoalList"
D62F  58080000           [415] test       33      0    ; to [417] if true
D633  1A800180           [416] jmp        7            ; to [424]
D637  5D080100           [417] getglobal  33  4        ; _T
D63B  4E88D910           [418] gettable   33  33  358  ; "LockedGoalList"
D63F  4E488410           [419] gettable   33  33  17 
D643  58080000           [420] test       33      0    ; to [422] if true
D647  1A400080           [421] jmp        2            ; to [424]
D64B  59C81900           [422] loadk      33  103      ; "/Lotus/Language/Menu/SocialOverlay_EventMissionLocked"
D64F  5E080001           [423] return     33  2      
D653  53080000           [424] getupval   33  0      
D657  4E08DA10           [425] gettable   33  33  360  ; -323475314
D65B  92080007           [426] move       34  14     
D65F  62880001           [427] call       33  2   2  
D663  58080000           [428] test       33      0    ; to [430] if true
D667  1A400580           [429] jmp        22           ; to [452]
D66B  5D481A00           [430] getglobal  33  105      ; gFlashMgr
D66F  6488DA10           [431] self       33  33  362  ; 277467219
D673  D9C81A00           [432] loadk      35  107      ; "Multiplayer.RankedPVP"
D677  62888001           [433] call       33  3   2  
D67B  58080000           [434] test       33      0    ; to [436] if true
D67F  1AC00380           [435] jmp        16           ; to [452]
D683  6488C406           [436] self       33  13  274  ; -348174914
D687  62880001           [437] call       33  2   2  
D68B  4E08DB10           [438] gettable   33  33  364  ; "eloRating"
D68F  99481B00           [439] loadk      34  109      ; 0
D693  DDC81500           [440] getglobal  35  87       ; Lotus_Game
D697  CE88DB11           [441] gettable   35  35  366  ; 106302579
D69B  12098005           [442] move       36  11     
D69F  E2880001           [443] call       35  2   2  
D6A3  D8080000           [444] test       35      0    ; to [446] if true
D6A7  1A000080           [445] jmp        1            ; to [447]
D6AB  99C80000           [446] loadk      34  3        ; 0
D6AF  CD480811           [447] sub        35  34  33 
fail op	33
D6B3  21C088B6           [448] tforloop   0       35   ; to [450] if exit
D6B7  1A400080           [449] jmp        2            ; to [452]
D6BB  19C91B00           [450] loadk      36  111      ; "/Lotus/Language/Menu/SocialOverlay_PVP_RankTooHigh"
D6BF  1E090001           [451] return     36  2      
D6C3  1D490500           [452] getglobal  36  21       ; _G
D6C7  0E894512           [453] gettable   36  36  278  ; "StalkerMode"
D6CB  18090000           [454] test       36      0    ; to [456] if true
D6CF  1A800A80           [455] jmp        43           ; to [499]
D6D3  2489C406           [456] self       36  13  274  ; -348174914
D6D7  22890001           [457] call       36  2   2  
D6DB  0E095C12           [458] gettable   36  36  368  ; "hasStarted"
D6DF  18090000           [459] test       36      0    ; to [461] if true
D6E3  1AC00880           [460] jmp        36           ; to [497]
D6E7  13090000           [461] getupval   36  0      
D6EB  0E095A12           [462] gettable   36  36  360  ; -323475314
D6EF  52090007           [463] move       37  14     
D6F3  22890001           [464] call       36  2   2  
D6F7  18490000           [465] test       36      1    ; to [467] if false
D6FB  1A400780           [466] jmp        30           ; to [497]
D6FF  13090000           [467] getupval   36  0      
D703  0E094E12           [468] gettable   36  36  312  ; 1309233650
D707  52090007           [469] move       37  14     
D70B  22890001           [470] call       36  2   2  
D70F  18490000           [471] test       36      1    ; to [473] if false
D713  1AC00580           [472] jmp        24           ; to [497]
D717  13090000           [473] getupval   36  0      
D71B  0E495C12           [474] gettable   36  36  369  ; 2031790704
D71F  52090007           [475] move       37  14     
D723  22890001           [476] call       36  2   2  
D727  18490000           [477] test       36      1    ; to [479] if false
D72B  1A400480           [478] jmp        18           ; to [497]
D72F  13090000           [479] getupval   36  0      
D733  0E895C12           [480] gettable   36  36  370  ; -1311267214
D737  52090007           [481] move       37  14     
D73B  22890001           [482] call       36  2   2  
D73F  18490000           [483] test       36      1    ; to [485] if false
D743  1AC00280           [484] jmp        12           ; to [497]
D747  13090000           [485] getupval   36  0      
D74B  0EC95C12           [486] gettable   36  36  371  ; 2092632685
D74F  52090007           [487] move       37  14     
D753  22890001           [488] call       36  2   2  
D757  18490000           [489] test       36      1    ; to [491] if false
D75B  1A400180           [490] jmp        6            ; to [497]
D75F  13090000           [491] getupval   36  0      
D763  0E095D12           [492] gettable   36  36  372  ; -1494081246
D767  52090007           [493] move       37  14     
D76B  22890001           [494] call       36  2   2  
D76F  18090000           [495] test       36      0    ; to [497] if true
D773  1A400080           [496] jmp        2            ; to [499]
D777  19890200           [497] loadk      36  10       ; "/Lotus/Language/Menu/SocialOverlay_SessionJoinFail"
D77B  1E090001           [498] return     36  2      
D77F  5E030001           [499] return     13  2      
D783  1E008000           [500] return     0   1      
                         * constants:
D787  75                 sizek (117)
D788  04                 const type 4
D789  11                 string size (17)
D78A  674D61746368696E+  "gMatchin"
D792  6753657276696365+  "gService"
D79A  00                 "\0"
                         const [0]: "gMatchingService"
D79B  01                 const type 3
D79C  0091849A           const [1]: (-1702588160)
D7A0  04                 const type 4
D7A1  06                 string size (6)
D7A2  66616C736500       "false\0"
                         const [2]: "false"
D7A8  03                 const type 3
D7A9  00000000           const [3]: (0)
D7AD  04                 const type 4
D7AE  03                 string size (3)
D7AF  5F5400             "_T\0"
                         const [4]: "_T"
D7B2  04                 const type 4
D7B3  15                 string size (21)
D7B4  4D61646550726F6A+  "MadeProj"
D7BC  656374696F6E4368+  "ectionCh"
D7C4  6F69636500         "oice\0"
                         const [5]: "MadeProjectionChoice"
D7C9  01                 const type 3
D7CA  00000000           const [6]: (0)
D7CE  04                 const type 4
D7CF  10                 string size (16)
D7D0  4D61646557616765+  "MadeWage"
D7D8  7243686F69636500   "rChoice\0"
                         const [7]: "MadeWagerChoice"
D7E0  04                 const type 4
D7E1  01                 string size (0)
                         const [8]: ""
D7E3  01                 const type 3
D7E4  571C8F92           const [9]: (-1836114857)
D7E8  04                 const type 4
D7E9  33                 string size (51)
D7EA  2F4C6F7475732F4C+  "/Lotus/L"
D7F2  616E67756167652F+  "anguage/"
D7FA  4D656E752F536F63+  "Menu/Soc"
D802  69616C4F7665726C+  "ialOverl"
D80A  61795F5365737369+  "ay_Sessi"
D812  6F6E4A6F696E4661+  "onJoinFa"
D81A  696C00             "il\0"
                         const [10]: "/Lotus/Language/Menu/SocialOverlay_SessionJoinFail"
D81D  04                 const type 4
D81E  12                 string size (18)
D81F  67506C6179657250+  "gPlayerP"
D827  726F66696C654D67+  "rofileMg"
D82F  7200               "r\0"
                         const [11]: "gPlayerProfileMgr"
D831  01                 const type 3
D832  1A7BEF21           const [12]: (569342746)
D836  01                 const type 3
D837  65770E40           const [13]: (1074689893)
D83B  01                 const type 3
D83C  C33CD832           const [14]: (853032131)
D840  04                 const type 4
D841  25                 string size (37)
D842  2F4C616E67756167+  "/Languag"
D84A  652F4D656E752F53+  "e/Menu/S"
D852  69676E496E4D6573+  "ignInMes"
D85A  73616765426F7854+  "sageBoxT"
D862  69746C6500         "itle\0"
                         const [15]: "/Language/Menu/SignInMessageBoxTitle"
D867  01                 const type 3
D868  92104F65           const [16]: (1699680402)
D86C  03                 const type 3
D86D  0000803F           const [17]: (0)
D871  01                 const type 3
D872  BE453FEB           const [18]: (-348174914)
D876  04                 const type 4
D877  0B                 string size (11)
D878  67616D654D6F6465+  "gameMode"
D880  496400             "Id\0"
                         const [19]: "gameModeId"
D883  01                 const type 3
D884  AF24C4B2           const [20]: (-1295768401)
D888  04                 const type 4
D889  03                 string size (3)
D88A  5F4700             "_G\0"
                         const [21]: "_G"
D88D  04                 const type 4
D88E  0C                 string size (12)
D88F  5374616C6B65724D+  "StalkerM"
D897  6F646500           "ode\0"
                         const [22]: "StalkerMode"
D89B  04                 const type 4
D89C  2F                 string size (47)
D89D  2F4C6F7475732F4C+  "/Lotus/L"
D8A5  616E67756167652F+  "anguage/"
D8AD  4D656E752F536F63+  "Menu/Soc"
D8B5  69616C4F7665726C+  "ialOverl"
D8BD  61795F5365737369+  "ay_Sessi"
D8C5  6F6E46756C6C00     "onFull\0"
                         const [23]: "/Lotus/Language/Menu/SocialOverlay_SessionFull"
D8CC  00                 const type 0
                         const [24]: nil
D8CD  03                 const type 3
D8CE  00007F43           const [25]: (0)
D8D2  01                 const type 3
D8D3  0336B754           const [26]: (1421293059)
D8D7  04                 const type 4
D8D8  2C                 string size (44)
D8D9  2F4C6F7475732F4C+  "/Lotus/L"
D8E1  616E67756167652F+  "anguage/"
D8E9  4D656E752F536F63+  "Menu/Soc"
D8F1  69616C4F7665726C+  "ialOverl"
D8F9  61795F5465616D46+  "ay_TeamF"
D901  756C6C00           "ull\0"
                         const [27]: "/Lotus/Language/Menu/SocialOverlay_TeamFull"
D905  04                 const type 4
D906  09                 string size (9)
D907  726567696F6E4964+  "regionId"
D90F  00                 "\0"
                         const [28]: "regionId"
D910  04                 const type 4
D911  07                 string size (7)
D912  456E67696E6500     "Engine\0"
                         const [29]: "Engine"
D919  04                 const type 4
D91A  07                 string size (7)
D91B  4C4F434B454400     "LOCKED\0"
                         const [30]: "LOCKED"
D922  04                 const type 4
D923  31                 string size (49)
D924  2F4C6F7475732F4C+  "/Lotus/L"
D92C  616E67756167652F+  "anguage/"
D934  4D656E752F536F63+  "Menu/Soc"
D93C  69616C4F7665726C+  "ialOverl"
D944  61795F5365737369+  "ay_Sessi"
D94C  6F6E4C6F636B6564+  "onLocked"
D954  00                 "\0"
                         const [31]: "/Lotus/Language/Menu/SocialOverlay_SessionLocked"
D955  01                 const type 3
D956  2D9F118F           const [32]: (-1894670547)
D95A  04                 const type 4
D95B  32                 string size (50)
D95C  2F4C6F7475732F4C+  "/Lotus/L"
D964  616E67756167652F+  "anguage/"
D96C  4D656E752F536F63+  "Menu/Soc"
D974  69616C4F7665726C+  "ialOverl"
D97C  61795F5365737369+  "ay_Sessi"
D984  6F6E457870697265+  "onExpire"
D98C  6400               "d\0"
                         const [33]: "/Lotus/Language/Menu/SocialOverlay_SessionExpired"
D98E  04                 const type 4
D98F  0C                 string size (12)
D990  6747616D65436F6E+  "gGameCon"
D998  66696700           "fig\0"
                         const [34]: "gGameConfig"
D99C  01                 const type 3
D99D  4339E589           const [35]: (-1981466301)
D9A1  04                 const type 4
D9A2  36                 string size (54)
D9A3  2F4C6F7475732F4C+  "/Lotus/L"
D9AB  616E67756167652F+  "anguage/"
D9B3  4D656E752F4D6169+  "Menu/Mai"
D9BB  6E4D656E755F4E65+  "nMenu_Ne"
D9C3  774275696C644D69+  "wBuildMi"
D9CB  7373696F6E73426C+  "ssionsBl"
D9D3  6F636B656400       "ocked\0"
                         const [36]: "/Lotus/Language/Menu/MainMenu_NewBuildMissionsBlocked"
D9D9  01                 const type 3
D9DA  809A8215           const [37]: (360880768)
D9DE  04                 const type 4
D9DF  37                 string size (55)
D9E0  2F4C6F7475732F4C+  "/Lotus/L"
D9E8  616E67756167652F+  "anguage/"
D9F0  4D656E752F4D6169+  "Menu/Mai"
D9F8  6E4D656E755F4275+  "nMenu_Bu"
DA00  675265706F72744D+  "gReportM"
DA08  697373696F6E7342+  "issionsB"
DA10  6C6F636B656400     "locked\0"
                         const [38]: "/Lotus/Language/Menu/MainMenu_BugReportMissionsBlocked"
DA17  01                 const type 3
DA18  220814BF           const [39]: (-1089206238)
DA1C  01                 const type 3
DA1D  805D40C7           const [40]: (-952083072)
DA21  04                 const type 4
DA22  34                 string size (52)
DA23  2F4C6F7475732F4C+  "/Lotus/L"
DA2B  616E67756167652F+  "anguage/"
DA33  4D656E752F536F63+  "Menu/Soc"
DA3B  69616C4F7665726C+  "ialOverl"
DA43  61795F5365737369+  "ay_Sessi"
DA4B  6F6E537472696374+  "onStrict"
DA53  4E415400           "NAT\0"
                         const [41]: "/Lotus/Language/Menu/SocialOverlay_SessionStrictNAT"
DA57  01                 const type 3
DA58  0147A83C           const [42]: (1017661185)
DA5C  01                 const type 3
DA5D  275CC567           const [43]: (1740987431)
DA61  01                 const type 3
DA62  22AD6A3C           const [44]: (1013624098)
DA66  04                 const type 4
DA67  27                 string size (39)
DA68  2F4C6F7475732F4C+  "/Lotus/L"
DA70  616E67756167652F+  "anguage/"
DA78  4D656E752F4B7562+  "Menu/Kub"
DA80  726F774C6F636B65+  "rowLocke"
DA88  645F4275737900     "d_Busy\0"
                         const [45]: "/Lotus/Language/Menu/KubrowLocked_Busy"
DA8F  04                 const type 4
DA90  12                 string size (18)
DA91  6F726967696E616C+  "original"
DA99  53657373696F6E49+  "SessionI"
DAA1  6400               "d\0"
                         const [46]: "originalSessionId"
DAA3  01                 const type 3
DAA4  65397915           const [47]: (360266085)
DAA8  01                 const type 3
DAA9  6E556060           const [48]: (1616926062)
DAAD  04                 const type 4
DAAE  33                 string size (51)
DAAF  2F4C6F7475732F4C+  "/Lotus/L"
DAB7  616E67756167652F+  "anguage/"
DABF  4D656E752F536F63+  "Menu/Soc"
DAC7  69616C4F7665726C+  "ialOverl"
DACF  61795F446F6A6F4B+  "ay_DojoK"
DAD7  6579526571756972+  "eyRequir"
DADF  656400             "ed\0"
                         const [49]: "/Lotus/Language/Menu/SocialOverlay_DojoKeyRequired"
DAE2  04                 const type 4
DAE3  39                 string size (57)
DAE4  2F4C6F7475732F4C+  "/Lotus/L"
DAEC  616E67756167652F+  "anguage/"
DAF4  4D656E752F536F63+  "Menu/Soc"
DAFC  69616C4F7665726C+  "ialOverl"
DB04  61795F5365737369+  "ay_Sessi"
DB0C  6F6E526571756972+  "onRequir"
DB14  6573496E76697465+  "esInvite"
DB1C  00                 "\0"
                         const [50]: "/Lotus/Language/Menu/SocialOverlay_SessionRequiresInvite"
DB1D  01                 const type 3
DB1E  82B6492F           const [51]: (793360002)
DB22  04                 const type 4
DB23  22                 string size (34)
DB24  2F4C6F7475732F4C+  "/Lotus/L"
DB2C  616E67756167652F+  "anguage/"
DB34  4D656E752F536572+  "Menu/Ser"
DB3C  766572497346756C+  "verIsFul"
DB44  6C00               "l\0"
                         const [52]: "/Lotus/Language/Menu/ServerIsFull"
DB46  04                 const type 4
DB47  0C                 string size (12)
DB48  494E564954455F4F+  "INVITE_O"
DB50  4E4C5900           "NLY\0"
                         const [53]: "INVITE_ONLY"
DB54  01                 const type 3
DB55  F2AC3ABB           const [54]: (-1153782542)
DB59  01                 const type 3
DB5A  02A508DF           const [55]: (-553081598)
DB5E  01                 const type 3
DB5F  F251094E           const [56]: (1309233650)
DB63  04                 const type 4
DB64  0B                 string size (11)
DB65  6747616D6552756C+  "gGameRul"
DB6D  657300             "es\0"
                         const [57]: "gGameRules"
DB70  01                 const type 3
DB71  D48E598B           const [58]: (-1957065004)
DB75  04                 const type 4
DB76  17                 string size (23)
DB77  674C6F7475734875+  "gLotusHu"
DB7F  6247616D6552756C+  "bGameRul"
DB87  65735479706500     "esType\0"
                         const [59]: "gLotusHubGameRulesType"
DB8E  01                 const type 3
DB8F  50576481           const [60]: (-2124130480)
DB93  04                 const type 4
DB94  0A                 string size (10)
DB95  5472616465485542+  "TradeHUB"
DB9D  3100               "1\0"
                         const [61]: "TradeHUB1"
DB9F  01                 const type 3
DBA0  BCD6AE9F           const [62]: (-1615931716)
DBA4  01                 const type 3
DBA5  497363B8           const [63]: (-1201441975)
DBA9  04                 const type 4
DBAA  09                 string size (9)
DBAB  6C6F636174696F6E+  "location"
DBB3  00                 "\0"
                         const [64]: "location"
DBB4  04                 const type 4
DBB5  2D                 string size (45)
DBB6  2F4C6F7475732F4C+  "/Lotus/L"
DBBE  616E67756167652F+  "anguage/"
DBC6  4D656E752F4A6F69+  "Menu/Joi"
DBCE  6E4661696C5F5265+  "nFail_Re"
DBD6  6C617946726F6D52+  "layFromR"
DBDE  656C617900         "elay\0"
                         const [65]: "/Lotus/Language/Menu/JoinFail_RelayFromRelay"
DBE3  01                 const type 3
DBE4  E6236D00           const [66]: (7152614)
DBE8  04                 const type 4
DBE9  13                 string size (19)
DBEA  4143544956455F4D+  "ACTIVE_M"
DBF2  495353494F4E5F54+  "ISSION_T"
DBFA  414700             "AG\0"
                         const [67]: "ACTIVE_MISSION_TAG"
DBFD  01                 const type 3
DBFE  BB74F25F           const [68]: (1609725115)
DC02  04                 const type 4
DC03  10                 string size (16)
DC04  4261636B67726F75+  "Backgrou"
DC0C  6E644D6F76696500   "ndMovie\0"
                         const [69]: "BackgroundMovie"
DC14  01                 const type 3
DC15  A9278F45           const [70]: (1167009705)
DC19  04                 const type 4
DC1A  14                 string size (20)
DC1B  53686F77426C6F63+  "ShowBloc"
DC23  6B696E674D657373+  "kingMess"
DC2B  61676500           "age\0"
                         const [71]: "ShowBlockingMessage"
DC2F  04                 const type 4
DC30  02                 string size (2)
DC31  3000               "0\0"
                         const [72]: "0"
DC33  04                 const type 4
DC34  16                 string size (22)
DC35  564F49445F50524F+  "VOID_PRO"
DC3D  4A454354494F4E5F+  "JECTION_"
DC45  4954454D5300       "ITEMS\0"
                         const [73]: "VOID_PROJECTION_ITEMS"
DC4B  04                 const type 4
DC4C  07                 string size (7)
DC4D  566F6964543100     "VoidT1\0"
                         const [74]: "VoidT1"
DC54  01                 const type 3
DC55  1C410F3F           const [75]: (1057964316)
DC59  01                 const type 3
DC5A  868A0B2D           const [76]: (755731078)
DC5E  04                 const type 4
DC5F  10                 string size (16)
DC60  6D4163746976654D+  "mActiveM"
DC68  697373696F6E7300   "issions\0"
                         const [77]: "mActiveMissions"
DC70  04                 const type 4
DC71  06                 string size (6)
DC72  6D4E6F646500       "mNode\0"
                         const [78]: "mNode"
DC78  04                 const type 4
DC79  0A                 string size (10)
DC7A  6D4D6F6469666965+  "mModifie"
DC82  7200               "r\0"
                         const [79]: "mModifier"
DC84  01                 const type 3
DC85  A06BC9B9           const [80]: (-1177982048)
DC89  04                 const type 4
DC8A  11                 string size (17)
DC8B  5365744578636C75+  "SetExclu"
DC93  7369766554696572+  "siveTier"
DC9B  00                 "\0"
                         const [81]: "SetExclusiveTier"
DC9C  01                 const type 3
DC9D  3C2E251B           const [82]: (455421500)
DCA1  01                 const type 3
DCA2  EA911120           const [83]: (538022378)
DCA6  01                 const type 3
DCA7  5BF6934B           const [84]: (1267988059)
DCAB  01                 const type 3
DCAC  1A4B27EC           const [85]: (-332969190)
DCB0  04                 const type 4
DCB1  0C                 string size (12)
DCB2  6D697373696F6E54+  "missionT"
DCBA  79706500           "ype\0"
                         const [86]: "missionType"
DCBE  04                 const type 4
DCBF  0B                 string size (11)
DCC0  4C6F7475735F4761+  "Lotus_Ga"
DCC8  6D6500             "me\0"
                         const [87]: "Lotus_Game"
DCCB  04                 const type 4
DCCC  09                 string size (9)
DCCD  4D545F4152454E41+  "MT_ARENA"
DCD5  00                 "\0"
                         const [88]: "MT_ARENA"
DCD6  04                 const type 4
DCD7  08                 string size (8)
DCD8  66616374696F6E00   "faction\0"
                         const [89]: "faction"
DCE0  04                 const type 4
DCE1  0A                 string size (10)
DCE2  46435F434F525055+  "FC_CORPU"
DCEA  5300               "S\0"
                         const [90]: "FC_CORPUS"
DCEC  04                 const type 4
DCED  1E                 string size (30)
DCEE  536574536563746F+  "SetSecto"
DCF6  724E616D65416E64+  "rNameAnd"
DCFE  436C6F736543616C+  "CloseCal"
DD06  6C6261636B00       "lback\0"
                         const [91]: "SetSectorNameAndCloseCallback"
DD0C  01                 const type 3
DD0D  A261CD8E           const [92]: (-1899142750)
DD11  01                 const type 3
DD12  D40BDB05           const [93]: (98241492)
DD16  04                 const type 4
DD17  05                 string size (5)
DD18  7465787400         "text\0"
                         const [94]: "text"
DD1D  04                 const type 4
DD1E  0C                 string size (12)
DD1F  504C415945525F4E+  "PLAYER_N"
DD27  414D4500           "AME\0"
                         const [95]: "PLAYER_NAME"
DD2B  04                 const type 4
DD2C  07                 string size (7)
DD2D  706C6179657200     "player\0"
                         const [96]: "player"
DD34  04                 const type 4
DD35  06                 string size (6)
DD36  56414C554500       "VALUE\0"
                         const [97]: "VALUE"
DD3C  04                 const type 4
DD3D  06                 string size (6)
DD3E  76616C756500       "value\0"
                         const [98]: "value"
DD44  04                 const type 4
DD45  04                 string size (4)
DD46  4D494E00           "MIN\0"
                         const [99]: "MIN"
DD4A  04                 const type 4
DD4B  04                 string size (4)
DD4C  4D415800           "MAX\0"
                         const [100]: "MAX"
DD50  04                 const type 4
DD51  05                 string size (5)
DD52  4954454D00         "ITEM\0"
                         const [101]: "ITEM"
DD57  04                 const type 4
DD58  0F                 string size (15)
DD59  4C6F636B6564476F+  "LockedGo"
DD61  616C4C69737400     "alList\0"
                         const [102]: "LockedGoalList"
DD68  04                 const type 4
DD69  36                 string size (54)
DD6A  2F4C6F7475732F4C+  "/Lotus/L"
DD72  616E67756167652F+  "anguage/"
DD7A  4D656E752F536F63+  "Menu/Soc"
DD82  69616C4F7665726C+  "ialOverl"
DD8A  61795F4576656E74+  "ay_Event"
DD92  4D697373696F6E4C+  "MissionL"
DD9A  6F636B656400       "ocked\0"
                         const [103]: "/Lotus/Language/Menu/SocialOverlay_EventMissionLocked"
DDA0  01                 const type 3
DDA1  8E28B8EC           const [104]: (-323475314)
DDA5  04                 const type 4
DDA6  0A                 string size (10)
DDA7  67466C6173684D67+  "gFlashMg"
DDAF  7200               "r\0"
                         const [105]: "gFlashMgr"
DDB1  01                 const type 3
DDB2  53D08910           const [106]: (277467219)
DDB6  04                 const type 4
DDB7  16                 string size (22)
DDB8  4D756C7469706C61+  "Multipla"
DDC0  7965722E52616E6B+  "yer.Rank"
DDC8  656450565000       "edPVP\0"
                         const [107]: "Multiplayer.RankedPVP"
DDCE  04                 const type 4
DDCF  0A                 string size (10)
DDD0  656C6F526174696E+  "eloRatin"
DDD8  6700               "g\0"
                         const [108]: "eloRating"
DDDA  03                 const type 3
DDDB  00000040           const [109]: (0)
DDDF  01                 const type 3
DDE0  730C5606           const [110]: (106302579)
DDE4  04                 const type 4
DDE5  33                 string size (51)
DDE6  2F4C6F7475732F4C+  "/Lotus/L"
DDEE  616E67756167652F+  "anguage/"
DDF6  4D656E752F536F63+  "Menu/Soc"
DDFE  69616C4F7665726C+  "ialOverl"
DE06  61795F5056505F52+  "ay_PVP_R"
DE0E  616E6B546F6F4869+  "ankTooHi"
DE16  676800             "gh\0"
                         const [111]: "/Lotus/Language/Menu/SocialOverlay_PVP_RankTooHigh"
DE19  04                 const type 4
DE1A  0B                 string size (11)
DE1B  6861735374617274+  "hasStart"
DE23  656400             "ed\0"
                         const [112]: "hasStarted"
DE26  01                 const type 3
DE27  70AA1A79           const [113]: (2031790704)
DE2B  01                 const type 3
DE2C  72A6D7B1           const [114]: (-1311267214)
DE30  01                 const type 3
DE31  6D0ABB7C           const [115]: (2092632685)
DE35  01                 const type 3
DE36  2221F2A6           const [116]: (-1494081246)
                         * functions:
DE3A  00                 sizep (0)
                         * lines:
DE3C  03                 sizelineinfo (500)
                         [pc] (line)
DE3D  6C                 [001] (108)
DE3E  07                 [002] (108)
DE3F  00                 [003] (108)
DE40  00                 [004] (110)
DE41  6C                 [005] (110)
DE42  07                 [006] (110)
DE43  00                 [007] (110)
DE44  00                 [008] (110)
DE45  6C                 [009] (110)
DE46  07                 [010] (110)
DE47  00                 [011] (111)
DE48  00                 [012] (111)
DE49  6E                 [013] (113)
DE4A  07                 [014] (113)
DE4B  00                 [015] (114)
DE4C  00                 [016] (114)
DE4D  6E                 [017] (116)
DE4E  07                 [018] (116)
DE4F  00                 [019] (119)
DE50  00                 [020] (119)
DE51  6E                 [021] (119)
DE52  07                 [022] (120)
DE53  00                 [023] (120)
DE54  00                 [024] (122)
DE55  6E                 [025] (124)
DE56  07                 [026] (127)
DE57  00                 [027] (127)
DE58  00                 [028] (127)
DE59  6E                 [029] (127)
DE5A  07                 [030] (-128)
DE5B  00                 [031] (-128)
DE5C  00                 [032] (-128)
DE5D  6E                 [033] (-128)
DE5E  07                 [034] (-128)
DE5F  00                 [035] (-128)
DE60  00                 [036] (-128)
DE61  6E                 [037] (-128)
DE62  07                 [038] (-128)
DE63  00                 [039] (-128)
DE64  00                 [040] (-127)
DE65  6F                 [041] (-127)
DE66  07                 [042] (-124)
DE67  00                 [043] (-124)
DE68  00                 [044] (-122)
DE69  6F                 [045] (-120)
DE6A  07                 [046] (-120)
DE6B  00                 [047] (-120)
DE6C  00                 [048] (-116)
DE6D  71                 [049] (-116)
DE6E  07                 [050] (-116)
DE6F  00                 [051] (-116)
DE70  00                 [052] (-116)
DE71  71                 [053] (-116)
DE72  07                 [054] (-116)
DE73  00                 [055] (-116)
DE74  00                 [056] (-115)
DE75  72                 [057] (-115)
DE76  07                 [058] (-112)
DE77  00                 [059] (-112)
DE78  00                 [060] (-112)
DE79  72                 [061] (-112)
DE7A  07                 [062] (-112)
DE7B  00                 [063] (-112)
DE7C  00                 [064] (-112)
DE7D  74                 [065] (-112)
DE7E  07                 [066] (-112)
DE7F  00                 [067] (-111)
DE80  00                 [068] (-111)
DE81  74                 [069] (-108)
DE82  07                 [070] (-108)
DE83  00                 [071] (-108)
DE84  00                 [072] (-108)
DE85  77                 [073] (-108)
DE86  07                 [074] (-108)
DE87  00                 [075] (-108)
DE88  00                 [076] (-108)
DE89  77                 [077] (-108)
DE8A  07                 [078] (-107)
DE8B  00                 [079] (-107)
DE8C  00                 [080] (-104)
DE8D  77                 [081] (-104)
DE8E  07                 [082] (-104)
DE8F  00                 [083] (-104)
DE90  00                 [084] (-104)
DE91  78                 [085] (-104)
DE92  07                 [086] (-103)
DE93  00                 [087] (-103)
DE94  00                 [088] (-100)
DE95  78                 [089] (-100)
DE96  07                 [090] (-100)
DE97  00                 [091] (-100)
DE98  00                 [092] (-100)
DE99  7A                 [093] (-99)
DE9A  07                 [094] (-99)
DE9B  00                 [095] (-96)
DE9C  00                 [096] (-96)
DE9D  7C                 [097] (-96)
DE9E  07                 [098] (-96)
DE9F  00                 [099] (-96)
DEA0  00                 [100] (-95)
DEA1  7F                 [101] (-95)
DEA2  07                 [102] (-92)
DEA3  00                 [103] (-92)
DEA4  00                 [104] (-92)
DEA5  7F                 [105] (-92)
DEA6  07                 [106] (-92)
DEA7  00                 [107] (-92)
DEA8  00                 [108] (-92)
DEA9  7F                 [109] (-91)
DEAA  07                 [110] (-91)
DEAB  00                 [111] (-88)
DEAC  00                 [112] (-88)
DEAD  7F                 [113] (-88)
DEAE  07                 [114] (-88)
DEAF  00                 [115] (-88)
DEB0  00                 [116] (-88)
DEB1  80                 [117] (-88)
DEB2  07                 [118] (-88)
DEB3  00                 [119] (-88)
DEB4  00                 [120] (-88)
DEB5  80                 [121] (-87)
DEB6  07                 [122] (-87)
DEB7  00                 [123] (-87)
DEB8  00                 [124] (-87)
DEB9  80                 [125] (-86)
DEBA  07                 [126] (-86)
DEBB  00                 [127] (-84)
DEBC  00                 [128] (-84)
DEBD  80                 [129] (-84)
DEBE  07                 [130] (-83)
DEBF  00                 [131] (-83)
DEC0  00                 [132] (-83)
DEC1  80                 [133] (-83)
DEC2  07                 [134] (-83)
DEC3  00                 [135] (-83)
DEC4  00                 [136] (-81)
DEC5  80                 [137] (-81)
DEC6  07                 [138] (-81)
DEC7  00                 [139] (-81)
DEC8  00                 [140] (-80)
DEC9  80                 [141] (-80)
DECA  07                 [142] (-79)
DECB  00                 [143] (-78)
DECC  00                 [144] (-78)
DECD  80                 [145] (-76)
DECE  07                 [146] (-76)
DECF  00                 [147] (-72)
DED0  00                 [148] (-72)
DED1  80                 [149] (-72)
DED2  07                 [150] (-72)
DED3  00                 [151] (-72)
DED4  00                 [152] (-72)
DED5  80                 [153] (-71)
DED6  07                 [154] (-71)
DED7  00                 [155] (-68)
DED8  00                 [156] (-68)
DED9  81                 [157] (-68)
DEDA  07                 [158] (-68)
DEDB  00                 [159] (-68)
DEDC  00                 [160] (-68)
DEDD  81                 [161] (-68)
DEDE  07                 [162] (-68)
DEDF  00                 [163] (-68)
DEE0  00                 [164] (-68)
DEE1  84                 [165] (-68)
DEE2  07                 [166] (-67)
DEE3  00                 [167] (-67)
DEE4  00                 [168] (-64)
DEE5  84                 [169] (-64)
DEE6  07                 [170] (-64)
DEE7  00                 [171] (-63)
DEE8  00                 [172] (-63)
DEE9  86                 [173] (-63)
DEEA  07                 [174] (-63)
DEEB  00                 [175] (-62)
DEEC  00                 [176] (-62)
DEED  88                 [177] (-59)
DEEE  07                 [178] (-59)
DEEF  00                 [179] (-59)
DEF0  00                 [180] (-59)
DEF1  88                 [181] (-59)
DEF2  07                 [182] (-59)
DEF3  00                 [183] (-59)
DEF4  00                 [184] (-59)
DEF5  88                 [185] (-59)
DEF6  07                 [186] (-59)
DEF7  00                 [187] (-59)
DEF8  00                 [188] (-59)
DEF9  8C                 [189] (-58)
DEFA  07                 [190] (-58)
DEFB  00                 [191] (-58)
DEFC  00                 [192] (-58)
DEFD  8C                 [193] (-58)
DEFE  07                 [194] (-58)
DEFF  00                 [195] (-58)
DF00  00                 [196] (-57)
DF01  8C                 [197] (-57)
DF02  07                 [198] (-57)
DF03  00                 [199] (-57)
DF04  00                 [200] (-57)
DF05  8C                 [201] (-57)
DF06  07                 [202] (-57)
DF07  00                 [203] (-56)
DF08  00                 [204] (-56)
DF09  8C                 [205] (-56)
DF0A  07                 [206] (-56)
DF0B  00                 [207] (-56)
DF0C  00                 [208] (-56)
DF0D  8C                 [209] (-55)
DF0E  07                 [210] (-55)
DF0F  00                 [211] (-54)
DF10  00                 [212] (-54)
DF11  8C                 [213] (-49)
DF12  07                 [214] (-49)
DF13  00                 [215] (-49)
DF14  00                 [216] (-49)
DF15  8C                 [217] (-47)
DF16  07                 [218] (-47)
DF17  00                 [219] (-47)
DF18  00                 [220] (-47)
DF19  8D                 [221] (-47)
DF1A  07                 [222] (-47)
DF1B  00                 [223] (-46)
DF1C  00                 [224] (-46)
DF1D  8D                 [225] (-46)
DF1E  07                 [226] (-46)
DF1F  00                 [227] (-45)
DF20  00                 [228] (-45)
DF21  90                 [229] (-45)
DF22  07                 [230] (-43)
DF23  00                 [231] (-43)
DF24  00                 [232] (-43)
DF25  90                 [233] (-42)
DF26  07                 [234] (-42)
DF27  00                 [235] (-42)
DF28  00                 [236] (-42)
DF29  90                 [237] (-42)
DF2A  07                 [238] (-41)
DF2B  00                 [239] (-41)
DF2C  00                 [240] (-41)
DF2D  90                 [241] (-41)
DF2E  07                 [242] (-41)
DF2F  00                 [243] (-41)
DF30  00                 [244] (-38)
DF31  90                 [245] (-38)
DF32  07                 [246] (-38)
DF33  00                 [247] (-36)
DF34  00                 [248] (-36)
DF35  90                 [249] (-36)
DF36  07                 [250] (-36)
DF37  00                 [251] (-36)
DF38  00                 [252] (-36)
DF39  90                 [253] (-36)
DF3A  07                 [254] (-35)
DF3B  00                 [255] (-35)
DF3C  00                 [256] (-35)
DF3D  90                 [257] (-35)
DF3E  07                 [258] (-35)
DF3F  00                 [259] (-34)
DF40  00                 [260] (-34)
DF41  90                 [261] (-34)
DF42  07                 [262] (-34)
DF43  00                 [263] (-34)
DF44  00                 [264] (-33)
DF45  91                 [265] (-33)
DF46  07                 [266] (-33)
DF47  00                 [267] (-32)
DF48  00                 [268] (-29)
DF49  91                 [269] (-29)
DF4A  07                 [270] (-29)
DF4B  00                 [271] (-28)
DF4C  00                 [272] (-28)
DF4D  94                 [273] (-28)
DF4E  07                 [274] (-28)
DF4F  00                 [275] (-27)
DF50  00                 [276] (-27)
DF51  94                 [277] (-27)
DF52  07                 [278] (-27)
DF53  00                 [279] (-27)
DF54  00                 [280] (-27)
DF55  94                 [281] (-26)
DF56  07                 [282] (-26)
DF57  00                 [283] (-26)
DF58  00                 [284] (-26)
DF59  94                 [285] (-25)
DF5A  07                 [286] (-25)
DF5B  00                 [287] (-25)
DF5C  00                 [288] (-25)
DF5D  94                 [289] (-25)
DF5E  07                 [290] (-24)
DF5F  00                 [291] (-24)
DF60  00                 [292] (-24)
DF61  94                 [293] (-22)
DF62  07                 [294] (-28)
DF63  00                 [295] (-17)
DF64  00                 [296] (-17)
DF65  94                 [297] (-17)
DF66  07                 [298] (-17)
DF67  00                 [299] (-17)
DF68  00                 [300] (-17)
DF69  94                 [301] (-17)
DF6A  07                 [302] (-17)
DF6B  00                 [303] (-13)
DF6C  00                 [304] (-13)
DF6D  94                 [305] (-13)
DF6E  07                 [306] (-8)
DF6F  00                 [307] (-8)
DF70  00                 [308] (-5)
DF71  95                 [309] (-5)
DF72  07                 [310] (-5)
DF73  00                 [311] (-5)
DF74  00                 [312] (-5)
DF75  95                 [313] (-4)
DF76  07                 [314] (-4)
DF77  00                 [315] (-4)
DF78  00                 [316] (-4)
DF79  98                 [317] (-4)
DF7A  07                 [318] (-4)
DF7B  00                 [319] (-4)
DF7C  00                 [320] (-4)
DF7D  98                 [321] (-4)
DF7E  07                 [322] (-4)
DF7F  00                 [323] (-4)
DF80  00                 [324] (-4)
DF81  98                 [325] (-4)
DF82  07                 [326] (-4)
DF83  00                 [327] (-4)
DF84  00                 [328] (-3)
DF85  98                 [329] (-3)
DF86  07                 [330] (-3)
DF87  00                 [331] (-3)
DF88  00                 [332] (-2)
DF89  98                 [333] (-2)
DF8A  07                 [334] (-2)
DF8B  00                 [335] (-1)
DF8C  00                 [336] (-1)
DF8D  98                 [337] (-1)
DF8E  07                 [338] (-1)
DF8F  00                 [339] (-1)
DF90  00                 [340] (0)
DF91  99                 [341] (0)
DF92  07                 [342] (0)
DF93  00                 [343] (0)
DF94  00                 [344] (0)
DF95  99                 [345] (0)
DF96  07                 [346] (2)
DF97  00                 [347] (2)
DF98  00                 [348] (2)
DF99  9C                 [349] (2)
DF9A  07                 [350] (2)
DF9B  00                 [351] (4)
DF9C  00                 [352] (4)
DF9D  9C                 [353] (4)
DF9E  07                 [354] (4)
DF9F  00                 [355] (4)
DFA0  00                 [356] (4)
DFA1  9C                 [357] (4)
DFA2  07                 [358] (4)
DFA3  00                 [359] (4)
DFA4  00                 [360] (4)
DFA5  9C                 [361] (6)
DFA6  07                 [362] (6)
DFA7  00                 [363] (6)
DFA8  00                 [364] (12)
DFA9  9C                 [365] (12)
DFAA  07                 [366] (12)
DFAB  00                 [367] (15)
DFAC  00                 [368] (15)
DFAD  9D                 [369] (15)
DFAE  07                 [370] (15)
DFAF  00                 [371] (15)
DFB0  00                 [372] (17)
DFB1  9D                 [373] (17)
DFB2  07                 [374] (18)
DFB3  00                 [375] (18)
DFB4  00                 [376] (18)
DFB5  A0                 [377] (18)
DFB6  07                 [378] (18)
DFB7  00                 [379] (19)
DFB8  00                 [380] (19)
DFB9  A0                 [381] (19)
DFBA  07                 [382] (19)
DFBB  00                 [383] (19)
DFBC  00                 [384] (20)
DFBD  A0                 [385] (20)
DFBE  07                 [386] (21)
DFBF  00                 [387] (21)
DFC0  00                 [388] (21)
DFC1  A0                 [389] (21)
DFC2  07                 [390] (21)
DFC3  00                 [391] (21)
DFC4  00                 [392] (22)
DFC5  A0                 [393] (22)
DFC6  07                 [394] (22)
DFC7  00                 [395] (22)
DFC8  00                 [396] (22)
DFC9  A1                 [397] (22)
DFCA  07                 [398] (22)
DFCB  00                 [399] (22)
DFCC  00                 [400] (22)
DFCD  A1                 [401] (22)
DFCE  07                 [402] (22)
DFCF  00                 [403] (22)
DFD0  00                 [404] (22)
DFD1  A4                 [405] (22)
DFD2  07                 [406] (22)
DFD3  00                 [407] (22)
DFD4  00                 [408] (22)
DFD5  A4                 [409] (22)
DFD6  07                 [410] (22)
DFD7  00                 [411] (24)
DFD8  00                 [412] (24)
DFD9  A4                 [413] (29)
DFDA  07                 [414] (29)
DFDB  00                 [415] (29)
DFDC  00                 [416] (29)
DFDD  A4                 [417] (29)
DFDE  07                 [418] (29)
DFDF  00                 [419] (29)
DFE0  00                 [420] (29)
DFE1  A4                 [421] (29)
DFE2  07                 [422] (30)
DFE3  00                 [423] (30)
DFE4  00                 [424] (33)
DFE5  A4                 [425] (33)
DFE6  07                 [426] (33)
DFE7  00                 [427] (33)
DFE8  00                 [428] (33)
DFE9  A4                 [429] (33)
DFEA  07                 [430] (33)
DFEB  00                 [431] (33)
DFEC  00                 [432] (33)
DFED  A5                 [433] (33)
DFEE  07                 [434] (33)
DFEF  00                 [435] (33)
DFF0  00                 [436] (34)
DFF1  A5                 [437] (34)
DFF2  07                 [438] (34)
DFF3  00                 [439] (35)
DFF4  00                 [440] (36)
DFF5  A8                 [441] (36)
DFF6  07                 [442] (36)
DFF7  00                 [443] (36)
DFF8  00                 [444] (36)
DFF9  A8                 [445] (36)
DFFA  07                 [446] (37)
DFFB  00                 [447] (40)
DFFC  00                 [448] (41)
DFFD  A8                 [449] (41)
DFFE  07                 [450] (42)
DFFF  00                 [451] (42)
E000  00                 [452] (46)
E001  A8                 [453] (46)
E002  07                 [454] (46)
E003  00                 [455] (46)
E004  00                 [456] (46)
E005  A8                 [457] (46)
E006  07                 [458] (46)
E007  00                 [459] (46)
E008  00                 [460] (46)
E009  A8                 [461] (46)
E00A  07                 [462] (46)
E00B  00                 [463] (46)
E00C  00                 [464] (46)
E00D  A8                 [465] (46)
E00E  07                 [466] (46)
E00F  00                 [467] (46)
E010  00                 [468] (46)
E011  A8                 [469] (46)
E012  07                 [470] (46)
E013  00                 [471] (46)
E014  00                 [472] (46)
E015  A8                 [473] (46)
E016  07                 [474] (46)
E017  00                 [475] (46)
E018  00                 [476] (46)
E019  A8                 [477] (46)
E01A  07                 [478] (46)
E01B  00                 [479] (46)
E01C  00                 [480] (46)
E01D  A9                 [481] (46)
E01E  07                 [482] (46)
E01F  00                 [483] (46)
E020  00                 [484] (46)
E021  A9                 [485] (46)
E022  07                 [486] (46)
E023  00                 [487] (46)
E024  00                 [488] (46)
E025  A9                 [489] (46)
E026  07                 [490] (46)
E027  00                 [491] (46)
E028  00                 [492] (46)
E029  A9                 [493] (46)
E02A  07                 [494] (46)
E02B  00                 [495] (46)
E02C  00                 [496] (46)
E02D  AA                 [497] (47)
E02E  07                 [498] (47)
E02F  00                 [499] (50)
E030  00                 [500] (51)
                         * locals:
E60D  00                 sizelocvars (0)
                         * upvalues:
E60E  00                 sizeupvalues (0)
                         ** end of function **

                         
E60F                     ** function [58] definition (level 2)
                         ** start of function **
E60F  00                 string size (0)
                         source name: (none)
E611  10                 line defined (2101)
E612  C4                 last line defined (2116)
E613  10                 nups (1)
E614  01                 numparams (1)
E615  01                 is_vararg (0)
E616  00                 maxstacksize (7)
                         * code:
E618  27                 sizecode (39)
E619  5D000000           [01] getglobal  1   0        ; -1817107093
E61D  99400000           [02] loadk      2   1        ; "ResetSquadMission"
E621  62400001           [03] call       1   2   1  
E625  18400000           [04] test       0       1    ; to [6] if false
E629  1A000780           [05] jmp        29           ; to [35]
E62D  5D800000           [06] getglobal  1   2        ; cjson
E631  4EC0C000           [07] gettable   1   1   259  ; -1976663275
E635  9D000100           [08] getglobal  2   4        ; gMatchingService
E639  A4404101           [09] self       2   2   261  ; -142036619
E63D  A2000001           [10] call       2   2   0  
E641  62800000           [11] call       1   0   2  
fail op	35
E645  6380C100           [12] close      1  
E649  1A000580           [13] jmp        21           ; to [35]
E64D  8EC0C100           [14] gettable   2   1   263  ; "jobLevelGenerationSeed"
fail op	35
E651  63804101           [15] close      1  
E655  1A400480           [16] jmp        18           ; to [35]
E659  93000000           [17] getupval   2   0      
E65D  8E004201           [18] gettable   2   2   264  ; -2065906648
E661  A2808000           [19] call       2   1   2  
E665  D3000000           [20] getupval   3   0      
E669  CE40C201           [21] gettable   3   3   265  ; "UI_MODE_IN_GAME"
fail op	35
E66D  23C00001           [22] close      0  
E671  1A800280           [23] jmp        11           ; to [35]
E675  8B400000           [24] newtable   2   0   1    ; array=0, hash=1
E679  CEC0C100           [25] gettable   3   1   263  ; "jobLevelGenerationSeed"
E67D  8CC08083           [26] settable   2   263 3    ; "jobLevelGenerationSeed"
E681  DD000100           [27] getglobal  3   4        ; gMatchingService
E685  E480C201           [28] self       3   3   266  ; 806752606
E689  5D810000           [29] getglobal  5   2        ; cjson
E68D  4EC1C202           [30] gettable   5   5   267  ; -1916729509
E691  92010001           [31] move       6   2      
E695  62010001           [32] call       5   2   0  
E699  E2400000           [33] call       3   0   1  
E69D  1E008000           [34] return     0   1      
E6A1  DD000100           [35] getglobal  3   4        ; gMatchingService
E6A5  E480C201           [36] self       3   3   266  ; 806752606
E6A9  59010300           [37] loadk      5   12       ; ""
E6AD  E2408001           [38] call       3   3   1  
E6B1  1E008000           [39] return     0   1      
                         * constants:
E6B5  0D                 sizek (13)
E6B6  01                 const type 3
E6B7  6B25B193           const [0]: (-1817107093)
E6BB  04                 const type 4
E6BC  12                 string size (18)
E6BD  5265736574537175+  "ResetSqu"
E6C5  61644D697373696F+  "adMissio"
E6CD  6E00               "n\0"
                         const [1]: "ResetSquadMission"
E6CF  04                 const type 4
E6D0  06                 string size (6)
E6D1  636A736F6E00       "cjson\0"
                         const [2]: "cjson"
E6D7  01                 const type 3
E6D8  15832E8A           const [3]: (-1976663275)
E6DC  04                 const type 4
E6DD  11                 string size (17)
E6DE  674D61746368696E+  "gMatchin"
E6E6  6753657276696365+  "gService"
E6EE  00                 "\0"
                         const [4]: "gMatchingService"
E6EF  01                 const type 3
E6F0  75B188F7           const [5]: (-142036619)
E6F4  00                 const type 0
                         const [6]: nil
E6F5  04                 const type 4
E6F6  17                 string size (23)
E6F7  6A6F624C6576656C+  "jobLevel"
E6FF  47656E6572617469+  "Generati"
E707  6F6E5365656400     "onSeed\0"
                         const [7]: "jobLevelGenerationSeed"
E70E  01                 const type 3
E70F  28C4DC84           const [8]: (-2065906648)
E713  04                 const type 4
E714  10                 string size (16)
E715  55495F4D4F44455F+  "UI_MODE_"
E71D  494E5F47414D4500   "IN_GAME\0"
                         const [9]: "UI_MODE_IN_GAME"
E725  01                 const type 3
E726  5E111630           const [10]: (806752606)
E72A  01                 const type 3
E72B  5B07C18D           const [11]: (-1916729509)
E72F  04                 const type 4
E730  01                 string size (0)
                         const [12]: ""
                         * functions:
E732  00                 sizep (0)
                         * lines:
E733  27                 sizelineinfo (39)
                         [pc] (line)
E734  36                 [01] (54)
E735  08                 [02] (54)
E736  00                 [03] (54)
E737  00                 [04] (56)
E738  36                 [05] (56)
E739  08                 [06] (57)
E73A  00                 [07] (57)
E73B  00                 [08] (57)
E73C  36                 [09] (57)
E73D  08                 [10] (57)
E73E  00                 [11] (57)
E73F  00                 [12] (58)
E740  38                 [13] (58)
E741  08                 [14] (58)
E742  00                 [15] (58)
E743  00                 [16] (58)
E744  38                 [17] (58)
E745  08                 [18] (58)
E746  00                 [19] (58)
E747  00                 [20] (58)
E748  39                 [21] (58)
E749  08                 [22] (58)
E74A  00                 [23] (58)
E74B  00                 [24] (60)
E74C  39                 [25] (60)
E74D  08                 [26] (60)
E74E  00                 [27] (61)
E74F  00                 [28] (61)
E750  39                 [29] (61)
E751  08                 [30] (61)
E752  00                 [31] (61)
E753  00                 [32] (61)
E754  39                 [33] (61)
E755  08                 [34] (63)
E756  00                 [35] (67)
E757  00                 [36] (67)
E758  39                 [37] (67)
E759  08                 [38] (67)
E75A  00                 [39] (68)
                         * locals:
E7D0  00                 sizelocvars (0)
                         * upvalues:
E7D1  00                 sizeupvalues (0)
                         ** end of function **

                         
E7D2                     ** function [59] definition (level 2)
                         ** start of function **
E7D2  00                 string size (0)
                         source name: (none)
E7D4  10                 line defined (2118)
E7D5  DB                 last line defined (2139)
E7D6  10                 nups (1)
E7D7  01                 numparams (0)
E7D8  00                 is_vararg (0)
E7D9  00                 maxstacksize (7)
                         * code:
E7DB  3F                 sizecode (63)
E7DC  1D000000           [01] getglobal  0   0        ; gMatchingService
E7E0  24404000           [02] self       0   0   257  ; -142036619
E7E4  22800001           [03] call       0   2   2  
E7E8  53000000           [04] getupval   1   0      
E7EC  4E80C000           [05] gettable   1   1   258  ; -2065906648
E7F0  62808000           [06] call       1   1   2  
fail op	35
E7F4  63C04000           [07] close      1  
E7F8  1A800180           [08] jmp        7            ; to [16]
E7FC  9D000100           [09] getglobal  2   4        ; cjson
E800  8E404101           [10] gettable   2   2   261  ; -1976663275
E804  D2000000           [11] move       3   0      
E808  A2800001           [12] call       2   2   2  
E80C  8E804101           [13] gettable   2   2   262  ; "name"
fail op	35
E810  23C04101           [14] close      0  
E814  1A400B80           [15] jmp        46           ; to [62]
E818  93000000           [16] getupval   2   0      
E81C  8E004201           [17] gettable   2   2   264  ; "UI_MODE_IN_SPACE_SHIP"
fail op	35
E820  63808000           [18] close      1  
E824  1A400A80           [19] jmp        42           ; to [62]
E828  9D400200           [20] getglobal  2   9        ; 1074689893
E82C  DD800200           [21] getglobal  3   10       ; gGameRules
E830  A2800001           [22] call       2   2   2  
E834  98400000           [23] test       2       1    ; to [25] if false
E838  1A000980           [24] jmp        37           ; to [62]
E83C  9D800200           [25] getglobal  2   10       ; gGameRules
E840  A4C04201           [26] self       2   2   267  ; -1201441975
E844  A2800001           [27] call       2   2   2  
E848  D9C00000           [28] loadk      3   3        ; ""
E84C  13010000           [29] getupval   4   0      
E850  0E014302           [30] gettable   4   4   268  ; "UI_MODE_IN_SPACE_HUB"
fail op	35
E854  63008100           [31] close      1  
E858  1AC00080           [32] jmp        4            ; to [37]
E85C  13010000           [33] getupval   4   0      
E860  0E414302           [34] gettable   4   4   269  ; "UI_MODE_IN_DOJO"
fail op	35
E864  23008100           [35] close      0  
E868  1A400180           [36] jmp        6            ; to [43]
E86C  1D810300           [37] getglobal  4   14       ; -1615931716
E870  4EC14301           [38] gettable   5   2   271  ; "location"
E874  22810001           [39] call       4   2   2  
E878  53010000           [40] getupval   5   0      
E87C  4E01C402           [41] gettable   5   5   272  ; "HUB_TAG"
E880  C2400102           [42] concat     3   4   5  
E884  13010000           [43] getupval   4   0      
E888  0E414402           [44] gettable   4   4   273  ; "UI_MODE_IN_GAME"
fail op	35
E88C  23008100           [45] close      0  
E890  1AC00080           [46] jmp        4            ; to [51]
E894  1D810300           [47] getglobal  4   14       ; -1615931716
E898  4EC14301           [48] gettable   5   2   271  ; "location"
E89C  22810001           [49] call       4   2   2  
E8A0  D2000002           [50] move       3   4      
E8A4  0BC10000           [51] newtable   4   0   3    ; array=0, hash=3
E8A8  0CC10083           [52] settable   4   262 3    ; "name"
E8AC  0CC14089           [53] settable   4   274 259  ; "quest" ""
E8B0  0CC1C089           [54] settable   4   275 259  ; "difficulty" ""
fail op	35
E8B4  63C0C001           [55] close      1  
E8B8  1A000180           [56] jmp        5            ; to [62]
E8BC  5D010100           [57] getglobal  5   4        ; cjson
E8C0  4E01C502           [58] gettable   5   5   276  ; -1916729509
E8C4  92010002           [59] move       6   4      
E8C8  62810001           [60] call       5   2   2  
E8CC  12008002           [61] move       0   5      
E8D0  1E000001           [62] return     0   2      
E8D4  1E008000           [63] return     0   1      
                         * constants:
E8D8  15                 sizek (21)
E8D9  04                 const type 4
E8DA  11                 string size (17)
E8DB  674D61746368696E+  "gMatchin"
E8E3  6753657276696365+  "gService"
E8EB  00                 "\0"
                         const [0]: "gMatchingService"
E8EC  01                 const type 3
E8ED  75B188F7           const [1]: (-142036619)
E8F1  01                 const type 3
E8F2  28C4DC84           const [2]: (-2065906648)
E8F6  04                 const type 4
E8F7  01                 string size (0)
                         const [3]: ""
E8F9  04                 const type 4
E8FA  06                 string size (6)
E8FB  636A736F6E00       "cjson\0"
                         const [4]: "cjson"
E901  01                 const type 3
E902  15832E8A           const [5]: (-1976663275)
E906  04                 const type 4
E907  05                 string size (5)
E908  6E616D6500         "name\0"
                         const [6]: "name"
E90D  00                 const type 0
                         const [7]: nil
E90E  04                 const type 4
E90F  16                 string size (22)
E910  55495F4D4F44455F+  "UI_MODE_"
E918  494E5F5350414345+  "IN_SPACE"
E920  5F5348495000       "_SHIP\0"
                         const [8]: "UI_MODE_IN_SPACE_SHIP"
E926  01                 const type 3
E927  65770E40           const [9]: (1074689893)
E92B  04                 const type 4
E92C  0B                 string size (11)
E92D  6747616D6552756C+  "gGameRul"
E935  657300             "es\0"
                         const [10]: "gGameRules"
E938  01                 const type 3
E939  497363B8           const [11]: (-1201441975)
E93D  04                 const type 4
E93E  15                 string size (21)
E93F  55495F4D4F44455F+  "UI_MODE_"
E947  494E5F5350414345+  "IN_SPACE"
E94F  5F48554200         "_HUB\0"
                         const [12]: "UI_MODE_IN_SPACE_HUB"
E954  04                 const type 4
E955  10                 string size (16)
E956  55495F4D4F44455F+  "UI_MODE_"
E95E  494E5F444F4A4F00   "IN_DOJO\0"
                         const [13]: "UI_MODE_IN_DOJO"
E966  01                 const type 3
E967  BCD6AE9F           const [14]: (-1615931716)
E96B  04                 const type 4
E96C  09                 string size (9)
E96D  6C6F636174696F6E+  "location"
E975  00                 "\0"
                         const [15]: "location"
E976  04                 const type 4
E977  08                 string size (8)
E978  4855425F54414700   "HUB_TAG\0"
                         const [16]: "HUB_TAG"
E980  04                 const type 4
E981  10                 string size (16)
E982  55495F4D4F44455F+  "UI_MODE_"
E98A  494E5F47414D4500   "IN_GAME\0"
                         const [17]: "UI_MODE_IN_GAME"
E992  04                 const type 4
E993  06                 string size (6)
E994  717565737400       "quest\0"
                         const [18]: "quest"
E99A  04                 const type 4
E99B  0B                 string size (11)
E99C  646966666963756C+  "difficul"
E9A4  747900             "ty\0"
                         const [19]: "difficulty"
E9A7  01                 const type 3
E9A8  5B07C18D           const [20]: (-1916729509)
                         * functions:
E9AC  00                 sizep (0)
                         * lines:
E9AD  3F                 sizelineinfo (63)
                         [pc] (line)
E9AE  48                 [01] (72)
E9AF  08                 [02] (72)
E9B0  00                 [03] (72)
E9B1  00                 [04] (73)
E9B2  48                 [05] (73)
E9B3  08                 [06] (73)
E9B4  00                 [07] (74)
E9B5  00                 [08] (74)
E9B6  48                 [09] (74)
E9B7  08                 [10] (74)
E9B8  00                 [11] (74)
E9B9  00                 [12] (74)
E9BA  49                 [13] (74)
E9BB  08                 [14] (74)
E9BC  00                 [15] (74)
E9BD  00                 [16] (74)
E9BE  49                 [17] (74)
E9BF  08                 [18] (74)
E9C0  00                 [19] (74)
E9C1  00                 [20] (74)
E9C2  49                 [21] (74)
E9C3  08                 [22] (74)
E9C4  00                 [23] (74)
E9C5  00                 [24] (74)
E9C6  4A                 [25] (75)
E9C7  08                 [26] (75)
E9C8  00                 [27] (75)
E9C9  00                 [28] (76)
E9CA  4A                 [29] (77)
E9CB  08                 [30] (77)
E9CC  00                 [31] (77)
E9CD  00                 [32] (77)
E9CE  4A                 [33] (77)
E9CF  08                 [34] (77)
E9D0  00                 [35] (77)
E9D1  00                 [36] (77)
E9D2  4A                 [37] (78)
E9D3  08                 [38] (78)
E9D4  00                 [39] (78)
E9D5  00                 [40] (78)
E9D6  4A                 [41] (78)
E9D7  08                 [42] (78)
E9D8  00                 [43] (81)
E9D9  00                 [44] (81)
E9DA  4A                 [45] (81)
E9DB  08                 [46] (81)
E9DC  00                 [47] (82)
E9DD  00                 [48] (82)
E9DE  4A                 [49] (82)
E9DF  08                 [50] (82)
E9E0  00                 [51] (84)
E9E1  00                 [52] (84)
E9E2  4A                 [53] (84)
E9E3  08                 [54] (84)
E9E4  00                 [55] (85)
E9E5  00                 [56] (85)
E9E6  4A                 [57] (86)
E9E7  08                 [58] (86)
E9E8  00                 [59] (86)
E9E9  00                 [60] (86)
E9EA  4A                 [61] (86)
E9EB  08                 [62] (90)
E9EC  00                 [63] (91)
                         * locals:
EAAA  00                 sizelocvars (0)
                         * upvalues:
EAAB  00                 sizeupvalues (0)
                         ** end of function **

                         
EAAC                     ** function [60] definition (level 2)
                         ** start of function **
EAAC  00                 string size (0)
                         source name: (none)
EAAE  10                 line defined (2141)
EAAF  E3                 last line defined (2147)
EAB0  10                 nups (1)
EAB1  01                 numparams (0)
EAB2  00                 is_vararg (0)
EAB3  00                 maxstacksize (2)
                         * code:
EAB5  0A                 sizecode (10)
EAB6  13000000           [01] getupval   0   0      
EABA  0E004000           [02] gettable   0   0   256  ; 275979196
EABE  22808000           [03] call       0   1   2  
EAC2  18000000           [04] test       0       0    ; to [6] if true
EAC6  1A400080           [05] jmp        2            ; to [8]
EACA  19400000           [06] loadk      0   1        ; "/Lotus/Language/Menu/OmegaLimit_RestrictSortie"
EACE  1E000001           [07] return     0   2      
EAD2  06000000           [08] loadnil    0   0      
EAD6  1E000001           [09] return     0   2      
EADA  1E008000           [10] return     0   1      
                         * constants:
EADE  02                 sizek (2)
EADF  01                 const type 3
EAE0  BC1B7310           const [0]: (275979196)
EAE4  04                 const type 4
EAE5  2F                 string size (47)
EAE6  2F4C6F7475732F4C+  "/Lotus/L"
EAEE  616E67756167652F+  "anguage/"
EAF6  4D656E752F4F6D65+  "Menu/Ome"
EAFE  67614C696D69745F+  "gaLimit_"
EB06  5265737472696374+  "Restrict"
EB0E  536F7274696500     "Sortie\0"
                         const [1]: "/Lotus/Language/Menu/OmegaLimit_RestrictSortie"
                         * functions:
EB15  00                 sizep (0)
                         * lines:
EB16  0A                 sizelineinfo (10)
                         [pc] (line)
EB17  5E                 [01] (94)
EB18  08                 [02] (94)
EB19  00                 [03] (94)
EB1A  00                 [04] (94)
EB1B  5E                 [05] (94)
EB1C  08                 [06] (95)
EB1D  00                 [07] (95)
EB1E  00                 [08] (98)
EB1F  5E                 [09] (98)
EB20  08                 [10] (99)
                         * locals:
EB3F  00                 sizelocvars (0)
                         * upvalues:
EB40  00                 sizeupvalues (0)
                         ** end of function **

                         * lines:
EB42  02                 sizelineinfo (307)
                         [pc] (line)
EB43  01                 [001] (1)
EB44  00                 [002] (1)
EB45  00                 [003] (1)
EB46  00                 [004] (1)
EB47  01                 [005] (1)
EB48  00                 [006] (3)
EB49  00                 [007] (3)
EB4A  00                 [008] (3)
EB4B  01                 [009] (4)
EB4C  00                 [010] (4)
EB4D  00                 [011] (4)
EB4E  00                 [012] (5)
EB4F  01                 [013] (5)
EB50  00                 [014] (5)
EB51  00                 [015] (6)
EB52  00                 [016] (6)
EB53  01                 [017] (6)
EB54  00                 [018] (14)
EB55  00                 [019] (14)
EB56  00                 [020] (15)
EB57  03                 [021] (15)
EB58  00                 [022] (16)
EB59  00                 [023] (16)
EB5A  00                 [024] (19)
EB5B  03                 [025] (20)
EB5C  00                 [026] (21)
EB5D  00                 [027] (22)
EB5E  00                 [028] (23)
EB5F  03                 [029] (24)
EB60  00                 [030] (25)
EB61  00                 [031] (26)
EB62  00                 [032] (27)
EB63  04                 [033] (28)
EB64  00                 [034] (29)
EB65  00                 [035] (30)
EB66  00                 [036] (30)
EB67  04                 [037] (30)
EB68  00                 [038] (32)
EB69  00                 [039] (32)
EB6A  00                 [040] (32)
EB6B  04                 [041] (33)
EB6C  00                 [042] (33)
EB6D  00                 [043] (33)
EB6E  00                 [044] (34)
EB6F  05                 [045] (34)
EB70  00                 [046] (34)
EB71  00                 [047] (35)
EB72  00                 [048] (35)
EB73  05                 [049] (35)
EB74  00                 [050] (36)
EB75  00                 [051] (36)
EB76  00                 [052] (36)
EB77  05                 [053] (37)
EB78  00                 [054] (37)
EB79  00                 [055] (37)
EB7A  00                 [056] (38)
EB7B  06                 [057] (38)
EB7C  00                 [058] (38)
EB7D  00                 [059] (39)
EB7E  00                 [060] (39)
EB7F  06                 [061] (39)
EB80  00                 [062] (40)
EB81  00                 [063] (40)
EB82  00                 [064] (40)
EB83  06                 [065] (41)
EB84  00                 [066] (41)
EB85  00                 [067] (41)
EB86  00                 [068] (43)
EB87  0E                 [069] (54)
EB88  00                 [070] (58)
EB89  00                 [071] (58)
EB8A  00                 [072] (62)
EB8B  0E                 [073] (62)
EB8C  00                 [074] (62)
EB8D  00                 [075] (60)
EB8E  00                 [076] (66)
EB8F  0F                 [077] (70)
EB90  00                 [078] (70)
EB91  00                 [079] (70)
EB92  00                 [080] (68)
EB93  0F                 [081] (74)
EB94  00                 [082] (74)
EB95  00                 [083] (78)
EB96  00                 [084] (78)
EB97  10                 [085] (78)
EB98  00                 [086] (76)
EB99  00                 [087] (87)
EB9A  00                 [088] (87)
EB9B  10                 [089] (87)
EB9C  00                 [090] (91)
EB9D  00                 [091] (91)
EB9E  00                 [092] (91)
EB9F  13                 [093] (96)
EBA0  00                 [094] (96)
EBA1  00                 [095] (96)
EBA2  00                 [096] (94)
EBA3  14                 [097] (101)
EBA4  00                 [098] (-4)
EBA5  00                 [099] (-4)
EBA6  00                 [100] (-4)
EBA7  15                 [101] (-4)
EBA8  00                 [102] (-4)
EBA9  00                 [103] (-4)
EBAA  00                 [104] (-4)
EBAB  16                 [105] (-4)
EBAC  00                 [106] (-4)
EBAD  00                 [107] (-4)
EBAE  00                 [108] (-4)
EBAF  17                 [109] (-4)
EBB0  00                 [110] (-4)
EBB1  00                 [111] (0)
EBB2  00                 [112] (0)
EBB3  18                 [113] (0)
EBB4  00                 [114] (-2)
EBB5  00                 [115] (3)
EBB6  00                 [116] (3)
EBB7  19                 [117] (2)
EBB8  00                 [118] (10)
EBB9  00                 [119] (126)
EBBA  00                 [120] (126)
EBBB  1A                 [121] (126)
EBBC  00                 [122] (126)
EBBD  00                 [123] (-126)
EBBE  00                 [124] (-126)
EBBF  1B                 [125] (-126)
EBC0  00                 [126] (-128)
EBC1  00                 [127] (-111)
EBC2  00                 [128] (59)
EBC3  1C                 [129] (59)
EBC4  00                 [130] (59)
EBC5  00                 [131] (63)
EBC6  00                 [132] (63)
EBC7  1D                 [133] (63)
EBC8  00                 [134] (61)
EBC9  00                 [135] (-30)
EBCA  00                 [136] (-30)
EBCB  1E                 [137] (-30)
EBCC  00                 [138] (-30)
EBCD  00                 [139] (-30)
EBCE  00                 [140] (-30)
EBCF  1E                 [141] (-30)
EBD0  00                 [142] (-30)
EBD1  00                 [143] (-30)
EBD2  00                 [144] (-30)
EBD3  1E                 [145] (-30)
EBD4  00                 [146] (-30)
EBD5  00                 [147] (-30)
EBD6  00                 [148] (-30)
EBD7  20                 [149] (-30)
EBD8  00                 [150] (-30)
EBD9  00                 [151] (-30)
EBDA  00                 [152] (-30)
EBDB  20                 [153] (-30)
EBDC  00                 [154] (-26)
EBDD  00                 [155] (-26)
EBDE  00                 [156] (-26)
EBDF  20                 [157] (-28)
EBE0  00                 [158] (-16)
EBE1  00                 [159] (-16)
EBE2  00                 [160] (-16)
EBE3  21                 [161] (-16)
EBE4  00                 [162] (-24)
EBE5  00                 [163] (2)
EBE6  00                 [164] (2)
EBE7  21                 [165] (2)
EBE8  00                 [166] (-14)
EBE9  00                 [167] (26)
EBEA  00                 [168] (26)
EBEB  21                 [169] (30)
EBEC  00                 [170] (30)
EBED  00                 [171] (30)
EBEE  00                 [172] (28)
EBEF  22                 [173] (51)
EBF0  00                 [174] (55)
EBF1  00                 [175] (55)
EBF2  00                 [176] (55)
EBF3  22                 [177] (53)
EBF4  00                 [178] (68)
EBF5  00                 [179] (68)
EBF6  00                 [180] (68)
EBF7  22                 [181] (84)
EBF8  00                 [182] (84)
EBF9  00                 [183] (84)
EBFA  00                 [184] (84)
EBFB  23                 [185] (-24)
EBFC  00                 [186] (-24)
EBFD  00                 [187] (-24)
EBFE  00                 [188] (-24)
EBFF  23                 [189] (-24)
EC00  00                 [190] (-24)
EC01  00                 [191] (86)
EC02  00                 [192] (15)
EC03  23                 [193] (15)
EC04  00                 [194] (-22)
EC05  00                 [195] (45)
EC06  00                 [196] (45)
EC07  24                 [197] (45)
EC08  00                 [198] (49)
EC09  00                 [199] (49)
EC0A  00                 [200] (49)
EC0B  24                 [201] (47)
EC0C  00                 [202] (79)
EC0D  00                 [203] (79)
EC0E  00                 [204] (79)
EC0F  24                 [205] (83)
EC10  00                 [206] (83)
EC11  00                 [207] (83)
EC12  00                 [208] (81)
EC13  25                 [209] (-110)
EC14  00                 [210] (-110)
EC15  00                 [211] (-110)
EC16  00                 [212] (-110)
EC17  25                 [213] (-110)
EC18  00                 [214] (-110)
EC19  00                 [215] (85)
EC1A  00                 [216] (-60)
EC1B  25                 [217] (-60)
EC1C  00                 [218] (-60)
EC1D  00                 [219] (-60)
EC1E  00                 [220] (-108)
EC1F  26                 [221] (-44)
EC20  00                 [222] (-44)
EC21  00                 [223] (-44)
EC22  00                 [224] (-44)
EC23  26                 [225] (-58)
EC24  00                 [226] (-41)
EC25  00                 [227] (-41)
EC26  00                 [228] (-42)
EC27  26                 [229] (-30)
EC28  00                 [230] (-30)
EC29  00                 [231] (-39)
EC2A  00                 [232] (-20)
EC2B  27                 [233] (-16)
EC2C  00                 [234] (-16)
EC2D  00                 [235] (-16)
EC2E  00                 [236] (-18)
EC2F  27                 [237] (-6)
EC30  00                 [238] (-2)
EC31  00                 [239] (-2)
EC32  00                 [240] (-2)
EC33  27                 [241] (-4)
EC34  00                 [242] (8)
EC35  00                 [243] (8)
EC36  00                 [244] (0)
EC37  28                 [245] (90)
EC38  00                 [246] (90)
EC39  00                 [247] (90)
EC3A  00                 [248] (90)
EC3B  28                 [249] (90)
EC3C  00                 [250] (90)
EC3D  00                 [251] (10)
EC3E  00                 [252] (107)
EC3F  28                 [253] (107)
EC40  00                 [254] (95)
EC41  00                 [255] (-70)
EC42  00                 [256] (-70)
EC43  29                 [257] (-70)
EC44  00                 [258] (-70)
EC45  00                 [259] (111)
EC46  00                 [260] (-48)
EC47  29                 [261] (-48)
EC48  00                 [262] (-48)
EC49  00                 [263] (-65)
EC4A  00                 [264] (-44)
EC4B  29                 [265] (-40)
EC4C  00                 [266] (-40)
EC4D  00                 [267] (-40)
EC4E  00                 [268] (-42)
EC4F  2B                 [269] (5)
EC50  00                 [270] (5)
EC51  00                 [271] (5)
EC52  00                 [272] (5)
EC53  36                 [273] (-38)
EC54  00                 [274] (16)
EC55  00                 [275] (16)
EC56  00                 [276] (7)
EC57  3A                 [277] (20)
EC58  00                 [278] (20)
EC59  00                 [279] (18)
EC5A  00                 [280] (91)
EC5B  3A                 [281] (91)
EC5C  00                 [282] (91)
EC5D  00                 [283] (91)
EC5E  00                 [284] (91)
EC5F  3E                 [285] (91)
EC60  00                 [286] (24)
EC61  00                 [287] (102)
EC62  00                 [288] (102)
EC63  3E                 [289] (51)
EC64  00                 [290] (51)
EC65  00                 [291] (51)
EC66  00                 [292] (51)
EC67  3E                 [293] (51)
EC68  00                 [294] (51)
EC69  00                 [295] (51)
EC6A  00                 [296] (107)
EC6B  3C                 [297] (68)
EC6C  00                 [298] (68)
EC6D  00                 [299] (68)
EC6E  00                 [300] (53)
EC6F  42                 [301] (91)
EC70  00                 [302] (91)
EC71  00                 [303] (91)
EC72  00                 [304] (70)
EC73  46                 [305] (99)
EC74  00                 [306] (99)
EC75  00                 [307] (99)
                         * locals:
F00F  00                 sizelocvars (0)
                         * upvalues:
F010  00                 sizeupvalues (0)
                         ** end of function **

F011                     ** end of chunk **
