1	C:\wlua_dump\path\Lotus\InterfaceMissionRequirementUtilities.lua
Pos   Hex Data           Description or Code
------------------------------------------------------------------------
0000                     ** source chunk: C:\wlua_dump\path\Lotus\InterfaceMissionRequirementUtilities.lua
                         ** global header start **
0000  7F                 header signature: ""
0001  00                 version (major:minor hex digits)
0002  00                 format (0=official)
0003  00                 endianness (1=little endian)
0004  00                 size of int (bytes)
0005  00                 size of size_t (bytes)
0006  02                 size of Instruction (bytes)
0007  13                 size of number (bytes)
0008  7A                 integral (1=integral)
4122
                         * number type: single
                         * x86 standard (32-bit, little endian, doubles)
                         ** global header end **
package
seeall
EE.Interface.Utilities
Lotus.Interface.LotusUtilities
SANCTUARY_ONSLAUGHT_NODE
SolNode801
SANCTUARY_ONSLAUGHT_CHALLENGE_NODE
SolNode802
FRAME_FIGHTER_NODE
SolNode973
JCE_CAN_PLAY
JCE_MASTERY_LOCKED
JCE_SYNDICATE_TITLE_LOCKED
JCE_CHAIN_PROGRESS_LOCKED
JCE_ITEM_LOCKED
JCE_ERROR
/Lotus/Types/Restoratives/Consumable/Scanner
/Lotus/Types/Restoratives/Consumable/LibraryScanner
/Lotus/Types/Items/Events/TennoConRelay2019EarlyAccess
/Lotus/Types/Game/LotusPvpGameRules
ConclaveSyndicate
/Lotus/Types/Game/PowerSuits/PlayerPowerSuit
/Lotus/Types/Items/MiscItems/Fissureum
/Lotus/Types/Items/MiscItems/AntiSerumInjector
CheckItemRequirements
GetJobChainMissionEligibility
GetJobChainMissionEligibilityFromSquadMissionInfo
HasTennoConRelayAccess
CheckConclaveRequirements
TryLaunchOnslaught
TryLaunchFrameFighter
gGameRules
gLotusGameRulesType
gLotusDojoGameRulesType
gLotusBasePvpGameRulesType
gLotusHubGameRulesType
gLotusDuelGameRulesType
gGameRules
gLotusHubGameRulesType
gPlayerProfileMgr
gMiscItemBaseType
gGameData
mItemType
mItemCount
Lotus_Game
SUIT_SLOT
PISTOL_SLOT
LONG_GUN_SLOT
MELEE_SLOT
LOT_NORMAL
text
/Lotus/Language/Menu/MissionNeedItemSolo
ITEM
/Lotus/Language/Menu/MissionNeedItemQuantitySolo
value
gMatchingService
cjson
loadout
HasFissureum
Consumables
NORMAL
Lotus_Game
SUIT_SLOT
PISTOL_SLOT
LONG_GUN_SLOT
MELEE_SLOT
HEAVY_GUN_SLOT
ItemType
isLocal
text
/Lotus/Language/Menu/MissionNeedItemSolo
ITEM
/Lotus/Language/Menu/MissionNeedItemSquad
player
name
JCE_CAN_PLAY
gGameConfig
gGameData
JCE_ERROR
mLocationTag
mJobs
mJobInfo
mMasteryReq
JCE_MASTERY_LOCKED
/Lotus/Language/OstronCrafting/JobBoard_MasteryLocked
RANK
mTag
mTitle
mSyndicateTitleReq

level
titleLoc
/Lotus/Language/OstronCrafting/JobBoard_SyndicateTitleLocked
TITLE
string
JCE_SYNDICATE_TITLE_LOCKED
JCE_CHAIN_PROGRESS_LOCKED
/Lotus/Language/OstronCrafting/JobBoard_ChainProgressLocked
mRequiredItems
text
ITEM
JCE_ITEM_LOCKED
jobTier
Lotus_Game
JobDifficultyTier_PERMANENT_JOB
EMPTY_SYMBOL
string
jobId
FORTUNA_NODE_TAG
SolarisSyndicate
.*_(.*)
job
JCE_CAN_PLAY
gPlayerProfileMgr
mItemType
gGameConfig
gGameRules
gLotusGameRulesType
missionType
Lotus_Game
MT_RAID
keyChainName
text
/Lotus/Language/Menu/MainMenu_NewBuildMissionsBlocked

string
TAG_SEPERATOR
BADLAND_DEFENDER_TAG
BADLAND_ATTACKER_TAG
SORTIE_MISSION_TAG
TennoConHUB2
gPlayerProfileMgr
/Lotus/Language/Menu/MissionLocationUnavailable
_T
CachedAlerts
mVisible
ALERT_TAG
mAlertInfo
mMissionInfo
_G
CachedGoalInfo
EVENT_TAG
goalTag
EMPTY_SYMBOL
mTag
CachedSyndicateMissions
SYNDICATE_MISSION_TAG
CachedSortieMissions
CachedActiveMissions
ACTIVE_MISSION_TAG
CachedInvasionInfo
INVASION_ATTACKER_TAG
mAttackerMissionInfo
INVASION_DEFENDER_TAG
mDefenderMissionInfo
CachedEliteAlertMissions
ELITE_ALERT_TAG
KEY_TAG
ArchwingQuest/MissionFive
gPendingMission
requiredItems
levelKeyName
/Lotus/Language/Menu/OmegaLimit_RestrictSortie
missionReward
items
gRandomizedArtifactUpgradeType
/Lotus/Language/Menu/OmegaLimit_RestrictMission
missionRewardExtra
gameRules
CheckConclaveRequirements - skipped due to dev mode enabled
Engine
gRegion
level
/Lotus/Language/Menu/SocialOverlay_SessionJoinFromTutorial
conclaveRange
minValue
maxValue
gMatchingService
conclaveRangePerItem
MAX_LoadOutSlot
LOT_NORMAL
mItemType
/Lotus/Language/Menu/PvpValueFailureSoloItem
value
MIN
MAX
ITEM
LOT_SENTINEL
Local PVP value: 
/Lotus/Language/Menu/PvpValueFailureSolo
cjson
loadout
PvpValue
PvpValueItemMax
PVP value 
[
 - 
]
/Lotus/Language/Menu/PvpValueFailureSquad
player
name
archwingRequired
LOT_ARCHWING
SUIT_SLOT
LONG_GUN_SLOT
MELEE_SLOT
/Lotus/Language/Menu/ArchwingFailureSolo
HasArchwing
ArchwingEnabled
isLocal
/Lotus/Language/Menu/ArchwingFailureSquad
requiredItemCounts
exclusiveWeapon
gLotusMeleeWeaponType
PISTOL_SLOT
gLotusHybridWeaponType
/Lotus/Language/Menu/MissionExclusiveWeaponRequired
NORMAL
ItemType
/Lotus/Language/Menu/MissionExclusiveWeaponRequiredSquad
masteryReq
gLotusHubGameRulesType
/Lotus/Language/Game/MissionMasteryRequired
RANK
maxSuitReq
mXP
/Lotus/Language/Menu/MissionMaxSuitRequired
Level
/Lotus/Language/Menu/MissionMaxSuitRequiredSquad
periodicMissionTag
ELITE_ALERT_PERIODIC_MISSION_TAG
ELITE_ALERT_PERIODIC_MISSION_TAG_ALT
/Lotus/Language/Menu/MissionStarChartCompletedRequirement
CachedNodesPendingDestruction
shouldLock
lockTime
mInitiated
Player not affiliated with 
/Lotus/Language/Game/ConclaveSyndicateRequired
/Lotus/Language/Game/ConclaveLoadoutRequired
nightmare
/Lotus/Language/Menu/NightmareRaidSuitConditionFail
questReq
/Lotus/Language/Game/MissionQuestRequired
ActiveQuestLoaded
SpotLoadedQuest
/Lotus/Types/Keys/SolarisQuest/SolarisQuestKeyChain
jobId
miscItemFee
mItemCount
/Lotus/Language/Game/MissionMiscItemRequired
COUNT



/Lotus/Language/Episodes/AntiSerumInjectorReq
LockedGoalList
/Lotus/Language/Menu/SocialOverlay_EventMissionLocked
activeMissionTag
VOID_PROJECTION_ITEMS
CheckConclaveRequirements clearing Active Void Projection: have 
 but need a 
mCreditsFee
/Lotus/Language/Menu/ArenaInsuffMinCredits
CachedConstructionProjects
rebuildNode
progress
info
mNode
HUB
Event
jobTier
JobDifficultyTier_PERMANENT_JOB
JCE_CAN_PLAY
/Lotus/Language/Menu/SocialOverlay_SessionExpired
Nightwave
RadioLegionSyndicate
gGameData
mTitle
/Lotus/Language/Alerts/NightwaveAlertReq
TITLE
SANCTUARY_ONSLAUGHT_CHALLENGE_NODE
SANCTUARY_ONSLAUGHT_NODE
text
PLAYER_NAME
player
VALUE
value
MIN
MAX
ITEM
name
quest

difficulty
cjson
gMatchingService
FRAME_FIGHTER_NODE
text
PLAYER_NAME
player
VALUE
value
MIN
MAX
ITEM
name
quest

difficulty
cjson
gMatchingService
                         
0001                     ** function [0] definition (level 1)
                         ** start of function **
0001  00                 string size (0)
                         source name: (none)
0002  00                 line defined (0)
0003  00                 last line defined (0)
0004  00                 nups (0)
0005  00                 numparams (0)
0006  02                 is_vararg (2)
0007  13                 maxstacksize (19)
                         * code:
0008  7A                 sizecode (122)
0009  1D000000           [001] getglobal  0   0        ; 954442511
000D  41000001           [002] vararg     1   2      
0011  9D400000           [003] getglobal  2   1        ; package
0015  8E804001           [004] gettable   2   2   258  ; "seeall"
0019  22408001           [005] call       0   3   1  
001D  1DC00000           [006] getglobal  0   3        ; 849075268
0021  59000100           [007] loadk      1   4        ; "EE.Interface.Utilities"
0025  22800001           [008] call       0   2   2  
0029  5DC00000           [009] getglobal  1   3        ; 849075268
002D  99400100           [010] loadk      2   5        ; "Lotus.Interface.LotusUtilities"
0031  62800001           [011] call       1   2   2  
0035  9DC00100           [012] getglobal  2   7        ; -332969190
0039  D9000200           [013] loadk      3   8        ; "SolNode801"
003D  A2800001           [014] call       2   2   2  
0041  A0800100           [015] setglobal  2   6        ; SANCTUARY_ONSLAUGHT_NODE
0045  9DC00100           [016] getglobal  2   7        ; -332969190
0049  D9800200           [017] loadk      3   10       ; "SolNode802"
004D  A2800001           [018] call       2   2   2  
0051  A0400200           [019] setglobal  2   9        ; SANCTUARY_ONSLAUGHT_CHALLENGE_NODE
0055  9DC00100           [020] getglobal  2   7        ; -332969190
0059  D9000300           [021] loadk      3   12       ; "SolNode973"
005D  A2800001           [022] call       2   2   2  
0061  A0C00200           [023] setglobal  2   11       ; FRAME_FIGHTER_NODE
0065  99800300           [024] loadk      2   14       ; 0
0069  A0400300           [025] setglobal  2   13       ; JCE_CAN_PLAY
006D  99000400           [026] loadk      2   16       ; 0
0071  A0C00300           [027] setglobal  2   15       ; JCE_MASTERY_LOCKED
0075  99800400           [028] loadk      2   18       ; 0
0079  A0400400           [029] setglobal  2   17       ; JCE_SYNDICATE_TITLE_LOCKED
007D  99000500           [030] loadk      2   20       ; 0
0081  A0C00400           [031] setglobal  2   19       ; JCE_CHAIN_PROGRESS_LOCKED
0085  99800500           [032] loadk      2   22       ; 0
0089  A0400500           [033] setglobal  2   21       ; JCE_ITEM_LOCKED
008D  99000600           [034] loadk      2   24       ; 0
0091  A0C00500           [035] setglobal  2   23       ; JCE_ERROR
0095  9D400600           [036] getglobal  2   25       ; 738251817
0099  D9800600           [037] loadk      3   26       ; "/Lotus/Types/Restoratives/Consumable/Scanner"
009D  A2800001           [038] call       2   2   2  
00A1  DD400600           [039] getglobal  3   25       ; 738251817
00A5  19C10600           [040] loadk      4   27       ; "/Lotus/Types/Restoratives/Consumable/LibraryScanner"
00A9  E2800001           [041] call       3   2   2  
00AD  1D410600           [042] getglobal  4   25       ; 738251817
00B1  59010700           [043] loadk      5   28       ; "/Lotus/Types/Items/Events/TennoConRelay2019EarlyAccess"
00B5  22810001           [044] call       4   2   2  
00B9  5D410600           [045] getglobal  5   25       ; 738251817
00BD  99410700           [046] loadk      6   29       ; "/Lotus/Types/Game/LotusPvpGameRules"
00C1  62810001           [047] call       5   2   2  
00C5  9DC10100           [048] getglobal  6   7        ; -332969190
00C9  D9810700           [049] loadk      7   30       ; "ConclaveSyndicate"
00CD  A2810001           [050] call       6   2   2  
00D1  DD410600           [051] getglobal  7   25       ; 738251817
00D5  19C20700           [052] loadk      8   31       ; "/Lotus/Types/Game/PowerSuits/PlayerPowerSuit"
00D9  E2810001           [053] call       7   2   2  
00DD  1D420600           [054] getglobal  8   25       ; 738251817
00E1  59020800           [055] loadk      9   32       ; "/Lotus/Types/Items/MiscItems/Fissureum"
00E5  22820001           [056] call       8   2   2  
00E9  5D420600           [057] getglobal  9   25       ; 738251817
00ED  99420800           [058] loadk      10  33       ; "/Lotus/Types/Items/MiscItems/AntiSerumInjector"
00F1  62820001           [059] call       9   2   2  
00F5  A5020000           [060] closure    10  0      
00F9  E5420000           [061] closure    11  1      
00FD  12000005           [062] move       0   10     
0101  25830000           [063] closure    12  2      
0105  12000001           [064] move       0   2      
0109  12008001           [065] move       0   3      
010D  65C30000           [066] closure    13  3      
0111  12000006           [067] move       0   12     
0115  12000004           [068] move       0   8      
0119  12000001           [069] move       0   2      
011D  12008001           [070] move       0   3      
0121  A5030100           [071] closure    14  4      
0125  12008006           [072] move       0   13     
0129  A0830800           [073] setglobal  14  34       ; CheckItemRequirements
012D  A0C30800           [074] setglobal  14  35       ; 121796539
0131  A5430100           [075] closure    14  5      
0135  12000000           [076] move       0   0      
0139  12000006           [077] move       0   12     
013D  E5830100           [078] closure    15  6      
0141  12000007           [079] move       0   14     
0145  E0030900           [080] setglobal  15  36       ; GetJobChainMissionEligibility
0149  E0430900           [081] setglobal  15  37       ; 1172111007
014D  E5C30100           [082] closure    15  7      
0151  12008000           [083] move       0   1      
0155  12000007           [084] move       0   14     
0159  25040200           [085] closure    16  8      
015D  12008007           [086] move       0   15     
0161  20840900           [087] setglobal  16  38       ; GetJobChainMissionEligibilityFromSquadMissionInfo
0165  20C40900           [088] setglobal  16  39       ; -246400775
0169  25440200           [089] closure    16  9      
016D  12000002           [090] move       0   4      
0171  65840200           [091] closure    17  10     
0175  12000008           [092] move       0   16     
0179  60040A00           [093] setglobal  17  40       ; HasTennoConRelayAccess
017D  60440A00           [094] setglobal  17  41       ; -1921396382
0181  65C40200           [095] closure    17  11     
0185  12000000           [096] move       0   0      
0189  12008000           [097] move       0   1      
018D  12000008           [098] move       0   16     
0191  12008005           [099] move       0   11     
0195  12008002           [100] move       0   5      
0199  12008006           [101] move       0   13     
019D  12000003           [102] move       0   6      
01A1  12008003           [103] move       0   7      
01A5  12008004           [104] move       0   9      
01A9  12008007           [105] move       0   15     
01AD  A5040300           [106] closure    18  12     
01B1  12008008           [107] move       0   17     
01B5  A0840A00           [108] setglobal  18  42       ; CheckConclaveRequirements
01B9  A0C40A00           [109] setglobal  18  43       ; -1899142750
01BD  A5440300           [110] closure    18  13     
01C1  12000000           [111] move       0   0      
01C5  12008005           [112] move       0   11     
01C9  12008008           [113] move       0   17     
01CD  A0040B00           [114] setglobal  18  44       ; TryLaunchOnslaught
01D1  A0440B00           [115] setglobal  18  45       ; 745822283
01D5  A5840300           [116] closure    18  14     
01D9  12008005           [117] move       0   11     
01DD  12008008           [118] move       0   17     
01E1  12000000           [119] move       0   0      
01E5  A0840B00           [120] setglobal  18  46       ; TryLaunchFrameFighter
01E9  A0C40B00           [121] setglobal  18  47       ; 1438449354
01ED  1E008000           [122] return     0   1      
                         * constants:
01F1  30                 sizek (48)
01F2  01                 const type 3
01F3  0FA3E338           const [0]: (954442511)
01F7  04                 const type 4
01F8  08                 string size (8)
01F9  7061636B61676500   "package\0"
                         const [1]: "package"
0201  04                 const type 4
0202  07                 string size (7)
0203  736565616C6C00     "seeall\0"
                         const [2]: "seeall"
020A  01                 const type 3
020B  44DC9B32           const [3]: (849075268)
020F  04                 const type 4
0210  17                 string size (23)
0211  45452E496E746572+  "EE.Inter"
0219  666163652E557469+  "face.Uti"
0221  6C697469657300     "lities\0"
                         const [4]: "EE.Interface.Utilities"
0228  04                 const type 4
0229  1F                 string size (31)
022A  4C6F7475732E496E+  "Lotus.In"
0232  746572666163652E+  "terface."
023A  4C6F747573557469+  "LotusUti"
0242  6C697469657300     "lities\0"
                         const [5]: "Lotus.Interface.LotusUtilities"
0249  04                 const type 4
024A  19                 string size (25)
024B  53414E4354554152+  "SANCTUAR"
0253  595F4F4E534C4155+  "Y_ONSLAU"
025B  4748545F4E4F4445+  "GHT_NODE"
0263  00                 "\0"
                         const [6]: "SANCTUARY_ONSLAUGHT_NODE"
0264  01                 const type 3
0265  1A4B27EC           const [7]: (-332969190)
0269  04                 const type 4
026A  0B                 string size (11)
026B  536F6C4E6F646538+  "SolNode8"
0273  303100             "01\0"
                         const [8]: "SolNode801"
0276  04                 const type 4
0277  23                 string size (35)
0278  53414E4354554152+  "SANCTUAR"
0280  595F4F4E534C4155+  "Y_ONSLAU"
0288  4748545F4348414C+  "GHT_CHAL"
0290  4C454E47455F4E4F+  "LENGE_NO"
0298  444500             "DE\0"
                         const [9]: "SANCTUARY_ONSLAUGHT_CHALLENGE_NODE"
029B  04                 const type 4
029C  0B                 string size (11)
029D  536F6C4E6F646538+  "SolNode8"
02A5  303200             "02\0"
                         const [10]: "SolNode802"
02A8  04                 const type 4
02A9  13                 string size (19)
02AA  4652414D455F4649+  "FRAME_FI"
02B2  47485445525F4E4F+  "GHTER_NO"
02BA  444500             "DE\0"
                         const [11]: "FRAME_FIGHTER_NODE"
02BD  04                 const type 4
02BE  0B                 string size (11)
02BF  536F6C4E6F646539+  "SolNode9"
02C7  373300             "73\0"
                         const [12]: "SolNode973"
02CA  04                 const type 4
02CB  0D                 string size (13)
02CC  4A43455F43414E5F+  "JCE_CAN_"
02D4  504C415900         "PLAY\0"
                         const [13]: "JCE_CAN_PLAY"
02D9  03                 const type 3
02DA  00000000           const [14]: (0)
02DE  04                 const type 4
02DF  13                 string size (19)
02E0  4A43455F4D415354+  "JCE_MAST"
02E8  4552595F4C4F434B+  "ERY_LOCK"
02F0  454400             "ED\0"
                         const [15]: "JCE_MASTERY_LOCKED"
02F3  03                 const type 3
02F4  0000803F           const [16]: (0)
02F8  04                 const type 4
02F9  1B                 string size (27)
02FA  4A43455F53594E44+  "JCE_SYND"
0302  49434154455F5449+  "ICATE_TI"
030A  544C455F4C4F434B+  "TLE_LOCK"
0312  454400             "ED\0"
                         const [17]: "JCE_SYNDICATE_TITLE_LOCKED"
0315  03                 const type 3
0316  00000040           const [18]: (0)
031A  04                 const type 4
031B  1A                 string size (26)
031C  4A43455F43484149+  "JCE_CHAI"
0324  4E5F50524F475245+  "N_PROGRE"
032C  53535F4C4F434B45+  "SS_LOCKE"
0334  4400               "D\0"
                         const [19]: "JCE_CHAIN_PROGRESS_LOCKED"
0336  03                 const type 3
0337  00004040           const [20]: (0)
033B  04                 const type 4
033C  10                 string size (16)
033D  4A43455F4954454D+  "JCE_ITEM"
0345  5F4C4F434B454400   "_LOCKED\0"
                         const [21]: "JCE_ITEM_LOCKED"
034D  03                 const type 3
034E  00008040           const [22]: (0)
0352  04                 const type 4
0353  0A                 string size (10)
0354  4A43455F4552524F+  "JCE_ERRO"
035C  5200               "R\0"
                         const [23]: "JCE_ERROR"
035E  03                 const type 3
035F  0000A040           const [24]: (0)
0363  01                 const type 3
0364  29D4002C           const [25]: (738251817)
0368  04                 const type 4
0369  2D                 string size (45)
036A  2F4C6F7475732F54+  "/Lotus/T"
0372  797065732F526573+  "ypes/Res"
037A  746F726174697665+  "torative"
0382  732F436F6E73756D+  "s/Consum"
038A  61626C652F536361+  "able/Sca"
0392  6E6E657200         "nner\0"
                         const [26]: "/Lotus/Types/Restoratives/Consumable/Scanner"
0397  04                 const type 4
0398  34                 string size (52)
0399  2F4C6F7475732F54+  "/Lotus/T"
03A1  797065732F526573+  "ypes/Res"
03A9  746F726174697665+  "torative"
03B1  732F436F6E73756D+  "s/Consum"
03B9  61626C652F4C6962+  "able/Lib"
03C1  726172795363616E+  "raryScan"
03C9  6E657200           "ner\0"
                         const [27]: "/Lotus/Types/Restoratives/Consumable/LibraryScanner"
03CD  04                 const type 4
03CE  37                 string size (55)
03CF  2F4C6F7475732F54+  "/Lotus/T"
03D7  797065732F497465+  "ypes/Ite"
03DF  6D732F4576656E74+  "ms/Event"
03E7  732F54656E6E6F43+  "s/TennoC"
03EF  6F6E52656C617932+  "onRelay2"
03F7  3031394561726C79+  "019Early"
03FF  41636365737300     "Access\0"
                         const [28]: "/Lotus/Types/Items/Events/TennoConRelay2019EarlyAccess"
0406  04                 const type 4
0407  24                 string size (36)
0408  2F4C6F7475732F54+  "/Lotus/T"
0410  797065732F47616D+  "ypes/Gam"
0418  652F4C6F74757350+  "e/LotusP"
0420  767047616D655275+  "vpGameRu"
0428  6C657300           "les\0"
                         const [29]: "/Lotus/Types/Game/LotusPvpGameRules"
042C  04                 const type 4
042D  12                 string size (18)
042E  436F6E636C617665+  "Conclave"
0436  53796E6469636174+  "Syndicat"
043E  6500               "e\0"
                         const [30]: "ConclaveSyndicate"
0440  04                 const type 4
0441  2D                 string size (45)
0442  2F4C6F7475732F54+  "/Lotus/T"
044A  797065732F47616D+  "ypes/Gam"
0452  652F506F77657253+  "e/PowerS"
045A  756974732F506C61+  "uits/Pla"
0462  796572506F776572+  "yerPower"
046A  5375697400         "Suit\0"
                         const [31]: "/Lotus/Types/Game/PowerSuits/PlayerPowerSuit"
046F  04                 const type 4
0470  27                 string size (39)
0471  2F4C6F7475732F54+  "/Lotus/T"
0479  797065732F497465+  "ypes/Ite"
0481  6D732F4D69736349+  "ms/MiscI"
0489  74656D732F466973+  "tems/Fis"
0491  73757265756D00     "sureum\0"
                         const [32]: "/Lotus/Types/Items/MiscItems/Fissureum"
0498  04                 const type 4
0499  2F                 string size (47)
049A  2F4C6F7475732F54+  "/Lotus/T"
04A2  797065732F497465+  "ypes/Ite"
04AA  6D732F4D69736349+  "ms/MiscI"
04B2  74656D732F416E74+  "tems/Ant"
04BA  69536572756D496E+  "iSerumIn"
04C2  6A6563746F7200     "jector\0"
                         const [33]: "/Lotus/Types/Items/MiscItems/AntiSerumInjector"
04C9  04                 const type 4
04CA  16                 string size (22)
04CB  436865636B497465+  "CheckIte"
04D3  6D52657175697265+  "mRequire"
04DB  6D656E747300       "ments\0"
                         const [34]: "CheckItemRequirements"
04E1  01                 const type 3
04E2  BB774207           const [35]: (121796539)
04E6  04                 const type 4
04E7  1E                 string size (30)
04E8  4765744A6F624368+  "GetJobCh"
04F0  61696E4D69737369+  "ainMissi"
04F8  6F6E456C69676962+  "onEligib"
0500  696C69747900       "ility\0"
                         const [36]: "GetJobChainMissionEligibility"
0506  01                 const type 3
0507  9FFEDC45           const [37]: (1172111007)
050B  04                 const type 4
050C  32                 string size (50)
050D  4765744A6F624368+  "GetJobCh"
0515  61696E4D69737369+  "ainMissi"
051D  6F6E456C69676962+  "onEligib"
0525  696C69747946726F+  "ilityFro"
052D  6D53717561644D69+  "mSquadMi"
0535  7373696F6E496E66+  "ssionInf"
053D  6F00               "o\0"
                         const [38]: "GetJobChainMissionEligibilityFromSquadMissionInfo"
053F  01                 const type 3
0540  F93850F1           const [39]: (-246400775)
0544  04                 const type 4
0545  17                 string size (23)
0546  48617354656E6E6F+  "HasTenno"
054E  436F6E52656C6179+  "ConRelay"
0556  41636365737300     "Access\0"
                         const [40]: "HasTennoConRelayAccess"
055D  01                 const type 3
055E  62D1798D           const [41]: (-1921396382)
0562  04                 const type 4
0563  1A                 string size (26)
0564  436865636B436F6E+  "CheckCon"
056C  636C617665526571+  "claveReq"
0574  756972656D656E74+  "uirement"
057C  7300               "s\0"
                         const [42]: "CheckConclaveRequirements"
057E  01                 const type 3
057F  A261CD8E           const [43]: (-1899142750)
0583  04                 const type 4
0584  13                 string size (19)
0585  5472794C61756E63+  "TryLaunc"
058D  684F6E736C617567+  "hOnslaug"
0595  687400             "ht\0"
                         const [44]: "TryLaunchOnslaught"
0598  01                 const type 3
0599  4B58742C           const [45]: (745822283)
059D  04                 const type 4
059E  16                 string size (22)
059F  5472794C61756E63+  "TryLaunc"
05A7  684672616D654669+  "hFrameFi"
05AF  676874657200       "ghter\0"
                         const [46]: "TryLaunchFrameFighter"
05B5  01                 const type 3
05B6  CAFEBC55           const [47]: (1438449354)
                         * functions:
05BA  0F                 sizep (15)
                         
05BB                     ** function [0] definition (level 2)
                         ** start of function **
05BB  00                 string size (0)
                         source name: (none)
05BC  23                 line defined (35)
05BD  30                 last line defined (48)
05BE  00                 nups (0)
05BF  00                 numparams (0)
05C0  00                 is_vararg (0)
05C1  03                 maxstacksize (3)
                         * code:
05C2  28                 sizecode (40)
05C3  1D000000           [01] getglobal  0   0        ; 1074689893
05C7  5D400000           [02] getglobal  1   1        ; gGameRules
05CB  22800001           [03] call       0   2   2  
05CF  18400000           [04] test       0       1    ; to [6] if false
05D3  1AC00780           [05] jmp        32           ; to [38]
05D7  1D400000           [06] getglobal  0   1        ; gGameRules
05DB  24804000           [07] self       0   0   258  ; -1957065004
05DF  9DC00000           [08] getglobal  2   3        ; gLotusGameRulesType
05E3  22808001           [09] call       0   3   2  
05E7  18400000           [10] test       0       1    ; to [12] if false
05EB  1AC00580           [11] jmp        24           ; to [36]
05EF  1D400000           [12] getglobal  0   1        ; gGameRules
05F3  24804000           [13] self       0   0   258  ; -1957065004
05F7  9D000100           [14] getglobal  2   4        ; gLotusDojoGameRulesType
05FB  22808001           [15] call       0   3   2  
05FF  18400000           [16] test       0       1    ; to [18] if false
0603  1A400480           [17] jmp        18           ; to [36]
0607  1D400000           [18] getglobal  0   1        ; gGameRules
060B  24804000           [19] self       0   0   258  ; -1957065004
060F  9D400100           [20] getglobal  2   5        ; gLotusBasePvpGameRulesType
0613  22808001           [21] call       0   3   2  
0617  18400000           [22] test       0       1    ; to [24] if false
061B  1AC00280           [23] jmp        12           ; to [36]
061F  1D400000           [24] getglobal  0   1        ; gGameRules
0623  24804000           [25] self       0   0   258  ; -1957065004
0627  9D800100           [26] getglobal  2   6        ; gLotusHubGameRulesType
062B  22808001           [27] call       0   3   2  
062F  18400000           [28] test       0       1    ; to [30] if false
0633  1A400180           [29] jmp        6            ; to [36]
0637  1D400000           [30] getglobal  0   1        ; gGameRules
063B  24804000           [31] self       0   0   258  ; -1957065004
063F  9DC00100           [32] getglobal  2   7        ; gLotusDuelGameRulesType
0643  22808001           [33] call       0   3   2  
0647  18000000           [34] test       0       0    ; to [36] if true
064B  1A400080           [35] jmp        2            ; to [38]
064F  17008000           [36] loadbool   0   1   0    ; true
0653  1E000001           [37] return     0   2      
0657  17000000           [38] loadbool   0   0   0    ; false
065B  1E000001           [39] return     0   2      
065F  1E008000           [40] return     0   1      
                         * constants:
0663  08                 sizek (8)
0664  01                 const type 3
0665  65770E40           const [0]: (1074689893)
0669  04                 const type 4
066A  0B                 string size (11)
066B  6747616D6552756C+  "gGameRul"
0673  657300             "es\0"
                         const [1]: "gGameRules"
0676  01                 const type 3
0677  D48E598B           const [2]: (-1957065004)
067B  04                 const type 4
067C  14                 string size (20)
067D  674C6F7475734761+  "gLotusGa"
0685  6D6552756C657354+  "meRulesT"
068D  79706500           "ype\0"
                         const [3]: "gLotusGameRulesType"
0691  04                 const type 4
0692  18                 string size (24)
0693  674C6F747573446F+  "gLotusDo"
069B  6A6F47616D655275+  "joGameRu"
06A3  6C65735479706500   "lesType\0"
                         const [4]: "gLotusDojoGameRulesType"
06AB  04                 const type 4
06AC  1B                 string size (27)
06AD  674C6F7475734261+  "gLotusBa"
06B5  736550767047616D+  "sePvpGam"
06BD  6552756C65735479+  "eRulesTy"
06C5  706500             "pe\0"
                         const [5]: "gLotusBasePvpGameRulesType"
06C8  04                 const type 4
06C9  17                 string size (23)
06CA  674C6F7475734875+  "gLotusHu"
06D2  6247616D6552756C+  "bGameRul"
06DA  65735479706500     "esType\0"
                         const [6]: "gLotusHubGameRulesType"
06E1  04                 const type 4
06E2  18                 string size (24)
06E3  674C6F7475734475+  "gLotusDu"
06EB  656C47616D655275+  "elGameRu"
06F3  6C65735479706500   "lesType\0"
                         const [7]: "gLotusDuelGameRulesType"
                         * functions:
06FB  00                 sizep (0)
                         * lines:
06FC  28                 sizelineinfo (40)
                         [pc] (line)
06FD  24                 [01] (36)
06FE  00                 [02] (36)
06FF  00                 [03] (36)
0700  00                 [04] (36)
0701  24                 [05] (36)
0702  00                 [06] (37)
0703  00                 [07] (37)
0704  00                 [08] (37)
0705  24                 [09] (37)
0706  00                 [10] (37)
0707  00                 [11] (37)
0708  00                 [12] (38)
0709  24                 [13] (38)
070A  00                 [14] (38)
070B  00                 [15] (38)
070C  00                 [16] (38)
070D  24                 [17] (38)
070E  00                 [18] (39)
070F  00                 [19] (39)
0710  00                 [20] (39)
0711  25                 [21] (39)
0712  00                 [22] (39)
0713  00                 [23] (39)
0714  00                 [24] (40)
0715  25                 [25] (40)
0716  00                 [26] (40)
0717  00                 [27] (40)
0718  00                 [28] (40)
0719  25                 [29] (40)
071A  00                 [30] (41)
071B  00                 [31] (41)
071C  00                 [32] (41)
071D  25                 [33] (41)
071E  00                 [34] (41)
071F  00                 [35] (41)
0720  00                 [36] (43)
0721  25                 [37] (43)
0722  00                 [38] (47)
0723  00                 [39] (47)
0724  00                 [40] (48)
                         * locals:
079D  00                 sizelocvars (0)
                         * upvalues:
079E  00                 sizeupvalues (0)
                         ** end of function **

                         
079F                     ** function [1] definition (level 2)
                         ** start of function **
079F  00                 string size (0)
                         source name: (none)
07A0  32                 line defined (50)
07A1  39                 last line defined (57)
07A2  01                 nups (1)
07A3  00                 numparams (0)
07A4  00                 is_vararg (0)
07A5  03                 maxstacksize (3)
                         * code:
07A6  1B                 sizecode (27)
07A7  1D000000           [01] getglobal  0   0        ; 1074689893
07AB  5D400000           [02] getglobal  1   1        ; gGameRules
07AF  22800001           [03] call       0   2   2  
07B3  18000000           [04] test       0       0    ; to [6] if true
07B7  1A800080           [05] jmp        3            ; to [9]
07BB  06000000           [06] loadnil    0   0      
07BF  1E000001           [07] return     0   2      
07C3  1A400380           [08] jmp        14           ; to [23]
07C7  1D400000           [09] getglobal  0   1        ; gGameRules
07CB  24804000           [10] self       0   0   258  ; -1957065004
07CF  9DC00000           [11] getglobal  2   3        ; gLotusHubGameRulesType
07D3  22808001           [12] call       0   3   2  
07D7  18400000           [13] test       0       1    ; to [15] if false
07DB  1AC00080           [14] jmp        4            ; to [19]
07DF  13000000           [15] getupval   0   0      
07E3  22808000           [16] call       0   1   2  
07E7  18000000           [17] test       0       0    ; to [19] if true
07EB  1AC00080           [18] jmp        4            ; to [23]
07EF  1D400000           [19] getglobal  0   1        ; gGameRules
07F3  24004100           [20] self       0   0   260  ; -801400449
07F7  07000001           [21] tailcall   0   2   0  
07FB  1E000000           [22] return     0   0      
07FF  1D400000           [23] getglobal  0   1        ; gGameRules
0803  24404100           [24] self       0   0   261  ; -1153782542
0807  07000001           [25] tailcall   0   2   0  
080B  1E000000           [26] return     0   0      
080F  1E008000           [27] return     0   1      
                         * constants:
0813  06                 sizek (6)
0814  01                 const type 3
0815  65770E40           const [0]: (1074689893)
0819  04                 const type 4
081A  0B                 string size (11)
081B  6747616D6552756C+  "gGameRul"
0823  657300             "es\0"
                         const [1]: "gGameRules"
0826  01                 const type 3
0827  D48E598B           const [2]: (-1957065004)
082B  04                 const type 4
082C  17                 string size (23)
082D  674C6F7475734875+  "gLotusHu"
0835  6247616D6552756C+  "bGameRul"
083D  65735479706500     "esType\0"
                         const [3]: "gLotusHubGameRulesType"
0844  01                 const type 3
0845  7F993BD0           const [4]: (-801400449)
0849  01                 const type 3
084A  F2AC3ABB           const [5]: (-1153782542)
                         * functions:
084E  00                 sizep (0)
                         * lines:
084F  1B                 sizelineinfo (27)
                         [pc] (line)
0850  33                 [01] (51)
0851  00                 [02] (51)
0852  00                 [03] (51)
0853  00                 [04] (51)
0854  33                 [05] (51)
0855  00                 [06] (52)
0856  00                 [07] (52)
0857  00                 [08] (52)
0858  33                 [09] (53)
0859  00                 [10] (53)
085A  00                 [11] (53)
085B  00                 [12] (53)
085C  33                 [13] (53)
085D  00                 [14] (53)
085E  00                 [15] (53)
085F  00                 [16] (53)
0860  33                 [17] (53)
0861  00                 [18] (53)
0862  00                 [19] (54)
0863  00                 [20] (54)
0864  34                 [21] (54)
0865  00                 [22] (54)
0866  00                 [23] (56)
0867  00                 [24] (56)
0868  34                 [25] (56)
0869  00                 [26] (56)
086A  00                 [27] (57)
                         * locals:
08BC  00                 sizelocvars (0)
                         * upvalues:
08BD  00                 sizeupvalues (0)
                         ** end of function **

                         
08BE                     ** function [2] definition (level 2)
                         ** start of function **
08BE  00                 string size (0)
                         source name: (none)
08BF  3B                 line defined (59)
08C0  72                 last line defined (114)
08C1  02                 nups (2)
08C2  02                 numparams (2)
08C3  00                 is_vararg (0)
08C4  1F                 maxstacksize (31)
                         * code:
08C6  01                 sizecode (143)
08C7  9D000000           [001] getglobal  2   0        ; gPlayerProfileMgr
08CB  A4404001           [002] self       2   2   257  ; 569342746
08CF  19810000           [003] loadk      4   2        ; 0
08D3  A2808001           [004] call       2   3   2  
08D7  A4C04001           [005] self       2   2   259  ; 1699680402
08DB  A2800001           [006] call       2   2   2  
08DF  E4004101           [007] self       3   2   260  ; 51109503
08E3  E2800001           [008] call       3   2   2  
08E7  2441C101           [009] self       4   3   261  ; 1671445297
08EB  22810001           [010] call       4   2   2  
08EF  5D810100           [011] getglobal  5   6        ; 1672515847
08F3  92010000           [012] move       6   0      
08F7  62010101           [013] call       5   2   4  
08FB  1A401F80           [014] jmp        126          ; to [141]
08FF  97020000           [015] loadbool   10  0   0    ; false
0903  D9820000           [016] loadk      11  2        ; 0
0907  24C3C104           [017] self       12  9   263  ; 813153904
090B  22830001           [018] call       12  2   2  
090F  5D030200           [019] getglobal  13  8        ; 1074689893
0913  92030006           [020] move       14  12     
0917  62830001           [021] call       13  2   2  
091B  58430000           [022] test       13      1    ; to [24] if false
091F  1A001D80           [023] jmp        117          ; to [141]
0923  64434206           [024] self       13  12  265  ; -1957065004
0927  DD830200           [025] getglobal  15  10       ; gMiscItemBaseType
092B  62838001           [026] call       13  3   2  
092F  58030000           [027] test       13      0    ; to [29] if true
0933  1A000280           [028] jmp        9            ; to [38]
0937  5DC30200           [029] getglobal  13  11       ; gGameData
093B  6403C306           [030] self       13  13  268  ; 1865287165
093F  62830001           [031] call       13  2   2  
0943  6443C306           [032] self       13  13  269  ; 1152082367
0947  D2030006           [033] move       15  12     
094B  62838001           [034] call       13  3   2  
094F  58030000           [035] test       13      0    ; to [37] if true
0953  1A000080           [036] jmp        1            ; to [38]
0957  97028000           [037] loadbool   10  1   0    ; true
095B  98420000           [038] test       10      1    ; to [40] if false
095F  1A400780           [039] jmp        30           ; to [70]
0963  59830300           [040] loadk      13  14       ; 0
0967  8A030002           [041] len        14  4      
096B  D9830300           [042] loadk      15  14       ; 0
096F  50030680           [043] forprep    13  25       ; to [69]
0973  4E040402           [044] gettable   17  4   16 
0977  8EC4C308           [045] gettable   18  17  271  ; "mItemType"
097B  D3040000           [046] getupval   19  0      
fail op	35
097F  23C00406           [047] close      0  
0983  1AC00180           [048] jmp        8            ; to [57]
fail op	35
0987  63000309           [049] close      1  
098B  1A800080           [050] jmp        3            ; to [54]
098F  D3048000           [051] getupval   19  1      
fail op	35
0993  23C00409           [052] close      0  
0997  1A800380           [053] jmp        15           ; to [69]
099B  97028000           [054] loadbool   10  1   0    ; true
099F  CE02C408           [055] gettable   11  17  272  ; "mItemCount"
09A3  1AC00280           [056] jmp        12           ; to [69]
09A7  DD040200           [057] getglobal  19  8        ; 1074689893
09AB  12050009           [058] move       20  18     
09AF  E2840001           [059] call       19  2   2  
09B3  D8440000           [060] test       19      1    ; to [62] if false
09B7  1A800180           [061] jmp        7            ; to [69]
09BB  E4444209           [062] self       19  18  265  ; -1957065004
09BF  52050006           [063] move       21  12     
09C3  E2848001           [064] call       19  3   2  
09C7  D8040000           [065] test       19      0    ; to [67] if true
09CB  1A400080           [066] jmp        2            ; to [69]
09CF  97028000           [067] loadbool   10  1   0    ; true
09D3  CE02C408           [068] gettable   11  17  272  ; "mItemCount"
09D7  5443F97F           [069] forloop    13  -26      ; to [44] if loop
09DB  98420000           [070] test       10      1    ; to [72] if false
09DF  1A400880           [071] jmp        34           ; to [106]
09E3  CB040002           [072] newtable   19  4   0    ; array=4, hash=0
09E7  1D450400           [073] getglobal  20  17       ; Lotus_Game
09EB  0E85440A           [074] gettable   20  20  274  ; "SUIT_SLOT"
09EF  5D450400           [075] getglobal  21  17       ; Lotus_Game
09F3  4EC5C40A           [076] gettable   21  21  275  ; "PISTOL_SLOT"
09F7  9D450400           [077] getglobal  22  17       ; Lotus_Game
09FB  8E05450B           [078] gettable   22  22  276  ; "LONG_GUN_SLOT"
09FF  DD450400           [079] getglobal  23  17       ; Lotus_Game
0A03  CE45C50B           [080] gettable   23  23  277  ; "MELEE_SLOT"
0A07  DB440002           [081] setlist    19  4   1    ; index 1 to 4
0A0B  1D850500           [082] getglobal  20  22       ; 248503575
0A0F  52058009           [083] move       21  19     
0A13  22050101           [084] call       20  2   4  
0A17  1A400480           [085] jmp        18           ; to [104]
0A1B  64C6C501           [086] self       25  3   279  ; 1644212373
0A1F  DD460400           [087] getglobal  27  17       ; Lotus_Game
0A23  CE06C60D           [088] gettable   27  27  280  ; "LOT_NORMAL"
0A27  1207000C           [089] move       28  24     
0A2B  62860002           [090] call       25  4   2  
0A2F  9D060200           [091] getglobal  26  8        ; 1074689893
0A33  CEC6C30C           [092] gettable   27  25  271  ; "mItemType"
0A37  A2860001           [093] call       26  2   2  
0A3B  98460000           [094] test       26      1    ; to [96] if false
0A3F  1AC00180           [095] jmp        8            ; to [104]
0A43  8EC6C30C           [096] gettable   26  25  271  ; "mItemType"
0A47  A446420D           [097] self       26  26  265  ; -1957065004
0A4B  12070006           [098] move       28  12     
0A4F  A2868001           [099] call       26  3   2  
0A53  98060000           [100] test       26      0    ; to [102] if true
0A57  1A400080           [101] jmp        2            ; to [104]
0A5B  97028000           [102] loadbool   10  1   0    ; true
0A5F  1A400080           [103] jmp        2            ; to [106]
0A63  16850000           [104] tforloop   20      2    ; to [106] if exit
0A67  1AC0FA7F           [105] jmp        -20          ; to [86]
0A6B  98420000           [106] test       10      1    ; to [108] if false
0A6F  1A800280           [107] jmp        11           ; to [119]
0A73  8B860000           [108] newtable   26  0   2    ; array=0, hash=2
0A77  8C86C68C           [109] settable   26  281 282  ; "text" "/Lotus/Language/Menu/MissionNeedItemSolo"
0A7B  DD060700           [110] getglobal  27  28       ; -421772368
0A7F  1D470700           [111] getglobal  28  29       ; -1615931716
0A83  6487C704           [112] self       29  9   286  ; 1634497718
0A87  62070001           [113] call       29  2   0  
0A8B  22870000           [114] call       28  0   2  
0A8F  57070000           [115] loadbool   29  0   0    ; false
0A93  E2868001           [116] call       27  3   2  
0A97  8CC6868D           [117] settable   26  283 27   ; "ITEM"
0A9B  9E060001           [118] return     26  2      
0A9F  8A068000           [119] len        26  1      
fail op	33
0AA3  21800604           [120] tforloop   0       26   ; to [122] if exit
0AA7  1A800480           [121] jmp        19           ; to [141]
0AAB  8E068200           [122] gettable   26  1   8  
fail op	21
0AAF  15800687           [123] concat     0   270 26 
0AB3  1AC00380           [124] jmp        16           ; to [141]
0AB7  8E068200           [125] gettable   26  1   8  
fail op	21
0ABB  15808605           [126] concat     0   11  26 
0ABF  1A000380           [127] jmp        13           ; to [141]
0AC3  8BC60000           [128] newtable   26  0   3    ; array=0, hash=3
0AC7  8CC6C78C           [129] settable   26  281 287  ; "text" "/Lotus/Language/Menu/MissionNeedItemQuantitySolo"
0ACB  DD060700           [130] getglobal  27  28       ; -421772368
0ACF  1D470700           [131] getglobal  28  29       ; -1615931716
0AD3  6487C704           [132] self       29  9   286  ; 1634497718
0AD7  62070001           [133] call       29  2   0  
0ADB  22870000           [134] call       28  0   2  
0ADF  57070000           [135] loadbool   29  0   0    ; false
0AE3  E2868001           [136] call       27  3   2  
0AE7  8CC6868D           [137] settable   26  283 27   ; "ITEM"
0AEB  CE068200           [138] gettable   27  1   8  
0AEF  8CC60690           [139] settable   26  288 27   ; "value"
0AF3  9E060001           [140] return     26  2      
0AF7  56810000           [141] tforloop   5       2    ; to [143] if exit
0AFB  1AC0DF7F           [142] jmp        -128         ; to [15]
0AFF  1E008000           [143] return     0   1      
                         * constants:
0B03  21                 sizek (33)
0B04  04                 const type 4
0B05  12                 string size (18)
0B06  67506C6179657250+  "gPlayerP"
0B0E  726F66696C654D67+  "rofileMg"
0B16  7200               "r\0"
                         const [0]: "gPlayerProfileMgr"
0B18  01                 const type 3
0B19  1A7BEF21           const [1]: (569342746)
0B1D  03                 const type 3
0B1E  00000000           const [2]: (0)
0B22  01                 const type 3
0B23  92104F65           const [3]: (1699680402)
0B27  01                 const type 3
0B28  7FDE0B03           const [4]: (51109503)
0B2C  01                 const type 3
0B2D  313BA063           const [5]: (1671445297)
0B31  01                 const type 3
0B32  0791B063           const [6]: (1672515847)
0B36  01                 const type 3
0B37  70BE7730           const [7]: (813153904)
0B3B  01                 const type 3
0B3C  65770E40           const [8]: (1074689893)
0B40  01                 const type 3
0B41  D48E598B           const [9]: (-1957065004)
0B45  04                 const type 4
0B46  12                 string size (18)
0B47  674D697363497465+  "gMiscIte"
0B4F  6D42617365547970+  "mBaseTyp"
0B57  6500               "e\0"
                         const [10]: "gMiscItemBaseType"
0B59  04                 const type 4
0B5A  0A                 string size (10)
0B5B  6747616D65446174+  "gGameDat"
0B63  6100               "a\0"
                         const [11]: "gGameData"
0B65  01                 const type 3
0B66  FD052E6F           const [12]: (1865287165)
0B6A  01                 const type 3
0B6B  BF61AB44           const [13]: (1152082367)
0B6F  03                 const type 3
0B70  0000803F           const [14]: (0)
0B74  04                 const type 4
0B75  0A                 string size (10)
0B76  6D4974656D547970+  "mItemTyp"
0B7E  6500               "e\0"
                         const [15]: "mItemType"
0B80  04                 const type 4
0B81  0B                 string size (11)
0B82  6D4974656D436F75+  "mItemCou"
0B8A  6E7400             "nt\0"
                         const [16]: "mItemCount"
0B8D  04                 const type 4
0B8E  0B                 string size (11)
0B8F  4C6F7475735F4761+  "Lotus_Ga"
0B97  6D6500             "me\0"
                         const [17]: "Lotus_Game"
0B9A  04                 const type 4
0B9B  0A                 string size (10)
0B9C  535549545F534C4F+  "SUIT_SLO"
0BA4  5400               "T\0"
                         const [18]: "SUIT_SLOT"
0BA6  04                 const type 4
0BA7  0C                 string size (12)
0BA8  504953544F4C5F53+  "PISTOL_S"
0BB0  4C4F5400           "LOT\0"
                         const [19]: "PISTOL_SLOT"
0BB4  04                 const type 4
0BB5  0E                 string size (14)
0BB6  4C4F4E475F47554E+  "LONG_GUN"
0BBE  5F534C4F5400       "_SLOT\0"
                         const [20]: "LONG_GUN_SLOT"
0BC4  04                 const type 4
0BC5  0B                 string size (11)
0BC6  4D454C45455F534C+  "MELEE_SL"
0BCE  4F5400             "OT\0"
                         const [21]: "MELEE_SLOT"
0BD1  01                 const type 3
0BD2  17DDCF0E           const [22]: (248503575)
0BD6  01                 const type 3
0BD7  95B00062           const [23]: (1644212373)
0BDB  04                 const type 4
0BDC  0B                 string size (11)
0BDD  4C4F545F4E4F524D+  "LOT_NORM"
0BE5  414C00             "AL\0"
                         const [24]: "LOT_NORMAL"
0BE8  04                 const type 4
0BE9  05                 string size (5)
0BEA  7465787400         "text\0"
                         const [25]: "text"
0BEF  04                 const type 4
0BF0  29                 string size (41)
0BF1  2F4C6F7475732F4C+  "/Lotus/L"
0BF9  616E67756167652F+  "anguage/"
0C01  4D656E752F4D6973+  "Menu/Mis"
0C09  73696F6E4E656564+  "sionNeed"
0C11  4974656D536F6C6F+  "ItemSolo"
0C19  00                 "\0"
                         const [26]: "/Lotus/Language/Menu/MissionNeedItemSolo"
0C1A  04                 const type 4
0C1B  05                 string size (5)
0C1C  4954454D00         "ITEM\0"
                         const [27]: "ITEM"
0C21  01                 const type 3
0C22  B043DCE6           const [28]: (-421772368)
0C26  01                 const type 3
0C27  BCD6AE9F           const [29]: (-1615931716)
0C2B  01                 const type 3
0C2C  B6746C61           const [30]: (1634497718)
0C30  04                 const type 4
0C31  31                 string size (49)
0C32  2F4C6F7475732F4C+  "/Lotus/L"
0C3A  616E67756167652F+  "anguage/"
0C42  4D656E752F4D6973+  "Menu/Mis"
0C4A  73696F6E4E656564+  "sionNeed"
0C52  4974656D5175616E+  "ItemQuan"
0C5A  74697479536F6C6F+  "titySolo"
0C62  00                 "\0"
                         const [31]: "/Lotus/Language/Menu/MissionNeedItemQuantitySolo"
0C63  04                 const type 4
0C64  06                 string size (6)
0C65  76616C756500       "value\0"
                         const [32]: "value"
                         * functions:
0C6B  00                 sizep (0)
                         * lines:
0C6D  01                 sizelineinfo (143)
                         [pc] (line)
0C6E  3C                 [001] (60)
0C6F  00                 [002] (60)
0C70  00                 [003] (60)
0C71  00                 [004] (60)
0C72  3C                 [005] (60)
0C73  00                 [006] (60)
0C74  00                 [007] (61)
0C75  00                 [008] (61)
0C76  3C                 [009] (62)
0C77  00                 [010] (62)
0C78  00                 [011] (66)
0C79  00                 [012] (66)
0C7A  3C                 [013] (66)
0C7B  00                 [014] (66)
0C7C  00                 [015] (67)
0C7D  00                 [016] (68)
0C7E  3C                 [017] (69)
0C7F  00                 [018] (69)
0C80  00                 [019] (70)
0C81  00                 [020] (70)
0C82  3C                 [021] (70)
0C83  00                 [022] (70)
0C84  00                 [023] (70)
0C85  00                 [024] (71)
0C86  3D                 [025] (71)
0C87  00                 [026] (71)
0C88  00                 [027] (71)
0C89  00                 [028] (71)
0C8A  3D                 [029] (71)
0C8B  00                 [030] (71)
0C8C  00                 [031] (71)
0C8D  00                 [032] (71)
0C8E  3E                 [033] (71)
0C8F  00                 [034] (71)
0C90  00                 [035] (71)
0C91  00                 [036] (71)
0C92  3E                 [037] (72)
0C93  00                 [038] (75)
0C94  00                 [039] (75)
0C95  00                 [040] (76)
0C96  42                 [041] (76)
0C97  00                 [042] (76)
0C98  00                 [043] (76)
0C99  00                 [044] (77)
0C9A  42                 [045] (78)
0C9B  00                 [046] (80)
0C9C  00                 [047] (80)
0C9D  00                 [048] (80)
0C9E  42                 [049] (81)
0C9F  00                 [050] (81)
0CA0  00                 [051] (81)
0CA1  00                 [052] (81)
0CA2  42                 [053] (81)
0CA3  00                 [054] (82)
0CA4  00                 [055] (83)
0CA5  00                 [056] (84)
0CA6  43                 [057] (86)
0CA7  00                 [058] (86)
0CA8  00                 [059] (86)
0CA9  00                 [060] (86)
0CAA  44                 [061] (86)
0CAB  00                 [062] (86)
0CAC  00                 [063] (86)
0CAD  00                 [064] (86)
0CAE  45                 [065] (86)
0CAF  00                 [066] (86)
0CB0  00                 [067] (87)
0CB1  00                 [068] (88)
0CB2  45                 [069] (76)
0CB3  00                 [070] (94)
0CB4  00                 [071] (94)
0CB5  00                 [072] (95)
0CB6  46                 [073] (95)
0CB7  00                 [074] (95)
0CB8  00                 [075] (95)
0CB9  00                 [076] (95)
0CBA  46                 [077] (95)
0CBB  00                 [078] (95)
0CBC  00                 [079] (95)
0CBD  00                 [080] (95)
0CBE  46                 [081] (95)
0CBF  00                 [082] (96)
0CC0  00                 [083] (96)
0CC1  00                 [084] (96)
0CC2  46                 [085] (96)
0CC3  00                 [086] (97)
0CC4  00                 [087] (97)
0CC5  00                 [088] (97)
0CC6  46                 [089] (97)
0CC7  00                 [090] (97)
0CC8  00                 [091] (98)
0CC9  00                 [092] (98)
0CCA  47                 [093] (98)
0CCB  00                 [094] (98)
0CCC  00                 [095] (98)
0CCD  00                 [096] (98)
0CCE  47                 [097] (98)
0CCF  00                 [098] (98)
0CD0  00                 [099] (98)
0CD1  00                 [100] (98)
0CD2  47                 [101] (98)
0CD3  00                 [102] (99)
0CD4  00                 [103] (100)
0CD5  00                 [104] (96)
0CD6  47                 [105] (101)
0CD7  00                 [106] (105)
0CD8  00                 [107] (105)
0CD9  00                 [108] (106)
0CDA  47                 [109] (106)
0CDB  00                 [110] (106)
0CDC  00                 [111] (106)
0CDD  00                 [112] (106)
0CDE  47                 [113] (106)
0CDF  00                 [114] (106)
0CE0  00                 [115] (106)
0CE1  00                 [116] (106)
0CE2  47                 [117] (106)
0CE3  00                 [118] (106)
0CE4  00                 [119] (109)
0CE5  00                 [120] (109)
0CE6  47                 [121] (109)
0CE7  00                 [122] (109)
0CE8  00                 [123] (109)
0CE9  00                 [124] (109)
0CEA  47                 [125] (109)
0CEB  00                 [126] (109)
0CEC  00                 [127] (109)
0CED  00                 [128] (110)
0CEE  47                 [129] (110)
0CEF  00                 [130] (110)
0CF0  00                 [131] (110)
0CF1  00                 [132] (110)
0CF2  47                 [133] (110)
0CF3  00                 [134] (110)
0CF4  00                 [135] (110)
0CF5  00                 [136] (110)
0CF6  47                 [137] (110)
0CF7  00                 [138] (110)
0CF8  00                 [139] (110)
0CF9  00                 [140] (110)
0CFA  47                 [141] (66)
0CFB  00                 [142] (112)
0CFC  00                 [143] (114)
                         * locals:
0EAA  00                 sizelocvars (0)
                         * upvalues:
0EAB  00                 sizeupvalues (0)
                         ** end of function **

                         
0EAC                     ** function [3] definition (level 2)
                         ** start of function **
0EAC  00                 string size (0)
                         source name: (none)
0EAD  74                 line defined (116)
0EAE  B5                 last line defined (181)
0EAF  01                 nups (4)
0EB0  04                 numparams (2)
0EB1  02                 is_vararg (0)
0EB2  00                 maxstacksize (37)
                         * code:
0EB5  01                 sizecode (160)
0EB6  9D000000           [001] getglobal  2   0        ; gMatchingService
0EBA  A4404001           [002] self       2   2   257  ; -1985412809
0EBE  A2800001           [003] call       2   2   2  
0EC2  DD800000           [004] getglobal  3   2        ; 1074689893
0EC6  12010001           [005] move       4   2      
0ECA  E2800001           [006] call       3   2   2  
0ECE  D8400000           [007] test       3       1    ; to [9] if false
0ED2  1A800080           [008] jmp        3            ; to [12]
0ED6  CA000001           [009] len        3   2      
fail op	33
0EDA  21C0C001           [010] tforloop   0       259  ; to [12] if exit
0EDE  1AC00180           [011] jmp        8            ; to [20]
0EE2  D3000000           [012] getupval   3   0      
0EE6  12010000           [013] move       4   0      
0EEA  52018000           [014] move       5   1      
0EEE  E2808001           [015] call       3   3   2  
0EF2  D8000000           [016] test       3       0    ; to [18] if true
0EF6  1A402380           [017] jmp        142          ; to [160]
0EFA  DE000001           [018] return     3   2      
0EFE  1AC02280           [019] jmp        140          ; to [160]
0F02  1D010100           [020] getglobal  4   4        ; 1672515847
0F06  52010001           [021] move       5   2      
0F0A  22010101           [022] call       4   2   4  
0F0E  1A402180           [023] jmp        134          ; to [158]
0F12  5D420100           [024] getglobal  9   5        ; cjson
0F16  4E82C104           [025] gettable   9   9   262  ; -1976663275
0F1A  8EC24104           [026] gettable   10  8   263  ; "loadout"
0F1E  62820001           [027] call       9   2   2  
0F22  9D020100           [028] getglobal  10  4        ; 1672515847
0F26  D2020000           [029] move       11  0      
0F2A  A2020101           [030] call       10  2   4  
0F2E  1AC01E80           [031] jmp        124          ; to [156]
0F32  D7030000           [032] loadbool   15  0   0    ; false
0F36  24044207           [033] self       16  14  264  ; 813153904
0F3A  22840001           [034] call       16  2   2  
0F3E  5D840000           [035] getglobal  17  2        ; 1074689893
0F42  92040008           [036] move       18  16     
0F46  62840001           [037] call       17  2   2  
0F4A  58440000           [038] test       17      1    ; to [40] if false
0F4E  1AC01C80           [039] jmp        116          ; to [156]
0F52  64444208           [040] self       17  16  265  ; -1957065004
0F56  D3048000           [041] getupval   19  1      
0F5A  62848001           [042] call       17  3   2  
0F5E  58040000           [043] test       17      0    ; to [45] if true
0F62  1A400080           [044] jmp        2            ; to [47]
0F66  CE83C204           [045] gettable   15  9   266  ; "HasFissureum"
0F6A  1A001B80           [046] jmp        109          ; to [156]
0F6E  D8430000           [047] test       15      1    ; to [49] if false
0F72  1A800780           [048] jmp        31           ; to [80]
0F76  99C40000           [049] loadk      18  3        ; 0
0F7A  CEC4C204           [050] gettable   19  9   267  ; "Consumables"
0F7E  CA048009           [051] len        19  19     
0F82  19C50000           [052] loadk      20  3        ; 0
0F86  90040680           [053] forprep    18  25       ; to [79]
0F8A  9D050300           [054] getglobal  22  12       ; 738251817
0F8E  CEC5C204           [055] gettable   23  9   267  ; "Consumables"
0F92  CE45850B           [056] gettable   23  23  21 
0F96  A2850001           [057] call       22  2   2  
0F9A  D3050001           [058] getupval   23  2      
fail op	35
0F9E  23C00508           [059] close      0  
0FA2  1A800180           [060] jmp        7            ; to [68]
fail op	35
0FA6  6300040B           [061] close      1  
0FAA  1A800080           [062] jmp        3            ; to [66]
0FAE  D3058001           [063] getupval   23  3      
fail op	35
0FB2  23C0050B           [064] close      0  
0FB6  1A000380           [065] jmp        13           ; to [79]
0FBA  D7038000           [066] loadbool   15  1   0    ; true
0FBE  1A800280           [067] jmp        11           ; to [79]
0FC2  DD850000           [068] getglobal  23  2        ; 1074689893
0FC6  1206000B           [069] move       24  22     
0FCA  E2850001           [070] call       23  2   2  
0FCE  D8450000           [071] test       23      1    ; to [73] if false
0FD2  1A400180           [072] jmp        6            ; to [79]
0FD6  E445420B           [073] self       23  22  265  ; -1957065004
0FDA  52060008           [074] move       25  16     
0FDE  E2858001           [075] call       23  3   2  
0FE2  D8050000           [076] test       23      0    ; to [78] if true
0FE6  1A000080           [077] jmp        1            ; to [79]
0FEA  D7038000           [078] loadbool   15  1   0    ; true
0FEE  9444F97F           [079] forloop    18  -26      ; to [54] if loop
0FF2  D8430000           [080] test       15      1    ; to [82] if false
0FF6  1A000A80           [081] jmp        41           ; to [123]
0FFA  CE45C304           [082] gettable   23  9   269  ; "NORMAL"
0FFE  0B068002           [083] newtable   24  5   0    ; array=5, hash=0
1002  5D860300           [084] getglobal  25  14       ; Lotus_Game
1006  4EC6C30C           [085] gettable   25  25  271  ; "SUIT_SLOT"
100A  9D860300           [086] getglobal  26  14       ; Lotus_Game
100E  8E06440D           [087] gettable   26  26  272  ; "PISTOL_SLOT"
1012  DD860300           [088] getglobal  27  14       ; Lotus_Game
1016  CE46C40D           [089] gettable   27  27  273  ; "LONG_GUN_SLOT"
101A  1D870300           [090] getglobal  28  14       ; Lotus_Game
101E  0E87440E           [091] gettable   28  28  274  ; "MELEE_SLOT"
1022  5D870300           [092] getglobal  29  14       ; Lotus_Game
1026  4EC7C40E           [093] gettable   29  29  275  ; "HEAVY_GUN_SLOT"
102A  1B468002           [094] setlist    24  5   1    ; index 1 to 5
102E  5D060500           [095] getglobal  25  20       ; 248503575
1032  9206000C           [096] move       26  24     
1036  62060101           [097] call       25  2   4  
103A  1A400580           [098] jmp        22           ; to [121]
103E  83C7C00E           [099] add        30  29  259  ; 0
1042  8E87870B           [100] gettable   30  23  30 
1046  DD870000           [101] getglobal  31  2        ; 1074689893
104A  0E48450F           [102] gettable   32  30  277  ; "ItemType"
104E  E2870001           [103] call       31  2   2  
1052  D8470000           [104] test       31      1    ; to [106] if false
1056  1A800380           [105] jmp        15           ; to [121]
105A  DD070300           [106] getglobal  31  12       ; 738251817
105E  0E48450F           [107] gettable   32  30  277  ; "ItemType"
1062  E2870001           [108] call       31  2   2  
1066  1D880000           [109] getglobal  32  2        ; 1074689893
106A  5208800F           [110] move       33  31     
106E  22880001           [111] call       32  2   2  
1072  18480000           [112] test       32      1    ; to [114] if false
1076  1A800180           [113] jmp        7            ; to [121]
107A  2448C20F           [114] self       32  31  265  ; -1957065004
107E  92080008           [115] move       34  16     
1082  22888001           [116] call       32  3   2  
1086  18080000           [117] test       32      0    ; to [119] if true
108A  1A400080           [118] jmp        2            ; to [121]
108E  D7038000           [119] loadbool   15  1   0    ; true
1092  1A400080           [120] jmp        2            ; to [123]
1096  56860000           [121] tforloop   25      2    ; to [123] if exit
109A  1AC0F97F           [122] jmp        -24          ; to [99]
109E  D8430000           [123] test       15      1    ; to [125] if false
10A2  1A800780           [124] jmp        31           ; to [156]
10A6  0A080001           [125] len        32  2      
fail op	35
10AA  63C04010           [126] close      1  
10AE  1A800080           [127] jmp        3            ; to [131]
10B2  0E884504           [128] gettable   32  8   278  ; "isLocal"
10B6  18080000           [129] test       32      0    ; to [131] if true
10BA  1AC00280           [130] jmp        12           ; to [143]
10BE  0B880000           [131] newtable   32  0   2    ; array=0, hash=2
10C2  0C08C68B           [132] settable   32  279 280  ; "text" "/Lotus/Language/Menu/MissionNeedItemSolo"
10C6  5D880600           [133] getglobal  33  26       ; -421772368
10CA  9DC80600           [134] getglobal  34  27       ; -1615931716
10CE  E4084707           [135] self       35  14  284  ; 1634497718
10D2  E2080001           [136] call       35  2   0  
10D6  A2880000           [137] call       34  0   2  
10DA  D7080000           [138] loadbool   35  0   0    ; false
10DE  62888001           [139] call       33  3   2  
10E2  0C48888C           [140] settable   32  281 33   ; "ITEM"
10E6  1E080001           [141] return     32  2      
10EA  1A000380           [142] jmp        13           ; to [156]
10EE  0BC80000           [143] newtable   32  0   3    ; array=0, hash=3
10F2  0C48C78B           [144] settable   32  279 285  ; "text" "/Lotus/Language/Menu/MissionNeedItemSquad"
10F6  4EC84704           [145] gettable   33  8   287  ; "name"
10FA  0C48088F           [146] settable   32  286 33   ; "player"
10FE  5D880600           [147] getglobal  33  26       ; -421772368
1102  9DC80600           [148] getglobal  34  27       ; -1615931716
1106  E4084707           [149] self       35  14  284  ; 1634497718
110A  E2080001           [150] call       35  2   0  
110E  A2880000           [151] call       34  0   2  
1112  D7080000           [152] loadbool   35  0   0    ; false
1116  62888001           [153] call       33  3   2  
111A  0C48888C           [154] settable   32  281 33   ; "ITEM"
111E  1E080001           [155] return     32  2      
1122  96820000           [156] tforloop   10      2    ; to [158] if exit
1126  1A40E07F           [157] jmp        -126         ; to [32]
112A  16810000           [158] tforloop   4       2    ; to [160] if exit
112E  1AC0DD7F           [159] jmp        -136         ; to [24]
1132  1E008000           [160] return     0   1      
                         * constants:
1136  20                 sizek (32)
1137  04                 const type 4
1138  11                 string size (17)
1139  674D61746368696E+  "gMatchin"
1141  6753657276696365+  "gService"
1149  00                 "\0"
                         const [0]: "gMatchingService"
114A  01                 const type 3
114B  3701A989           const [1]: (-1985412809)
114F  01                 const type 3
1150  65770E40           const [2]: (1074689893)
1154  03                 const type 3
1155  0000803F           const [3]: (0)
1159  01                 const type 3
115A  0791B063           const [4]: (1672515847)
115E  04                 const type 4
115F  06                 string size (6)
1160  636A736F6E00       "cjson\0"
                         const [5]: "cjson"
1166  01                 const type 3
1167  15832E8A           const [6]: (-1976663275)
116B  04                 const type 4
116C  08                 string size (8)
116D  6C6F61646F757400   "loadout\0"
                         const [7]: "loadout"
1175  01                 const type 3
1176  70BE7730           const [8]: (813153904)
117A  01                 const type 3
117B  D48E598B           const [9]: (-1957065004)
117F  04                 const type 4
1180  0D                 string size (13)
1181  4861734669737375+  "HasFissu"
1189  7265756D00         "reum\0"
                         const [10]: "HasFissureum"
118E  04                 const type 4
118F  0C                 string size (12)
1190  436F6E73756D6162+  "Consumab"
1198  6C657300           "les\0"
                         const [11]: "Consumables"
119C  01                 const type 3
119D  29D4002C           const [12]: (738251817)
11A1  04                 const type 4
11A2  07                 string size (7)
11A3  4E4F524D414C00     "NORMAL\0"
                         const [13]: "NORMAL"
11AA  04                 const type 4
11AB  0B                 string size (11)
11AC  4C6F7475735F4761+  "Lotus_Ga"
11B4  6D6500             "me\0"
                         const [14]: "Lotus_Game"
11B7  04                 const type 4
11B8  0A                 string size (10)
11B9  535549545F534C4F+  "SUIT_SLO"
11C1  5400               "T\0"
                         const [15]: "SUIT_SLOT"
11C3  04                 const type 4
11C4  0C                 string size (12)
11C5  504953544F4C5F53+  "PISTOL_S"
11CD  4C4F5400           "LOT\0"
                         const [16]: "PISTOL_SLOT"
11D1  04                 const type 4
11D2  0E                 string size (14)
11D3  4C4F4E475F47554E+  "LONG_GUN"
11DB  5F534C4F5400       "_SLOT\0"
                         const [17]: "LONG_GUN_SLOT"
11E1  04                 const type 4
11E2  0B                 string size (11)
11E3  4D454C45455F534C+  "MELEE_SL"
11EB  4F5400             "OT\0"
                         const [18]: "MELEE_SLOT"
11EE  04                 const type 4
11EF  0F                 string size (15)
11F0  48454156595F4755+  "HEAVY_GU"
11F8  4E5F534C4F5400     "N_SLOT\0"
                         const [19]: "HEAVY_GUN_SLOT"
11FF  01                 const type 3
1200  17DDCF0E           const [20]: (248503575)
1204  04                 const type 4
1205  09                 string size (9)
1206  4974656D54797065+  "ItemType"
120E  00                 "\0"
                         const [21]: "ItemType"
120F  04                 const type 4
1210  08                 string size (8)
1211  69734C6F63616C00   "isLocal\0"
                         const [22]: "isLocal"
1219  04                 const type 4
121A  05                 string size (5)
121B  7465787400         "text\0"
                         const [23]: "text"
1220  04                 const type 4
1221  29                 string size (41)
1222  2F4C6F7475732F4C+  "/Lotus/L"
122A  616E67756167652F+  "anguage/"
1232  4D656E752F4D6973+  "Menu/Mis"
123A  73696F6E4E656564+  "sionNeed"
1242  4974656D536F6C6F+  "ItemSolo"
124A  00                 "\0"
                         const [24]: "/Lotus/Language/Menu/MissionNeedItemSolo"
124B  04                 const type 4
124C  05                 string size (5)
124D  4954454D00         "ITEM\0"
                         const [25]: "ITEM"
1252  01                 const type 3
1253  B043DCE6           const [26]: (-421772368)
1257  01                 const type 3
1258  BCD6AE9F           const [27]: (-1615931716)
125C  01                 const type 3
125D  B6746C61           const [28]: (1634497718)
1261  04                 const type 4
1262  2A                 string size (42)
1263  2F4C6F7475732F4C+  "/Lotus/L"
126B  616E67756167652F+  "anguage/"
1273  4D656E752F4D6973+  "Menu/Mis"
127B  73696F6E4E656564+  "sionNeed"
1283  4974656D53717561+  "ItemSqua"
128B  6400               "d\0"
                         const [29]: "/Lotus/Language/Menu/MissionNeedItemSquad"
128D  04                 const type 4
128E  07                 string size (7)
128F  706C6179657200     "player\0"
                         const [30]: "player"
1296  04                 const type 4
1297  05                 string size (5)
1298  6E616D6500         "name\0"
                         const [31]: "name"
                         * functions:
129D  00                 sizep (0)
                         * lines:
129F  01                 sizelineinfo (160)
                         [pc] (line)
12A0  77                 [001] (119)
12A1  00                 [002] (119)
12A2  00                 [003] (119)
12A3  00                 [004] (120)
12A4  77                 [005] (120)
12A5  00                 [006] (120)
12A6  00                 [007] (120)
12A7  00                 [008] (120)
12A8  77                 [009] (120)
12A9  00                 [010] (120)
12AA  00                 [011] (120)
12AB  00                 [012] (121)
12AC  78                 [013] (121)
12AD  00                 [014] (121)
12AE  00                 [015] (121)
12AF  00                 [016] (122)
12B0  78                 [017] (122)
12B1  00                 [018] (123)
12B2  00                 [019] (124)
12B3  00                 [020] (126)
12B4  78                 [021] (126)
12B5  00                 [022] (126)
12B6  00                 [023] (126)
12B7  00                 [024] (127)
12B8  78                 [025] (127)
12B9  00                 [026] (127)
12BA  00                 [027] (127)
12BB  00                 [028] (-127)
12BC  78                 [029] (-127)
12BD  00                 [030] (-127)
12BE  00                 [031] (-127)
12BF  00                 [032] (-126)
12C0  78                 [033] (-125)
12C1  00                 [034] (-125)
12C2  00                 [035] (-124)
12C3  00                 [036] (-124)
12C4  78                 [037] (-124)
12C5  00                 [038] (-124)
12C6  00                 [039] (-124)
12C7  00                 [040] (-123)
12C8  78                 [041] (-123)
12C9  00                 [042] (-123)
12CA  00                 [043] (-122)
12CB  00                 [044] (-122)
12CC  79                 [045] (-121)
12CD  00                 [046] (-121)
12CE  00                 [047] (-119)
12CF  00                 [048] (-119)
12D0  79                 [049] (-118)
12D1  00                 [050] (-118)
12D2  00                 [051] (-118)
12D3  00                 [052] (-118)
12D4  79                 [053] (-118)
12D5  00                 [054] (-117)
12D6  00                 [055] (-117)
12D7  00                 [056] (-117)
12D8  79                 [057] (-117)
12D9  00                 [058] (-115)
12DA  00                 [059] (-115)
12DB  00                 [060] (-115)
12DC  7A                 [061] (-114)
12DD  00                 [062] (-114)
12DE  00                 [063] (-114)
12DF  00                 [064] (-114)
12E0  7A                 [065] (-114)
12E1  00                 [066] (-113)
12E2  00                 [067] (-112)
12E3  00                 [068] (-110)
12E4  7B                 [069] (-110)
12E5  00                 [070] (-110)
12E6  00                 [071] (-110)
12E7  00                 [072] (-110)
12E8  7C                 [073] (-110)
12E9  00                 [074] (-110)
12EA  00                 [075] (-110)
12EB  00                 [076] (-110)
12EC  7E                 [077] (-110)
12ED  00                 [078] (-109)
12EE  00                 [079] (-118)
12EF  00                 [080] (-103)
12F0  7E                 [081] (-103)
12F1  00                 [082] (-101)
12F2  00                 [083] (-100)
12F3  00                 [084] (-100)
12F4  7E                 [085] (-100)
12F5  00                 [086] (-100)
12F6  00                 [087] (-100)
12F7  00                 [088] (-100)
12F8  7E                 [089] (-100)
12F9  00                 [090] (-100)
12FA  00                 [091] (-100)
12FB  00                 [092] (-100)
12FC  7F                 [093] (-100)
12FD  00                 [094] (-100)
12FE  00                 [095] (-99)
12FF  00                 [096] (-99)
1300  7F                 [097] (-99)
1301  00                 [098] (-99)
1302  00                 [099] (-98)
1303  00                 [100] (-98)
1304  7F                 [101] (-97)
1305  00                 [102] (-97)
1306  00                 [103] (-97)
1307  00                 [104] (-97)
1308  7F                 [105] (-97)
1309  00                 [106] (-96)
130A  00                 [107] (-96)
130B  00                 [108] (-96)
130C  81                 [109] (-95)
130D  00                 [110] (-95)
130E  00                 [111] (-95)
130F  00                 [112] (-95)
1310  81                 [113] (-95)
1311  00                 [114] (-95)
1312  00                 [115] (-95)
1313  00                 [116] (-95)
1314  81                 [117] (-95)
1315  00                 [118] (-95)
1316  00                 [119] (-94)
1317  00                 [120] (-93)
1318  81                 [121] (-99)
1319  00                 [122] (-91)
131A  00                 [123] (-87)
131B  00                 [124] (-87)
131C  82                 [125] (-86)
131D  00                 [126] (-86)
131E  00                 [127] (-86)
131F  00                 [128] (-86)
1320  83                 [129] (-86)
1321  00                 [130] (-86)
1322  00                 [131] (-85)
1323  00                 [132] (-85)
1324  83                 [133] (-85)
1325  00                 [134] (-85)
1326  00                 [135] (-85)
1327  00                 [136] (-85)
1328  84                 [137] (-85)
1329  00                 [138] (-85)
132A  00                 [139] (-85)
132B  00                 [140] (-85)
132C  84                 [141] (-85)
132D  00                 [142] (-85)
132E  00                 [143] (-83)
132F  00                 [144] (-83)
1330  84                 [145] (-83)
1331  00                 [146] (-83)
1332  00                 [147] (-83)
1333  00                 [148] (-83)
1334  84                 [149] (-83)
1335  00                 [150] (-83)
1336  00                 [151] (-83)
1337  00                 [152] (-83)
1338  84                 [153] (-83)
1339  00                 [154] (-83)
133A  00                 [155] (-83)
133B  00                 [156] (-127)
133C  85                 [157] (-79)
133D  00                 [158] (126)
133E  00                 [159] (-78)
133F  00                 [160] (-75)
                         * locals:
1520  00                 sizelocvars (0)
                         * upvalues:
1521  00                 sizeupvalues (0)
                         ** end of function **

                         
1522                     ** function [4] definition (level 2)
                         ** start of function **
1522  00                 string size (0)
                         source name: (none)
1524  01                 line defined (183)
1525  B9                 last line defined (185)
1526  01                 nups (1)
1527  01                 numparams (2)
1528  02                 is_vararg (0)
1529  00                 maxstacksize (5)
                         * code:
152B  06                 sizecode (6)
152C  93000000           [1] getupval   2   0      
1530  D2000000           [2] move       3   0      
1534  12018000           [3] move       4   1      
1538  87008001           [4] tailcall   2   3   0  
153C  9E000000           [5] return     2   0      
1540  1E008000           [6] return     0   1      
                         * constants:
1544  00                 sizek (0)
                         * functions:
1545  00                 sizep (0)
                         * lines:
1546  06                 sizelineinfo (6)
                         [pc] (line)
1547  B8                 [1] (-72)
1548  00                 [2] (-72)
1549  00                 [3] (-72)
154A  00                 [4] (-72)
154B  B8                 [5] (-72)
154C  00                 [6] (-71)
                         * locals:
155F  00                 sizelocvars (0)
                         * upvalues:
1560  00                 sizeupvalues (0)
                         ** end of function **

                         
1561                     ** function [5] definition (level 2)
                         ** start of function **
1561  00                 string size (0)
                         source name: (none)
1563  01                 line defined (188)
1564  86                 last line defined (262)
1565  02                 nups (2)
1566  02                 numparams (3)
1567  03                 is_vararg (0)
1568  00                 maxstacksize (37)
                         * code:
156B  01                 sizecode (167)
156C  D7000000           [001] loadbool   3   0   0    ; false
1570  D8000000           [002] test       3       0    ; to [4] if true
1574  1A400080           [003] jmp        2            ; to [6]
1578  DD000000           [004] getglobal  3   0        ; JCE_CAN_PLAY
157C  DE000001           [005] return     3   2      
1580  DD400000           [006] getglobal  3   1        ; gGameConfig
1584  E480C001           [007] self       3   3   258  ; -1430927072
1588  52010000           [008] move       5   0      
158C  E2808001           [009] call       3   3   2  
1590  1DC10000           [010] getglobal  4   3        ; 1074689893
1594  52018001           [011] move       5   3      
1598  22810001           [012] call       4   2   2  
159C  18410000           [013] test       4       1    ; to [15] if false
15A0  1A000180           [014] jmp        5            ; to [20]
15A4  1DC10000           [015] getglobal  4   3        ; 1074689893
15A8  5D010100           [016] getglobal  5   4        ; gGameData
15AC  22810001           [017] call       4   2   2  
15B0  18010000           [018] test       4       0    ; to [20] if true
15B4  1A400080           [019] jmp        2            ; to [22]
15B8  1D410100           [020] getglobal  4   5        ; JCE_ERROR
15BC  1E010001           [021] return     4   2      
15C0  1D810100           [022] getglobal  4   6        ; 2083004503
15C4  64C1C101           [023] self       5   3   263  ; -170068659
15C8  62010001           [024] call       5   2   0  
15CC  22810000           [025] call       4   0   2  
15D0  5DC10000           [026] getglobal  5   3        ; 1074689893
15D4  92010002           [027] move       6   4      
15D8  62810001           [028] call       5   2   2  
15DC  58010000           [029] test       5       0    ; to [31] if true
15E0  1A400080           [030] jmp        2            ; to [33]
15E4  5D410100           [031] getglobal  5   5        ; JCE_ERROR
15E8  5E010001           [032] return     5   2      
15EC  64014202           [033] self       5   4   264  ; 2113734225
15F0  62810001           [034] call       5   2   2  
15F4  99410200           [035] loadk      6   9        ; 0
15F8  CA018002           [036] len        7   5      
15FC  19420200           [037] loadk      8   9        ; 0
1600  90011F80           [038] forprep    6   125      ; to [164]
1604  8E428202           [039] gettable   10  5   9  
1608  CE824205           [040] gettable   11  10  266  ; "mLocationTag"
fail op	35
160C  23408005           [041] close      0  
1610  1A001E80           [042] jmp        121          ; to [164]
1614  D9C20200           [043] loadk      11  11       ; 0
1618  19430200           [044] loadk      12  9        ; 0
161C  4E034305           [045] gettable   13  10  268  ; "mJobs"
1620  4A038006           [046] len        13  13     
1624  99430200           [047] loadk      14  9        ; 0
1628  10431C80           [048] forprep    12  114      ; to [163]
162C  0E044305           [049] gettable   16  10  268  ; "mJobs"
1630  0EC40308           [050] gettable   16  16  15 
1634  5D040100           [051] getglobal  17  4        ; gGameData
1638  6444C308           [052] self       17  17  269  ; 478599573
163C  CE844205           [053] gettable   19  10  266  ; "mLocationTag"
1640  1D850300           [054] getglobal  20  14       ; 738251817
1644  4EC54308           [055] gettable   21  16  271  ; "mJobInfo"
1648  22050001           [056] call       20  2   0  
164C  62840000           [057] call       17  0   2  
1650  58040000           [058] test       17      0    ; to [60] if true
1654  1A000080           [059] jmp        1            ; to [61]
1658  C342C205           [060] add        11  11  265  ; 0
165C  4EC44308           [061] gettable   17  16  271  ; "mJobInfo"
fail op	35
1660  23808008           [062] close      0  
1664  1A801880           [063] jmp        99           ; to [163]
1668  4E044408           [064] gettable   17  16  272  ; "mMasteryReq"
166C  9D040100           [065] getglobal  18  4        ; gGameData
1670  A4444409           [066] self       18  18  273  ; 827662890
1674  A2840001           [067] call       18  2   2  
fail op	21
1678  15400409           [068] concat     0   18  17 
167C  1A800280           [069] jmp        11           ; to [81]
1680  5D840400           [070] getglobal  17  18       ; JCE_MASTERY_LOCKED
1684  9DC40400           [071] getglobal  18  19       ; -421772368
1688  D9040500           [072] loadk      19  20       ; "/Lotus/Language/OstronCrafting/JobBoard_MasteryLocked"
168C  0B450000           [073] newtable   20  0   1    ; array=0, hash=1
1690  53050000           [074] getupval   21  0      
1694  4E85C50A           [075] gettable   21  21  278  ; 2115597333
1698  8E054408           [076] gettable   22  16  272  ; "mMasteryReq"
169C  62850001           [077] call       21  2   2  
16A0  0C45858A           [078] settable   20  277 21   ; "RANK"
16A4  A2048001           [079] call       18  3   0  
16A8  5E040000           [080] return     17  0      
16AC  59C40200           [081] loadk      17  11       ; 0
16B0  9D040100           [082] getglobal  18  4        ; gGameData
16B4  A4C44509           [083] self       18  18  279  ; 1214140738
16B8  A2840001           [084] call       18  2   2  
16BC  D9440200           [085] loadk      19  9        ; 0
16C0  0A050009           [086] len        20  18     
16C4  59450200           [087] loadk      21  9        ; 0
16C8  D0840180           [088] forprep    19  7        ; to [96]
16CC  CE850509           [089] gettable   23  18  22 
16D0  CE05C60B           [090] gettable   23  23  280  ; "mTag"
fail op	35
16D4  2300800B           [091] close      0  
16D8  1A800080           [092] jmp        3            ; to [96]
16DC  CE850509           [093] gettable   23  18  22 
16E0  4E44C60B           [094] gettable   17  23  281  ; "mTitle"
16E4  1A000080           [095] jmp        1            ; to [97]
16E8  D4C4FD7F           [096] forloop    19  -8       ; to [89] if loop
16EC  CE854608           [097] gettable   23  16  282  ; "mSyndicateTitleReq"
fail op	21
16F0  15C08508           [098] concat     0   17  23 
16F4  1A400880           [099] jmp        34           ; to [134]
16F8  D9C50600           [100] loadk      23  27       ; ""
16FC  2406C701           [101] self       24  3   284  ; -250348069
1700  22860001           [102] call       24  2   2  
1704  5D460700           [103] getglobal  25  29       ; 248503575
1708  9206000C           [104] move       26  24     
170C  62060101           [105] call       25  2   4  
1710  1A000280           [106] jmp        9            ; to [116]
1714  8E87C70E           [107] gettable   30  29  286  ; "level"
1718  CE874608           [108] gettable   31  16  282  ; "mSyndicateTitleReq"
fail op	35
171C  23C0070F           [109] close      0  
1720  1A000180           [110] jmp        5            ; to [116]
1724  8EC7C70E           [111] gettable   30  29  287  ; "titleLoc"
1728  A407480F           [112] self       30  30  288  ; 1590141906
172C  A2870001           [113] call       30  2   2  
1730  D205000F           [114] move       23  30     
1734  1A400080           [115] jmp        2            ; to [118]
1738  56860000           [116] tforloop   25      2    ; to [118] if exit
173C  1A00FD7F           [117] jmp        -11          ; to [107]
1740  9DC70400           [118] getglobal  30  19       ; -421772368
1744  D9470800           [119] loadk      31  33       ; "/Lotus/Language/OstronCrafting/JobBoard_SyndicateTitleLocked"
1748  0B480000           [120] newtable   32  0   1    ; array=0, hash=1
174C  5DC80800           [121] getglobal  33  35       ; string
1750  4E08C910           [122] gettable   33  33  292  ; 1671193642
1754  9DC80400           [123] getglobal  34  19       ; -421772368
1758  D208800B           [124] move       35  23     
175C  06090012           [125] loadnil    36  36     
1760  A2088001           [126] call       34  3   0  
1764  62880000           [127] call       33  0   2  
1768  0C480891           [128] settable   32  290 33   ; "TITLE"
176C  A2878001           [129] call       30  3   2  
1770  D205000F           [130] move       23  30     
1774  9D470900           [131] getglobal  30  37       ; JCE_SYNDICATE_TITLE_LOCKED
1778  D207800B           [132] move       31  23     
177C  9E078001           [133] return     30  3      
1780  8D47C207           [134] sub        30  15  265  ; 0
fail op	21
1784  15808705           [135] concat     0   11  30 
1788  1A400180           [136] jmp        6            ; to [143]
178C  9D870900           [137] getglobal  30  38       ; JCE_CHAIN_PROGRESS_LOCKED
1790  DDC70400           [138] getglobal  31  19       ; -421772368
1794  19C80900           [139] loadk      32  39       ; "/Lotus/Language/OstronCrafting/JobBoard_ChainProgressLocked"
1798  4B080000           [140] newtable   33  0   0    ; array=0, hash=0
179C  E2078001           [141] call       31  3   0  
17A0  9E070000           [142] return     30  0      
17A4  8E074A08           [143] gettable   30  16  296  ; "mRequiredItems"
17A8  8A07000F           [144] len        30  30     
fail op	21
17AC  15808785           [145] concat     0   267 30 
17B0  1A400380           [146] jmp        14           ; to [161]
17B4  93078000           [147] getupval   30  1      
17B8  CE074A08           [148] gettable   31  16  296  ; "mRequiredItems"
17BC  A2870001           [149] call       30  2   2  
17C0  98070000           [150] test       30      0    ; to [152] if true
17C4  1A000280           [151] jmp        9            ; to [161]
17C8  DDC70400           [152] getglobal  31  19       ; -421772368
17CC  0E484A0F           [153] gettable   32  30  297  ; "text"
17D0  4B480000           [154] newtable   33  0   1    ; array=0, hash=1
17D4  8E884A0F           [155] gettable   34  30  298  ; "ITEM"
17D8  4C880895           [156] settable   33  298 34   ; "ITEM"
17DC  E2878001           [157] call       31  3   2  
17E0  1DC80A00           [158] getglobal  32  43       ; JCE_ITEM_LOCKED
17E4  5208800F           [159] move       33  31     
17E8  1E088001           [160] return     32  3      
17EC  1D080000           [161] getglobal  32  0        ; JCE_CAN_PLAY
17F0  1E080001           [162] return     32  2      
17F4  1403E37F           [163] forloop    12  -115     ; to [49] if loop
17F8  9441E07F           [164] forloop    6   -126     ; to [39] if loop
17FC  1D480100           [165] getglobal  32  5        ; JCE_ERROR
1800  1E080001           [166] return     32  2      
1804  1E008000           [167] return     0   1      
                         * constants:
1808  2C                 sizek (44)
1809  04                 const type 4
180A  0D                 string size (13)
180B  4A43455F43414E5F+  "JCE_CAN_"
1813  504C415900         "PLAY\0"
                         const [0]: "JCE_CAN_PLAY"
1818  04                 const type 4
1819  0C                 string size (12)
181A  6747616D65436F6E+  "gGameCon"
1822  66696700           "fig\0"
                         const [1]: "gGameConfig"
1826  01                 const type 3
1827  20C9B5AA           const [2]: (-1430927072)
182B  01                 const type 3
182C  65770E40           const [3]: (1074689893)
1830  04                 const type 4
1831  0A                 string size (10)
1832  6747616D65446174+  "gGameDat"
183A  6100               "a\0"
                         const [4]: "gGameData"
183C  04                 const type 4
183D  0A                 string size (10)
183E  4A43455F4552524F+  "JCE_ERRO"
1846  5200               "R\0"
                         const [5]: "JCE_ERROR"
1848  01                 const type 3
1849  5720287C           const [6]: (2083004503)
184D  01                 const type 3
184E  4DF5DCF5           const [7]: (-170068659)
1852  01                 const type 3
1853  5106FD7D           const [8]: (2113734225)
1857  03                 const type 3
1858  0000803F           const [9]: (0)
185C  04                 const type 4
185D  0D                 string size (13)
185E  6D4C6F636174696F+  "mLocatio"
1866  6E54616700         "nTag\0"
                         const [10]: "mLocationTag"
186B  03                 const type 3
186C  00000000           const [11]: (0)
1870  04                 const type 4
1871  06                 string size (6)
1872  6D4A6F627300       "mJobs\0"
                         const [12]: "mJobs"
1878  01                 const type 3
1879  95D9861C           const [13]: (478599573)
187D  01                 const type 3
187E  29D4002C           const [14]: (738251817)
1882  04                 const type 4
1883  09                 string size (9)
1884  6D4A6F62496E666F+  "mJobInfo"
188C  00                 "\0"
                         const [15]: "mJobInfo"
188D  04                 const type 4
188E  0C                 string size (12)
188F  6D4D617374657279+  "mMastery"
1897  52657100           "Req\0"
                         const [16]: "mMasteryReq"
189B  01                 const type 3
189C  2A225531           const [17]: (827662890)
18A0  04                 const type 4
18A1  13                 string size (19)
18A2  4A43455F4D415354+  "JCE_MAST"
18AA  4552595F4C4F434B+  "ERY_LOCK"
18B2  454400             "ED\0"
                         const [18]: "JCE_MASTERY_LOCKED"
18B5  01                 const type 3
18B6  B043DCE6           const [19]: (-421772368)
18BA  04                 const type 4
18BB  36                 string size (54)
18BC  2F4C6F7475732F4C+  "/Lotus/L"
18C4  616E67756167652F+  "anguage/"
18CC  4F7374726F6E4372+  "OstronCr"
18D4  616674696E672F4A+  "afting/J"
18DC  6F62426F6172645F+  "obBoard_"
18E4  4D6173746572794C+  "MasteryL"
18EC  6F636B656400       "ocked\0"
                         const [20]: "/Lotus/Language/OstronCrafting/JobBoard_MasteryLocked"
18F2  04                 const type 4
18F3  05                 string size (5)
18F4  52414E4B00         "RANK\0"
                         const [21]: "RANK"
18F9  01                 const type 3
18FA  1574197E           const [22]: (2115597333)
18FE  01                 const type 3
18FF  42515E48           const [23]: (1214140738)
1903  04                 const type 4
1904  05                 string size (5)
1905  6D54616700         "mTag\0"
                         const [24]: "mTag"
190A  04                 const type 4
190B  07                 string size (7)
190C  6D5469746C6500     "mTitle\0"
                         const [25]: "mTitle"
1913  04                 const type 4
1914  13                 string size (19)
1915  6D53796E64696361+  "mSyndica"
191D  74655469746C6552+  "teTitleR"
1925  657100             "eq\0"
                         const [26]: "mSyndicateTitleReq"
1928  04                 const type 4
1929  01                 string size (0)
                         const [27]: ""
192B  01                 const type 3
192C  DBFD13F1           const [28]: (-250348069)
1930  01                 const type 3
1931  17DDCF0E           const [29]: (248503575)
1935  04                 const type 4
1936  06                 string size (6)
1937  6C6576656C00       "level\0"
                         const [30]: "level"
193D  04                 const type 4
193E  09                 string size (9)
193F  7469746C654C6F63+  "titleLoc"
1947  00                 "\0"
                         const [31]: "titleLoc"
1948  01                 const type 3
1949  D2A3C75E           const [32]: (1590141906)
194D  04                 const type 4
194E  3D                 string size (61)
194F  2F4C6F7475732F4C+  "/Lotus/L"
1957  616E67756167652F+  "anguage/"
195F  4F7374726F6E4372+  "OstronCr"
1967  616674696E672F4A+  "afting/J"
196F  6F62426F6172645F+  "obBoard_"
1977  53796E6469636174+  "Syndicat"
197F  655469746C654C6F+  "eTitleLo"
1987  636B656400         "cked\0"
                         const [33]: "/Lotus/Language/OstronCrafting/JobBoard_SyndicateTitleLocked"
198C  04                 const type 4
198D  06                 string size (6)
198E  5449544C4500       "TITLE\0"
                         const [34]: "TITLE"
1994  04                 const type 4
1995  07                 string size (7)
1996  737472696E6700     "string\0"
                         const [35]: "string"
199D  01                 const type 3
199E  2A649C63           const [36]: (1671193642)
19A2  04                 const type 4
19A3  1B                 string size (27)
19A4  4A43455F53594E44+  "JCE_SYND"
19AC  49434154455F5449+  "ICATE_TI"
19B4  544C455F4C4F434B+  "TLE_LOCK"
19BC  454400             "ED\0"
                         const [37]: "JCE_SYNDICATE_TITLE_LOCKED"
19BF  04                 const type 4
19C0  1A                 string size (26)
19C1  4A43455F43484149+  "JCE_CHAI"
19C9  4E5F50524F475245+  "N_PROGRE"
19D1  53535F4C4F434B45+  "SS_LOCKE"
19D9  4400               "D\0"
                         const [38]: "JCE_CHAIN_PROGRESS_LOCKED"
19DB  04                 const type 4
19DC  3C                 string size (60)
19DD  2F4C6F7475732F4C+  "/Lotus/L"
19E5  616E67756167652F+  "anguage/"
19ED  4F7374726F6E4372+  "OstronCr"
19F5  616674696E672F4A+  "afting/J"
19FD  6F62426F6172645F+  "obBoard_"
1A05  436861696E50726F+  "ChainPro"
1A0D  67726573734C6F63+  "gressLoc"
1A15  6B656400           "ked\0"
                         const [39]: "/Lotus/Language/OstronCrafting/JobBoard_ChainProgressLocked"
1A19  04                 const type 4
1A1A  0F                 string size (15)
1A1B  6D52657175697265+  "mRequire"
1A23  644974656D7300     "dItems\0"
                         const [40]: "mRequiredItems"
1A2A  04                 const type 4
1A2B  05                 string size (5)
1A2C  7465787400         "text\0"
                         const [41]: "text"
1A31  04                 const type 4
1A32  05                 string size (5)
1A33  4954454D00         "ITEM\0"
                         const [42]: "ITEM"
1A38  04                 const type 4
1A39  10                 string size (16)
1A3A  4A43455F4954454D+  "JCE_ITEM"
1A42  5F4C4F434B454400   "_LOCKED\0"
                         const [43]: "JCE_ITEM_LOCKED"
                         * functions:
1A4A  00                 sizep (0)
                         * lines:
1A4C  01                 sizelineinfo (167)
                         [pc] (line)
1A4D  BD                 [001] (-67)
1A4E  00                 [002] (-67)
1A4F  00                 [003] (-67)
1A50  00                 [004] (-66)
1A51  BD                 [005] (-66)
1A52  00                 [006] (-63)
1A53  00                 [007] (-63)
1A54  00                 [008] (-63)
1A55  BD                 [009] (-63)
1A56  00                 [010] (-62)
1A57  00                 [011] (-62)
1A58  00                 [012] (-62)
1A59  BE                 [013] (-62)
1A5A  00                 [014] (-62)
1A5B  00                 [015] (-62)
1A5C  00                 [016] (-62)
1A5D  BE                 [017] (-62)
1A5E  00                 [018] (-62)
1A5F  00                 [019] (-62)
1A60  00                 [020] (-61)
1A61  C1                 [021] (-61)
1A62  00                 [022] (-58)
1A63  00                 [023] (-58)
1A64  00                 [024] (-58)
1A65  C1                 [025] (-58)
1A66  00                 [026] (-57)
1A67  00                 [027] (-57)
1A68  00                 [028] (-57)
1A69  C1                 [029] (-57)
1A6A  00                 [030] (-57)
1A6B  00                 [031] (-56)
1A6C  00                 [032] (-56)
1A6D  C1                 [033] (-53)
1A6E  00                 [034] (-53)
1A6F  00                 [035] (-52)
1A70  00                 [036] (-52)
1A71  C2                 [037] (-52)
1A72  00                 [038] (-52)
1A73  00                 [039] (-51)
1A74  00                 [040] (-50)
1A75  C2                 [041] (-50)
1A76  00                 [042] (-50)
1A77  00                 [043] (-49)
1A78  00                 [044] (-48)
1A79  C2                 [045] (-48)
1A7A  00                 [046] (-48)
1A7B  00                 [047] (-48)
1A7C  00                 [048] (-48)
1A7D  C2                 [049] (-47)
1A7E  00                 [050] (-47)
1A7F  00                 [051] (-45)
1A80  00                 [052] (-45)
1A81  C2                 [053] (-45)
1A82  00                 [054] (-45)
1A83  00                 [055] (-45)
1A84  00                 [056] (-45)
1A85  C2                 [057] (-45)
1A86  00                 [058] (-45)
1A87  00                 [059] (-45)
1A88  00                 [060] (-44)
1A89  C2                 [061] (-41)
1A8A  00                 [062] (-41)
1A8B  00                 [063] (-41)
1A8C  00                 [064] (-40)
1A8D  C2                 [065] (-40)
1A8E  00                 [066] (-40)
1A8F  00                 [067] (-40)
1A90  00                 [068] (-40)
1A91  C2                 [069] (-40)
1A92  00                 [070] (-39)
1A93  00                 [071] (-39)
1A94  00                 [072] (-39)
1A95  C2                 [073] (-39)
1A96  00                 [074] (-39)
1A97  00                 [075] (-39)
1A98  00                 [076] (-39)
1A99  C3                 [077] (-39)
1A9A  00                 [078] (-39)
1A9B  00                 [079] (-39)
1A9C  00                 [080] (-39)
1A9D  C3                 [081] (-36)
1A9E  00                 [082] (-35)
1A9F  00                 [083] (-35)
1AA0  00                 [084] (-35)
1AA1  C6                 [085] (-34)
1AA2  00                 [086] (-34)
1AA3  00                 [087] (-34)
1AA4  00                 [088] (-34)
1AA5  C6                 [089] (-33)
1AA6  00                 [090] (-33)
1AA7  00                 [091] (-33)
1AA8  00                 [092] (-33)
1AA9  C6                 [093] (-32)
1AAA  00                 [094] (-32)
1AAB  00                 [095] (-31)
1AAC  00                 [096] (-34)
1AAD  C6                 [097] (-27)
1AAE  00                 [098] (-27)
1AAF  00                 [099] (-27)
1AB0  00                 [100] (-26)
1AB1  C7                 [101] (-25)
1AB2  00                 [102] (-25)
1AB3  00                 [103] (-24)
1AB4  00                 [104] (-24)
1AB5  C7                 [105] (-24)
1AB6  00                 [106] (-24)
1AB7  00                 [107] (-23)
1AB8  00                 [108] (-23)
1AB9  C7                 [109] (-23)
1ABA  00                 [110] (-23)
1ABB  00                 [111] (-22)
1ABC  00                 [112] (-22)
1ABD  C7                 [113] (-22)
1ABE  00                 [114] (-22)
1ABF  00                 [115] (-21)
1AC0  00                 [116] (-24)
1AC1  C7                 [117] (-20)
1AC2  00                 [118] (-17)
1AC3  00                 [119] (-17)
1AC4  00                 [120] (-17)
1AC5  C8                 [121] (-17)
1AC6  00                 [122] (-17)
1AC7  00                 [123] (-17)
1AC8  00                 [124] (-17)
1AC9  C8                 [125] (-17)
1ACA  00                 [126] (-17)
1ACB  00                 [127] (-17)
1ACC  00                 [128] (-17)
1ACD  CB                 [129] (-17)
1ACE  00                 [130] (-17)
1ACF  00                 [131] (-16)
1AD0  00                 [132] (-16)
1AD1  CB                 [133] (-16)
1AD2  00                 [134] (-13)
1AD3  00                 [135] (-13)
1AD4  00                 [136] (-13)
1AD5  CC                 [137] (-12)
1AD6  00                 [138] (-12)
1AD7  00                 [139] (-12)
1AD8  00                 [140] (-12)
1AD9  CC                 [141] (-12)
1ADA  00                 [142] (-12)
1ADB  00                 [143] (-9)
1ADC  00                 [144] (-9)
1ADD  CC                 [145] (-9)
1ADE  00                 [146] (-9)
1ADF  00                 [147] (-8)
1AE0  00                 [148] (-8)
1AE1  CC                 [149] (-8)
1AE2  00                 [150] (-7)
1AE3  00                 [151] (-7)
1AE4  00                 [152] (-6)
1AE5  CD                 [153] (-6)
1AE6  00                 [154] (-6)
1AE7  00                 [155] (-6)
1AE8  00                 [156] (-6)
1AE9  CE                 [157] (-6)
1AEA  00                 [158] (-5)
1AEB  00                 [159] (-5)
1AEC  00                 [160] (-5)
1AED  CE                 [161] (-1)
1AEE  00                 [162] (-1)
1AEF  00                 [163] (-48)
1AF0  00                 [164] (-52)
1AF1  CE                 [165] (5)
1AF2  00                 [166] (5)
1AF3  00                 [167] (6)
                         * locals:
1CE9  00                 sizelocvars (0)
                         * upvalues:
1CEA  00                 sizeupvalues (0)
                         ** end of function **

                         
1CEB                     ** function [6] definition (level 2)
                         ** start of function **
1CEB  00                 string size (0)
                         source name: (none)
1CED  02                 line defined (264)
1CEE  8B                 last line defined (267)
1CEF  02                 nups (1)
1CF0  01                 numparams (3)
1CF1  03                 is_vararg (0)
1CF2  00                 maxstacksize (7)
                         * code:
1CF4  09                 sizecode (9)
1CF5  D3000000           [1] getupval   3   0      
1CF9  12010000           [2] move       4   0      
1CFD  52018000           [3] move       5   1      
1D01  92010001           [4] move       6   2      
1D05  E2C00002           [5] call       3   4   3  
1D09  52018001           [6] move       5   3      
1D0D  92010002           [7] move       6   4      
1D11  5E018001           [8] return     5   3      
1D15  1E008000           [9] return     0   1      
                         * constants:
1D19  00                 sizek (0)
                         * functions:
1D1A  00                 sizep (0)
                         * lines:
1D1B  09                 sizelineinfo (9)
                         [pc] (line)
1D1C  09                 [1] (9)
1D1D  01                 [2] (9)
1D1E  00                 [3] (9)
1D1F  00                 [4] (9)
1D20  09                 [5] (9)
1D21  01                 [6] (10)
1D22  00                 [7] (10)
1D23  00                 [8] (10)
1D24  09                 [9] (11)
                         * locals:
1D40  00                 sizelocvars (0)
                         * upvalues:
1D41  00                 sizeupvalues (0)
                         ** end of function **

                         
1D42                     ** function [7] definition (level 2)
                         ** start of function **
1D42  00                 string size (0)
                         source name: (none)
1D44  02                 line defined (269)
1D45  9A                 last line defined (282)
1D46  02                 nups (2)
1D47  02                 numparams (1)
1D48  01                 is_vararg (0)
1D49  00                 maxstacksize (10)
                         * code:
1D4B  2A                 sizecode (42)
fail op	35
1D4C  63004000           [01] close      1  
1D50  1A000980           [02] jmp        37           ; to [40]
1D54  4E404000           [03] gettable   1   0   257  ; "jobTier"
1D58  9D800000           [04] getglobal  2   2        ; Lotus_Game
1D5C  8EC04001           [05] gettable   2   2   259  ; "JobDifficultyTier_PERMANENT_JOB"
fail op	35
1D60  23808000           [06] close      0  
1D64  1AC00780           [07] jmp        32           ; to [40]
1D68  5D000100           [08] getglobal  1   4        ; EMPTY_SYMBOL
1D6C  9D400100           [09] getglobal  2   5        ; string
1D70  8E804101           [10] gettable   2   2   262  ; -565905820
1D74  CEC04100           [11] gettable   3   0   263  ; "jobId"
1D78  13010000           [12] getupval   4   0      
1D7C  0E014202           [13] gettable   4   4   264  ; "FORTUNA_NODE_TAG"
1D80  24414202           [14] self       4   4   265  ; 1590141906
1D84  22010001           [15] call       4   2   0  
1D88  A2800000           [16] call       2   0   2  
1D8C  98000000           [17] test       2       0    ; to [19] if true
1D90  1AC00080           [18] jmp        4            ; to [23]
1D94  9D800200           [19] getglobal  2   10       ; -332969190
1D98  D9C00200           [20] loadk      3   11       ; "SolarisSyndicate"
1D9C  A2800001           [21] call       2   2   2  
1DA0  52000001           [22] move       1   2      
1DA4  9D400100           [23] getglobal  2   5        ; string
1DA8  8E804101           [24] gettable   2   2   262  ; -565905820
1DAC  CEC04100           [25] gettable   3   0   263  ; "jobId"
1DB0  19010300           [26] loadk      4   12       ; ".*_(.*)"
1DB4  A2008101           [27] call       2   3   4  
1DB8  53018000           [28] getupval   5   1      
1DBC  92018000           [29] move       6   1      
1DC0  DD810200           [30] getglobal  7   10       ; -332969190
1DC4  12020002           [31] move       8   4      
1DC8  E2810001           [32] call       7   2   2  
1DCC  1D420300           [33] getglobal  8   13       ; 738251817
1DD0  4E824300           [34] gettable   9   0   270  ; "job"
1DD4  22020001           [35] call       8   2   0  
1DD8  62C10000           [36] call       5   0   3  
1DDC  D2018002           [37] move       7   5      
1DE0  12020003           [38] move       8   6      
1DE4  DE018001           [39] return     7   3      
1DE8  DDC10300           [40] getglobal  7   15       ; JCE_CAN_PLAY
1DEC  DE010001           [41] return     7   2      
1DF0  1E008000           [42] return     0   1      
                         * constants:
1DF4  10                 sizek (16)
1DF5  00                 const type 0
                         const [0]: nil
1DF6  04                 const type 4
1DF7  08                 string size (8)
1DF8  6A6F625469657200   "jobTier\0"
                         const [1]: "jobTier"
1E00  04                 const type 4
1E01  0B                 string size (11)
1E02  4C6F7475735F4761+  "Lotus_Ga"
1E0A  6D6500             "me\0"
                         const [2]: "Lotus_Game"
1E0D  04                 const type 4
1E0E  20                 string size (32)
1E0F  4A6F624469666669+  "JobDiffi"
1E17  63756C7479546965+  "cultyTie"
1E1F  725F5045524D414E+  "r_PERMAN"
1E27  454E545F4A4F4200   "ENT_JOB\0"
                         const [3]: "JobDifficultyTier_PERMANENT_JOB"
1E2F  04                 const type 4
1E30  0D                 string size (13)
1E31  454D5054595F5359+  "EMPTY_SY"
1E39  4D424F4C00         "MBOL\0"
                         const [4]: "EMPTY_SYMBOL"
1E3E  04                 const type 4
1E3F  07                 string size (7)
1E40  737472696E6700     "string\0"
                         const [5]: "string"
1E47  01                 const type 3
1E48  64F644DE           const [6]: (-565905820)
1E4C  04                 const type 4
1E4D  06                 string size (6)
1E4E  6A6F62496400       "jobId\0"
                         const [7]: "jobId"
1E54  04                 const type 4
1E55  11                 string size (17)
1E56  464F5254554E415F+  "FORTUNA_"
1E5E  4E4F44455F544147+  "NODE_TAG"
1E66  00                 "\0"
                         const [8]: "FORTUNA_NODE_TAG"
1E67  01                 const type 3
1E68  D2A3C75E           const [9]: (1590141906)
1E6C  01                 const type 3
1E6D  1A4B27EC           const [10]: (-332969190)
1E71  04                 const type 4
1E72  11                 string size (17)
1E73  536F6C6172697353+  "SolarisS"
1E7B  796E646963617465+  "yndicate"
1E83  00                 "\0"
                         const [11]: "SolarisSyndicate"
1E84  04                 const type 4
1E85  08                 string size (8)
1E86  2E2A5F282E2A2900   ".*_(.*)\0"
                         const [12]: ".*_(.*)"
1E8E  01                 const type 3
1E8F  29D4002C           const [13]: (738251817)
1E93  04                 const type 4
1E94  04                 string size (4)
1E95  6A6F6200           "job\0"
                         const [14]: "job"
1E99  04                 const type 4
1E9A  0D                 string size (13)
1E9B  4A43455F43414E5F+  "JCE_CAN_"
1EA3  504C415900         "PLAY\0"
                         const [15]: "JCE_CAN_PLAY"
                         * functions:
1EA8  00                 sizep (0)
                         * lines:
1EA9  2A                 sizelineinfo (42)
                         [pc] (line)
1EAA  0E                 [01] (14)
1EAB  01                 [02] (14)
1EAC  00                 [03] (14)
1EAD  00                 [04] (14)
1EAE  0E                 [05] (14)
1EAF  01                 [06] (14)
1EB0  00                 [07] (14)
1EB1  00                 [08] (15)
1EB2  0E                 [09] (16)
1EB3  01                 [10] (16)
1EB4  00                 [11] (16)
1EB5  00                 [12] (16)
1EB6  0E                 [13] (16)
1EB7  01                 [14] (16)
1EB8  00                 [15] (16)
1EB9  00                 [16] (16)
1EBA  0E                 [17] (16)
1EBB  01                 [18] (16)
1EBC  00                 [19] (17)
1EBD  00                 [20] (17)
1EBE  0E                 [21] (17)
1EBF  01                 [22] (17)
1EC0  00                 [23] (20)
1EC1  00                 [24] (20)
1EC2  0E                 [25] (20)
1EC3  01                 [26] (20)
1EC4  00                 [27] (20)
1EC5  00                 [28] (21)
1EC6  0F                 [29] (21)
1EC7  01                 [30] (21)
1EC8  00                 [31] (21)
1EC9  00                 [32] (21)
1ECA  10                 [33] (21)
1ECB  01                 [34] (21)
1ECC  00                 [35] (21)
1ECD  00                 [36] (21)
1ECE  10                 [37] (22)
1ECF  01                 [38] (22)
1ED0  00                 [39] (22)
1ED1  00                 [40] (25)
1ED2  10                 [41] (25)
1ED3  01                 [42] (26)
                         * locals:
1F52  00                 sizelocvars (0)
                         * upvalues:
1F53  00                 sizeupvalues (0)
                         ** end of function **

                         
1F54                     ** function [8] definition (level 2)
                         ** start of function **
1F54  00                 string size (0)
                         source name: (none)
1F56  02                 line defined (284)
1F57  9F                 last line defined (287)
1F58  02                 nups (1)
1F59  01                 numparams (1)
1F5A  01                 is_vararg (0)
1F5B  00                 maxstacksize (5)
                         * code:
1F5D  07                 sizecode (7)
1F5E  53000000           [1] getupval   1   0      
1F62  92000000           [2] move       2   0      
1F66  62C00001           [3] call       1   2   3  
1F6A  D2008000           [4] move       3   1      
1F6E  12010001           [5] move       4   2      
1F72  DE008001           [6] return     3   3      
1F76  1E008000           [7] return     0   1      
                         * constants:
1F7A  00                 sizek (0)
                         * functions:
1F7B  00                 sizep (0)
                         * lines:
1F7C  07                 sizelineinfo (7)
                         [pc] (line)
1F7D  1D                 [1] (29)
1F7E  01                 [2] (29)
1F7F  00                 [3] (29)
1F80  00                 [4] (30)
1F81  1D                 [5] (30)
1F82  01                 [6] (30)
1F83  00                 [7] (31)
                         * locals:
1F99  00                 sizelocvars (0)
                         * upvalues:
1F9A  00                 sizeupvalues (0)
                         ** end of function **

                         
1F9B                     ** function [9] definition (level 2)
                         ** start of function **
1F9B  00                 string size (0)
                         source name: (none)
1F9D  02                 line defined (289)
1F9E  B5                 last line defined (309)
1F9F  02                 nups (1)
1FA0  01                 numparams (1)
1FA1  01                 is_vararg (0)
1FA2  00                 maxstacksize (10)
                         * code:
1FA4  2F                 sizecode (47)
1FA5  5D000000           [01] getglobal  1   0        ; 1074689893
1FA9  92000000           [02] move       2   0      
1FAD  62800001           [03] call       1   2   2  
1FB1  58000000           [04] test       1       0    ; to [6] if true
1FB5  1A000580           [05] jmp        21           ; to [27]
1FB9  5D400000           [06] getglobal  1   1        ; gPlayerProfileMgr
1FBD  6480C000           [07] self       1   1   258  ; 569342746
1FC1  D9C00000           [08] loadk      3   3        ; 0
1FC5  62808001           [09] call       1   3   2  
1FC9  9D000000           [10] getglobal  2   0        ; 1074689893
1FCD  D2008000           [11] move       3   1      
1FD1  A2800001           [12] call       2   2   2  
1FD5  98000000           [13] test       2       0    ; to [15] if true
1FD9  1A400080           [14] jmp        2            ; to [17]
1FDD  97000000           [15] loadbool   2   0   0    ; false
1FE1  9E000001           [16] return     2   2      
1FE5  A400C100           [17] self       2   1   260  ; 1699680402
1FE9  A2800001           [18] call       2   2   2  
1FED  12000001           [19] move       0   2      
1FF1  9D000000           [20] getglobal  2   0        ; 1074689893
1FF5  D2000000           [21] move       3   0      
1FF9  A2800001           [22] call       2   2   2  
1FFD  98000000           [23] test       2       0    ; to [25] if true
2001  1A400080           [24] jmp        2            ; to [27]
2005  97000000           [25] loadbool   2   0   0    ; false
2009  9E000001           [26] return     2   2      
200D  A4404100           [27] self       2   0   261  ; 1865287165
2011  A2800001           [28] call       2   2   2  
2015  A4804101           [29] self       2   2   262  ; 1335955611
2019  A2800001           [30] call       2   2   2  
201D  D9C00100           [31] loadk      3   7        ; 0
2021  0A010001           [32] len        4   2      
2025  59C10100           [33] loadk      5   7        ; 0
2029  D0000280           [34] forprep    3   9        ; to [44]
202D  CE810101           [35] gettable   7   2   6  
2031  CE01C203           [36] gettable   7   7   264  ; "mItemType"
2035  E441C203           [37] self       7   7   265  ; -1957065004
2039  53020000           [38] getupval   9   0      
203D  E2818001           [39] call       7   3   2  
2041  D8010000           [40] test       7       0    ; to [42] if true
2045  1A400080           [41] jmp        2            ; to [44]
2049  D7018000           [42] loadbool   7   1   0    ; true
204D  DE010001           [43] return     7   2      
2051  D440FD7F           [44] forloop    3   -10      ; to [35] if loop
2055  D7010000           [45] loadbool   7   0   0    ; false
2059  DE010001           [46] return     7   2      
205D  1E008000           [47] return     0   1      
                         * constants:
2061  0A                 sizek (10)
2062  01                 const type 3
2063  65770E40           const [0]: (1074689893)
2067  04                 const type 4
2068  12                 string size (18)
2069  67506C6179657250+  "gPlayerP"
2071  726F66696C654D67+  "rofileMg"
2079  7200               "r\0"
                         const [1]: "gPlayerProfileMgr"
207B  01                 const type 3
207C  1A7BEF21           const [2]: (569342746)
2080  03                 const type 3
2081  00000000           const [3]: (0)
2085  01                 const type 3
2086  92104F65           const [4]: (1699680402)
208A  01                 const type 3
208B  FD052E6F           const [5]: (1865287165)
208F  01                 const type 3
2090  9B10A14F           const [6]: (1335955611)
2094  03                 const type 3
2095  0000803F           const [7]: (0)
2099  04                 const type 4
209A  0A                 string size (10)
209B  6D4974656D547970+  "mItemTyp"
20A3  6500               "e\0"
                         const [8]: "mItemType"
20A5  01                 const type 3
20A6  D48E598B           const [9]: (-1957065004)
                         * functions:
20AA  00                 sizep (0)
                         * lines:
20AB  2F                 sizelineinfo (47)
                         [pc] (line)
20AC  22                 [01] (34)
20AD  01                 [02] (34)
20AE  00                 [03] (34)
20AF  00                 [04] (34)
20B0  22                 [05] (34)
20B1  01                 [06] (35)
20B2  00                 [07] (35)
20B3  00                 [08] (35)
20B4  22                 [09] (35)
20B5  01                 [10] (36)
20B6  00                 [11] (36)
20B7  00                 [12] (36)
20B8  22                 [13] (36)
20B9  01                 [14] (36)
20BA  00                 [15] (37)
20BB  00                 [16] (37)
20BC  22                 [17] (40)
20BD  01                 [18] (40)
20BE  00                 [19] (40)
20BF  00                 [20] (41)
20C0  23                 [21] (41)
20C1  01                 [22] (41)
20C2  00                 [23] (41)
20C3  00                 [24] (41)
20C4  23                 [25] (42)
20C5  01                 [26] (42)
20C6  00                 [27] (46)
20C7  00                 [28] (46)
20C8  23                 [29] (46)
20C9  01                 [30] (46)
20CA  00                 [31] (47)
20CB  00                 [32] (47)
20CC  23                 [33] (47)
20CD  01                 [34] (47)
20CE  00                 [35] (48)
20CF  00                 [36] (48)
20D0  24                 [37] (48)
20D1  01                 [38] (48)
20D2  00                 [39] (48)
20D3  00                 [40] (48)
20D4  24                 [41] (48)
20D5  01                 [42] (49)
20D6  00                 [43] (49)
20D7  00                 [44] (47)
20D8  24                 [45] (52)
20D9  01                 [46] (52)
20DA  00                 [47] (53)
                         * locals:
2168  00                 sizelocvars (0)
                         * upvalues:
2169  00                 sizeupvalues (0)
                         ** end of function **

                         
216A                     ** function [10] definition (level 2)
                         ** start of function **
216A  00                 string size (0)
                         source name: (none)
216C  02                 line defined (311)
216D  B9                 last line defined (313)
216E  02                 nups (1)
216F  01                 numparams (1)
2170  01                 is_vararg (0)
2171  00                 maxstacksize (3)
                         * code:
2173  05                 sizecode (5)
2174  53000000           [1] getupval   1   0      
2178  92000000           [2] move       2   0      
217C  62800001           [3] call       1   2   2  
2180  5E000001           [4] return     1   2      
2184  1E008000           [5] return     0   1      
                         * constants:
2188  00                 sizek (0)
                         * functions:
2189  00                 sizep (0)
                         * lines:
218A  05                 sizelineinfo (5)
                         [pc] (line)
218B  38                 [1] (56)
218C  01                 [2] (56)
218D  00                 [3] (56)
218E  00                 [4] (56)
218F  38                 [5] (57)
                         * locals:
219F  00                 sizelocvars (0)
                         * upvalues:
21A0  00                 sizeupvalues (0)
                         ** end of function **

                         
21A1                     ** function [11] definition (level 2)
                         ** start of function **
21A1  00                 string size (0)
                         source name: (none)
21A3  02                 line defined (317)
21A4  B2                 last line defined (818)
21A5  06                 nups (10)
21A6  0A                 numparams (3)
21A7  03                 is_vararg (0)
21A8  00                 maxstacksize (173)
                         * code:
21AB  0D                 sizecode (1780)
21AC  DD000000           [0001] getglobal  3   0        ; gGameConfig
21B0  E440C001           [0002] self       3   3   257  ; -1981466301
21B4  E2800001           [0003] call       3   2   2  
21B8  D8000000           [0004] test       3       0    ; to [6] if true
21BC  1A000780           [0005] jmp        29           ; to [35]
21C0  DD800000           [0006] getglobal  3   2        ; gGameRules
21C4  E4C0C001           [0007] self       3   3   259  ; -1957065004
21C8  5D010100           [0008] getglobal  5   4        ; gLotusGameRulesType
21CC  E2808001           [0009] call       3   3   2  
21D0  D8000000           [0010] test       3       0    ; to [12] if true
21D4  1AC00380           [0011] jmp        16           ; to [28]
21D8  DD400100           [0012] getglobal  3   5        ; 1074689893
21DC  12010001           [0013] move       4   2      
21E0  E2800001           [0014] call       3   2   2  
21E4  D8400000           [0015] test       3       1    ; to [17] if false
21E8  1A800280           [0016] jmp        11           ; to [28]
21EC  CE804101           [0017] gettable   3   2   262  ; "missionType"
21F0  1DC10100           [0018] getglobal  4   7        ; Lotus_Game
21F4  0E014202           [0019] gettable   4   4   264  ; "MT_RAID"
fail op	35
21F8  63008101           [0020] close      1  
21FC  1A000380           [0021] jmp        13           ; to [35]
2200  DD400100           [0022] getglobal  3   5        ; 1074689893
2204  0E414201           [0023] gettable   4   2   265  ; "keyChainName"
2208  E2800001           [0024] call       3   2   2  
fail op	9
220C  C9008001           [0025] settable   3   3   0  
2210  D8400000           [0026] test       3       1    ; to [28] if false
2214  1A800180           [0027] jmp        7            ; to [35]
2218  CB400000           [0028] newtable   3   0   1    ; array=0, hash=1
221C  1DC10200           [0029] getglobal  4   11       ; -421772368
2220  59010300           [0030] loadk      5   12       ; "/Lotus/Language/Menu/MainMenu_NewBuildMissionsBlocked"
2224  86010003           [0031] loadnil    6   6      
2228  22818001           [0032] call       4   3   2  
222C  CC000185           [0033] settable   3   266 4    ; "text"
2230  DE000001           [0034] return     3   2      
2234  D7000000           [0035] loadbool   3   0   0    ; false
2238  13010000           [0036] getupval   4   0      
223C  0E414302           [0037] gettable   4   4   269  ; -132701534
2240  52010000           [0038] move       5   0      
2244  9D810300           [0039] getglobal  6   14       ; -1615931716
2248  D2010000           [0040] move       7   0      
224C  A2810001           [0041] call       6   2   2  
2250  D9C10300           [0042] loadk      7   15       ; ""
2254  22810002           [0043] call       4   4   2  
2258  52010002           [0044] move       5   4      
225C  9D010400           [0045] getglobal  6   16       ; string
2260  8E414403           [0046] gettable   6   6   273  ; -565905820
2264  D2018002           [0047] move       7   5      
2268  13028000           [0048] getupval   8   1      
226C  0E824404           [0049] gettable   8   8   274  ; "TAG_SEPERATOR"
2270  A2818001           [0050] call       6   3   2  
2274  DD010400           [0051] getglobal  7   16       ; string
2278  CE41C403           [0052] gettable   7   7   273  ; -565905820
227C  12020002           [0053] move       8   4      
2280  53028000           [0054] getupval   9   1      
2284  4EC2C404           [0055] gettable   9   9   275  ; "BADLAND_DEFENDER_TAG"
2288  E2818001           [0056] call       7   3   2  
fail op	35
228C  2300C503           [0057] close      0  
2290  1AC00180           [0058] jmp        8            ; to [67]
2294  DD010400           [0059] getglobal  7   16       ; string
2298  CE41C403           [0060] gettable   7   7   273  ; -565905820
229C  12020002           [0061] move       8   4      
22A0  53028000           [0062] getupval   9   1      
22A4  4E42C504           [0063] gettable   9   9   277  ; "BADLAND_ATTACKER_TAG"
22A8  E2818001           [0064] call       7   3   2  
22AC  1A400080           [0065] jmp        2            ; to [68]
22B0  D7410000           [0066] loadbool   7   0   1    ; false, to [68]
22B4  D7018000           [0067] loadbool   7   1   0    ; true
22B8  1D020400           [0068] getglobal  8   16       ; string
22BC  0E424404           [0069] gettable   8   8   273  ; -565905820
22C0  52020002           [0070] move       9   4      
22C4  93028000           [0071] getupval   10  1      
22C8  8E824505           [0072] gettable   10  10  278  ; "SORTIE_MISSION_TAG"
22CC  22828001           [0073] call       8   3   2  
fail op	35
22D0  23004504           [0074] close      0  
22D4  1A000080           [0075] jmp        1            ; to [77]
22D8  17420000           [0076] loadbool   8   0   1    ; false, to [78]
22DC  17028000           [0077] loadbool   8   1   0    ; true
22E0  46028004           [0078] loadnil    9   9      
22E4  98010000           [0079] test       6       0    ; to [81] if true
22E8  1A000380           [0080] jmp        13           ; to [94]
22EC  9D020400           [0081] getglobal  10  16       ; string
22F0  8EC24505           [0082] gettable   10  10  279  ; 2071470131
22F4  D2028002           [0083] move       11  5      
22F8  03034603           [0084] add        12  6   280  ; 0
22FC  A2828001           [0085] call       10  3   2  
2300  52020005           [0086] move       9   10     
2304  9D020400           [0087] getglobal  10  16       ; string
2308  8EC24505           [0088] gettable   10  10  279  ; 2071470131
230C  D2028002           [0089] move       11  5      
2310  19030600           [0090] loadk      12  24       ; 0
2314  4D034603           [0091] sub        13  6   280  ; 0
2318  A2820002           [0092] call       10  4   2  
231C  52010005           [0093] move       5   10     
fail op	35
2320  2340C602           [0094] close      0  
2324  1A400480           [0095] jmp        18           ; to [114]
2328  9D820600           [0096] getglobal  10  26       ; gPlayerProfileMgr
232C  A4C24605           [0097] self       10  10  283  ; 569342746
2330  19030700           [0098] loadk      12  28       ; 0
2334  A2828001           [0099] call       10  3   2  
2338  A4424705           [0100] self       10  10  285  ; 1699680402
233C  A2820001           [0101] call       10  2   2  
2340  D3020001           [0102] getupval   11  2      
2344  12030005           [0103] move       12  10     
2348  E2820001           [0104] call       11  2   2  
234C  D8420000           [0105] test       11      1    ; to [107] if false
2350  1A800180           [0106] jmp        7            ; to [114]
2354  CB420000           [0107] newtable   11  0   1    ; array=0, hash=1
2358  1DC30200           [0108] getglobal  12  11       ; -421772368
235C  59830700           [0109] loadk      13  30       ; "/Lotus/Language/Menu/MissionLocationUnavailable"
2360  86030007           [0110] loadnil    14  14     
2364  22838001           [0111] call       12  3   2  
2368  CC020385           [0112] settable   11  266 12   ; "text"
236C  DE020001           [0113] return     11  2      
2370  DD420100           [0114] getglobal  11  5        ; 1074689893
2374  12030001           [0115] move       12  2      
2378  E2820001           [0116] call       11  2   2  
237C  D8020000           [0117] test       11      0    ; to [119] if true
2380  1A003980           [0118] jmp        229          ; to [348]
2384  DDC20700           [0119] getglobal  11  31       ; _T
2388  CE02C805           [0120] gettable   11  11  288  ; "CachedAlerts"
238C  CE428105           [0121] gettable   11  11  5  
2390  D8020000           [0122] test       11      0    ; to [124] if true
2394  1AC00480           [0123] jmp        20           ; to [144]
2398  DDC20700           [0124] getglobal  11  31       ; _T
239C  CE02C805           [0125] gettable   11  11  288  ; "CachedAlerts"
23A0  CE428105           [0126] gettable   11  11  5  
23A4  CE42C805           [0127] gettable   11  11  289  ; "mVisible"
23A8  D8020000           [0128] test       11      0    ; to [130] if true
23AC  1A400380           [0129] jmp        14           ; to [144]
23B0  DD020400           [0130] getglobal  11  16       ; string
23B4  CE42C405           [0131] gettable   11  11  273  ; -565905820
23B8  12030002           [0132] move       12  4      
23BC  53038000           [0133] getupval   13  1      
23C0  4E83C806           [0134] gettable   13  13  290  ; "ALERT_TAG"
23C4  E2828001           [0135] call       11  3   2  
23C8  D8020000           [0136] test       11      0    ; to [138] if true
23CC  1A400180           [0137] jmp        6            ; to [144]
23D0  DDC20700           [0138] getglobal  11  31       ; _T
23D4  CE02C805           [0139] gettable   11  11  288  ; "CachedAlerts"
23D8  CE428105           [0140] gettable   11  11  5  
23DC  CEC2C805           [0141] gettable   11  11  291  ; "mAlertInfo"
23E0  8E00C905           [0142] gettable   2   11  292  ; "mMissionInfo"
23E4  1A403780           [0143] jmp        222          ; to [366]
23E8  DD420900           [0144] getglobal  11  37       ; _G
23EC  CE82C905           [0145] gettable   11  11  294  ; "CachedGoalInfo"
23F0  CE428105           [0146] gettable   11  11  5  
23F4  D8020000           [0147] test       11      0    ; to [149] if true
23F8  1A000680           [0148] jmp        25           ; to [174]
23FC  DD020400           [0149] getglobal  11  16       ; string
2400  CE42C405           [0150] gettable   11  11  273  ; -565905820
2404  12030002           [0151] move       12  4      
2408  53038000           [0152] getupval   13  1      
240C  4EC3C906           [0153] gettable   13  13  295  ; "EVENT_TAG"
2410  E2828001           [0154] call       11  3   2  
2414  D8020000           [0155] test       11      0    ; to [157] if true
2418  1A000480           [0156] jmp        17           ; to [174]
241C  DD420900           [0157] getglobal  11  37       ; _G
2420  CE82C905           [0158] gettable   11  11  294  ; "CachedGoalInfo"
2424  CE428105           [0159] gettable   11  11  5  
2428  CE02C905           [0160] gettable   11  11  292  ; "mMissionInfo"
242C  E402CA05           [0161] self       11  11  296  ; -1540973124
2430  E2820001           [0162] call       11  2   2  
2434  92008005           [0163] move       2   11     
2438  CE424A01           [0164] gettable   11  2   297  ; "goalTag"
243C  1D830A00           [0165] getglobal  12  42       ; EMPTY_SYMBOL
fail op	35
2440  23008305           [0166] close      0  
2444  1A403180           [0167] jmp        198          ; to [366]
2448  DD420900           [0168] getglobal  11  37       ; _G
244C  CE82C905           [0169] gettable   11  11  294  ; "CachedGoalInfo"
2450  CE428105           [0170] gettable   11  11  5  
2454  CEC2CA05           [0171] gettable   11  11  299  ; "mTag"
2458  8CC08294           [0172] settable   2   297 11   ; "goalTag"
245C  1AC02F80           [0173] jmp        192          ; to [366]
2460  DDC20700           [0174] getglobal  11  31       ; _T
2464  CE02CB05           [0175] gettable   11  11  300  ; "CachedSyndicateMissions"
2468  CE428105           [0176] gettable   11  11  5  
246C  D8020000           [0177] test       11      0    ; to [179] if true
2470  1A800480           [0178] jmp        19           ; to [198]
2474  DDC20700           [0179] getglobal  11  31       ; _T
2478  CE02CB05           [0180] gettable   11  11  300  ; "CachedSyndicateMissions"
247C  CE428105           [0181] gettable   11  11  5  
2480  CE42C805           [0182] gettable   11  11  289  ; "mVisible"
2484  D8020000           [0183] test       11      0    ; to [185] if true
2488  1A000380           [0184] jmp        13           ; to [198]
248C  DD020400           [0185] getglobal  11  16       ; string
2490  CE42C405           [0186] gettable   11  11  273  ; -565905820
2494  12030002           [0187] move       12  4      
2498  53038000           [0188] getupval   13  1      
249C  4E43CB06           [0189] gettable   13  13  301  ; "SYNDICATE_MISSION_TAG"
24A0  E2828001           [0190] call       11  3   2  
24A4  D8020000           [0191] test       11      0    ; to [193] if true
24A8  1A000180           [0192] jmp        5            ; to [198]
24AC  DDC20700           [0193] getglobal  11  31       ; _T
24B0  CE02CB05           [0194] gettable   11  11  300  ; "CachedSyndicateMissions"
24B4  CE428105           [0195] gettable   11  11  5  
24B8  8E00C905           [0196] gettable   2   11  292  ; "mMissionInfo"
24BC  1AC02980           [0197] jmp        168          ; to [366]
24C0  DDC20700           [0198] getglobal  11  31       ; _T
24C4  CE82CB05           [0199] gettable   11  11  302  ; "CachedSortieMissions"
24C8  CE428105           [0200] gettable   11  11  5  
24CC  D8020000           [0201] test       11      0    ; to [203] if true
24D0  1A800180           [0202] jmp        7            ; to [210]
24D4  18020000           [0203] test       8       0    ; to [205] if true
24D8  1A000180           [0204] jmp        5            ; to [210]
24DC  DDC20700           [0205] getglobal  11  31       ; _T
24E0  CE82CB05           [0206] gettable   11  11  302  ; "CachedSortieMissions"
24E4  CE428105           [0207] gettable   11  11  5  
24E8  8E00C905           [0208] gettable   2   11  292  ; "mMissionInfo"
24EC  1AC02680           [0209] jmp        156          ; to [366]
24F0  DDC20700           [0210] getglobal  11  31       ; _T
24F4  CEC2CB05           [0211] gettable   11  11  303  ; "CachedActiveMissions"
24F8  CE428105           [0212] gettable   11  11  5  
24FC  D8020000           [0213] test       11      0    ; to [215] if true
2500  1A000380           [0214] jmp        13           ; to [228]
2504  DD020400           [0215] getglobal  11  16       ; string
2508  CE42C405           [0216] gettable   11  11  273  ; -565905820
250C  12030002           [0217] move       12  4      
2510  53038000           [0218] getupval   13  1      
2514  4E03CC06           [0219] gettable   13  13  304  ; "ACTIVE_MISSION_TAG"
2518  E2828001           [0220] call       11  3   2  
251C  D8020000           [0221] test       11      0    ; to [223] if true
2520  1A000180           [0222] jmp        5            ; to [228]
2524  DDC20700           [0223] getglobal  11  31       ; _T
2528  CEC2CB05           [0224] gettable   11  11  303  ; "CachedActiveMissions"
252C  CE428105           [0225] gettable   11  11  5  
2530  8E00C905           [0226] gettable   2   11  292  ; "mMissionInfo"
2534  1A402280           [0227] jmp        138          ; to [366]
2538  DDC20700           [0228] getglobal  11  31       ; _T
253C  CE42CC05           [0229] gettable   11  11  305  ; "CachedInvasionInfo"
2540  CE428105           [0230] gettable   11  11  5  
2544  D8020000           [0231] test       11      0    ; to [233] if true
2548  1A000380           [0232] jmp        13           ; to [246]
254C  DD020400           [0233] getglobal  11  16       ; string
2550  CE42C405           [0234] gettable   11  11  273  ; -565905820
2554  12030002           [0235] move       12  4      
2558  53038000           [0236] getupval   13  1      
255C  4E83CC06           [0237] gettable   13  13  306  ; "INVASION_ATTACKER_TAG"
2560  E2828001           [0238] call       11  3   2  
2564  D8020000           [0239] test       11      0    ; to [241] if true
2568  1A000180           [0240] jmp        5            ; to [246]
256C  DDC20700           [0241] getglobal  11  31       ; _T
2570  CE42CC05           [0242] gettable   11  11  305  ; "CachedInvasionInfo"
2574  CE428105           [0243] gettable   11  11  5  
2578  8EC0CC05           [0244] gettable   2   11  307  ; "mAttackerMissionInfo"
257C  1AC01D80           [0245] jmp        120          ; to [366]
2580  DDC20700           [0246] getglobal  11  31       ; _T
2584  CE42CC05           [0247] gettable   11  11  305  ; "CachedInvasionInfo"
2588  CE428105           [0248] gettable   11  11  5  
258C  D8020000           [0249] test       11      0    ; to [251] if true
2590  1A000380           [0250] jmp        13           ; to [264]
2594  DD020400           [0251] getglobal  11  16       ; string
2598  CE42C405           [0252] gettable   11  11  273  ; -565905820
259C  12030002           [0253] move       12  4      
25A0  53038000           [0254] getupval   13  1      
25A4  4E03CD06           [0255] gettable   13  13  308  ; "INVASION_DEFENDER_TAG"
25A8  E2828001           [0256] call       11  3   2  
25AC  D8020000           [0257] test       11      0    ; to [259] if true
25B0  1A000180           [0258] jmp        5            ; to [264]
25B4  DDC20700           [0259] getglobal  11  31       ; _T
25B8  CE42CC05           [0260] gettable   11  11  305  ; "CachedInvasionInfo"
25BC  CE428105           [0261] gettable   11  11  5  
25C0  8E40CD05           [0262] gettable   2   11  309  ; "mDefenderMissionInfo"
25C4  1A401980           [0263] jmp        102          ; to [366]
25C8  DDC20700           [0264] getglobal  11  31       ; _T
25CC  CE82CD05           [0265] gettable   11  11  310  ; "CachedEliteAlertMissions"
25D0  CE428105           [0266] gettable   11  11  5  
25D4  D8020000           [0267] test       11      0    ; to [269] if true
25D8  1A000380           [0268] jmp        13           ; to [282]
25DC  DD020400           [0269] getglobal  11  16       ; string
25E0  CE42C405           [0270] gettable   11  11  273  ; -565905820
25E4  12030002           [0271] move       12  4      
25E8  53038000           [0272] getupval   13  1      
25EC  4EC3CD06           [0273] gettable   13  13  311  ; "ELITE_ALERT_TAG"
25F0  E2828001           [0274] call       11  3   2  
25F4  D8020000           [0275] test       11      0    ; to [277] if true
25F8  1A000180           [0276] jmp        5            ; to [282]
25FC  DDC20700           [0277] getglobal  11  31       ; _T
2600  CE82CD05           [0278] gettable   11  11  310  ; "CachedEliteAlertMissions"
2604  CE428105           [0279] gettable   11  11  5  
2608  8E00C905           [0280] gettable   2   11  292  ; "mMissionInfo"
260C  1AC01480           [0281] jmp        84           ; to [366]
2610  DD020400           [0282] getglobal  11  16       ; string
2614  CE42C405           [0283] gettable   11  11  273  ; -565905820
2618  12030002           [0284] move       12  4      
261C  53038000           [0285] getupval   13  1      
2620  4E03CE06           [0286] gettable   13  13  312  ; "KEY_TAG"
2624  E2828001           [0287] call       11  3   2  
2628  D8020000           [0288] test       11      0    ; to [290] if true
262C  1A400780           [0289] jmp        30           ; to [320]
2630  DD020400           [0290] getglobal  11  16       ; string
2634  CEC2C505           [0291] gettable   11  11  279  ; 2071470131
2638  12030002           [0292] move       12  4      
263C  59030600           [0293] loadk      13  24       ; 0
2640  8D034603           [0294] sub        14  6   280  ; 0
2644  E2820002           [0295] call       11  4   2  
2648  1D430E00           [0296] getglobal  12  57       ; -895206725
264C  52038005           [0297] move       13  11     
2650  22830001           [0298] call       12  2   2  
2654  5D830E00           [0299] getglobal  13  58       ; 2083004503
2658  92038005           [0300] move       14  11     
265C  62830001           [0301] call       13  2   2  
2660  9D430100           [0302] getglobal  14  5        ; 1074689893
2664  D2038006           [0303] move       15  13     
2668  A2830001           [0304] call       14  2   2  
266C  98430000           [0305] test       14      1    ; to [307] if false
2670  1A800E80           [0306] jmp        59           ; to [366]
2674  A4C3CE06           [0307] self       14  13  315  ; -1201441975
2678  A2830001           [0308] call       14  2   2  
267C  92000007           [0309] move       2   14     
2680  9D030400           [0310] getglobal  14  16       ; string
2684  8E434407           [0311] gettable   14  14  273  ; -565905820
2688  D2038002           [0312] move       15  5      
268C  19040F00           [0313] loadk      16  60       ; "ArchwingQuest/MissionFive"
2690  A2838001           [0314] call       14  3   2  
fail op	35
2694  23004507           [0315] close      0  
2698  1A000080           [0316] jmp        1            ; to [318]
269C  D7400000           [0317] loadbool   3   0   1    ; false, to [319]
26A0  D7008000           [0318] loadbool   3   1   0    ; true
26A4  1A400B80           [0319] jmp        46           ; to [366]
26A8  93038001           [0320] getupval   14  3      
26AC  A2838000           [0321] call       14  1   2  
26B0  DD430100           [0322] getglobal  15  5        ; 1074689893
26B4  12040007           [0323] move       16  14     
26B8  E2830001           [0324] call       15  2   2  
26BC  D8430000           [0325] test       15      1    ; to [327] if false
26C0  1A800980           [0326] jmp        39           ; to [366]
26C4  E4434F07           [0327] self       15  14  317  ; 1267988059
26C8  5D840F00           [0328] getglobal  17  62       ; -332969190
26CC  92048002           [0329] move       18  5      
26D0  62040001           [0330] call       17  2   0  
26D4  E2830000           [0331] call       15  0   2  
26D8  92008007           [0332] move       2   15     
26DC  DDC30700           [0333] getglobal  15  31       ; _T
26E0  CEC3CF07           [0334] gettable   15  15  319  ; "gPendingMission"
fail op	35
26E4  6300C507           [0335] close      1  
26E8  1A000780           [0336] jmp        29           ; to [366]
26EC  DDC30700           [0337] getglobal  15  31       ; _T
26F0  CEC3CF07           [0338] gettable   15  15  319  ; "gPendingMission"
26F4  CE03D007           [0339] gettable   15  15  320  ; "requiredItems"
26F8  CA038007           [0340] len        15  15     
fail op	21
26FC  15C0038E           [0341] concat     0   284 15 
2700  1A800580           [0342] jmp        23           ; to [366]
2704  DDC30700           [0343] getglobal  15  31       ; _T
2708  CEC3CF07           [0344] gettable   15  15  319  ; "gPendingMission"
270C  CE03D007           [0345] gettable   15  15  320  ; "requiredItems"
2710  8CC003A0           [0346] settable   2   320 15   ; "requiredItems"
2714  1A400480           [0347] jmp        18           ; to [366]
2718  DD430100           [0348] getglobal  15  5        ; 1074689893
271C  0E445001           [0349] gettable   16  2   321  ; "levelKeyName"
2720  E2830001           [0350] call       15  2   2  
2724  D8430000           [0351] test       15      1    ; to [353] if false
2728  1A000380           [0352] jmp        13           ; to [366]
272C  DD030400           [0353] getglobal  15  16       ; string
2730  CE43C407           [0354] gettable   15  15  273  ; -565905820
2734  1D840300           [0355] getglobal  16  14       ; -1615931716
2738  4E445001           [0356] gettable   17  2   321  ; "levelKeyName"
273C  6484D008           [0357] self       17  17  322  ; 455421500
2740  62040001           [0358] call       17  2   0  
2744  22840000           [0359] call       16  0   2  
2748  59040F00           [0360] loadk      17  60       ; "ArchwingQuest/MissionFive"
274C  E2838001           [0361] call       15  3   2  
fail op	35
2750  2300C507           [0362] close      0  
2754  1A000080           [0363] jmp        1            ; to [365]
2758  D7400000           [0364] loadbool   3   0   1    ; false, to [366]
275C  D7008000           [0365] loadbool   3   1   0    ; true
2760  D3038000           [0366] getupval   15  1      
2764  CEC3D007           [0367] gettable   15  15  323  ; 275979196
2768  E2838000           [0368] call       15  1   2  
276C  D8030000           [0369] test       15      0    ; to [371] if true
2770  1A401280           [0370] jmp        74           ; to [445]
2774  18020000           [0371] test       8       0    ; to [373] if true
2778  1AC00180           [0372] jmp        8            ; to [381]
277C  CB430000           [0373] newtable   15  0   1    ; array=0, hash=1
2780  1DC40200           [0374] getglobal  16  11       ; -421772368
2784  59041100           [0375] loadk      17  68       ; "/Lotus/Language/Menu/OmegaLimit_RestrictSortie"
2788  86040009           [0376] loadnil    18  18     
278C  22848001           [0377] call       16  3   2  
2790  CC030485           [0378] settable   15  266 16   ; "text"
2794  DE030001           [0379] return     15  2      
2798  1AC00F80           [0380] jmp        64           ; to [445]
279C  CE435101           [0381] gettable   15  2   325  ; "missionReward"
27A0  1D440100           [0382] getglobal  16  5        ; 1074689893
27A4  52048007           [0383] move       17  15     
27A8  22840001           [0384] call       16  2   2  
27AC  18440000           [0385] test       16      1    ; to [387] if false
27B0  1A400680           [0386] jmp        26           ; to [413]
27B4  0E84D107           [0387] gettable   16  15  326  ; "items"
27B8  59040600           [0388] loadk      17  24       ; 0
27BC  8A040008           [0389] len        18  16     
27C0  D9040600           [0390] loadk      19  24       ; 0
27C4  50C40480           [0391] forprep    17  20       ; to [412]
27C8  4E050508           [0392] gettable   21  16  20 
27CC  64C5D10A           [0393] self       21  21  327  ; 813153904
27D0  62850001           [0394] call       21  2   2  
27D4  9D450100           [0395] getglobal  22  5        ; 1074689893
27D8  D205800A           [0396] move       23  21     
27DC  A2850001           [0397] call       22  2   2  
27E0  98450000           [0398] test       22      1    ; to [400] if false
27E4  1AC00280           [0399] jmp        12           ; to [412]
27E8  A4C5C00A           [0400] self       22  21  259  ; -1957065004
27EC  1D061200           [0401] getglobal  24  72       ; gRandomizedArtifactUpgradeType
27F0  A2858001           [0402] call       22  3   2  
27F4  98050000           [0403] test       22      0    ; to [405] if true
27F8  1A800180           [0404] jmp        7            ; to [412]
27FC  8B450000           [0405] newtable   22  0   1    ; array=0, hash=1
2800  DDC50200           [0406] getglobal  23  11       ; -421772368
2804  19461200           [0407] loadk      24  73       ; "/Lotus/Language/Menu/OmegaLimit_RestrictMission"
2808  4606800C           [0408] loadnil    25  25     
280C  E2858001           [0409] call       23  3   2  
2810  8CC50585           [0410] settable   22  266 23   ; "text"
2814  9E050001           [0411] return     22  2      
2818  5484FA7F           [0412] forloop    17  -21      ; to [392] if loop
281C  8E855201           [0413] gettable   22  2   330  ; "missionRewardExtra"
2820  DD450100           [0414] getglobal  23  5        ; 1074689893
2824  1206000B           [0415] move       24  22     
2828  E2850001           [0416] call       23  2   2  
282C  D8450000           [0417] test       23      1    ; to [419] if false
2830  1A400680           [0418] jmp        26           ; to [445]
2834  CE85510B           [0419] gettable   23  22  326  ; "items"
2838  19060600           [0420] loadk      24  24       ; 0
283C  4A06800B           [0421] len        25  23     
2840  99060600           [0422] loadk      26  24       ; 0
2844  10C60480           [0423] forprep    24  20       ; to [444]
2848  0EC7860B           [0424] gettable   28  23  27 
284C  24C7510E           [0425] self       28  28  327  ; 813153904
2850  22870001           [0426] call       28  2   2  
2854  5D470100           [0427] getglobal  29  5        ; 1074689893
2858  9207000E           [0428] move       30  28     
285C  62870001           [0429] call       29  2   2  
2860  58470000           [0430] test       29      1    ; to [432] if false
2864  1AC00280           [0431] jmp        12           ; to [444]
2868  64C7400E           [0432] self       29  28  259  ; -1957065004
286C  DD071200           [0433] getglobal  31  72       ; gRandomizedArtifactUpgradeType
2870  62878001           [0434] call       29  3   2  
2874  58070000           [0435] test       29      0    ; to [437] if true
2878  1A800180           [0436] jmp        7            ; to [444]
287C  4B470000           [0437] newtable   29  0   1    ; array=0, hash=1
2880  9DC70200           [0438] getglobal  30  11       ; -421772368
2884  D9471200           [0439] loadk      31  73       ; "/Lotus/Language/Menu/OmegaLimit_RestrictMission"
2888  06080010           [0440] loadnil    32  32     
288C  A2878001           [0441] call       30  3   2  
2890  4C870785           [0442] settable   29  266 30   ; "text"
2894  5E070001           [0443] return     29  2      
2898  1486FA7F           [0444] forloop    24  -21      ; to [424] if loop
289C  57070000           [0445] loadbool   29  0   0    ; false
28A0  58070000           [0446] test       29      0    ; to [448] if true
28A4  1A000780           [0447] jmp        29           ; to [477]
28A8  57070000           [0448] loadbool   29  0   0    ; false
28AC  58070000           [0449] test       29      0    ; to [451] if true
28B0  1A400680           [0450] jmp        26           ; to [477]
28B4  5D470100           [0451] getglobal  29  5        ; 1074689893
28B8  92070001           [0452] move       30  2      
28BC  62870001           [0453] call       29  2   2  
28C0  58470000           [0454] test       29      1    ; to [456] if false
28C4  1A400280           [0455] jmp        10           ; to [466]
28C8  5D470100           [0456] getglobal  29  5        ; 1074689893
28CC  8EC75201           [0457] gettable   30  2   331  ; "gameRules"
28D0  62870001           [0458] call       29  2   2  
28D4  58470000           [0459] test       29      1    ; to [461] if false
28D8  1A000180           [0460] jmp        5            ; to [466]
28DC  4EC75201           [0461] gettable   29  2   331  ; "gameRules"
28E0  64C7C00E           [0462] self       29  29  259  ; -1957065004
28E4  D3070002           [0463] getupval   31  4      
28E8  62878001           [0464] call       29  3   2  
28EC  1A400080           [0465] jmp        2            ; to [468]
28F0  57470000           [0466] loadbool   29  0   1    ; false, to [468]
28F4  57078000           [0467] loadbool   29  1   0    ; true
28F8  58470000           [0468] test       29      1    ; to [470] if false
28FC  1A800180           [0469] jmp        7            ; to [477]
2900  D8410000           [0470] test       7       1    ; to [472] if false
2904  1A000180           [0471] jmp        5            ; to [477]
2908  9D071300           [0472] getglobal  30  76       ; -1817107093
290C  D9471300           [0473] loadk      31  77       ; "CheckConclaveRequirements - skipped due to dev mode enabled"
2910  A2470001           [0474] call       30  2   1  
2914  8607000F           [0475] loadnil    30  30     
2918  9E070001           [0476] return     30  2      
291C  9D871300           [0477] getglobal  30  78       ; Engine
2920  8EC7530F           [0478] gettable   30  30  335  ; 1767719465
2924  A2878000           [0479] call       30  1   2  
2928  98070000           [0480] test       30      0    ; to [482] if true
292C  1A000980           [0481] jmp        37           ; to [519]
2930  9D870600           [0482] getglobal  30  26       ; gPlayerProfileMgr
2934  A4C7460F           [0483] self       30  30  283  ; 569342746
2938  19080700           [0484] loadk      32  28       ; 0
293C  A2878001           [0485] call       30  3   2  
2940  DD470100           [0486] getglobal  31  5        ; 1074689893
2944  1208000F           [0487] move       32  30     
2948  E2870001           [0488] call       31  2   2  
294C  D8470000           [0489] test       31      1    ; to [491] if false
2950  1AC00680           [0490] jmp        28           ; to [519]
2954  E447470F           [0491] self       31  30  285  ; 1699680402
2958  E2870001           [0492] call       31  2   2  
295C  1D480100           [0493] getglobal  32  5        ; 1074689893
2960  5208800F           [0494] move       33  31     
2964  22880001           [0495] call       32  2   2  
2968  18480000           [0496] test       32      1    ; to [498] if false
296C  1AC00080           [0497] jmp        4            ; to [502]
2970  2408D40F           [0498] self       32  31  336  ; -664673307
2974  22880001           [0499] call       32  2   2  
2978  18480000           [0500] test       32      1    ; to [502] if false
297C  1A000480           [0501] jmp        17           ; to [519]
2980  1D481400           [0502] getglobal  32  81       ; gRegion
2984  24885410           [0503] self       32  32  338  ; -771271018
2988  22880001           [0504] call       32  2   2  
298C  0EC85410           [0505] gettable   32  32  339  ; "level"
2990  5D080000           [0506] getglobal  33  0        ; gGameConfig
2994  6408D510           [0507] self       33  33  340  ; 1803659381
2998  D2080010           [0508] move       35  32     
299C  62888001           [0509] call       33  3   2  
29A0  58480000           [0510] test       33      1    ; to [512] if false
29A4  1A800180           [0511] jmp        7            ; to [519]
29A8  8B480000           [0512] newtable   34  0   1    ; array=0, hash=1
29AC  DDC80200           [0513] getglobal  35  11       ; -421772368
29B0  19491500           [0514] loadk      36  85       ; "/Lotus/Language/Menu/SocialOverlay_SessionJoinFromTutorial"
29B4  46098012           [0515] loadnil    37  37     
29B8  E2888001           [0516] call       35  3   2  
29BC  8CC80885           [0517] settable   34  266 35   ; "text"
29C0  9E080001           [0518] return     34  2      
29C4  98000000           [0519] test       2       0    ; to [521] if true
29C8  1A003680           [0520] jmp        217          ; to [738]
29CC  8E885501           [0521] gettable   34  2   342  ; "conclaveRange"
fail op	35
29D0  63004511           [0522] close      1  
29D4  1A403580           [0523] jmp        214          ; to [738]
29D8  8E885501           [0524] gettable   34  2   342  ; "conclaveRange"
29DC  8EC85511           [0525] gettable   34  34  343  ; "minValue"
fail op	35
29E0  23004711           [0526] close      0  
29E4  1AC00080           [0527] jmp        4            ; to [532]
29E8  8E885501           [0528] gettable   34  2   342  ; "conclaveRange"
29EC  8E085611           [0529] gettable   34  34  344  ; "maxValue"
fail op	35
29F0  63004711           [0530] close      1  
29F4  1A403380           [0531] jmp        206          ; to [738]
29F8  58400000           [0532] test       1       1    ; to [534] if false
29FC  1AC00280           [0533] jmp        12           ; to [546]
2A00  9D481600           [0534] getglobal  34  89       ; gMatchingService
2A04  A4885611           [0535] self       34  34  346  ; 535483142
2A08  A2880001           [0536] call       34  2   2  
2A0C  98480000           [0537] test       34      1    ; to [539] if false
2A10  1A800180           [0538] jmp        7            ; to [546]
2A14  9D480100           [0539] getglobal  34  5        ; 1074689893
2A18  DD481600           [0540] getglobal  35  89       ; gMatchingService
2A1C  E4C8D611           [0541] self       35  35  347  ; -706726330
2A20  E2080001           [0542] call       35  2   0  
2A24  A2880000           [0543] call       34  0   2  
2A28  98080000           [0544] test       34      0    ; to [546] if true
2A2C  1A001E80           [0545] jmp        121          ; to [667]
2A30  9D880600           [0546] getglobal  34  26       ; gPlayerProfileMgr
2A34  A4C84611           [0547] self       34  34  283  ; 569342746
2A38  19090700           [0548] loadk      36  28       ; 0
2A3C  A2888001           [0549] call       34  3   2  
2A40  DD480100           [0550] getglobal  35  5        ; 1074689893
2A44  12090011           [0551] move       36  34     
2A48  E2880001           [0552] call       35  2   2  
2A4C  D8480000           [0553] test       35      1    ; to [555] if false
2A50  1AC01B80           [0554] jmp        112          ; to [667]
2A54  E4484711           [0555] self       35  34  285  ; 1699680402
2A58  E2880001           [0556] call       35  2   2  
2A5C  E408D711           [0557] self       35  35  348  ; 51109503
2A60  E2880001           [0558] call       35  2   2  
2A64  0E495701           [0559] gettable   36  2   349  ; "conclaveRangePerItem"
2A68  18090000           [0560] test       36      0    ; to [562] if true
2A6C  1A401380           [0561] jmp        78           ; to [640]
2A70  19090700           [0562] loadk      36  28       ; 0
2A74  5DC90100           [0563] getglobal  37  7        ; Lotus_Game
2A78  4E89D712           [0564] gettable   37  37  350  ; "MAX_LoadOutSlot"
2A7C  4D09C612           [0565] sub        37  37  280  ; 0
2A80  99090600           [0566] loadk      38  24       ; 0
2A84  10491180           [0567] forprep    36  70       ; to [638]
2A88  24CAD711           [0568] self       40  35  351  ; 1257969247
2A8C  9DCA0100           [0569] getglobal  42  7        ; Lotus_Game
2A90  8E0A5815           [0570] gettable   42  42  352  ; "LOT_NORMAL"
2A94  D20A8013           [0571] move       43  39     
2A98  228A0002           [0572] call       40  4   2  
2A9C  4E8A5501           [0573] gettable   41  2   342  ; "conclaveRange"
2AA0  4E0AD614           [0574] gettable   41  41  344  ; "maxValue"
fail op	21
2AA4  15008A14           [0575] concat     0   41  40 
2AA8  1A400680           [0576] jmp        26           ; to [603]
2AAC  5D8A0E00           [0577] getglobal  41  58       ; 2083004503
2AB0  A44AD811           [0578] self       42  35  353  ; 1644212373
2AB4  1DCB0100           [0579] getglobal  44  7        ; Lotus_Game
2AB8  0E0B5816           [0580] gettable   44  44  352  ; "LOT_NORMAL"
2ABC  520B8013           [0581] move       45  39     
2AC0  A28A0002           [0582] call       42  4   2  
2AC4  8E8A5815           [0583] gettable   42  42  354  ; "mItemType"
2AC8  628A0001           [0584] call       41  2   2  
2ACC  9DCA0200           [0585] getglobal  42  11       ; -421772368
2AD0  DD8A0300           [0586] getglobal  43  14       ; -1615931716
2AD4  24CBD814           [0587] self       44  41  355  ; 1634497718
2AD8  220B0001           [0588] call       44  2   0  
2ADC  E28A0000           [0589] call       43  0   2  
2AE0  170B0000           [0590] loadbool   44  0   0    ; false
2AE4  A28A8001           [0591] call       42  3   2  
2AE8  CB4A0100           [0592] newtable   43  0   5    ; array=0, hash=5
2AEC  CC0A5985           [0593] settable   43  266 356  ; "text" "/Lotus/Language/Menu/PvpValueFailureSoloItem"
2AF0  CC0A8AB2           [0594] settable   43  357 40   ; "value"
2AF4  0E8B5501           [0595] gettable   44  2   342  ; "conclaveRange"
2AF8  0ECB5516           [0596] gettable   44  44  343  ; "minValue"
2AFC  CC0A0BB3           [0597] settable   43  358 44   ; "MIN"
2B00  0E8B5501           [0598] gettable   44  2   342  ; "conclaveRange"
2B04  0E0B5616           [0599] gettable   44  44  344  ; "maxValue"
2B08  CC0A8BB3           [0600] settable   43  359 44   ; "MAX"
2B0C  CC8A0AB4           [0601] settable   43  360 42   ; "ITEM"
2B10  DE0A0001           [0602] return     43  2      
2B14  E4CAD711           [0603] self       43  35  351  ; 1257969247
2B18  5DCB0100           [0604] getglobal  45  7        ; Lotus_Game
2B1C  4E4BDA16           [0605] gettable   45  45  361  ; "LOT_SENTINEL"
2B20  920B8013           [0606] move       46  39     
2B24  E28A0002           [0607] call       43  4   2  
2B28  0E8B5501           [0608] gettable   44  2   342  ; "conclaveRange"
2B2C  0E0B5616           [0609] gettable   44  44  344  ; "maxValue"
fail op	21
2B30  15C00A16           [0610] concat     0   44  43 
2B34  1A400680           [0611] jmp        26           ; to [638]
2B38  1D8B0E00           [0612] getglobal  44  58       ; 2083004503
2B3C  644BD811           [0613] self       45  35  353  ; 1644212373
2B40  DDCB0100           [0614] getglobal  47  7        ; Lotus_Game
2B44  CE4BDA17           [0615] gettable   47  47  361  ; "LOT_SENTINEL"
2B48  120C8013           [0616] move       48  39     
2B4C  628B0002           [0617] call       45  4   2  
2B50  4E8BD816           [0618] gettable   45  45  354  ; "mItemType"
2B54  228B0001           [0619] call       44  2   2  
2B58  5DCB0200           [0620] getglobal  45  11       ; -421772368
2B5C  9D8B0300           [0621] getglobal  46  14       ; -1615931716
2B60  E4CB5816           [0622] self       47  44  355  ; 1634497718
2B64  E20B0001           [0623] call       47  2   0  
2B68  A28B0000           [0624] call       46  0   2  
2B6C  D70B0000           [0625] loadbool   47  0   0    ; false
2B70  628B8001           [0626] call       45  3   2  
2B74  8B4B0100           [0627] newtable   46  0   5    ; array=0, hash=5
2B78  8C0B5985           [0628] settable   46  266 356  ; "text" "/Lotus/Language/Menu/PvpValueFailureSoloItem"
2B7C  8CCB8AB2           [0629] settable   46  357 43   ; "value"
2B80  CE8B5501           [0630] gettable   47  2   342  ; "conclaveRange"
2B84  CECBD517           [0631] gettable   47  47  343  ; "minValue"
2B88  8CCB0BB3           [0632] settable   46  358 47   ; "MIN"
2B8C  CE8B5501           [0633] gettable   47  2   342  ; "conclaveRange"
2B90  CE0BD617           [0634] gettable   47  47  344  ; "maxValue"
2B94  8CCB8BB3           [0635] settable   46  359 47   ; "MAX"
2B98  8C4B0BB4           [0636] settable   46  360 45   ; "ITEM"
2B9C  9E0B0001           [0637] return     46  2      
2BA0  1409EE7F           [0638] forloop    36  -71      ; to [568] if loop
2BA4  1A800680           [0639] jmp        27           ; to [667]
2BA8  A48BDA11           [0640] self       46  35  362  ; -756561003
2BAC  A28B0001           [0641] call       46  2   2  
2BB0  DD0B1300           [0642] getglobal  47  76       ; -1817107093
2BB4  19CC1A00           [0643] loadk      48  107      ; "Local PVP value: "
2BB8  5D8C0300           [0644] getglobal  49  14       ; -1615931716
2BBC  920C0017           [0645] move       50  46     
2BC0  628C0001           [0646] call       49  2   2  
2BC4  024C0C18           [0647] concat     48  48  49 
2BC8  E24B0001           [0648] call       47  2   1  
2BCC  CE8B5501           [0649] gettable   47  2   342  ; "conclaveRange"
2BD0  CECBD517           [0650] gettable   47  47  343  ; "minValue"
fail op	21
2BD4  55C00B17           [0651] concat     1   46  47 
2BD8  1AC00080           [0652] jmp        4            ; to [657]
2BDC  CE8B5501           [0653] gettable   47  2   342  ; "conclaveRange"
2BE0  CE0BD617           [0654] gettable   47  47  344  ; "maxValue"
fail op	21
2BE4  15808B17           [0655] concat     0   47  46 
2BE8  1A400280           [0656] jmp        10           ; to [667]
2BEC  CB0B0100           [0657] newtable   47  0   4    ; array=0, hash=4
2BF0  CC0B5B85           [0658] settable   47  266 364  ; "text" "/Lotus/Language/Menu/PvpValueFailureSolo"
2BF4  CC8B8BB2           [0659] settable   47  357 46   ; "value"
2BF8  0E8C5501           [0660] gettable   48  2   342  ; "conclaveRange"
2BFC  0ECC5518           [0661] gettable   48  48  343  ; "minValue"
2C00  CC0B0CB3           [0662] settable   47  358 48   ; "MIN"
2C04  0E8C5501           [0663] gettable   48  2   342  ; "conclaveRange"
2C08  0E0C5618           [0664] gettable   48  48  344  ; "maxValue"
2C0C  CC0B8CB3           [0665] settable   47  359 48   ; "MAX"
2C10  DE0B0001           [0666] return     47  2      
2C14  DD4B1600           [0667] getglobal  47  89       ; gMatchingService
2C18  E44BDB17           [0668] self       47  47  365  ; -1985412809
2C1C  E28B0001           [0669] call       47  2   2  
2C20  190C0600           [0670] loadk      48  24       ; 0
2C24  4A0C8017           [0671] len        49  47     
2C28  990C0600           [0672] loadk      50  24       ; 0
2C2C  108C0F80           [0673] forprep    48  63       ; to [737]
2C30  1D8D1B00           [0674] getglobal  52  110      ; cjson
2C34  0ECD5B1A           [0675] gettable   52  52  367  ; -1976663275
2C38  4ECD8C17           [0676] gettable   53  47  51 
2C3C  4E0DDC1A           [0677] gettable   53  53  368  ; "loadout"
2C40  228D0001           [0678] call       52  2   2  
2C44  4E4D5C1A           [0679] gettable   53  52  369  ; "PvpValue"
2C48  8E4D5701           [0680] gettable   54  2   349  ; "conclaveRangePerItem"
2C4C  980D0000           [0681] test       54      0    ; to [683] if true
2C50  1A000080           [0682] jmp        1            ; to [684]
2C54  4E8D5C1A           [0683] gettable   53  52  370  ; "PvpValueItemMax"
2C58  8E8D5501           [0684] gettable   54  2   342  ; "conclaveRange"
2C5C  8ECD551B           [0685] gettable   54  54  343  ; "minValue"
fail op	21
2C60  55808D1A           [0686] concat     1   53  54 
2C64  1AC00080           [0687] jmp        4            ; to [692]
2C68  8E8D5501           [0688] gettable   54  2   342  ; "conclaveRange"
2C6C  8E0D561B           [0689] gettable   54  54  344  ; "maxValue"
fail op	21
2C70  15400D1B           [0690] concat     0   54  53 
2C74  1A000B80           [0691] jmp        45           ; to [737]
2C78  9D0D1300           [0692] getglobal  54  76       ; -1817107093
2C7C  D9CD1C00           [0693] loadk      55  115      ; "PVP value "
2C80  1D8E0300           [0694] getglobal  56  14       ; -1615931716
2C84  520E801A           [0695] move       57  53     
2C88  228E0001           [0696] call       56  2   2  
2C8C  590E1D00           [0697] loadk      57  116      ; "["
2C90  9D8E0300           [0698] getglobal  58  14       ; -1615931716
2C94  CE8E5501           [0699] gettable   59  2   342  ; "conclaveRange"
2C98  CECED51D           [0700] gettable   59  59  343  ; "minValue"
2C9C  A28E0001           [0701] call       58  2   2  
2CA0  D94E1D00           [0702] loadk      59  117      ; " - "
2CA4  1D8F0300           [0703] getglobal  60  14       ; -1615931716
2CA8  4E8F5501           [0704] gettable   61  2   342  ; "conclaveRange"
2CAC  4E0FD61E           [0705] gettable   61  61  344  ; "maxValue"
2CB0  228F0001           [0706] call       60  2   2  
2CB4  598F1D00           [0707] loadk      61  118      ; "]"
2CB8  C24D8F1B           [0708] concat     55  55  61 
2CBC  A24D0001           [0709] call       54  2   1  
2CC0  8A0D8017           [0710] len        54  47     
fail op	35
2CC4  2300461B           [0711] close      0  
2CC8  1A800280           [0712] jmp        11           ; to [724]
2CCC  8B0D0100           [0713] newtable   54  0   4    ; array=0, hash=4
2CD0  8C0D5B85           [0714] settable   54  266 364  ; "text" "/Lotus/Language/Menu/PvpValueFailureSolo"
2CD4  8C4D8DB2           [0715] settable   54  357 53   ; "value"
2CD8  CE8D5501           [0716] gettable   55  2   342  ; "conclaveRange"
2CDC  CECDD51B           [0717] gettable   55  55  343  ; "minValue"
2CE0  8CCD0DB3           [0718] settable   54  358 55   ; "MIN"
2CE4  CE8D5501           [0719] gettable   55  2   342  ; "conclaveRange"
2CE8  CE0DD61B           [0720] gettable   55  55  344  ; "maxValue"
2CEC  8CCD8DB3           [0721] settable   54  359 55   ; "MAX"
2CF0  9E0D0001           [0722] return     54  2      
2CF4  1A000380           [0723] jmp        13           ; to [737]
2CF8  8B4D0100           [0724] newtable   54  0   5    ; array=0, hash=5
2CFC  8CCD5D85           [0725] settable   54  266 375  ; "text" "/Lotus/Language/Menu/PvpValueFailureSquad"
2D00  8C4D8DB2           [0726] settable   54  357 53   ; "value"
2D04  CE8D5501           [0727] gettable   55  2   342  ; "conclaveRange"
2D08  CECDD51B           [0728] gettable   55  55  343  ; "minValue"
2D0C  8CCD0DB3           [0729] settable   54  358 55   ; "MIN"
2D10  CE8D5501           [0730] gettable   55  2   342  ; "conclaveRange"
2D14  CE0DD61B           [0731] gettable   55  55  344  ; "maxValue"
2D18  8CCD8DB3           [0732] settable   54  359 55   ; "MAX"
2D1C  CECD8C17           [0733] gettable   55  47  51 
2D20  CE4DDE1B           [0734] gettable   55  55  377  ; "name"
2D24  8CCD0DBC           [0735] settable   54  376 55   ; "player"
2D28  9E0D0001           [0736] return     54  2      
2D2C  14CCEF7F           [0737] forloop    48  -64      ; to [674] if loop
2D30  98000000           [0738] test       2       0    ; to [740] if true
2D34  1A001B80           [0739] jmp        109          ; to [849]
2D38  8E8D5E01           [0740] gettable   54  2   378  ; "archwingRequired"
2D3C  980D0000           [0741] test       54      0    ; to [743] if true
2D40  1A401A80           [0742] jmp        106          ; to [849]
2D44  9D4D1600           [0743] getglobal  54  89       ; gMatchingService
2D48  A44D5B1B           [0744] self       54  54  365  ; -1985412809
2D4C  A28D0001           [0745] call       54  2   2  
2D50  DD4D0100           [0746] getglobal  55  5        ; 1074689893
2D54  120E001B           [0747] move       56  54     
2D58  E28D0001           [0748] call       55  2   2  
2D5C  D84D0000           [0749] test       55      1    ; to [751] if false
2D60  1A800080           [0750] jmp        3            ; to [754]
2D64  CA0D001B           [0751] len        55  54     
fail op	33
2D68  2100C61B           [0752] tforloop   0       280  ; to [754] if exit
2D6C  1A000E80           [0753] jmp        57           ; to [811]
2D70  DD8D0600           [0754] getglobal  55  26       ; gPlayerProfileMgr
2D74  E4CDC61B           [0755] self       55  55  283  ; 569342746
2D78  590E0700           [0756] loadk      57  28       ; 0
2D7C  E28D8001           [0757] call       55  3   2  
2D80  E44DC71B           [0758] self       55  55  285  ; 1699680402
2D84  E28D0001           [0759] call       55  2   2  
2D88  240ED71B           [0760] self       56  55  348  ; 51109503
2D8C  228E0001           [0761] call       56  2   2  
2D90  644E581C           [0762] self       57  56  353  ; 1644212373
2D94  DDCE0100           [0763] getglobal  59  7        ; Lotus_Game
2D98  CECEDE1D           [0764] gettable   59  59  379  ; "LOT_ARCHWING"
2D9C  1DCF0100           [0765] getglobal  60  7        ; Lotus_Game
2DA0  0E0F5F1E           [0766] gettable   60  60  380  ; "SUIT_SLOT"
2DA4  628E0002           [0767] call       57  4   2  
2DA8  A44E581C           [0768] self       58  56  353  ; 1644212373
2DAC  1DCF0100           [0769] getglobal  60  7        ; Lotus_Game
2DB0  0ECF5E1E           [0770] gettable   60  60  379  ; "LOT_ARCHWING"
2DB4  5DCF0100           [0771] getglobal  61  7        ; Lotus_Game
2DB8  4E4FDF1E           [0772] gettable   61  61  381  ; "LONG_GUN_SLOT"
2DBC  A28E0002           [0773] call       58  4   2  
2DC0  E44E581C           [0774] self       59  56  353  ; 1644212373
2DC4  5DCF0100           [0775] getglobal  61  7        ; Lotus_Game
2DC8  4ECFDE1E           [0776] gettable   61  61  379  ; "LOT_ARCHWING"
2DCC  9DCF0100           [0777] getglobal  62  7        ; Lotus_Game
2DD0  8E8F5F1F           [0778] gettable   62  62  382  ; "MELEE_SLOT"
2DD4  E28E0002           [0779] call       59  4   2  
2DD8  1D4F0100           [0780] getglobal  60  5        ; 1074689893
2DDC  4E8FD81C           [0781] gettable   61  57  354  ; "mItemType"
2DE0  228F0001           [0782] call       60  2   2  
2DE4  184F0000           [0783] test       60      1    ; to [785] if false
2DE8  1A400280           [0784] jmp        10           ; to [795]
2DEC  1D4F0100           [0785] getglobal  60  5        ; 1074689893
2DF0  4E8F581D           [0786] gettable   61  58  354  ; "mItemType"
2DF4  228F0001           [0787] call       60  2   2  
2DF8  184F0000           [0788] test       60      1    ; to [790] if false
2DFC  1A000180           [0789] jmp        5            ; to [795]
2E00  1D4F0100           [0790] getglobal  60  5        ; 1074689893
2E04  4E8FD81D           [0791] gettable   61  59  354  ; "mItemType"
2E08  228F0001           [0792] call       60  2   2  
fail op	9
2E0C  090F001E           [0793] settable   60  60  0  
2E10  1A400080           [0794] jmp        2            ; to [797]
2E14  174F0000           [0795] loadbool   60  0   1    ; false, to [797]
2E18  170F8000           [0796] loadbool   60  1   0    ; true
2E1C  64CFDF1B           [0797] self       61  55  383  ; -1778584416
2E20  628F0001           [0798] call       61  2   2  
2E24  180F0000           [0799] test       60      0    ; to [801] if true
2E28  1A400080           [0800] jmp        2            ; to [803]
2E2C  584F0000           [0801] test       61      1    ; to [803] if false
2E30  1A400B80           [0802] jmp        46           ; to [849]
2E34  D8000000           [0803] test       3       0    ; to [805] if true
2E38  1A400080           [0804] jmp        2            ; to [807]
2E3C  184F0000           [0805] test       60      1    ; to [807] if false
2E40  1A400A80           [0806] jmp        42           ; to [849]
2E44  8B4F0000           [0807] newtable   62  0   1    ; array=0, hash=1
2E48  8C0F6085           [0808] settable   62  266 384  ; "text" "/Lotus/Language/Menu/ArchwingFailureSolo"
2E4C  9E0F0001           [0809] return     62  2      
2E50  1A400980           [0810] jmp        38           ; to [849]
2E54  990F0600           [0811] loadk      62  24       ; 0
2E58  CA0F001B           [0812] len        63  54     
2E5C  19100600           [0813] loadk      64  24       ; 0
2E60  900F0880           [0814] forprep    62  33       ; to [848]
2E64  9D901B00           [0815] getglobal  66  110      ; cjson
2E68  8ED05B21           [0816] gettable   66  66  367  ; -1976663275
2E6C  CE50101B           [0817] gettable   67  54  65 
2E70  CE10DC21           [0818] gettable   67  67  368  ; "loadout"
2E74  A2900001           [0819] call       66  2   2  
2E78  CE506021           [0820] gettable   67  66  385  ; "HasArchwing"
2E7C  D8100000           [0821] test       67      0    ; to [823] if true
2E80  1A800080           [0822] jmp        3            ; to [826]
2E84  CE906021           [0823] gettable   67  66  386  ; "ArchwingEnabled"
2E88  D8500000           [0824] test       67      1    ; to [826] if false
2E8C  1A400580           [0825] jmp        22           ; to [848]
2E90  D8000000           [0826] test       3       0    ; to [828] if true
2E94  1A800080           [0827] jmp        3            ; to [831]
2E98  CE506021           [0828] gettable   67  66  385  ; "HasArchwing"
2E9C  D8500000           [0829] test       67      1    ; to [831] if false
2EA0  1A000480           [0830] jmp        17           ; to [848]
2EA4  CA10001B           [0831] len        67  54     
fail op	35
2EA8  6300C621           [0832] close      1  
2EAC  1AC00080           [0833] jmp        4            ; to [838]
2EB0  CE50101B           [0834] gettable   67  54  65 
2EB4  CED0E021           [0835] gettable   67  67  387  ; "isLocal"
2EB8  D8100000           [0836] test       67      0    ; to [838] if true
2EBC  1AC00080           [0837] jmp        4            ; to [842]
2EC0  CB500000           [0838] newtable   67  0   1    ; array=0, hash=1
2EC4  CC106085           [0839] settable   67  266 384  ; "text" "/Lotus/Language/Menu/ArchwingFailureSolo"
2EC8  DE100001           [0840] return     67  2      
2ECC  1A400180           [0841] jmp        6            ; to [848]
2ED0  CB900000           [0842] newtable   67  0   2    ; array=0, hash=2
2ED4  CC106185           [0843] settable   67  266 388  ; "text" "/Lotus/Language/Menu/ArchwingFailureSquad"
2ED8  0E51101B           [0844] gettable   68  54  65 
2EDC  0E515E22           [0845] gettable   68  68  377  ; "name"
2EE0  CC1011BC           [0846] settable   67  376 68   ; "player"
2EE4  DE100001           [0847] return     67  2      
2EE8  944FF77F           [0848] forloop    62  -34      ; to [815] if loop
2EEC  D3108002           [0849] getupval   67  5      
2EF0  0E115001           [0850] gettable   68  2   320  ; "requiredItems"
2EF4  4E516101           [0851] gettable   69  2   389  ; "requiredItemCounts"
2EF8  E2908001           [0852] call       67  3   2  
2EFC  D8100000           [0853] test       67      0    ; to [855] if true
2F00  1A000080           [0854] jmp        1            ; to [856]
2F04  DE100001           [0855] return     67  2      
2F08  1D510100           [0856] getglobal  68  5        ; 1074689893
2F0C  4E916101           [0857] gettable   69  2   390  ; "exclusiveWeapon"
2F10  22910001           [0858] call       68  2   2  
2F14  18510000           [0859] test       68      1    ; to [861] if false
2F18  1A002C80           [0860] jmp        177          ; to [1038]
2F1C  1D511600           [0861] getglobal  68  89       ; gMatchingService
2F20  24515B22           [0862] self       68  68  365  ; -1985412809
2F24  22910001           [0863] call       68  2   2  
2F28  4E916101           [0864] gettable   69  2   390  ; "exclusiveWeapon"
2F2C  64D1C022           [0865] self       69  69  259  ; -1957065004
2F30  DDD12100           [0866] getglobal  71  135      ; gLotusMeleeWeaponType
2F34  62918001           [0867] call       69  3   2  
2F38  9D510100           [0868] getglobal  70  5        ; 1074689893
2F3C  D2110022           [0869] move       71  68     
2F40  A2910001           [0870] call       70  2   2  
2F44  98510000           [0871] test       70      1    ; to [873] if false
2F48  1A800080           [0872] jmp        3            ; to [876]
2F4C  8A110022           [0873] len        70  68     
fail op	33
2F50  21004623           [0874] tforloop   0       280  ; to [876] if exit
2F54  1A801080           [0875] jmp        67           ; to [943]
2F58  9D910600           [0876] getglobal  70  26       ; gPlayerProfileMgr
2F5C  A4D14623           [0877] self       70  70  283  ; 569342746
2F60  19120700           [0878] loadk      72  28       ; 0
2F64  A2918001           [0879] call       70  3   2  
2F68  A4514723           [0880] self       70  70  285  ; 1699680402
2F6C  A2910001           [0881] call       70  2   2  
2F70  A4115723           [0882] self       70  70  348  ; 51109503
2F74  A2910001           [0883] call       70  2   2  
2F78  CB118001           [0884] newtable   71  3   0    ; array=3, hash=0
2F7C  1DD20100           [0885] getglobal  72  7        ; Lotus_Game
2F80  0E126224           [0886] gettable   72  72  392  ; "PISTOL_SLOT"
2F84  5DD20100           [0887] getglobal  73  7        ; Lotus_Game
2F88  4E52DF24           [0888] gettable   73  73  381  ; "LONG_GUN_SLOT"
2F8C  9DD20100           [0889] getglobal  74  7        ; Lotus_Game
2F90  8E925F25           [0890] gettable   74  74  382  ; "MELEE_SLOT"
2F94  DB518001           [0891] setlist    71  3   1    ; index 1 to 3
2F98  17120000           [0892] loadbool   72  0   0    ; false
2F9C  59120700           [0893] loadk      73  28       ; 0
2FA0  99120600           [0894] loadk      74  24       ; 0
2FA4  CA128023           [0895] len        75  71     
2FA8  19130600           [0896] loadk      76  24       ; 0
2FAC  90920680           [0897] forprep    74  27       ; to [925]
2FB0  A4535823           [0898] self       78  70  353  ; 1644212373
2FB4  1DD40100           [0899] getglobal  80  7        ; Lotus_Game
2FB8  0E145828           [0900] gettable   80  80  352  ; "LOT_NORMAL"
2FBC  4E549323           [0901] gettable   81  71  77 
2FC0  A2930002           [0902] call       78  4   2  
2FC4  DD530100           [0903] getglobal  79  5        ; 1074689893
2FC8  0E945827           [0904] gettable   80  78  354  ; "mItemType"
2FCC  E2930001           [0905] call       79  2   2  
2FD0  D8130000           [0906] test       79      0    ; to [908] if true
2FD4  1A400080           [0907] jmp        2            ; to [910]
2FD8  4312C624           [0908] add        73  73  280  ; 0
2FDC  1A800380           [0909] jmp        15           ; to [925]
2FE0  CE935827           [0910] gettable   79  78  354  ; "mItemType"
2FE4  E4D3C027           [0911] self       79  79  259  ; -1957065004
2FE8  4E946101           [0912] gettable   81  2   390  ; "exclusiveWeapon"
2FEC  E2938001           [0913] call       79  3   2  
2FF0  D8530000           [0914] test       79      1    ; to [916] if false
2FF4  1AC00180           [0915] jmp        8            ; to [924]
2FF8  58110000           [0916] test       69      0    ; to [918] if true
2FFC  1A800180           [0917] jmp        7            ; to [925]
3000  CE935827           [0918] gettable   79  78  354  ; "mItemType"
3004  E4D3C027           [0919] self       79  79  259  ; -1957065004
3008  5D542200           [0920] getglobal  81  137      ; gLotusHybridWeaponType
300C  E2938001           [0921] call       79  3   2  
3010  D8130000           [0922] test       79      0    ; to [924] if true
3014  1A000080           [0923] jmp        1            ; to [925]
3018  17128000           [0924] loadbool   72  1   0    ; true
301C  94D2F87F           [0925] forloop    74  -28      ; to [898] if loop
3020  18520000           [0926] test       72      1    ; to [928] if false
3024  1A401B80           [0927] jmp        110          ; to [1038]
3028  DDD30200           [0928] getglobal  79  11       ; -421772368
302C  1D940300           [0929] getglobal  80  14       ; -1615931716
3030  5D940E00           [0930] getglobal  81  58       ; 2083004503
3034  8E946101           [0931] gettable   82  2   390  ; "exclusiveWeapon"
3038  62940001           [0932] call       81  2   2  
303C  64D4D828           [0933] self       81  81  355  ; 1634497718
3040  62140001           [0934] call       81  2   0  
3044  22940000           [0935] call       80  0   2  
3048  57140000           [0936] loadbool   81  0   0    ; false
304C  E2938001           [0937] call       79  3   2  
3050  0B940000           [0938] newtable   80  0   2    ; array=0, hash=2
3054  0C946285           [0939] settable   80  266 394  ; "text" "/Lotus/Language/Menu/MissionExclusiveWeaponRequired"
3058  0CD413B4           [0940] settable   80  360 79   ; "ITEM"
305C  1E140001           [0941] return     80  2      
3060  1A801780           [0942] jmp        95           ; to [1038]
3064  06140028           [0943] loadnil    80  80     
3068  59140600           [0944] loadk      81  24       ; 0
306C  8A140022           [0945] len        82  68     
3070  D9140600           [0946] loadk      83  24       ; 0
3074  50141680           [0947] forprep    81  89       ; to [1037]
3078  5D951B00           [0948] getglobal  85  110      ; cjson
307C  4ED5DB2A           [0949] gettable   85  85  367  ; -1976663275
3080  8E151522           [0950] gettable   86  68  84 
3084  8E155C2B           [0951] gettable   86  86  368  ; "loadout"
3088  62950001           [0952] call       85  2   2  
308C  8B158001           [0953] newtable   86  3   0    ; array=3, hash=0
3090  CED5E22A           [0954] gettable   87  85  395  ; "NORMAL"
3094  CE15E32B           [0955] gettable   87  87  396  ; 0
3098  0ED6E22A           [0956] gettable   88  85  395  ; "NORMAL"
309C  0E56632C           [0957] gettable   88  88  397  ; 0
30A0  4ED6E22A           [0958] gettable   89  85  395  ; "NORMAL"
30A4  4E96E32C           [0959] gettable   89  89  398  ; 0
30A8  9B558001           [0960] setlist    86  3   1    ; index 1 to 3
30AC  D7150000           [0961] loadbool   87  0   0    ; false
30B0  19160700           [0962] loadk      88  28       ; 0
30B4  59160600           [0963] loadk      89  24       ; 0
30B8  8A16002B           [0964] len        90  86     
30BC  D9160600           [0965] loadk      91  24       ; 0
30C0  50560980           [0966] forprep    89  38       ; to [1005]
30C4  5D570100           [0967] getglobal  93  5        ; 1074689893
30C8  8E17172B           [0968] gettable   94  86  92 
30CC  62970001           [0969] call       93  2   2  
30D0  58570000           [0970] test       93      1    ; to [972] if false
30D4  1A400180           [0971] jmp        6            ; to [978]
30D8  5D570100           [0972] getglobal  93  5        ; 1074689893
30DC  8E17172B           [0973] gettable   94  86  92 
30E0  8ED7632F           [0974] gettable   94  94  399  ; "ItemType"
30E4  62970001           [0975] call       93  2   2  
30E8  58170000           [0976] test       93      0    ; to [978] if true
30EC  1A400080           [0977] jmp        2            ; to [980]
30F0  0316462C           [0978] add        88  88  280  ; 0
30F4  1A000680           [0979] jmp        25           ; to [1005]
30F8  5D172400           [0980] getglobal  93  144      ; 738251817
30FC  8E17172B           [0981] gettable   94  86  92 
3100  8ED7632F           [0982] gettable   94  94  399  ; "ItemType"
3104  62970001           [0983] call       93  2   2  
3108  1214802E           [0984] move       80  93     
310C  5D570100           [0985] getglobal  93  5        ; 1074689893
3110  92170028           [0986] move       94  80     
3114  62970001           [0987] call       93  2   2  
3118  58170000           [0988] test       93      0    ; to [990] if true
311C  1A400080           [0989] jmp        2            ; to [992]
3120  0316462C           [0990] add        88  88  280  ; 0
3124  1A000380           [0991] jmp        13           ; to [1005]
3128  64D74028           [0992] self       93  80  259  ; -1957065004
312C  CE976101           [0993] gettable   95  2   390  ; "exclusiveWeapon"
3130  62978001           [0994] call       93  3   2  
3134  58570000           [0995] test       93      1    ; to [997] if false
3138  1A800180           [0996] jmp        7            ; to [1004]
313C  58110000           [0997] test       69      0    ; to [999] if true
3140  1A400180           [0998] jmp        6            ; to [1005]
3144  64D74028           [0999] self       93  80  259  ; -1957065004
3148  DD572200           [1000] getglobal  95  137      ; gLotusHybridWeaponType
314C  62978001           [1001] call       93  3   2  
3150  58170000           [1002] test       93      0    ; to [1004] if true
3154  1A000080           [1003] jmp        1            ; to [1005]
3158  D7158000           [1004] loadbool   87  1   0    ; true
315C  5416F67F           [1005] forloop    89  -39      ; to [967] if loop
3160  D8550000           [1006] test       87      1    ; to [1008] if false
3164  1A000780           [1007] jmp        29           ; to [1037]
3168  5DD70200           [1008] getglobal  93  11       ; -421772368
316C  9D970300           [1009] getglobal  94  14       ; -1615931716
3170  DD970E00           [1010] getglobal  95  58       ; 2083004503
3174  0E986101           [1011] gettable   96  2   390  ; "exclusiveWeapon"
3178  E2970001           [1012] call       95  2   2  
317C  E4D7D82F           [1013] self       95  95  355  ; 1634497718
3180  E2170001           [1014] call       95  2   0  
3184  A2970000           [1015] call       94  0   2  
3188  D7170000           [1016] loadbool   95  0   0    ; false
318C  62978001           [1017] call       93  3   2  
3190  8A170022           [1018] len        94  68     
fail op	35
3194  6300462F           [1019] close      1  
3198  1AC00080           [1020] jmp        4            ; to [1025]
319C  8E171522           [1021] gettable   94  68  84 
31A0  8ED7602F           [1022] gettable   94  94  387  ; "isLocal"
31A4  98170000           [1023] test       94      0    ; to [1025] if true
31A8  1A000180           [1024] jmp        5            ; to [1030]
31AC  8B970000           [1025] newtable   94  0   2    ; array=0, hash=2
31B0  8C976285           [1026] settable   94  266 394  ; "text" "/Lotus/Language/Menu/MissionExclusiveWeaponRequired"
31B4  8C5717B4           [1027] settable   94  360 93   ; "ITEM"
31B8  9E170001           [1028] return     94  2      
31BC  1A800180           [1029] jmp        7            ; to [1037]
31C0  8BD70000           [1030] newtable   94  0   3    ; array=0, hash=3
31C4  8C576485           [1031] settable   94  266 401  ; "text" "/Lotus/Language/Menu/MissionExclusiveWeaponRequiredSquad"
31C8  CE171522           [1032] gettable   95  68  84 
31CC  CE57DE2F           [1033] gettable   95  95  377  ; "name"
31D0  8CD717BC           [1034] settable   94  376 95   ; "player"
31D4  8C5717B4           [1035] settable   94  360 93   ; "ITEM"
31D8  9E170001           [1036] return     94  2      
31DC  5454E97F           [1037] forloop    81  -90      ; to [948] if loop
31E0  8E976401           [1038] gettable   94  2   402  ; "masteryReq"
fail op	35
31E4  6300452F           [1039] close      1  
31E8  1A000B80           [1040] jmp        45           ; to [1086]
31EC  8E976401           [1041] gettable   94  2   402  ; "masteryReq"
fail op	21
31F0  1580178E           [1042] concat     0   284 94 
31F4  1A400A80           [1043] jmp        42           ; to [1086]
31F8  9D970600           [1044] getglobal  94  26       ; gPlayerProfileMgr
31FC  A4D7462F           [1045] self       94  94  283  ; 569342746
3200  19180700           [1046] loadk      96  28       ; 0
3204  A2978001           [1047] call       94  3   2  
3208  A457472F           [1048] self       94  94  285  ; 1699680402
320C  A2970001           [1049] call       94  2   2  
3210  E4D7642F           [1050] self       95  94  403  ; 827662890
3214  E2970001           [1051] call       95  2   2  
3218  0E986401           [1052] gettable   96  2   402  ; "masteryReq"
fail op	33
321C  61C01730           [1053] tforloop   1       95   ; to [1055] if exit
3220  1A800480           [1054] jmp        19           ; to [1074]
3224  DD570100           [1055] getglobal  95  5        ; 1074689893
3228  0ED85201           [1056] gettable   96  2   331  ; "gameRules"
322C  E2970001           [1057] call       95  2   2  
3230  D8570000           [1058] test       95      1    ; to [1060] if false
3234  1A000380           [1059] jmp        13           ; to [1073]
3238  CED75201           [1060] gettable   95  2   331  ; "gameRules"
323C  E4D7C02F           [1061] self       95  95  259  ; -1957065004
3240  5D182500           [1062] getglobal  97  148      ; gLotusHubGameRulesType
3244  E2978001           [1063] call       95  3   2  
3248  D8170000           [1064] test       95      0    ; to [1066] if true
324C  1A000280           [1065] jmp        9            ; to [1075]
3250  E457652F           [1066] self       95  94  405  ; 1925029768
3254  E2970001           [1067] call       95  2   2  
fail op	21
3258  55C0178E           [1068] concat     1   284 95 
325C  1AC00080           [1069] jmp        4            ; to [1074]
3260  E497652F           [1070] self       95  94  406  ; -1250061376
3264  E2970001           [1071] call       95  2   2  
3268  1A400080           [1072] jmp        2            ; to [1075]
326C  D7570000           [1073] loadbool   95  0   1    ; false, to [1075]
3270  D7178000           [1074] loadbool   95  1   0    ; true
3274  D8570000           [1075] test       95      1    ; to [1077] if false
3278  1A000280           [1076] jmp        9            ; to [1086]
327C  0B580000           [1077] newtable   96  0   1    ; array=0, hash=1
3280  5DD80200           [1078] getglobal  97  11       ; -421772368
3284  99D82500           [1079] loadk      98  151      ; "/Lotus/Language/Game/MissionMasteryRequired"
3288  CB580000           [1080] newtable   99  0   1    ; array=0, hash=1
328C  0E996401           [1081] gettable   100 2   402  ; "masteryReq"
3290  CC1819CC           [1082] settable   99  408 100  ; "RANK"
3294  62988001           [1083] call       97  3   2  
3298  0C581885           [1084] settable   96  266 97   ; "text"
329C  1E180001           [1085] return     96  2      
32A0  0E586601           [1086] gettable   96  2   409  ; "maxSuitReq"
32A4  18180000           [1087] test       96      0    ; to [1089] if true
32A8  1A401780           [1088] jmp        94           ; to [1183]
32AC  1D581600           [1089] getglobal  96  89       ; gMatchingService
32B0  24585B30           [1090] self       96  96  365  ; -1985412809
32B4  22980001           [1091] call       96  2   2  
32B8  5D580100           [1092] getglobal  97  5        ; 1074689893
32BC  92180030           [1093] move       98  96     
32C0  62980001           [1094] call       97  2   2  
32C4  58580000           [1095] test       97      1    ; to [1097] if false
32C8  1A800080           [1096] jmp        3            ; to [1100]
32CC  4A180030           [1097] len        97  96     
fail op	33
32D0  2100C630           [1098] tforloop   0       280  ; to [1100] if exit
32D4  1A400980           [1099] jmp        38           ; to [1138]
32D8  5D980600           [1100] getglobal  97  26       ; gPlayerProfileMgr
32DC  64D8C630           [1101] self       97  97  283  ; 569342746
32E0  D9180700           [1102] loadk      99  28       ; 0
32E4  62988001           [1103] call       97  3   2  
32E8  6458C730           [1104] self       97  97  285  ; 1699680402
32EC  62980001           [1105] call       97  2   2  
32F0  6418D730           [1106] self       97  97  348  ; 51109503
32F4  62980001           [1107] call       97  2   2  
32F8  A458D830           [1108] self       98  97  353  ; 1644212373
32FC  1DD90100           [1109] getglobal  100 7        ; Lotus_Game
3300  0E195832           [1110] gettable   100 100 352  ; "LOT_NORMAL"
3304  5DD90100           [1111] getglobal  101 7        ; Lotus_Game
3308  4E19DF32           [1112] gettable   101 101 380  ; "SUIT_SLOT"
330C  A2980002           [1113] call       98  4   2  
3310  DD580100           [1114] getglobal  99  5        ; 1074689893
3314  12190031           [1115] move       100 98     
3318  E2980001           [1116] call       99  2   2  
331C  D8580000           [1117] test       99      1    ; to [1119] if false
3320  1A800280           [1118] jmp        11           ; to [1130]
3324  DD180000           [1119] getglobal  99  0        ; gGameConfig
3328  E498E631           [1120] self       99  99  410  ; -1634834758
332C  4ED96631           [1121] gettable   101 98  411  ; "mXP"
3330  8E995831           [1122] gettable   102 98  354  ; "mItemType"
3334  E2980002           [1123] call       99  4   2  
3338  1D190000           [1124] getglobal  100 0        ; gGameConfig
333C  24196732           [1125] self       100 100 412  ; 812685133
3340  8E995831           [1126] gettable   102 98  354  ; "mItemType"
3344  22998001           [1127] call       100 3   2  
fail op	33
3348  61C01832           [1128] tforloop   1       99   ; to [1130] if exit
334C  1A000080           [1129] jmp        1            ; to [1131]
3350  D7580000           [1130] loadbool   99  0   1    ; false, to [1132]
3354  D7188000           [1131] loadbool   99  1   0    ; true
3358  D8580000           [1132] test       99      1    ; to [1134] if false
335C  1A000C80           [1133] jmp        49           ; to [1183]
3360  0B590000           [1134] newtable   100 0   1    ; array=0, hash=1
3364  0C596785           [1135] settable   100 266 413  ; "text" "/Lotus/Language/Menu/MissionMaxSuitRequired"
3368  1E190001           [1136] return     100 2      
336C  1A000B80           [1137] jmp        45           ; to [1183]
3370  19190600           [1138] loadk      100 24       ; 0
3374  4A190030           [1139] len        101 96     
3378  99190600           [1140] loadk      102 24       ; 0
337C  10D90980           [1141] forprep    100 40       ; to [1182]
3380  1D9A1B00           [1142] getglobal  104 110      ; cjson
3384  0EDA5B34           [1143] gettable   104 104 367  ; -1976663275
3388  4EDA1930           [1144] gettable   105 96  103
338C  4E1ADC34           [1145] gettable   105 105 368  ; "loadout"
3390  229A0001           [1146] call       104 2   2  
3394  4EDA6234           [1147] gettable   105 104 395  ; "NORMAL"
3398  4E1AC634           [1148] gettable   105 105 280  ; 0
339C  9D5A0100           [1149] getglobal  106 5        ; 1074689893
33A0  D21A8034           [1150] move       107 105    
33A4  A29A0001           [1151] call       106 2   2  
33A8  985A0000           [1152] test       106     1    ; to [1154] if false
33AC  1A800180           [1153] jmp        7            ; to [1161]
33B0  8E9AE734           [1154] gettable   106 105 414  ; "Level"
33B4  DD1A0000           [1155] getglobal  107 0        ; gGameConfig
33B8  E41AE735           [1156] self       107 107 412  ; 812685133
33BC  461B8036           [1157] loadnil    109 109    
33C0  E29A8001           [1158] call       107 3   2  
fail op	33
33C4  61809A35           [1159] tforloop   1       106  ; to [1161] if exit
33C8  1A000080           [1160] jmp        1            ; to [1162]
33CC  975A0000           [1161] loadbool   106 0   1    ; false, to [1163]
33D0  971A8000           [1162] loadbool   106 1   0    ; true
33D4  985A0000           [1163] test       106     1    ; to [1165] if false
33D8  1A000480           [1164] jmp        17           ; to [1182]
33DC  CA1A0030           [1165] len        107 96     
fail op	35
33E0  6300C635           [1166] close      1  
33E4  1AC00080           [1167] jmp        4            ; to [1172]
33E8  CEDA1930           [1168] gettable   107 96  103
33EC  CEDAE035           [1169] gettable   107 107 387  ; "isLocal"
33F0  D81A0000           [1170] test       107     0    ; to [1172] if true
33F4  1AC00080           [1171] jmp        4            ; to [1176]
33F8  CB5A0000           [1172] newtable   107 0   1    ; array=0, hash=1
33FC  CC5A6785           [1173] settable   107 266 413  ; "text" "/Lotus/Language/Menu/MissionMaxSuitRequired"
3400  DE1A0001           [1174] return     107 2      
3404  1A400180           [1175] jmp        6            ; to [1182]
3408  CB9A0000           [1176] newtable   107 0   2    ; array=0, hash=2
340C  CCDA6785           [1177] settable   107 266 415  ; "text" "/Lotus/Language/Menu/MissionMaxSuitRequiredSquad"
3410  0EDB1930           [1178] gettable   108 96  103
3414  0E5B5E36           [1179] gettable   108 108 377  ; "name"
3418  CC1A1BBC           [1180] settable   107 376 108  ; "player"
341C  DE1A0001           [1181] return     107 2      
3420  1499F57F           [1182] forloop    100 -41      ; to [1142] if loop
3424  CE1A6801           [1183] gettable   107 2   416  ; "periodicMissionTag"
3428  131B8000           [1184] getupval   108 1      
342C  0E5B6836           [1185] gettable   108 108 417  ; "ELITE_ALERT_PERIODIC_MISSION_TAG"
fail op	35
3430  63009B35           [1186] close      1  
3434  1A000180           [1187] jmp        5            ; to [1193]
3438  CE1A6801           [1188] gettable   107 2   416  ; "periodicMissionTag"
343C  131B8000           [1189] getupval   108 1      
3440  0E9B6836           [1190] gettable   108 108 418  ; "ELITE_ALERT_PERIODIC_MISSION_TAG_ALT"
fail op	35
3444  23009B35           [1191] close      0  
3448  1AC00180           [1192] jmp        8            ; to [1201]
344C  D31A8000           [1193] getupval   107 1      
3450  CEDAE835           [1194] gettable   107 107 419  ; -1463271188
3454  E29A8000           [1195] call       107 1   2  
3458  D85A0000           [1196] test       107     1    ; to [1198] if false
345C  1A800080           [1197] jmp        3            ; to [1201]
3460  CB5A0000           [1198] newtable   107 0   1    ; array=0, hash=1
3464  CC1A6985           [1199] settable   107 266 420  ; "text" "/Lotus/Language/Menu/MissionStarChartCompletedRequirement"
3468  DE1A0001           [1200] return     107 2      
346C  DDDA0700           [1201] getglobal  107 31       ; _T
3470  CE5AE935           [1202] gettable   107 107 421  ; "CachedNodesPendingDestruction"
3474  D81A0000           [1203] test       107     0    ; to [1205] if true
3478  1AC00580           [1204] jmp        24           ; to [1229]
347C  DDDA0700           [1205] getglobal  107 31       ; _T
3480  CE5AE935           [1206] gettable   107 107 421  ; "CachedNodesPendingDestruction"
3484  CE5A8135           [1207] gettable   107 107 5  
3488  D81A0000           [1208] test       107     0    ; to [1210] if true
348C  1A800480           [1209] jmp        19           ; to [1229]
3490  DDDA0700           [1210] getglobal  107 31       ; _T
3494  CE5AE935           [1211] gettable   107 107 421  ; "CachedNodesPendingDestruction"
3498  CE5A8135           [1212] gettable   107 107 5  
349C  0E9BE935           [1213] gettable   108 107 422  ; "shouldLock"
34A0  181B0000           [1214] test       108     0    ; to [1216] if true
34A4  1A000380           [1215] jmp        13           ; to [1229]
34A8  1D9B1300           [1216] getglobal  108 78       ; Engine
34AC  0EDB6936           [1217] gettable   108 108 423  ; -794986224
34B0  4E1BEA35           [1218] gettable   109 107 424  ; "lockTime"
34B4  229B0001           [1219] call       108 2   2  
fail op	21
34B8  15406A36           [1220] concat     0   108 425
34BC  1A800180           [1221] jmp        7            ; to [1229]
34C0  0B5B0000           [1222] newtable   108 0   1    ; array=0, hash=1
34C4  5DDB0200           [1223] getglobal  109 11       ; -421772368
34C8  999B0700           [1224] loadk      110 30       ; "/Lotus/Language/Menu/MissionLocationUnavailable"
34CC  C61B8037           [1225] loadnil    111 111    
34D0  629B8001           [1226] call       109 3   2  
34D4  0C5B1B85           [1227] settable   108 266 109  ; "text"
34D8  1E1B0001           [1228] return     108 2      
34DC  1D5B0100           [1229] getglobal  108 5        ; 1074689893
34E0  4EDB5201           [1230] gettable   109 2   331  ; "gameRules"
34E4  229B0001           [1231] call       108 2   2  
34E8  185B0000           [1232] test       108     1    ; to [1234] if false
34EC  1A000D80           [1233] jmp        53           ; to [1287]
34F0  0EDB5201           [1234] gettable   108 2   331  ; "gameRules"
34F4  24DB4036           [1235] self       108 108 259  ; -1957065004
34F8  931B0002           [1236] getupval   110 4      
34FC  229B8001           [1237] call       108 3   2  
3500  181B0000           [1238] test       108     0    ; to [1240] if true
3504  1A800B80           [1239] jmp        47           ; to [1287]
3508  1D9B0600           [1240] getglobal  108 26       ; gPlayerProfileMgr
350C  24DB4636           [1241] self       108 108 283  ; 569342746
3510  991B0700           [1242] loadk      110 28       ; 0
3514  229B8001           [1243] call       108 3   2  
3518  245B4736           [1244] self       108 108 285  ; 1699680402
351C  229B0001           [1245] call       108 2   2  
3520  649B6A36           [1246] self       109 108 426  ; -618313505
3524  D31B0003           [1247] getupval   111 6      
3528  629B8001           [1248] call       109 3   2  
352C  8EDBEA36           [1249] gettable   110 109 427  ; "mInitiated"
3530  985B0000           [1250] test       110     1    ; to [1252] if false
3534  1A400480           [1251] jmp        18           ; to [1270]
3538  971B0000           [1252] loadbool   110 0   0    ; false
353C  981B0000           [1253] test       110     0    ; to [1255] if true
3540  1A800380           [1254] jmp        15           ; to [1270]
3544  9D1B1300           [1255] getglobal  110 76       ; -1817107093
3548  D91B2B00           [1256] loadk      111 172      ; "Player not affiliated with "
354C  1D9C0300           [1257] getglobal  112 14       ; -1615931716
3550  531C0003           [1258] getupval   113 6      
3554  229C0001           [1259] call       112 2   2  
3558  C21B9C37           [1260] concat     111 111 112
355C  A25B0001           [1261] call       110 2   1  
3560  8B5B0000           [1262] newtable   110 0   1    ; array=0, hash=1
3564  DDDB0200           [1263] getglobal  111 11       ; -421772368
3568  195C2B00           [1264] loadk      112 173      ; "/Lotus/Language/Game/ConclaveSyndicateRequired"
356C  461C8038           [1265] loadnil    113 113    
3570  E29B8001           [1266] call       111 3   2  
3574  8CDB1B85           [1267] settable   110 266 111  ; "text"
3578  9E1B0001           [1268] return     110 2      
357C  1A000480           [1269] jmp        17           ; to [1287]
3580  A49B6B36           [1270] self       110 108 430  ; 1327287327
3584  A29B0001           [1271] call       110 2   2  
3588  DD5B0100           [1272] getglobal  111 5        ; 1074689893
358C  121C0037           [1273] move       112 110    
3590  E29B0001           [1274] call       111 2   2  
3594  D85B0000           [1275] test       111     1    ; to [1277] if false
3598  1A800080           [1276] jmp        3            ; to [1280]
359C  CA1B0037           [1277] len        111 110    
fail op	35
35A0  2300C737           [1278] close      0  
35A4  1A800180           [1279] jmp        7            ; to [1287]
35A8  CB5B0000           [1280] newtable   111 0   1    ; array=0, hash=1
35AC  1DDC0200           [1281] getglobal  112 11       ; -421772368
35B0  59DC2B00           [1282] loadk      113 175      ; "/Lotus/Language/Game/ConclaveLoadoutRequired"
35B4  861C0039           [1283] loadnil    114 114    
35B8  229C8001           [1284] call       112 3   2  
35BC  CC1B1C85           [1285] settable   111 266 112  ; "text"
35C0  DE1B0001           [1286] return     111 2      
35C4  D8010000           [1287] test       7       0    ; to [1289] if true
35C8  1A800580           [1288] jmp        23           ; to [1312]
35CC  DD9B0600           [1289] getglobal  111 26       ; gPlayerProfileMgr
35D0  E4DBC637           [1290] self       111 111 283  ; 569342746
35D4  591C0700           [1291] loadk      113 28       ; 0
35D8  E29B8001           [1292] call       111 3   2  
35DC  E45BC737           [1293] self       111 111 285  ; 1699680402
35E0  E29B0001           [1294] call       111 2   2  
35E4  249CEB37           [1295] self       112 111 430  ; 1327287327
35E8  229C0001           [1296] call       112 2   2  
35EC  5D5C0100           [1297] getglobal  113 5        ; 1074689893
35F0  921C0038           [1298] move       114 112    
35F4  629C0001           [1299] call       113 2   2  
35F8  585C0000           [1300] test       113     1    ; to [1302] if false
35FC  1A800080           [1301] jmp        3            ; to [1305]
3600  4A1C0038           [1302] len        113 112    
fail op	35
3604  2300C738           [1303] close      0  
3608  1A800180           [1304] jmp        7            ; to [1312]
360C  4B5C0000           [1305] newtable   113 0   1    ; array=0, hash=1
3610  9DDC0200           [1306] getglobal  114 11       ; -421772368
3614  D9DC2B00           [1307] loadk      115 175      ; "/Lotus/Language/Game/ConclaveLoadoutRequired"
3618  061D003A           [1308] loadnil    116 116    
361C  A29C8001           [1309] call       114 3   2  
3620  4C9C1C85           [1310] settable   113 266 114  ; "text"
3624  5E1C0001           [1311] return     113 2      
3628  4E9C4101           [1312] gettable   113 2   262  ; "missionType"
362C  9DDC0100           [1313] getglobal  114 7        ; Lotus_Game
3630  8E1C4239           [1314] gettable   114 114 264  ; "MT_RAID"
fail op	35
3634  23809C38           [1315] close      0  
3638  1A401280           [1316] jmp        74           ; to [1391]
363C  4E1C6C01           [1317] gettable   113 2   432  ; "nightmare"
3640  581C0000           [1318] test       113     0    ; to [1320] if true
3644  1A801180           [1319] jmp        71           ; to [1391]
3648  591C2300           [1320] loadk      113 140      ; 0
364C  861C0039           [1321] loadnil    114 114    
3650  CB1C0000           [1322] newtable   115 0   0    ; array=0, hash=0
3654  1D5D1600           [1323] getglobal  116 89       ; gMatchingService
3658  245D5B3A           [1324] self       116 116 365  ; -1985412809
365C  229D0001           [1325] call       116 2   2  
3660  591D0600           [1326] loadk      117 24       ; 0
3664  8A1D003A           [1327] len        118 116    
3668  D91D0600           [1328] loadk      119 24       ; 0
366C  50DD0E80           [1329] forprep    117 60       ; to [1390]
3670  5D9E1B00           [1330] getglobal  121 110      ; cjson
3674  4EDEDB3C           [1331] gettable   121 121 367  ; -1976663275
3678  8E1E1E3A           [1332] gettable   122 116 120
367C  8E1E5C3D           [1333] gettable   122 122 368  ; "loadout"
3680  629E0001           [1334] call       121 2   2  
3684  8B1E8000           [1335] newtable   122 1   0    ; array=1, hash=0
3688  CEDEE23C           [1336] gettable   123 121 395  ; "NORMAL"
368C  CE1EC63D           [1337] gettable   123 123 280  ; 0
3690  9B5E8000           [1338] setlist    122 1   1    ; index 1 to 1
3694  D91E0600           [1339] loadk      123 24       ; 0
3698  0A1F003D           [1340] len        124 122    
369C  591F0600           [1341] loadk      125 24       ; 0
36A0  D05E0B80           [1342] forprep    123 46       ; to [1389]
36A4  CE9F1F3D           [1343] gettable   127 122 126
36A8  1D600100           [1344] getglobal  128 5        ; 1074689893
36AC  5220803F           [1345] move       129 127    
36B0  22A00001           [1346] call       128 2   2  
36B4  18600000           [1347] test       128     1    ; to [1349] if false
36B8  1AC00980           [1348] jmp        40           ; to [1389]
36BC  1D600100           [1349] getglobal  128 5        ; 1074689893
36C0  4EE0E33F           [1350] gettable   129 127 399  ; "ItemType"
36C4  22A00001           [1351] call       128 2   2  
36C8  18600000           [1352] test       128     1    ; to [1354] if false
36CC  1A800880           [1353] jmp        35           ; to [1389]
36D0  8EDCE33F           [1354] gettable   114 127 399  ; "ItemType"
36D4  1D202400           [1355] getglobal  128 144      ; 738251817
36D8  4EE0E33F           [1356] gettable   129 127 399  ; "ItemType"
36DC  22A00001           [1357] call       128 2   2  
36E0  5D600100           [1358] getglobal  129 5        ; 1074689893
36E4  92200040           [1359] move       130 128    
36E8  62A00001           [1360] call       129 2   2  
36EC  58600000           [1361] test       129     1    ; to [1363] if false
36F0  1A400280           [1362] jmp        10           ; to [1373]
36F4  53208003           [1363] getupval   129 7      
fail op	35
36F8  63402040           [1364] close      1  
36FC  1A800180           [1365] jmp        7            ; to [1373]
3700  64A05040           [1366] self       129 128 322  ; 455421500
3704  62A00001           [1367] call       129 2   2  
3708  921C8040           [1368] move       114 129    
370C  64606C40           [1369] self       129 128 433  ; 1280467243
3710  62A00001           [1370] call       129 2   2  
3714  12208040           [1371] move       128 129    
3718  1A00FC7F           [1372] jmp        -15          ; to [1358]
371C  4EA09C39           [1373] gettable   129 115 114
3720  58600000           [1374] test       129     1    ; to [1376] if false
3724  1A400080           [1375] jmp        2            ; to [1378]
3728  CC1C4639           [1376] settable   115 114 280  ; 0
372C  1A800080           [1377] jmp        3            ; to [1381]
3730  4EA09C39           [1378] gettable   129 115 114
3734  4320C640           [1379] add        129 129 280  ; 0
3738  CC5C2039           [1380] settable   115 114 129
373C  4EA09C39           [1381] gettable   129 115 114
fail op	21
3740  1540A038           [1382] concat     0   113 129
3744  1A000180           [1383] jmp        5            ; to [1389]
3748  4B608000           [1384] newtable   129 1   1    ; array=1, hash=1
374C  4CA06C85           [1385] settable   129 266 434  ; "text" "/Lotus/Language/Menu/NightmareRaidSuitConditionFail"
3750  86200041           [1386] loadnil    130 130    
3754  5B608000           [1387] setlist    129 1   1    ; index 1 to 1
3758  5E200001           [1388] return     129 2      
375C  D41EF47F           [1389] forloop    123 -47      ; to [1343] if loop
3760  549DF07F           [1390] forloop    117 -61      ; to [1330] if loop
3764  5D600100           [1391] getglobal  129 5        ; 1074689893
3768  8EE06C01           [1392] gettable   130 2   435  ; "questReq"
376C  62A00001           [1393] call       129 2   2  
3770  58600000           [1394] test       129     1    ; to [1396] if false
3774  1A001780           [1395] jmp        93           ; to [1489]
3778  53208000           [1396] getupval   129 1      
377C  4E20ED40           [1397] gettable   129 129 436  ; 715946636
3780  8EE06C01           [1398] gettable   130 2   435  ; "questReq"
3784  62A00001           [1399] call       129 2   2  
3788  58600000           [1400] test       129     1    ; to [1402] if false
378C  1A801580           [1401] jmp        87           ; to [1489]
3790  57208000           [1402] loadbool   129 1   0    ; true
3794  99602D00           [1403] loadk      130 181      ; "/Lotus/Language/Game/MissionQuestRequired"
3798  DD600100           [1404] getglobal  131 5        ; 1074689893
379C  0EE15201           [1405] gettable   132 2   331  ; "gameRules"
37A0  E2A00001           [1406] call       131 2   2  
37A4  D8600000           [1407] test       131     1    ; to [1409] if false
37A8  1A400D80           [1408] jmp        54           ; to [1463]
37AC  CEE05201           [1409] gettable   131 2   331  ; "gameRules"
37B0  E4E0C041           [1410] self       131 131 259  ; -1957065004
37B4  5D212500           [1411] getglobal  133 148      ; gLotusHubGameRulesType
37B8  E2A08001           [1412] call       131 3   2  
37BC  D8200000           [1413] test       131     0    ; to [1415] if true
37C0  1AC00B80           [1414] jmp        48           ; to [1463]
37C4  DDA00600           [1415] getglobal  131 26       ; gPlayerProfileMgr
37C8  E4E0C641           [1416] self       131 131 283  ; 569342746
37CC  59210700           [1417] loadk      133 28       ; 0
37D0  E2A08001           [1418] call       131 3   2  
37D4  E460C741           [1419] self       131 131 285  ; 1699680402
37D8  E2A00001           [1420] call       131 2   2  
37DC  E4A0ED41           [1421] self       131 131 438  ; 1865287165
37E0  E2A00001           [1422] call       131 2   2  
37E4  E4E0ED41           [1423] self       131 131 439  ; 1388869707
37E8  E2A00001           [1424] call       131 2   2  
37EC  0EE16C01           [1425] gettable   132 2   435  ; "questReq"
fail op	35
37F0  2300A141           [1426] close      0  
37F4  1A800880           [1427] jmp        35           ; to [1463]
37F8  DDE00700           [1428] getglobal  131 31       ; _T
37FC  CE20EE41           [1429] gettable   131 131 440  ; "ActiveQuestLoaded"
3800  D8600000           [1430] test       131     1    ; to [1432] if false
3804  1AC00380           [1431] jmp        16           ; to [1448]
3808  DDE00700           [1432] getglobal  131 31       ; _T
380C  1DA10E00           [1433] getglobal  132 58       ; 2083004503
3810  5DA10600           [1434] getglobal  133 26       ; gPlayerProfileMgr
3814  64E1C642           [1435] self       133 133 283  ; 569342746
3818  D9210700           [1436] loadk      135 28       ; 0
381C  62A18001           [1437] call       133 3   2  
3820  6461C742           [1438] self       133 133 285  ; 1699680402
3824  62A10001           [1439] call       133 2   2  
3828  64A1ED42           [1440] self       133 133 438  ; 1865287165
382C  62A10001           [1441] call       133 2   2  
3830  64E1ED42           [1442] self       133 133 439  ; 1388869707
3834  62210001           [1443] call       133 2   0  
3838  22A10000           [1444] call       132 0   2  
383C  CC20A1DC           [1445] settable   131 441 132  ; "SpotLoadedQuest"
3840  DDE00700           [1446] getglobal  131 31       ; _T
3844  CCA06EDC           [1447] settable   131 440 442  ; "ActiveQuestLoaded" 1
3848  D3208000           [1448] getupval   131 1      
384C  CEE0ED41           [1449] gettable   131 131 439  ; 1388869707
3850  1DA10600           [1450] getglobal  132 26       ; gPlayerProfileMgr
3854  24E14642           [1451] self       132 132 283  ; 569342746
3858  99210700           [1452] loadk      134 28       ; 0
385C  22A18001           [1453] call       132 3   2  
3860  24614742           [1454] self       132 132 285  ; 1699680402
3864  22210001           [1455] call       132 2   0  
3868  E2200100           [1456] call       131 0   4  
fail op	21
386C  55406342           [1457] concat     1   132 397
3870  1A000080           [1458] jmp        1            ; to [1460]
3874  57600000           [1459] loadbool   129 0   1    ; false, to [1461]
3878  57208000           [1460] loadbool   129 1   0    ; true
387C  99A00700           [1461] loadk      130 30       ; "/Lotus/Language/Menu/MissionLocationUnavailable"
3880  1A400280           [1462] jmp        10           ; to [1473]
3884  8EE16C01           [1463] gettable   134 2   435  ; "questReq"
3888  DD212400           [1464] getglobal  135 144      ; 738251817
388C  19E22E00           [1465] loadk      136 187      ; "/Lotus/Types/Keys/SolarisQuest/SolarisQuestKeyChain"
3890  E2A10001           [1466] call       135 2   2  
fail op	35
3894  23C02143           [1467] close      0  
3898  1AC00080           [1468] jmp        4            ; to [1473]
389C  8E216F01           [1469] gettable   134 2   444  ; "jobId"
fail op	35
38A0  63C04343           [1470] close      1  
38A4  1A000080           [1471] jmp        1            ; to [1473]
38A8  57200000           [1472] loadbool   129 0   0    ; false
38AC  58200000           [1473] test       129     0    ; to [1475] if true
38B0  1A400380           [1474] jmp        14           ; to [1489]
38B4  9DA10E00           [1475] getglobal  134 58       ; 2083004503
38B8  CEE16C01           [1476] gettable   135 2   435  ; "questReq"
38BC  A2A10001           [1477] call       134 2   2  
38C0  DDE10200           [1478] getglobal  135 11       ; -421772368
38C4  1DA20300           [1479] getglobal  136 14       ; -1615931716
38C8  64E25843           [1480] self       137 134 355  ; 1634497718
38CC  62220001           [1481] call       137 2   0  
38D0  22A20000           [1482] call       136 0   2  
38D4  46228044           [1483] loadnil    137 137    
38D8  E2A18001           [1484] call       135 3   2  
38DC  0BA20000           [1485] newtable   136 0   2    ; array=0, hash=2
38E0  0CA22085           [1486] settable   136 266 130  ; "text"
38E4  0CE221B4           [1487] settable   136 360 135  ; "ITEM"
38E8  1E220001           [1488] return     136 2      
38EC  1D620100           [1489] getglobal  136 5        ; 1074689893
38F0  4E626F01           [1490] gettable   137 2   445  ; "miscItemFee"
38F4  4EA2D844           [1491] gettable   137 137 354  ; "mItemType"
38F8  22A20001           [1492] call       136 2   2  
38FC  18620000           [1493] test       136     1    ; to [1495] if false
3900  1A401280           [1494] jmp        74           ; to [1569]
3904  0E626F01           [1495] gettable   136 2   445  ; "miscItemFee"
3908  0EA26F44           [1496] gettable   136 136 446  ; "mItemCount"
fail op	21
390C  1500228E           [1497] concat     0   284 136
3910  1A401180           [1498] jmp        70           ; to [1569]
3914  1DA20600           [1499] getglobal  136 26       ; gPlayerProfileMgr
3918  24E24644           [1500] self       136 136 283  ; 569342746
391C  99220700           [1501] loadk      138 28       ; 0
3920  22A28001           [1502] call       136 3   2  
3924  24624744           [1503] self       136 136 285  ; 1699680402
3928  22A20001           [1504] call       136 2   2  
392C  24A26D44           [1505] self       136 136 438  ; 1865287165
3930  22A20001           [1506] call       136 2   2  
3934  24E26F44           [1507] self       136 136 447  ; 858389503
3938  22A20001           [1508] call       136 2   2  
393C  4E626F01           [1509] gettable   137 2   445  ; "miscItemFee"
3940  4EA2D844           [1510] gettable   137 137 354  ; "mItemType"
3944  99220700           [1511] loadk      138 28       ; 0
3948  D9220600           [1512] loadk      139 24       ; 0
394C  0A230044           [1513] len        140 136    
3950  59230600           [1514] loadk      141 24       ; 0
3954  D0620280           [1515] forprep    139 10       ; to [1526]
3958  CEA32344           [1516] gettable   143 136 142
395C  CEA3D847           [1517] gettable   143 143 354  ; "mItemType"
3960  E4E3C047           [1518] self       143 143 259  ; -1957065004
3964  52248044           [1519] move       145 137    
3968  E2A38001           [1520] call       143 3   2  
396C  D8230000           [1521] test       143     0    ; to [1523] if true
3970  1A800080           [1522] jmp        3            ; to [1526]
3974  CEA32344           [1523] gettable   143 136 142
3978  8EA2EF47           [1524] gettable   138 143 446  ; "mItemCount"
397C  1A000080           [1525] jmp        1            ; to [1527]
3980  D422FD7F           [1526] forloop    139 -11      ; to [1516] if loop
3984  CE636F01           [1527] gettable   143 2   445  ; "miscItemFee"
3988  CEA3EF47           [1528] gettable   143 143 446  ; "mItemCount"
fail op	21
398C  15C02345           [1529] concat     0   138 143
3990  1A400980           [1530] jmp        38           ; to [1569]
3994  DDA30E00           [1531] getglobal  143 58       ; 2083004503
3998  0E646F01           [1532] gettable   144 2   445  ; "miscItemFee"
399C  0EA45848           [1533] gettable   144 144 354  ; "mItemType"
39A0  E2A30001           [1534] call       143 2   2  
39A4  1DE40200           [1535] getglobal  144 11       ; -421772368
39A8  5DA40300           [1536] getglobal  145 14       ; -1615931716
39AC  A4E4D847           [1537] self       146 143 355  ; 1634497718
39B0  A2240001           [1538] call       146 2   0  
39B4  62A40000           [1539] call       145 0   2  
39B8  97240000           [1540] loadbool   146 0   0    ; false
39BC  22A48001           [1541] call       144 3   2  
39C0  5DE40200           [1542] getglobal  145 11       ; -421772368
39C4  99243000           [1543] loadk      146 192      ; "/Lotus/Language/Game/MissionMiscItemRequired"
39C8  CBA40000           [1544] newtable   147 0   2    ; array=0, hash=2
39CC  0E656F01           [1545] gettable   148 2   445  ; "miscItemFee"
39D0  0EA56F4A           [1546] gettable   148 148 446  ; "mItemCount"
39D4  CC24A5E0           [1547] settable   147 449 148  ; "COUNT"
39D8  CC2424B4           [1548] settable   147 360 144  ; "ITEM"
39DC  62A48001           [1549] call       145 3   2  
39E0  A4E4C047           [1550] self       146 143 259  ; -1957065004
39E4  13250004           [1551] getupval   148 8      
39E8  A2A48001           [1552] call       146 3   2  
39EC  98240000           [1553] test       146     0    ; to [1555] if true
39F0  1A800280           [1554] jmp        11           ; to [1566]
39F4  92248048           [1555] move       146 145    
39F8  D9A43000           [1556] loadk      147 194      ; "\r\n\r\n"
39FC  1DE50200           [1557] getglobal  148 11       ; -421772368
3A00  59E53000           [1558] loadk      149 195      ; "/Lotus/Language/Episodes/AntiSerumInjectorReq"
3A04  8BA50000           [1559] newtable   150 0   2    ; array=0, hash=2
3A08  CE656F01           [1560] gettable   151 2   445  ; "miscItemFee"
3A0C  CEA5EF4B           [1561] gettable   151 151 446  ; "mItemCount"
3A10  8CE5A5E0           [1562] settable   150 449 151  ; "COUNT"
3A14  8C2524B4           [1563] settable   150 360 144  ; "ITEM"
3A18  22A58001           [1564] call       148 3   2  
3A1C  42242549           [1565] concat     145 146 148
3A20  8B640000           [1566] newtable   146 0   1    ; array=0, hash=1
3A24  8C642485           [1567] settable   146 266 145  ; "text"
3A28  9E240001           [1568] return     146 2      
3A2C  9DE40700           [1569] getglobal  146 31       ; _T
3A30  8E247149           [1570] gettable   146 146 452  ; "LockedGoalList"
3A34  98240000           [1571] test       146     0    ; to [1573] if true
3A38  1A400280           [1572] jmp        10           ; to [1583]
3A3C  9DE40700           [1573] getglobal  146 31       ; _T
3A40  8E247149           [1574] gettable   146 146 452  ; "LockedGoalList"
3A44  8E640149           [1575] gettable   146 146 5  
3A48  98240000           [1576] test       146     0    ; to [1578] if true
3A4C  1A000180           [1577] jmp        5            ; to [1583]
3A50  8B648000           [1578] newtable   146 1   1    ; array=1, hash=1
3A54  8C647185           [1579] settable   146 266 453  ; "text" "/Lotus/Language/Menu/SocialOverlay_EventMissionLocked"
3A58  C6248049           [1580] loadnil    147 147    
3A5C  9B648000           [1581] setlist    146 1   1    ; index 1 to 1
3A60  9E240001           [1582] return     146 2      
3A64  8EA47101           [1583] gettable   146 2   454  ; "activeMissionTag"
3A68  DDA40A00           [1584] getglobal  147 42       ; EMPTY_SYMBOL
fail op	35
3A6C  63C02449           [1585] close      1  
3A70  1A800E80           [1586] jmp        59           ; to [1646]
3A74  9D640100           [1587] getglobal  146 5        ; 1074689893
3A78  DDA40000           [1588] getglobal  147 2        ; gGameRules
3A7C  A2A40001           [1589] call       146 2   2  
3A80  98640000           [1590] test       146     1    ; to [1592] if false
3A84  1A400D80           [1591] jmp        54           ; to [1646]
3A88  9DA40000           [1592] getglobal  146 2        ; gGameRules
3A8C  A4E44049           [1593] self       146 146 259  ; -1957065004
3A90  1D250100           [1594] getglobal  148 4        ; gLotusGameRulesType
3A94  A2A48001           [1595] call       146 3   2  
3A98  98240000           [1596] test       146     0    ; to [1598] if true
3A9C  1AC00B80           [1597] jmp        48           ; to [1646]
3AA0  93248000           [1598] getupval   146 1      
3AA4  8EE47149           [1599] gettable   146 146 455  ; "VOID_PROJECTION_ITEMS"
3AA8  DDA40300           [1600] getglobal  147 14       ; -1615931716
3AAC  0EA57101           [1601] gettable   148 2   454  ; "activeMissionTag"
3AB0  E2A40001           [1602] call       147 2   2  
3AB4  8EE42449           [1603] gettable   146 146 147
3AB8  DDA40600           [1604] getglobal  147 26       ; gPlayerProfileMgr
3ABC  E4E4C649           [1605] self       147 147 283  ; 569342746
3AC0  59250700           [1606] loadk      149 28       ; 0
3AC4  E2A48001           [1607] call       147 3   2  
3AC8  E464C749           [1608] self       147 147 285  ; 1699680402
3ACC  E2A40001           [1609] call       147 2   2  
3AD0  1D650100           [1610] getglobal  148 5        ; 1074689893
3AD4  52250049           [1611] move       149 146    
3AD8  22A50001           [1612] call       148 2   2  
3ADC  18650000           [1613] test       148     1    ; to [1615] if false
3AE0  1A800780           [1614] jmp        31           ; to [1646]
3AE4  2425F249           [1615] self       148 147 456  ; 1996492674
3AE8  22A50001           [1616] call       148 2   2  
3AEC  5D650100           [1617] getglobal  149 5        ; 1074689893
3AF0  9225004A           [1618] move       150 148    
3AF4  62A50001           [1619] call       149 2   2  
3AF8  58650000           [1620] test       149     1    ; to [1622] if false
3AFC  1AC00580           [1621] jmp        24           ; to [1646]
3B00  64E5404A           [1622] self       149 148 259  ; -1957065004
3B04  D2250049           [1623] move       151 146    
3B08  62A58001           [1624] call       149 3   2  
3B0C  58650000           [1625] test       149     1    ; to [1627] if false
3B10  1A800480           [1626] jmp        19           ; to [1646]
3B14  5D251300           [1627] getglobal  149 76       ; -1817107093
3B18  99653200           [1628] loadk      150 201      ; "CheckConclaveRequirements clearing Active Void Projection: have "
3B1C  DDA50300           [1629] getglobal  151 14       ; -1615931716
3B20  24A6504A           [1630] self       152 148 322  ; 455421500
3B24  22260001           [1631] call       152 2   0  
3B28  E2A50000           [1632] call       151 0   2  
3B2C  19A63200           [1633] loadk      152 202      ; " but need a "
3B30  5DA60300           [1634] getglobal  153 14       ; -1615931716
3B34  A4A65049           [1635] self       154 146 322  ; 455421500
3B38  A2260001           [1636] call       154 2   0  
3B3C  62A60000           [1637] call       153 0   2  
3B40  8265264B           [1638] concat     150 150 153
3B44  62650001           [1639] call       149 2   1  
3B48  64E5F249           [1640] self       149 147 459  ; -1332388936
3B4C  C625804B           [1641] loadnil    151 151    
3B50  62658001           [1642] call       149 3   1  
3B54  5D651600           [1643] getglobal  149 89       ; gMatchingService
3B58  6425F34A           [1644] self       149 149 460  ; -1872227188
3B5C  62650001           [1645] call       149 2   1  
3B60  64657301           [1646] self       149 2   461  ; 1655282210
3B64  62A50001           [1647] call       149 2   2  
3B68  8A25804A           [1648] len        150 149    
fail op	21
3B6C  1580258E           [1649] concat     0   284 150
3B70  1A000480           [1650] jmp        17           ; to [1668]
3B74  9DA50600           [1651] getglobal  150 26       ; gPlayerProfileMgr
3B78  A4E5464B           [1652] self       150 150 283  ; 569342746
3B7C  19260700           [1653] loadk      152 28       ; 0
3B80  A2A58001           [1654] call       150 3   2  
3B84  A465474B           [1655] self       150 150 285  ; 1699680402
3B88  A2A50001           [1656] call       150 2   2  
3B8C  A4A5734B           [1657] self       150 150 462  ; 142200542
3B90  A2A50001           [1658] call       150 2   2  
3B94  CE25C64A           [1659] gettable   151 149 280  ; 0
3B98  CEE5F34B           [1660] gettable   151 151 463  ; "mCreditsFee"
fail op	21
3B9C  15C0254B           [1661] concat     0   150 151
3BA0  1A000180           [1662] jmp        5            ; to [1668]
3BA4  CB658000           [1663] newtable   151 1   1    ; array=1, hash=1
3BA8  CC257485           [1664] settable   151 266 464  ; "text" "/Lotus/Language/Menu/ArenaInsuffMinCredits"
3BAC  0626004C           [1665] loadnil    152 152    
3BB0  DB658000           [1666] setlist    151 1   1    ; index 1 to 1
3BB4  DE250001           [1667] return     151 2      
3BB8  DDA50F00           [1668] getglobal  151 62       ; -332969190
3BBC  12268002           [1669] move       152 5      
3BC0  E2A50001           [1670] call       151 2   2  
3BC4  1DE60700           [1671] getglobal  152 31       ; _T
3BC8  0E66744C           [1672] gettable   152 152 465  ; "CachedConstructionProjects"
3BCC  18260000           [1673] test       152     0    ; to [1675] if true
3BD0  1AC00A80           [1674] jmp        44           ; to [1719]
3BD4  1DA63400           [1675] getglobal  152 210      ; 248503575
3BD8  5DE60700           [1676] getglobal  153 31       ; _T
3BDC  4E66F44C           [1677] gettable   153 153 465  ; "CachedConstructionProjects"
3BE0  22260101           [1678] call       152 2   4  
3BE4  1A000980           [1679] jmp        37           ; to [1717]
3BE8  4EE7744E           [1680] gettable   157 156 467  ; "rebuildNode"
fail op	35
3BEC  2340A74B           [1681] close      0  
3BF0  1A400280           [1682] jmp        10           ; to [1693]
3BF4  4E27754E           [1683] gettable   157 156 468  ; "progress"
fail op	35
3BF8  6300C74E           [1684] close      1  
3BFC  1A800180           [1685] jmp        7            ; to [1693]
3C00  4B670000           [1686] newtable   157 0   1    ; array=0, hash=1
3C04  9DE70200           [1687] getglobal  158 11       ; -421772368
3C08  D9A70700           [1688] loadk      159 30       ; "/Lotus/Language/Menu/MissionLocationUnavailable"
3C0C  06280050           [1689] loadnil    160 160    
3C10  A2A78001           [1690] call       158 3   2  
3C14  4CA72785           [1691] settable   157 266 158  ; "text"
3C18  5E270001           [1692] return     157 2      
3C1C  4E67754E           [1693] gettable   157 156 469  ; "info"
3C20  8EA7F54E           [1694] gettable   158 157 470  ; "mNode"
fail op	35
3C24  2380A74B           [1695] close      0  
3C28  1AC00480           [1696] jmp        20           ; to [1717]
3C2C  8E27754E           [1697] gettable   158 156 468  ; "progress"
fail op	35
3C30  6300474F           [1698] close      1  
3C34  1A400280           [1699] jmp        10           ; to [1710]
3C38  8E27754E           [1700] gettable   158 156 468  ; "progress"
fail op	35
3C3C  2300464F           [1701] close      0  
3C40  1A400080           [1702] jmp        2            ; to [1705]
fail op	35
3C44  63C0F504           [1703] close      1  
3C48  1A000180           [1704] jmp        5            ; to [1710]
3C4C  8E27754E           [1705] gettable   158 156 468  ; "progress"
fail op	35
3C50  2300634F           [1706] close      0  
3C54  1A000280           [1707] jmp        9            ; to [1717]
fail op	35
3C58  2300F604           [1708] close      0  
3C5C  1A800180           [1709] jmp        7            ; to [1717]
3C60  8B670000           [1710] newtable   158 0   1    ; array=0, hash=1
3C64  DDE70200           [1711] getglobal  159 11       ; -421772368
3C68  19A80700           [1712] loadk      160 30       ; "/Lotus/Language/Menu/MissionLocationUnavailable"
3C6C  46288050           [1713] loadnil    161 161    
3C70  E2A78001           [1714] call       159 3   2  
3C74  8CE72785           [1715] settable   158 266 159  ; "text"
3C78  9E270001           [1716] return     158 2      
3C7C  16A60000           [1717] tforloop   152     2    ; to [1719] if exit
3C80  1A00F67F           [1718] jmp        -39          ; to [1680]
fail op	35
3C84  63004501           [1719] close      1  
3C88  1A000480           [1720] jmp        17           ; to [1738]
3C8C  8E677601           [1721] gettable   158 2   473  ; "jobTier"
3C90  DDE70100           [1722] getglobal  159 7        ; Lotus_Game
3C94  CEA7F64F           [1723] gettable   159 159 474  ; "JobDifficultyTier_PERMANENT_JOB"
fail op	35
3C98  23C0274F           [1724] close      0  
3C9C  1AC00280           [1725] jmp        12           ; to [1738]
3CA0  93278004           [1726] getupval   158 9      
3CA4  D2270001           [1727] move       159 2      
3CA8  A2E70001           [1728] call       158 2   3  
3CAC  1DE83600           [1729] getglobal  160 219      ; JCE_CAN_PLAY
fail op	35
3CB0  6300284F           [1730] close      1  
3CB4  1A400180           [1731] jmp        6            ; to [1738]
fail op	35
3CB8  6300C54F           [1732] close      1  
3CBC  1A400080           [1733] jmp        2            ; to [1736]
3CC0  DE270001           [1734] return     159 2      
3CC4  1A400080           [1735] jmp        2            ; to [1738]
3CC8  19283700           [1736] loadk      160 220      ; "/Lotus/Language/Menu/SocialOverlay_SessionExpired"
3CCC  1E280001           [1737] return     160 2      
3CD0  98000000           [1738] test       2       0    ; to [1740] if true
3CD4  1A400980           [1739] jmp        38           ; to [1778]
3CD8  1D280400           [1740] getglobal  160 16       ; string
3CDC  0E684450           [1741] gettable   160 160 273  ; -565905820
3CE0  5DA80300           [1742] getglobal  161 14       ; -1615931716
3CE4  8E684A01           [1743] gettable   162 2   297  ; "goalTag"
3CE8  62A80001           [1744] call       161 2   2  
3CEC  99683700           [1745] loadk      162 221      ; "Nightwave"
3CF0  22A88001           [1746] call       160 3   2  
3CF4  18280000           [1747] test       160     0    ; to [1749] if true
3CF8  1A000780           [1748] jmp        29           ; to [1778]
3CFC  1DA80F00           [1749] getglobal  160 62       ; -332969190
3D00  59A83700           [1750] loadk      161 222      ; "RadioLegionSyndicate"
3D04  22A80001           [1751] call       160 2   2  
3D08  5DE83700           [1752] getglobal  161 223      ; gGameData
3D0C  6428F850           [1753] self       161 161 480  ; 1214140738
3D10  62A80001           [1754] call       161 2   2  
3D14  99280700           [1755] loadk      162 28       ; 0
3D18  DDA83400           [1756] getglobal  163 210      ; 248503575
3D1C  12298050           [1757] move       164 161    
3D20  E2280101           [1758] call       163 2   4  
3D24  1A000180           [1759] jmp        5            ; to [1765]
3D28  0EEACA53           [1760] gettable   168 167 299  ; "mTag"
fail op	35
3D2C  23002854           [1761] close      0  
3D30  1A400080           [1762] jmp        2            ; to [1765]
3D34  8E68F853           [1763] gettable   162 167 481  ; "mTitle"
3D38  1A400080           [1764] jmp        2            ; to [1767]
3D3C  D6A80000           [1765] tforloop   163     2    ; to [1767] if exit
3D40  1A00FE7F           [1766] jmp        -7           ; to [1760]
3D44  19AA3800           [1767] loadk      168 226      ; 0
fail op	21
3D48  15002A51           [1768] concat     0   162 168
3D4C  1AC00180           [1769] jmp        8            ; to [1778]
3D50  4B6A0000           [1770] newtable   169 0   1    ; array=0, hash=1
3D54  9DEA0200           [1771] getglobal  170 11       ; -421772368
3D58  D9EA3800           [1772] loadk      171 227      ; "/Lotus/Language/Alerts/NightwaveAlertReq"
3D5C  0B6B0000           [1773] newtable   172 0   1    ; array=0, hash=1
3D60  0C2B2AF2           [1774] settable   172 484 168  ; "TITLE"
3D64  A2AA8001           [1775] call       170 3   2  
3D68  4CAA2A85           [1776] settable   169 266 170  ; "text"
3D6C  5E2A0001           [1777] return     169 2      
3D70  462A8054           [1778] loadnil    169 169    
3D74  5E2A0001           [1779] return     169 2      
3D78  1E008000           [1780] return     0   1      
                         * constants:
3D7D  01                 sizek (229)
3D7E  04                 const type 4
3D7F  0C                 string size (12)
3D80  6747616D65436F6E+  "gGameCon"
3D88  66696700           "fig\0"
                         const [0]: "gGameConfig"
3D8C  01                 const type 3
3D8D  4339E589           const [1]: (-1981466301)
3D91  04                 const type 4
3D92  0B                 string size (11)
3D93  6747616D6552756C+  "gGameRul"
3D9B  657300             "es\0"
                         const [2]: "gGameRules"
3D9E  01                 const type 3
3D9F  D48E598B           const [3]: (-1957065004)
3DA3  04                 const type 4
3DA4  14                 string size (20)
3DA5  674C6F7475734761+  "gLotusGa"
3DAD  6D6552756C657354+  "meRulesT"
3DB5  79706500           "ype\0"
                         const [4]: "gLotusGameRulesType"
3DB9  01                 const type 3
3DBA  65770E40           const [5]: (1074689893)
3DBE  04                 const type 4
3DBF  0C                 string size (12)
3DC0  6D697373696F6E54+  "missionT"
3DC8  79706500           "ype\0"
                         const [6]: "missionType"
3DCC  04                 const type 4
3DCD  0B                 string size (11)
3DCE  4C6F7475735F4761+  "Lotus_Ga"
3DD6  6D6500             "me\0"
                         const [7]: "Lotus_Game"
3DD9  04                 const type 4
3DDA  08                 string size (8)
3DDB  4D545F5241494400   "MT_RAID\0"
                         const [8]: "MT_RAID"
3DE3  04                 const type 4
3DE4  0D                 string size (13)
3DE5  6B6579436861696E+  "keyChain"
3DED  4E616D6500         "Name\0"
                         const [9]: "keyChainName"
3DF2  04                 const type 4
3DF3  05                 string size (5)
3DF4  7465787400         "text\0"
                         const [10]: "text"
3DF9  01                 const type 3
3DFA  B043DCE6           const [11]: (-421772368)
3DFE  04                 const type 4
3DFF  36                 string size (54)
3E00  2F4C6F7475732F4C+  "/Lotus/L"
3E08  616E67756167652F+  "anguage/"
3E10  4D656E752F4D6169+  "Menu/Mai"
3E18  6E4D656E755F4E65+  "nMenu_Ne"
3E20  774275696C644D69+  "wBuildMi"
3E28  7373696F6E73426C+  "ssionsBl"
3E30  6F636B656400       "ocked\0"
                         const [12]: "/Lotus/Language/Menu/MainMenu_NewBuildMissionsBlocked"
3E36  01                 const type 3
3E37  A22217F8           const [13]: (-132701534)
3E3B  01                 const type 3
3E3C  BCD6AE9F           const [14]: (-1615931716)
3E40  04                 const type 4
3E41  01                 string size (0)
                         const [15]: ""
3E43  04                 const type 4
3E44  07                 string size (7)
3E45  737472696E6700     "string\0"
                         const [16]: "string"
3E4C  01                 const type 3
3E4D  64F644DE           const [17]: (-565905820)
3E51  04                 const type 4
3E52  0E                 string size (14)
3E53  5441475F53455045+  "TAG_SEPE"
3E5B  5241544F5200       "RATOR\0"
                         const [18]: "TAG_SEPERATOR"
3E61  04                 const type 4
3E62  15                 string size (21)
3E63  4241444C414E445F+  "BADLAND_"
3E6B  444546454E444552+  "DEFENDER"
3E73  5F54414700         "_TAG\0"
                         const [19]: "BADLAND_DEFENDER_TAG"
3E78  00                 const type 0
                         const [20]: nil
3E79  04                 const type 4
3E7A  15                 string size (21)
3E7B  4241444C414E445F+  "BADLAND_"
3E83  41545441434B4552+  "ATTACKER"
3E8B  5F54414700         "_TAG\0"
                         const [21]: "BADLAND_ATTACKER_TAG"
3E90  04                 const type 4
3E91  13                 string size (19)
3E92  534F525449455F4D+  "SORTIE_M"
3E9A  495353494F4E5F54+  "ISSION_T"
3EA2  414700             "AG\0"
                         const [22]: "SORTIE_MISSION_TAG"
3EA5  01                 const type 3
3EA6  3320787B           const [23]: (2071470131)
3EAA  03                 const type 3
3EAB  0000803F           const [24]: (0)
3EAF  04                 const type 4
3EB0  0D                 string size (13)
3EB1  54656E6E6F436F6E+  "TennoCon"
3EB9  4855423200         "HUB2\0"
                         const [25]: "TennoConHUB2"
3EBE  04                 const type 4
3EBF  12                 string size (18)
3EC0  67506C6179657250+  "gPlayerP"
3EC8  726F66696C654D67+  "rofileMg"
3ED0  7200               "r\0"
                         const [26]: "gPlayerProfileMgr"
3ED2  01                 const type 3
3ED3  1A7BEF21           const [27]: (569342746)
3ED7  03                 const type 3
3ED8  00000000           const [28]: (0)
3EDC  01                 const type 3
3EDD  92104F65           const [29]: (1699680402)
3EE1  04                 const type 4
3EE2  30                 string size (48)
3EE3  2F4C6F7475732F4C+  "/Lotus/L"
3EEB  616E67756167652F+  "anguage/"
3EF3  4D656E752F4D6973+  "Menu/Mis"
3EFB  73696F6E4C6F6361+  "sionLoca"
3F03  74696F6E556E6176+  "tionUnav"
3F0B  61696C61626C6500   "ailable\0"
                         const [30]: "/Lotus/Language/Menu/MissionLocationUnavailable"
3F13  04                 const type 4
3F14  03                 string size (3)
3F15  5F5400             "_T\0"
                         const [31]: "_T"
3F18  04                 const type 4
3F19  0D                 string size (13)
3F1A  436163686564416C+  "CachedAl"
3F22  6572747300         "erts\0"
                         const [32]: "CachedAlerts"
3F27  04                 const type 4
3F28  09                 string size (9)
3F29  6D56697369626C65+  "mVisible"
3F31  00                 "\0"
                         const [33]: "mVisible"
3F32  04                 const type 4
3F33  0A                 string size (10)
3F34  414C4552545F5441+  "ALERT_TA"
3F3C  4700               "G\0"
                         const [34]: "ALERT_TAG"
3F3E  04                 const type 4
3F3F  0B                 string size (11)
3F40  6D416C657274496E+  "mAlertIn"
3F48  666F00             "fo\0"
                         const [35]: "mAlertInfo"
3F4B  04                 const type 4
3F4C  0D                 string size (13)
3F4D  6D4D697373696F6E+  "mMission"
3F55  496E666F00         "Info\0"
                         const [36]: "mMissionInfo"
3F5A  04                 const type 4
3F5B  03                 string size (3)
3F5C  5F4700             "_G\0"
                         const [37]: "_G"
3F5F  04                 const type 4
3F60  0F                 string size (15)
3F61  436163686564476F+  "CachedGo"
3F69  616C496E666F00     "alInfo\0"
                         const [38]: "CachedGoalInfo"
3F70  04                 const type 4
3F71  0A                 string size (10)
3F72  4556454E545F5441+  "EVENT_TA"
3F7A  4700               "G\0"
                         const [39]: "EVENT_TAG"
3F7C  01                 const type 3
3F7D  BC9D26A4           const [40]: (-1540973124)
3F81  04                 const type 4
3F82  08                 string size (8)
3F83  676F616C54616700   "goalTag\0"
                         const [41]: "goalTag"
3F8B  04                 const type 4
3F8C  0D                 string size (13)
3F8D  454D5054595F5359+  "EMPTY_SY"
3F95  4D424F4C00         "MBOL\0"
                         const [42]: "EMPTY_SYMBOL"
3F9A  04                 const type 4
3F9B  05                 string size (5)
3F9C  6D54616700         "mTag\0"
                         const [43]: "mTag"
3FA1  04                 const type 4
3FA2  18                 string size (24)
3FA3  4361636865645379+  "CachedSy"
3FAB  6E6469636174654D+  "ndicateM"
3FB3  697373696F6E7300   "issions\0"
                         const [44]: "CachedSyndicateMissions"
3FBB  04                 const type 4
3FBC  16                 string size (22)
3FBD  53594E4449434154+  "SYNDICAT"
3FC5  455F4D495353494F+  "E_MISSIO"
3FCD  4E5F54414700       "N_TAG\0"
                         const [45]: "SYNDICATE_MISSION_TAG"
3FD3  04                 const type 4
3FD4  15                 string size (21)
3FD5  436163686564536F+  "CachedSo"
3FDD  727469654D697373+  "rtieMiss"
3FE5  696F6E7300         "ions\0"
                         const [46]: "CachedSortieMissions"
3FEA  04                 const type 4
3FEB  15                 string size (21)
3FEC  4361636865644163+  "CachedAc"
3FF4  746976654D697373+  "tiveMiss"
3FFC  696F6E7300         "ions\0"
                         const [47]: "CachedActiveMissions"
4001  04                 const type 4
4002  13                 string size (19)
4003  4143544956455F4D+  "ACTIVE_M"
400B  495353494F4E5F54+  "ISSION_T"
4013  414700             "AG\0"
                         const [48]: "ACTIVE_MISSION_TAG"
4016  04                 const type 4
4017  13                 string size (19)
4018  436163686564496E+  "CachedIn"
4020  766173696F6E496E+  "vasionIn"
4028  666F00             "fo\0"
                         const [49]: "CachedInvasionInfo"
402B  04                 const type 4
402C  16                 string size (22)
402D  494E564153494F4E+  "INVASION"
4035  5F41545441434B45+  "_ATTACKE"
403D  525F54414700       "R_TAG\0"
                         const [50]: "INVASION_ATTACKER_TAG"
4043  04                 const type 4
4044  15                 string size (21)
4045  6D41747461636B65+  "mAttacke"
404D  724D697373696F6E+  "rMission"
4055  496E666F00         "Info\0"
                         const [51]: "mAttackerMissionInfo"
405A  04                 const type 4
405B  16                 string size (22)
405C  494E564153494F4E+  "INVASION"
4064  5F444546454E4445+  "_DEFENDE"
406C  525F54414700       "R_TAG\0"
                         const [52]: "INVASION_DEFENDER_TAG"
4072  04                 const type 4
4073  15                 string size (21)
4074  6D446566656E6465+  "mDefende"
407C  724D697373696F6E+  "rMission"
4084  496E666F00         "Info\0"
                         const [53]: "mDefenderMissionInfo"
4089  04                 const type 4
408A  19                 string size (25)
408B  436163686564456C+  "CachedEl"
4093  697465416C657274+  "iteAlert"
409B  4D697373696F6E73+  "Missions"
40A3  00                 "\0"
                         const [54]: "CachedEliteAlertMissions"
40A4  04                 const type 4
40A5  10                 string size (16)
40A6  454C4954455F414C+  "ELITE_AL"
40AE  4552545F54414700   "ERT_TAG\0"
                         const [55]: "ELITE_ALERT_TAG"
40B6  04                 const type 4
40B7  08                 string size (8)
40B8  4B45595F54414700   "KEY_TAG\0"
                         const [56]: "KEY_TAG"
40C0  01                 const type 3
40C1  BB3AA4CA           const [57]: (-895206725)
40C5  01                 const type 3
40C6  5720287C           const [58]: (2083004503)
40CA  01                 const type 3
40CB  497363B8           const [59]: (-1201441975)
40CF  04                 const type 4
40D0  1A                 string size (26)
40D1  4172636877696E67+  "Archwing"
40D9  51756573742F4D69+  "Quest/Mi"
40E1  7373696F6E466976+  "ssionFiv"
40E9  6500               "e\0"
                         const [60]: "ArchwingQuest/MissionFive"
40EB  01                 const type 3
40EC  5BF6934B           const [61]: (1267988059)
40F0  01                 const type 3
40F1  1A4B27EC           const [62]: (-332969190)
40F5  04                 const type 4
40F6  10                 string size (16)
40F7  6750656E64696E67+  "gPending"
40FF  4D697373696F6E00   "Mission\0"
                         const [63]: "gPendingMission"
4107  04                 const type 4
4108  0E                 string size (14)
4109  7265717569726564+  "required"
4111  4974656D7300       "Items\0"
                         const [64]: "requiredItems"
4117  04                 const type 4
4118  0D                 string size (13)
4119  6C6576656C4B6579+  "levelKey"
4121  4E616D6500         "Name\0"
                         const [65]: "levelKeyName"
4126  01                 const type 3
4127  3C2E251B           const [66]: (455421500)
412B  01                 const type 3
412C  BC1B7310           const [67]: (275979196)
4130  04                 const type 4
4131  2F                 string size (47)
4132  2F4C6F7475732F4C+  "/Lotus/L"
413A  616E67756167652F+  "anguage/"
4142  4D656E752F4F6D65+  "Menu/Ome"
414A  67614C696D69745F+  "gaLimit_"
4152  5265737472696374+  "Restrict"
415A  536F7274696500     "Sortie\0"
                         const [68]: "/Lotus/Language/Menu/OmegaLimit_RestrictSortie"
4161  04                 const type 4
4162  0E                 string size (14)
4163  6D697373696F6E52+  "missionR"
416B  657761726400       "eward\0"
                         const [69]: "missionReward"
4171  04                 const type 4
4172  06                 string size (6)
4173  6974656D7300       "items\0"
                         const [70]: "items"
4179  01                 const type 3
417A  70BE7730           const [71]: (813153904)
417E  04                 const type 4
417F  1F                 string size (31)
4180  6752616E646F6D69+  "gRandomi"
4188  7A65644172746966+  "zedArtif"
4190  6163745570677261+  "actUpgra"
4198  64655479706500     "deType\0"
                         const [72]: "gRandomizedArtifactUpgradeType"
419F  04                 const type 4
41A0  30                 string size (48)
41A1  2F4C6F7475732F4C+  "/Lotus/L"
41A9  616E67756167652F+  "anguage/"
41B1  4D656E752F4F6D65+  "Menu/Ome"
41B9  67614C696D69745F+  "gaLimit_"
41C1  5265737472696374+  "Restrict"
41C9  4D697373696F6E00   "Mission\0"
                         const [73]: "/Lotus/Language/Menu/OmegaLimit_RestrictMission"
41D1  04                 const type 4
41D2  13                 string size (19)
41D3  6D697373696F6E52+  "missionR"
41DB  6577617264457874+  "ewardExt"
41E3  726100             "ra\0"
                         const [74]: "missionRewardExtra"
41E6  04                 const type 4
41E7  0A                 string size (10)
41E8  67616D6552756C65+  "gameRule"
41F0  7300               "s\0"
                         const [75]: "gameRules"
41F2  01                 const type 3
41F3  6B25B193           const [76]: (-1817107093)
41F7  04                 const type 4
41F8  3C                 string size (60)
41F9  436865636B436F6E+  "CheckCon"
4201  636C617665526571+  "claveReq"
4209  756972656D656E74+  "uirement"
4211  73202D20736B6970+  "s - skip"
4219  7065642064756520+  "ped due "
4221  746F20646576206D+  "to dev m"
4229  6F646520656E6162+  "ode enab"
4231  6C656400           "led\0"
                         const [77]: "CheckConclaveRequirements - skipped due to dev mode enabled"
4235  04                 const type 4
4236  07                 string size (7)
4237  456E67696E6500     "Engine\0"
                         const [78]: "Engine"
423E  01                 const type 3
423F  29425D69           const [79]: (1767719465)
4243  01                 const type 3
4244  E5E361D8           const [80]: (-664673307)
4248  04                 const type 4
4249  08                 string size (8)
424A  67526567696F6E00   "gRegion\0"
                         const [81]: "gRegion"
4252  01                 const type 3
4253  965607D2           const [82]: (-771271018)
4257  04                 const type 4
4258  06                 string size (6)
4259  6C6576656C00       "level\0"
                         const [83]: "level"
425F  01                 const type 3
4260  75A8816B           const [84]: (1803659381)
4264  04                 const type 4
4265  3B                 string size (59)
4266  2F4C6F7475732F4C+  "/Lotus/L"
426E  616E67756167652F+  "anguage/"
4276  4D656E752F536F63+  "Menu/Soc"
427E  69616C4F7665726C+  "ialOverl"
4286  61795F5365737369+  "ay_Sessi"
428E  6F6E4A6F696E4672+  "onJoinFr"
4296  6F6D5475746F7269+  "omTutori"
429E  616C00             "al\0"
                         const [85]: "/Lotus/Language/Menu/SocialOverlay_SessionJoinFromTutorial"
42A1  04                 const type 4
42A2  0E                 string size (14)
42A3  636F6E636C617665+  "conclave"
42AB  52616E676500       "Range\0"
                         const [86]: "conclaveRange"
42B1  04                 const type 4
42B2  09                 string size (9)
42B3  6D696E56616C7565+  "minValue"
42BB  00                 "\0"
                         const [87]: "minValue"
42BC  04                 const type 4
42BD  09                 string size (9)
42BE  6D617856616C7565+  "maxValue"
42C6  00                 "\0"
                         const [88]: "maxValue"
42C7  04                 const type 4
42C8  11                 string size (17)
42C9  674D61746368696E+  "gMatchin"
42D1  6753657276696365+  "gService"
42D9  00                 "\0"
                         const [89]: "gMatchingService"
42DA  01                 const type 3
42DB  06D3EA1F           const [90]: (535483142)
42DF  01                 const type 3
42E0  4636E0D5           const [91]: (-706726330)
42E4  01                 const type 3
42E5  7FDE0B03           const [92]: (51109503)
42E9  04                 const type 4
42EA  15                 string size (21)
42EB  636F6E636C617665+  "conclave"
42F3  52616E6765506572+  "RangePer"
42FB  4974656D00         "Item\0"
                         const [93]: "conclaveRangePerItem"
4300  04                 const type 4
4301  10                 string size (16)
4302  4D41585F4C6F6164+  "MAX_Load"
430A  4F7574536C6F7400   "OutSlot\0"
                         const [94]: "MAX_LoadOutSlot"
4312  01                 const type 3
4313  5F16FB4A           const [95]: (1257969247)
4317  04                 const type 4
4318  0B                 string size (11)
4319  4C4F545F4E4F524D+  "LOT_NORM"
4321  414C00             "AL\0"
                         const [96]: "LOT_NORMAL"
4324  01                 const type 3
4325  95B00062           const [97]: (1644212373)
4329  04                 const type 4
432A  0A                 string size (10)
432B  6D4974656D547970+  "mItemTyp"
4333  6500               "e\0"
                         const [98]: "mItemType"
4335  01                 const type 3
4336  B6746C61           const [99]: (1634497718)
433A  04                 const type 4
433B  2D                 string size (45)
433C  2F4C6F7475732F4C+  "/Lotus/L"
4344  616E67756167652F+  "anguage/"
434C  4D656E752F507670+  "Menu/Pvp"
4354  56616C7565466169+  "ValueFai"
435C  6C757265536F6C6F+  "lureSolo"
4364  4974656D00         "Item\0"
                         const [100]: "/Lotus/Language/Menu/PvpValueFailureSoloItem"
4369  04                 const type 4
436A  06                 string size (6)
436B  76616C756500       "value\0"
                         const [101]: "value"
4371  04                 const type 4
4372  04                 string size (4)
4373  4D494E00           "MIN\0"
                         const [102]: "MIN"
4377  04                 const type 4
4378  04                 string size (4)
4379  4D415800           "MAX\0"
                         const [103]: "MAX"
437D  04                 const type 4
437E  05                 string size (5)
437F  4954454D00         "ITEM\0"
                         const [104]: "ITEM"
4384  04                 const type 4
4385  0D                 string size (13)
4386  4C4F545F53454E54+  "LOT_SENT"
438E  494E454C00         "INEL\0"
                         const [105]: "LOT_SENTINEL"
4393  01                 const type 3
4394  95CBE7D2           const [106]: (-756561003)
4398  04                 const type 4
4399  12                 string size (18)
439A  4C6F63616C205056+  "Local PV"
43A2  502076616C75653A+  "P value:"
43AA  2000               " \0"
                         const [107]: "Local PVP value: "
43AC  04                 const type 4
43AD  29                 string size (41)
43AE  2F4C6F7475732F4C+  "/Lotus/L"
43B6  616E67756167652F+  "anguage/"
43BE  4D656E752F507670+  "Menu/Pvp"
43C6  56616C7565466169+  "ValueFai"
43CE  6C757265536F6C6F+  "lureSolo"
43D6  00                 "\0"
                         const [108]: "/Lotus/Language/Menu/PvpValueFailureSolo"
43D7  01                 const type 3
43D8  3701A989           const [109]: (-1985412809)
43DC  04                 const type 4
43DD  06                 string size (6)
43DE  636A736F6E00       "cjson\0"
                         const [110]: "cjson"
43E4  01                 const type 3
43E5  15832E8A           const [111]: (-1976663275)
43E9  04                 const type 4
43EA  08                 string size (8)
43EB  6C6F61646F757400   "loadout\0"
                         const [112]: "loadout"
43F3  04                 const type 4
43F4  09                 string size (9)
43F5  50767056616C7565+  "PvpValue"
43FD  00                 "\0"
                         const [113]: "PvpValue"
43FE  04                 const type 4
43FF  10                 string size (16)
4400  50767056616C7565+  "PvpValue"
4408  4974656D4D617800   "ItemMax\0"
                         const [114]: "PvpValueItemMax"
4410  04                 const type 4
4411  0B                 string size (11)
4412  5056502076616C75+  "PVP valu"
441A  652000             "e \0"
                         const [115]: "PVP value "
441D  04                 const type 4
441E  02                 string size (2)
441F  5B00               "[\0"
                         const [116]: "["
4421  04                 const type 4
4422  04                 string size (4)
4423  202D2000           " - \0"
                         const [117]: " - "
4427  04                 const type 4
4428  02                 string size (2)
4429  5D00               "]\0"
                         const [118]: "]"
442B  04                 const type 4
442C  2A                 string size (42)
442D  2F4C6F7475732F4C+  "/Lotus/L"
4435  616E67756167652F+  "anguage/"
443D  4D656E752F507670+  "Menu/Pvp"
4445  56616C7565466169+  "ValueFai"
444D  6C75726553717561+  "lureSqua"
4455  6400               "d\0"
                         const [119]: "/Lotus/Language/Menu/PvpValueFailureSquad"
4457  04                 const type 4
4458  07                 string size (7)
4459  706C6179657200     "player\0"
                         const [120]: "player"
4460  04                 const type 4
4461  05                 string size (5)
4462  6E616D6500         "name\0"
                         const [121]: "name"
4467  04                 const type 4
4468  11                 string size (17)
4469  6172636877696E67+  "archwing"
4471  5265717569726564+  "Required"
4479  00                 "\0"
                         const [122]: "archwingRequired"
447A  04                 const type 4
447B  0D                 string size (13)
447C  4C4F545F41524348+  "LOT_ARCH"
4484  57494E4700         "WING\0"
                         const [123]: "LOT_ARCHWING"
4489  04                 const type 4
448A  0A                 string size (10)
448B  535549545F534C4F+  "SUIT_SLO"
4493  5400               "T\0"
                         const [124]: "SUIT_SLOT"
4495  04                 const type 4
4496  0E                 string size (14)
4497  4C4F4E475F47554E+  "LONG_GUN"
449F  5F534C4F5400       "_SLOT\0"
                         const [125]: "LONG_GUN_SLOT"
44A5  04                 const type 4
44A6  0B                 string size (11)
44A7  4D454C45455F534C+  "MELEE_SL"
44AF  4F5400             "OT\0"
                         const [126]: "MELEE_SLOT"
44B2  01                 const type 3
44B3  A0F4FC95           const [127]: (-1778584416)
44B7  04                 const type 4
44B8  29                 string size (41)
44B9  2F4C6F7475732F4C+  "/Lotus/L"
44C1  616E67756167652F+  "anguage/"
44C9  4D656E752F417263+  "Menu/Arc"
44D1  6877696E67466169+  "hwingFai"
44D9  6C757265536F6C6F+  "lureSolo"
44E1  00                 "\0"
                         const [128]: "/Lotus/Language/Menu/ArchwingFailureSolo"
44E2  04                 const type 4
44E3  0C                 string size (12)
44E4  4861734172636877+  "HasArchw"
44EC  696E6700           "ing\0"
                         const [129]: "HasArchwing"
44F0  04                 const type 4
44F1  10                 string size (16)
44F2  4172636877696E67+  "Archwing"
44FA  456E61626C656400   "Enabled\0"
                         const [130]: "ArchwingEnabled"
4502  04                 const type 4
4503  08                 string size (8)
4504  69734C6F63616C00   "isLocal\0"
                         const [131]: "isLocal"
450C  04                 const type 4
450D  2A                 string size (42)
450E  2F4C6F7475732F4C+  "/Lotus/L"
4516  616E67756167652F+  "anguage/"
451E  4D656E752F417263+  "Menu/Arc"
4526  6877696E67466169+  "hwingFai"
452E  6C75726553717561+  "lureSqua"
4536  6400               "d\0"
                         const [132]: "/Lotus/Language/Menu/ArchwingFailureSquad"
4538  04                 const type 4
4539  13                 string size (19)
453A  7265717569726564+  "required"
4542  4974656D436F756E+  "ItemCoun"
454A  747300             "ts\0"
                         const [133]: "requiredItemCounts"
454D  04                 const type 4
454E  10                 string size (16)
454F  6578636C75736976+  "exclusiv"
4557  65576561706F6E00   "eWeapon\0"
                         const [134]: "exclusiveWeapon"
455F  04                 const type 4
4560  16                 string size (22)
4561  674C6F7475734D65+  "gLotusMe"
4569  6C6565576561706F+  "leeWeapo"
4571  6E5479706500       "nType\0"
                         const [135]: "gLotusMeleeWeaponType"
4577  04                 const type 4
4578  0C                 string size (12)
4579  504953544F4C5F53+  "PISTOL_S"
4581  4C4F5400           "LOT\0"
                         const [136]: "PISTOL_SLOT"
4585  04                 const type 4
4586  17                 string size (23)
4587  674C6F7475734879+  "gLotusHy"
458F  6272696457656170+  "bridWeap"
4597  6F6E5479706500     "onType\0"
                         const [137]: "gLotusHybridWeaponType"
459E  04                 const type 4
459F  34                 string size (52)
45A0  2F4C6F7475732F4C+  "/Lotus/L"
45A8  616E67756167652F+  "anguage/"
45B0  4D656E752F4D6973+  "Menu/Mis"
45B8  73696F6E4578636C+  "sionExcl"
45C0  7573697665576561+  "usiveWea"
45C8  706F6E5265717569+  "ponRequi"
45D0  72656400           "red\0"
                         const [138]: "/Lotus/Language/Menu/MissionExclusiveWeaponRequired"
45D4  04                 const type 4
45D5  07                 string size (7)
45D6  4E4F524D414C00     "NORMAL\0"
                         const [139]: "NORMAL"
45DD  03                 const type 3
45DE  00000040           const [140]: (0)
45E2  03                 const type 3
45E3  00004040           const [141]: (0)
45E7  03                 const type 3
45E8  00008040           const [142]: (0)
45EC  04                 const type 4
45ED  09                 string size (9)
45EE  4974656D54797065+  "ItemType"
45F6  00                 "\0"
                         const [143]: "ItemType"
45F7  01                 const type 3
45F8  29D4002C           const [144]: (738251817)
45FC  04                 const type 4
45FD  39                 string size (57)
45FE  2F4C6F7475732F4C+  "/Lotus/L"
4606  616E67756167652F+  "anguage/"
460E  4D656E752F4D6973+  "Menu/Mis"
4616  73696F6E4578636C+  "sionExcl"
461E  7573697665576561+  "usiveWea"
4626  706F6E5265717569+  "ponRequi"
462E  7265645371756164+  "redSquad"
4636  00                 "\0"
                         const [145]: "/Lotus/Language/Menu/MissionExclusiveWeaponRequiredSquad"
4637  04                 const type 4
4638  0B                 string size (11)
4639  6D61737465727952+  "masteryR"
4641  657100             "eq\0"
                         const [146]: "masteryReq"
4644  01                 const type 3
4645  2A225531           const [147]: (827662890)
4649  04                 const type 4
464A  17                 string size (23)
464B  674C6F7475734875+  "gLotusHu"
4653  6247616D6552756C+  "bGameRul"
465B  65735479706500     "esType\0"
                         const [148]: "gLotusHubGameRulesType"
4662  01                 const type 3
4663  889FBD72           const [149]: (1925029768)
4667  01                 const type 3
4668  C0937DB5           const [150]: (-1250061376)
466C  04                 const type 4
466D  2C                 string size (44)
466E  2F4C6F7475732F4C+  "/Lotus/L"
4676  616E67756167652F+  "anguage/"
467E  47616D652F4D6973+  "Game/Mis"
4686  73696F6E4D617374+  "sionMast"
468E  6572795265717569+  "eryRequi"
4696  72656400           "red\0"
                         const [151]: "/Lotus/Language/Game/MissionMasteryRequired"
469A  04                 const type 4
469B  05                 string size (5)
469C  52414E4B00         "RANK\0"
                         const [152]: "RANK"
46A1  04                 const type 4
46A2  0B                 string size (11)
46A3  6D61785375697452+  "maxSuitR"
46AB  657100             "eq\0"
                         const [153]: "maxSuitReq"
46AE  01                 const type 3
46AF  BA668E9E           const [154]: (-1634834758)
46B3  04                 const type 4
46B4  04                 string size (4)
46B5  6D585000           "mXP\0"
                         const [155]: "mXP"
46B9  01                 const type 3
46BA  4D977030           const [156]: (812685133)
46BE  04                 const type 4
46BF  2C                 string size (44)
46C0  2F4C6F7475732F4C+  "/Lotus/L"
46C8  616E67756167652F+  "anguage/"
46D0  4D656E752F4D6973+  "Menu/Mis"
46D8  73696F6E4D617853+  "sionMaxS"
46E0  7569745265717569+  "uitRequi"
46E8  72656400           "red\0"
                         const [157]: "/Lotus/Language/Menu/MissionMaxSuitRequired"
46EC  04                 const type 4
46ED  06                 string size (6)
46EE  4C6576656C00       "Level\0"
                         const [158]: "Level"
46F4  04                 const type 4
46F5  31                 string size (49)
46F6  2F4C6F7475732F4C+  "/Lotus/L"
46FE  616E67756167652F+  "anguage/"
4706  4D656E752F4D6973+  "Menu/Mis"
470E  73696F6E4D617853+  "sionMaxS"
4716  7569745265717569+  "uitRequi"
471E  7265645371756164+  "redSquad"
4726  00                 "\0"
                         const [159]: "/Lotus/Language/Menu/MissionMaxSuitRequiredSquad"
4727  04                 const type 4
4728  13                 string size (19)
4729  706572696F646963+  "periodic"
4731  4D697373696F6E54+  "MissionT"
4739  616700             "ag\0"
                         const [160]: "periodicMissionTag"
473C  04                 const type 4
473D  21                 string size (33)
473E  454C4954455F414C+  "ELITE_AL"
4746  4552545F50455249+  "ERT_PERI"
474E  4F4449435F4D4953+  "ODIC_MIS"
4756  53494F4E5F544147+  "SION_TAG"
475E  00                 "\0"
                         const [161]: "ELITE_ALERT_PERIODIC_MISSION_TAG"
475F  04                 const type 4
4760  25                 string size (37)
4761  454C4954455F414C+  "ELITE_AL"
4769  4552545F50455249+  "ERT_PERI"
4771  4F4449435F4D4953+  "ODIC_MIS"
4779  53494F4E5F544147+  "SION_TAG"
4781  5F414C5400         "_ALT\0"
                         const [162]: "ELITE_ALERT_PERIODIC_MISSION_TAG_ALT"
4786  01                 const type 3
4787  EC40C8A8           const [163]: (-1463271188)
478B  04                 const type 4
478C  3A                 string size (58)
478D  2F4C6F7475732F4C+  "/Lotus/L"
4795  616E67756167652F+  "anguage/"
479D  4D656E752F4D6973+  "Menu/Mis"
47A5  73696F6E53746172+  "sionStar"
47AD  4368617274436F6D+  "ChartCom"
47B5  706C657465645265+  "pletedRe"
47BD  71756972656D656E+  "quiremen"
47C5  7400               "t\0"
                         const [164]: "/Lotus/Language/Menu/MissionStarChartCompletedRequirement"
47C7  04                 const type 4
47C8  1E                 string size (30)
47C9  4361636865644E6F+  "CachedNo"
47D1  64657350656E6469+  "desPendi"
47D9  6E67446573747275+  "ngDestru"
47E1  6374696F6E00       "ction\0"
                         const [165]: "CachedNodesPendingDestruction"
47E7  04                 const type 4
47E8  0B                 string size (11)
47E9  73686F756C644C6F+  "shouldLo"
47F1  636B00             "ck\0"
                         const [166]: "shouldLock"
47F4  01                 const type 3
47F5  10799DD0           const [167]: (-794986224)
47F9  04                 const type 4
47FA  09                 string size (9)
47FB  6C6F636B54696D65+  "lockTime"
4803  00                 "\0"
                         const [168]: "lockTime"
4804  03                 const type 3
4805  00007042           const [169]: (0)
4809  01                 const type 3
480A  DF4825DB           const [170]: (-618313505)
480E  04                 const type 4
480F  0B                 string size (11)
4810  6D496E6974696174+  "mInitiat"
4818  656400             "ed\0"
                         const [171]: "mInitiated"
481B  04                 const type 4
481C  1C                 string size (28)
481D  506C61796572206E+  "Player n"
4825  6F7420616666696C+  "ot affil"
482D  6961746564207769+  "iated wi"
4835  74682000           "th \0"
                         const [172]: "Player not affiliated with "
4839  04                 const type 4
483A  2F                 string size (47)
483B  2F4C6F7475732F4C+  "/Lotus/L"
4843  616E67756167652F+  "anguage/"
484B  47616D652F436F6E+  "Game/Con"
4853  636C61766553796E+  "claveSyn"
485B  6469636174655265+  "dicateRe"
4863  71756972656400     "quired\0"
                         const [173]: "/Lotus/Language/Game/ConclaveSyndicateRequired"
486A  01                 const type 3
486B  1FCC1C4F           const [174]: (1327287327)
486F  04                 const type 4
4870  2D                 string size (45)
4871  2F4C6F7475732F4C+  "/Lotus/L"
4879  616E67756167652F+  "anguage/"
4881  47616D652F436F6E+  "Game/Con"
4889  636C6176654C6F61+  "claveLoa"
4891  646F757452657175+  "doutRequ"
4899  6972656400         "ired\0"
                         const [175]: "/Lotus/Language/Game/ConclaveLoadoutRequired"
489E  04                 const type 4
489F  0A                 string size (10)
48A0  6E696768746D6172+  "nightmar"
48A8  6500               "e\0"
                         const [176]: "nightmare"
48AA  01                 const type 3
48AB  2B61524C           const [177]: (1280467243)
48AF  04                 const type 4
48B0  34                 string size (52)
48B1  2F4C6F7475732F4C+  "/Lotus/L"
48B9  616E67756167652F+  "anguage/"
48C1  4D656E752F4E6967+  "Menu/Nig"
48C9  68746D6172655261+  "htmareRa"
48D1  696453756974436F+  "idSuitCo"
48D9  6E646974696F6E46+  "nditionF"
48E1  61696C00           "ail\0"
                         const [178]: "/Lotus/Language/Menu/NightmareRaidSuitConditionFail"
48E5  04                 const type 4
48E6  09                 string size (9)
48E7  7175657374526571+  "questReq"
48EF  00                 "\0"
                         const [179]: "questReq"
48F0  01                 const type 3
48F1  8C7AAC2A           const [180]: (715946636)
48F5  04                 const type 4
48F6  2A                 string size (42)
48F7  2F4C6F7475732F4C+  "/Lotus/L"
48FF  616E67756167652F+  "anguage/"
4907  47616D652F4D6973+  "Game/Mis"
490F  73696F6E51756573+  "sionQues"
4917  7452657175697265+  "tRequire"
491F  6400               "d\0"
                         const [181]: "/Lotus/Language/Game/MissionQuestRequired"
4921  01                 const type 3
4922  FD052E6F           const [182]: (1865287165)
4926  01                 const type 3
4927  4B78C852           const [183]: (1388869707)
492B  04                 const type 4
492C  12                 string size (18)
492D  4163746976655175+  "ActiveQu"
4935  6573744C6F616465+  "estLoade"
493D  6400               "d\0"
                         const [184]: "ActiveQuestLoaded"
493F  04                 const type 4
4940  10                 string size (16)
4941  53706F744C6F6164+  "SpotLoad"
4949  6564517565737400   "edQuest\0"
                         const [185]: "SpotLoadedQuest"
4951  01                 const type 3
4952  01000000           const [186]: (1)
4956  04                 const type 4
4957  34                 string size (52)
4958  2F4C6F7475732F54+  "/Lotus/T"
4960  797065732F4B6579+  "ypes/Key"
4968  732F536F6C617269+  "s/Solari"
4970  7351756573742F53+  "sQuest/S"
4978  6F6C617269735175+  "olarisQu"
4980  6573744B65794368+  "estKeyCh"
4988  61696E00           "ain\0"
                         const [187]: "/Lotus/Types/Keys/SolarisQuest/SolarisQuestKeyChain"
498C  04                 const type 4
498D  06                 string size (6)
498E  6A6F62496400       "jobId\0"
                         const [188]: "jobId"
4994  04                 const type 4
4995  0C                 string size (12)
4996  6D6973634974656D+  "miscItem"
499E  46656500           "Fee\0"
                         const [189]: "miscItemFee"
49A2  04                 const type 4
49A3  0B                 string size (11)
49A4  6D4974656D436F75+  "mItemCou"
49AC  6E7400             "nt\0"
                         const [190]: "mItemCount"
49AF  01                 const type 3
49B0  FFFB2933           const [191]: (858389503)
49B4  04                 const type 4
49B5  2D                 string size (45)
49B6  2F4C6F7475732F4C+  "/Lotus/L"
49BE  616E67756167652F+  "anguage/"
49C6  47616D652F4D6973+  "Game/Mis"
49CE  73696F6E4D697363+  "sionMisc"
49D6  4974656D52657175+  "ItemRequ"
49DE  6972656400         "ired\0"
                         const [192]: "/Lotus/Language/Game/MissionMiscItemRequired"
49E3  04                 const type 4
49E4  06                 string size (6)
49E5  434F554E5400       "COUNT\0"
                         const [193]: "COUNT"
49EB  04                 const type 4
49EC  05                 string size (5)
49ED  0D0A0D0A00         "\r\n\r\n\0"
                         const [194]: "\r\n\r\n"
49F2  04                 const type 4
49F3  2E                 string size (46)
49F4  2F4C6F7475732F4C+  "/Lotus/L"
49FC  616E67756167652F+  "anguage/"
4A04  457069736F646573+  "Episodes"
4A0C  2F416E7469536572+  "/AntiSer"
4A14  756D496E6A656374+  "umInject"
4A1C  6F7252657100       "orReq\0"
                         const [195]: "/Lotus/Language/Episodes/AntiSerumInjectorReq"
4A22  04                 const type 4
4A23  0F                 string size (15)
4A24  4C6F636B6564476F+  "LockedGo"
4A2C  616C4C69737400     "alList\0"
                         const [196]: "LockedGoalList"
4A33  04                 const type 4
4A34  36                 string size (54)
4A35  2F4C6F7475732F4C+  "/Lotus/L"
4A3D  616E67756167652F+  "anguage/"
4A45  4D656E752F536F63+  "Menu/Soc"
4A4D  69616C4F7665726C+  "ialOverl"
4A55  61795F4576656E74+  "ay_Event"
4A5D  4D697373696F6E4C+  "MissionL"
4A65  6F636B656400       "ocked\0"
                         const [197]: "/Lotus/Language/Menu/SocialOverlay_EventMissionLocked"
4A6B  04                 const type 4
4A6C  11                 string size (17)
4A6D  6163746976654D69+  "activeMi"
4A75  7373696F6E546167+  "ssionTag"
4A7D  00                 "\0"
                         const [198]: "activeMissionTag"
4A7E  04                 const type 4
4A7F  16                 string size (22)
4A80  564F49445F50524F+  "VOID_PRO"
4A88  4A454354494F4E5F+  "JECTION_"
4A90  4954454D5300       "ITEMS\0"
                         const [199]: "VOID_PROJECTION_ITEMS"
4A96  01                 const type 3
4A97  820F0077           const [200]: (1996492674)
4A9B  04                 const type 4
4A9C  41                 string size (65)
4A9D  436865636B436F6E+  "CheckCon"
4AA5  636C617665526571+  "claveReq"
4AAD  756972656D656E74+  "uirement"
4AB5  7320636C65617269+  "s cleari"
4ABD  6E67204163746976+  "ng Activ"
4AC5  6520566F69642050+  "e Void P"
4ACD  726F6A656374696F+  "rojectio"
4AD5  6E3A206861766520+  "n: have "
4ADD  00                 "\0"
                         const [201]: "CheckConclaveRequirements clearing Active Void Projection: have "
4ADE  04                 const type 4
4ADF  0D                 string size (13)
4AE0  20627574206E6565+  " but nee"
4AE8  6420612000         "d a \0"
                         const [202]: " but need a "
4AED  01                 const type 3
4AEE  B85B95B0           const [203]: (-1332388936)
4AF2  01                 const type 3
4AF3  8C146890           const [204]: (-1872227188)
4AF7  01                 const type 3
4AF8  229AA962           const [205]: (1655282210)
4AFC  01                 const type 3
4AFD  DECE7908           const [206]: (142200542)
4B01  04                 const type 4
4B02  0C                 string size (12)
4B03  6D43726564697473+  "mCredits"
4B0B  46656500           "Fee\0"
                         const [207]: "mCreditsFee"
4B0F  04                 const type 4
4B10  2B                 string size (43)
4B11  2F4C6F7475732F4C+  "/Lotus/L"
4B19  616E67756167652F+  "anguage/"
4B21  4D656E752F417265+  "Menu/Are"
4B29  6E61496E73756666+  "naInsuff"
4B31  4D696E4372656469+  "MinCredi"
4B39  747300             "ts\0"
                         const [208]: "/Lotus/Language/Menu/ArenaInsuffMinCredits"
4B3C  04                 const type 4
4B3D  1B                 string size (27)
4B3E  436163686564436F+  "CachedCo"
4B46  6E73747275637469+  "nstructi"
4B4E  6F6E50726F6A6563+  "onProjec"
4B56  747300             "ts\0"
                         const [209]: "CachedConstructionProjects"
4B59  01                 const type 3
4B5A  17DDCF0E           const [210]: (248503575)
4B5E  04                 const type 4
4B5F  0C                 string size (12)
4B60  72656275696C644E+  "rebuildN"
4B68  6F646500           "ode\0"
                         const [211]: "rebuildNode"
4B6C  04                 const type 4
4B6D  09                 string size (9)
4B6E  70726F6772657373+  "progress"
4B76  00                 "\0"
                         const [212]: "progress"
4B77  04                 const type 4
4B78  05                 string size (5)
4B79  696E666F00         "info\0"
                         const [213]: "info"
4B7E  04                 const type 4
4B7F  06                 string size (6)
4B80  6D4E6F646500       "mNode\0"
                         const [214]: "mNode"
4B86  04                 const type 4
4B87  04                 string size (4)
4B88  48554200           "HUB\0"
                         const [215]: "HUB"
4B8C  04                 const type 4
4B8D  06                 string size (6)
4B8E  4576656E7400       "Event\0"
                         const [216]: "Event"
4B94  04                 const type 4
4B95  08                 string size (8)
4B96  6A6F625469657200   "jobTier\0"
                         const [217]: "jobTier"
4B9E  04                 const type 4
4B9F  20                 string size (32)
4BA0  4A6F624469666669+  "JobDiffi"
4BA8  63756C7479546965+  "cultyTie"
4BB0  725F5045524D414E+  "r_PERMAN"
4BB8  454E545F4A4F4200   "ENT_JOB\0"
                         const [218]: "JobDifficultyTier_PERMANENT_JOB"
4BC0  04                 const type 4
4BC1  0D                 string size (13)
4BC2  4A43455F43414E5F+  "JCE_CAN_"
4BCA  504C415900         "PLAY\0"
                         const [219]: "JCE_CAN_PLAY"
4BCF  04                 const type 4
4BD0  32                 string size (50)
4BD1  2F4C6F7475732F4C+  "/Lotus/L"
4BD9  616E67756167652F+  "anguage/"
4BE1  4D656E752F536F63+  "Menu/Soc"
4BE9  69616C4F7665726C+  "ialOverl"
4BF1  61795F5365737369+  "ay_Sessi"
4BF9  6F6E457870697265+  "onExpire"
4C01  6400               "d\0"
                         const [220]: "/Lotus/Language/Menu/SocialOverlay_SessionExpired"
4C03  04                 const type 4
4C04  0A                 string size (10)
4C05  4E69676874776176+  "Nightwav"
4C0D  6500               "e\0"
                         const [221]: "Nightwave"
4C0F  04                 const type 4
4C10  15                 string size (21)
4C11  526164696F4C6567+  "RadioLeg"
4C19  696F6E53796E6469+  "ionSyndi"
4C21  6361746500         "cate\0"
                         const [222]: "RadioLegionSyndicate"
4C26  04                 const type 4
4C27  0A                 string size (10)
4C28  6747616D65446174+  "gGameDat"
4C30  6100               "a\0"
                         const [223]: "gGameData"
4C32  01                 const type 3
4C33  42515E48           const [224]: (1214140738)
4C37  04                 const type 4
4C38  07                 string size (7)
4C39  6D5469746C6500     "mTitle\0"
                         const [225]: "mTitle"
4C40  03                 const type 3
4C41  0000A040           const [226]: (0)
4C45  04                 const type 4
4C46  29                 string size (41)
4C47  2F4C6F7475732F4C+  "/Lotus/L"
4C4F  616E67756167652F+  "anguage/"
4C57  416C657274732F4E+  "Alerts/N"
4C5F  6967687477617665+  "ightwave"
4C67  416C657274526571+  "AlertReq"
4C6F  00                 "\0"
                         const [227]: "/Lotus/Language/Alerts/NightwaveAlertReq"
4C70  04                 const type 4
4C71  06                 string size (6)
4C72  5449544C4500       "TITLE\0"
                         const [228]: "TITLE"
                         * functions:
4C78  00                 sizep (0)
                         * lines:
4C7A  0D                 sizelineinfo (1780)
                         [pc] (line)
4C7B  40                 [0001] (64)
4C7C  01                 [0002] (64)
4C7D  00                 [0003] (64)
4C7E  00                 [0004] (64)
4C7F  40                 [0005] (64)
4C80  01                 [0006] (64)
4C81  00                 [0007] (64)
4C82  00                 [0008] (64)
4C83  40                 [0009] (64)
4C84  01                 [0010] (64)
4C85  00                 [0011] (64)
4C86  00                 [0012] (64)
4C87  40                 [0013] (64)
4C88  01                 [0014] (64)
4C89  00                 [0015] (64)
4C8A  00                 [0016] (64)
4C8B  40                 [0017] (64)
4C8C  01                 [0018] (64)
4C8D  00                 [0019] (64)
4C8E  00                 [0020] (64)
4C8F  40                 [0021] (64)
4C90  01                 [0022] (64)
4C91  00                 [0023] (64)
4C92  00                 [0024] (64)
4C93  40                 [0025] (64)
4C94  01                 [0026] (64)
4C95  00                 [0027] (64)
4C96  00                 [0028] (65)
4C97  40                 [0029] (65)
4C98  01                 [0030] (65)
4C99  00                 [0031] (65)
4C9A  00                 [0032] (65)
4C9B  40                 [0033] (65)
4C9C  01                 [0034] (65)
4C9D  00                 [0035] (68)
4C9E  00                 [0036] (69)
4C9F  40                 [0037] (69)
4CA0  01                 [0038] (69)
4CA1  00                 [0039] (69)
4CA2  00                 [0040] (69)
4CA3  40                 [0041] (69)
4CA4  01                 [0042] (69)
4CA5  00                 [0043] (69)
4CA6  00                 [0044] (70)
4CA7  40                 [0045] (71)
4CA8  01                 [0046] (71)
4CA9  00                 [0047] (71)
4CAA  00                 [0048] (71)
4CAB  40                 [0049] (71)
4CAC  01                 [0050] (71)
4CAD  00                 [0051] (72)
4CAE  00                 [0052] (72)
4CAF  40                 [0053] (72)
4CB0  01                 [0054] (72)
4CB1  00                 [0055] (72)
4CB2  00                 [0056] (72)
4CB3  40                 [0057] (72)
4CB4  01                 [0058] (72)
4CB5  00                 [0059] (72)
4CB6  00                 [0060] (72)
4CB7  40                 [0061] (72)
4CB8  01                 [0062] (72)
4CB9  00                 [0063] (72)
4CBA  00                 [0064] (72)
4CBB  40                 [0065] (72)
4CBC  01                 [0066] (72)
4CBD  00                 [0067] (72)
4CBE  00                 [0068] (73)
4CBF  40                 [0069] (73)
4CC0  01                 [0070] (73)
4CC1  00                 [0071] (73)
4CC2  00                 [0072] (73)
4CC3  40                 [0073] (73)
4CC4  01                 [0074] (73)
4CC5  00                 [0075] (73)
4CC6  00                 [0076] (73)
4CC7  40                 [0077] (73)
4CC8  01                 [0078] (74)
4CC9  00                 [0079] (75)
4CCA  00                 [0080] (75)
4CCB  40                 [0081] (76)
4CCC  01                 [0082] (76)
4CCD  00                 [0083] (76)
4CCE  00                 [0084] (76)
4CCF  40                 [0085] (76)
4CD0  01                 [0086] (76)
4CD1  00                 [0087] (77)
4CD2  00                 [0088] (77)
4CD3  40                 [0089] (77)
4CD4  01                 [0090] (77)
4CD5  00                 [0091] (77)
4CD6  00                 [0092] (77)
4CD7  40                 [0093] (77)
4CD8  01                 [0094] (80)
4CD9  00                 [0095] (80)
4CDA  00                 [0096] (81)
4CDB  40                 [0097] (81)
4CDC  01                 [0098] (81)
4CDD  00                 [0099] (81)
4CDE  00                 [0100] (81)
4CDF  40                 [0101] (81)
4CE0  01                 [0102] (82)
4CE1  00                 [0103] (82)
4CE2  00                 [0104] (82)
4CE3  40                 [0105] (82)
4CE4  01                 [0106] (82)
4CE5  00                 [0107] (83)
4CE6  00                 [0108] (83)
4CE7  41                 [0109] (83)
4CE8  01                 [0110] (83)
4CE9  00                 [0111] (83)
4CEA  00                 [0112] (83)
4CEB  41                 [0113] (83)
4CEC  01                 [0114] (87)
4CED  00                 [0115] (87)
4CEE  00                 [0116] (87)
4CEF  41                 [0117] (87)
4CF0  01                 [0118] (87)
4CF1  00                 [0119] (88)
4CF2  00                 [0120] (88)
4CF3  41                 [0121] (88)
4CF4  01                 [0122] (88)
4CF5  00                 [0123] (88)
4CF6  00                 [0124] (88)
4CF7  41                 [0125] (88)
4CF8  01                 [0126] (88)
4CF9  00                 [0127] (88)
4CFA  00                 [0128] (88)
4CFB  41                 [0129] (88)
4CFC  01                 [0130] (88)
4CFD  00                 [0131] (88)
4CFE  00                 [0132] (88)
4CFF  41                 [0133] (88)
4D00  01                 [0134] (88)
4D01  00                 [0135] (88)
4D02  00                 [0136] (88)
4D03  44                 [0137] (88)
4D04  01                 [0138] (89)
4D05  00                 [0139] (89)
4D06  00                 [0140] (89)
4D07  45                 [0141] (89)
4D08  01                 [0142] (89)
4D09  00                 [0143] (89)
4D0A  00                 [0144] (90)
4D0B  45                 [0145] (90)
4D0C  01                 [0146] (90)
4D0D  00                 [0147] (90)
4D0E  00                 [0148] (90)
4D0F  45                 [0149] (90)
4D10  01                 [0150] (90)
4D11  00                 [0151] (90)
4D12  00                 [0152] (90)
4D13  45                 [0153] (90)
4D14  01                 [0154] (90)
4D15  00                 [0155] (90)
4D16  00                 [0156] (90)
4D17  45                 [0157] (91)
4D18  01                 [0158] (91)
4D19  00                 [0159] (91)
4D1A  00                 [0160] (91)
4D1B  45                 [0161] (91)
4D1C  01                 [0162] (91)
4D1D  00                 [0163] (91)
4D1E  00                 [0164] (92)
4D1F  45                 [0165] (92)
4D20  01                 [0166] (92)
4D21  00                 [0167] (92)
4D22  00                 [0168] (93)
4D23  45                 [0169] (93)
4D24  01                 [0170] (93)
4D25  00                 [0171] (93)
4D26  00                 [0172] (93)
4D27  46                 [0173] (94)
4D28  01                 [0174] (95)
4D29  00                 [0175] (95)
4D2A  00                 [0176] (95)
4D2B  47                 [0177] (95)
4D2C  01                 [0178] (95)
4D2D  00                 [0179] (95)
4D2E  00                 [0180] (95)
4D2F  47                 [0181] (95)
4D30  01                 [0182] (95)
4D31  00                 [0183] (95)
4D32  00                 [0184] (95)
4D33  47                 [0185] (95)
4D34  01                 [0186] (95)
4D35  00                 [0187] (95)
4D36  00                 [0188] (95)
4D37  47                 [0189] (95)
4D38  01                 [0190] (95)
4D39  00                 [0191] (95)
4D3A  00                 [0192] (95)
4D3B  47                 [0193] (96)
4D3C  01                 [0194] (96)
4D3D  00                 [0195] (96)
4D3E  00                 [0196] (96)
4D3F  47                 [0197] (96)
4D40  01                 [0198] (97)
4D41  00                 [0199] (97)
4D42  00                 [0200] (97)
4D43  48                 [0201] (97)
4D44  01                 [0202] (97)
4D45  00                 [0203] (97)
4D46  00                 [0204] (97)
4D47  48                 [0205] (98)
4D48  01                 [0206] (98)
4D49  00                 [0207] (98)
4D4A  00                 [0208] (98)
4D4B  48                 [0209] (98)
4D4C  01                 [0210] (99)
4D4D  00                 [0211] (99)
4D4E  00                 [0212] (99)
4D4F  48                 [0213] (99)
4D50  01                 [0214] (99)
4D51  00                 [0215] (99)
4D52  00                 [0216] (99)
4D53  48                 [0217] (99)
4D54  01                 [0218] (99)
4D55  00                 [0219] (99)
4D56  00                 [0220] (99)
4D57  48                 [0221] (99)
4D58  01                 [0222] (99)
4D59  00                 [0223] (100)
4D5A  00                 [0224] (100)
4D5B  48                 [0225] (100)
4D5C  01                 [0226] (100)
4D5D  00                 [0227] (100)
4D5E  00                 [0228] (101)
4D5F  48                 [0229] (101)
4D60  01                 [0230] (101)
4D61  00                 [0231] (101)
4D62  00                 [0232] (101)
4D63  48                 [0233] (101)
4D64  01                 [0234] (101)
4D65  00                 [0235] (101)
4D66  00                 [0236] (101)
4D67  48                 [0237] (101)
4D68  01                 [0238] (101)
4D69  00                 [0239] (101)
4D6A  00                 [0240] (101)
4D6B  48                 [0241] (102)
4D6C  01                 [0242] (102)
4D6D  00                 [0243] (102)
4D6E  00                 [0244] (102)
4D6F  48                 [0245] (102)
4D70  01                 [0246] (103)
4D71  00                 [0247] (103)
4D72  00                 [0248] (103)
4D73  48                 [0249] (103)
4D74  01                 [0250] (103)
4D75  00                 [0251] (103)
4D76  00                 [0252] (103)
4D77  48                 [0253] (103)
4D78  01                 [0254] (103)
4D79  00                 [0255] (103)
4D7A  00                 [0256] (103)
4D7B  48                 [0257] (103)
4D7C  01                 [0258] (103)
4D7D  00                 [0259] (104)
4D7E  00                 [0260] (104)
4D7F  48                 [0261] (104)
4D80  01                 [0262] (104)
4D81  00                 [0263] (104)
4D82  00                 [0264] (105)
4D83  48                 [0265] (105)
4D84  01                 [0266] (105)
4D85  00                 [0267] (105)
4D86  00                 [0268] (105)
4D87  49                 [0269] (105)
4D88  01                 [0270] (105)
4D89  00                 [0271] (105)
4D8A  00                 [0272] (105)
4D8B  49                 [0273] (105)
4D8C  01                 [0274] (105)
4D8D  00                 [0275] (105)
4D8E  00                 [0276] (105)
4D8F  49                 [0277] (106)
4D90  01                 [0278] (106)
4D91  00                 [0279] (106)
4D92  00                 [0280] (106)
4D93  49                 [0281] (106)
4D94  01                 [0282] (107)
4D95  00                 [0283] (107)
4D96  00                 [0284] (107)
4D97  49                 [0285] (107)
4D98  01                 [0286] (107)
4D99  00                 [0287] (107)
4D9A  00                 [0288] (107)
4D9B  49                 [0289] (107)
4D9C  01                 [0290] (108)
4D9D  00                 [0291] (108)
4D9E  00                 [0292] (108)
4D9F  49                 [0293] (108)
4DA0  01                 [0294] (108)
4DA1  00                 [0295] (108)
4DA2  00                 [0296] (109)
4DA3  49                 [0297] (109)
4DA4  01                 [0298] (109)
4DA5  00                 [0299] (110)
4DA6  00                 [0300] (110)
4DA7  49                 [0301] (110)
4DA8  01                 [0302] (111)
4DA9  00                 [0303] (111)
4DAA  00                 [0304] (111)
4DAB  49                 [0305] (111)
4DAC  01                 [0306] (111)
4DAD  00                 [0307] (112)
4DAE  00                 [0308] (112)
4DAF  4A                 [0309] (112)
4DB0  01                 [0310] (113)
4DB1  00                 [0311] (113)
4DB2  00                 [0312] (113)
4DB3  4B                 [0313] (113)
4DB4  01                 [0314] (113)
4DB5  00                 [0315] (113)
4DB6  00                 [0316] (113)
4DB7  4B                 [0317] (113)
4DB8  01                 [0318] (113)
4DB9  00                 [0319] (114)
4DBA  00                 [0320] (116)
4DBB  4C                 [0321] (116)
4DBC  01                 [0322] (117)
4DBD  00                 [0323] (117)
4DBE  00                 [0324] (117)
4DBF  4C                 [0325] (117)
4DC0  01                 [0326] (117)
4DC1  00                 [0327] (118)
4DC2  00                 [0328] (118)
4DC3  4C                 [0329] (118)
4DC4  01                 [0330] (118)
4DC5  00                 [0331] (118)
4DC6  00                 [0332] (118)
4DC7  4C                 [0333] (120)
4DC8  01                 [0334] (120)
4DC9  00                 [0335] (120)
4DCA  00                 [0336] (120)
4DCB  4C                 [0337] (120)
4DCC  01                 [0338] (120)
4DCD  00                 [0339] (120)
4DCE  00                 [0340] (120)
4DCF  4C                 [0341] (120)
4DD0  01                 [0342] (120)
4DD1  00                 [0343] (121)
4DD2  00                 [0344] (121)
4DD3  4D                 [0345] (121)
4DD4  01                 [0346] (121)
4DD5  00                 [0347] (124)
4DD6  00                 [0348] (125)
4DD7  4D                 [0349] (125)
4DD8  01                 [0350] (125)
4DD9  00                 [0351] (125)
4DDA  00                 [0352] (125)
4DDB  4D                 [0353] (126)
4DDC  01                 [0354] (126)
4DDD  00                 [0355] (126)
4DDE  00                 [0356] (126)
4DDF  4D                 [0357] (126)
4DE0  01                 [0358] (126)
4DE1  00                 [0359] (126)
4DE2  00                 [0360] (126)
4DE3  4D                 [0361] (126)
4DE4  01                 [0362] (126)
4DE5  00                 [0363] (126)
4DE6  00                 [0364] (126)
4DE7  4D                 [0365] (126)
4DE8  01                 [0366] (-127)
4DE9  00                 [0367] (-127)
4DEA  00                 [0368] (-127)
4DEB  4D                 [0369] (-127)
4DEC  01                 [0370] (-127)
4DED  00                 [0371] (-126)
4DEE  00                 [0372] (-126)
4DEF  50                 [0373] (-125)
4DF0  01                 [0374] (-125)
4DF1  00                 [0375] (-125)
4DF2  00                 [0376] (-125)
4DF3  50                 [0377] (-125)
4DF4  01                 [0378] (-125)
4DF5  00                 [0379] (-125)
4DF6  00                 [0380] (-125)
4DF7  51                 [0381] (-123)
4DF8  01                 [0382] (-122)
4DF9  00                 [0383] (-122)
4DFA  00                 [0384] (-122)
4DFB  51                 [0385] (-122)
4DFC  01                 [0386] (-122)
4DFD  00                 [0387] (-121)
4DFE  00                 [0388] (-120)
4DFF  51                 [0389] (-120)
4E00  01                 [0390] (-120)
4E01  00                 [0391] (-120)
4E02  00                 [0392] (-119)
4E03  51                 [0393] (-119)
4E04  01                 [0394] (-119)
4E05  00                 [0395] (-118)
4E06  00                 [0396] (-118)
4E07  51                 [0397] (-118)
4E08  01                 [0398] (-118)
4E09  00                 [0399] (-118)
4E0A  00                 [0400] (-118)
4E0B  51                 [0401] (-118)
4E0C  01                 [0402] (-118)
4E0D  00                 [0403] (-118)
4E0E  00                 [0404] (-118)
4E0F  52                 [0405] (-117)
4E10  01                 [0406] (-117)
4E11  00                 [0407] (-117)
4E12  00                 [0408] (-117)
4E13  52                 [0409] (-117)
4E14  01                 [0410] (-117)
4E15  00                 [0411] (-117)
4E16  00                 [0412] (-120)
4E17  52                 [0413] (-113)
4E18  01                 [0414] (-112)
4E19  00                 [0415] (-112)
4E1A  00                 [0416] (-112)
4E1B  52                 [0417] (-112)
4E1C  01                 [0418] (-112)
4E1D  00                 [0419] (-111)
4E1E  00                 [0420] (-110)
4E1F  52                 [0421] (-110)
4E20  01                 [0422] (-110)
4E21  00                 [0423] (-110)
4E22  00                 [0424] (-109)
4E23  53                 [0425] (-109)
4E24  01                 [0426] (-109)
4E25  00                 [0427] (-108)
4E26  00                 [0428] (-108)
4E27  53                 [0429] (-108)
4E28  01                 [0430] (-108)
4E29  00                 [0431] (-108)
4E2A  00                 [0432] (-108)
4E2B  53                 [0433] (-108)
4E2C  01                 [0434] (-108)
4E2D  00                 [0435] (-108)
4E2E  00                 [0436] (-108)
4E2F  53                 [0437] (-107)
4E30  01                 [0438] (-107)
4E31  00                 [0439] (-107)
4E32  00                 [0440] (-107)
4E33  53                 [0441] (-107)
4E34  01                 [0442] (-107)
4E35  00                 [0443] (-107)
4E36  00                 [0444] (-110)
4E37  53                 [0445] (-100)
4E38  01                 [0446] (-100)
4E39  00                 [0447] (-100)
4E3A  00                 [0448] (-100)
4E3B  53                 [0449] (-100)
4E3C  01                 [0450] (-100)
4E3D  00                 [0451] (-98)
4E3E  00                 [0452] (-98)
4E3F  57                 [0453] (-98)
4E40  01                 [0454] (-98)
4E41  00                 [0455] (-98)
4E42  00                 [0456] (-98)
4E43  57                 [0457] (-98)
4E44  01                 [0458] (-98)
4E45  00                 [0459] (-98)
4E46  00                 [0460] (-98)
4E47  57                 [0461] (-98)
4E48  01                 [0462] (-98)
4E49  00                 [0463] (-98)
4E4A  00                 [0464] (-98)
4E4B  57                 [0465] (-98)
4E4C  01                 [0466] (-98)
4E4D  00                 [0467] (-98)
4E4E  00                 [0468] (-97)
4E4F  57                 [0469] (-97)
4E50  01                 [0470] (-97)
4E51  00                 [0471] (-97)
4E52  00                 [0472] (-96)
4E53  58                 [0473] (-96)
4E54  01                 [0474] (-96)
4E55  00                 [0475] (-95)
4E56  00                 [0476] (-95)
4E57  58                 [0477] (-91)
4E58  01                 [0478] (-91)
4E59  00                 [0479] (-91)
4E5A  00                 [0480] (-91)
4E5B  58                 [0481] (-91)
4E5C  01                 [0482] (-90)
4E5D  00                 [0483] (-90)
4E5E  00                 [0484] (-90)
4E5F  58                 [0485] (-90)
4E60  01                 [0486] (-89)
4E61  00                 [0487] (-89)
4E62  00                 [0488] (-89)
4E63  58                 [0489] (-89)
4E64  01                 [0490] (-89)
4E65  00                 [0491] (-88)
4E66  00                 [0492] (-88)
4E67  58                 [0493] (-87)
4E68  01                 [0494] (-87)
4E69  00                 [0495] (-87)
4E6A  00                 [0496] (-87)
4E6B  58                 [0497] (-87)
4E6C  01                 [0498] (-87)
4E6D  00                 [0499] (-87)
4E6E  00                 [0500] (-87)
4E6F  58                 [0501] (-87)
4E70  01                 [0502] (-86)
4E71  00                 [0503] (-86)
4E72  00                 [0504] (-86)
4E73  58                 [0505] (-86)
4E74  01                 [0506] (-85)
4E75  00                 [0507] (-85)
4E76  00                 [0508] (-85)
4E77  58                 [0509] (-85)
4E78  01                 [0510] (-84)
4E79  00                 [0511] (-84)
4E7A  00                 [0512] (-83)
4E7B  58                 [0513] (-83)
4E7C  01                 [0514] (-83)
4E7D  00                 [0515] (-83)
4E7E  00                 [0516] (-83)
4E7F  58                 [0517] (-83)
4E80  01                 [0518] (-83)
4E81  00                 [0519] (-77)
4E82  00                 [0520] (-77)
4E83  58                 [0521] (-77)
4E84  01                 [0522] (-77)
4E85  00                 [0523] (-77)
4E86  00                 [0524] (-77)
4E87  58                 [0525] (-77)
4E88  01                 [0526] (-77)
4E89  00                 [0527] (-77)
4E8A  00                 [0528] (-77)
4E8B  58                 [0529] (-77)
4E8C  01                 [0530] (-77)
4E8D  00                 [0531] (-77)
4E8E  00                 [0532] (-76)
4E8F  58                 [0533] (-76)
4E90  01                 [0534] (-76)
4E91  00                 [0535] (-76)
4E92  00                 [0536] (-76)
4E93  58                 [0537] (-76)
4E94  01                 [0538] (-76)
4E95  00                 [0539] (-76)
4E96  00                 [0540] (-76)
4E97  58                 [0541] (-76)
4E98  01                 [0542] (-76)
4E99  00                 [0543] (-76)
4E9A  00                 [0544] (-76)
4E9B  58                 [0545] (-76)
4E9C  01                 [0546] (-75)
4E9D  00                 [0547] (-75)
4E9E  00                 [0548] (-75)
4E9F  59                 [0549] (-75)
4EA0  01                 [0550] (-74)
4EA1  00                 [0551] (-74)
4EA2  00                 [0552] (-74)
4EA3  59                 [0553] (-74)
4EA4  01                 [0554] (-74)
4EA5  00                 [0555] (-73)
4EA6  00                 [0556] (-73)
4EA7  59                 [0557] (-73)
4EA8  01                 [0558] (-73)
4EA9  00                 [0559] (-72)
4EAA  00                 [0560] (-72)
4EAB  59                 [0561] (-72)
4EAC  01                 [0562] (-71)
4EAD  00                 [0563] (-71)
4EAE  00                 [0564] (-71)
4EAF  59                 [0565] (-71)
4EB0  01                 [0566] (-71)
4EB1  00                 [0567] (-71)
4EB2  00                 [0568] (-70)
4EB3  59                 [0569] (-70)
4EB4  01                 [0570] (-70)
4EB5  00                 [0571] (-70)
4EB6  00                 [0572] (-70)
4EB7  5A                 [0573] (-69)
4EB8  01                 [0574] (-69)
4EB9  00                 [0575] (-69)
4EBA  00                 [0576] (-69)
4EBB  5A                 [0577] (-68)
4EBC  01                 [0578] (-68)
4EBD  00                 [0579] (-68)
4EBE  00                 [0580] (-68)
4EBF  5A                 [0581] (-68)
4EC0  01                 [0582] (-68)
4EC1  00                 [0583] (-68)
4EC2  00                 [0584] (-68)
4EC3  5A                 [0585] (-67)
4EC4  01                 [0586] (-67)
4EC5  00                 [0587] (-67)
4EC6  00                 [0588] (-67)
4EC7  5A                 [0589] (-67)
4EC8  01                 [0590] (-67)
4EC9  00                 [0591] (-67)
4ECA  00                 [0592] (-66)
4ECB  5A                 [0593] (-66)
4ECC  01                 [0594] (-66)
4ECD  00                 [0595] (-66)
4ECE  00                 [0596] (-66)
4ECF  5A                 [0597] (-66)
4ED0  01                 [0598] (-66)
4ED1  00                 [0599] (-66)
4ED2  00                 [0600] (-66)
4ED3  5A                 [0601] (-66)
4ED4  01                 [0602] (-66)
4ED5  00                 [0603] (-64)
4ED6  00                 [0604] (-64)
4ED7  5A                 [0605] (-64)
4ED8  01                 [0606] (-64)
4ED9  00                 [0607] (-64)
4EDA  00                 [0608] (-63)
4EDB  5A                 [0609] (-63)
4EDC  01                 [0610] (-63)
4EDD  00                 [0611] (-63)
4EDE  00                 [0612] (-62)
4EDF  5A                 [0613] (-62)
4EE0  01                 [0614] (-62)
4EE1  00                 [0615] (-62)
4EE2  00                 [0616] (-62)
4EE3  5A                 [0617] (-62)
4EE4  01                 [0618] (-62)
4EE5  00                 [0619] (-62)
4EE6  00                 [0620] (-61)
4EE7  5A                 [0621] (-61)
4EE8  01                 [0622] (-61)
4EE9  00                 [0623] (-61)
4EEA  00                 [0624] (-61)
4EEB  5B                 [0625] (-61)
4EEC  01                 [0626] (-61)
4EED  00                 [0627] (-60)
4EEE  00                 [0628] (-60)
4EEF  5B                 [0629] (-60)
4EF0  01                 [0630] (-60)
4EF1  00                 [0631] (-60)
4EF2  00                 [0632] (-60)
4EF3  5B                 [0633] (-60)
4EF4  01                 [0634] (-60)
4EF5  00                 [0635] (-60)
4EF6  00                 [0636] (-60)
4EF7  5B                 [0637] (-60)
4EF8  01                 [0638] (-71)
4EF9  00                 [0639] (-58)
4EFA  00                 [0640] (-56)
4EFB  5B                 [0641] (-56)
4EFC  01                 [0642] (-55)
4EFD  00                 [0643] (-55)
4EFE  00                 [0644] (-55)
4EFF  5B                 [0645] (-55)
4F00  01                 [0646] (-55)
4F01  00                 [0647] (-55)
4F02  00                 [0648] (-55)
4F03  5B                 [0649] (-54)
4F04  01                 [0650] (-54)
4F05  00                 [0651] (-54)
4F06  00                 [0652] (-54)
4F07  5C                 [0653] (-54)
4F08  01                 [0654] (-54)
4F09  00                 [0655] (-54)
4F0A  00                 [0656] (-54)
4F0B  5C                 [0657] (-53)
4F0C  01                 [0658] (-53)
4F0D  00                 [0659] (-53)
4F0E  00                 [0660] (-53)
4F0F  5C                 [0661] (-53)
4F10  01                 [0662] (-53)
4F11  00                 [0663] (-53)
4F12  00                 [0664] (-53)
4F13  5C                 [0665] (-53)
4F14  01                 [0666] (-53)
4F15  00                 [0667] (-47)
4F16  00                 [0668] (-47)
4F17  5D                 [0669] (-47)
4F18  01                 [0670] (-46)
4F19  00                 [0671] (-46)
4F1A  00                 [0672] (-46)
4F1B  5D                 [0673] (-46)
4F1C  01                 [0674] (-45)
4F1D  00                 [0675] (-45)
4F1E  00                 [0676] (-45)
4F1F  5D                 [0677] (-45)
4F20  01                 [0678] (-45)
4F21  00                 [0679] (-44)
4F22  00                 [0680] (-43)
4F23  5D                 [0681] (-43)
4F24  01                 [0682] (-43)
4F25  00                 [0683] (-42)
4F26  00                 [0684] (-40)
4F27  5D                 [0685] (-40)
4F28  01                 [0686] (-40)
4F29  00                 [0687] (-40)
4F2A  00                 [0688] (-40)
4F2B  5E                 [0689] (-40)
4F2C  01                 [0690] (-40)
4F2D  00                 [0691] (-40)
4F2E  00                 [0692] (-39)
4F2F  5F                 [0693] (-39)
4F30  01                 [0694] (-39)
4F31  00                 [0695] (-39)
4F32  00                 [0696] (-39)
4F33  5F                 [0697] (-39)
4F34  01                 [0698] (-39)
4F35  00                 [0699] (-39)
4F36  00                 [0700] (-39)
4F37  5F                 [0701] (-39)
4F38  01                 [0702] (-39)
4F39  00                 [0703] (-39)
4F3A  00                 [0704] (-39)
4F3B  5F                 [0705] (-39)
4F3C  01                 [0706] (-39)
4F3D  00                 [0707] (-39)
4F3E  00                 [0708] (-39)
4F3F  5F                 [0709] (-39)
4F40  01                 [0710] (-38)
4F41  00                 [0711] (-38)
4F42  00                 [0712] (-38)
4F43  5F                 [0713] (-37)
4F44  01                 [0714] (-37)
4F45  00                 [0715] (-37)
4F46  00                 [0716] (-37)
4F47  5F                 [0717] (-37)
4F48  01                 [0718] (-37)
4F49  00                 [0719] (-37)
4F4A  00                 [0720] (-37)
4F4B  5F                 [0721] (-37)
4F4C  01                 [0722] (-37)
4F4D  00                 [0723] (-37)
4F4E  00                 [0724] (-35)
4F4F  5F                 [0725] (-35)
4F50  01                 [0726] (-35)
4F51  00                 [0727] (-35)
4F52  00                 [0728] (-35)
4F53  5F                 [0729] (-35)
4F54  01                 [0730] (-35)
4F55  00                 [0731] (-35)
4F56  00                 [0732] (-35)
4F57  5F                 [0733] (-35)
4F58  01                 [0734] (-35)
4F59  00                 [0735] (-35)
4F5A  00                 [0736] (-35)
4F5B  5F                 [0737] (-46)
4F5C  01                 [0738] (-29)
4F5D  00                 [0739] (-29)
4F5E  00                 [0740] (-29)
4F5F  5F                 [0741] (-29)
4F60  01                 [0742] (-29)
4F61  00                 [0743] (-27)
4F62  00                 [0744] (-27)
4F63  5F                 [0745] (-27)
4F64  01                 [0746] (-25)
4F65  00                 [0747] (-25)
4F66  00                 [0748] (-25)
4F67  5F                 [0749] (-25)
4F68  01                 [0750] (-25)
4F69  00                 [0751] (-25)
4F6A  00                 [0752] (-25)
4F6B  5F                 [0753] (-25)
4F6C  01                 [0754] (-24)
4F6D  00                 [0755] (-24)
4F6E  00                 [0756] (-24)
4F6F  5F                 [0757] (-24)
4F70  01                 [0758] (-24)
4F71  00                 [0759] (-24)
4F72  00                 [0760] (-23)
4F73  5F                 [0761] (-23)
4F74  01                 [0762] (-21)
4F75  00                 [0763] (-21)
4F76  00                 [0764] (-21)
4F77  5F                 [0765] (-21)
4F78  01                 [0766] (-21)
4F79  00                 [0767] (-21)
4F7A  00                 [0768] (-20)
4F7B  60                 [0769] (-20)
4F7C  01                 [0770] (-20)
4F7D  00                 [0771] (-20)
4F7E  00                 [0772] (-20)
4F7F  60                 [0773] (-20)
4F80  01                 [0774] (-19)
4F81  00                 [0775] (-19)
4F82  00                 [0776] (-19)
4F83  60                 [0777] (-19)
4F84  01                 [0778] (-19)
4F85  00                 [0779] (-19)
4F86  00                 [0780] (-18)
4F87  60                 [0781] (-18)
4F88  01                 [0782] (-18)
4F89  00                 [0783] (-18)
4F8A  00                 [0784] (-18)
4F8B  60                 [0785] (-18)
4F8C  01                 [0786] (-18)
4F8D  00                 [0787] (-18)
4F8E  00                 [0788] (-18)
4F8F  61                 [0789] (-18)
4F90  01                 [0790] (-18)
4F91  00                 [0791] (-18)
4F92  00                 [0792] (-18)
4F93  61                 [0793] (-18)
4F94  01                 [0794] (-18)
4F95  00                 [0795] (-18)
4F96  00                 [0796] (-18)
4F97  61                 [0797] (-17)
4F98  01                 [0798] (-17)
4F99  00                 [0799] (-15)
4F9A  00                 [0800] (-15)
4F9B  61                 [0801] (-15)
4F9C  01                 [0802] (-15)
4F9D  00                 [0803] (-15)
4F9E  00                 [0804] (-15)
4F9F  61                 [0805] (-15)
4FA0  01                 [0806] (-15)
4FA1  00                 [0807] (-14)
4FA2  00                 [0808] (-14)
4FA3  61                 [0809] (-14)
4FA4  01                 [0810] (-13)
4FA5  00                 [0811] (-10)
4FA6  00                 [0812] (-10)
4FA7  61                 [0813] (-10)
4FA8  01                 [0814] (-10)
4FA9  00                 [0815] (-9)
4FAA  00                 [0816] (-9)
4FAB  62                 [0817] (-9)
4FAC  01                 [0818] (-9)
4FAD  00                 [0819] (-9)
4FAE  00                 [0820] (-8)
4FAF  62                 [0821] (-8)
4FB0  01                 [0822] (-8)
4FB1  00                 [0823] (-8)
4FB2  00                 [0824] (-8)
4FB3  62                 [0825] (-8)
4FB4  01                 [0826] (-8)
4FB5  00                 [0827] (-8)
4FB6  00                 [0828] (-8)
4FB7  62                 [0829] (-8)
4FB8  01                 [0830] (-8)
4FB9  00                 [0831] (-7)
4FBA  00                 [0832] (-7)
4FBB  62                 [0833] (-7)
4FBC  01                 [0834] (-7)
4FBD  00                 [0835] (-7)
4FBE  00                 [0836] (-7)
4FBF  63                 [0837] (-7)
4FC0  01                 [0838] (-6)
4FC1  00                 [0839] (-6)
4FC2  00                 [0840] (-6)
4FC3  63                 [0841] (-6)
4FC4  01                 [0842] (-4)
4FC5  00                 [0843] (-4)
4FC6  00                 [0844] (-4)
4FC7  63                 [0845] (-4)
4FC8  01                 [0846] (-4)
4FC9  00                 [0847] (-4)
4FCA  00                 [0848] (-10)
4FCB  63                 [0849] (3)
4FCC  01                 [0850] (3)
4FCD  00                 [0851] (3)
4FCE  00                 [0852] (3)
4FCF  63                 [0853] (4)
4FD0  01                 [0854] (4)
4FD1  00                 [0855] (5)
4FD2  00                 [0856] (8)
4FD3  63                 [0857] (8)
4FD4  01                 [0858] (8)
4FD5  00                 [0859] (8)
4FD6  00                 [0860] (8)
4FD7  63                 [0861] (9)
4FD8  01                 [0862] (9)
4FD9  00                 [0863] (9)
4FDA  00                 [0864] (10)
4FDB  63                 [0865] (10)
4FDC  01                 [0866] (10)
4FDD  00                 [0867] (10)
4FDE  00                 [0868] (12)
4FDF  63                 [0869] (12)
4FE0  01                 [0870] (12)
4FE1  00                 [0871] (12)
4FE2  00                 [0872] (12)
4FE3  63                 [0873] (12)
4FE4  01                 [0874] (12)
4FE5  00                 [0875] (12)
4FE6  00                 [0876] (13)
4FE7  63                 [0877] (13)
4FE8  01                 [0878] (13)
4FE9  00                 [0879] (13)
4FEA  00                 [0880] (13)
4FEB  63                 [0881] (13)
4FEC  01                 [0882] (13)
4FED  00                 [0883] (13)
4FEE  00                 [0884] (14)
4FEF  63                 [0885] (14)
4FF0  01                 [0886] (14)
4FF1  00                 [0887] (14)
4FF2  00                 [0888] (14)
4FF3  64                 [0889] (14)
4FF4  01                 [0890] (14)
4FF5  00                 [0891] (14)
4FF6  00                 [0892] (15)
4FF7  64                 [0893] (16)
4FF8  01                 [0894] (18)
4FF9  00                 [0895] (18)
4FFA  00                 [0896] (18)
4FFB  64                 [0897] (18)
4FFC  01                 [0898] (19)
4FFD  00                 [0899] (19)
4FFE  00                 [0900] (19)
4FFF  64                 [0901] (19)
5000  01                 [0902] (19)
5001  00                 [0903] (20)
5002  00                 [0904] (20)
5003  64                 [0905] (20)
5004  01                 [0906] (20)
5005  00                 [0907] (20)
5006  00                 [0908] (21)
5007  65                 [0909] (21)
5008  01                 [0910] (22)
5009  00                 [0911] (22)
500A  00                 [0912] (22)
500B  65                 [0913] (22)
500C  01                 [0914] (22)
500D  00                 [0915] (22)
500E  00                 [0916] (22)
500F  65                 [0917] (22)
5010  01                 [0918] (22)
5011  00                 [0919] (22)
5012  00                 [0920] (22)
5013  65                 [0921] (22)
5014  01                 [0922] (22)
5015  00                 [0923] (22)
5016  00                 [0924] (23)
5017  65                 [0925] (18)
5018  01                 [0926] (27)
5019  00                 [0927] (27)
501A  00                 [0928] (28)
501B  65                 [0929] (28)
501C  01                 [0930] (28)
501D  00                 [0931] (28)
501E  00                 [0932] (28)
501F  65                 [0933] (28)
5020  01                 [0934] (28)
5021  00                 [0935] (28)
5022  00                 [0936] (28)
5023  65                 [0937] (28)
5024  01                 [0938] (29)
5025  00                 [0939] (29)
5026  00                 [0940] (29)
5027  65                 [0941] (29)
5028  01                 [0942] (30)
5029  00                 [0943] (33)
502A  00                 [0944] (34)
502B  65                 [0945] (34)
502C  01                 [0946] (34)
502D  00                 [0947] (34)
502E  00                 [0948] (35)
502F  65                 [0949] (35)
5030  01                 [0950] (35)
5031  00                 [0951] (35)
5032  00                 [0952] (35)
5033  65                 [0953] (36)
5034  01                 [0954] (36)
5035  00                 [0955] (36)
5036  00                 [0956] (36)
5037  65                 [0957] (36)
5038  01                 [0958] (36)
5039  00                 [0959] (36)
503A  00                 [0960] (36)
503B  66                 [0961] (37)
503C  01                 [0962] (38)
503D  00                 [0963] (40)
503E  00                 [0964] (40)
503F  66                 [0965] (40)
5040  01                 [0966] (40)
5041  00                 [0967] (41)
5042  00                 [0968] (41)
5043  66                 [0969] (41)
5044  01                 [0970] (41)
5045  00                 [0971] (41)
5046  00                 [0972] (41)
5047  66                 [0973] (41)
5048  01                 [0974] (41)
5049  00                 [0975] (41)
504A  00                 [0976] (41)
504B  66                 [0977] (41)
504C  01                 [0978] (42)
504D  00                 [0979] (42)
504E  00                 [0980] (44)
504F  67                 [0981] (44)
5050  01                 [0982] (44)
5051  00                 [0983] (44)
5052  00                 [0984] (44)
5053  67                 [0985] (45)
5054  01                 [0986] (45)
5055  00                 [0987] (45)
5056  00                 [0988] (45)
5057  67                 [0989] (45)
5058  01                 [0990] (46)
5059  00                 [0991] (46)
505A  00                 [0992] (47)
505B  67                 [0993] (47)
505C  01                 [0994] (47)
505D  00                 [0995] (47)
505E  00                 [0996] (47)
505F  67                 [0997] (47)
5060  01                 [0998] (47)
5061  00                 [0999] (47)
5062  00                 [1000] (47)
5063  67                 [1001] (47)
5064  01                 [1002] (47)
5065  00                 [1003] (47)
5066  00                 [1004] (48)
5067  67                 [1005] (40)
5068  01                 [1006] (53)
5069  00                 [1007] (53)
506A  00                 [1008] (54)
506B  67                 [1009] (54)
506C  01                 [1010] (54)
506D  00                 [1011] (54)
506E  00                 [1012] (54)
506F  67                 [1013] (54)
5070  01                 [1014] (54)
5071  00                 [1015] (54)
5072  00                 [1016] (54)
5073  67                 [1017] (54)
5074  01                 [1018] (55)
5075  00                 [1019] (55)
5076  00                 [1020] (55)
5077  67                 [1021] (55)
5078  01                 [1022] (55)
5079  00                 [1023] (55)
507A  00                 [1024] (55)
507B  67                 [1025] (56)
507C  01                 [1026] (56)
507D  00                 [1027] (56)
507E  00                 [1028] (56)
507F  67                 [1029] (56)
5080  01                 [1030] (58)
5081  00                 [1031] (58)
5082  00                 [1032] (58)
5083  68                 [1033] (58)
5084  01                 [1034] (58)
5085  00                 [1035] (58)
5086  00                 [1036] (58)
5087  68                 [1037] (34)
5088  01                 [1038] (65)
5089  00                 [1039] (65)
508A  00                 [1040] (65)
508B  68                 [1041] (65)
508C  01                 [1042] (65)
508D  00                 [1043] (65)
508E  00                 [1044] (66)
508F  68                 [1045] (66)
5090  01                 [1046] (66)
5091  00                 [1047] (66)
5092  00                 [1048] (66)
5093  68                 [1049] (66)
5094  01                 [1050] (68)
5095  00                 [1051] (68)
5096  00                 [1052] (68)
5097  69                 [1053] (68)
5098  01                 [1054] (68)
5099  00                 [1055] (68)
509A  00                 [1056] (68)
509B  69                 [1057] (68)
509C  01                 [1058] (68)
509D  00                 [1059] (68)
509E  00                 [1060] (68)
509F  69                 [1061] (68)
50A0  01                 [1062] (68)
50A1  00                 [1063] (68)
50A2  00                 [1064] (68)
50A3  69                 [1065] (68)
50A4  01                 [1066] (68)
50A5  00                 [1067] (68)
50A6  00                 [1068] (68)
50A7  69                 [1069] (68)
50A8  01                 [1070] (68)
50A9  00                 [1071] (68)
50AA  00                 [1072] (68)
50AB  69                 [1073] (68)
50AC  01                 [1074] (68)
50AD  00                 [1075] (69)
50AE  00                 [1076] (69)
50AF  69                 [1077] (70)
50B0  01                 [1078] (70)
50B1  00                 [1079] (70)
50B2  00                 [1080] (70)
50B3  69                 [1081] (70)
50B4  01                 [1082] (70)
50B5  00                 [1083] (70)
50B6  00                 [1084] (70)
50B7  69                 [1085] (70)
50B8  01                 [1086] (74)
50B9  00                 [1087] (74)
50BA  00                 [1088] (74)
50BB  69                 [1089] (75)
50BC  01                 [1090] (75)
50BD  00                 [1091] (75)
50BE  00                 [1092] (77)
50BF  69                 [1093] (77)
50C0  01                 [1094] (77)
50C1  00                 [1095] (77)
50C2  00                 [1096] (77)
50C3  69                 [1097] (77)
50C4  01                 [1098] (77)
50C5  00                 [1099] (77)
50C6  00                 [1100] (78)
50C7  69                 [1101] (78)
50C8  01                 [1102] (78)
50C9  00                 [1103] (78)
50CA  00                 [1104] (78)
50CB  6A                 [1105] (78)
50CC  01                 [1106] (78)
50CD  00                 [1107] (78)
50CE  00                 [1108] (79)
50CF  6A                 [1109] (79)
50D0  01                 [1110] (79)
50D1  00                 [1111] (79)
50D2  00                 [1112] (79)
50D3  6A                 [1113] (79)
50D4  01                 [1114] (80)
50D5  00                 [1115] (80)
50D6  00                 [1116] (80)
50D7  6A                 [1117] (80)
50D8  01                 [1118] (80)
50D9  00                 [1119] (80)
50DA  00                 [1120] (80)
50DB  6A                 [1121] (80)
50DC  01                 [1122] (80)
50DD  00                 [1123] (80)
50DE  00                 [1124] (80)
50DF  6B                 [1125] (80)
50E0  01                 [1126] (80)
50E1  00                 [1127] (80)
50E2  00                 [1128] (80)
50E3  6B                 [1129] (80)
50E4  01                 [1130] (80)
50E5  00                 [1131] (80)
50E6  00                 [1132] (82)
50E7  6B                 [1133] (82)
50E8  01                 [1134] (83)
50E9  00                 [1135] (83)
50EA  00                 [1136] (83)
50EB  6B                 [1137] (84)
50EC  01                 [1138] (87)
50ED  00                 [1139] (87)
50EE  00                 [1140] (87)
50EF  6B                 [1141] (87)
50F0  01                 [1142] (88)
50F1  00                 [1143] (88)
50F2  00                 [1144] (88)
50F3  6B                 [1145] (88)
50F4  01                 [1146] (88)
50F5  00                 [1147] (89)
50F6  00                 [1148] (89)
50F7  6B                 [1149] (90)
50F8  01                 [1150] (90)
50F9  00                 [1151] (90)
50FA  00                 [1152] (90)
50FB  6B                 [1153] (90)
50FC  01                 [1154] (90)
50FD  00                 [1155] (90)
50FE  00                 [1156] (90)
50FF  6C                 [1157] (90)
5100  01                 [1158] (90)
5101  00                 [1159] (90)
5102  00                 [1160] (90)
5103  6C                 [1161] (90)
5104  01                 [1162] (90)
5105  00                 [1163] (92)
5106  00                 [1164] (92)
5107  6C                 [1165] (93)
5108  01                 [1166] (93)
5109  00                 [1167] (93)
510A  00                 [1168] (93)
510B  6C                 [1169] (93)
510C  01                 [1170] (93)
510D  00                 [1171] (93)
510E  00                 [1172] (94)
510F  6C                 [1173] (94)
5110  01                 [1174] (94)
5111  00                 [1175] (94)
5112  00                 [1176] (96)
5113  6C                 [1177] (96)
5114  01                 [1178] (96)
5115  00                 [1179] (96)
5116  00                 [1180] (96)
5117  6D                 [1181] (96)
5118  01                 [1182] (87)
5119  00                 [1183] (103)
511A  00                 [1184] (103)
511B  6D                 [1185] (103)
511C  01                 [1186] (103)
511D  00                 [1187] (103)
511E  00                 [1188] (103)
511F  6D                 [1189] (103)
5120  01                 [1190] (103)
5121  00                 [1191] (103)
5122  00                 [1192] (103)
5123  6E                 [1193] (104)
5124  01                 [1194] (104)
5125  00                 [1195] (104)
5126  00                 [1196] (104)
5127  6E                 [1197] (104)
5128  01                 [1198] (105)
5129  00                 [1199] (105)
512A  00                 [1200] (105)
512B  6E                 [1201] (109)
512C  01                 [1202] (109)
512D  00                 [1203] (109)
512E  00                 [1204] (109)
512F  6F                 [1205] (109)
5130  01                 [1206] (109)
5131  00                 [1207] (109)
5132  00                 [1208] (109)
5133  6F                 [1209] (109)
5134  01                 [1210] (110)
5135  00                 [1211] (110)
5136  00                 [1212] (110)
5137  6F                 [1213] (111)
5138  01                 [1214] (111)
5139  00                 [1215] (111)
513A  00                 [1216] (111)
513B  6F                 [1217] (111)
513C  01                 [1218] (111)
513D  00                 [1219] (111)
513E  00                 [1220] (111)
513F  6F                 [1221] (111)
5140  01                 [1222] (112)
5141  00                 [1223] (112)
5142  00                 [1224] (112)
5143  70                 [1225] (112)
5144  01                 [1226] (112)
5145  00                 [1227] (112)
5146  00                 [1228] (112)
5147  70                 [1229] (116)
5148  01                 [1230] (116)
5149  00                 [1231] (116)
514A  00                 [1232] (116)
514B  70                 [1233] (116)
514C  01                 [1234] (116)
514D  00                 [1235] (116)
514E  00                 [1236] (116)
514F  71                 [1237] (116)
5150  01                 [1238] (116)
5151  00                 [1239] (116)
5152  00                 [1240] (118)
5153  71                 [1241] (118)
5154  01                 [1242] (118)
5155  00                 [1243] (118)
5156  00                 [1244] (118)
5157  71                 [1245] (118)
5158  01                 [1246] (119)
5159  00                 [1247] (119)
515A  00                 [1248] (119)
515B  71                 [1249] (120)
515C  01                 [1250] (120)
515D  00                 [1251] (120)
515E  00                 [1252] (120)
515F  71                 [1253] (120)
5160  01                 [1254] (120)
5161  00                 [1255] (121)
5162  00                 [1256] (121)
5163  71                 [1257] (121)
5164  01                 [1258] (121)
5165  00                 [1259] (121)
5166  00                 [1260] (121)
5167  71                 [1261] (121)
5168  01                 [1262] (122)
5169  00                 [1263] (122)
516A  00                 [1264] (122)
516B  71                 [1265] (122)
516C  01                 [1266] (122)
516D  00                 [1267] (122)
516E  00                 [1268] (122)
516F  71                 [1269] (122)
5170  01                 [1270] (124)
5171  00                 [1271] (124)
5172  00                 [1272] (125)
5173  72                 [1273] (125)
5174  01                 [1274] (125)
5175  00                 [1275] (125)
5176  00                 [1276] (125)
5177  74                 [1277] (125)
5178  01                 [1278] (125)
5179  00                 [1279] (125)
517A  00                 [1280] (126)
517B  74                 [1281] (126)
517C  01                 [1282] (126)
517D  00                 [1283] (126)
517E  00                 [1284] (126)
517F  75                 [1285] (126)
5180  01                 [1286] (126)
5181  00                 [1287] (-125)
5182  00                 [1288] (-125)
5183  75                 [1289] (-124)
5184  01                 [1290] (-124)
5185  00                 [1291] (-124)
5186  00                 [1292] (-124)
5187  75                 [1293] (-124)
5188  01                 [1294] (-124)
5189  00                 [1295] (-123)
518A  00                 [1296] (-123)
518B  75                 [1297] (-122)
518C  01                 [1298] (-122)
518D  00                 [1299] (-122)
518E  00                 [1300] (-122)
518F  75                 [1301] (-122)
5190  01                 [1302] (-122)
5191  00                 [1303] (-122)
5192  00                 [1304] (-122)
5193  76                 [1305] (-121)
5194  01                 [1306] (-121)
5195  00                 [1307] (-121)
5196  00                 [1308] (-121)
5197  76                 [1309] (-121)
5198  01                 [1310] (-121)
5199  00                 [1311] (-121)
519A  00                 [1312] (-117)
519B  76                 [1313] (-117)
519C  01                 [1314] (-117)
519D  00                 [1315] (-117)
519E  00                 [1316] (-117)
519F  76                 [1317] (-117)
51A0  01                 [1318] (-117)
51A1  00                 [1319] (-117)
51A2  00                 [1320] (-115)
51A3  76                 [1321] (-114)
51A4  01                 [1322] (-113)
51A5  00                 [1323] (-112)
51A6  00                 [1324] (-112)
51A7  76                 [1325] (-112)
51A8  01                 [1326] (-110)
51A9  00                 [1327] (-110)
51AA  00                 [1328] (-110)
51AB  78                 [1329] (-110)
51AC  01                 [1330] (-109)
51AD  00                 [1331] (-109)
51AE  00                 [1332] (-109)
51AF  78                 [1333] (-109)
51B0  01                 [1334] (-109)
51B1  00                 [1335] (-108)
51B2  00                 [1336] (-108)
51B3  78                 [1337] (-108)
51B4  01                 [1338] (-108)
51B5  00                 [1339] (-106)
51B6  00                 [1340] (-106)
51B7  78                 [1341] (-106)
51B8  01                 [1342] (-106)
51B9  00                 [1343] (-105)
51BA  00                 [1344] (-104)
51BB  78                 [1345] (-104)
51BC  01                 [1346] (-104)
51BD  00                 [1347] (-104)
51BE  00                 [1348] (-104)
51BF  78                 [1349] (-104)
51C0  01                 [1350] (-104)
51C1  00                 [1351] (-104)
51C2  00                 [1352] (-104)
51C3  78                 [1353] (-104)
51C4  01                 [1354] (-103)
51C5  00                 [1355] (-101)
51C6  00                 [1356] (-101)
51C7  78                 [1357] (-101)
51C8  01                 [1358] (-100)
51C9  00                 [1359] (-100)
51CA  00                 [1360] (-100)
51CB  78                 [1361] (-100)
51CC  01                 [1362] (-100)
51CD  00                 [1363] (-100)
51CE  00                 [1364] (-100)
51CF  78                 [1365] (-100)
51D0  01                 [1366] (-99)
51D1  00                 [1367] (-99)
51D2  00                 [1368] (-99)
51D3  79                 [1369] (-98)
51D4  01                 [1370] (-98)
51D5  00                 [1371] (-98)
51D6  00                 [1372] (-98)
51D7  79                 [1373] (-95)
51D8  01                 [1374] (-95)
51D9  00                 [1375] (-95)
51DA  00                 [1376] (-94)
51DB  79                 [1377] (-94)
51DC  01                 [1378] (-92)
51DD  00                 [1379] (-92)
51DE  00                 [1380] (-92)
51DF  79                 [1381] (-90)
51E0  01                 [1382] (-90)
51E1  00                 [1383] (-90)
51E2  00                 [1384] (-89)
51E3  7C                 [1385] (-89)
51E4  01                 [1386] (-89)
51E5  00                 [1387] (-89)
51E6  00                 [1388] (-89)
51E7  7D                 [1389] (-106)
51E8  01                 [1390] (-110)
51E9  00                 [1391] (-82)
51EA  00                 [1392] (-82)
51EB  7D                 [1393] (-82)
51EC  01                 [1394] (-82)
51ED  00                 [1395] (-82)
51EE  00                 [1396] (-82)
51EF  7D                 [1397] (-82)
51F0  01                 [1398] (-82)
51F1  00                 [1399] (-82)
51F2  00                 [1400] (-82)
51F3  7D                 [1401] (-82)
51F4  01                 [1402] (-81)
51F5  00                 [1403] (-80)
51F6  00                 [1404] (-77)
51F7  7D                 [1405] (-77)
51F8  01                 [1406] (-77)
51F9  00                 [1407] (-77)
51FA  00                 [1408] (-77)
51FB  7E                 [1409] (-77)
51FC  01                 [1410] (-77)
51FD  00                 [1411] (-77)
51FE  00                 [1412] (-77)
51FF  7E                 [1413] (-77)
5200  01                 [1414] (-77)
5201  00                 [1415] (-77)
5202  00                 [1416] (-77)
5203  7E                 [1417] (-77)
5204  01                 [1418] (-77)
5205  00                 [1419] (-77)
5206  00                 [1420] (-77)
5207  7E                 [1421] (-77)
5208  01                 [1422] (-77)
5209  00                 [1423] (-77)
520A  00                 [1424] (-77)
520B  7E                 [1425] (-77)
520C  01                 [1426] (-77)
520D  00                 [1427] (-77)
520E  00                 [1428] (-76)
520F  7E                 [1429] (-76)
5210  01                 [1430] (-76)
5211  00                 [1431] (-76)
5212  00                 [1432] (-73)
5213  7E                 [1433] (-73)
5214  01                 [1434] (-73)
5215  00                 [1435] (-73)
5216  00                 [1436] (-73)
5217  7E                 [1437] (-73)
5218  01                 [1438] (-73)
5219  00                 [1439] (-73)
521A  00                 [1440] (-73)
521B  7E                 [1441] (-73)
521C  01                 [1442] (-73)
521D  00                 [1443] (-73)
521E  00                 [1444] (-73)
521F  7E                 [1445] (-73)
5220  01                 [1446] (-72)
5221  00                 [1447] (-72)
5222  00                 [1448] (-70)
5223  7E                 [1449] (-70)
5224  01                 [1450] (-70)
5225  00                 [1451] (-70)
5226  00                 [1452] (-70)
5227  7E                 [1453] (-70)
5228  01                 [1454] (-70)
5229  00                 [1455] (-70)
522A  00                 [1456] (-70)
522B  7E                 [1457] (-69)
522C  01                 [1458] (-69)
522D  00                 [1459] (-69)
522E  00                 [1460] (-69)
522F  81                 [1461] (-68)
5230  01                 [1462] (-68)
5231  00                 [1463] (-67)
5232  00                 [1464] (-67)
5233  81                 [1465] (-67)
5234  01                 [1466] (-67)
5235  00                 [1467] (-67)
5236  00                 [1468] (-67)
5237  81                 [1469] (-67)
5238  01                 [1470] (-67)
5239  00                 [1471] (-67)
523A  00                 [1472] (-65)
523B  81                 [1473] (-62)
523C  01                 [1474] (-62)
523D  00                 [1475] (-61)
523E  00                 [1476] (-61)
523F  81                 [1477] (-61)
5240  01                 [1478] (-60)
5241  00                 [1479] (-60)
5242  00                 [1480] (-60)
5243  82                 [1481] (-60)
5244  01                 [1482] (-60)
5245  00                 [1483] (-60)
5246  00                 [1484] (-60)
5247  82                 [1485] (-59)
5248  01                 [1486] (-59)
5249  00                 [1487] (-59)
524A  00                 [1488] (-59)
524B  83                 [1489] (-55)
524C  01                 [1490] (-55)
524D  00                 [1491] (-55)
524E  00                 [1492] (-55)
524F  83                 [1493] (-55)
5250  01                 [1494] (-55)
5251  00                 [1495] (-55)
5252  00                 [1496] (-55)
5253  83                 [1497] (-55)
5254  01                 [1498] (-55)
5255  00                 [1499] (-54)
5256  00                 [1500] (-54)
5257  83                 [1501] (-54)
5258  01                 [1502] (-54)
5259  00                 [1503] (-54)
525A  00                 [1504] (-54)
525B  83                 [1505] (-54)
525C  01                 [1506] (-54)
525D  00                 [1507] (-54)
525E  00                 [1508] (-54)
525F  83                 [1509] (-53)
5260  01                 [1510] (-53)
5261  00                 [1511] (-52)
5262  00                 [1512] (-50)
5263  83                 [1513] (-50)
5264  01                 [1514] (-50)
5265  00                 [1515] (-50)
5266  00                 [1516] (-49)
5267  83                 [1517] (-49)
5268  01                 [1518] (-49)
5269  00                 [1519] (-49)
526A  00                 [1520] (-49)
526B  85                 [1521] (-49)
526C  01                 [1522] (-49)
526D  00                 [1523] (-48)
526E  00                 [1524] (-48)
526F  86                 [1525] (-47)
5270  01                 [1526] (-50)
5271  00                 [1527] (-43)
5272  00                 [1528] (-43)
5273  86                 [1529] (-43)
5274  01                 [1530] (-43)
5275  00                 [1531] (-42)
5276  00                 [1532] (-42)
5277  86                 [1533] (-42)
5278  01                 [1534] (-42)
5279  00                 [1535] (-41)
527A  00                 [1536] (-41)
527B  86                 [1537] (-41)
527C  01                 [1538] (-41)
527D  00                 [1539] (-41)
527E  00                 [1540] (-41)
527F  86                 [1541] (-41)
5280  01                 [1542] (-40)
5281  00                 [1543] (-40)
5282  00                 [1544] (-40)
5283  87                 [1545] (-40)
5284  01                 [1546] (-40)
5285  00                 [1547] (-40)
5286  00                 [1548] (-40)
5287  88                 [1549] (-40)
5288  01                 [1550] (-39)
5289  00                 [1551] (-39)
528A  00                 [1552] (-39)
528B  88                 [1553] (-39)
528C  01                 [1554] (-39)
528D  00                 [1555] (-38)
528E  00                 [1556] (-38)
528F  88                 [1557] (-38)
5290  01                 [1558] (-38)
5291  00                 [1559] (-38)
5292  00                 [1560] (-38)
5293  88                 [1561] (-38)
5294  01                 [1562] (-38)
5295  00                 [1563] (-38)
5296  00                 [1564] (-38)
5297  89                 [1565] (-38)
5298  01                 [1566] (-36)
5299  00                 [1567] (-36)
529A  00                 [1568] (-36)
529B  89                 [1569] (-32)
529C  01                 [1570] (-32)
529D  00                 [1571] (-32)
529E  00                 [1572] (-32)
529F  89                 [1573] (-32)
52A0  01                 [1574] (-32)
52A1  00                 [1575] (-32)
52A2  00                 [1576] (-32)
52A3  8A                 [1577] (-32)
52A4  01                 [1578] (-31)
52A5  00                 [1579] (-31)
52A6  00                 [1580] (-31)
52A7  8A                 [1581] (-31)
52A8  01                 [1582] (-31)
52A9  00                 [1583] (-28)
52AA  00                 [1584] (-28)
52AB  8A                 [1585] (-28)
52AC  01                 [1586] (-28)
52AD  00                 [1587] (-28)
52AE  00                 [1588] (-28)
52AF  8A                 [1589] (-28)
52B0  01                 [1590] (-28)
52B1  00                 [1591] (-28)
52B2  00                 [1592] (-28)
52B3  8A                 [1593] (-28)
52B4  01                 [1594] (-28)
52B5  00                 [1595] (-28)
52B6  00                 [1596] (-28)
52B7  8A                 [1597] (-28)
52B8  01                 [1598] (-27)
52B9  00                 [1599] (-27)
52BA  00                 [1600] (-27)
52BB  8A                 [1601] (-27)
52BC  01                 [1602] (-27)
52BD  00                 [1603] (-27)
52BE  00                 [1604] (-26)
52BF  8A                 [1605] (-26)
52C0  01                 [1606] (-26)
52C1  00                 [1607] (-26)
52C2  00                 [1608] (-26)
52C3  8A                 [1609] (-26)
52C4  01                 [1610] (-24)
52C5  00                 [1611] (-24)
52C6  00                 [1612] (-24)
52C7  8A                 [1613] (-24)
52C8  01                 [1614] (-24)
52C9  00                 [1615] (-23)
52CA  00                 [1616] (-23)
52CB  8B                 [1617] (-22)
52CC  01                 [1618] (-22)
52CD  00                 [1619] (-22)
52CE  00                 [1620] (-22)
52CF  8B                 [1621] (-22)
52D0  01                 [1622] (-21)
52D1  00                 [1623] (-21)
52D2  00                 [1624] (-21)
52D3  8B                 [1625] (-21)
52D4  01                 [1626] (-21)
52D5  00                 [1627] (-19)
52D6  00                 [1628] (-19)
52D7  8B                 [1629] (-19)
52D8  01                 [1630] (-19)
52D9  00                 [1631] (-19)
52DA  00                 [1632] (-19)
52DB  8B                 [1633] (-19)
52DC  01                 [1634] (-19)
52DD  00                 [1635] (-19)
52DE  00                 [1636] (-19)
52DF  8B                 [1637] (-19)
52E0  01                 [1638] (-19)
52E1  00                 [1639] (-19)
52E2  00                 [1640] (-18)
52E3  8B                 [1641] (-18)
52E4  01                 [1642] (-18)
52E5  00                 [1643] (-17)
52E6  00                 [1644] (-17)
52E7  88                 [1645] (-17)
52E8  01                 [1646] (-11)
52E9  00                 [1647] (-11)
52EA  00                 [1648] (-10)
52EB  8F                 [1649] (-10)
52EC  01                 [1650] (-10)
52ED  00                 [1651] (-9)
52EE  00                 [1652] (-9)
52EF  90                 [1653] (-9)
52F0  01                 [1654] (-9)
52F1  00                 [1655] (-9)
52F2  00                 [1656] (-9)
52F3  90                 [1657] (-9)
52F4  01                 [1658] (-9)
52F5  00                 [1659] (-8)
52F6  00                 [1660] (-8)
52F7  90                 [1661] (-8)
52F8  01                 [1662] (-8)
52F9  00                 [1663] (-7)
52FA  00                 [1664] (-7)
52FB  90                 [1665] (-7)
52FC  01                 [1666] (-7)
52FD  00                 [1667] (-7)
52FE  00                 [1668] (-1)
52FF  90                 [1669] (-1)
5300  01                 [1670] (-1)
5301  00                 [1671] (0)
5302  00                 [1672] (0)
5303  91                 [1673] (0)
5304  01                 [1674] (0)
5305  00                 [1675] (1)
5306  00                 [1676] (1)
5307  92                 [1677] (1)
5308  01                 [1678] (1)
5309  00                 [1679] (1)
530A  00                 [1680] (2)
530B  92                 [1681] (2)
530C  01                 [1682] (2)
530D  00                 [1683] (2)
530E  00                 [1684] (2)
530F  92                 [1685] (2)
5310  01                 [1686] (3)
5311  00                 [1687] (3)
5312  00                 [1688] (3)
5313  92                 [1689] (3)
5314  01                 [1690] (3)
5315  00                 [1691] (3)
5316  00                 [1692] (3)
5317  93                 [1693] (6)
5318  01                 [1694] (7)
5319  00                 [1695] (7)
531A  00                 [1696] (7)
531B  93                 [1697] (8)
531C  01                 [1698] (8)
531D  00                 [1699] (8)
531E  00                 [1700] (9)
531F  93                 [1701] (9)
5320  01                 [1702] (9)
5321  00                 [1703] (9)
5322  00                 [1704] (9)
5323  94                 [1705] (10)
5324  01                 [1706] (10)
5325  00                 [1707] (10)
5326  00                 [1708] (10)
5327  94                 [1709] (10)
5328  01                 [1710] (12)
5329  00                 [1711] (12)
532A  00                 [1712] (12)
532B  94                 [1713] (12)
532C  01                 [1714] (12)
532D  00                 [1715] (12)
532E  00                 [1716] (12)
532F  94                 [1717] (1)
5330  01                 [1718] (14)
5331  00                 [1719] (20)
5332  00                 [1720] (20)
5333  94                 [1721] (20)
5334  01                 [1722] (20)
5335  00                 [1723] (20)
5336  00                 [1724] (20)
5337  94                 [1725] (20)
5338  01                 [1726] (21)
5339  00                 [1727] (21)
533A  00                 [1728] (21)
533B  94                 [1729] (22)
533C  01                 [1730] (22)
533D  00                 [1731] (22)
533E  00                 [1732] (23)
533F  94                 [1733] (23)
5340  01                 [1734] (24)
5341  00                 [1735] (24)
5342  00                 [1736] (26)
5343  94                 [1737] (26)
5344  01                 [1738] (32)
5345  00                 [1739] (32)
5346  00                 [1740] (32)
5347  94                 [1741] (32)
5348  01                 [1742] (32)
5349  00                 [1743] (32)
534A  00                 [1744] (32)
534B  95                 [1745] (32)
534C  01                 [1746] (32)
534D  00                 [1747] (32)
534E  00                 [1748] (32)
534F  95                 [1749] (33)
5350  01                 [1750] (33)
5351  00                 [1751] (33)
5352  00                 [1752] (34)
5353  95                 [1753] (34)
5354  01                 [1754] (34)
5355  00                 [1755] (35)
5356  00                 [1756] (36)
5357  95                 [1757] (36)
5358  01                 [1758] (36)
5359  00                 [1759] (36)
535A  00                 [1760] (37)
535B  95                 [1761] (37)
535C  01                 [1762] (37)
535D  00                 [1763] (38)
535E  00                 [1764] (39)
535F  95                 [1765] (36)
5360  01                 [1766] (40)
5361  00                 [1767] (43)
5362  00                 [1768] (44)
5363  95                 [1769] (44)
5364  01                 [1770] (45)
5365  00                 [1771] (45)
5366  00                 [1772] (45)
5367  92                 [1773] (45)
5368  01                 [1774] (45)
5369  00                 [1775] (45)
536A  00                 [1776] (45)
536B  9C                 [1777] (45)
536C  01                 [1778] (49)
536D  00                 [1779] (49)
536E  00                 [1780] (50)
                         * locals:
684B  00                 sizelocvars (0)
                         * upvalues:
684C  00                 sizeupvalues (0)
                         ** end of function **

                         
684D                     ** function [12] definition (level 2)
                         ** start of function **
684D  00                 string size (0)
                         source name: (none)
684F  06                 line defined (820)
6850  B6                 last line defined (822)
6851  06                 nups (1)
6852  01                 numparams (3)
6853  03                 is_vararg (0)
6854  00                 maxstacksize (7)
                         * code:
6856  07                 sizecode (7)
6857  D3000000           [1] getupval   3   0      
685B  12010000           [2] move       4   0      
685F  52018000           [3] move       5   1      
6863  92010001           [4] move       6   2      
6867  C7000002           [5] tailcall   3   4   0  
686B  DE000000           [6] return     3   0      
686F  1E008000           [7] return     0   1      
                         * constants:
6873  00                 sizek (0)
                         * functions:
6874  00                 sizep (0)
                         * lines:
6875  07                 sizelineinfo (7)
                         [pc] (line)
6876  35                 [1] (53)
6877  03                 [2] (53)
6878  00                 [3] (53)
6879  00                 [4] (53)
687A  35                 [5] (53)
687B  03                 [6] (53)
687C  00                 [7] (54)
                         * locals:
6892  00                 sizelocvars (0)
                         * upvalues:
6893  00                 sizeupvalues (0)
                         ** end of function **

                         
6894                     ** function [13] definition (level 2)
                         ** start of function **
6894  00                 string size (0)
                         source name: (none)
6896  06                 line defined (824)
6897  C4                 last line defined (836)
6898  06                 nups (3)
6899  03                 numparams (1)
689A  01                 is_vararg (0)
689B  00                 maxstacksize (10)
                         * code:
689D  35                 sizecode (53)
689E  53000000           [01] getupval   1   0      
68A2  4E00C000           [02] gettable   1   1   256  ; -132701534
68A6  92000000           [03] move       2   0      
68AA  DD400000           [04] getglobal  3   1        ; SANCTUARY_ONSLAUGHT_CHALLENGE_NODE
68AE  1D810000           [05] getglobal  4   2        ; SANCTUARY_ONSLAUGHT_NODE
68B2  62800002           [06] call       1   4   2  
68B6  93008000           [07] getupval   2   1      
68BA  A2808000           [08] call       2   1   2  
68BE  A4C04001           [09] self       2   2   259  ; 1267988059
68C2  12018000           [10] move       4   1      
68C6  A2808001           [11] call       2   3   2  
68CA  D3000001           [12] getupval   3   2      
68CE  12018000           [13] move       4   1      
68D2  57018000           [14] loadbool   5   1   0    ; true
68D6  92010001           [15] move       6   2      
68DA  E2800002           [16] call       3   4   2  
fail op	35
68DE  6300C101           [17] close      1  
68E2  1A800480           [18] jmp        19           ; to [38]
68E6  1D410100           [19] getglobal  4   5        ; -421772368
68EA  4E81C101           [20] gettable   5   3   262  ; "text"
68EE  8B410100           [21] newtable   6   0   5    ; array=0, hash=5
68F2  CE01C201           [22] gettable   7   3   264  ; "player"
68F6  8CC18183           [23] settable   6   263 7    ; "PLAYER_NAME"
68FA  CE81C201           [24] gettable   7   3   266  ; "value"
68FE  8CC18184           [25] settable   6   265 7    ; "VALUE"
6902  CEC1C201           [26] gettable   7   3   267  ; "MIN"
6906  8CC18185           [27] settable   6   267 7    ; "MIN"
690A  CE01C301           [28] gettable   7   3   268  ; "MAX"
690E  8CC10186           [29] settable   6   268 7    ; "MAX"
6912  CE41C301           [30] gettable   7   3   269  ; "ITEM"
6916  8CC18186           [31] settable   6   269 7    ; "ITEM"
691A  22818001           [32] call       4   3   2  
691E  53010000           [33] getupval   5   0      
6922  4E81C302           [34] gettable   5   5   270  ; 185724978
6926  92010002           [35] move       6   4      
692A  62410001           [36] call       5   2   1  
692E  1A800380           [37] jmp        15           ; to [53]
6932  4BC10000           [38] newtable   5   0   3    ; array=0, hash=3
6936  9D010400           [39] getglobal  6   16       ; -1615931716
693A  D2018000           [40] move       7   1      
693E  A2810001           [41] call       6   2   2  
6942  4C818187           [42] settable   5   271 6    ; "name"
6946  4C81C488           [43] settable   5   273 274  ; "quest" ""
694A  4C01C189           [44] settable   5   275 260  ; "difficulty" nil
694E  9D010500           [45] getglobal  6   20       ; cjson
6952  8E414503           [46] gettable   6   6   277  ; -1916729509
6956  D2018002           [47] move       7   5      
695A  A2810001           [48] call       6   2   2  
695E  DD810500           [49] getglobal  7   22       ; gMatchingService
6962  E4C1C503           [50] self       7   7   279  ; 806752606
6966  52020003           [51] move       9   6      
696A  E2418001           [52] call       7   3   1  
696E  1E008000           [53] return     0   1      
                         * constants:
6972  18                 sizek (24)
6973  01                 const type 3
6974  A22217F8           const [0]: (-132701534)
6978  04                 const type 4
6979  23                 string size (35)
697A  53414E4354554152+  "SANCTUAR"
6982  595F4F4E534C4155+  "Y_ONSLAU"
698A  4748545F4348414C+  "GHT_CHAL"
6992  4C454E47455F4E4F+  "LENGE_NO"
699A  444500             "DE\0"
                         const [1]: "SANCTUARY_ONSLAUGHT_CHALLENGE_NODE"
699D  04                 const type 4
699E  19                 string size (25)
699F  53414E4354554152+  "SANCTUAR"
69A7  595F4F4E534C4155+  "Y_ONSLAU"
69AF  4748545F4E4F4445+  "GHT_NODE"
69B7  00                 "\0"
                         const [2]: "SANCTUARY_ONSLAUGHT_NODE"
69B8  01                 const type 3
69B9  5BF6934B           const [3]: (1267988059)
69BD  00                 const type 0
                         const [4]: nil
69BE  01                 const type 3
69BF  B043DCE6           const [5]: (-421772368)
69C3  04                 const type 4
69C4  05                 string size (5)
69C5  7465787400         "text\0"
                         const [6]: "text"
69CA  04                 const type 4
69CB  0C                 string size (12)
69CC  504C415945525F4E+  "PLAYER_N"
69D4  414D4500           "AME\0"
                         const [7]: "PLAYER_NAME"
69D8  04                 const type 4
69D9  07                 string size (7)
69DA  706C6179657200     "player\0"
                         const [8]: "player"
69E1  04                 const type 4
69E2  06                 string size (6)
69E3  56414C554500       "VALUE\0"
                         const [9]: "VALUE"
69E9  04                 const type 4
69EA  06                 string size (6)
69EB  76616C756500       "value\0"
                         const [10]: "value"
69F1  04                 const type 4
69F2  04                 string size (4)
69F3  4D494E00           "MIN\0"
                         const [11]: "MIN"
69F7  04                 const type 4
69F8  04                 string size (4)
69F9  4D415800           "MAX\0"
                         const [12]: "MAX"
69FD  04                 const type 4
69FE  05                 string size (5)
69FF  4954454D00         "ITEM\0"
                         const [13]: "ITEM"
6A04  01                 const type 3
6A05  32F0110B           const [14]: (185724978)
6A09  04                 const type 4
6A0A  05                 string size (5)
6A0B  6E616D6500         "name\0"
                         const [15]: "name"
6A10  01                 const type 3
6A11  BCD6AE9F           const [16]: (-1615931716)
6A15  04                 const type 4
6A16  06                 string size (6)
6A17  717565737400       "quest\0"
                         const [17]: "quest"
6A1D  04                 const type 4
6A1E  01                 string size (0)
                         const [18]: ""
6A20  04                 const type 4
6A21  0B                 string size (11)
6A22  646966666963756C+  "difficul"
6A2A  747900             "ty\0"
                         const [19]: "difficulty"
6A2D  04                 const type 4
6A2E  06                 string size (6)
6A2F  636A736F6E00       "cjson\0"
                         const [20]: "cjson"
6A35  01                 const type 3
6A36  5B07C18D           const [21]: (-1916729509)
6A3A  04                 const type 4
6A3B  11                 string size (17)
6A3C  674D61746368696E+  "gMatchin"
6A44  6753657276696365+  "gService"
6A4C  00                 "\0"
                         const [22]: "gMatchingService"
6A4D  01                 const type 3
6A4E  5E111630           const [23]: (806752606)
                         * functions:
6A52  00                 sizep (0)
                         * lines:
6A53  35                 sizelineinfo (53)
                         [pc] (line)
6A54  39                 [01] (57)
6A55  03                 [02] (57)
6A56  00                 [03] (57)
6A57  00                 [04] (57)
6A58  39                 [05] (57)
6A59  03                 [06] (57)
6A5A  00                 [07] (58)
6A5B  00                 [08] (58)
6A5C  39                 [09] (58)
6A5D  03                 [10] (58)
6A5E  00                 [11] (58)
6A5F  00                 [12] (59)
6A60  39                 [13] (59)
6A61  03                 [14] (59)
6A62  00                 [15] (59)
6A63  00                 [16] (59)
6A64  39                 [17] (60)
6A65  03                 [18] (60)
6A66  00                 [19] (61)
6A67  00                 [20] (61)
6A68  39                 [21] (61)
6A69  03                 [22] (61)
6A6A  00                 [23] (61)
6A6B  00                 [24] (61)
6A6C  3A                 [25] (61)
6A6D  03                 [26] (61)
6A6E  00                 [27] (61)
6A6F  00                 [28] (61)
6A70  3A                 [29] (61)
6A71  03                 [30] (61)
6A72  00                 [31] (61)
6A73  00                 [32] (61)
6A74  3A                 [33] (62)
6A75  03                 [34] (62)
6A76  00                 [35] (62)
6A77  00                 [36] (62)
6A78  3A                 [37] (62)
6A79  03                 [38] (64)
6A7A  00                 [39] (64)
6A7B  00                 [40] (64)
6A7C  3A                 [41] (64)
6A7D  03                 [42] (64)
6A7E  00                 [43] (64)
6A7F  00                 [44] (64)
6A80  3B                 [45] (65)
6A81  03                 [46] (65)
6A82  00                 [47] (65)
6A83  00                 [48] (65)
6A84  3B                 [49] (66)
6A85  03                 [50] (66)
6A86  00                 [51] (66)
6A87  00                 [52] (66)
6A88  3B                 [53] (68)
                         * locals:
6B28  00                 sizelocvars (0)
                         * upvalues:
6B29  00                 sizeupvalues (0)
                         ** end of function **

                         
6B2A                     ** function [14] definition (level 2)
                         ** start of function **
6B2A  00                 string size (0)
                         source name: (none)
6B2C  06                 line defined (838)
6B2D  D1                 last line defined (849)
6B2E  06                 nups (3)
6B2F  03                 numparams (0)
6B30  00                 is_vararg (0)
6B31  00                 maxstacksize (8)
                         * code:
6B33  2F                 sizecode (47)
6B34  13000000           [01] getupval   0   0      
6B38  22808000           [02] call       0   1   2  
6B3C  24004000           [03] self       0   0   256  ; 1267988059
6B40  9D400000           [04] getglobal  2   1        ; FRAME_FIGHTER_NODE
6B44  22808001           [05] call       0   3   2  
6B48  53008000           [06] getupval   1   1      
6B4C  9D400000           [07] getglobal  2   1        ; FRAME_FIGHTER_NODE
6B50  D7008000           [08] loadbool   3   1   0    ; true
6B54  12010000           [09] move       4   0      
6B58  62800002           [10] call       1   4   2  
fail op	35
6B5C  6380C000           [11] close      1  
6B60  1A800480           [12] jmp        19           ; to [32]
6B64  9DC00000           [13] getglobal  2   3        ; -421772368
6B68  CE00C100           [14] gettable   3   1   260  ; "text"
6B6C  0B410100           [15] newtable   4   0   5    ; array=0, hash=5
6B70  4E81C100           [16] gettable   5   1   262  ; "player"
6B74  0C418182           [17] settable   4   261 5    ; "PLAYER_NAME"
6B78  4E01C200           [18] gettable   5   1   264  ; "value"
6B7C  0C418183           [19] settable   4   263 5    ; "VALUE"
6B80  4E41C200           [20] gettable   5   1   265  ; "MIN"
6B84  0C418184           [21] settable   4   265 5    ; "MIN"
6B88  4E81C200           [22] gettable   5   1   266  ; "MAX"
6B8C  0C410185           [23] settable   4   266 5    ; "MAX"
6B90  4EC1C200           [24] gettable   5   1   267  ; "ITEM"
6B94  0C418185           [25] settable   4   267 5    ; "ITEM"
6B98  A2808001           [26] call       2   3   2  
6B9C  D3000001           [27] getupval   3   2      
6BA0  CE00C301           [28] gettable   3   3   268  ; 185724978
6BA4  12010001           [29] move       4   2      
6BA8  E2400001           [30] call       3   2   1  
6BAC  1A800380           [31] jmp        15           ; to [47]
6BB0  CBC00000           [32] newtable   3   0   3    ; array=0, hash=3
6BB4  1D810300           [33] getglobal  4   14       ; -1615931716
6BB8  5D410000           [34] getglobal  5   1        ; FRAME_FIGHTER_NODE
6BBC  22810001           [35] call       4   2   2  
6BC0  CC008186           [36] settable   3   269 4    ; "name"
6BC4  CC00C487           [37] settable   3   271 272  ; "quest" ""
6BC8  CC80C088           [38] settable   3   273 258  ; "difficulty" nil
6BCC  1D810400           [39] getglobal  4   18       ; cjson
6BD0  0EC14402           [40] gettable   4   4   275  ; -1916729509
6BD4  52018001           [41] move       5   3      
6BD8  22810001           [42] call       4   2   2  
6BDC  5D010500           [43] getglobal  5   20       ; gMatchingService
6BE0  6441C502           [44] self       5   5   277  ; 806752606
6BE4  D2010002           [45] move       7   4      
6BE8  62418001           [46] call       5   3   1  
6BEC  1E008000           [47] return     0   1      
                         * constants:
6BF0  16                 sizek (22)
6BF1  01                 const type 3
6BF2  5BF6934B           const [0]: (1267988059)
6BF6  04                 const type 4
6BF7  13                 string size (19)
6BF8  4652414D455F4649+  "FRAME_FI"
6C00  47485445525F4E4F+  "GHTER_NO"
6C08  444500             "DE\0"
                         const [1]: "FRAME_FIGHTER_NODE"
6C0B  00                 const type 0
                         const [2]: nil
6C0C  01                 const type 3
6C0D  B043DCE6           const [3]: (-421772368)
6C11  04                 const type 4
6C12  05                 string size (5)
6C13  7465787400         "text\0"
                         const [4]: "text"
6C18  04                 const type 4
6C19  0C                 string size (12)
6C1A  504C415945525F4E+  "PLAYER_N"
6C22  414D4500           "AME\0"
                         const [5]: "PLAYER_NAME"
6C26  04                 const type 4
6C27  07                 string size (7)
6C28  706C6179657200     "player\0"
                         const [6]: "player"
6C2F  04                 const type 4
6C30  06                 string size (6)
6C31  56414C554500       "VALUE\0"
                         const [7]: "VALUE"
6C37  04                 const type 4
6C38  06                 string size (6)
6C39  76616C756500       "value\0"
                         const [8]: "value"
6C3F  04                 const type 4
6C40  04                 string size (4)
6C41  4D494E00           "MIN\0"
                         const [9]: "MIN"
6C45  04                 const type 4
6C46  04                 string size (4)
6C47  4D415800           "MAX\0"
                         const [10]: "MAX"
6C4B  04                 const type 4
6C4C  05                 string size (5)
6C4D  4954454D00         "ITEM\0"
                         const [11]: "ITEM"
6C52  01                 const type 3
6C53  32F0110B           const [12]: (185724978)
6C57  04                 const type 4
6C58  05                 string size (5)
6C59  6E616D6500         "name\0"
                         const [13]: "name"
6C5E  01                 const type 3
6C5F  BCD6AE9F           const [14]: (-1615931716)
6C63  04                 const type 4
6C64  06                 string size (6)
6C65  717565737400       "quest\0"
                         const [15]: "quest"
6C6B  04                 const type 4
6C6C  01                 string size (0)
                         const [16]: ""
6C6E  04                 const type 4
6C6F  0B                 string size (11)
6C70  646966666963756C+  "difficul"
6C78  747900             "ty\0"
                         const [17]: "difficulty"
6C7B  04                 const type 4
6C7C  06                 string size (6)
6C7D  636A736F6E00       "cjson\0"
                         const [18]: "cjson"
6C83  01                 const type 3
6C84  5B07C18D           const [19]: (-1916729509)
6C88  04                 const type 4
6C89  11                 string size (17)
6C8A  674D61746368696E+  "gMatchin"
6C92  6753657276696365+  "gService"
6C9A  00                 "\0"
                         const [20]: "gMatchingService"
6C9B  01                 const type 3
6C9C  5E111630           const [21]: (806752606)
                         * functions:
6CA0  00                 sizep (0)
                         * lines:
6CA1  2F                 sizelineinfo (47)
                         [pc] (line)
6CA2  47                 [01] (71)
6CA3  03                 [02] (71)
6CA4  00                 [03] (71)
6CA5  00                 [04] (71)
6CA6  47                 [05] (71)
6CA7  03                 [06] (72)
6CA8  00                 [07] (72)
6CA9  00                 [08] (72)
6CAA  47                 [09] (72)
6CAB  03                 [10] (72)
6CAC  00                 [11] (73)
6CAD  00                 [12] (73)
6CAE  47                 [13] (74)
6CAF  03                 [14] (74)
6CB0  00                 [15] (74)
6CB1  00                 [16] (74)
6CB2  47                 [17] (74)
6CB3  03                 [18] (74)
6CB4  00                 [19] (74)
6CB5  00                 [20] (74)
6CB6  48                 [21] (74)
6CB7  03                 [22] (74)
6CB8  00                 [23] (74)
6CB9  00                 [24] (74)
6CBA  48                 [25] (74)
6CBB  03                 [26] (74)
6CBC  00                 [27] (75)
6CBD  00                 [28] (75)
6CBE  48                 [29] (75)
6CBF  03                 [30] (75)
6CC0  00                 [31] (75)
6CC1  00                 [32] (77)
6CC2  48                 [33] (77)
6CC3  03                 [34] (77)
6CC4  00                 [35] (77)
6CC5  00                 [36] (77)
6CC6  48                 [37] (77)
6CC7  03                 [38] (77)
6CC8  00                 [39] (78)
6CC9  00                 [40] (78)
6CCA  49                 [41] (78)
6CCB  03                 [42] (78)
6CCC  00                 [43] (79)
6CCD  00                 [44] (79)
6CCE  49                 [45] (79)
6CCF  03                 [46] (79)
6CD0  00                 [47] (81)
                         * locals:
6D5E  00                 sizelocvars (0)
                         * upvalues:
6D5F  00                 sizeupvalues (0)
                         ** end of function **

                         * lines:
6D60  7A                 sizelineinfo (122)
                         [pc] (line)
6D61  01                 [001] (1)
6D62  00                 [002] (1)
6D63  00                 [003] (1)
6D64  00                 [004] (1)
6D65  01                 [005] (1)
6D66  00                 [006] (3)
6D67  00                 [007] (3)
6D68  00                 [008] (3)
6D69  01                 [009] (4)
6D6A  00                 [010] (4)
6D6B  00                 [011] (4)
6D6C  00                 [012] (6)
6D6D  01                 [013] (6)
6D6E  00                 [014] (6)
6D6F  00                 [015] (6)
6D70  00                 [016] (7)
6D71  01                 [017] (7)
6D72  00                 [018] (7)
6D73  00                 [019] (7)
6D74  00                 [020] (8)
6D75  03                 [021] (8)
6D76  00                 [022] (8)
6D77  00                 [023] (8)
6D78  00                 [024] (10)
6D79  03                 [025] (10)
6D7A  00                 [026] (11)
6D7B  00                 [027] (11)
6D7C  00                 [028] (12)
6D7D  03                 [029] (12)
6D7E  00                 [030] (13)
6D7F  00                 [031] (13)
6D80  00                 [032] (14)
6D81  04                 [033] (14)
6D82  00                 [034] (15)
6D83  00                 [035] (15)
6D84  00                 [036] (17)
6D85  04                 [037] (17)
6D86  00                 [038] (17)
6D87  00                 [039] (18)
6D88  00                 [040] (18)
6D89  04                 [041] (18)
6D8A  00                 [042] (19)
6D8B  00                 [043] (19)
6D8C  00                 [044] (19)
6D8D  06                 [045] (20)
6D8E  00                 [046] (20)
6D8F  00                 [047] (20)
6D90  00                 [048] (21)
6D91  06                 [049] (21)
6D92  00                 [050] (21)
6D93  00                 [051] (22)
6D94  00                 [052] (22)
6D95  06                 [053] (22)
6D96  00                 [054] (23)
6D97  00                 [055] (23)
6D98  00                 [056] (23)
6D99  06                 [057] (24)
6D9A  00                 [058] (24)
6D9B  00                 [059] (24)
6D9C  00                 [060] (48)
6D9D  07                 [061] (57)
6D9E  00                 [062] (57)
6D9F  00                 [063] (114)
6DA0  00                 [064] (114)
6DA1  07                 [065] (114)
6DA2  00                 [066] (-75)
6DA3  00                 [067] (-75)
6DA4  00                 [068] (-75)
6DA5  07                 [069] (-75)
6DA6  00                 [070] (-75)
6DA7  00                 [071] (-71)
6DA8  00                 [072] (-71)
6DA9  07                 [073] (-71)
6DAA  00                 [074] (-73)
6DAB  00                 [075] (6)
6DAC  00                 [076] (6)
6DAD  08                 [077] (6)
6DAE  00                 [078] (11)
6DAF  00                 [079] (11)
6DB0  00                 [080] (11)
6DB1  08                 [081] (8)
6DB2  00                 [082] (26)
6DB3  00                 [083] (26)
6DB4  00                 [084] (26)
6DB5  08                 [085] (31)
6DB6  00                 [086] (31)
6DB7  00                 [087] (31)
6DB8  00                 [088] (28)
6DB9  08                 [089] (53)
6DBA  00                 [090] (53)
6DBB  00                 [091] (57)
6DBC  00                 [092] (57)
6DBD  0A                 [093] (57)
6DBE  00                 [094] (55)
6DBF  00                 [095] (50)
6DC0  00                 [096] (50)
6DC1  0A                 [097] (50)
6DC2  00                 [098] (50)
6DC3  00                 [099] (50)
6DC4  00                 [100] (50)
6DC5  0B                 [101] (50)
6DC6  00                 [102] (50)
6DC7  00                 [103] (50)
6DC8  00                 [104] (50)
6DC9  0B                 [105] (50)
6DCA  00                 [106] (54)
6DCB  00                 [107] (54)
6DCC  00                 [108] (54)
6DCD  0C                 [109] (52)
6DCE  00                 [110] (68)
6DCF  00                 [111] (68)
6DD0  00                 [112] (68)
6DD1  0C                 [113] (68)
6DD2  00                 [114] (68)
6DD3  00                 [115] (56)
6DD4  00                 [116] (81)
6DD5  0D                 [117] (81)
6DD6  00                 [118] (81)
6DD7  00                 [119] (81)
6DD8  00                 [120] (81)
6DD9  0D                 [121] (70)
6DDA  00                 [122] (81)
                         * locals:
6F49  00                 sizelocvars (0)
                         * upvalues:
6F4A  00                 sizeupvalues (0)
                         ** end of function **

6F4B                     ** end of chunk **
