1	C:\wlua_dump\path\Lotus\InterfaceRailJackSystems.lua
Pos   Hex Data           Description or Code
------------------------------------------------------------------------
0000                     ** source chunk: C:\wlua_dump\path\Lotus\InterfaceRailJackSystems.lua
                         ** global header start **
0000  7F                 header signature: ""
0001  00                 version (major:minor hex digits)
0002  00                 format (0=official)
0003  00                 endianness (1=little endian)
0004  00                 size of int (bytes)
0005  00                 size of size_t (bytes)
0006  02                 size of Instruction (bytes)
0007  58                 size of number (bytes)
0008  8B                 integral (1=integral)
4139
                         * number type: single
                         * x86 standard (32-bit, little endian, doubles)
                         ** global header end **
Lotus.Interface.UIStyleUtilities
Lotus.Interface.LotusUtilities
Lotus.Interface.UIUtilities
Lotus.Interface.StoreItemUtilities
EE.Interface.Utilities
Lotus.Interface.CardUtilitiesRedux
Unused
DamagedTotal
Total
Visible
UpgradeBtn
CloseBtn
Grid
Loc
/Lotus/Language/Railjack/Systems_Weaponry
Type
AbilityType
/Lotus/Language/Railjack/Systems_Battle
/Lotus/Upgrades/Mods/Railjack/RailjackBaseBattleMod
/Lotus/Language/Railjack/Systems_Tactical
/Lotus/Upgrades/Mods/Railjack/RailjackBaseTacticalMod
/Lotus/Upgrades/Mods/Railjack/RailjackTacticalAbilityMod
/Lotus/Language/Railjack/Systems_Systems
/Lotus/Upgrades/Mods/Railjack/RailjackBaseSystemsMod
/Lotus/Upgrades/Mods/Railjack/RailjackSystemsAbilityMod
WEAPONRY
BATTLE
TACTICAL
SYSTEMS
INSTALL
ENABLE
onViewportSizeChanged
Shutdown
UpgradeSlot
OnUpgradeSlot
Close
OnTacticalMapPressed
OnCameraPressed
OnUpdateSessionSettings
OnSaveLoadOutComplete
OnModStatusChanged
Initialize
Update
onKeyDown_MENU_CANCEL
onKeyUp_MENU_CANCEL
onKeyDown_MENU_MOUSE_Z
onKeyDown_MENU_RIGHT_CLICK
SupportsThemes
SlotFocused
SlotUnfocused
SlotSelected
SlotPressed
PickerSlotFocused
PickerSlotUnfocused
PickerSlotSelected
PickerSlotPressed
SetTrigger
mMovie
Blurer
Grid
mRowSeparation
pickerGridVisRangeMaterial
pickerGridVisRangeTextMaterial
Lotus_Game
VISIBILITY_SIZE
VISIBILITY_FADE_SIZE
_T
ChangeHubVisCounter
mMovie
GoBack

gGameRules
UpdateFade
MinimalHud
InfoPopup_Grid
InfoPopup_Data
Visible
_T
LoadoutSaveRequired
loadoutInProgress
Close
mMovie
TransitionOut

closeSound
mSelectedElement
info
Lotus_Game
mIndex
mSlotLevels
mSlot
mShipId
mItemId
mId
mLevel
OnUpgradeSlot
[HC] Upgraded successfully
info
mCrewShipLoadOut
mShip
[HC] Failed to upgrade
tacticalMovie
mMovie
_T
Railjack_ExternalCameraSpot
gRegion
gRegion
gGameRules
_T
ExternalCamsIndex
Railjack_ExternalCameraSpot
railJackCameraSpot
ZERO_VECTOR
ZERO_ROTATION
mMovie
SystemStage.Picker.Grid
Grid
mRowSeparation
pickerGridVisRangeMaterial
pickerGridVisRangeTextMaterial
Lotus_Game
VISIBILITY_CENTER
mMovie
SystemStage
_x
_heading
_y
_pitch
heading
pitch
bank
mMovie
SystemStage.Ship.Ship
_z
SystemStage.Ship.LineDetails
_color
FloatingContent
SystemStage.Ship.LineDetails.TopLeft
SystemStage.Ship.LineDetails.BottomLeft
SystemStage.Ship.LineDetails.TopRight
SystemStage.Ship.LineDetails.BottomRight
SystemStage.Ship.ShieldLayer1
SystemStage.Ship.ShieldLayer2
SystemStage.Ship.ShieldLayer3
SystemStage.Ship.ShieldLayer4
SystemStage.Ship.ShieldLayer5
SystemStage.Ship.ShieldBacker
Background1
SystemStage.Ship.Shield
Content
SystemStage.Ship.PowerDiamond
SystemStage.Ship.ShieldOuterLines
linesMaterial
SystemStage.Ship.LineDetails.FarTopLeft
SystemStage.Ship.LineDetails.FarBottomLeft
SystemStage.Ship.LineDetails.FarTopRight
SystemStage.Ship.LineDetails.FarBottomRight
BackerHighlight
SystemStage.Ship.Stars
FloatingContentHighlight
mMovie
Title
_color
FloatingContentHighlight
.Title.text
.Center
_x
.Title
textWidth
ExtenderLeft
_width
ExtenderRight
LeftEndCap
RightEndCap
Center
Content
.
.Damage
mMovie
FillEndCapLeft
_x
FillEndCapRight
FillExtender
_width
BorderEndCapLeft
_color
FloatingContent
BorderEndCapRight
BorderExtender
BgCapLeft
_alpha
BgCapRight
BgExtender
Background1
FloatingContentHighlight
Negative
mMovie
FillEndCapLeft
_color
FillEndCapRight
FillExtender
Mask
_width
_x
math
UISys
FlashInstance_SMOOTH_STEP
energySound
SystemStage.ModEndCapLeft
mMovie
undefined
table
SystemStage.ModEndCapRight
_color
Background4
EndCapShadow
_visible
mMovie
textWidth
BorderExtenderLeft
_width
BorderExtenderRight
mMovie
SystemStage.Dividers.WeaponryTitle
textColor
FloatingContent
SystemStage.Dividers.TacticalTitle
SystemStage.Dividers.BattleTitle
SystemStage.Dividers.SystemsTitle
SystemStage.DividerDiamonds
_color
SystemStage.Dividers.DividerLinesGhost
_z
SystemStage.Dividers.DividerLines
_alpha
SystemStage.Dividers.WeaponryTitle.text
/Lotus/Language/Railjack/Systems_Weaponry
SystemStage.Dividers.TacticalTitle.text
/Lotus/Language/Railjack/Systems_Tactical
SystemStage.Dividers.BattleTitle.text
/Lotus/Language/Railjack/Systems_Battle
SystemStage.Dividers.SystemsTitle.text
/Lotus/Language/Railjack/Systems_Systems
SystemStage.Dividers.DividerLines.TopLeftBorder
SystemStage.Dividers.DividerLines.TopRightBorder
SystemStage.Dividers.DividerLines.BottomLeftBorder
SystemStage.Dividers.DividerLines.BottomRightBorder
SystemStage.Dividers.DividerLines.TopRightBorder.DiagonalCorner
linesMaterial
SystemStage.Dividers.DividerLines.TopRightBorder.BorderExtenderRight
SystemStage.Dividers.DividerLines.TopRightBorder.BorderExtenderLeft
SystemStage.Dividers.DividerLines.TopRightBorder.BorderEndCap
SystemStage.Dividers.DividerLines.BottomRightBorder.DiagonalCorner
SystemStage.Dividers.DividerLines.BottomRightBorder.BorderExtenderRight
SystemStage.Dividers.DividerLines.BottomRightBorder.BorderExtenderLeft
SystemStage.Dividers.DividerLines.BottomRightBorder.BorderEndCap
SystemStage.Dividers.DividerLines.TopLeftBorder.DiagonalCorner
SystemStage.Dividers.DividerLines.TopLeftBorder.BorderExtenderRight
SystemStage.Dividers.DividerLines.TopLeftBorder.BorderExtenderLeft
SystemStage.Dividers.DividerLines.TopLeftBorder.BorderEndCap
SystemStage.Dividers.DividerLines.BottomLeftBorder.DiagonalCorner
SystemStage.Dividers.DividerLines.BottomLeftBorder.BorderExtenderRight
SystemStage.Dividers.DividerLines.BottomLeftBorder.BorderExtenderLeft
SystemStage.Dividers.DividerLines.BottomLeftBorder.BorderEndCap
SystemStage.Dividers.DividerLines.MiddleDividerLeft
SystemStage.Dividers.DividerLines.MiddleDividerRight
mSelectedElement
Visible
mSection
mMovie
Loc
SystemStage.Picker.Title.text
/Lotus/Language/Railjack/Systems_PickerTitle
TYPE
Grid
mTwoSlots
mClipName
SystemStage.Picker.Grid.DoubleWideSlot
mInitialX
mColumns
mColumnSeparation
SystemStage.Picker.Grid.Slot
mVisibleElements
mRows
info
mItemId
mId
AbilityType
Type
mUpgrade
mItemType
mInstalled
mMod
mModIndex
Filler
SystemStage.Picker
_visible
Visible
mMovie
SystemStage.Picker
_visible
mSelectedElement
mIndex
Id
mMovie
_root.
mClipName
UISys
FlashInstance_SMOOTH_STEP
_z
mMod
mStatus
mOn
mDamaged
mPowered
Content
FloatingContentHighlight
FloatingContent
Background1
ENABLE
Background4
INSTALL
Negative
Id
mSection
_G
UIColor_White
InnerGlowBig
_visible
InnerGlowSmall
DiamondBorderGlow
RadialGlow
DoubleWideFill
_color
ModBacker
EmptyMod
OuterBorder
TopDiamond
BottomDiamond
Drain
textColor
TopIcon
Icon
DiamondBorder
InnerBorder
CustomEntry
Name
mName
LocalizedDesc
mDesc
CanPreviewOverride
PreviewTagOverride
/Lotus/Language/Menu/Loadout_Remove
.Btn
_screenX
_screenY
mTwoSlots
_T
InfoPopup_Grid
InfoPopup_Data
.HoverBorders
FlashInstance_LINEAR
_alpha
.HoverBorders.Border
FlashInstance_EASE_OUT
Id
mMod
mStatus
mOn
mDamaged
mPowered
mMovie
mClipName
Icon
_visible
InnerBorder
_alpha
DisabledInnerBorder
ModBacker
DoubleWideFill
InnerBorderBlurred
TopDiamond
ENABLE
TopIcon
BottomDiamond
.EmptyMod.gotoAndStop
.OuterBorder.gotoAndStop
.HoverBorders.Border
.gotoAndStop
InnerGlowBig
InnerGlowSmall
HoverBorders
_color
FloatingContent
defaultModTexture

mIcon
<DT_ELECTRICITY>
mDrain


topIconTextures
_y
.TopIcon
Level
Lvl = 
.Drain.text
.Icon
Backer
Background1
Content
DividerDetailRight
Background4
DividerDetailLeft
ModBorderBlurred
_z
Visible
Grid
mClipName
mMovie
.HoverBorders
_xmouse
_ymouse
.HoverBorders.Border
_x
_y
_root
mMovie
UISys
FlashInstance_EASE_OUT
mMovie
_xscale
mInitialScale
_yscale
_x
_y
mMovie
UISys
FlashInstance_LINEAR
EE.Interface.Components.List
mMovie
SystemStage.SlotWeaponry1
SlotSelected
SlotFocused
SlotUnfocused
SlotPressed
mElementTransitionTime
mInitialDepth
CanPreviewElements
mInitialScale
mClipName
_xscale
mOnFocusedCallback
mOnUnfocusedCallback
mOnPressedCallback
mOnSelectedCallback
mElementDrawCallback
CalculateX
CalculateY
SetupPreInterpolationValues
GetInterpolationProperties
_G
UISound_Focus
INSTALL
mMod
mStatus
mOn
slotDeactivateFx
slotActivateFx
mActivationParticles
mMovie
mClipName
Lotus_Game
UIStyle_FloatingContentHighlight
alpha
mInstance
Id
deactivateSound
activateSound
BtnOffset
mMovie
mClipName
Btn
_x
mX
mY
_alpha
SystemStage.
mMovie
undefined
ERROR: Clip doens't exist: '
'
_x
_y
mOverrideClipName
mX
mY
mSlotId
mSection
mTwoSlots
BtnOffset
mStatus
mOn
mPowered
mDamaged
SlotWeaponry
WEAPONRY
SlotBattle
BATTLE
SlotTactical
TACTICAL
SlotSystems
SYSTEMS
mItemType
mItemId
mId

RailjackSystems:: Could not find card with id 
 in cards list
RailjackSystems:: Could not find card with type 
mDrain
mName
mMovie
 (
/Lotus/Language/Railjack/Pilot
)
mIcon
/Lotus/Language/Railjack/Turret
/Lotus/Language/Railjack/Ordinance
/Lotus/Language/Railjack/Countermeasures
/Lotus/Language/CrewShip/Wpn_MegaLaser
superWeaponIcon
ENGINES
engineIcon
SHIELDS
shieldIcon
Background1
Lotus_Game
UIStyle_Background1
Background4
UIStyle_Background4
Content
UIStyle_Content
FloatingContent
UIStyle_FloatingContent
FloatingContentHighlightObject
UIStyle_FloatingContentHighlight
FloatingContentHighlight
BackerHighlight
UIStyle_BackerHighlight
Negative
UIStyle_Negative
mMovie
linesMaterial
RipplesColor
red
green
blue
gRegion
cameraSpot
gRegion
math
FloatingContentHighlight
FloatingContent
Negative
mMovie
SystemStage.Ship.ShieldLayer
_alpha
_color
SystemStage.Ship.Shield
text
_T
LoadoutSaveRequired
OnUpdateSessionSettings
_T
loadoutInProgress
Lotus_Game
MAX_LoadOutType
LOT_NORMAL
OnSaveLoadOutComplete
Unused
DamagedTotal
Total
SystemStage.Bar.
SystemStage.Bar.Damage
mMovie
<DT_ELECTRICITY>
 
/Game/AVATAR_ABILITY
SystemStage.SystemsText
info
mItemId
mId
mCrewShipLoadOut
_T
LoadoutSaveRequired
Lotus_Game
mMod
mUpgrade
mItemId
mId

mType
mItemType
Id
mMod
mInstalled
mUpgrade
mUpgradeFingerprint
info
mSlotLevels
mInstance
mDesc

mUpgradeType
Game
AVATAR_ABILITY
mUpgradeValue
mDrain
mName
ENABLE
Lotus_Game
ARSENAL_STATE_PVE
Engine
Item_Suits
item
table
mUpgrade
mItemType
mItemId
mId

Multiple cards of type 
mItemType
mItemId
mId

mIsHidden
info
table
SystemStage.Picker
mMovie
.Bg
pickerBackerMaterial
Bg
_color
Background1
_alpha
TopBorder
FloatingContent
.TopBorder
linesMaterial
BottomBorder
.BottomBorder
Title
textColor
FloatingContentHighlight
Lotus.Interface.Components.ThemedButton
CloseBtn
.CloseBtn
/Menu/Confirm_Item_Cancel
Close
<MENU_CANCEL>
UpgradeBtn
.UpgradeBtn
/Lotus/Language/Menu/Global_ProductCategory_Upgrade
UpgradeSlot
<MENU_GENERIC1>
Grid.DoubleWideSlot
EE.Interface.Components.Grid
Grid
.Grid.Slot
PickerSlotSelected
PickerSlotFocused
PickerSlotUnfocused
PickerSlotPressed
mRowSeparation
mColumnSeparation
mExtraRowScroll
.ScrollBar
mOnFocusedCallback
mOnUnfocusedCallback
mOnSelectedCallback
mElementDrawCallback
SetupPreInterpolationValues
GetInterpolationProperties
_visible
_G
UISound_Focus
Filler
_G
UISound_ButtonSelect
mSelectedElement
mIndex
mMod
mMovie
mClipName
TopIcon
_visible
TopDiamond
Backer
OuterBorder
BottomDiamond
DoubleWideFill
DiamondBorder
Icon
DisabledInnerBorder
InnerBorder
EmptyMod
ModBacker
DividerDetailLeft
DividerDetailRight
InnerGlowSmall
InnerGlowBig
RadialGlow
table
HoverBorders.Border
.
pickerGridVisRangeMaterial
Drain
pickerGridVisRangeTextMaterial
Grid
_alpha
mStatus
mOn
mPowered
mDamaged
ENABLE
UI_MODE_IN_DOJO
item
INSTALL
Lotus.Interface.Components.ThemedButton
mMovie
SystemStage.TacticalBtn
/Lotus/Language/CrewShip/CommandConsole_Tactical
OnTacticalMapPressed
<MENU_GENERIC1>
SystemStage.CameraBtn
CAM
OnCameraPressed
SystemStage.Bar
OnModStatusChanged
SystemStage.ShieldsText
/Lotus/Language/CrewShip/CommandConsole_ShieldTitle
gFlashMgr
overlayBg
SetHideHud
false
SystemStage
UISys
FlashInstance_LINEAR
_alpha
Blurer
menuLoop
_T
gToolTip
gPlayerProfileMgr
NULL PLAYER PROFILE WHAT TO DO
NULL GAME DATA WHAT TO DO
Lotus.Interface.Libs.TimerMgr
mMovie
SystemStage
_x
_y
ChangeHubVisCounter
MinimalHud
gGameRules
UpdateFade

what is it? 
HideHud
_alpha
Blurer
openSound
Lotus.Interface.Components.ThemedSpinner
Spinner
/Lotus/Language/Menu/Badlands_InitializingButton
SetButtons
mCrewShipLoadOut
mShip
info
item
INSTALL
gCrewShipDamageControllerType
mMovie
gGameRules
item
mClipName
mActivationParticles
Visible
Grid
mScrollBar
_G
UISound_Scroll
ENABLE
Visible
mMod
mIndex
Visible
Visible
Visible
Visible
Visible
Grid
Visible
Grid
Visible
Grid
Visible
Grid
                         
0001                     ** function [0] definition (level 1)
                         ** start of function **
0001  00                 string size (0)
                         source name: (none)
0002  00                 line defined (0)
0003  00                 last line defined (0)
0004  00                 nups (0)
0005  00                 numparams (0)
0006  02                 is_vararg (2)
0007  58                 maxstacksize (88)
                         * code:
0009  04                 sizecode (523)
000A  1D000000           [001] getglobal  0   0        ; 849075268
000E  59400000           [002] loadk      1   1        ; "Lotus.Interface.UIStyleUtilities"
0012  22800001           [003] call       0   2   2  
0016  5D000000           [004] getglobal  1   0        ; 849075268
001A  99800000           [005] loadk      2   2        ; "Lotus.Interface.LotusUtilities"
001E  62800001           [006] call       1   2   2  
0022  9D000000           [007] getglobal  2   0        ; 849075268
0026  D9C00000           [008] loadk      3   3        ; "Lotus.Interface.UIUtilities"
002A  A2800001           [009] call       2   2   2  
002E  DD000000           [010] getglobal  3   0        ; 849075268
0032  19010100           [011] loadk      4   4        ; "Lotus.Interface.StoreItemUtilities"
0036  E2800001           [012] call       3   2   2  
003A  1D010000           [013] getglobal  4   0        ; 849075268
003E  59410100           [014] loadk      5   5        ; "EE.Interface.Utilities"
0042  22810001           [015] call       4   2   2  
0046  5D010000           [016] getglobal  5   0        ; 849075268
004A  99810100           [017] loadk      6   6        ; "Lotus.Interface.CardUtilitiesRedux"
004E  62810001           [018] call       5   2   2  
0052  86018003           [019] loadnil    6   7      
0056  0B020000           [020] newtable   8   0   0    ; array=0, hash=0
005A  4B020000           [021] newtable   9   0   0    ; array=0, hash=0
005E  8B020000           [022] newtable   10  0   0    ; array=0, hash=0
0062  C6028005           [023] loadnil    11  11     
0066  19C30100           [024] loadk      12  7        ; 0
006A  46038006           [025] loadnil    13  13     
006E  97030000           [026] loadbool   14  0   0    ; false
0072  C6030009           [027] loadnil    15  18     
0076  DD040200           [028] getglobal  19  8        ; 572299008
007A  19450200           [029] loadk      20  9        ; 0
007E  59850200           [030] loadk      21  10       ; 51
0082  99C50100           [031] loadk      22  7        ; 0
0086  E2840002           [032] call       19  4   2  
008A  1DC50200           [033] getglobal  20  11       ; 508519041
008E  22858000           [034] call       20  1   2  
0092  4BC50000           [035] newtable   21  0   3    ; array=0, hash=3
0096  4CC54186           [036] settable   21  268 263  ; "Unused" 0
009A  4CC5C186           [037] settable   21  269 263  ; "DamagedTotal" 0
009E  4CC54187           [038] settable   21  270 263  ; "Total" 0
00A2  9DC50300           [039] getglobal  22  15       ; 1892953090
00A6  D9C50100           [040] loadk      23  7        ; 0
00AA  19060400           [041] loadk      24  16       ; 0
00AE  A2858001           [042] call       22  3   2  
00B2  DDC50300           [043] getglobal  23  15       ; 1892953090
00B6  19C60100           [044] loadk      24  7        ; 0
00BA  59060400           [045] loadk      25  16       ; 0
00BE  E2858001           [046] call       23  3   2  
00C2  0606000D           [047] loadnil    24  26     
00C6  CB060000           [048] newtable   27  0   0    ; array=0, hash=0
00CA  0607000E           [049] loadnil    28  28     
00CE  4B070100           [050] newtable   29  0   4    ; array=0, hash=4
00D2  4C87C488           [051] settable   29  273 274  ; "Visible" 0
00D6  4C07C589           [052] settable   29  275 276  ; "UpgradeBtn" nil
00DA  4C07C58A           [053] settable   29  277 276  ; "CloseBtn" nil
00DE  4C07458B           [054] settable   29  278 276  ; "Grid" nil
00E2  8607000F           [055] loadnil    30  30     
00E6  D7070000           [056] loadbool   31  0   0    ; false
00EA  06080012           [057] loadnil    32  36     
00EE  57090000           [058] loadbool   37  0   0    ; false
00F2  97098000           [059] loadbool   38  1   0    ; true
00F6  C6098013           [060] loadnil    39  39     
00FA  19CA0500           [061] loadk      40  23       ; -51
00FE  4B0A8000           [062] newtable   41  1   0    ; array=1, hash=0
0102  8B0A8000           [063] newtable   42  1   0    ; array=1, hash=0
0106  DD0A0200           [064] getglobal  43  8        ; 572299008
010A  190B0600           [065] loadk      44  24       ; 0
010E  59CB0100           [066] loadk      45  7        ; 0
0112  994B0600           [067] loadk      46  25       ; 0
0116  E28A0002           [068] call       43  4   2  
011A  1DCB0200           [069] getglobal  44  11       ; 508519041
011E  220B8000           [070] call       44  1   0  
0122  9B4A0000           [071] setlist    42  0   1    ; index 1 to top
0126  5B4A8000           [072] setlist    41  1   1    ; index 1 to 1
012A  998A0600           [073] loadk      42  26       ; 0
012E  E50A0000           [074] closure    43  0      
0132  0B0B000B           [075] newtable   44  22  0    ; array=28, hash=0
0136  59CB0600           [076] loadk      45  27       ; 0
013A  990B0700           [077] loadk      46  28       ; 0
013E  D94B0700           [078] loadk      47  29       ; 0
0142  198C0700           [079] loadk      48  30       ; 0
0146  59CC0700           [080] loadk      49  31       ; 0
014A  990C0800           [081] loadk      50  32       ; 0
014E  D94C0800           [082] loadk      51  33       ; 0
0152  198D0800           [083] loadk      52  34       ; 0
0156  59CD0800           [084] loadk      53  35       ; 0
015A  990D0900           [085] loadk      54  36       ; 0
015E  D94D0900           [086] loadk      55  37       ; 0
0162  198E0900           [087] loadk      56  38       ; 0
0166  59CE0900           [088] loadk      57  39       ; 0
016A  990E0A00           [089] loadk      58  40       ; 0
016E  D94E0A00           [090] loadk      59  41       ; 0
0172  198F0A00           [091] loadk      60  42       ; 0
0176  59CF0A00           [092] loadk      61  43       ; 0
017A  990F0B00           [093] loadk      62  44       ; 0
017E  D94F0B00           [094] loadk      63  45       ; 0
0182  19900B00           [095] loadk      64  46       ; 0
0186  59D00B00           [096] loadk      65  47       ; 0
018A  99100C00           [097] loadk      66  48       ; 0
018E  D9500C00           [098] loadk      67  49       ; 0
0192  19910C00           [099] loadk      68  50       ; 0
0196  59D10C00           [100] loadk      69  51       ; 0
019A  99110D00           [101] loadk      70  52       ; 0
019E  D9510D00           [102] loadk      71  53       ; 0
01A2  19920D00           [103] loadk      72  54       ; 0
01A6  1B4B000E           [104] setlist    44  28  1    ; index 1 to 28
01AA  520B8015           [105] move       45  43     
01AE  920B0016           [106] move       46  44     
01B2  628B0001           [107] call       45  2   2  
01B6  99CB0700           [108] loadk      46  31       ; 0
01BA  D98B0700           [109] loadk      47  30       ; 0
01BE  0B0C0002           [110] newtable   48  4   0    ; array=4, hash=0
01C2  4BCC0000           [111] newtable   49  0   3    ; array=0, hash=3
01C6  4C0CCE9B           [112] settable   49  311 312  ; "Loc" "/Lotus/Language/Railjack/Systems_Weaponry"
01CA  9D8C0E00           [113] getglobal  50  58       ; 738251817
01CE  A28C8000           [114] call       50  1   2  
01D2  4C8C8C9C           [115] settable   49  313 50   ; "Type"
01D6  9D8C0E00           [116] getglobal  50  58       ; 738251817
01DA  A28C8000           [117] call       50  1   2  
01DE  4C8C8C9D           [118] settable   49  315 50   ; "AbilityType"
01E2  8BCC0000           [119] newtable   50  0   3    ; array=0, hash=3
01E6  8C0CCF9B           [120] settable   50  311 316  ; "Loc" "/Lotus/Language/Railjack/Systems_Battle"
01EA  DD8C0E00           [121] getglobal  51  58       ; 738251817
01EE  E28C8000           [122] call       51  1   2  
01F2  8CCC8C9C           [123] settable   50  313 51   ; "Type"
01F6  DD8C0E00           [124] getglobal  51  58       ; 738251817
01FA  194D0F00           [125] loadk      52  61       ; "/Lotus/Upgrades/Mods/Railjack/RailjackBaseBattleMod"
01FE  E28C0001           [126] call       51  2   2  
0202  8CCC8C9D           [127] settable   50  315 51   ; "AbilityType"
0206  CBCC0000           [128] newtable   51  0   3    ; array=0, hash=3
020A  CC8CCF9B           [129] settable   51  311 318  ; "Loc" "/Lotus/Language/Railjack/Systems_Tactical"
020E  1D8D0E00           [130] getglobal  52  58       ; 738251817
0212  59CD0F00           [131] loadk      53  63       ; "/Lotus/Upgrades/Mods/Railjack/RailjackBaseTacticalMod"
0216  228D0001           [132] call       52  2   2  
021A  CC0C8D9C           [133] settable   51  313 52   ; "Type"
021E  1D8D0E00           [134] getglobal  52  58       ; 738251817
0222  590D1000           [135] loadk      53  64       ; "/Lotus/Upgrades/Mods/Railjack/RailjackTacticalAbilityMod"
0226  228D0001           [136] call       52  2   2  
022A  CC0C8D9D           [137] settable   51  315 52   ; "AbilityType"
022E  0BCD0000           [138] newtable   52  0   3    ; array=0, hash=3
0232  0C4DD09B           [139] settable   52  311 321  ; "Loc" "/Lotus/Language/Railjack/Systems_Systems"
0236  5D8D0E00           [140] getglobal  53  58       ; 738251817
023A  998D1000           [141] loadk      54  66       ; "/Lotus/Upgrades/Mods/Railjack/RailjackBaseSystemsMod"
023E  628D0001           [142] call       53  2   2  
0242  0C4D8D9C           [143] settable   52  313 53   ; "Type"
0246  5D8D0E00           [144] getglobal  53  58       ; 738251817
024A  99CD1000           [145] loadk      54  67       ; "/Lotus/Upgrades/Mods/Railjack/RailjackSystemsAbilityMod"
024E  628D0001           [146] call       53  2   2  
0252  0C4D8D9D           [147] settable   52  315 53   ; "AbilityType"
0256  1B4C0002           [148] setlist    48  4   1    ; index 1 to 4
025A  4B0C0100           [149] newtable   49  0   4    ; array=0, hash=4
025E  4C0C48A2           [150] settable   49  324 288  ; "WEAPONRY" 0
0262  4C4CC8A2           [151] settable   49  325 289  ; "BATTLE" 0
0266  4C8C48A3           [152] settable   49  326 290  ; "TACTICAL" 0
026A  4CCCC9A3           [153] settable   49  327 295  ; "SYSTEMS" 0
026E  8B8C0000           [154] newtable   50  0   2    ; array=0, hash=2
0272  8C0C48A4           [155] settable   50  328 288  ; "INSTALL" 0
0276  8C4CC8A4           [156] settable   50  329 289  ; "ENABLE" 0
027A  C60C001D           [157] loadnil    51  58     
027E  E54E0000           [158] closure    59  1      
0282  12008000           [159] move       0   1      
0286  1200800E           [160] move       0   29     
028A  1200801C           [161] move       0   57     
028E  12000002           [162] move       0   4      
0292  258F0000           [163] closure    60  2      
0296  1200801D           [164] move       0   59     
029A  208F1200           [165] setglobal  60  74       ; onViewportSizeChanged
029E  20CF1200           [166] setglobal  60  75       ; 982516775
02A2  25CF0000           [167] closure    60  3      
02A6  1200800F           [168] move       0   31     
02AA  12008000           [169] move       0   1      
02AE  12000000           [170] move       0   0      
02B2  200F1300           [171] setglobal  60  76       ; Shutdown
02B6  204F1300           [172] setglobal  60  77       ; 1012367267
02BA  250F0100           [173] closure    60  4      
02BE  1200800E           [174] move       0   29     
02C2  1200001C           [175] move       0   56     
02C6  12000007           [176] move       0   14     
02CA  12008019           [177] move       0   51     
02CE  1200000F           [178] move       0   30     
02D2  12008007           [179] move       0   15     
02D6  12008010           [180] move       0   33     
02DA  12000008           [181] move       0   16     
02DE  12008008           [182] move       0   17     
02E2  12000009           [183] move       0   18     
02E6  12000014           [184] move       0   40     
02EA  12000002           [185] move       0   4      
02EE  654F0100           [186] closure    61  5      
02F2  1200000D           [187] move       0   26     
02F6  12008006           [188] move       0   13     
02FA  12000016           [189] move       0   44     
02FE  12000010           [190] move       0   32     
0302  608F1300           [191] setglobal  61  78       ; UpgradeSlot
0306  60CF1300           [192] setglobal  61  79       ; 1502747628
030A  658F0100           [193] closure    61  6      
030E  12000002           [194] move       0   4      
0312  12008006           [195] move       0   13     
0316  12000010           [196] move       0   32     
031A  600F1400           [197] setglobal  61  80       ; OnUpgradeSlot
031E  604F1400           [198] setglobal  61  81       ; 938678186
0322  65CF0100           [199] closure    61  7      
0326  1200001E           [200] move       0   60     
032A  608F1400           [201] setglobal  61  82       ; Close
032E  60CF1400           [202] setglobal  61  83       ; -1517569684
0332  650F0200           [203] closure    61  8      
0336  12008003           [204] move       0   7      
033A  600F1500           [205] setglobal  61  84       ; OnTacticalMapPressed
033E  604F1500           [206] setglobal  61  85       ; -537930428
0342  654F0200           [207] closure    61  9      
0346  12008000           [208] move       0   1      
034A  A58F0200           [209] closure    62  10     
034E  12008014           [210] move       0   41     
0352  1200801E           [211] move       0   61     
0356  12000009           [212] move       0   18     
035A  12008008           [213] move       0   17     
035E  12008000           [214] move       0   1      
0362  A08F1500           [215] setglobal  62  86       ; OnCameraPressed
0366  A0CF1500           [216] setglobal  62  87       ; -125869475
036A  65CE0200           [217] closure    57  11     
036E  12000002           [218] move       0   4      
0372  1200800E           [219] move       0   29     
0376  A50F0300           [220] closure    62  12     
037A  12000002           [221] move       0   4      
037E  1200000B           [222] move       0   22     
0382  1200800B           [223] move       0   23     
0386  1200000C           [224] move       0   24     
038A  1200800C           [225] move       0   25     
038E  12008008           [226] move       0   17     
0392  12000008           [227] move       0   16     
0396  1200000A           [228] move       0   20     
039A  12008009           [229] move       0   19     
039E  1200801C           [230] move       0   57     
03A2  E54F0300           [231] closure    63  13     
03A6  1200800D           [232] move       0   27     
03AA  25900300           [233] closure    64  14     
03AE  1200800D           [234] move       0   27     
03B2  65D00300           [235] closure    65  15     
03B6  1200800D           [236] move       0   27     
03BA  A5100400           [237] closure    66  16     
03BE  12000002           [238] move       0   4      
03C2  1200800D           [239] move       0   27     
03C6  E5500400           [240] closure    67  17     
03CA  1200800D           [241] move       0   27     
03CE  25910400           [242] closure    68  18     
03D2  65D10400           [243] closure    69  19     
03D6  1200800D           [244] move       0   27     
03DA  12000022           [245] move       0   68     
03DE  E50D0500           [246] closure    55  20     
03E2  1200000D           [247] move       0   26     
03E6  1200800E           [248] move       0   29     
03EA  12000018           [249] move       0   48     
03EE  12008006           [250] move       0   13     
03F2  12000002           [251] move       0   4      
03F6  12000004           [252] move       0   8      
03FA  254E0500           [253] closure    56  21     
03FE  1200800E           [254] move       0   29     
0402  1200000D           [255] move       0   26     
0406  A5910500           [256] closure    70  22     
040A  12000017           [257] move       0   46     
040E  12008017           [258] move       0   47     
0412  E5D10500           [259] closure    71  23     
0416  12000002           [260] move       0   4      
041A  1200800D           [261] move       0   27     
041E  1200000E           [262] move       0   28     
0422  12000019           [263] move       0   50     
0426  12000023           [264] move       0   70     
042A  12000001           [265] move       0   2      
042E  25120600           [266] closure    72  24     
0432  1200000E           [267] move       0   28     
0436  12000019           [268] move       0   50     
043A  12000002           [269] move       0   4      
043E  1200800D           [270] move       0   27     
0442  12008023           [271] move       0   71     
0446  65520600           [272] closure    73  25     
044A  1200800E           [273] move       0   29     
044E  1200000D           [274] move       0   26     
0452  A5920600           [275] closure    74  26     
0456  1200000D           [276] move       0   26     
045A  E5D20600           [277] closure    75  27     
045E  1200000D           [278] move       0   26     
0462  12000002           [279] move       0   4      
0466  12008023           [280] move       0   71     
046A  1200000E           [281] move       0   28     
046E  12000019           [282] move       0   50     
0472  12000023           [283] move       0   70     
0476  1200801B           [284] move       0   55     
047A  12000000           [285] move       0   0      
047E  12008013           [286] move       0   39     
0482  12000016           [287] move       0   44     
0486  12000025           [288] move       0   74     
048A  12000024           [289] move       0   72     
048E  25130700           [290] closure    76  28     
0492  12000016           [291] move       0   44     
0496  1200000D           [292] move       0   26     
049A  65530700           [293] closure    77  29     
049E  12008013           [294] move       0   39     
04A2  12000026           [295] move       0   76     
04A6  12008018           [296] move       0   49     
04AA  12008004           [297] move       0   9      
04AE  12000004           [298] move       0   8      
04B2  12000005           [299] move       0   10     
04B6  1200001A           [300] move       0   52     
04BA  12008016           [301] move       0   45     
04BE  12000017           [302] move       0   46     
04C2  12008017           [303] move       0   47     
04C6  1200001B           [304] move       0   54     
04CA  1200000D           [305] move       0   26     
04CE  A5930700           [306] closure    78  30     
04D2  1200800D           [307] move       0   27     
04D6  12000000           [308] move       0   0      
04DA  E5D30700           [309] closure    79  31     
04DE  12000008           [310] move       0   16     
04E2  12000003           [311] move       0   6      
04E6  12000014           [312] move       0   40     
04EA  25140800           [313] closure    80  32     
04EE  12000008           [314] move       0   16     
04F2  12000009           [315] move       0   18     
04F6  12008009           [316] move       0   19     
04FA  12008008           [317] move       0   17     
04FE  1200000A           [318] move       0   20     
0502  12000014           [319] move       0   40     
0506  65540800           [320] closure    81  33     
050A  1200800D           [321] move       0   27     
050E  12000002           [322] move       0   4      
0512  A5940800           [323] closure    82  34     
0516  A0141600           [324] setglobal  82  88       ; OnUpdateSessionSettings
051A  A0541600           [325] setglobal  82  89       ; -237945275
051E  A5D40800           [326] closure    82  35     
0522  12008000           [327] move       0   1      
0526  1200001E           [328] move       0   60     
052A  A0941600           [329] setglobal  82  90       ; OnSaveLoadOutComplete
052E  A0D41600           [330] setglobal  82  91       ; -554137788
0532  E50C0900           [331] closure    51  36     
0536  12000010           [332] move       0   32     
053A  A54D0900           [333] closure    54  37     
053E  12008013           [334] move       0   39     
0542  1200800A           [335] move       0   21     
0546  12000021           [336] move       0   66     
054A  12000015           [337] move       0   42     
054E  12000002           [338] move       0   4      
0552  12000020           [339] move       0   64     
0556  658D0900           [340] closure    53  38     
055A  1200000D           [341] move       0   26     
055E  12000016           [342] move       0   44     
0562  12000010           [343] move       0   32     
0566  12008006           [344] move       0   13     
056A  25CD0900           [345] closure    52  39     
056E  1200000D           [346] move       0   26     
0572  12008006           [347] move       0   13     
0576  12000016           [348] move       0   44     
057A  12008002           [349] move       0   5      
057E  1200801A           [350] move       0   53     
0582  12008013           [351] move       0   39     
0586  12000006           [352] move       0   12     
058A  12000010           [353] move       0   32     
058E  A5140A00           [354] closure    82  40     
0592  E5540A00           [355] closure    83  41     
0596  12000010           [356] move       0   32     
059A  12000004           [357] move       0   8      
059E  12008004           [358] move       0   9      
05A2  12000005           [359] move       0   10     
05A6  12008002           [360] move       0   5      
05AA  12008006           [361] move       0   13     
05AE  12000006           [362] move       0   12     
05B2  1200000E           [363] move       0   28     
05B6  12000019           [364] move       0   50     
05BA  12008013           [365] move       0   39     
05BE  12000029           [366] move       0   82     
05C2  25950A00           [367] closure    84  42     
05C6  1200800D           [368] move       0   27     
05CA  1200800E           [369] move       0   29     
05CE  12000002           [370] move       0   4      
05D2  12008023           [371] move       0   71     
05D6  1200000D           [372] move       0   26     
05DA  1200001A           [373] move       0   52     
05DE  1200001C           [374] move       0   56     
05E2  12000024           [375] move       0   72     
05E6  A5CE0A00           [376] closure    58  43     
05EA  12008013           [377] move       0   39     
05EE  1200000D           [378] move       0   26     
05F2  12000016           [379] move       0   44     
05F6  65150B00           [380] closure    85  44     
05FA  1200001D           [381] move       0   58     
05FE  60151700           [382] setglobal  85  92       ; OnModStatusChanged
0602  60551700           [383] setglobal  85  93       ; 888250891
0606  65550B00           [384] closure    85  45     
060A  12008027           [385] move       0   79     
060E  12008000           [386] move       0   1      
0612  12000019           [387] move       0   50     
0616  12008006           [388] move       0   13     
061A  12000008           [389] move       0   16     
061E  1200000E           [390] move       0   28     
0622  12008011           [391] move       0   35     
0626  12000012           [392] move       0   36     
062A  12008029           [393] move       0   83     
062E  1200801F           [394] move       0   63     
0632  12008022           [395] move       0   69     
0636  12008021           [396] move       0   67     
063A  1200002A           [397] move       0   84     
063E  12008020           [398] move       0   65     
0642  12000015           [399] move       0   42     
0646  12008025           [400] move       0   75     
064A  12008026           [401] move       0   77     
064E  12000028           [402] move       0   80     
0652  12008013           [403] move       0   39     
0656  12000020           [404] move       0   64     
065A  12008028           [405] move       0   81     
065E  12008007           [406] move       0   15     
0662  1200800F           [407] move       0   31     
0666  1200801D           [408] move       0   59     
066A  12008010           [409] move       0   33     
066E  12000002           [410] move       0   4      
0672  12008012           [411] move       0   37     
0676  A5950B00           [412] closure    86  46     
067A  12000010           [413] move       0   32     
067E  12000003           [414] move       0   6      
0682  1200000C           [415] move       0   24     
0686  1200800C           [416] move       0   25     
068A  1200800F           [417] move       0   31     
068E  12008000           [418] move       0   1      
0692  12000000           [419] move       0   0      
0696  12000027           [420] move       0   78     
069A  12000002           [421] move       0   4      
069E  12000011           [422] move       0   34     
06A2  12008006           [423] move       0   13     
06A6  12008013           [424] move       0   39     
06AA  12000007           [425] move       0   14     
06AE  1200802A           [426] move       0   85     
06B2  A0951700           [427] setglobal  86  94       ; Initialize
06B6  A0D51700           [428] setglobal  86  95       ; 1650753590
06BA  A5D50B00           [429] closure    86  47     
06BE  12008013           [430] move       0   39     
06C2  1200000E           [431] move       0   28     
06C6  12000019           [432] move       0   50     
06CA  12008005           [433] move       0   11     
06CE  12008028           [434] move       0   81     
06D2  12000002           [435] move       0   4      
06D6  E5150C00           [436] closure    87  48     
06DA  12000011           [437] move       0   34     
06DE  12008012           [438] move       0   37     
06E2  12008013           [439] move       0   39     
06E6  12008006           [440] move       0   13     
06EA  12000013           [441] move       0   38     
06EE  12000010           [442] move       0   32     
06F2  12000007           [443] move       0   14     
06F6  12000002           [444] move       0   4      
06FA  1200802A           [445] move       0   85     
06FE  12000003           [446] move       0   6      
0702  1200001F           [447] move       0   62     
0706  12008024           [448] move       0   73     
070A  1200002B           [449] move       0   86     
070E  1200001B           [450] move       0   54     
0712  1200000D           [451] move       0   26     
0716  E0151800           [452] setglobal  87  96       ; Update
071A  E0551800           [453] setglobal  87  97       ; -1938777623
071E  E5550C00           [454] closure    87  49     
0722  1200001E           [455] move       0   60     
0726  E0951800           [456] setglobal  87  98       ; onKeyDown_MENU_CANCEL
072A  E0D51800           [457] setglobal  87  99       ; 1529613096
072E  E5950C00           [458] closure    87  50     
0732  E0151900           [459] setglobal  87  100      ; onKeyUp_MENU_CANCEL
0736  E0551900           [460] setglobal  87  101      ; -665590474
073A  E5D50C00           [461] closure    87  51     
073E  12000007           [462] move       0   14     
0742  1200800E           [463] move       0   29     
0746  E0951900           [464] setglobal  87  102      ; onKeyDown_MENU_MOUSE_Z
074A  E0D51900           [465] setglobal  87  103      ; 1458230185
074E  E5150D00           [466] closure    87  52     
0752  12000007           [467] move       0   14     
0756  1200000E           [468] move       0   28     
075A  12000019           [469] move       0   50     
075E  1200800E           [470] move       0   29     
0762  1200000D           [471] move       0   26     
0766  12000023           [472] move       0   70     
076A  1200001A           [473] move       0   52     
076E  E0151A00           [474] setglobal  87  104      ; onKeyDown_MENU_RIGHT_CLICK
0772  E0551A00           [475] setglobal  87  105      ; 177409983
0776  E5550D00           [476] closure    87  53     
077A  E0951A00           [477] setglobal  87  106      ; SupportsThemes
077E  E0D51A00           [478] setglobal  87  107      ; -605602914
0782  E5950D00           [479] closure    87  54     
0786  1200800E           [480] move       0   29     
078A  1200000D           [481] move       0   26     
078E  E0151B00           [482] setglobal  87  108      ; SlotFocused
0792  E0551B00           [483] setglobal  87  109      ; -673803282
0796  E5D50D00           [484] closure    87  55     
079A  1200800E           [485] move       0   29     
079E  1200000D           [486] move       0   26     
07A2  E0951B00           [487] setglobal  87  110      ; SlotUnfocused
07A6  E0D51B00           [488] setglobal  87  111      ; 525740582
07AA  E5150E00           [489] closure    87  56     
07AE  1200800E           [490] move       0   29     
07B2  12000007           [491] move       0   14     
07B6  1200000D           [492] move       0   26     
07BA  E0151C00           [493] setglobal  87  112      ; SlotSelected
07BE  E0551C00           [494] setglobal  87  113      ; 1257604937
07C2  E5550E00           [495] closure    87  57     
07C6  1200800E           [496] move       0   29     
07CA  12000007           [497] move       0   14     
07CE  1200000D           [498] move       0   26     
07D2  E0951C00           [499] setglobal  87  114      ; SlotPressed
07D6  E0D51C00           [500] setglobal  87  115      ; -1165335996
07DA  E5950E00           [501] closure    87  58     
07DE  1200800E           [502] move       0   29     
07E2  E0151D00           [503] setglobal  87  116      ; PickerSlotFocused
07E6  E0551D00           [504] setglobal  87  117      ; 276690845
07EA  E5D50E00           [505] closure    87  59     
07EE  1200800E           [506] move       0   29     
07F2  E0951D00           [507] setglobal  87  118      ; PickerSlotUnfocused
07F6  E0D51D00           [508] setglobal  87  119      ; 2114927235
07FA  E5150F00           [509] closure    87  60     
07FE  1200800E           [510] move       0   29     
0802  12000007           [511] move       0   14     
0806  E0151E00           [512] setglobal  87  120      ; PickerSlotSelected
080A  E0551E00           [513] setglobal  87  121      ; 1568866993
080E  E5550F00           [514] closure    87  61     
0812  1200800E           [515] move       0   29     
0816  12000007           [516] move       0   14     
081A  E0951E00           [517] setglobal  87  122      ; PickerSlotPressed
081E  E0D51E00           [518] setglobal  87  123      ; 772935834
0822  E5950F00           [519] closure    87  62     
0826  1200000F           [520] move       0   30     
082A  E0151F00           [521] setglobal  87  124      ; SetTrigger
082E  E0551F00           [522] setglobal  87  125      ; 1066756660
0832  1E008000           [523] return     0   1      
                         * constants:
0836  7E                 sizek (126)
0837  01                 const type 3
0838  44DC9B32           const [0]: (849075268)
083C  04                 const type 4
083D  21                 string size (33)
083E  4C6F7475732E496E+  "Lotus.In"
0846  746572666163652E+  "terface."
084E  55495374796C6555+  "UIStyleU"
0856  74696C6974696573+  "tilities"
085E  00                 "\0"
                         const [1]: "Lotus.Interface.UIStyleUtilities"
085F  04                 const type 4
0860  1F                 string size (31)
0861  4C6F7475732E496E+  "Lotus.In"
0869  746572666163652E+  "terface."
0871  4C6F747573557469+  "LotusUti"
0879  6C697469657300     "lities\0"
                         const [2]: "Lotus.Interface.LotusUtilities"
0880  04                 const type 4
0881  1C                 string size (28)
0882  4C6F7475732E496E+  "Lotus.In"
088A  746572666163652E+  "terface."
0892  55495574696C6974+  "UIUtilit"
089A  69657300           "ies\0"
                         const [3]: "Lotus.Interface.UIUtilities"
089E  04                 const type 4
089F  23                 string size (35)
08A0  4C6F7475732E496E+  "Lotus.In"
08A8  746572666163652E+  "terface."
08B0  53746F7265497465+  "StoreIte"
08B8  6D5574696C697469+  "mUtiliti"
08C0  657300             "es\0"
                         const [4]: "Lotus.Interface.StoreItemUtilities"
08C3  04                 const type 4
08C4  17                 string size (23)
08C5  45452E496E746572+  "EE.Inter"
08CD  666163652E557469+  "face.Uti"
08D5  6C697469657300     "lities\0"
                         const [5]: "EE.Interface.Utilities"
08DC  04                 const type 4
08DD  23                 string size (35)
08DE  4C6F7475732E496E+  "Lotus.In"
08E6  746572666163652E+  "terface."
08EE  436172645574696C+  "CardUtil"
08F6  6974696573526564+  "itiesRed"
08FE  757800             "ux\0"
                         const [6]: "Lotus.Interface.CardUtilitiesRedux"
0901  03                 const type 3
0902  00000000           const [7]: (0)
0906  01                 const type 3
0907  00971C22           const [8]: (572299008)
090B  03                 const type 3
090C  0000003F           const [9]: (0)
0910  03                 const type 3
0911  3333D33F           const [10]: (51)
0915  01                 const type 3
0916  81624F1E           const [11]: (508519041)
091A  04                 const type 4
091B  07                 string size (7)
091C  556E7573656400     "Unused\0"
                         const [12]: "Unused"
0923  04                 const type 4
0924  0D                 string size (13)
0925  44616D6167656454+  "DamagedT"
092D  6F74616C00         "otal\0"
                         const [13]: "DamagedTotal"
0932  04                 const type 4
0933  06                 string size (6)
0934  546F74616C00       "Total\0"
                         const [14]: "Total"
093A  01                 const type 3
093B  022CD470           const [15]: (1892953090)
093F  03                 const type 3
0940  0000803E           const [16]: (0)
0944  04                 const type 4
0945  08                 string size (8)
0946  56697369626C6500   "Visible\0"
                         const [17]: "Visible"
094E  01                 const type 3
094F  00000000           const [18]: (0)
0953  04                 const type 4
0954  0B                 string size (11)
0955  5570677261646542+  "UpgradeB"
095D  746E00             "tn\0"
                         const [19]: "UpgradeBtn"
0960  00                 const type 0
                         const [20]: nil
0961  04                 const type 4
0962  09                 string size (9)
0963  436C6F736542746E+  "CloseBtn"
096B  00                 "\0"
                         const [21]: "CloseBtn"
096C  04                 const type 4
096D  05                 string size (5)
096E  4772696400         "Grid\0"
                         const [22]: "Grid"
0973  03                 const type 3
0974  CDCC4C3E           const [23]: (-51)
0978  03                 const type 3
0979  0000C8C1           const [24]: (0)
097D  03                 const type 3
097E  0000F0C1           const [25]: (0)
0982  03                 const type 3
0983  00006643           const [26]: (0)
0987  03                 const type 3
0988  0000C041           const [27]: (0)
098C  03                 const type 3
098D  0000C841           const [28]: (0)
0991  03                 const type 3
0992  0000D041           const [29]: (0)
0996  03                 const type 3
0997  0000D841           const [30]: (0)
099B  03                 const type 3
099C  0000E041           const [31]: (0)
09A0  03                 const type 3
09A1  0000803F           const [32]: (0)
09A5  03                 const type 3
09A6  00000040           const [33]: (0)
09AA  03                 const type 3
09AB  00004040           const [34]: (0)
09AF  03                 const type 3
09B0  0000E040           const [35]: (0)
09B4  03                 const type 3
09B5  00000041           const [36]: (0)
09B9  03                 const type 3
09BA  00001041           const [37]: (0)
09BE  03                 const type 3
09BF  00002041           const [38]: (0)
09C3  03                 const type 3
09C4  00008040           const [39]: (0)
09C8  03                 const type 3
09C9  00003041           const [40]: (0)
09CD  03                 const type 3
09CE  00004041           const [41]: (0)
09D2  03                 const type 3
09D3  00005041           const [42]: (0)
09D7  03                 const type 3
09D8  00006041           const [43]: (0)
09DC  03                 const type 3
09DD  0000A040           const [44]: (0)
09E1  03                 const type 3
09E2  00007041           const [45]: (0)
09E6  03                 const type 3
09E7  00008041           const [46]: (0)
09EB  03                 const type 3
09EC  00008841           const [47]: (0)
09F0  03                 const type 3
09F1  00009041           const [48]: (0)
09F5  03                 const type 3
09F6  0000C040           const [49]: (0)
09FA  03                 const type 3
09FB  00009841           const [50]: (0)
09FF  03                 const type 3
0A00  0000A041           const [51]: (0)
0A04  03                 const type 3
0A05  0000A841           const [52]: (0)
0A09  03                 const type 3
0A0A  0000B841           const [53]: (0)
0A0E  03                 const type 3
0A0F  0000B041           const [54]: (0)
0A13  04                 const type 4
0A14  04                 string size (4)
0A15  4C6F6300           "Loc\0"
                         const [55]: "Loc"
0A19  04                 const type 4
0A1A  2A                 string size (42)
0A1B  2F4C6F7475732F4C+  "/Lotus/L"
0A23  616E67756167652F+  "anguage/"
0A2B  5261696C6A61636B+  "Railjack"
0A33  2F53797374656D73+  "/Systems"
0A3B  5F576561706F6E72+  "_Weaponr"
0A43  7900               "y\0"
                         const [56]: "/Lotus/Language/Railjack/Systems_Weaponry"
0A45  04                 const type 4
0A46  05                 string size (5)
0A47  5479706500         "Type\0"
                         const [57]: "Type"
0A4C  01                 const type 3
0A4D  29D4002C           const [58]: (738251817)
0A51  04                 const type 4
0A52  0C                 string size (12)
0A53  4162696C69747954+  "AbilityT"
0A5B  79706500           "ype\0"
                         const [59]: "AbilityType"
0A5F  04                 const type 4
0A60  28                 string size (40)
0A61  2F4C6F7475732F4C+  "/Lotus/L"
0A69  616E67756167652F+  "anguage/"
0A71  5261696C6A61636B+  "Railjack"
0A79  2F53797374656D73+  "/Systems"
0A81  5F426174746C6500   "_Battle\0"
                         const [60]: "/Lotus/Language/Railjack/Systems_Battle"
0A89  04                 const type 4
0A8A  34                 string size (52)
0A8B  2F4C6F7475732F55+  "/Lotus/U"
0A93  706772616465732F+  "pgrades/"
0A9B  4D6F64732F526169+  "Mods/Rai"
0AA3  6C6A61636B2F5261+  "ljack/Ra"
0AAB  696C6A61636B4261+  "iljackBa"
0AB3  7365426174746C65+  "seBattle"
0ABB  4D6F6400           "Mod\0"
                         const [61]: "/Lotus/Upgrades/Mods/Railjack/RailjackBaseBattleMod"
0ABF  04                 const type 4
0AC0  2A                 string size (42)
0AC1  2F4C6F7475732F4C+  "/Lotus/L"
0AC9  616E67756167652F+  "anguage/"
0AD1  5261696C6A61636B+  "Railjack"
0AD9  2F53797374656D73+  "/Systems"
0AE1  5F54616374696361+  "_Tactica"
0AE9  6C00               "l\0"
                         const [62]: "/Lotus/Language/Railjack/Systems_Tactical"
0AEB  04                 const type 4
0AEC  36                 string size (54)
0AED  2F4C6F7475732F55+  "/Lotus/U"
0AF5  706772616465732F+  "pgrades/"
0AFD  4D6F64732F526169+  "Mods/Rai"
0B05  6C6A61636B2F5261+  "ljack/Ra"
0B0D  696C6A61636B4261+  "iljackBa"
0B15  7365546163746963+  "seTactic"
0B1D  616C4D6F6400       "alMod\0"
                         const [63]: "/Lotus/Upgrades/Mods/Railjack/RailjackBaseTacticalMod"
0B23  04                 const type 4
0B24  39                 string size (57)
0B25  2F4C6F7475732F55+  "/Lotus/U"
0B2D  706772616465732F+  "pgrades/"
0B35  4D6F64732F526169+  "Mods/Rai"
0B3D  6C6A61636B2F5261+  "ljack/Ra"
0B45  696C6A61636B5461+  "iljackTa"
0B4D  63746963616C4162+  "cticalAb"
0B55  696C6974794D6F64+  "ilityMod"
0B5D  00                 "\0"
                         const [64]: "/Lotus/Upgrades/Mods/Railjack/RailjackTacticalAbilityMod"
0B5E  04                 const type 4
0B5F  29                 string size (41)
0B60  2F4C6F7475732F4C+  "/Lotus/L"
0B68  616E67756167652F+  "anguage/"
0B70  5261696C6A61636B+  "Railjack"
0B78  2F53797374656D73+  "/Systems"
0B80  5F53797374656D73+  "_Systems"
0B88  00                 "\0"
                         const [65]: "/Lotus/Language/Railjack/Systems_Systems"
0B89  04                 const type 4
0B8A  35                 string size (53)
0B8B  2F4C6F7475732F55+  "/Lotus/U"
0B93  706772616465732F+  "pgrades/"
0B9B  4D6F64732F526169+  "Mods/Rai"
0BA3  6C6A61636B2F5261+  "ljack/Ra"
0BAB  696C6A61636B4261+  "iljackBa"
0BB3  736553797374656D+  "seSystem"
0BBB  734D6F6400         "sMod\0"
                         const [66]: "/Lotus/Upgrades/Mods/Railjack/RailjackBaseSystemsMod"
0BC0  04                 const type 4
0BC1  38                 string size (56)
0BC2  2F4C6F7475732F55+  "/Lotus/U"
0BCA  706772616465732F+  "pgrades/"
0BD2  4D6F64732F526169+  "Mods/Rai"
0BDA  6C6A61636B2F5261+  "ljack/Ra"
0BE2  696C6A61636B5379+  "iljackSy"
0BEA  7374656D73416269+  "stemsAbi"
0BF2  6C6974794D6F6400   "lityMod\0"
                         const [67]: "/Lotus/Upgrades/Mods/Railjack/RailjackSystemsAbilityMod"
0BFA  04                 const type 4
0BFB  09                 string size (9)
0BFC  574541504F4E5259+  "WEAPONRY"
0C04  00                 "\0"
                         const [68]: "WEAPONRY"
0C05  04                 const type 4
0C06  07                 string size (7)
0C07  424154544C4500     "BATTLE\0"
                         const [69]: "BATTLE"
0C0E  04                 const type 4
0C0F  09                 string size (9)
0C10  544143544943414C+  "TACTICAL"
0C18  00                 "\0"
                         const [70]: "TACTICAL"
0C19  04                 const type 4
0C1A  08                 string size (8)
0C1B  53595354454D5300   "SYSTEMS\0"
                         const [71]: "SYSTEMS"
0C23  04                 const type 4
0C24  08                 string size (8)
0C25  494E5354414C4C00   "INSTALL\0"
                         const [72]: "INSTALL"
0C2D  04                 const type 4
0C2E  07                 string size (7)
0C2F  454E41424C4500     "ENABLE\0"
                         const [73]: "ENABLE"
0C36  04                 const type 4
0C37  16                 string size (22)
0C38  6F6E56696577706F+  "onViewpo"
0C40  727453697A654368+  "rtSizeCh"
0C48  616E67656400       "anged\0"
                         const [74]: "onViewportSizeChanged"
0C4E  01                 const type 3
0C4F  2704903A           const [75]: (982516775)
0C53  04                 const type 4
0C54  09                 string size (9)
0C55  53687574646F776E+  "Shutdown"
0C5D  00                 "\0"
                         const [76]: "Shutdown"
0C5E  01                 const type 3
0C5F  A37F573C           const [77]: (1012367267)
0C63  04                 const type 4
0C64  0C                 string size (12)
0C65  5570677261646553+  "UpgradeS"
0C6D  6C6F7400           "lot\0"
                         const [78]: "UpgradeSlot"
0C71  01                 const type 3
0C72  EC1B9259           const [79]: (1502747628)
0C76  04                 const type 4
0C77  0E                 string size (14)
0C78  4F6E557067726164+  "OnUpgrad"
0C80  65536C6F7400       "eSlot\0"
                         const [80]: "OnUpgradeSlot"
0C86  01                 const type 3
0C87  AA17F337           const [81]: (938678186)
0C8B  04                 const type 4
0C8C  06                 string size (6)
0C8D  436C6F736500       "Close\0"
                         const [82]: "Close"
0C93  01                 const type 3
0C94  6CB98BA5           const [83]: (-1517569684)
0C98  04                 const type 4
0C99  15                 string size (21)
0C9A  4F6E546163746963+  "OnTactic"
0CA2  616C4D6170507265+  "alMapPre"
0CAA  7373656400         "ssed\0"
                         const [84]: "OnTacticalMapPressed"
0CAF  01                 const type 3
0CB0  44D5EFDF           const [85]: (-537930428)
0CB4  04                 const type 4
0CB5  10                 string size (16)
0CB6  4F6E43616D657261+  "OnCamera"
0CBE  5072657373656400   "Pressed\0"
                         const [86]: "OnCameraPressed"
0CC6  01                 const type 3
0CC7  5D627FF8           const [87]: (-125869475)
0CCB  04                 const type 4
0CCC  18                 string size (24)
0CCD  4F6E557064617465+  "OnUpdate"
0CD5  53657373696F6E53+  "SessionS"
0CDD  657474696E677300   "ettings\0"
                         const [88]: "OnUpdateSessionSettings"
0CE5  01                 const type 3
0CE6  453ED1F1           const [89]: (-237945275)
0CEA  04                 const type 4
0CEB  16                 string size (22)
0CEC  4F6E536176654C6F+  "OnSaveLo"
0CF4  61644F7574436F6D+  "adOutCom"
0CFC  706C65746500       "plete\0"
                         const [90]: "OnSaveLoadOutComplete"
0D02  01                 const type 3
0D03  4487F8DE           const [91]: (-554137788)
0D07  04                 const type 4
0D08  13                 string size (19)
0D09  4F6E4D6F64537461+  "OnModSta"
0D11  7475734368616E67+  "tusChang"
0D19  656400             "ed\0"
                         const [92]: "OnModStatusChanged"
0D1C  01                 const type 3
0D1D  0BA2F134           const [93]: (888250891)
0D21  04                 const type 4
0D22  0B                 string size (11)
0D23  496E697469616C69+  "Initiali"
0D2B  7A6500             "ze\0"
                         const [94]: "Initialize"
0D2E  01                 const type 3
0D2F  36806462           const [95]: (1650753590)
0D33  04                 const type 4
0D34  07                 string size (7)
0D35  55706461746500     "Update\0"
                         const [96]: "Update"
0D3C  01                 const type 3
0D3D  E999708C           const [97]: (-1938777623)
0D41  04                 const type 4
0D42  16                 string size (22)
0D43  6F6E4B6579446F77+  "onKeyDow"
0D4B  6E5F4D454E555F43+  "n_MENU_C"
0D53  414E43454C00       "ANCEL\0"
                         const [98]: "onKeyDown_MENU_CANCEL"
0D59  01                 const type 3
0D5A  280B2C5B           const [99]: (1529613096)
0D5E  04                 const type 4
0D5F  14                 string size (20)
0D60  6F6E4B657955705F+  "onKeyUp_"
0D68  4D454E555F43414E+  "MENU_CAN"
0D70  43454C00           "CEL\0"
                         const [100]: "onKeyUp_MENU_CANCEL"
0D74  01                 const type 3
0D75  36E553D8           const [101]: (-665590474)
0D79  04                 const type 4
0D7A  17                 string size (23)
0D7B  6F6E4B6579446F77+  "onKeyDow"
0D83  6E5F4D454E555F4D+  "n_MENU_M"
0D8B  4F5553455F5A00     "OUSE_Z\0"
                         const [102]: "onKeyDown_MENU_MOUSE_Z"
0D92  01                 const type 3
0D93  A9D3EA56           const [103]: (1458230185)
0D97  04                 const type 4
0D98  1B                 string size (27)
0D99  6F6E4B6579446F77+  "onKeyDow"
0DA1  6E5F4D454E555F52+  "n_MENU_R"
0DA9  494748545F434C49+  "IGHT_CLI"
0DB1  434B00             "CK\0"
                         const [104]: "onKeyDown_MENU_RIGHT_CLICK"
0DB4  01                 const type 3
0DB5  BF0F930A           const [105]: (177409983)
0DB9  04                 const type 4
0DBA  0F                 string size (15)
0DBB  537570706F727473+  "Supports"
0DC3  5468656D657300     "Themes\0"
                         const [106]: "SupportsThemes"
0DCA  01                 const type 3
0DCB  9E3BE7DB           const [107]: (-605602914)
0DCF  04                 const type 4
0DD0  0C                 string size (12)
0DD1  536C6F74466F6375+  "SlotFocu"
0DD9  73656400           "sed\0"
                         const [108]: "SlotFocused"
0DDD  01                 const type 3
0DDE  EE93D6D7           const [109]: (-673803282)
0DE2  04                 const type 4
0DE3  0E                 string size (14)
0DE4  536C6F74556E666F+  "SlotUnfo"
0DEC  637573656400       "cused\0"
                         const [110]: "SlotUnfocused"
0DF2  01                 const type 3
0DF3  262A561F           const [111]: (525740582)
0DF7  04                 const type 4
0DF8  0D                 string size (13)
0DF9  536C6F7453656C65+  "SlotSele"
0E01  6374656400         "cted\0"
                         const [112]: "SlotSelected"
0E06  01                 const type 3
0E07  4987F54A           const [113]: (1257604937)
0E0B  04                 const type 4
0E0C  0C                 string size (12)
0E0D  536C6F7450726573+  "SlotPres"
0E15  73656400           "sed\0"
                         const [114]: "SlotPressed"
0E19  01                 const type 3
0E1A  44628ABA           const [115]: (-1165335996)
0E1E  04                 const type 4
0E1F  12                 string size (18)
0E20  5069636B6572536C+  "PickerSl"
0E28  6F74466F63757365+  "otFocuse"
0E30  6400               "d\0"
                         const [116]: "PickerSlotFocused"
0E32  01                 const type 3
0E33  9DF77D10           const [117]: (276690845)
0E37  04                 const type 4
0E38  14                 string size (20)
0E39  5069636B6572536C+  "PickerSl"
0E41  6F74556E666F6375+  "otUnfocu"
0E49  73656400           "sed\0"
                         const [118]: "PickerSlotUnfocused"
0E4D  01                 const type 3
0E4E  833A0F7E           const [119]: (2114927235)
0E52  04                 const type 4
0E53  13                 string size (19)
0E54  5069636B6572536C+  "PickerSl"
0E5C  6F7453656C656374+  "otSelect"
0E64  656400             "ed\0"
                         const [120]: "PickerSlotSelected"
0E67  01                 const type 3
0E68  B102835D           const [121]: (1568866993)
0E6C  04                 const type 4
0E6D  12                 string size (18)
0E6E  5069636B6572536C+  "PickerSl"
0E76  6F74507265737365+  "otPresse"
0E7E  6400               "d\0"
                         const [122]: "PickerSlotPressed"
0E80  01                 const type 3
0E81  9A10122E           const [123]: (772935834)
0E85  04                 const type 4
0E86  0B                 string size (11)
0E87  5365745472696767+  "SetTrigg"
0E8F  657200             "er\0"
                         const [124]: "SetTrigger"
0E92  01                 const type 3
0E93  346A953F           const [125]: (1066756660)
                         * functions:
0E97  3F                 sizep (63)
                         
0E98                     ** function [0] definition (level 2)
                         ** start of function **
0E98  00                 string size (0)
                         source name: (none)
0E99  4E                 line defined (78)
0E9A  54                 last line defined (84)
0E9B  00                 nups (0)
0E9C  01                 numparams (1)
0E9D  00                 is_vararg (0)
0E9E  08                 maxstacksize (8)
                         * code:
0E9F  0A                 sizecode (10)
0EA0  4B000000           [01] newtable   1   0   0    ; array=0, hash=0
0EA4  9D000000           [02] getglobal  2   0        ; 1672515847
0EA8  D2000000           [03] move       3   0      
0EAC  A2000101           [04] call       2   2   4  
0EB0  1A000080           [05] jmp        1            ; to [7]
0EB4  4C400103           [06] settable   1   6   5  
0EB8  96800000           [07] tforloop   2       2    ; to [9] if exit
0EBC  1A00FF7F           [08] jmp        -3           ; to [6]
0EC0  5E000001           [09] return     1   2      
0EC4  1E008000           [10] return     0   1      
                         * constants:
0EC8  01                 sizek (1)
0EC9  01                 const type 3
0ECA  0791B063           const [0]: (1672515847)
                         * functions:
0ECE  00                 sizep (0)
                         * lines:
0ECF  0A                 sizelineinfo (10)
                         [pc] (line)
0ED0  4F                 [01] (79)
0ED1  00                 [02] (80)
0ED2  00                 [03] (80)
0ED3  00                 [04] (80)
0ED4  50                 [05] (80)
0ED5  00                 [06] (81)
0ED6  00                 [07] (80)
0ED7  00                 [08] (81)
0ED8  50                 [09] (83)
0ED9  00                 [10] (84)
                         * locals:
0EF8  00                 sizelocvars (0)
                         * upvalues:
0EF9  00                 sizeupvalues (0)
                         ** end of function **

                         
0EFA                     ** function [1] definition (level 2)
                         ** start of function **
0EFA  00                 string size (0)
                         source name: (none)
0EFC  01                 line defined (128)
0EFD  8E                 last line defined (142)
0EFE  01                 nups (4)
0EFF  04                 numparams (2)
0F00  02                 is_vararg (0)
0F01  00                 maxstacksize (14)
                         * code:
0F03  2D                 sizecode (45)
0F04  93000000           [01] getupval   2   0      
0F08  8E004001           [02] gettable   2   2   256  ; -1152582673
0F0C  DD400000           [03] getglobal  3   1        ; mMovie
0F10  19810000           [04] loadk      4   2        ; "Blurer"
0F14  A2408001           [05] call       2   3   1  
0F18  93008000           [06] getupval   2   1      
0F1C  8EC04001           [07] gettable   2   2   259  ; "Grid"
fail op	35
0F20  63004101           [08] close      1  
0F24  1A800880           [09] jmp        35           ; to [45]
0F28  93000001           [10] getupval   2   2      
0F2C  A2408000           [11] call       2   1   1  
0F30  93008001           [12] getupval   2   3      
0F34  8E404101           [13] gettable   2   2   261  ; -1736116097
0F38  DD400000           [14] getglobal  3   1        ; mMovie
0F3C  13018000           [15] getupval   4   1      
0F40  0EC14002           [16] gettable   4   4   259  ; "Grid"
0F44  0E814102           [17] gettable   4   4   262  ; "mRowSeparation"
0F48  04C14102           [18] mul        4   4   263  ; -51
0F4C  A2808001           [19] call       2   3   2  
0F50  D3008001           [20] getupval   3   3      
0F54  CE00C201           [21] gettable   3   3   264  ; 1938000739
0F58  1D410000           [22] getglobal  4   1        ; mMovie
0F5C  59410200           [23] loadk      5   9        ; 0
0F60  E2808001           [24] call       3   3   2  
0F64  0B010001           [25] newtable   4   2   0    ; array=2, hash=0
0F68  5D810200           [26] getglobal  5   10       ; pickerGridVisRangeMaterial
0F6C  9DC10200           [27] getglobal  6   11       ; pickerGridVisRangeTextMaterial
0F70  1B410001           [28] setlist    4   2   1    ; index 1 to 2
0F74  5D010300           [29] getglobal  5   12       ; 248503575
0F78  92010002           [30] move       6   4      
0F7C  62010101           [31] call       5   2   4  
0F80  1A400280           [32] jmp        10           ; to [43]
0F84  A442C304           [33] self       10  9   269  ; -1795477990
0F88  1D830300           [34] getglobal  12  14       ; Lotus_Game
0F8C  0EC34306           [35] gettable   12  12  271  ; "VISIBILITY_SIZE"
0F90  52030001           [36] move       13  2      
0F94  A2420002           [37] call       10  4   1  
0F98  A442C304           [38] self       10  9   269  ; -1795477990
0F9C  1D830300           [39] getglobal  12  14       ; Lotus_Game
0FA0  0E034406           [40] gettable   12  12  272  ; "VISIBILITY_FADE_SIZE"
0FA4  52038001           [41] move       13  3      
0FA8  A2420002           [42] call       10  4   1  
0FAC  56810000           [43] tforloop   5       2    ; to [45] if exit
0FB0  1AC0FC7F           [44] jmp        -12          ; to [33]
0FB4  1E008000           [45] return     0   1      
                         * constants:
0FB8  11                 sizek (17)
0FB9  01                 const type 3
0FBA  EFFB4CBB           const [0]: (-1152582673)
0FBE  04                 const type 4
0FBF  07                 string size (7)
0FC0  6D4D6F76696500     "mMovie\0"
                         const [1]: "mMovie"
0FC7  04                 const type 4
0FC8  07                 string size (7)
0FC9  426C7572657200     "Blurer\0"
                         const [2]: "Blurer"
0FD0  04                 const type 4
0FD1  05                 string size (5)
0FD2  4772696400         "Grid\0"
                         const [3]: "Grid"
0FD7  00                 const type 0
                         const [4]: nil
0FD8  01                 const type 3
0FD9  7FF88498           const [5]: (-1736116097)
0FDD  04                 const type 4
0FDE  0F                 string size (15)
0FDF  6D526F7753657061+  "mRowSepa"
0FE7  726174696F6E00     "ration\0"
                         const [6]: "mRowSeparation"
0FEE  03                 const type 3
0FEF  CDCC4C40           const [7]: (-51)
0FF3  01                 const type 3
0FF4  638B8373           const [8]: (1938000739)
0FF8  03                 const type 3
0FF9  00007041           const [9]: (0)
0FFD  04                 const type 4
0FFE  1B                 string size (27)
0FFF  7069636B65724772+  "pickerGr"
1007  696456697352616E+  "idVisRan"
100F  67654D6174657269+  "geMateri"
1017  616C00             "al\0"
                         const [10]: "pickerGridVisRangeMaterial"
101A  04                 const type 4
101B  1F                 string size (31)
101C  7069636B65724772+  "pickerGr"
1024  696456697352616E+  "idVisRan"
102C  6765546578744D61+  "geTextMa"
1034  74657269616C00     "terial\0"
                         const [11]: "pickerGridVisRangeTextMaterial"
103B  01                 const type 3
103C  17DDCF0E           const [12]: (248503575)
1040  01                 const type 3
1041  1A2EFB94           const [13]: (-1795477990)
1045  04                 const type 4
1046  0B                 string size (11)
1047  4C6F7475735F4761+  "Lotus_Ga"
104F  6D6500             "me\0"
                         const [14]: "Lotus_Game"
1052  04                 const type 4
1053  10                 string size (16)
1054  5649534942494C49+  "VISIBILI"
105C  54595F53495A4500   "TY_SIZE\0"
                         const [15]: "VISIBILITY_SIZE"
1064  04                 const type 4
1065  15                 string size (21)
1066  5649534942494C49+  "VISIBILI"
106E  54595F464144455F+  "TY_FADE_"
1076  53495A4500         "SIZE\0"
                         const [16]: "VISIBILITY_FADE_SIZE"
                         * functions:
107B  00                 sizep (0)
                         * lines:
107C  2D                 sizelineinfo (45)
                         [pc] (line)
107D  81                 [01] (-127)
107E  00                 [02] (-127)
107F  00                 [03] (-127)
1080  00                 [04] (-127)
1081  81                 [05] (-127)
1082  00                 [06] (-125)
1083  00                 [07] (-125)
1084  00                 [08] (-125)
1085  81                 [09] (-125)
1086  00                 [10] (-124)
1087  00                 [11] (-124)
1088  00                 [12] (-122)
1089  81                 [13] (-122)
108A  00                 [14] (-122)
108B  00                 [15] (-122)
108C  00                 [16] (-122)
108D  81                 [17] (-122)
108E  00                 [18] (-122)
108F  00                 [19] (-122)
1090  00                 [20] (-121)
1091  83                 [21] (-121)
1092  00                 [22] (-121)
1093  00                 [23] (-121)
1094  00                 [24] (-121)
1095  83                 [25] (-120)
1096  00                 [26] (-120)
1097  00                 [27] (-120)
1098  00                 [28] (-120)
1099  83                 [29] (-119)
109A  00                 [30] (-119)
109B  00                 [31] (-119)
109C  00                 [32] (-119)
109D  83                 [33] (-118)
109E  00                 [34] (-118)
109F  00                 [35] (-118)
10A0  00                 [36] (-118)
10A1  84                 [37] (-118)
10A2  00                 [38] (-117)
10A3  00                 [39] (-117)
10A4  00                 [40] (-117)
10A5  84                 [41] (-117)
10A6  00                 [42] (-117)
10A7  00                 [43] (-119)
10A8  00                 [44] (-117)
10A9  86                 [45] (-114)
                         * locals:
1131  00                 sizelocvars (0)
                         * upvalues:
1132  00                 sizeupvalues (0)
                         ** end of function **

                         
1133                     ** function [2] definition (level 2)
                         ** start of function **
1133  00                 string size (0)
                         source name: (none)
1135  01                 line defined (144)
1136  92                 last line defined (146)
1137  01                 nups (1)
1138  01                 numparams (2)
1139  02                 is_vararg (0)
113A  00                 maxstacksize (5)
                         * code:
113C  05                 sizecode (5)
113D  93000000           [1] getupval   2   0      
1141  D2000000           [2] move       3   0      
1145  12018000           [3] move       4   1      
1149  A2408001           [4] call       2   3   1  
114D  1E008000           [5] return     0   1      
                         * constants:
1151  00                 sizek (0)
                         * functions:
1152  00                 sizep (0)
                         * lines:
1153  05                 sizelineinfo (5)
                         [pc] (line)
1154  91                 [1] (-111)
1155  00                 [2] (-111)
1156  00                 [3] (-111)
1157  00                 [4] (-111)
1158  91                 [5] (-110)
                         * locals:
1168  00                 sizelocvars (0)
                         * upvalues:
1169  00                 sizeupvalues (0)
                         ** end of function **

                         
116A                     ** function [3] definition (level 2)
                         ** start of function **
116A  00                 string size (0)
                         source name: (none)
116C  01                 line defined (148)
116D  AB                 last line defined (171)
116E  01                 nups (3)
116F  03                 numparams (0)
1170  00                 is_vararg (0)
1171  00                 maxstacksize (6)
                         * code:
1173  38                 sizecode (56)
1174  1D000000           [01] getglobal  0   0        ; 1074689893
1178  5D400000           [02] getglobal  1   1        ; _T
117C  4E80C000           [03] gettable   1   1   258  ; "ChangeHubVisCounter"
1180  22800001           [04] call       0   2   2  
1184  18400000           [05] test       0       1    ; to [7] if false
1188  1AC00080           [06] jmp        4            ; to [11]
118C  1D400000           [07] getglobal  0   1        ; _T
1190  0EC04000           [08] gettable   0   0   259  ; -1445955826
1194  59000100           [09] loadk      1   4        ; 0
1198  22400001           [10] call       0   2   1  
119C  1D400100           [11] getglobal  0   5        ; mMovie
11A0  24804100           [12] self       0   0   262  ; 1280467243
11A4  22800001           [13] call       0   2   2  
11A8  5D000000           [14] getglobal  1   0        ; 1074689893
11AC  92000000           [15] move       2   0      
11B0  62800001           [16] call       1   2   2  
11B4  58400000           [17] test       1       1    ; to [19] if false
11B8  1AC00080           [18] jmp        4            ; to [23]
11BC  64C04100           [19] self       1   0   263  ; 1167009705
11C0  D9000200           [20] loadk      3   8        ; "GoBack"
11C4  19410200           [21] loadk      4   9        ; ""
11C8  62400002           [22] call       1   4   1  
11CC  53000000           [23] getupval   1   0      
11D0  58000000           [24] test       1       0    ; to [26] if true
11D4  1A400680           [25] jmp        26           ; to [52]
11D8  5D800200           [26] getglobal  1   10       ; gGameRules
11DC  64C0C200           [27] self       1   1   267  ; -2029400442
11E0  62800001           [28] call       1   2   2  
11E4  9D000000           [29] getglobal  2   0        ; 1074689893
11E8  D2008000           [30] move       3   1      
11EC  A2800001           [31] call       2   2   2  
11F0  98400000           [32] test       2       1    ; to [34] if false
11F4  1A400380           [33] jmp        14           ; to [48]
11F8  93008000           [34] getupval   2   1      
11FC  8E004301           [35] gettable   2   2   268  ; -1262767739
1200  D7000000           [36] loadbool   3   0   0    ; false
1204  A2400001           [37] call       2   2   1  
1208  A4C0C100           [38] self       2   1   263  ; 1167009705
120C  19410300           [39] loadk      4   13       ; "UpdateFade"
1210  59410200           [40] loadk      5   9        ; ""
1214  A2400002           [41] call       2   4   1  
1218  9D400000           [42] getglobal  2   1        ; _T
121C  8CC04387           [43] settable   2   270 271  ; "MinimalHud" 1
1220  A4C0C100           [44] self       2   1   263  ; 1167009705
1224  19410300           [45] loadk      4   13       ; "UpdateFade"
1228  59410200           [46] loadk      5   9        ; ""
122C  A2400002           [47] call       2   4   1  
1230  93000001           [48] getupval   2   2      
1234  8E004401           [49] gettable   2   2   272  ; -304442849
1238  D7008000           [50] loadbool   3   1   0    ; true
123C  A2400001           [51] call       2   2   1  
1240  9D400000           [52] getglobal  2   1        ; _T
1244  8C80C488           [53] settable   2   273 274  ; "InfoPopup_Grid" nil
1248  9D400000           [54] getglobal  2   1        ; _T
124C  8C80C489           [55] settable   2   275 274  ; "InfoPopup_Data" nil
1250  1E008000           [56] return     0   1      
                         * constants:
1254  14                 sizek (20)
1255  01                 const type 3
1256  65770E40           const [0]: (1074689893)
125A  04                 const type 4
125B  03                 string size (3)
125C  5F5400             "_T\0"
                         const [1]: "_T"
125F  04                 const type 4
1260  14                 string size (20)
1261  4368616E67654875+  "ChangeHu"
1269  62566973436F756E+  "bVisCoun"
1271  74657200           "ter\0"
                         const [2]: "ChangeHubVisCounter"
1275  01                 const type 3
1276  0E77D0A9           const [3]: (-1445955826)
127A  03                 const type 3
127B  000080BF           const [4]: (0)
127F  04                 const type 4
1280  07                 string size (7)
1281  6D4D6F76696500     "mMovie\0"
                         const [5]: "mMovie"
1288  01                 const type 3
1289  2B61524C           const [6]: (1280467243)
128D  01                 const type 3
128E  A9278F45           const [7]: (1167009705)
1292  04                 const type 4
1293  07                 string size (7)
1294  476F4261636B00     "GoBack\0"
                         const [8]: "GoBack"
129B  04                 const type 4
129C  01                 string size (0)
                         const [9]: ""
129E  04                 const type 4
129F  0B                 string size (11)
12A0  6747616D6552756C+  "gGameRul"
12A8  657300             "es\0"
                         const [10]: "gGameRules"
12AB  01                 const type 3
12AC  86CE0987           const [11]: (-2029400442)
12B0  01                 const type 3
12B1  85B1BBB4           const [12]: (-1262767739)
12B5  04                 const type 4
12B6  0B                 string size (11)
12B7  5570646174654661+  "UpdateFa"
12BF  646500             "de\0"
                         const [13]: "UpdateFade"
12C2  04                 const type 4
12C3  0B                 string size (11)
12C4  4D696E696D616C48+  "MinimalH"
12CC  756400             "ud\0"
                         const [14]: "MinimalHud"
12CF  01                 const type 3
12D0  01000000           const [15]: (1)
12D4  01                 const type 3
12D5  1F92DAED           const [16]: (-304442849)
12D9  04                 const type 4
12DA  0F                 string size (15)
12DB  496E666F506F7075+  "InfoPopu"
12E3  705F4772696400     "p_Grid\0"
                         const [17]: "InfoPopup_Grid"
12EA  00                 const type 0
                         const [18]: nil
12EB  04                 const type 4
12EC  0F                 string size (15)
12ED  496E666F506F7075+  "InfoPopu"
12F5  705F4461746100     "p_Data\0"
                         const [19]: "InfoPopup_Data"
                         * functions:
12FC  00                 sizep (0)
                         * lines:
12FD  38                 sizelineinfo (56)
                         [pc] (line)
12FE  95                 [01] (-107)
12FF  00                 [02] (-107)
1300  00                 [03] (-107)
1301  00                 [04] (-107)
1302  95                 [05] (-107)
1303  00                 [06] (-107)
1304  00                 [07] (-106)
1305  00                 [08] (-106)
1306  95                 [09] (-106)
1307  00                 [10] (-106)
1308  00                 [11] (-103)
1309  00                 [12] (-103)
130A  95                 [13] (-103)
130B  00                 [14] (-102)
130C  00                 [15] (-102)
130D  00                 [16] (-102)
130E  95                 [17] (-102)
130F  00                 [18] (-102)
1310  00                 [19] (-101)
1311  00                 [20] (-101)
1312  95                 [21] (-101)
1313  00                 [22] (-101)
1314  00                 [23] (-98)
1315  00                 [24] (-98)
1316  96                 [25] (-98)
1317  00                 [26] (-97)
1318  00                 [27] (-97)
1319  00                 [28] (-97)
131A  96                 [29] (-96)
131B  00                 [30] (-96)
131C  00                 [31] (-96)
131D  00                 [32] (-96)
131E  96                 [33] (-96)
131F  00                 [34] (-95)
1320  00                 [35] (-95)
1321  00                 [36] (-95)
1322  96                 [37] (-95)
1323  00                 [38] (-94)
1324  00                 [39] (-94)
1325  00                 [40] (-94)
1326  99                 [41] (-94)
1327  00                 [42] (-93)
1328  00                 [43] (-93)
1329  00                 [44] (-92)
132A  99                 [45] (-92)
132B  00                 [46] (-92)
132C  00                 [47] (-92)
132D  00                 [48] (-90)
132E  99                 [49] (-90)
132F  00                 [50] (-90)
1330  00                 [51] (-90)
1331  00                 [52] (-87)
1332  9A                 [53] (-87)
1333  00                 [54] (-86)
1334  00                 [55] (-86)
1335  00                 [56] (-85)
                         * locals:
13DE  00                 sizelocvars (0)
                         * upvalues:
13DF  00                 sizeupvalues (0)
                         ** end of function **

                         
13E0                     ** function [4] definition (level 2)
                         ** start of function **
13E0  00                 string size (0)
                         source name: (none)
13E2  01                 line defined (173)
13E3  DE                 last line defined (222)
13E4  01                 nups (12)
13E5  0C                 numparams (0)
13E6  00                 is_vararg (0)
13E7  00                 maxstacksize (5)
                         * code:
13E9  6A                 sizecode (106)
13EA  13000000           [001] getupval   0   0      
13EE  0E004000           [002] gettable   0   0   256  ; "Visible"
13F2  18000000           [003] test       0       0    ; to [5] if true
13F6  1A800080           [004] jmp        3            ; to [8]
13FA  13008000           [005] getupval   0   1      
13FE  22408000           [006] call       0   1   1  
1402  1E008000           [007] return     0   1      
1406  1D400000           [008] getglobal  0   1        ; _T
140A  0E804000           [009] gettable   0   0   258  ; "LoadoutSaveRequired"
140E  18000000           [010] test       0       0    ; to [12] if true
1412  1A000280           [011] jmp        9            ; to [21]
1416  1D400000           [012] getglobal  0   1        ; _T
141A  0EC04000           [013] gettable   0   0   259  ; "loadoutInProgress"
fail op	35
141E  23004100           [014] close      0  
1422  1A000180           [015] jmp        5            ; to [21]
1426  17008000           [016] loadbool   0   1   0    ; true
fail op	8
142A  08000001           [017] setupval   0   2      
142E  13008001           [018] getupval   0   3      
1432  22408000           [019] call       0   1   1  
1436  1E008000           [020] return     0   1      
143A  1D400100           [021] getglobal  0   5        ; 1074689893
143E  53000002           [022] getupval   1   4      
1442  22800001           [023] call       0   2   2  
1446  18400000           [024] test       0       1    ; to [26] if false
144A  1A000180           [025] jmp        5            ; to [31]
144E  13000002           [026] getupval   0   4      
1452  24804100           [027] self       0   0   262  ; -1923578185
1456  99C00100           [028] loadk      2   7        ; "Close"
145A  22408001           [029] call       0   3   1  
145E  1A800080           [030] jmp        3            ; to [34]
1462  1D000200           [031] getglobal  0   8        ; mMovie
1466  24404200           [032] self       0   0   265  ; -1517569684
146A  22400001           [033] call       0   2   1  
146E  1D400100           [034] getglobal  0   5        ; 1074689893
1472  53008002           [035] getupval   1   5      
1476  22800001           [036] call       0   2   2  
147A  18400000           [037] test       0       1    ; to [39] if false
147E  1A000180           [038] jmp        5            ; to [44]
1482  13008002           [039] getupval   0   5      
1486  24804200           [040] self       0   0   266  ; 1167009705
148A  99C00200           [041] loadk      2   11       ; "TransitionOut"
148E  D9000300           [042] loadk      3   12       ; ""
1492  22400002           [043] call       0   4   1  
1496  1D400100           [044] getglobal  0   5        ; 1074689893
149A  53000003           [045] getupval   1   6      
149E  22800001           [046] call       0   2   2  
14A2  18400000           [047] test       0       1    ; to [49] if false
14A6  1AC00080           [048] jmp        4            ; to [53]
14AA  13000003           [049] getupval   0   6      
14AE  24404300           [050] self       0   0   269  ; 675444810
14B2  97008000           [051] loadbool   2   1   0    ; true
14B6  22408001           [052] call       0   3   1  
14BA  1D400100           [053] getglobal  0   5        ; 1074689893
14BE  53008003           [054] getupval   1   7      
14C2  22800001           [055] call       0   2   2  
14C6  18400000           [056] test       0       1    ; to [58] if false
14CA  1AC00080           [057] jmp        4            ; to [62]
14CE  13008003           [058] getupval   0   7      
14D2  24804300           [059] self       0   0   270  ; -458552994
14D6  97008000           [060] loadbool   2   1   0    ; true
14DA  22408001           [061] call       0   3   1  
14DE  1D400100           [062] getglobal  0   5        ; 1074689893
14E2  53000004           [063] getupval   1   8      
14E6  22800001           [064] call       0   2   2  
14EA  18400000           [065] test       0       1    ; to [67] if false
14EE  1A400780           [066] jmp        30           ; to [97]
14F2  13000004           [067] getupval   0   8      
14F6  24C04300           [068] self       0   0   271  ; -725453761
14FA  22400001           [069] call       0   2   1  
14FE  1D400100           [070] getglobal  0   5        ; 1074689893
1502  53008003           [071] getupval   1   7      
1506  22800001           [072] call       0   2   2  
150A  18400000           [073] test       0       1    ; to [75] if false
150E  1A400580           [074] jmp        22           ; to [97]
1512  13008003           [075] getupval   0   7      
1516  24004400           [076] self       0   0   272  ; 1525877273
151A  22800001           [077] call       0   2   2  
151E  5D400100           [078] getglobal  1   5        ; 1074689893
1522  92000000           [079] move       2   0      
1526  62800001           [080] call       1   2   2  
152A  58400000           [081] test       1       1    ; to [83] if false
152E  1A400380           [082] jmp        14           ; to [97]
1532  5D400100           [083] getglobal  1   5        ; 1074689893
1536  93008004           [084] getupval   2   9      
153A  62800001           [085] call       1   2   2  
153E  58400000           [086] test       1       1    ; to [88] if false
1542  1A000180           [087] jmp        5            ; to [93]
1546  64404400           [088] self       1   0   273  ; 1362416700
154A  D3008004           [089] getupval   3   9      
154E  13010005           [090] getupval   4   10     
1552  62400002           [091] call       1   4   1  
1556  1AC00080           [092] jmp        4            ; to [97]
155A  64404400           [093] self       1   0   273  ; 1362416700
155E  C6008001           [094] loadnil    3   3      
1562  19810400           [095] loadk      4   18       ; 0
1566  62400002           [096] call       1   4   1  
156A  5D400100           [097] getglobal  1   5        ; 1074689893
156E  9DC00400           [098] getglobal  2   19       ; closeSound
1572  62800001           [099] call       1   2   2  
1576  58400000           [100] test       1       1    ; to [102] if false
157A  1AC00080           [101] jmp        4            ; to [106]
157E  53008005           [102] getupval   1   11     
1582  4E00C500           [103] gettable   1   1   276  ; 630793108
1586  9DC00400           [104] getglobal  2   19       ; closeSound
158A  62400001           [105] call       1   2   1  
158E  1E008000           [106] return     0   1      
                         * constants:
1592  15                 sizek (21)
1593  04                 const type 4
1594  08                 string size (8)
1595  56697369626C6500   "Visible\0"
                         const [0]: "Visible"
159D  04                 const type 4
159E  03                 string size (3)
159F  5F5400             "_T\0"
                         const [1]: "_T"
15A2  04                 const type 4
15A3  14                 string size (20)
15A4  4C6F61646F757453+  "LoadoutS"
15AC  6176655265717569+  "aveRequi"
15B4  72656400           "red\0"
                         const [2]: "LoadoutSaveRequired"
15B8  04                 const type 4
15B9  12                 string size (18)
15BA  6C6F61646F757449+  "loadoutI"
15C2  6E50726F67726573+  "nProgres"
15CA  7300               "s\0"
                         const [3]: "loadoutInProgress"
15CC  00                 const type 0
                         const [4]: nil
15CD  01                 const type 3
15CE  65770E40           const [5]: (1074689893)
15D2  01                 const type 3
15D3  B786588D           const [6]: (-1923578185)
15D7  04                 const type 4
15D8  06                 string size (6)
15D9  436C6F736500       "Close\0"
                         const [7]: "Close"
15DF  04                 const type 4
15E0  07                 string size (7)
15E1  6D4D6F76696500     "mMovie\0"
                         const [8]: "mMovie"
15E8  01                 const type 3
15E9  6CB98BA5           const [9]: (-1517569684)
15ED  01                 const type 3
15EE  A9278F45           const [10]: (1167009705)
15F2  04                 const type 4
15F3  0E                 string size (14)
15F4  5472616E73697469+  "Transiti"
15FC  6F6E4F757400       "onOut\0"
                         const [11]: "TransitionOut"
1602  04                 const type 4
1603  01                 string size (0)
                         const [12]: ""
1605  01                 const type 3
1606  4A784228           const [13]: (675444810)
160A  01                 const type 3
160B  5E09ABE4           const [14]: (-458552994)
160F  01                 const type 3
1610  3F74C2D4           const [15]: (-725453761)
1614  01                 const type 3
1615  190AF35A           const [16]: (1525877273)
1619  01                 const type 3
161A  3CD43451           const [17]: (1362416700)
161E  03                 const type 3
161F  00000000           const [18]: (0)
1623  04                 const type 4
1624  0B                 string size (11)
1625  636C6F7365536F75+  "closeSou"
162D  6E6400             "nd\0"
                         const [19]: "closeSound"
1630  01                 const type 3
1631  94239925           const [20]: (630793108)
                         * functions:
1635  00                 sizep (0)
                         * lines:
1636  6A                 sizelineinfo (106)
                         [pc] (line)
1637  AE                 [001] (-82)
1638  00                 [002] (-82)
1639  00                 [003] (-82)
163A  00                 [004] (-82)
163B  AE                 [005] (-81)
163C  00                 [006] (-81)
163D  00                 [007] (-79)
163E  00                 [008] (-76)
163F  AE                 [009] (-76)
1640  00                 [010] (-76)
1641  00                 [011] (-76)
1642  00                 [012] (-76)
1643  AE                 [013] (-76)
1644  00                 [014] (-76)
1645  00                 [015] (-76)
1646  00                 [016] (-75)
1647  AF                 [017] (-75)
1648  00                 [018] (-74)
1649  00                 [019] (-74)
164A  00                 [020] (-72)
164B  AF                 [021] (-69)
164C  00                 [022] (-69)
164D  00                 [023] (-69)
164E  00                 [024] (-69)
164F  B1                 [025] (-69)
1650  00                 [026] (-68)
1651  00                 [027] (-68)
1652  00                 [028] (-68)
1653  B4                 [029] (-68)
1654  00                 [030] (-68)
1655  00                 [031] (-66)
1656  00                 [032] (-66)
1657  B4                 [033] (-66)
1658  00                 [034] (-63)
1659  00                 [035] (-63)
165A  00                 [036] (-63)
165B  B4                 [037] (-63)
165C  00                 [038] (-63)
165D  00                 [039] (-62)
165E  00                 [040] (-62)
165F  B4                 [041] (-62)
1660  00                 [042] (-62)
1661  00                 [043] (-62)
1662  00                 [044] (-60)
1663  B4                 [045] (-60)
1664  00                 [046] (-60)
1665  00                 [047] (-60)
1666  00                 [048] (-60)
1667  B4                 [049] (-59)
1668  00                 [050] (-59)
1669  00                 [051] (-59)
166A  00                 [052] (-59)
166B  B4                 [053] (-56)
166C  00                 [054] (-56)
166D  00                 [055] (-56)
166E  00                 [056] (-56)
166F  B4                 [057] (-56)
1670  00                 [058] (-55)
1671  00                 [059] (-55)
1672  00                 [060] (-55)
1673  B5                 [061] (-55)
1674  00                 [062] (-52)
1675  00                 [063] (-52)
1676  00                 [064] (-52)
1677  B5                 [065] (-52)
1678  00                 [066] (-52)
1679  00                 [067] (-51)
167A  00                 [068] (-51)
167B  B6                 [069] (-51)
167C  00                 [070] (-49)
167D  00                 [071] (-49)
167E  00                 [072] (-49)
167F  B6                 [073] (-49)
1680  00                 [074] (-49)
1681  00                 [075] (-48)
1682  00                 [076] (-48)
1683  B8                 [077] (-48)
1684  00                 [078] (-47)
1685  00                 [079] (-47)
1686  00                 [080] (-47)
1687  BB                 [081] (-47)
1688  00                 [082] (-47)
1689  00                 [083] (-46)
168A  00                 [084] (-46)
168B  BB                 [085] (-46)
168C  00                 [086] (-46)
168D  00                 [087] (-46)
168E  00                 [088] (-45)
168F  BB                 [089] (-45)
1690  00                 [090] (-45)
1691  00                 [091] (-45)
1692  00                 [092] (-45)
1693  BB                 [093] (-43)
1694  00                 [094] (-43)
1695  00                 [095] (-43)
1696  00                 [096] (-43)
1697  BB                 [097] (-37)
1698  00                 [098] (-37)
1699  00                 [099] (-37)
169A  00                 [100] (-37)
169B  BC                 [101] (-37)
169C  00                 [102] (-36)
169D  00                 [103] (-36)
169E  00                 [104] (-36)
169F  BC                 [105] (-36)
16A0  00                 [106] (-34)
                         * locals:
17DF  00                 sizelocvars (0)
                         * upvalues:
17E0  00                 sizeupvalues (0)
                         ** end of function **

                         
17E1                     ** function [5] definition (level 2)
                         ** start of function **
17E1  00                 string size (0)
                         source name: (none)
17E3  01                 line defined (224)
17E4  F4                 last line defined (244)
17E5  01                 nups (4)
17E6  04                 numparams (0)
17E7  00                 is_vararg (0)
17E8  00                 maxstacksize (9)
                         * code:
17EA  26                 sizecode (38)
17EB  13000000           [01] getupval   0   0      
17EF  0E004000           [02] gettable   0   0   256  ; "mSelectedElement"
fail op	35
17F3  23404000           [03] close      0  
17F7  1A000080           [04] jmp        1            ; to [6]
17FB  1E008000           [05] return     0   1      
17FF  13008000           [06] getupval   0   1      
1803  0E804000           [07] gettable   0   0   258  ; "info"
1807  5DC00000           [08] getglobal  1   3        ; Lotus_Game
180B  4E00C100           [09] gettable   1   1   260  ; 621743779
180F  62808000           [10] call       1   1   2  
1813  93000001           [11] getupval   2   2      
1817  D3000000           [12] getupval   3   0      
181B  CE00C001           [13] gettable   3   3   256  ; "mSelectedElement"
181F  CE40C101           [14] gettable   3   3   261  ; "mIndex"
1823  8EC00001           [15] gettable   2   2   3  
1827  CE804100           [16] gettable   3   0   262  ; "mSlotLevels"
182B  06010002           [17] loadnil    4   4      
182F  4A018001           [18] len        5   3      
fail op	33
1833  21400101           [19] tforloop   0       5    ; to [21] if exit
1837  1A400080           [20] jmp        2            ; to [23]
183B  0E818001           [21] gettable   4   3   2  
183F  1A000080           [22] jmp        1            ; to [24]
1843  19C10100           [23] loadk      4   7        ; 0
1847  4D414201           [24] sub        5   2   265  ; 0
184B  4C400184           [25] settable   1   264 5    ; "mSlot"
184F  4E81C200           [26] gettable   5   1   266  ; "mShipId"
1853  64C1C202           [27] self       5   5   267  ; -1582414606
1857  CE014300           [28] gettable   7   0   268  ; "mItemId"
185B  CE41C303           [29] gettable   7   7   269  ; "mId"
185F  62418001           [30] call       5   3   1  
1863  43414202           [31] add        5   4   265  ; 0
1867  4C400187           [32] settable   1   270 5    ; "mLevel"
186B  53018001           [33] getupval   5   3      
186F  64C1C302           [34] self       5   5   271  ; 930473061
1873  D2018000           [35] move       7   1      
1877  19020400           [36] loadk      8   16       ; "OnUpgradeSlot"
187B  62410002           [37] call       5   4   1  
187F  1E008000           [38] return     0   1      
                         * constants:
1883  11                 sizek (17)
1884  04                 const type 4
1885  11                 string size (17)
1886  6D53656C65637465+  "mSelecte"
188E  64456C656D656E74+  "dElement"
1896  00                 "\0"
                         const [0]: "mSelectedElement"
1897  00                 const type 0
                         const [1]: nil
1898  04                 const type 4
1899  05                 string size (5)
189A  696E666F00         "info\0"
                         const [2]: "info"
189F  04                 const type 4
18A0  0B                 string size (11)
18A1  4C6F7475735F4761+  "Lotus_Ga"
18A9  6D6500             "me\0"
                         const [3]: "Lotus_Game"
18AC  01                 const type 3
18AD  A30E0F25           const [4]: (621743779)
18B1  04                 const type 4
18B2  07                 string size (7)
18B3  6D496E64657800     "mIndex\0"
                         const [5]: "mIndex"
18BA  04                 const type 4
18BB  0C                 string size (12)
18BC  6D536C6F744C6576+  "mSlotLev"
18C4  656C7300           "els\0"
                         const [6]: "mSlotLevels"
18C8  03                 const type 3
18C9  00000000           const [7]: (0)
18CD  04                 const type 4
18CE  06                 string size (6)
18CF  6D536C6F7400       "mSlot\0"
                         const [8]: "mSlot"
18D5  03                 const type 3
18D6  0000803F           const [9]: (0)
18DA  04                 const type 4
18DB  08                 string size (8)
18DC  6D53686970496400   "mShipId\0"
                         const [10]: "mShipId"
18E4  01                 const type 3
18E5  F244AEA1           const [11]: (-1582414606)
18E9  04                 const type 4
18EA  08                 string size (8)
18EB  6D4974656D496400   "mItemId\0"
                         const [12]: "mItemId"
18F3  04                 const type 4
18F4  04                 string size (4)
18F5  6D496400           "mId\0"
                         const [13]: "mId"
18F9  04                 const type 4
18FA  07                 string size (7)
18FB  6D4C6576656C00     "mLevel\0"
                         const [14]: "mLevel"
1902  01                 const type 3
1903  65E47537           const [15]: (930473061)
1907  04                 const type 4
1908  0E                 string size (14)
1909  4F6E557067726164+  "OnUpgrad"
1911  65536C6F7400       "eSlot\0"
                         const [16]: "OnUpgradeSlot"
                         * functions:
1917  00                 sizep (0)
                         * lines:
1918  26                 sizelineinfo (38)
                         [pc] (line)
1919  E1                 [01] (-31)
191A  00                 [02] (-31)
191B  00                 [03] (-31)
191C  00                 [04] (-31)
191D  E1                 [05] (-30)
191E  00                 [06] (-27)
191F  00                 [07] (-27)
1920  00                 [08] (-26)
1921  E1                 [09] (-26)
1922  00                 [10] (-26)
1923  00                 [11] (-25)
1924  00                 [12] (-25)
1925  E1                 [13] (-25)
1926  00                 [14] (-25)
1927  00                 [15] (-25)
1928  00                 [16] (-24)
1929  E2                 [17] (-23)
192A  00                 [18] (-22)
192B  00                 [19] (-22)
192C  00                 [20] (-22)
192D  E5                 [21] (-21)
192E  00                 [22] (-21)
192F  00                 [23] (-19)
1930  00                 [24] (-17)
1931  E5                 [25] (-17)
1932  00                 [26] (-16)
1933  00                 [27] (-16)
1934  00                 [28] (-16)
1935  E6                 [29] (-16)
1936  00                 [30] (-16)
1937  00                 [31] (-15)
1938  00                 [32] (-15)
1939  E6                 [33] (-13)
193A  00                 [34] (-13)
193B  00                 [35] (-13)
193C  00                 [36] (-13)
193D  E6                 [37] (-13)
193E  00                 [38] (-12)
                         * locals:
19B1  00                 sizelocvars (0)
                         * upvalues:
19B2  00                 sizeupvalues (0)
                         ** end of function **

                         
19B3                     ** function [6] definition (level 2)
                         ** start of function **
19B3  00                 string size (0)
                         source name: (none)
19B5  01                 line defined (246)
19B6  FF                 last line defined (255)
19B7  01                 nups (3)
19B8  03                 numparams (2)
19B9  02                 is_vararg (0)
19BA  00                 maxstacksize (5)
                         * code:
19BC  19                 sizecode (25)
19BD  9D000000           [01] getglobal  2   0        ; -1817107093
19C1  D2008000           [02] move       3   1      
19C5  A2400001           [03] call       2   2   1  
19C9  18000000           [04] test       0       0    ; to [6] if true
19CD  1AC00280           [05] jmp        12           ; to [18]
19D1  93000000           [06] getupval   2   0      
19D5  8E404001           [07] gettable   2   2   257  ; 185724978
19D9  D9800000           [08] loadk      3   2        ; "[HC] Upgraded successfully"
19DD  A2400001           [09] call       2   2   1  
19E1  93008000           [10] getupval   2   1      
19E5  D3000001           [11] getupval   3   2      
19E9  E400C101           [12] self       3   3   260  ; 51109503
19ED  E2800001           [13] call       3   2   2  
19F1  CE40C101           [14] gettable   3   3   261  ; "mCrewShipLoadOut"
19F5  CE80C101           [15] gettable   3   3   262  ; "mShip"
19F9  8CC08081           [16] settable   2   259 3    ; "info"
19FD  1A800180           [17] jmp        7            ; to [25]
1A01  93000000           [18] getupval   2   0      
1A05  8E404001           [19] gettable   2   2   257  ; 185724978
1A09  D9C00100           [20] loadk      3   7        ; "[HC] Failed to upgrade"
1A0D  A2400001           [21] call       2   2   1  
1A11  9D000000           [22] getglobal  2   0        ; -1817107093
1A15  D2008000           [23] move       3   1      
1A19  A2400001           [24] call       2   2   1  
1A1D  1E008000           [25] return     0   1      
                         * constants:
1A21  08                 sizek (8)
1A22  01                 const type 3
1A23  6B25B193           const [0]: (-1817107093)
1A27  01                 const type 3
1A28  32F0110B           const [1]: (185724978)
1A2C  04                 const type 4
1A2D  1B                 string size (27)
1A2E  5B48435D20557067+  "[HC] Upg"
1A36  7261646564207375+  "raded su"
1A3E  636365737366756C+  "ccessful"
1A46  6C7900             "ly\0"
                         const [2]: "[HC] Upgraded successfully"
1A49  04                 const type 4
1A4A  05                 string size (5)
1A4B  696E666F00         "info\0"
                         const [3]: "info"
1A50  01                 const type 3
1A51  7FDE0B03           const [4]: (51109503)
1A55  04                 const type 4
1A56  11                 string size (17)
1A57  6D43726577536869+  "mCrewShi"
1A5F  704C6F61644F7574+  "pLoadOut"
1A67  00                 "\0"
                         const [5]: "mCrewShipLoadOut"
1A68  04                 const type 4
1A69  06                 string size (6)
1A6A  6D5368697000       "mShip\0"
                         const [6]: "mShip"
1A70  04                 const type 4
1A71  17                 string size (23)
1A72  5B48435D20466169+  "[HC] Fai"
1A7A  6C656420746F2075+  "led to u"
1A82  70677261646500     "pgrade\0"
                         const [7]: "[HC] Failed to upgrade"
                         * functions:
1A89  00                 sizep (0)
                         * lines:
1A8A  19                 sizelineinfo (25)
                         [pc] (line)
1A8B  F7                 [01] (-9)
1A8C  00                 [02] (-9)
1A8D  00                 [03] (-9)
1A8E  00                 [04] (-8)
1A8F  F7                 [05] (-8)
1A90  00                 [06] (-7)
1A91  00                 [07] (-7)
1A92  00                 [08] (-7)
1A93  F7                 [09] (-7)
1A94  00                 [10] (-6)
1A95  00                 [11] (-6)
1A96  00                 [12] (-6)
1A97  F8                 [13] (-6)
1A98  00                 [14] (-6)
1A99  00                 [15] (-6)
1A9A  00                 [16] (-6)
1A9B  F8                 [17] (-6)
1A9C  00                 [18] (-4)
1A9D  00                 [19] (-4)
1A9E  00                 [20] (-4)
1A9F  F9                 [21] (-4)
1AA0  00                 [22] (-3)
1AA1  00                 [23] (-3)
1AA2  00                 [24] (-3)
1AA3  F9                 [25] (-1)
                         * locals:
1AEF  00                 sizelocvars (0)
                         * upvalues:
1AF0  00                 sizeupvalues (0)
                         ** end of function **

                         
1AF1                     ** function [7] definition (level 2)
                         ** start of function **
1AF1  00                 string size (0)
                         source name: (none)
1AF3  02                 line defined (257)
1AF4  83                 last line defined (259)
1AF5  02                 nups (1)
1AF6  01                 numparams (0)
1AF7  00                 is_vararg (0)
1AF8  00                 maxstacksize (2)
                         * code:
1AFA  03                 sizecode (3)
1AFB  13000000           [1] getupval   0   0      
1AFF  22408000           [2] call       0   1   1  
1B03  1E008000           [3] return     0   1      
                         * constants:
1B07  00                 sizek (0)
                         * functions:
1B08  00                 sizep (0)
                         * lines:
1B09  03                 sizelineinfo (3)
                         [pc] (line)
1B0A  02                 [1] (2)
1B0B  01                 [2] (2)
1B0C  00                 [3] (3)
                         * locals:
1B16  00                 sizelocvars (0)
                         * upvalues:
1B17  00                 sizeupvalues (0)
                         ** end of function **

                         
1B18                     ** function [8] definition (level 2)
                         ** start of function **
1B18  00                 string size (0)
                         source name: (none)
1B1A  02                 line defined (261)
1B1B  8B                 last line defined (267)
1B1C  02                 nups (1)
1B1D  01                 numparams (0)
1B1E  00                 is_vararg (0)
1B1F  00                 maxstacksize (3)
                         * code:
1B21  0C                 sizecode (12)
1B22  1D000000           [01] getglobal  0   0        ; 1074689893
1B26  5D400000           [02] getglobal  1   1        ; tacticalMovie
1B2A  22800001           [03] call       0   2   2  
1B2E  18000000           [04] test       0       0    ; to [6] if true
1B32  1A000080           [05] jmp        1            ; to [7]
1B36  1E008000           [06] return     0   1      
1B3A  1D800000           [07] getglobal  0   2        ; mMovie
1B3E  24C04000           [08] self       0   0   259  ; 1609725115
1B42  9D400000           [09] getglobal  2   1        ; tacticalMovie
1B46  22808001           [10] call       0   3   2  
fail op	8
1B4A  08000000           [11] setupval   0   0      
1B4E  1E008000           [12] return     0   1      
                         * constants:
1B52  04                 sizek (4)
1B53  01                 const type 3
1B54  65770E40           const [0]: (1074689893)
1B58  04                 const type 4
1B59  0E                 string size (14)
1B5A  746163746963616C+  "tactical"
1B62  4D6F76696500       "Movie\0"
                         const [1]: "tacticalMovie"
1B68  04                 const type 4
1B69  07                 string size (7)
1B6A  6D4D6F76696500     "mMovie\0"
                         const [2]: "mMovie"
1B71  01                 const type 3
1B72  BB74F25F           const [3]: (1609725115)
                         * functions:
1B76  00                 sizep (0)
                         * lines:
1B77  0C                 sizelineinfo (12)
                         [pc] (line)
1B78  06                 [01] (6)
1B79  01                 [02] (6)
1B7A  00                 [03] (6)
1B7B  00                 [04] (6)
1B7C  06                 [05] (6)
1B7D  01                 [06] (7)
1B7E  00                 [07] (10)
1B7F  00                 [08] (10)
1B80  06                 [09] (10)
1B81  01                 [10] (10)
1B82  00                 [11] (10)
1B83  00                 [12] (11)
                         * locals:
1BA8  00                 sizelocvars (0)
                         * upvalues:
1BA9  00                 sizeupvalues (0)
                         ** end of function **

                         
1BAA                     ** function [9] definition (level 2)
                         ** start of function **
1BAA  00                 string size (0)
                         source name: (none)
1BAC  02                 line defined (269)
1BAD  98                 last line defined (280)
1BAE  02                 nups (1)
1BAF  01                 numparams (0)
1BB0  00                 is_vararg (0)
1BB1  00                 maxstacksize (6)
                         * code:
1BB3  1E                 sizecode (30)
1BB4  1D000000           [01] getglobal  0   0        ; 1074689893
1BB8  5D400000           [02] getglobal  1   1        ; _T
1BBC  4E80C000           [03] gettable   1   1   258  ; "Railjack_ExternalCameraSpot"
1BC0  22800001           [04] call       0   2   2  
1BC4  18400000           [05] test       0       1    ; to [7] if false
1BC8  1A000580           [06] jmp        21           ; to [28]
1BCC  1DC00000           [07] getglobal  0   3        ; gRegion
1BD0  24004100           [08] self       0   0   260  ; 65205951
1BD4  22800001           [09] call       0   2   2  
1BD8  64404100           [10] self       1   0   261  ; 1525877273
1BDC  62800001           [11] call       1   2   2  
1BE0  A480C100           [12] self       2   1   262  ; 1362416700
1BE4  06010002           [13] loadnil    4   4      
1BE8  59C10100           [14] loadk      5   7        ; 10
1BEC  A2400002           [15] call       2   4   1  
1BF0  9D400000           [16] getglobal  2   1        ; _T
1BF4  8E804001           [17] gettable   2   2   258  ; "Railjack_ExternalCameraSpot"
1BF8  A4004201           [18] self       2   2   264  ; -725453761
1BFC  A2400001           [19] call       2   2   1  
1C00  9D400000           [20] getglobal  2   1        ; _T
1C04  8C404281           [21] settable   2   258 265  ; "Railjack_ExternalCameraSpot" nil
1C08  93000000           [22] getupval   2   0      
1C0C  8E804201           [23] gettable   2   2   266  ; -1262767739
1C10  D7000000           [24] loadbool   3   0   0    ; false
1C14  A2400001           [25] call       2   2   1  
1C18  97008000           [26] loadbool   2   1   0    ; true
1C1C  9E000001           [27] return     2   2      
1C20  97000000           [28] loadbool   2   0   0    ; false
1C24  9E000001           [29] return     2   2      
1C28  1E008000           [30] return     0   1      
                         * constants:
1C2C  0B                 sizek (11)
1C2D  01                 const type 3
1C2E  65770E40           const [0]: (1074689893)
1C32  04                 const type 4
1C33  03                 string size (3)
1C34  5F5400             "_T\0"
                         const [1]: "_T"
1C37  04                 const type 4
1C38  1C                 string size (28)
1C39  5261696C6A61636B+  "Railjack"
1C41  5F45787465726E61+  "_Externa"
1C49  6C43616D65726153+  "lCameraS"
1C51  706F7400           "pot\0"
                         const [2]: "Railjack_ExternalCameraSpot"
1C55  04                 const type 4
1C56  08                 string size (8)
1C57  67526567696F6E00   "gRegion\0"
                         const [3]: "gRegion"
1C5F  01                 const type 3
1C60  BFF6E203           const [4]: (65205951)
1C64  01                 const type 3
1C65  190AF35A           const [5]: (1525877273)
1C69  01                 const type 3
1C6A  3CD43451           const [6]: (1362416700)
1C6E  03                 const type 3
1C6F  0AD7233C           const [7]: (10)
1C73  01                 const type 3
1C74  3F74C2D4           const [8]: (-725453761)
1C78  00                 const type 0
                         const [9]: nil
1C79  01                 const type 3
1C7A  85B1BBB4           const [10]: (-1262767739)
                         * functions:
1C7E  00                 sizep (0)
                         * lines:
1C7F  1E                 sizelineinfo (30)
                         [pc] (line)
1C80  0E                 [01] (14)
1C81  01                 [02] (14)
1C82  00                 [03] (14)
1C83  00                 [04] (14)
1C84  0E                 [05] (14)
1C85  01                 [06] (14)
1C86  00                 [07] (15)
1C87  00                 [08] (15)
1C88  0E                 [09] (15)
1C89  01                 [10] (16)
1C8A  00                 [11] (16)
1C8B  00                 [12] (17)
1C8C  0E                 [13] (17)
1C8D  01                 [14] (17)
1C8E  00                 [15] (17)
1C8F  00                 [16] (18)
1C90  0E                 [17] (18)
1C91  01                 [18] (18)
1C92  00                 [19] (18)
1C93  00                 [20] (19)
1C94  0E                 [21] (19)
1C95  01                 [22] (20)
1C96  00                 [23] (20)
1C97  00                 [24] (20)
1C98  0F                 [25] (20)
1C99  01                 [26] (21)
1C9A  00                 [27] (21)
1C9B  00                 [28] (23)
1C9C  0F                 [29] (23)
1C9D  01                 [30] (24)
                         * locals:
1CF8  00                 sizelocvars (0)
                         * upvalues:
1CF9  00                 sizeupvalues (0)
                         ** end of function **

                         
1CFA                     ** function [10] definition (level 2)
                         ** start of function **
1CFA  00                 string size (0)
                         source name: (none)
1CFC  02                 line defined (282)
1CFD  CF                 last line defined (335)
1CFE  02                 nups (5)
1CFF  05                 numparams (0)
1D00  00                 is_vararg (0)
1D01  00                 maxstacksize (12)
                         * code:
1D04  01                 sizecode (133)
1D05  1D000000           [001] getglobal  0   0        ; gRegion
1D09  24404000           [002] self       0   0   257  ; 65205951
1D0D  22800001           [003] call       0   2   2  
1D11  46008000           [004] loadnil    1   1      
1D15  9D800000           [005] getglobal  2   2        ; gGameRules
1D19  A4C04001           [006] self       2   2   259  ; 285671363
1D1D  A2800001           [007] call       2   2   2  
1D21  C6008001           [008] loadnil    3   3      
1D25  1D010100           [009] getglobal  4   4        ; 1074689893
1D29  52010001           [010] move       5   2      
1D2D  22810001           [011] call       4   2   2  
1D31  18410000           [012] test       4       1    ; to [14] if false
1D35  1A800080           [013] jmp        3            ; to [17]
1D39  24414101           [014] self       4   2   261  ; 339600978
1D3D  22810001           [015] call       4   2   2  
1D41  D2000002           [016] move       3   4      
1D45  1D010100           [017] getglobal  4   4        ; 1074689893
1D49  52018001           [018] move       5   3      
1D4D  22810001           [019] call       4   2   2  
1D51  18410000           [020] test       4       1    ; to [22] if false
1D55  1A800080           [021] jmp        3            ; to [25]
1D59  2481C101           [022] self       4   3   262  ; -1538682285
1D5D  22810001           [023] call       4   2   2  
1D61  52000002           [024] move       1   4      
1D65  1D010100           [025] getglobal  4   4        ; 1074689893
1D69  52010000           [026] move       5   0      
1D6D  22810001           [027] call       4   2   2  
1D71  18410000           [028] test       4       1    ; to [30] if false
1D75  1A000180           [029] jmp        5            ; to [35]
1D79  1D010100           [030] getglobal  4   4        ; 1074689893
1D7D  52018000           [031] move       5   1      
1D81  22810001           [032] call       4   2   2  
1D85  18010000           [033] test       4       0    ; to [35] if true
1D89  1A400080           [034] jmp        2            ; to [37]
1D8D  17018000           [035] loadbool   4   1   0    ; true
1D91  1E010001           [036] return     4   2      
1D95  1DC10100           [037] getglobal  4   7        ; _T
1D99  0E014202           [038] gettable   4   4   264  ; "ExternalCamsIndex"
fail op	35
1D9D  63404202           [039] close      1  
1DA1  1A000080           [040] jmp        1            ; to [42]
1DA5  17410000           [041] loadbool   4   0   1    ; false, to [43]
1DA9  17018000           [042] loadbool   4   1   0    ; true
1DAD  5DC10100           [043] getglobal  5   7        ; _T
1DB1  4E01C202           [044] gettable   5   5   264  ; "ExternalCamsIndex"
1DB5  58410000           [045] test       5       1    ; to [47] if false
1DB9  1A800080           [046] jmp        3            ; to [50]
1DBD  5DC10100           [047] getglobal  5   7        ; _T
1DC1  4C814284           [048] settable   5   264 266  ; "ExternalCamsIndex" 0
1DC5  1AC00780           [049] jmp        32           ; to [82]
1DC9  5DC10100           [050] getglobal  5   7        ; _T
1DCD  4E01C202           [051] gettable   5   5   264  ; "ExternalCamsIndex"
1DD1  93010000           [052] getupval   6   0      
1DD5  8A010003           [053] len        6   6      
fail op	35
1DD9  23808102           [054] close      0  
1DDD  1A000380           [055] jmp        13           ; to [69]
1DE1  5DC10100           [056] getglobal  5   7        ; _T
1DE5  4C414284           [057] settable   5   264 265  ; "ExternalCamsIndex" nil
1DE9  5D010100           [058] getglobal  5   4        ; 1074689893
1DED  9DC10100           [059] getglobal  6   7        ; _T
1DF1  8EC14203           [060] gettable   6   6   267  ; "Railjack_ExternalCameraSpot"
1DF5  62810001           [061] call       5   2   2  
1DF9  58410000           [062] test       5       1    ; to [64] if false
1DFD  1A400080           [063] jmp        2            ; to [66]
1E01  53018000           [064] getupval   5   1      
1E05  62418000           [065] call       5   1   1  
1E09  57018000           [066] loadbool   5   1   0    ; true
1E0D  5E010001           [067] return     5   2      
1E11  1A000380           [068] jmp        13           ; to [82]
1E15  5DC10100           [069] getglobal  5   7        ; _T
1E19  9DC10100           [070] getglobal  6   7        ; _T
1E1D  8E014203           [071] gettable   6   6   264  ; "ExternalCamsIndex"
1E21  83814203           [072] add        6   6   266  ; 0
1E25  4C810184           [073] settable   5   264 6    ; "ExternalCamsIndex"
1E29  5DC10100           [074] getglobal  5   7        ; _T
1E2D  4E01C202           [075] gettable   5   5   264  ; "ExternalCamsIndex"
1E31  93010000           [076] getupval   6   0      
1E35  8A010003           [077] len        6   6      
fail op	21
1E39  15400103           [078] concat     0   6   5  
1E3D  1A400080           [079] jmp        2            ; to [82]
1E41  5DC10100           [080] getglobal  5   7        ; _T
1E45  4C814284           [081] settable   5   264 266  ; "ExternalCamsIndex" 0
1E49  5D010000           [082] getglobal  5   0        ; gRegion
1E4D  6401C302           [083] self       5   5   268  ; -1110225722
1E51  DD410300           [084] getglobal  7   13       ; railJackCameraSpot
1E55  1D820300           [085] getglobal  8   14       ; ZERO_VECTOR
1E59  5DC20300           [086] getglobal  9   15       ; ZERO_ROTATION
1E5D  62818002           [087] call       5   5   2  
1E61  A401C402           [088] self       6   5   272  ; 1146685999
1E65  12028000           [089] move       8   1      
1E69  5D420400           [090] getglobal  9   17       ; -332969190
1E6D  62028000           [091] call       9   1   0  
1E71  A2410000           [092] call       6   0   1  
1E75  A481C402           [093] self       6   5   274  ; -1484030041
1E79  13020000           [094] getupval   8   0      
1E7D  5DC20100           [095] getglobal  9   7        ; _T
1E81  4E02C204           [096] gettable   9   9   264  ; "ExternalCamsIndex"
1E85  0E420204           [097] gettable   8   8   9  
1E89  0E824204           [098] gettable   8   8   266  ; 0
1E8D  53020000           [099] getupval   9   0      
1E91  9DC20100           [100] getglobal  10  7        ; _T
1E95  8E024205           [101] gettable   10  10  264  ; "ExternalCamsIndex"
1E99  4E828204           [102] gettable   9   9   10 
1E9D  4EC2C404           [103] gettable   9   9   275  ; 0
1EA1  A2410002           [104] call       6   4   1  
fail op	8
1EA5  48010001           [105] setupval   5   2      
1EA9  9DC10100           [106] getglobal  6   7        ; _T
1EAD  8C418185           [107] settable   6   267 5    ; "Railjack_ExternalCameraSpot"
1EB1  9D010100           [108] getglobal  6   4        ; 1074689893
1EB5  D3018001           [109] getupval   7   3      
1EB9  A2810001           [110] call       6   2   2  
1EBD  98410000           [111] test       6       1    ; to [113] if false
1EC1  1A800080           [112] jmp        3            ; to [116]
1EC5  93018001           [113] getupval   6   3      
1EC9  A4014503           [114] self       6   6   276  ; -725453761
1ECD  A2410001           [115] call       6   2   1  
1ED1  9D010000           [116] getglobal  6   0        ; gRegion
1ED5  A4414003           [117] self       6   6   257  ; 65205951
1ED9  A2810001           [118] call       6   2   2  
1EDD  E4414503           [119] self       7   6   277  ; 1525877273
1EE1  E2810001           [120] call       7   2   2  
1EE5  2482C503           [121] self       8   7   278  ; 1362416700
1EE9  92028002           [122] move       10  5      
1EED  D9C20500           [123] loadk      11  23       ; 10
1EF1  22420002           [124] call       8   4   1  
1EF5  18010000           [125] test       4       0    ; to [127] if true
1EF9  1AC00080           [126] jmp        4            ; to [131]
1EFD  13020002           [127] getupval   8   4      
1F01  0E024604           [128] gettable   8   8   280  ; -1262767739
1F05  57028000           [129] loadbool   9   1   0    ; true
1F09  22420001           [130] call       8   2   1  
1F0D  17028000           [131] loadbool   8   1   0    ; true
1F11  1E020001           [132] return     8   2      
1F15  1E008000           [133] return     0   1      
                         * constants:
1F19  19                 sizek (25)
1F1A  04                 const type 4
1F1B  08                 string size (8)
1F1C  67526567696F6E00   "gRegion\0"
                         const [0]: "gRegion"
1F24  01                 const type 3
1F25  BFF6E203           const [1]: (65205951)
1F29  04                 const type 4
1F2A  0B                 string size (11)
1F2B  6747616D6552756C+  "gGameRul"
1F33  657300             "es\0"
                         const [2]: "gGameRules"
1F36  01                 const type 3
1F37  C3FF0611           const [3]: (285671363)
1F3B  01                 const type 3
1F3C  65770E40           const [4]: (1074689893)
1F40  01                 const type 3
1F41  52E63D14           const [5]: (339600978)
1F45  01                 const type 3
1F46  539249A4           const [6]: (-1538682285)
1F4A  04                 const type 4
1F4B  03                 string size (3)
1F4C  5F5400             "_T\0"
                         const [7]: "_T"
1F4F  04                 const type 4
1F50  12                 string size (18)
1F51  45787465726E616C+  "External"
1F59  43616D73496E6465+  "CamsInde"
1F61  7800               "x\0"
                         const [8]: "ExternalCamsIndex"
1F63  00                 const type 0
                         const [9]: nil
1F64  03                 const type 3
1F65  0000803F           const [10]: (0)
1F69  04                 const type 4
1F6A  1C                 string size (28)
1F6B  5261696C6A61636B+  "Railjack"
1F73  5F45787465726E61+  "_Externa"
1F7B  6C43616D65726153+  "lCameraS"
1F83  706F7400           "pot\0"
                         const [11]: "Railjack_ExternalCameraSpot"
1F87  01                 const type 3
1F88  C64CD3BD           const [12]: (-1110225722)
1F8C  04                 const type 4
1F8D  13                 string size (19)
1F8E  7261696C4A61636B+  "railJack"
1F96  43616D6572615370+  "CameraSp"
1F9E  6F7400             "ot\0"
                         const [13]: "railJackCameraSpot"
1FA1  04                 const type 4
1FA2  0C                 string size (12)
1FA3  5A45524F5F564543+  "ZERO_VEC"
1FAB  544F5200           "TOR\0"
                         const [14]: "ZERO_VECTOR"
1FAF  04                 const type 4
1FB0  0E                 string size (14)
1FB1  5A45524F5F524F54+  "ZERO_ROT"
1FB9  4154494F4E00       "ATION\0"
                         const [15]: "ZERO_ROTATION"
1FBF  01                 const type 3
1FC0  2F0A5944           const [16]: (1146685999)
1FC4  01                 const type 3
1FC5  1A4B27EC           const [17]: (-332969190)
1FC9  01                 const type 3
1FCA  A77F8BA7           const [18]: (-1484030041)
1FCE  03                 const type 3
1FCF  00000040           const [19]: (0)
1FD3  01                 const type 3
1FD4  3F74C2D4           const [20]: (-725453761)
1FD8  01                 const type 3
1FD9  190AF35A           const [21]: (1525877273)
1FDD  01                 const type 3
1FDE  3CD43451           const [22]: (1362416700)
1FE2  03                 const type 3
1FE3  0AD7233C           const [23]: (10)
1FE7  01                 const type 3
1FE8  85B1BBB4           const [24]: (-1262767739)
                         * functions:
1FEC  00                 sizep (0)
                         * lines:
1FEE  01                 sizelineinfo (133)
                         [pc] (line)
1FEF  1B                 [001] (27)
1FF0  01                 [002] (27)
1FF1  00                 [003] (27)
1FF2  00                 [004] (28)
1FF3  1B                 [005] (29)
1FF4  01                 [006] (29)
1FF5  00                 [007] (29)
1FF6  00                 [008] (30)
1FF7  1B                 [009] (31)
1FF8  01                 [010] (31)
1FF9  00                 [011] (31)
1FFA  00                 [012] (31)
1FFB  1C                 [013] (31)
1FFC  01                 [014] (32)
1FFD  00                 [015] (32)
1FFE  00                 [016] (32)
1FFF  1D                 [017] (34)
2000  01                 [018] (34)
2001  00                 [019] (34)
2002  00                 [020] (34)
2003  1D                 [021] (34)
2004  01                 [022] (35)
2005  00                 [023] (35)
2006  00                 [024] (35)
2007  1D                 [025] (38)
2008  01                 [026] (38)
2009  00                 [027] (38)
200A  00                 [028] (38)
200B  1E                 [029] (38)
200C  01                 [030] (38)
200D  00                 [031] (38)
200E  00                 [032] (38)
200F  1F                 [033] (38)
2010  01                 [034] (38)
2011  00                 [035] (39)
2012  00                 [036] (39)
2013  1F                 [037] (42)
2014  01                 [038] (42)
2015  00                 [039] (42)
2016  00                 [040] (42)
2017  1F                 [041] (42)
2018  01                 [042] (42)
2019  00                 [043] (43)
201A  00                 [044] (43)
201B  1F                 [045] (43)
201C  01                 [046] (43)
201D  00                 [047] (44)
201E  00                 [048] (44)
201F  1F                 [049] (44)
2020  01                 [050] (45)
2021  00                 [051] (45)
2022  00                 [052] (45)
2023  20                 [053] (45)
2024  01                 [054] (45)
2025  00                 [055] (45)
2026  00                 [056] (46)
2027  20                 [057] (46)
2028  01                 [058] (47)
2029  00                 [059] (47)
202A  00                 [060] (47)
202B  20                 [061] (47)
202C  01                 [062] (47)
202D  00                 [063] (47)
202E  00                 [064] (48)
202F  22                 [065] (48)
2030  01                 [066] (51)
2031  00                 [067] (51)
2032  00                 [068] (51)
2033  22                 [069] (53)
2034  01                 [070] (53)
2035  00                 [071] (53)
2036  00                 [072] (53)
2037  22                 [073] (53)
2038  01                 [074] (54)
2039  00                 [075] (54)
203A  00                 [076] (54)
203B  22                 [077] (54)
203C  01                 [078] (54)
203D  00                 [079] (54)
203E  00                 [080] (55)
203F  22                 [081] (55)
2040  01                 [082] (59)
2041  00                 [083] (59)
2042  00                 [084] (59)
2043  23                 [085] (59)
2044  01                 [086] (59)
2045  00                 [087] (59)
2046  00                 [088] (60)
2047  23                 [089] (60)
2048  01                 [090] (60)
2049  00                 [091] (60)
204A  00                 [092] (60)
204B  23                 [093] (61)
204C  01                 [094] (61)
204D  00                 [095] (61)
204E  00                 [096] (61)
204F  26                 [097] (61)
2050  01                 [098] (61)
2051  00                 [099] (61)
2052  00                 [100] (61)
2053  26                 [101] (61)
2054  01                 [102] (61)
2055  00                 [103] (61)
2056  00                 [104] (61)
2057  26                 [105] (62)
2058  01                 [106] (64)
2059  00                 [107] (64)
205A  00                 [108] (66)
205B  26                 [109] (66)
205C  01                 [110] (66)
205D  00                 [111] (66)
205E  00                 [112] (66)
205F  26                 [113] (67)
2060  01                 [114] (67)
2061  00                 [115] (67)
2062  00                 [116] (70)
2063  26                 [117] (70)
2064  01                 [118] (70)
2065  00                 [119] (71)
2066  00                 [120] (71)
2067  26                 [121] (72)
2068  01                 [122] (72)
2069  00                 [123] (72)
206A  00                 [124] (72)
206B  26                 [125] (73)
206C  01                 [126] (73)
206D  00                 [127] (74)
206E  00                 [128] (74)
206F  26                 [129] (74)
2070  01                 [130] (74)
2071  00                 [131] (78)
2072  00                 [132] (78)
2073  26                 [133] (79)
                         * locals:
2203  00                 sizelocvars (0)
                         * upvalues:
2204  00                 sizeupvalues (0)
                         ** end of function **

                         
2205                     ** function [11] definition (level 2)
                         ** start of function **
2205  00                 string size (0)
                         source name: (none)
2207  02                 line defined (337)
2208  DA                 last line defined (346)
2209  02                 nups (2)
220A  02                 numparams (0)
220B  00                 is_vararg (0)
220C  00                 maxstacksize (13)
                         * code:
220E  1F                 sizecode (31)
220F  13000000           [01] getupval   0   0      
2213  0E004000           [02] gettable   0   0   256  ; 110860349
2217  5D400000           [03] getglobal  1   1        ; mMovie
221B  99800000           [04] loadk      2   2        ; "SystemStage.Picker.Grid"
221F  22C08001           [05] call       0   3   3  
2223  93008000           [06] getupval   2   1      
2227  8EC04001           [07] gettable   2   2   259  ; "Grid"
222B  8E004101           [08] gettable   2   2   260  ; "mRowSeparation"
222F  84404101           [09] mul        2   2   261  ; 102
2233  43808000           [10] add        1   1   2  
2237  93000000           [11] getupval   2   0      
223B  8E804101           [12] gettable   2   2   262  ; 1704170870
223F  DD400000           [13] getglobal  3   1        ; mMovie
2243  12018000           [14] move       4   1      
2247  A2808001           [15] call       2   3   2  
224B  CB000001           [16] newtable   3   2   0    ; array=2, hash=0
224F  1DC10100           [17] getglobal  4   7        ; pickerGridVisRangeMaterial
2253  5D010200           [18] getglobal  5   8        ; pickerGridVisRangeTextMaterial
2257  DB400001           [19] setlist    3   2   1    ; index 1 to 2
225B  1D410200           [20] getglobal  4   9        ; 248503575
225F  52018001           [21] move       5   3      
2263  22010101           [22] call       4   2   4  
2267  1A000180           [23] jmp        5            ; to [29]
226B  64824204           [24] self       9   8   266  ; -1795477990
226F  DDC20200           [25] getglobal  11  11       ; Lotus_Game
2273  CE02C305           [26] gettable   11  11  268  ; "VISIBILITY_CENTER"
2277  12030001           [27] move       12  2      
227B  62420002           [28] call       9   4   1  
227F  16810000           [29] tforloop   4       2    ; to [31] if exit
2283  1A00FE7F           [30] jmp        -7           ; to [24]
2287  1E008000           [31] return     0   1      
                         * constants:
228B  0D                 sizek (13)
228C  01                 const type 3
228D  3D989B06           const [0]: (110860349)
2291  04                 const type 4
2292  07                 string size (7)
2293  6D4D6F76696500     "mMovie\0"
                         const [1]: "mMovie"
229A  04                 const type 4
229B  18                 string size (24)
229C  53797374656D5374+  "SystemSt"
22A4  6167652E5069636B+  "age.Pick"
22AC  65722E4772696400   "er.Grid\0"
                         const [2]: "SystemStage.Picker.Grid"
22B4  04                 const type 4
22B5  05                 string size (5)
22B6  4772696400         "Grid\0"
                         const [3]: "Grid"
22BB  04                 const type 4
22BC  0F                 string size (15)
22BD  6D526F7753657061+  "mRowSepa"
22C5  726174696F6E00     "ration\0"
                         const [4]: "mRowSeparation"
22CC  03                 const type 3
22CD  6666A63F           const [5]: (102)
22D1  01                 const type 3
22D2  76959365           const [6]: (1704170870)
22D6  04                 const type 4
22D7  1B                 string size (27)
22D8  7069636B65724772+  "pickerGr"
22E0  696456697352616E+  "idVisRan"
22E8  67654D6174657269+  "geMateri"
22F0  616C00             "al\0"
                         const [7]: "pickerGridVisRangeMaterial"
22F3  04                 const type 4
22F4  1F                 string size (31)
22F5  7069636B65724772+  "pickerGr"
22FD  696456697352616E+  "idVisRan"
2305  6765546578744D61+  "geTextMa"
230D  74657269616C00     "terial\0"
                         const [8]: "pickerGridVisRangeTextMaterial"
2314  01                 const type 3
2315  17DDCF0E           const [9]: (248503575)
2319  01                 const type 3
231A  1A2EFB94           const [10]: (-1795477990)
231E  04                 const type 4
231F  0B                 string size (11)
2320  4C6F7475735F4761+  "Lotus_Ga"
2328  6D6500             "me\0"
                         const [11]: "Lotus_Game"
232B  04                 const type 4
232C  12                 string size (18)
232D  5649534942494C49+  "VISIBILI"
2335  54595F43454E5445+  "TY_CENTE"
233D  5200               "R\0"
                         const [12]: "VISIBILITY_CENTER"
                         * functions:
233F  00                 sizep (0)
                         * lines:
2340  1F                 sizelineinfo (31)
                         [pc] (line)
2341  52                 [01] (82)
2342  01                 [02] (82)
2343  00                 [03] (82)
2344  00                 [04] (82)
2345  52                 [05] (82)
2346  01                 [06] (83)
2347  00                 [07] (83)
2348  00                 [08] (83)
2349  52                 [09] (83)
234A  01                 [10] (83)
234B  00                 [11] (85)
234C  00                 [12] (85)
234D  52                 [13] (85)
234E  01                 [14] (85)
234F  00                 [15] (85)
2350  00                 [16] (86)
2351  52                 [17] (86)
2352  01                 [18] (86)
2353  00                 [19] (86)
2354  00                 [20] (87)
2355  53                 [21] (87)
2356  01                 [22] (87)
2357  00                 [23] (87)
2358  00                 [24] (88)
2359  53                 [25] (88)
235A  01                 [26] (88)
235B  00                 [27] (88)
235C  00                 [28] (88)
235D  53                 [29] (87)
235E  01                 [30] (88)
235F  00                 [31] (90)
                         * locals:
23BD  00                 sizelocvars (0)
                         * upvalues:
23BE  00                 sizeupvalues (0)
                         ** end of function **

                         
23BF                     ** function [12] definition (level 2)
                         ** start of function **
23BF  00                 string size (0)
                         source name: (none)
23C1  02                 line defined (348)
23C2  FB                 last line defined (379)
23C3  02                 nups (10)
23C4  0A                 numparams (0)
23C5  00                 is_vararg (0)
23C6  00                 maxstacksize (12)
                         * code:
23C8  7D                 sizecode (125)
23C9  13000000           [001] getupval   0   0      
23CD  0E004000           [002] gettable   0   0   256  ; -363423447
23D1  5D400000           [003] getglobal  1   1        ; mMovie
23D5  22C00001           [004] call       0   2   3  
23D9  9D800000           [005] getglobal  2   2        ; 1668611480
23DD  DD400000           [006] getglobal  3   1        ; mMovie
23E1  E4C0C001           [007] self       3   3   259  ; -1159333591
23E5  E2800001           [008] call       3   2   2  
23E9  19010100           [009] loadk      4   4        ; 0
23ED  52010000           [010] move       5   0      
23F1  A2800002           [011] call       2   4   2  
23F5  DC404100           [012] div        3   0   261  ; 0
23F9  8DC00001           [013] sub        2   2   3  
23FD  DD800000           [014] getglobal  3   2        ; 1668611480
2401  1D410000           [015] getglobal  4   1        ; mMovie
2405  24814102           [016] self       4   4   262  ; 1791826823
2409  22810001           [017] call       4   2   2  
240D  59010100           [018] loadk      5   4        ; 0
2411  92018000           [019] move       6   1      
2415  E2800002           [020] call       3   4   2  
2419  1C41C100           [021] div        4   1   261  ; 0
241D  CD008101           [022] sub        3   3   4  
2421  13018000           [023] getupval   4   1      
2425  24C14102           [024] self       4   4   263  ; -991624272
2429  22810001           [025] call       4   2   2  
242D  53010001           [026] getupval   5   2      
2431  64C1C102           [027] self       5   5   263  ; -991624272
2435  62810001           [028] call       5   2   2  
2439  9D810000           [029] getglobal  6   2        ; 1668611480
243D  DC010001           [030] div        7   2   0  
2441  19020200           [031] loadk      8   8        ; 0
2445  59420200           [032] loadk      9   9        ; 0
2449  A2810002           [033] call       6   4   2  
fail op	0
244D  80000003           [034] move       2   6      
2451  9D810000           [035] getglobal  6   2        ; 1668611480
2455  DC418001           [036] div        7   3   1  
2459  19020200           [037] loadk      8   8        ; 0
245D  59420200           [038] loadk      9   9        ; 0
2461  A2810002           [039] call       6   4   2  
fail op	0
2465  C0000003           [040] move       3   6      
2469  93018000           [041] getupval   6   1      
246D  A4814203           [042] self       6   6   266  ; -617311420
2471  12020001           [043] move       8   2      
2475  A2418001           [044] call       6   3   1  
2479  93010001           [045] getupval   6   2      
247D  A4814203           [046] self       6   6   266  ; -617311420
2481  12028001           [047] move       8   3      
2485  A2418001           [048] call       6   3   1  
2489  93018000           [049] getupval   6   1      
248D  A4C14203           [050] self       6   6   267  ; -1938777623
2491  1D020300           [051] getglobal  8   12       ; 1661359502
2495  22028000           [052] call       8   1   0  
2499  A2410000           [053] call       6   0   1  
249D  93010001           [054] getupval   6   2      
24A1  A4C14203           [055] self       6   6   267  ; -1938777623
24A5  1D020300           [056] getglobal  8   12       ; 1661359502
24A9  22028000           [057] call       8   1   0  
24AD  A2410000           [058] call       6   0   1  
24B1  93018000           [059] getupval   6   1      
24B5  A4C14103           [060] self       6   6   263  ; -991624272
24B9  A2810001           [061] call       6   2   2  
24BD  92000003           [062] move       2   6      
24C1  93010001           [063] getupval   6   2      
24C5  A4C14103           [064] self       6   6   263  ; -991624272
24C9  A2810001           [065] call       6   2   2  
24CD  D2000003           [066] move       3   6      
24D1  9D410000           [067] getglobal  6   1        ; mMovie
24D5  A4414303           [068] self       6   6   269  ; 471456102
24D9  19820300           [069] loadk      8   14       ; "SystemStage"
24DD  59C20300           [070] loadk      9   15       ; "_x"
24E1  93028001           [071] getupval   10  3      
24E5  C4024401           [072] mul        11  2   272  ; 0
24E9  83C20205           [073] add        10  10  11 
24ED  A2418002           [074] call       6   5   1  
24F1  9D410000           [075] getglobal  6   1        ; mMovie
24F5  A4414303           [076] self       6   6   269  ; 471456102
24F9  19820300           [077] loadk      8   14       ; "SystemStage"
24FD  59420400           [078] loadk      9   17       ; "_heading"
2501  84824401           [079] mul        10  2   274  ; 0
2505  83820284           [080] add        10  264 10   ; 0
2509  A2418002           [081] call       6   5   1  
250D  9D410000           [082] getglobal  6   1        ; mMovie
2511  A4414303           [083] self       6   6   269  ; 471456102
2515  19820300           [084] loadk      8   14       ; "SystemStage"
2519  59C20400           [085] loadk      9   19       ; "_y"
251D  93020002           [086] getupval   10  4      
2521  C402C501           [087] mul        11  3   276  ; 0
2525  83C20205           [088] add        10  10  11 
2529  A2418002           [089] call       6   5   1  
252D  9D410000           [090] getglobal  6   1        ; mMovie
2531  A4414303           [091] self       6   6   269  ; 471456102
2535  19820300           [092] loadk      8   14       ; "SystemStage"
2539  59420500           [093] loadk      9   21       ; "_pitch"
253D  8482C501           [094] mul        10  3   278  ; 0
2541  A2418002           [095] call       6   5   1  
2545  9DC10500           [096] getglobal  6   23       ; 1074689893
2549  D3018002           [097] getupval   7   5      
254D  A2810001           [098] call       6   2   2  
2551  98410000           [099] test       6       1    ; to [101] if false
2555  1A400580           [100] jmp        22           ; to [123]
fail op	35
2559  23800002           [101] close      0  
255D  1A400080           [102] jmp        2            ; to [105]
fail op	35
2561  63C08002           [103] close      1  
2565  1A400480           [104] jmp        18           ; to [123]
2569  93010003           [105] getupval   6   6      
256D  A4014603           [106] self       6   6   280  ; 814259937
2571  A2810001           [107] call       6   2   2  
2575  DD410600           [108] getglobal  7   25       ; 508519041
2579  0E824603           [109] gettable   8   6   282  ; "heading"
257D  44C24601           [110] mul        9   2   283  ; 0
2581  03420204           [111] add        8   8   9  
2585  4E024703           [112] gettable   9   6   284  ; "pitch"
2589  8442C701           [113] mul        10  3   285  ; 0
258D  43828204           [114] add        9   9   10 
2591  8E824703           [115] gettable   10  6   286  ; "bank"
2595  E2810002           [116] call       7   4   2  
fail op	8
2599  C8018003           [117] setupval   7   7      
259D  D3018002           [118] getupval   7   5      
25A1  E4C1C703           [119] self       7   7   287  ; 970454089
25A5  53020004           [120] getupval   9   8      
25A9  93028003           [121] getupval   10  7      
25AD  E2410002           [122] call       7   4   1  
25B1  D3018004           [123] getupval   7   9      
25B5  E2418000           [124] call       7   1   1  
25B9  1E008000           [125] return     0   1      
                         * constants:
25BD  20                 sizek (32)
25BE  01                 const type 3
25BF  299956EA           const [0]: (-363423447)
25C3  04                 const type 4
25C4  07                 string size (7)
25C5  6D4D6F76696500     "mMovie\0"
                         const [1]: "mMovie"
25CC  01                 const type 3
25CD  98FD7463           const [2]: (1668611480)
25D1  01                 const type 3
25D2  29F9E5BA           const [3]: (-1159333591)
25D6  03                 const type 3
25D7  00000000           const [4]: (0)
25DB  03                 const type 3
25DC  00000040           const [5]: (0)
25E0  01                 const type 3
25E1  871BCD6A           const [6]: (1791826823)
25E5  01                 const type 3
25E6  B003E5C4           const [7]: (-991624272)
25EA  03                 const type 3
25EB  000080BF           const [8]: (0)
25EF  03                 const type 3
25F0  0000803F           const [9]: (0)
25F4  01                 const type 3
25F5  449334DB           const [10]: (-617311420)
25F9  01                 const type 3
25FA  E999708C           const [11]: (-1938777623)
25FE  01                 const type 3
25FF  8E550663           const [12]: (1661359502)
2603  01                 const type 3
2604  66D9191C           const [13]: (471456102)
2608  04                 const type 4
2609  0C                 string size (12)
260A  53797374656D5374+  "SystemSt"
2612  61676500           "age\0"
                         const [14]: "SystemStage"
2616  04                 const type 4
2617  03                 string size (3)
2618  5F7800             "_x\0"
                         const [15]: "_x"
261B  03                 const type 3
261C  00002042           const [16]: (0)
2620  04                 const type 4
2621  09                 string size (9)
2622  5F68656164696E67+  "_heading"
262A  00                 "\0"
                         const [17]: "_heading"
262B  03                 const type 3
262C  0000A040           const [18]: (0)
2630  04                 const type 4
2631  03                 string size (3)
2632  5F7900             "_y\0"
                         const [19]: "_y"
2635  03                 const type 3
2636  0000F041           const [20]: (0)
263A  04                 const type 4
263B  07                 string size (7)
263C  5F706974636800     "_pitch\0"
                         const [21]: "_pitch"
2643  03                 const type 3
2644  000020C0           const [22]: (0)
2648  01                 const type 3
2649  65770E40           const [23]: (1074689893)
264D  01                 const type 3
264E  E19E8830           const [24]: (814259937)
2652  01                 const type 3
2653  81624F1E           const [25]: (508519041)
2657  04                 const type 4
2658  08                 string size (8)
2659  68656164696E6700   "heading\0"
                         const [26]: "heading"
2661  03                 const type 3
2662  0000C040           const [27]: (0)
2666  04                 const type 4
2667  06                 string size (6)
2668  706974636800       "pitch\0"
                         const [28]: "pitch"
266E  03                 const type 3
266F  000040C0           const [29]: (0)
2673  04                 const type 4
2674  05                 string size (5)
2675  62616E6B00         "bank\0"
                         const [30]: "bank"
267A  01                 const type 3
267B  49F4D739           const [31]: (970454089)
                         * functions:
267F  00                 sizep (0)
                         * lines:
2680  7D                 sizelineinfo (125)
                         [pc] (line)
2681  5D                 [001] (93)
2682  01                 [002] (93)
2683  00                 [003] (93)
2684  00                 [004] (93)
2685  5D                 [005] (95)
2686  01                 [006] (95)
2687  00                 [007] (95)
2688  00                 [008] (95)
2689  5D                 [009] (95)
268A  01                 [010] (95)
268B  00                 [011] (95)
268C  00                 [012] (95)
268D  5D                 [013] (95)
268E  01                 [014] (96)
268F  00                 [015] (96)
2690  00                 [016] (96)
2691  5F                 [017] (96)
2692  01                 [018] (96)
2693  00                 [019] (96)
2694  00                 [020] (96)
2695  5F                 [021] (96)
2696  01                 [022] (96)
2697  00                 [023] (98)
2698  00                 [024] (98)
2699  5F                 [025] (98)
269A  01                 [026] (99)
269B  00                 [027] (99)
269C  00                 [028] (99)
269D  5F                 [029] (101)
269E  01                 [030] (101)
269F  00                 [031] (101)
26A0  00                 [032] (101)
26A1  5F                 [033] (101)
26A2  01                 [034] (101)
26A3  00                 [035] (102)
26A4  00                 [036] (102)
26A5  5F                 [037] (102)
26A6  01                 [038] (102)
26A7  00                 [039] (102)
26A8  00                 [040] (102)
26A9  5F                 [041] (103)
26AA  01                 [042] (103)
26AB  00                 [043] (103)
26AC  00                 [044] (103)
26AD  5F                 [045] (104)
26AE  01                 [046] (104)
26AF  00                 [047] (104)
26B0  00                 [048] (104)
26B1  5F                 [049] (105)
26B2  01                 [050] (105)
26B3  00                 [051] (105)
26B4  00                 [052] (105)
26B5  60                 [053] (105)
26B6  01                 [054] (106)
26B7  00                 [055] (106)
26B8  00                 [056] (106)
26B9  60                 [057] (106)
26BA  01                 [058] (106)
26BB  00                 [059] (107)
26BC  00                 [060] (107)
26BD  60                 [061] (107)
26BE  01                 [062] (107)
26BF  00                 [063] (108)
26C0  00                 [064] (108)
26C1  60                 [065] (108)
26C2  01                 [066] (108)
26C3  00                 [067] (110)
26C4  00                 [068] (110)
26C5  60                 [069] (110)
26C6  01                 [070] (110)
26C7  00                 [071] (110)
26C8  00                 [072] (110)
26C9  60                 [073] (110)
26CA  01                 [074] (110)
26CB  00                 [075] (111)
26CC  00                 [076] (111)
26CD  60                 [077] (111)
26CE  01                 [078] (111)
26CF  00                 [079] (111)
26D0  00                 [080] (111)
26D1  60                 [081] (111)
26D2  01                 [082] (113)
26D3  00                 [083] (113)
26D4  00                 [084] (113)
26D5  60                 [085] (113)
26D6  01                 [086] (113)
26D7  00                 [087] (113)
26D8  00                 [088] (113)
26D9  62                 [089] (113)
26DA  01                 [090] (114)
26DB  00                 [091] (114)
26DC  00                 [092] (114)
26DD  62                 [093] (114)
26DE  01                 [094] (114)
26DF  00                 [095] (114)
26E0  00                 [096] (116)
26E1  62                 [097] (116)
26E2  01                 [098] (116)
26E3  00                 [099] (116)
26E4  00                 [100] (116)
26E5  63                 [101] (116)
26E6  01                 [102] (116)
26E7  00                 [103] (116)
26E8  00                 [104] (116)
26E9  63                 [105] (117)
26EA  01                 [106] (117)
26EB  00                 [107] (117)
26EC  00                 [108] (118)
26ED  63                 [109] (118)
26EE  01                 [110] (118)
26EF  00                 [111] (118)
26F0  00                 [112] (118)
26F1  65                 [113] (118)
26F2  01                 [114] (118)
26F3  00                 [115] (118)
26F4  00                 [116] (118)
26F5  65                 [117] (118)
26F6  01                 [118] (119)
26F7  00                 [119] (119)
26F8  00                 [120] (119)
26F9  65                 [121] (119)
26FA  01                 [122] (119)
26FB  00                 [123] (122)
26FC  00                 [124] (122)
26FD  65                 [125] (123)
                         * locals:
2875  00                 sizelocvars (0)
                         * upvalues:
2876  00                 sizeupvalues (0)
                         ** end of function **

                         
2877                     ** function [13] definition (level 2)
                         ** start of function **
2877  00                 string size (0)
                         source name: (none)
2879  02                 line defined (381)
287A  9B                 last line defined (411)
287B  03                 nups (1)
287C  01                 numparams (0)
287D  00                 is_vararg (0)
287E  00                 maxstacksize (5)
                         * code:
2881  01                 sizecode (155)
2882  1D000000           [001] getglobal  0   0        ; mMovie
2886  24404000           [002] self       0   0   257  ; 471456102
288A  99800000           [003] loadk      2   2        ; "SystemStage.Ship.Ship"
288E  D9C00000           [004] loadk      3   3        ; "_z"
2892  19010100           [005] loadk      4   4        ; 0
2896  22408002           [006] call       0   5   1  
289A  1D000000           [007] getglobal  0   0        ; mMovie
289E  24404000           [008] self       0   0   257  ; 471456102
28A2  99400100           [009] loadk      2   5        ; "SystemStage.Ship.LineDetails"
28A6  D9800100           [010] loadk      3   6        ; "_color"
28AA  13010000           [011] getupval   4   0      
28AE  0EC14102           [012] gettable   4   4   263  ; "FloatingContent"
28B2  22408002           [013] call       0   5   1  
28B6  1D000000           [014] getglobal  0   0        ; mMovie
28BA  24404000           [015] self       0   0   257  ; 471456102
28BE  99000200           [016] loadk      2   8        ; "SystemStage.Ship.LineDetails.TopLeft"
28C2  D9C00000           [017] loadk      3   3        ; "_z"
28C6  19410200           [018] loadk      4   9        ; 0
28CA  22408002           [019] call       0   5   1  
28CE  1D000000           [020] getglobal  0   0        ; mMovie
28D2  24404000           [021] self       0   0   257  ; 471456102
28D6  99800200           [022] loadk      2   10       ; "SystemStage.Ship.LineDetails.BottomLeft"
28DA  D9C00000           [023] loadk      3   3        ; "_z"
28DE  19410200           [024] loadk      4   9        ; 0
28E2  22408002           [025] call       0   5   1  
28E6  1D000000           [026] getglobal  0   0        ; mMovie
28EA  24404000           [027] self       0   0   257  ; 471456102
28EE  99C00200           [028] loadk      2   11       ; "SystemStage.Ship.LineDetails.TopRight"
28F2  D9C00000           [029] loadk      3   3        ; "_z"
28F6  19410200           [030] loadk      4   9        ; 0
28FA  22408002           [031] call       0   5   1  
28FE  1D000000           [032] getglobal  0   0        ; mMovie
2902  24404000           [033] self       0   0   257  ; 471456102
2906  99000300           [034] loadk      2   12       ; "SystemStage.Ship.LineDetails.BottomRight"
290A  D9C00000           [035] loadk      3   3        ; "_z"
290E  19410300           [036] loadk      4   13       ; 0
2912  22408002           [037] call       0   5   1  
2916  1D000000           [038] getglobal  0   0        ; mMovie
291A  24404000           [039] self       0   0   257  ; 471456102
291E  99800300           [040] loadk      2   14       ; "SystemStage.Ship.ShieldLayer1"
2922  D9C00000           [041] loadk      3   3        ; "_z"
2926  19C10300           [042] loadk      4   15       ; 0
292A  22408002           [043] call       0   5   1  
292E  1D000000           [044] getglobal  0   0        ; mMovie
2932  24404000           [045] self       0   0   257  ; 471456102
2936  99000400           [046] loadk      2   16       ; "SystemStage.Ship.ShieldLayer2"
293A  D9C00000           [047] loadk      3   3        ; "_z"
293E  19410400           [048] loadk      4   17       ; 0
2942  22408002           [049] call       0   5   1  
2946  1D000000           [050] getglobal  0   0        ; mMovie
294A  24404000           [051] self       0   0   257  ; 471456102
294E  99800400           [052] loadk      2   18       ; "SystemStage.Ship.ShieldLayer3"
2952  D9C00000           [053] loadk      3   3        ; "_z"
2956  19C10400           [054] loadk      4   19       ; 0
295A  22408002           [055] call       0   5   1  
295E  1D000000           [056] getglobal  0   0        ; mMovie
2962  24404000           [057] self       0   0   257  ; 471456102
2966  99000500           [058] loadk      2   20       ; "SystemStage.Ship.ShieldLayer4"
296A  D9C00000           [059] loadk      3   3        ; "_z"
296E  19410500           [060] loadk      4   21       ; 0
2972  22408002           [061] call       0   5   1  
2976  1D000000           [062] getglobal  0   0        ; mMovie
297A  24404000           [063] self       0   0   257  ; 471456102
297E  99800500           [064] loadk      2   22       ; "SystemStage.Ship.ShieldLayer5"
2982  D9C00000           [065] loadk      3   3        ; "_z"
2986  19C10500           [066] loadk      4   23       ; 0
298A  22408002           [067] call       0   5   1  
298E  1D000000           [068] getglobal  0   0        ; mMovie
2992  24404000           [069] self       0   0   257  ; 471456102
2996  99000600           [070] loadk      2   24       ; "SystemStage.Ship.ShieldBacker"
299A  D9800100           [071] loadk      3   6        ; "_color"
299E  13010000           [072] getupval   4   0      
29A2  0E414602           [073] gettable   4   4   281  ; "Background1"
29A6  22408002           [074] call       0   5   1  
29AA  1D000000           [075] getglobal  0   0        ; mMovie
29AE  24404000           [076] self       0   0   257  ; 471456102
29B2  99800600           [077] loadk      2   26       ; "SystemStage.Ship.Shield"
29B6  D9800100           [078] loadk      3   6        ; "_color"
29BA  13010000           [079] getupval   4   0      
29BE  0EC14602           [080] gettable   4   4   283  ; "Content"
29C2  22408002           [081] call       0   5   1  
29C6  1D000000           [082] getglobal  0   0        ; mMovie
29CA  24404000           [083] self       0   0   257  ; 471456102
29CE  99000700           [084] loadk      2   28       ; "SystemStage.Ship.PowerDiamond"
29D2  D9800100           [085] loadk      3   6        ; "_color"
29D6  13010000           [086] getupval   4   0      
29DA  0EC14102           [087] gettable   4   4   263  ; "FloatingContent"
29DE  22408002           [088] call       0   5   1  
29E2  1D000000           [089] getglobal  0   0        ; mMovie
29E6  24404000           [090] self       0   0   257  ; 471456102
29EA  99400700           [091] loadk      2   29       ; "SystemStage.Ship.ShieldOuterLines"
29EE  D9800100           [092] loadk      3   6        ; "_color"
29F2  13010000           [093] getupval   4   0      
29F6  0EC14102           [094] gettable   4   4   263  ; "FloatingContent"
29FA  22408002           [095] call       0   5   1  
29FE  1D000000           [096] getglobal  0   0        ; mMovie
2A02  24804700           [097] self       0   0   286  ; 2115970775
2A06  99000200           [098] loadk      2   8        ; "SystemStage.Ship.LineDetails.TopLeft"
2A0A  DDC00700           [099] getglobal  3   31       ; linesMaterial
2A0E  22400002           [100] call       0   4   1  
2A12  1D000000           [101] getglobal  0   0        ; mMovie
2A16  24804700           [102] self       0   0   286  ; 2115970775
2A1A  99800200           [103] loadk      2   10       ; "SystemStage.Ship.LineDetails.BottomLeft"
2A1E  DDC00700           [104] getglobal  3   31       ; linesMaterial
2A22  22400002           [105] call       0   4   1  
2A26  1D000000           [106] getglobal  0   0        ; mMovie
2A2A  24804700           [107] self       0   0   286  ; 2115970775
2A2E  99C00200           [108] loadk      2   11       ; "SystemStage.Ship.LineDetails.TopRight"
2A32  DDC00700           [109] getglobal  3   31       ; linesMaterial
2A36  22400002           [110] call       0   4   1  
2A3A  1D000000           [111] getglobal  0   0        ; mMovie
2A3E  24804700           [112] self       0   0   286  ; 2115970775
2A42  99000300           [113] loadk      2   12       ; "SystemStage.Ship.LineDetails.BottomRight"
2A46  DDC00700           [114] getglobal  3   31       ; linesMaterial
2A4A  22400002           [115] call       0   4   1  
2A4E  1D000000           [116] getglobal  0   0        ; mMovie
2A52  24804700           [117] self       0   0   286  ; 2115970775
2A56  99000800           [118] loadk      2   32       ; "SystemStage.Ship.LineDetails.FarTopLeft"
2A5A  DDC00700           [119] getglobal  3   31       ; linesMaterial
2A5E  22400002           [120] call       0   4   1  
2A62  1D000000           [121] getglobal  0   0        ; mMovie
2A66  24804700           [122] self       0   0   286  ; 2115970775
2A6A  99400800           [123] loadk      2   33       ; "SystemStage.Ship.LineDetails.FarBottomLeft"
2A6E  DDC00700           [124] getglobal  3   31       ; linesMaterial
2A72  22400002           [125] call       0   4   1  
2A76  1D000000           [126] getglobal  0   0        ; mMovie
2A7A  24804700           [127] self       0   0   286  ; 2115970775
2A7E  99800800           [128] loadk      2   34       ; "SystemStage.Ship.LineDetails.FarTopRight"
2A82  DDC00700           [129] getglobal  3   31       ; linesMaterial
2A86  22400002           [130] call       0   4   1  
2A8A  1D000000           [131] getglobal  0   0        ; mMovie
2A8E  24804700           [132] self       0   0   286  ; 2115970775
2A92  99C00800           [133] loadk      2   35       ; "SystemStage.Ship.LineDetails.FarBottomRight"
2A96  DDC00700           [134] getglobal  3   31       ; linesMaterial
2A9A  22400002           [135] call       0   4   1  
2A9E  1D000000           [136] getglobal  0   0        ; mMovie
2AA2  24804700           [137] self       0   0   286  ; 2115970775
2AA6  99000600           [138] loadk      2   24       ; "SystemStage.Ship.ShieldBacker"
2AAA  DDC00700           [139] getglobal  3   31       ; linesMaterial
2AAE  22400002           [140] call       0   4   1  
2AB2  1D000000           [141] getglobal  0   0        ; mMovie
2AB6  24404000           [142] self       0   0   257  ; 471456102
2ABA  99800000           [143] loadk      2   2        ; "SystemStage.Ship.Ship"
2ABE  D9800100           [144] loadk      3   6        ; "_color"
2AC2  13010000           [145] getupval   4   0      
2AC6  0E014902           [146] gettable   4   4   292  ; "BackerHighlight"
2ACA  22408002           [147] call       0   5   1  
2ACE  1D000000           [148] getglobal  0   0        ; mMovie
2AD2  24404000           [149] self       0   0   257  ; 471456102
2AD6  99400900           [150] loadk      2   37       ; "SystemStage.Ship.Stars"
2ADA  D9800100           [151] loadk      3   6        ; "_color"
2ADE  13010000           [152] getupval   4   0      
2AE2  0E814902           [153] gettable   4   4   294  ; "FloatingContentHighlight"
2AE6  22408002           [154] call       0   5   1  
2AEA  1E008000           [155] return     0   1      
                         * constants:
2AEE  27                 sizek (39)
2AEF  04                 const type 4
2AF0  07                 string size (7)
2AF1  6D4D6F76696500     "mMovie\0"
                         const [0]: "mMovie"
2AF8  01                 const type 3
2AF9  66D9191C           const [1]: (471456102)
2AFD  04                 const type 4
2AFE  16                 string size (22)
2AFF  53797374656D5374+  "SystemSt"
2B07  6167652E53686970+  "age.Ship"
2B0F  2E5368697000       ".Ship\0"
                         const [2]: "SystemStage.Ship.Ship"
2B15  04                 const type 4
2B16  03                 string size (3)
2B17  5F7A00             "_z\0"
                         const [3]: "_z"
2B1A  03                 const type 3
2B1B  0000FAC3           const [4]: (0)
2B1F  04                 const type 4
2B20  1D                 string size (29)
2B21  53797374656D5374+  "SystemSt"
2B29  6167652E53686970+  "age.Ship"
2B31  2E4C696E65446574+  ".LineDet"
2B39  61696C7300         "ails\0"
                         const [5]: "SystemStage.Ship.LineDetails"
2B3E  04                 const type 4
2B3F  07                 string size (7)
2B40  5F636F6C6F7200     "_color\0"
                         const [6]: "_color"
2B47  04                 const type 4
2B48  10                 string size (16)
2B49  466C6F6174696E67+  "Floating"
2B51  436F6E74656E7400   "Content\0"
                         const [7]: "FloatingContent"
2B59  04                 const type 4
2B5A  25                 string size (37)
2B5B  53797374656D5374+  "SystemSt"
2B63  6167652E53686970+  "age.Ship"
2B6B  2E4C696E65446574+  ".LineDet"
2B73  61696C732E546F70+  "ails.Top"
2B7B  4C65667400         "Left\0"
                         const [8]: "SystemStage.Ship.LineDetails.TopLeft"
2B80  03                 const type 3
2B81  0080BBC4           const [9]: (0)
2B85  04                 const type 4
2B86  28                 string size (40)
2B87  53797374656D5374+  "SystemSt"
2B8F  6167652E53686970+  "age.Ship"
2B97  2E4C696E65446574+  ".LineDet"
2B9F  61696C732E426F74+  "ails.Bot"
2BA7  746F6D4C65667400   "tomLeft\0"
                         const [10]: "SystemStage.Ship.LineDetails.BottomLeft"
2BAF  04                 const type 4
2BB0  26                 string size (38)
2BB1  53797374656D5374+  "SystemSt"
2BB9  6167652E53686970+  "age.Ship"
2BC1  2E4C696E65446574+  ".LineDet"
2BC9  61696C732E546F70+  "ails.Top"
2BD1  526967687400       "Right\0"
                         const [11]: "SystemStage.Ship.LineDetails.TopRight"
2BD7  04                 const type 4
2BD8  29                 string size (41)
2BD9  53797374656D5374+  "SystemSt"
2BE1  6167652E53686970+  "age.Ship"
2BE9  2E4C696E65446574+  ".LineDet"
2BF1  61696C732E426F74+  "ails.Bot"
2BF9  746F6D5269676874+  "tomRight"
2C01  00                 "\0"
                         const [12]: "SystemStage.Ship.LineDetails.BottomRight"
2C02  03                 const type 3
2C03  000096C3           const [13]: (0)
2C07  04                 const type 4
2C08  1E                 string size (30)
2C09  53797374656D5374+  "SystemSt"
2C11  6167652E53686970+  "age.Ship"
2C19  2E536869656C644C+  ".ShieldL"
2C21  617965723100       "ayer1\0"
                         const [14]: "SystemStage.Ship.ShieldLayer1"
2C27  03                 const type 3
2C28  0000FA43           const [15]: (0)
2C2C  04                 const type 4
2C2D  1E                 string size (30)
2C2E  53797374656D5374+  "SystemSt"
2C36  6167652E53686970+  "age.Ship"
2C3E  2E536869656C644C+  ".ShieldL"
2C46  617965723200       "ayer2\0"
                         const [16]: "SystemStage.Ship.ShieldLayer2"
2C4C  03                 const type 3
2C4D  00007A44           const [17]: (0)
2C51  04                 const type 4
2C52  1E                 string size (30)
2C53  53797374656D5374+  "SystemSt"
2C5B  6167652E53686970+  "age.Ship"
2C63  2E536869656C644C+  ".ShieldL"
2C6B  617965723300       "ayer3\0"
                         const [18]: "SystemStage.Ship.ShieldLayer3"
2C71  03                 const type 3
2C72  0080BB44           const [19]: (0)
2C76  04                 const type 4
2C77  1E                 string size (30)
2C78  53797374656D5374+  "SystemSt"
2C80  6167652E53686970+  "age.Ship"
2C88  2E536869656C644C+  ".ShieldL"
2C90  617965723400       "ayer4\0"
                         const [20]: "SystemStage.Ship.ShieldLayer4"
2C96  03                 const type 3
2C97  0000FA44           const [21]: (0)
2C9B  04                 const type 4
2C9C  1E                 string size (30)
2C9D  53797374656D5374+  "SystemSt"
2CA5  6167652E53686970+  "age.Ship"
2CAD  2E536869656C644C+  ".ShieldL"
2CB5  617965723500       "ayer5\0"
                         const [22]: "SystemStage.Ship.ShieldLayer5"
2CBB  03                 const type 3
2CBC  00401C45           const [23]: (0)
2CC0  04                 const type 4
2CC1  1E                 string size (30)
2CC2  53797374656D5374+  "SystemSt"
2CCA  6167652E53686970+  "age.Ship"
2CD2  2E536869656C6442+  ".ShieldB"
2CDA  61636B657200       "acker\0"
                         const [24]: "SystemStage.Ship.ShieldBacker"
2CE0  04                 const type 4
2CE1  0C                 string size (12)
2CE2  4261636B67726F75+  "Backgrou"
2CEA  6E643100           "nd1\0"
                         const [25]: "Background1"
2CEE  04                 const type 4
2CEF  18                 string size (24)
2CF0  53797374656D5374+  "SystemSt"
2CF8  6167652E53686970+  "age.Ship"
2D00  2E536869656C6400   ".Shield\0"
                         const [26]: "SystemStage.Ship.Shield"
2D08  04                 const type 4
2D09  08                 string size (8)
2D0A  436F6E74656E7400   "Content\0"
                         const [27]: "Content"
2D12  04                 const type 4
2D13  1E                 string size (30)
2D14  53797374656D5374+  "SystemSt"
2D1C  6167652E53686970+  "age.Ship"
2D24  2E506F7765724469+  ".PowerDi"
2D2C  616D6F6E6400       "amond\0"
                         const [28]: "SystemStage.Ship.PowerDiamond"
2D32  04                 const type 4
2D33  22                 string size (34)
2D34  53797374656D5374+  "SystemSt"
2D3C  6167652E53686970+  "age.Ship"
2D44  2E536869656C644F+  ".ShieldO"
2D4C  757465724C696E65+  "uterLine"
2D54  7300               "s\0"
                         const [29]: "SystemStage.Ship.ShieldOuterLines"
2D56  01                 const type 3
2D57  D7261F7E           const [30]: (2115970775)
2D5B  04                 const type 4
2D5C  0E                 string size (14)
2D5D  6C696E65734D6174+  "linesMat"
2D65  657269616C00       "erial\0"
                         const [31]: "linesMaterial"
2D6B  04                 const type 4
2D6C  28                 string size (40)
2D6D  53797374656D5374+  "SystemSt"
2D75  6167652E53686970+  "age.Ship"
2D7D  2E4C696E65446574+  ".LineDet"
2D85  61696C732E466172+  "ails.Far"
2D8D  546F704C65667400   "TopLeft\0"
                         const [32]: "SystemStage.Ship.LineDetails.FarTopLeft"
2D95  04                 const type 4
2D96  2B                 string size (43)
2D97  53797374656D5374+  "SystemSt"
2D9F  6167652E53686970+  "age.Ship"
2DA7  2E4C696E65446574+  ".LineDet"
2DAF  61696C732E466172+  "ails.Far"
2DB7  426F74746F6D4C65+  "BottomLe"
2DBF  667400             "ft\0"
                         const [33]: "SystemStage.Ship.LineDetails.FarBottomLeft"
2DC2  04                 const type 4
2DC3  29                 string size (41)
2DC4  53797374656D5374+  "SystemSt"
2DCC  6167652E53686970+  "age.Ship"
2DD4  2E4C696E65446574+  ".LineDet"
2DDC  61696C732E466172+  "ails.Far"
2DE4  546F705269676874+  "TopRight"
2DEC  00                 "\0"
                         const [34]: "SystemStage.Ship.LineDetails.FarTopRight"
2DED  04                 const type 4
2DEE  2C                 string size (44)
2DEF  53797374656D5374+  "SystemSt"
2DF7  6167652E53686970+  "age.Ship"
2DFF  2E4C696E65446574+  ".LineDet"
2E07  61696C732E466172+  "ails.Far"
2E0F  426F74746F6D5269+  "BottomRi"
2E17  67687400           "ght\0"
                         const [35]: "SystemStage.Ship.LineDetails.FarBottomRight"
2E1B  04                 const type 4
2E1C  10                 string size (16)
2E1D  4261636B65724869+  "BackerHi"
2E25  67686C6967687400   "ghlight\0"
                         const [36]: "BackerHighlight"
2E2D  04                 const type 4
2E2E  17                 string size (23)
2E2F  53797374656D5374+  "SystemSt"
2E37  6167652E53686970+  "age.Ship"
2E3F  2E537461727300     ".Stars\0"
                         const [37]: "SystemStage.Ship.Stars"
2E46  04                 const type 4
2E47  19                 string size (25)
2E48  466C6F6174696E67+  "Floating"
2E50  436F6E74656E7448+  "ContentH"
2E58  6967686C69676874+  "ighlight"
2E60  00                 "\0"
                         const [38]: "FloatingContentHighlight"
                         * functions:
2E61  00                 sizep (0)
                         * lines:
2E63  01                 sizelineinfo (155)
                         [pc] (line)
2E64  7E                 [001] (126)
2E65  01                 [002] (126)
2E66  00                 [003] (126)
2E67  00                 [004] (126)
2E68  7E                 [005] (126)
2E69  01                 [006] (126)
2E6A  00                 [007] (127)
2E6B  00                 [008] (127)
2E6C  7E                 [009] (127)
2E6D  01                 [010] (127)
2E6E  00                 [011] (127)
2E6F  00                 [012] (127)
2E70  7E                 [013] (127)
2E71  01                 [014] (-128)
2E72  00                 [015] (-128)
2E73  00                 [016] (-128)
2E74  7E                 [017] (-128)
2E75  01                 [018] (-128)
2E76  00                 [019] (-128)
2E77  00                 [020] (-127)
2E78  7E                 [021] (-127)
2E79  01                 [022] (-127)
2E7A  00                 [023] (-127)
2E7B  00                 [024] (-127)
2E7C  7F                 [025] (-127)
2E7D  01                 [026] (-126)
2E7E  00                 [027] (-126)
2E7F  00                 [028] (-126)
2E80  7F                 [029] (-126)
2E81  01                 [030] (-126)
2E82  00                 [031] (-126)
2E83  00                 [032] (-125)
2E84  7F                 [033] (-125)
2E85  01                 [034] (-125)
2E86  00                 [035] (-125)
2E87  00                 [036] (-125)
2E88  7F                 [037] (-125)
2E89  01                 [038] (-124)
2E8A  00                 [039] (-124)
2E8B  00                 [040] (-124)
2E8C  7F                 [041] (-124)
2E8D  01                 [042] (-124)
2E8E  00                 [043] (-124)
2E8F  00                 [044] (-123)
2E90  7F                 [045] (-123)
2E91  01                 [046] (-123)
2E92  00                 [047] (-123)
2E93  00                 [048] (-123)
2E94  7F                 [049] (-123)
2E95  01                 [050] (-122)
2E96  00                 [051] (-122)
2E97  00                 [052] (-122)
2E98  80                 [053] (-122)
2E99  01                 [054] (-122)
2E9A  00                 [055] (-122)
2E9B  00                 [056] (-121)
2E9C  80                 [057] (-121)
2E9D  01                 [058] (-121)
2E9E  00                 [059] (-121)
2E9F  00                 [060] (-121)
2EA0  80                 [061] (-121)
2EA1  01                 [062] (-120)
2EA2  00                 [063] (-120)
2EA3  00                 [064] (-120)
2EA4  80                 [065] (-120)
2EA5  01                 [066] (-120)
2EA6  00                 [067] (-120)
2EA7  00                 [068] (-119)
2EA8  80                 [069] (-119)
2EA9  01                 [070] (-119)
2EAA  00                 [071] (-119)
2EAB  00                 [072] (-119)
2EAC  80                 [073] (-119)
2EAD  01                 [074] (-119)
2EAE  00                 [075] (-117)
2EAF  00                 [076] (-117)
2EB0  81                 [077] (-117)
2EB1  01                 [078] (-117)
2EB2  00                 [079] (-117)
2EB3  00                 [080] (-117)
2EB4  81                 [081] (-117)
2EB5  01                 [082] (-116)
2EB6  00                 [083] (-116)
2EB7  00                 [084] (-116)
2EB8  81                 [085] (-116)
2EB9  01                 [086] (-116)
2EBA  00                 [087] (-116)
2EBB  00                 [088] (-116)
2EBC  81                 [089] (-115)
2EBD  01                 [090] (-115)
2EBE  00                 [091] (-115)
2EBF  00                 [092] (-115)
2EC0  81                 [093] (-115)
2EC1  01                 [094] (-115)
2EC2  00                 [095] (-115)
2EC3  00                 [096] (-113)
2EC4  81                 [097] (-113)
2EC5  01                 [098] (-113)
2EC6  00                 [099] (-113)
2EC7  00                 [100] (-113)
2EC8  82                 [101] (-112)
2EC9  01                 [102] (-112)
2ECA  00                 [103] (-112)
2ECB  00                 [104] (-112)
2ECC  82                 [105] (-112)
2ECD  01                 [106] (-111)
2ECE  00                 [107] (-111)
2ECF  00                 [108] (-111)
2ED0  82                 [109] (-111)
2ED1  01                 [110] (-111)
2ED2  00                 [111] (-110)
2ED3  00                 [112] (-110)
2ED4  82                 [113] (-110)
2ED5  01                 [114] (-110)
2ED6  00                 [115] (-110)
2ED7  00                 [116] (-109)
2ED8  82                 [117] (-109)
2ED9  01                 [118] (-109)
2EDA  00                 [119] (-109)
2EDB  00                 [120] (-109)
2EDC  82                 [121] (-108)
2EDD  01                 [122] (-108)
2EDE  00                 [123] (-108)
2EDF  00                 [124] (-108)
2EE0  83                 [125] (-108)
2EE1  01                 [126] (-107)
2EE2  00                 [127] (-107)
2EE3  00                 [128] (-107)
2EE4  83                 [129] (-107)
2EE5  01                 [130] (-107)
2EE6  00                 [131] (-106)
2EE7  00                 [132] (-106)
2EE8  83                 [133] (-106)
2EE9  01                 [134] (-106)
2EEA  00                 [135] (-106)
2EEB  00                 [136] (-105)
2EEC  83                 [137] (-105)
2EED  01                 [138] (-105)
2EEE  00                 [139] (-105)
2EEF  00                 [140] (-105)
2EF0  83                 [141] (-103)
2EF1  01                 [142] (-103)
2EF2  00                 [143] (-103)
2EF3  00                 [144] (-103)
2EF4  83                 [145] (-103)
2EF5  01                 [146] (-103)
2EF6  00                 [147] (-103)
2EF7  00                 [148] (-102)
2EF8  84                 [149] (-102)
2EF9  01                 [150] (-102)
2EFA  00                 [151] (-102)
2EFB  00                 [152] (-102)
2EFC  84                 [153] (-102)
2EFD  01                 [154] (-102)
2EFE  00                 [155] (-101)
                         * locals:
30D0  00                 sizelocvars (0)
                         * upvalues:
30D1  00                 sizeupvalues (0)
                         ** end of function **

                         
30D2                     ** function [14] definition (level 2)
                         ** start of function **
30D2  00                 string size (0)
                         source name: (none)
30D4  03                 line defined (413)
30D5  B1                 last line defined (433)
30D6  03                 nups (1)
30D7  01                 numparams (2)
30D8  02                 is_vararg (0)
30D9  00                 maxstacksize (11)
                         * code:
30DB  73                 sizecode (115)
30DC  9D000000           [001] getglobal  2   0        ; mMovie
30E0  A4404001           [002] self       2   2   257  ; -2013161817
30E4  12010000           [003] move       4   0      
30E8  59810000           [004] loadk      5   2        ; "Title"
30EC  99C10000           [005] loadk      6   3        ; "_color"
30F0  D3010000           [006] getupval   7   0      
30F4  CE01C103           [007] gettable   7   7   260  ; "FloatingContentHighlight"
30F8  A2400003           [008] call       2   6   1  
30FC  9D000000           [009] getglobal  2   0        ; mMovie
3100  A4404101           [010] self       2   2   261  ; 386043535
3104  12010000           [011] move       4   0      
3108  59810100           [012] loadk      5   6        ; ".Title.text"
310C  02410102           [013] concat     4   4   5  
3110  52018000           [014] move       5   1      
3114  A2400002           [015] call       2   4   1  
3118  9DC00100           [016] getglobal  2   7        ; -174740002
311C  DD000000           [017] getglobal  3   0        ; mMovie
3120  E400C201           [018] self       3   3   264  ; 1803241227
3124  52010000           [019] move       5   0      
3128  99410200           [020] loadk      6   9        ; ".Center"
312C  42818102           [021] concat     5   5   6  
3130  99810200           [022] loadk      6   10       ; "_x"
3134  E2000002           [023] call       3   4   0  
3138  A2800000           [024] call       2   0   2  
313C  83C04201           [025] add        2   2   267  ; 0
3140  DDC00100           [026] getglobal  3   7        ; -174740002
3144  1D010000           [027] getglobal  4   0        ; mMovie
3148  24014202           [028] self       4   4   264  ; 1803241227
314C  92010000           [029] move       6   0      
3150  D9010300           [030] loadk      7   12       ; ".Title"
3154  82C10103           [031] concat     6   6   7  
3158  D9410300           [032] loadk      7   13       ; "textWidth"
315C  22010002           [033] call       4   4   0  
3160  E2800000           [034] call       3   0   2  
3164  0481C301           [035] mul        4   3   270  ; 0
3168  0DC14302           [036] sub        4   4   271  ; 0
316C  5D010000           [037] getglobal  5   0        ; mMovie
3170  6441C002           [038] self       5   5   257  ; -2013161817
3174  D2010000           [039] move       7   0      
3178  19020400           [040] loadk      8   16       ; "ExtenderLeft"
317C  59820200           [041] loadk      9   10       ; "_x"
3180  8D020101           [042] sub        10  2   4  
3184  8DC24205           [043] sub        10  10  267  ; 0
3188  62410003           [044] call       5   6   1  
318C  5D010000           [045] getglobal  5   0        ; mMovie
3190  6441C002           [046] self       5   5   257  ; -2013161817
3194  D2010000           [047] move       7   0      
3198  19020400           [048] loadk      8   16       ; "ExtenderLeft"
319C  59420400           [049] loadk      9   17       ; "_width"
31A0  92020002           [050] move       10  4      
31A4  62410003           [051] call       5   6   1  
31A8  5D010000           [052] getglobal  5   0        ; mMovie
31AC  6441C002           [053] self       5   5   257  ; -2013161817
31B0  D2010000           [054] move       7   0      
31B4  19820400           [055] loadk      8   18       ; "ExtenderRight"
31B8  59420400           [056] loadk      9   17       ; "_width"
31BC  92020002           [057] move       10  4      
31C0  62410003           [058] call       5   6   1  
31C4  5D010000           [059] getglobal  5   0        ; mMovie
31C8  6441C002           [060] self       5   5   257  ; -2013161817
31CC  D2010000           [061] move       7   0      
31D0  19C20400           [062] loadk      8   19       ; "LeftEndCap"
31D4  59820200           [063] loadk      9   10       ; "_x"
31D8  8D020101           [064] sub        10  2   4  
31DC  8D024505           [065] sub        10  10  276  ; 0
31E0  62410003           [066] call       5   6   1  
31E4  5D010000           [067] getglobal  5   0        ; mMovie
31E8  6441C002           [068] self       5   5   257  ; -2013161817
31EC  D2010000           [069] move       7   0      
31F0  19420500           [070] loadk      8   21       ; "RightEndCap"
31F4  59820200           [071] loadk      9   10       ; "_x"
31F8  83020101           [072] add        10  2   4  
31FC  83024505           [073] add        10  10  276  ; 0
3200  62410003           [074] call       5   6   1  
3204  5D010000           [075] getglobal  5   0        ; mMovie
3208  6441C002           [076] self       5   5   257  ; -2013161817
320C  D2010000           [077] move       7   0      
3210  19820500           [078] loadk      8   22       ; "Center"
3214  59C20000           [079] loadk      9   3        ; "_color"
3218  93020000           [080] getupval   10  0      
321C  8EC24505           [081] gettable   10  10  279  ; "Content"
3220  62410003           [082] call       5   6   1  
3224  5D010000           [083] getglobal  5   0        ; mMovie
3228  6441C002           [084] self       5   5   257  ; -2013161817
322C  D2010000           [085] move       7   0      
3230  19C20400           [086] loadk      8   19       ; "LeftEndCap"
3234  59C20000           [087] loadk      9   3        ; "_color"
3238  93020000           [088] getupval   10  0      
323C  8EC24505           [089] gettable   10  10  279  ; "Content"
3240  62410003           [090] call       5   6   1  
3244  5D010000           [091] getglobal  5   0        ; mMovie
3248  6441C002           [092] self       5   5   257  ; -2013161817
324C  D2010000           [093] move       7   0      
3250  19420500           [094] loadk      8   21       ; "RightEndCap"
3254  59C20000           [095] loadk      9   3        ; "_color"
3258  93020000           [096] getupval   10  0      
325C  8EC24505           [097] gettable   10  10  279  ; "Content"
3260  62410003           [098] call       5   6   1  
3264  5D010000           [099] getglobal  5   0        ; mMovie
3268  6441C002           [100] self       5   5   257  ; -2013161817
326C  D2010000           [101] move       7   0      
3270  19020400           [102] loadk      8   16       ; "ExtenderLeft"
3274  59C20000           [103] loadk      9   3        ; "_color"
3278  93020000           [104] getupval   10  0      
327C  8EC24505           [105] gettable   10  10  279  ; "Content"
3280  62410003           [106] call       5   6   1  
3284  5D010000           [107] getglobal  5   0        ; mMovie
3288  6441C002           [108] self       5   5   257  ; -2013161817
328C  D2010000           [109] move       7   0      
3290  19820400           [110] loadk      8   18       ; "ExtenderRight"
3294  59C20000           [111] loadk      9   3        ; "_color"
3298  93020000           [112] getupval   10  0      
329C  8EC24505           [113] gettable   10  10  279  ; "Content"
32A0  62410003           [114] call       5   6   1  
32A4  1E008000           [115] return     0   1      
                         * constants:
32A8  18                 sizek (24)
32A9  04                 const type 4
32AA  07                 string size (7)
32AB  6D4D6F76696500     "mMovie\0"
                         const [0]: "mMovie"
32B2  01                 const type 3
32B3  A7960188           const [1]: (-2013161817)
32B7  04                 const type 4
32B8  06                 string size (6)
32B9  5469746C6500       "Title\0"
                         const [2]: "Title"
32BF  04                 const type 4
32C0  07                 string size (7)
32C1  5F636F6C6F7200     "_color\0"
                         const [3]: "_color"
32C8  04                 const type 4
32C9  19                 string size (25)
32CA  466C6F6174696E67+  "Floating"
32D2  436F6E74656E7448+  "ContentH"
32DA  6967686C69676874+  "ighlight"
32E2  00                 "\0"
                         const [4]: "FloatingContentHighlight"
32E3  01                 const type 3
32E4  8F8E0217           const [5]: (386043535)
32E8  04                 const type 4
32E9  0C                 string size (12)
32EA  2E5469746C652E74+  ".Title.t"
32F2  65787400           "ext\0"
                         const [6]: ".Title.text"
32F6  01                 const type 3
32F7  DEAD95F5           const [7]: (-174740002)
32FB  01                 const type 3
32FC  0B477B6B           const [8]: (1803241227)
3300  04                 const type 4
3301  08                 string size (8)
3302  2E43656E74657200   ".Center\0"
                         const [9]: ".Center"
330A  04                 const type 4
330B  03                 string size (3)
330C  5F7800             "_x\0"
                         const [10]: "_x"
330F  03                 const type 3
3310  00008040           const [11]: (0)
3314  04                 const type 4
3315  07                 string size (7)
3316  2E5469746C6500     ".Title\0"
                         const [12]: ".Title"
331D  04                 const type 4
331E  0A                 string size (10)
331F  7465787457696474+  "textWidt"
3327  6800               "h\0"
                         const [13]: "textWidth"
3329  03                 const type 3
332A  0000003F           const [14]: (0)
332E  03                 const type 3
332F  00002041           const [15]: (0)
3333  04                 const type 4
3334  0D                 string size (13)
3335  457874656E646572+  "Extender"
333D  4C65667400         "Left\0"
                         const [16]: "ExtenderLeft"
3342  04                 const type 4
3343  07                 string size (7)
3344  5F776964746800     "_width\0"
                         const [17]: "_width"
334B  04                 const type 4
334C  0E                 string size (14)
334D  457874656E646572+  "Extender"
3355  526967687400       "Right\0"
                         const [18]: "ExtenderRight"
335B  04                 const type 4
335C  0B                 string size (11)
335D  4C656674456E6443+  "LeftEndC"
3365  617000             "ap\0"
                         const [19]: "LeftEndCap"
3368  03                 const type 3
3369  0000A041           const [20]: (0)
336D  04                 const type 4
336E  0C                 string size (12)
336F  5269676874456E64+  "RightEnd"
3377  43617000           "Cap\0"
                         const [21]: "RightEndCap"
337B  04                 const type 4
337C  07                 string size (7)
337D  43656E74657200     "Center\0"
                         const [22]: "Center"
3384  04                 const type 4
3385  08                 string size (8)
3386  436F6E74656E7400   "Content\0"
                         const [23]: "Content"
                         * functions:
338E  00                 sizep (0)
                         * lines:
338F  73                 sizelineinfo (115)
                         [pc] (line)
3390  9E                 [001] (-98)
3391  01                 [002] (-98)
3392  00                 [003] (-98)
3393  00                 [004] (-98)
3394  9E                 [005] (-98)
3395  01                 [006] (-98)
3396  00                 [007] (-98)
3397  00                 [008] (-98)
3398  9E                 [009] (-97)
3399  01                 [010] (-97)
339A  00                 [011] (-97)
339B  00                 [012] (-97)
339C  9E                 [013] (-97)
339D  01                 [014] (-97)
339E  00                 [015] (-97)
339F  00                 [016] (-95)
33A0  9E                 [017] (-95)
33A1  01                 [018] (-95)
33A2  00                 [019] (-95)
33A3  00                 [020] (-95)
33A4  9E                 [021] (-95)
33A5  01                 [022] (-95)
33A6  00                 [023] (-95)
33A7  00                 [024] (-95)
33A8  9E                 [025] (-95)
33A9  01                 [026] (-93)
33AA  00                 [027] (-93)
33AB  00                 [028] (-93)
33AC  9E                 [029] (-93)
33AD  01                 [030] (-93)
33AE  00                 [031] (-93)
33AF  00                 [032] (-93)
33B0  9F                 [033] (-93)
33B1  01                 [034] (-93)
33B2  00                 [035] (-92)
33B3  00                 [036] (-92)
33B4  9F                 [037] (-91)
33B5  01                 [038] (-91)
33B6  00                 [039] (-91)
33B7  00                 [040] (-91)
33B8  9F                 [041] (-91)
33B9  01                 [042] (-91)
33BA  00                 [043] (-91)
33BB  00                 [044] (-91)
33BC  9F                 [045] (-90)
33BD  01                 [046] (-90)
33BE  00                 [047] (-90)
33BF  00                 [048] (-90)
33C0  9F                 [049] (-90)
33C1  01                 [050] (-90)
33C2  00                 [051] (-90)
33C3  00                 [052] (-89)
33C4  9F                 [053] (-89)
33C5  01                 [054] (-89)
33C6  00                 [055] (-89)
33C7  00                 [056] (-89)
33C8  9F                 [057] (-89)
33C9  01                 [058] (-89)
33CA  00                 [059] (-88)
33CB  00                 [060] (-88)
33CC  A1                 [061] (-88)
33CD  01                 [062] (-88)
33CE  00                 [063] (-88)
33CF  00                 [064] (-88)
33D0  A1                 [065] (-88)
33D1  01                 [066] (-88)
33D2  00                 [067] (-87)
33D3  00                 [068] (-87)
33D4  A1                 [069] (-87)
33D5  01                 [070] (-87)
33D6  00                 [071] (-87)
33D7  00                 [072] (-87)
33D8  A1                 [073] (-87)
33D9  01                 [074] (-87)
33DA  00                 [075] (-84)
33DB  00                 [076] (-84)
33DC  A1                 [077] (-84)
33DD  01                 [078] (-84)
33DE  00                 [079] (-84)
33DF  00                 [080] (-84)
33E0  A1                 [081] (-84)
33E1  01                 [082] (-84)
33E2  00                 [083] (-83)
33E3  00                 [084] (-83)
33E4  A1                 [085] (-83)
33E5  01                 [086] (-83)
33E6  00                 [087] (-83)
33E7  00                 [088] (-83)
33E8  A1                 [089] (-83)
33E9  01                 [090] (-83)
33EA  00                 [091] (-82)
33EB  00                 [092] (-82)
33EC  A1                 [093] (-82)
33ED  01                 [094] (-82)
33EE  00                 [095] (-82)
33EF  00                 [096] (-82)
33F0  A1                 [097] (-82)
33F1  01                 [098] (-82)
33F2  00                 [099] (-81)
33F3  00                 [100] (-81)
33F4  A3                 [101] (-81)
33F5  01                 [102] (-81)
33F6  00                 [103] (-81)
33F7  00                 [104] (-81)
33F8  A3                 [105] (-81)
33F9  01                 [106] (-81)
33FA  00                 [107] (-80)
33FB  00                 [108] (-80)
33FC  A3                 [109] (-80)
33FD  01                 [110] (-80)
33FE  00                 [111] (-80)
33FF  00                 [112] (-80)
3400  A3                 [113] (-80)
3401  01                 [114] (-80)
3402  00                 [115] (-79)
                         * locals:
355C  00                 sizelocvars (0)
                         * upvalues:
355D  00                 sizeupvalues (0)
                         ** end of function **

                         
355E                     ** function [15] definition (level 2)
                         ** start of function **
355E  00                 string size (0)
                         source name: (none)
3560  03                 line defined (435)
3561  D2                 last line defined (466)
3562  03                 nups (1)
3563  01                 numparams (2)
3564  02                 is_vararg (0)
3565  00                 maxstacksize (15)
                         * code:
3568  01                 sizecode (175)
3569  99000000           [001] loadk      2   0        ; 0
356D  CB000001           [002] newtable   3   2   0    ; array=2, hash=0
3571  19410000           [003] loadk      4   1        ; "."
3575  59810000           [004] loadk      5   2        ; ".Damage"
3579  DB400001           [005] setlist    3   2   1    ; index 1 to 2
357D  1DC10000           [006] getglobal  4   3        ; 248503575
3581  52018001           [007] move       5   3      
3585  22010101           [008] call       4   2   4  
3589  1AC00680           [009] jmp        28           ; to [38]
358D  5D020100           [010] getglobal  9   4        ; mMovie
3591  6442C104           [011] self       9   9   261  ; 471456102
3595  D2020000           [012] move       11  0      
3599  12030004           [013] move       12  8      
359D  59830100           [014] loadk      13  6        ; "FillEndCapLeft"
35A1  C2428305           [015] concat     11  11  13 
35A5  19C30100           [016] loadk      12  7        ; "_x"
35A9  4403C200           [017] mul        13  1   264  ; 0
35AD  62428002           [018] call       9   5   1  
35B1  5D020100           [019] getglobal  9   4        ; mMovie
35B5  6442C104           [020] self       9   9   261  ; 471456102
35B9  D2020000           [021] move       11  0      
35BD  12030004           [022] move       12  8      
35C1  59430200           [023] loadk      13  9        ; "FillEndCapRight"
35C5  C2428305           [024] concat     11  11  13 
35C9  19C30100           [025] loadk      12  7        ; "_x"
35CD  4483C200           [026] mul        13  1   266  ; 0
35D1  62428002           [027] call       9   5   1  
35D5  5D020100           [028] getglobal  9   4        ; mMovie
35D9  6442C104           [029] self       9   9   261  ; 471456102
35DD  D2020000           [030] move       11  0      
35E1  12030004           [031] move       12  8      
35E5  59C30200           [032] loadk      13  11       ; "FillExtender"
35E9  C2428305           [033] concat     11  11  13 
35ED  19030300           [034] loadk      12  12       ; "_width"
35F1  44434301           [035] mul        13  2   269  ; 0
35F5  4D438300           [036] sub        13  1   13 
35F9  62428002           [037] call       9   5   1  
35FD  16810000           [038] tforloop   4       2    ; to [40] if exit
3601  1A40F87F           [039] jmp        -30          ; to [10]
3605  5D020100           [040] getglobal  9   4        ; mMovie
3609  6482C304           [041] self       9   9   270  ; -2013161817
360D  D2020000           [042] move       11  0      
3611  19C30300           [043] loadk      12  15       ; "BorderEndCapLeft"
3615  59030400           [044] loadk      13  16       ; "_color"
3619  93030000           [045] getupval   14  0      
361D  8E434407           [046] gettable   14  14  273  ; "FloatingContent"
3621  62420003           [047] call       9   6   1  
3625  5D020100           [048] getglobal  9   4        ; mMovie
3629  6482C304           [049] self       9   9   270  ; -2013161817
362D  D2020000           [050] move       11  0      
3631  19830400           [051] loadk      12  18       ; "BorderEndCapRight"
3635  59030400           [052] loadk      13  16       ; "_color"
3639  93030000           [053] getupval   14  0      
363D  8E434407           [054] gettable   14  14  273  ; "FloatingContent"
3641  62420003           [055] call       9   6   1  
3645  5D020100           [056] getglobal  9   4        ; mMovie
3649  6482C304           [057] self       9   9   270  ; -2013161817
364D  D2020000           [058] move       11  0      
3651  19C30400           [059] loadk      12  19       ; "BorderExtender"
3655  59030400           [060] loadk      13  16       ; "_color"
3659  93030000           [061] getupval   14  0      
365D  8E434407           [062] gettable   14  14  273  ; "FloatingContent"
3661  62420003           [063] call       9   6   1  
3665  5D020100           [064] getglobal  9   4        ; mMovie
3669  6482C304           [065] self       9   9   270  ; -2013161817
366D  D2020000           [066] move       11  0      
3671  19C30300           [067] loadk      12  15       ; "BorderEndCapLeft"
3675  59C30100           [068] loadk      13  7        ; "_x"
3679  8403C200           [069] mul        14  1   264  ; 0
367D  62420003           [070] call       9   6   1  
3681  5D020100           [071] getglobal  9   4        ; mMovie
3685  6482C304           [072] self       9   9   270  ; -2013161817
3689  D2020000           [073] move       11  0      
368D  19830400           [074] loadk      12  18       ; "BorderEndCapRight"
3691  59C30100           [075] loadk      13  7        ; "_x"
3695  8483C200           [076] mul        14  1   266  ; 0
3699  62420003           [077] call       9   6   1  
369D  5D020100           [078] getglobal  9   4        ; mMovie
36A1  6482C304           [079] self       9   9   270  ; -2013161817
36A5  D2020000           [080] move       11  0      
36A9  19C30400           [081] loadk      12  19       ; "BorderExtender"
36AD  59030300           [082] loadk      13  12       ; "_width"
36B1  84434301           [083] mul        14  2   269  ; 0
36B5  8D838300           [084] sub        14  1   14 
36B9  62420003           [085] call       9   6   1  
36BD  5D020100           [086] getglobal  9   4        ; mMovie
36C1  6482C304           [087] self       9   9   270  ; -2013161817
36C5  D2020000           [088] move       11  0      
36C9  19830100           [089] loadk      12  6        ; "FillEndCapLeft"
36CD  59C30100           [090] loadk      13  7        ; "_x"
36D1  8403C200           [091] mul        14  1   264  ; 0
36D5  62420003           [092] call       9   6   1  
36D9  5D020100           [093] getglobal  9   4        ; mMovie
36DD  6482C304           [094] self       9   9   270  ; -2013161817
36E1  D2020000           [095] move       11  0      
36E5  19430200           [096] loadk      12  9        ; "FillEndCapRight"
36E9  59C30100           [097] loadk      13  7        ; "_x"
36ED  8483C200           [098] mul        14  1   266  ; 0
36F1  62420003           [099] call       9   6   1  
36F5  5D020100           [100] getglobal  9   4        ; mMovie
36F9  6482C304           [101] self       9   9   270  ; -2013161817
36FD  D2020000           [102] move       11  0      
3701  19C30200           [103] loadk      12  11       ; "FillExtender"
3705  59030300           [104] loadk      13  12       ; "_width"
3709  84434301           [105] mul        14  2   269  ; 0
370D  8D838300           [106] sub        14  1   14 
3711  62420003           [107] call       9   6   1  
3715  5D020100           [108] getglobal  9   4        ; mMovie
3719  6482C304           [109] self       9   9   270  ; -2013161817
371D  D2020000           [110] move       11  0      
3721  19030500           [111] loadk      12  20       ; "BgCapLeft"
3725  59430500           [112] loadk      13  21       ; "_alpha"
3729  99830500           [113] loadk      14  22       ; 0
372D  62420003           [114] call       9   6   1  
3731  5D020100           [115] getglobal  9   4        ; mMovie
3735  6482C304           [116] self       9   9   270  ; -2013161817
3739  D2020000           [117] move       11  0      
373D  19C30500           [118] loadk      12  23       ; "BgCapRight"
3741  59430500           [119] loadk      13  21       ; "_alpha"
3745  99830500           [120] loadk      14  22       ; 0
3749  62420003           [121] call       9   6   1  
374D  5D020100           [122] getglobal  9   4        ; mMovie
3751  6482C304           [123] self       9   9   270  ; -2013161817
3755  D2020000           [124] move       11  0      
3759  19030600           [125] loadk      12  24       ; "BgExtender"
375D  59430500           [126] loadk      13  21       ; "_alpha"
3761  99830500           [127] loadk      14  22       ; 0
3765  62420003           [128] call       9   6   1  
3769  5D020100           [129] getglobal  9   4        ; mMovie
376D  6482C304           [130] self       9   9   270  ; -2013161817
3771  D2020000           [131] move       11  0      
3775  19030500           [132] loadk      12  20       ; "BgCapLeft"
3779  59030400           [133] loadk      13  16       ; "_color"
377D  93030000           [134] getupval   14  0      
3781  8E434607           [135] gettable   14  14  281  ; "Background1"
3785  62420003           [136] call       9   6   1  
3789  5D020100           [137] getglobal  9   4        ; mMovie
378D  6482C304           [138] self       9   9   270  ; -2013161817
3791  D2020000           [139] move       11  0      
3795  19C30500           [140] loadk      12  23       ; "BgCapRight"
3799  59030400           [141] loadk      13  16       ; "_color"
379D  93030000           [142] getupval   14  0      
37A1  8E434607           [143] gettable   14  14  281  ; "Background1"
37A5  62420003           [144] call       9   6   1  
37A9  5D020100           [145] getglobal  9   4        ; mMovie
37AD  6482C304           [146] self       9   9   270  ; -2013161817
37B1  D2020000           [147] move       11  0      
37B5  19030600           [148] loadk      12  24       ; "BgExtender"
37B9  59030400           [149] loadk      13  16       ; "_color"
37BD  93030000           [150] getupval   14  0      
37C1  8E434607           [151] gettable   14  14  281  ; "Background1"
37C5  62420003           [152] call       9   6   1  
37C9  5D020100           [153] getglobal  9   4        ; mMovie
37CD  6482C304           [154] self       9   9   270  ; -2013161817
37D1  D2020000           [155] move       11  0      
37D5  19030500           [156] loadk      12  20       ; "BgCapLeft"
37D9  59C30100           [157] loadk      13  7        ; "_x"
37DD  8403C200           [158] mul        14  1   264  ; 0
37E1  62420003           [159] call       9   6   1  
37E5  5D020100           [160] getglobal  9   4        ; mMovie
37E9  6482C304           [161] self       9   9   270  ; -2013161817
37ED  D2020000           [162] move       11  0      
37F1  19C30500           [163] loadk      12  23       ; "BgCapRight"
37F5  59C30100           [164] loadk      13  7        ; "_x"
37F9  8483C200           [165] mul        14  1   266  ; 0
37FD  62420003           [166] call       9   6   1  
3801  5D020100           [167] getglobal  9   4        ; mMovie
3805  6482C304           [168] self       9   9   270  ; -2013161817
3809  D2020000           [169] move       11  0      
380D  19030600           [170] loadk      12  24       ; "BgExtender"
3811  59030300           [171] loadk      13  12       ; "_width"
3815  84434301           [172] mul        14  2   269  ; 0
3819  8D838300           [173] sub        14  1   14 
381D  62420003           [174] call       9   6   1  
3821  1E008000           [175] return     0   1      
                         * constants:
3825  1A                 sizek (26)
3826  03                 const type 3
3827  00000042           const [0]: (0)
382B  04                 const type 4
382C  02                 string size (2)
382D  2E00               ".\0"
                         const [1]: "."
382F  04                 const type 4
3830  08                 string size (8)
3831  2E44616D61676500   ".Damage\0"
                         const [2]: ".Damage"
3839  01                 const type 3
383A  17DDCF0E           const [3]: (248503575)
383E  04                 const type 4
383F  07                 string size (7)
3840  6D4D6F76696500     "mMovie\0"
                         const [4]: "mMovie"
3847  01                 const type 3
3848  66D9191C           const [5]: (471456102)
384C  04                 const type 4
384D  0F                 string size (15)
384E  46696C6C456E6443+  "FillEndC"
3856  61704C65667400     "apLeft\0"
                         const [6]: "FillEndCapLeft"
385D  04                 const type 4
385E  03                 string size (3)
385F  5F7800             "_x\0"
                         const [7]: "_x"
3862  03                 const type 3
3863  000000BF           const [8]: (0)
3867  04                 const type 4
3868  10                 string size (16)
3869  46696C6C456E6443+  "FillEndC"
3871  6170526967687400   "apRight\0"
                         const [9]: "FillEndCapRight"
3879  03                 const type 3
387A  0000003F           const [10]: (0)
387E  04                 const type 4
387F  0D                 string size (13)
3880  46696C6C45787465+  "FillExte"
3888  6E64657200         "nder\0"
                         const [11]: "FillExtender"
388D  04                 const type 4
388E  07                 string size (7)
388F  5F776964746800     "_width\0"
                         const [12]: "_width"
3896  03                 const type 3
3897  00000040           const [13]: (0)
389B  01                 const type 3
389C  A7960188           const [14]: (-2013161817)
38A0  04                 const type 4
38A1  11                 string size (17)
38A2  426F72646572456E+  "BorderEn"
38AA  644361704C656674+  "dCapLeft"
38B2  00                 "\0"
                         const [15]: "BorderEndCapLeft"
38B3  04                 const type 4
38B4  07                 string size (7)
38B5  5F636F6C6F7200     "_color\0"
                         const [16]: "_color"
38BC  04                 const type 4
38BD  10                 string size (16)
38BE  466C6F6174696E67+  "Floating"
38C6  436F6E74656E7400   "Content\0"
                         const [17]: "FloatingContent"
38CE  04                 const type 4
38CF  12                 string size (18)
38D0  426F72646572456E+  "BorderEn"
38D8  6443617052696768+  "dCapRigh"
38E0  7400               "t\0"
                         const [18]: "BorderEndCapRight"
38E2  04                 const type 4
38E3  0F                 string size (15)
38E4  426F726465724578+  "BorderEx"
38EC  74656E64657200     "tender\0"
                         const [19]: "BorderExtender"
38F3  04                 const type 4
38F4  0A                 string size (10)
38F5  42674361704C6566+  "BgCapLef"
38FD  7400               "t\0"
                         const [20]: "BgCapLeft"
38FF  04                 const type 4
3900  07                 string size (7)
3901  5F616C70686100     "_alpha\0"
                         const [21]: "_alpha"
3908  03                 const type 3
3909  00009642           const [22]: (0)
390D  04                 const type 4
390E  0B                 string size (11)
390F  4267436170526967+  "BgCapRig"
3917  687400             "ht\0"
                         const [23]: "BgCapRight"
391A  04                 const type 4
391B  0B                 string size (11)
391C  4267457874656E64+  "BgExtend"
3924  657200             "er\0"
                         const [24]: "BgExtender"
3927  04                 const type 4
3928  0C                 string size (12)
3929  4261636B67726F75+  "Backgrou"
3931  6E643100           "nd1\0"
                         const [25]: "Background1"
                         * functions:
3935  00                 sizep (0)
                         * lines:
3937  01                 sizelineinfo (175)
                         [pc] (line)
3938  B4                 [001] (-76)
3939  01                 [002] (-75)
393A  00                 [003] (-75)
393B  00                 [004] (-75)
393C  B5                 [005] (-75)
393D  01                 [006] (-74)
393E  00                 [007] (-74)
393F  00                 [008] (-74)
3940  B5                 [009] (-74)
3941  01                 [010] (-73)
3942  00                 [011] (-73)
3943  00                 [012] (-73)
3944  B5                 [013] (-73)
3945  01                 [014] (-73)
3946  00                 [015] (-73)
3947  00                 [016] (-73)
3948  B5                 [017] (-73)
3949  01                 [018] (-73)
394A  00                 [019] (-72)
394B  00                 [020] (-72)
394C  B6                 [021] (-72)
394D  01                 [022] (-72)
394E  00                 [023] (-72)
394F  00                 [024] (-72)
3950  B6                 [025] (-72)
3951  01                 [026] (-72)
3952  00                 [027] (-72)
3953  00                 [028] (-71)
3954  B6                 [029] (-71)
3955  01                 [030] (-71)
3956  00                 [031] (-71)
3957  00                 [032] (-71)
3958  B6                 [033] (-71)
3959  01                 [034] (-71)
395A  00                 [035] (-71)
395B  00                 [036] (-71)
395C  B7                 [037] (-71)
395D  01                 [038] (-74)
395E  00                 [039] (-71)
395F  00                 [040] (-68)
3960  B7                 [041] (-68)
3961  01                 [042] (-68)
3962  00                 [043] (-68)
3963  00                 [044] (-68)
3964  B7                 [045] (-68)
3965  01                 [046] (-68)
3966  00                 [047] (-68)
3967  00                 [048] (-67)
3968  B7                 [049] (-67)
3969  01                 [050] (-67)
396A  00                 [051] (-67)
396B  00                 [052] (-67)
396C  B7                 [053] (-67)
396D  01                 [054] (-67)
396E  00                 [055] (-67)
396F  00                 [056] (-66)
3970  B7                 [057] (-66)
3971  01                 [058] (-66)
3972  00                 [059] (-66)
3973  00                 [060] (-66)
3974  B7                 [061] (-66)
3975  01                 [062] (-66)
3976  00                 [063] (-66)
3977  00                 [064] (-64)
3978  B7                 [065] (-64)
3979  01                 [066] (-64)
397A  00                 [067] (-64)
397B  00                 [068] (-64)
397C  B7                 [069] (-64)
397D  01                 [070] (-64)
397E  00                 [071] (-63)
397F  00                 [072] (-63)
3980  B8                 [073] (-63)
3981  01                 [074] (-63)
3982  00                 [075] (-63)
3983  00                 [076] (-63)
3984  B8                 [077] (-63)
3985  01                 [078] (-62)
3986  00                 [079] (-62)
3987  00                 [080] (-62)
3988  B8                 [081] (-62)
3989  01                 [082] (-62)
398A  00                 [083] (-62)
398B  00                 [084] (-62)
398C  B8                 [085] (-62)
398D  01                 [086] (-60)
398E  00                 [087] (-60)
398F  00                 [088] (-60)
3990  B8                 [089] (-60)
3991  01                 [090] (-60)
3992  00                 [091] (-60)
3993  00                 [092] (-60)
3994  B8                 [093] (-59)
3995  01                 [094] (-59)
3996  00                 [095] (-59)
3997  00                 [096] (-59)
3998  B8                 [097] (-59)
3999  01                 [098] (-59)
399A  00                 [099] (-59)
399B  00                 [100] (-58)
399C  B8                 [101] (-58)
399D  01                 [102] (-58)
399E  00                 [103] (-58)
399F  00                 [104] (-58)
39A0  B8                 [105] (-58)
39A1  01                 [106] (-58)
39A2  00                 [107] (-58)
39A3  00                 [108] (-56)
39A4  B9                 [109] (-56)
39A5  01                 [110] (-56)
39A6  00                 [111] (-56)
39A7  00                 [112] (-56)
39A8  B9                 [113] (-56)
39A9  01                 [114] (-56)
39AA  00                 [115] (-55)
39AB  00                 [116] (-55)
39AC  B9                 [117] (-55)
39AD  01                 [118] (-55)
39AE  00                 [119] (-55)
39AF  00                 [120] (-55)
39B0  B9                 [121] (-55)
39B1  01                 [122] (-54)
39B2  00                 [123] (-54)
39B3  00                 [124] (-54)
39B4  B9                 [125] (-54)
39B5  01                 [126] (-54)
39B6  00                 [127] (-54)
39B7  00                 [128] (-54)
39B8  B9                 [129] (-53)
39B9  01                 [130] (-53)
39BA  00                 [131] (-53)
39BB  00                 [132] (-53)
39BC  B9                 [133] (-53)
39BD  01                 [134] (-53)
39BE  00                 [135] (-53)
39BF  00                 [136] (-53)
39C0  B9                 [137] (-52)
39C1  01                 [138] (-52)
39C2  00                 [139] (-52)
39C3  00                 [140] (-52)
39C4  B9                 [141] (-52)
39C5  01                 [142] (-52)
39C6  00                 [143] (-52)
39C7  00                 [144] (-52)
39C8  B9                 [145] (-51)
39C9  01                 [146] (-51)
39CA  00                 [147] (-51)
39CB  00                 [148] (-51)
39CC  B6                 [149] (-51)
39CD  01                 [150] (-51)
39CE  00                 [151] (-51)
39CF  00                 [152] (-51)
39D0  B9                 [153] (-49)
39D1  01                 [154] (-49)
39D2  00                 [155] (-49)
39D3  00                 [156] (-49)
39D4  BC                 [157] (-49)
39D5  01                 [158] (-49)
39D6  00                 [159] (-49)
39D7  00                 [160] (-48)
39D8  BC                 [161] (-48)
39D9  01                 [162] (-48)
39DA  00                 [163] (-48)
39DB  00                 [164] (-48)
39DC  BC                 [165] (-48)
39DD  01                 [166] (-48)
39DE  00                 [167] (-47)
39DF  00                 [168] (-47)
39E0  BC                 [169] (-47)
39E1  01                 [170] (-47)
39E2  00                 [171] (-47)
39E3  00                 [172] (-47)
39E4  BC                 [173] (-47)
39E5  01                 [174] (-47)
39E6  00                 [175] (-46)
                         * locals:
3BF4  00                 sizelocvars (0)
                         * upvalues:
3BF5  00                 sizeupvalues (0)
                         ** end of function **

                         
3BF6                     ** function [16] definition (level 2)
                         ** start of function **
3BF6  00                 string size (0)
                         source name: (none)
3BF8  03                 line defined (468)
3BF9  EA                 last line defined (490)
3BFA  03                 nups (2)
3BFB  02                 numparams (4)
3BFC  04                 is_vararg (0)
3BFD  00                 maxstacksize (17)
                         * code:
3BFF  7B                 sizecode (123)
3C00  13010000           [001] getupval   4   0      
3C04  0E014002           [002] gettable   4   4   256  ; -132701534
fail op	33
3C08  61808080           [003] tforloop   1       2    ; to [5] if exit
3C0C  1A000080           [004] jmp        1            ; to [6]
3C10  57410000           [005] loadbool   5   0   1    ; false, to [7]
3C14  57018000           [006] loadbool   5   1   0    ; true
3C18  93018000           [007] getupval   6   1      
3C1C  8E814003           [008] gettable   6   6   258  ; "FloatingContentHighlight"
3C20  D3018000           [009] getupval   7   1      
3C24  CEC1C003           [010] gettable   7   7   259  ; "Negative"
3C28  22810002           [011] call       4   4   2  
3C2C  5D010100           [012] getglobal  5   4        ; mMovie
3C30  6441C102           [013] self       5   5   261  ; 471456102
3C34  D2010000           [014] move       7   0      
3C38  19820100           [015] loadk      8   6        ; "FillEndCapLeft"
3C3C  C2018203           [016] concat     7   7   8  
3C40  19C20100           [017] loadk      8   7        ; "_color"
3C44  52020002           [018] move       9   4      
3C48  62418002           [019] call       5   5   1  
3C4C  5D010100           [020] getglobal  5   4        ; mMovie
3C50  6441C102           [021] self       5   5   261  ; 471456102
3C54  D2010000           [022] move       7   0      
3C58  19020200           [023] loadk      8   8        ; "FillEndCapRight"
3C5C  C2018203           [024] concat     7   7   8  
3C60  19C20100           [025] loadk      8   7        ; "_color"
3C64  52020002           [026] move       9   4      
3C68  62418002           [027] call       5   5   1  
3C6C  5D010100           [028] getglobal  5   4        ; mMovie
3C70  6441C102           [029] self       5   5   261  ; 471456102
3C74  D2010000           [030] move       7   0      
3C78  19420200           [031] loadk      8   9        ; "FillExtender"
3C7C  C2018203           [032] concat     7   7   8  
3C80  19C20100           [033] loadk      8   7        ; "_color"
3C84  52020002           [034] move       9   4      
3C88  62418002           [035] call       5   5   1  
3C8C  5D810200           [036] getglobal  5   10       ; -174740002
3C90  9D010100           [037] getglobal  6   4        ; mMovie
3C94  A4C14203           [038] self       6   6   267  ; 1803241227
3C98  12020000           [039] move       8   0      
3C9C  59020300           [040] loadk      9   12       ; "Mask"
3CA0  02420204           [041] concat     8   8   9  
3CA4  59420300           [042] loadk      9   13       ; "_width"
3CA8  A2010002           [043] call       6   4   0  
3CAC  62810000           [044] call       5   0   2  
3CB0  9D810200           [045] getglobal  6   10       ; -174740002
3CB4  DD010100           [046] getglobal  7   4        ; mMovie
3CB8  E4C1C203           [047] self       7   7   267  ; 1803241227
3CBC  52020000           [048] move       9   0      
3CC0  99020300           [049] loadk      10  12       ; "Mask"
3CC4  42828204           [050] concat     9   9   10 
3CC8  99820300           [051] loadk      10  14       ; "_x"
3CCC  E2010002           [052] call       7   4   0  
3CD0  A2810000           [053] call       6   0   2  
3CD4  DDC10300           [054] getglobal  7   15       ; math
3CD8  CE01C403           [055] gettable   7   7   272  ; -1962864584
3CDC  0D42C400           [056] sub        8   1   273  ; 0
3CE0  5DC20300           [057] getglobal  9   15       ; math
3CE4  4E82C404           [058] gettable   9   9   274  ; -113279800
3CE8  92020001           [059] move       10  2      
3CEC  62820001           [060] call       9   2   2  
3CF0  04420204           [061] mul        8   8   9  
3CF4  59C20400           [062] loadk      9   19       ; 0
3CF8  E2818001           [063] call       7   3   2  
3CFC  0D42C400           [064] sub        8   1   273  ; 0
3D00  0DC20104           [065] sub        8   8   7  
3D04  53020000           [066] getupval   9   0      
3D08  4E02C004           [067] gettable   9   9   256  ; -132701534
fail op	33
3D0C  61808080           [068] tforloop   1       2    ; to [70] if exit
3D10  1A000080           [069] jmp        1            ; to [71]
3D14  97420000           [070] loadbool   10  0   1    ; false, to [72]
3D18  97028000           [071] loadbool   10  1   0    ; true
3D1C  D9020500           [072] loadk      11  20       ; 0
3D20  19430500           [073] loadk      12  21       ; 0
3D24  62820002           [074] call       9   4   2  
3D28  04420204           [075] mul        8   8   9  
3D2C  D8000000           [076] test       3       0    ; to [78] if true
3D30  1A000480           [077] jmp        17           ; to [95]
3D34  5D020100           [078] getglobal  9   4        ; mMovie
3D38  6442C104           [079] self       9   9   261  ; 471456102
3D3C  D2020000           [080] move       11  0      
3D40  19030300           [081] loadk      12  12       ; "Mask"
3D44  C2028305           [082] concat     11  11  12 
3D48  19430300           [083] loadk      12  13       ; "_width"
3D4C  52038003           [084] move       13  7      
3D50  62428002           [085] call       9   5   1  
3D54  5D020100           [086] getglobal  9   4        ; mMovie
3D58  6442C104           [087] self       9   9   261  ; 471456102
3D5C  D2020000           [088] move       11  0      
3D60  19030300           [089] loadk      12  12       ; "Mask"
3D64  C2028305           [090] concat     11  11  12 
3D68  19830300           [091] loadk      12  14       ; "_x"
3D6C  52030004           [092] move       13  8      
3D70  62428002           [093] call       9   5   1  
3D74  1AC00680           [094] jmp        28           ; to [123]
3D78  5D820500           [095] getglobal  9   22       ; 1390508688
3D7C  9D020100           [096] getglobal  10  4        ; mMovie
3D80  D2020000           [097] move       11  0      
3D84  19030300           [098] loadk      12  12       ; "Mask"
3D88  C2028305           [099] concat     11  11  12 
3D8C  1DC30500           [100] getglobal  12  23       ; UISys
3D90  0E034606           [101] gettable   12  12  280  ; "FlashInstance_SMOOTH_STEP"
3D94  4B030001           [102] newtable   13  2   0    ; array=2, hash=0
3D98  99430300           [103] loadk      14  13       ; "_width"
3D9C  D9830300           [104] loadk      15  14       ; "_x"
3DA0  5B430001           [105] setlist    13  2   1    ; index 1 to 2
3DA4  8B030001           [106] newtable   14  2   0    ; array=2, hash=0
3DA8  D2038003           [107] move       15  7      
3DAC  12040004           [108] move       16  8      
3DB0  9B430001           [109] setlist    14  2   1    ; index 1 to 2
3DB4  D9430600           [110] loadk      15  25       ; 51
3DB8  62428003           [111] call       9   7   1  
3DBC  44424501           [112] mul        9   2   277  ; 0
3DC0  4D42028D           [113] sub        9   282 9    ; 0
fail op	35
3DC4  63008203           [114] close      1  
3DC8  1A800180           [115] jmp        7            ; to [123]
3DCC  93020000           [116] getupval   10  0      
3DD0  8EC24605           [117] gettable   10  10  283  ; 630793108
3DD4  DD020700           [118] getglobal  11  28       ; energySound
3DD8  A2820001           [119] call       10  2   2  
3DDC  E4424705           [120] self       11  10  285  ; 1748762930
3DE0  52038004           [121] move       13  9      
3DE4  E2428001           [122] call       11  3   1  
3DE8  1E008000           [123] return     0   1      
                         * constants:
3DEC  1E                 sizek (30)
3DED  01                 const type 3
3DEE  A22217F8           const [0]: (-132701534)
3DF2  03                 const type 3
3DF3  00000000           const [1]: (0)
3DF7  04                 const type 4
3DF8  19                 string size (25)
3DF9  466C6F6174696E67+  "Floating"
3E01  436F6E74656E7448+  "ContentH"
3E09  6967686C69676874+  "ighlight"
3E11  00                 "\0"
                         const [2]: "FloatingContentHighlight"
3E12  04                 const type 4
3E13  09                 string size (9)
3E14  4E65676174697665+  "Negative"
3E1C  00                 "\0"
                         const [3]: "Negative"
3E1D  04                 const type 4
3E1E  07                 string size (7)
3E1F  6D4D6F76696500     "mMovie\0"
                         const [4]: "mMovie"
3E26  01                 const type 3
3E27  66D9191C           const [5]: (471456102)
3E2B  04                 const type 4
3E2C  0F                 string size (15)
3E2D  46696C6C456E6443+  "FillEndC"
3E35  61704C65667400     "apLeft\0"
                         const [6]: "FillEndCapLeft"
3E3C  04                 const type 4
3E3D  07                 string size (7)
3E3E  5F636F6C6F7200     "_color\0"
                         const [7]: "_color"
3E45  04                 const type 4
3E46  10                 string size (16)
3E47  46696C6C456E6443+  "FillEndC"
3E4F  6170526967687400   "apRight\0"
                         const [8]: "FillEndCapRight"
3E57  04                 const type 4
3E58  0D                 string size (13)
3E59  46696C6C45787465+  "FillExte"
3E61  6E64657200         "nder\0"
                         const [9]: "FillExtender"
3E66  01                 const type 3
3E67  DEAD95F5           const [10]: (-174740002)
3E6B  01                 const type 3
3E6C  0B477B6B           const [11]: (1803241227)
3E70  04                 const type 4
3E71  05                 string size (5)
3E72  4D61736B00         "Mask\0"
                         const [12]: "Mask"
3E77  04                 const type 4
3E78  07                 string size (7)
3E79  5F776964746800     "_width\0"
                         const [13]: "_width"
3E80  04                 const type 4
3E81  03                 string size (3)
3E82  5F7800             "_x\0"
                         const [14]: "_x"
3E85  04                 const type 4
3E86  05                 string size (5)
3E87  6D61746800         "math\0"
                         const [15]: "math"
3E8C  01                 const type 3
3E8D  3810018B           const [16]: (-1962864584)
3E91  03                 const type 3
3E92  00002041           const [17]: (0)
3E96  01                 const type 3
3E97  C87C3FF9           const [18]: (-113279800)
3E9B  03                 const type 3
3E9C  0000803F           const [19]: (0)
3EA0  03                 const type 3
3EA1  000000BF           const [20]: (0)
3EA5  03                 const type 3
3EA6  0000003F           const [21]: (0)
3EAA  01                 const type 3
3EAB  907AE152           const [22]: (1390508688)
3EAF  04                 const type 4
3EB0  06                 string size (6)
3EB1  554953797300       "UISys\0"
                         const [23]: "UISys"
3EB7  04                 const type 4
3EB8  1A                 string size (26)
3EB9  466C617368496E73+  "FlashIns"
3EC1  74616E63655F534D+  "tance_SM"
3EC9  4F4F54485F535445+  "OOTH_STE"
3ED1  5000               "P\0"
                         const [24]: "FlashInstance_SMOOTH_STEP"
3ED3  03                 const type 3
3ED4  3333B33E           const [25]: (51)
3ED8  03                 const type 3
3ED9  0000C03F           const [26]: (0)
3EDD  01                 const type 3
3EDE  94239925           const [27]: (630793108)
3EE2  04                 const type 4
3EE3  0C                 string size (12)
3EE4  656E65726779536F+  "energySo"
3EEC  756E6400           "und\0"
                         const [28]: "energySound"
3EF0  01                 const type 3
3EF1  32013C68           const [29]: (1748762930)
                         * functions:
3EF5  00                 sizep (0)
                         * lines:
3EF6  7B                 sizelineinfo (123)
                         [pc] (line)
3EF7  D6                 [001] (-42)
3EF8  01                 [002] (-42)
3EF9  00                 [003] (-42)
3EFA  00                 [004] (-42)
3EFB  D6                 [005] (-42)
3EFC  01                 [006] (-42)
3EFD  00                 [007] (-42)
3EFE  00                 [008] (-42)
3EFF  D6                 [009] (-42)
3F00  01                 [010] (-42)
3F01  00                 [011] (-42)
3F02  00                 [012] (-41)
3F03  D6                 [013] (-41)
3F04  01                 [014] (-41)
3F05  00                 [015] (-41)
3F06  00                 [016] (-41)
3F07  D6                 [017] (-41)
3F08  01                 [018] (-41)
3F09  00                 [019] (-41)
3F0A  00                 [020] (-40)
3F0B  D6                 [021] (-40)
3F0C  01                 [022] (-40)
3F0D  00                 [023] (-40)
3F0E  00                 [024] (-40)
3F0F  D6                 [025] (-40)
3F10  01                 [026] (-40)
3F11  00                 [027] (-40)
3F12  00                 [028] (-39)
3F13  D6                 [029] (-39)
3F14  01                 [030] (-39)
3F15  00                 [031] (-39)
3F16  00                 [032] (-39)
3F17  D6                 [033] (-39)
3F18  01                 [034] (-39)
3F19  00                 [035] (-39)
3F1A  00                 [036] (-37)
3F1B  D6                 [037] (-37)
3F1C  01                 [038] (-37)
3F1D  00                 [039] (-37)
3F1E  00                 [040] (-37)
3F1F  D6                 [041] (-37)
3F20  01                 [042] (-37)
3F21  00                 [043] (-37)
3F22  00                 [044] (-37)
3F23  D7                 [045] (-36)
3F24  01                 [046] (-36)
3F25  00                 [047] (-36)
3F26  00                 [048] (-36)
3F27  D7                 [049] (-36)
3F28  01                 [050] (-36)
3F29  00                 [051] (-36)
3F2A  00                 [052] (-36)
3F2B  D7                 [053] (-36)
3F2C  01                 [054] (-35)
3F2D  00                 [055] (-35)
3F2E  00                 [056] (-35)
3F2F  D7                 [057] (-35)
3F30  01                 [058] (-35)
3F31  00                 [059] (-35)
3F32  00                 [060] (-35)
3F33  D7                 [061] (-35)
3F34  01                 [062] (-35)
3F35  00                 [063] (-35)
3F36  00                 [064] (-34)
3F37  D7                 [065] (-34)
3F38  01                 [066] (-34)
3F39  00                 [067] (-34)
3F3A  00                 [068] (-34)
3F3B  D7                 [069] (-34)
3F3C  01                 [070] (-34)
3F3D  00                 [071] (-34)
3F3E  00                 [072] (-34)
3F3F  D7                 [073] (-34)
3F40  01                 [074] (-34)
3F41  00                 [075] (-34)
3F42  00                 [076] (-33)
3F43  D8                 [077] (-33)
3F44  01                 [078] (-32)
3F45  00                 [079] (-32)
3F46  00                 [080] (-32)
3F47  D8                 [081] (-32)
3F48  01                 [082] (-32)
3F49  00                 [083] (-32)
3F4A  00                 [084] (-32)
3F4B  D8                 [085] (-32)
3F4C  01                 [086] (-31)
3F4D  00                 [087] (-31)
3F4E  00                 [088] (-31)
3F4F  D8                 [089] (-31)
3F50  01                 [090] (-31)
3F51  00                 [091] (-31)
3F52  00                 [092] (-31)
3F53  D8                 [093] (-31)
3F54  01                 [094] (-31)
3F55  00                 [095] (-29)
3F56  00                 [096] (-29)
3F57  D8                 [097] (-29)
3F58  01                 [098] (-29)
3F59  00                 [099] (-29)
3F5A  00                 [100] (-29)
3F5B  D8                 [101] (-29)
3F5C  01                 [102] (-29)
3F5D  00                 [103] (-29)
3F5E  00                 [104] (-29)
3F5F  D8                 [105] (-29)
3F60  01                 [106] (-29)
3F61  00                 [107] (-29)
3F62  00                 [108] (-29)
3F63  D9                 [109] (-29)
3F64  01                 [110] (-29)
3F65  00                 [111] (-29)
3F66  00                 [112] (-28)
3F67  D9                 [113] (-28)
3F68  01                 [114] (-27)
3F69  00                 [115] (-27)
3F6A  00                 [116] (-26)
3F6B  D9                 [117] (-26)
3F6C  01                 [118] (-26)
3F6D  00                 [119] (-26)
3F6E  00                 [120] (-25)
3F6F  D9                 [121] (-25)
3F70  01                 [122] (-25)
3F71  00                 [123] (-22)
                         * locals:
40E3  00                 sizelocvars (0)
                         * upvalues:
40E4  00                 sizeupvalues (0)
                         ** end of function **

                         
40E5                     ** function [17] definition (level 2)
                         ** start of function **
40E5  00                 string size (0)
                         source name: (none)
40E7  03                 line defined (492)
40E8  8A                 last line defined (522)
40E9  04                 nups (1)
40EA  01                 numparams (0)
40EB  00                 is_vararg (0)
40EC  00                 maxstacksize (14)
                         * code:
40EE  44                 sizecode (68)
40EF  0B000000           [01] newtable   0   0   0    ; array=0, hash=0
40F3  46000001           [02] loadnil    1   2      
40F7  D9000000           [03] loadk      3   0        ; 0
40FB  19410000           [04] loadk      4   1        ; "SystemStage.ModEndCapLeft"
40FF  52018001           [05] move       5   3      
4103  82400102           [06] concat     2   4   5  
4107  1D810000           [07] getglobal  4   2        ; mMovie
410B  24C14002           [08] self       4   4   259  ; 1803241227
410F  92010001           [09] move       6   2      
4113  22818001           [10] call       4   3   2  
4117  52000002           [11] move       1   4      
411B  C300C001           [12] add        3   3   256  ; 0
fail op	35
411F  6300C100           [13] close      1  
4123  1A800180           [14] jmp        7            ; to [22]
fail op	35
4127  6340C100           [15] close      1  
412B  1A000180           [16] jmp        5            ; to [22]
412F  1D810100           [17] getglobal  4   6        ; table
4133  0EC14102           [18] gettable   4   4   263  ; -431682403
4137  52010000           [19] move       5   0      
413B  92010001           [20] move       6   2      
413F  22418001           [21] call       4   3   1  
fail op	35
4143  6300C100           [22] close      1  
4147  1A400080           [23] jmp        2            ; to [26]
fail op	35
414B  2340C100           [24] close      0  
414F  1A40FA7F           [25] jmp        -22          ; to [4]
4153  D9000000           [26] loadk      3   0        ; 0
4157  19010200           [27] loadk      4   8        ; "SystemStage.ModEndCapRight"
415B  52018001           [28] move       5   3      
415F  82400102           [29] concat     2   4   5  
4163  1D810000           [30] getglobal  4   2        ; mMovie
4167  24C14002           [31] self       4   4   259  ; 1803241227
416B  92010001           [32] move       6   2      
416F  22818001           [33] call       4   3   2  
4173  52000002           [34] move       1   4      
4177  C300C001           [35] add        3   3   256  ; 0
fail op	35
417B  6300C100           [36] close      1  
417F  1A800180           [37] jmp        7            ; to [45]
fail op	35
4183  6340C100           [38] close      1  
4187  1A000180           [39] jmp        5            ; to [45]
418B  1D810100           [40] getglobal  4   6        ; table
418F  0EC14102           [41] gettable   4   4   263  ; -431682403
4193  52010000           [42] move       5   0      
4197  92010001           [43] move       6   2      
419B  22418001           [44] call       4   3   1  
fail op	35
419F  6300C100           [45] close      1  
41A3  1A400080           [46] jmp        2            ; to [49]
fail op	35
41A7  2340C100           [47] close      0  
41AB  1A40FA7F           [48] jmp        -22          ; to [27]
41AF  19010000           [49] loadk      4   0        ; 0
41B3  4A010000           [50] len        5   0      
41B7  99010000           [51] loadk      6   0        ; 0
41BB  10410380           [52] forprep    4   14       ; to [67]
41BF  1D820000           [53] getglobal  8   2        ; mMovie
41C3  24424204           [54] self       8   8   265  ; 471456102
41C7  8EC20100           [55] gettable   10  0   7  
41CB  D9820200           [56] loadk      11  10       ; "_color"
41CF  13030000           [57] getupval   12  0      
41D3  0EC34206           [58] gettable   12  12  267  ; "Background4"
41D7  22428002           [59] call       8   5   1  
41DB  1D820000           [60] getglobal  8   2        ; mMovie
41DF  24024304           [61] self       8   8   268  ; -2013161817
41E3  8EC20100           [62] gettable   10  0   7  
41E7  D9420300           [63] loadk      11  13       ; "EndCapShadow"
41EB  19830300           [64] loadk      12  14       ; "_visible"
41EF  57030000           [65] loadbool   13  0   0    ; false
41F3  22420003           [66] call       8   6   1  
41F7  1401FC7F           [67] forloop    4   -15      ; to [53] if loop
41FB  1E008000           [68] return     0   1      
                         * constants:
41FF  0F                 sizek (15)
4200  03                 const type 3
4201  0000803F           const [0]: (0)
4205  04                 const type 4
4206  1A                 string size (26)
4207  53797374656D5374+  "SystemSt"
420F  6167652E4D6F6445+  "age.ModE"
4217  6E644361704C6566+  "ndCapLef"
421F  7400               "t\0"
                         const [1]: "SystemStage.ModEndCapLeft"
4221  04                 const type 4
4222  07                 string size (7)
4223  6D4D6F76696500     "mMovie\0"
                         const [2]: "mMovie"
422A  01                 const type 3
422B  0B477B6B           const [3]: (1803241227)
422F  00                 const type 0
                         const [4]: nil
4230  04                 const type 4
4231  0A                 string size (10)
4232  756E646566696E65+  "undefine"
423A  6400               "d\0"
                         const [5]: "undefined"
423C  04                 const type 4
423D  06                 string size (6)
423E  7461626C6500       "table\0"
                         const [6]: "table"
4244  01                 const type 3
4245  9D0C45E6           const [7]: (-431682403)
4249  04                 const type 4
424A  1B                 string size (27)
424B  53797374656D5374+  "SystemSt"
4253  6167652E4D6F6445+  "age.ModE"
425B  6E64436170526967+  "ndCapRig"
4263  687400             "ht\0"
                         const [8]: "SystemStage.ModEndCapRight"
4266  01                 const type 3
4267  66D9191C           const [9]: (471456102)
426B  04                 const type 4
426C  07                 string size (7)
426D  5F636F6C6F7200     "_color\0"
                         const [10]: "_color"
4274  04                 const type 4
4275  0C                 string size (12)
4276  4261636B67726F75+  "Backgrou"
427E  6E643400           "nd4\0"
                         const [11]: "Background4"
4282  01                 const type 3
4283  A7960188           const [12]: (-2013161817)
4287  04                 const type 4
4288  0D                 string size (13)
4289  456E644361705368+  "EndCapSh"
4291  61646F7700         "adow\0"
                         const [13]: "EndCapShadow"
4296  04                 const type 4
4297  09                 string size (9)
4298  5F76697369626C65+  "_visible"
42A0  00                 "\0"
                         const [14]: "_visible"
                         * functions:
42A1  00                 sizep (0)
                         * lines:
42A2  44                 sizelineinfo (68)
                         [pc] (line)
42A3  ED                 [01] (-19)
42A4  01                 [02] (-17)
42A5  00                 [03] (-15)
42A6  00                 [04] (-13)
42A7  EF                 [05] (-13)
42A8  01                 [06] (-13)
42A9  00                 [07] (-12)
42AA  00                 [08] (-12)
42AB  F1                 [09] (-12)
42AC  01                 [10] (-12)
42AD  00                 [11] (-12)
42AE  00                 [12] (-11)
42AF  F3                 [13] (-10)
42B0  01                 [14] (-10)
42B1  00                 [15] (-10)
42B2  00                 [16] (-10)
42B3  F3                 [17] (-9)
42B4  01                 [18] (-9)
42B5  00                 [19] (-9)
42B6  00                 [20] (-9)
42B7  F3                 [21] (-9)
42B8  01                 [22] (-7)
42B9  00                 [23] (-7)
42BA  00                 [24] (-7)
42BB  F4                 [25] (-7)
42BC  01                 [26] (-5)
42BD  00                 [27] (-3)
42BE  00                 [28] (-3)
42BF  F4                 [29] (-3)
42C0  01                 [30] (-2)
42C1  00                 [31] (-2)
42C2  00                 [32] (-2)
42C3  F4                 [33] (-2)
42C4  01                 [34] (-2)
42C5  00                 [35] (-1)
42C6  00                 [36] (0)
42C7  F4                 [37] (0)
42C8  01                 [38] (0)
42C9  00                 [39] (0)
42CA  00                 [40] (1)
42CB  F4                 [41] (1)
42CC  01                 [42] (1)
42CD  00                 [43] (1)
42CE  00                 [44] (1)
42CF  F5                 [45] (3)
42D0  01                 [46] (3)
42D1  00                 [47] (3)
42D2  00                 [48] (3)
42D3  F6                 [49] (5)
42D4  01                 [50] (5)
42D5  00                 [51] (5)
42D6  00                 [52] (5)
42D7  F6                 [53] (6)
42D8  01                 [54] (6)
42D9  00                 [55] (6)
42DA  00                 [56] (6)
42DB  F6                 [57] (6)
42DC  01                 [58] (6)
42DD  00                 [59] (6)
42DE  00                 [60] (7)
42DF  F6                 [61] (7)
42E0  01                 [62] (7)
42E1  00                 [63] (7)
42E2  00                 [64] (7)
42E3  F7                 [65] (7)
42E4  01                 [66] (7)
42E5  00                 [67] (5)
42E6  00                 [68] (10)
                         * locals:
43B3  00                 sizelocvars (0)
                         * upvalues:
43B4  00                 sizeupvalues (0)
                         ** end of function **

                         
43B5                     ** function [18] definition (level 2)
                         ** start of function **
43B5  00                 string size (0)
                         source name: (none)
43B7  04                 line defined (524)
43B8  92                 last line defined (530)
43B9  04                 nups (0)
43BA  00                 numparams (4)
43BB  04                 is_vararg (0)
43BC  00                 maxstacksize (12)
                         * code:
43BE  19                 sizecode (25)
43BF  1D010000           [01] getglobal  4   0        ; -174740002
43C3  5D410000           [02] getglobal  5   1        ; mMovie
43C7  6481C002           [03] self       5   5   258  ; 1803241227
43CB  D2018000           [04] move       7   1      
43CF  19C20000           [05] loadk      8   3        ; "textWidth"
43D3  62010002           [06] call       5   4   0  
43D7  22810000           [07] call       4   0   2  
43DB  4D010101           [08] sub        5   2   4  
43DF  4D01C102           [09] sub        5   5   260  ; 0
43E3  9D410000           [10] getglobal  6   1        ; mMovie
43E7  A4414103           [11] self       6   6   261  ; -2013161817
43EB  12020000           [12] move       8   0      
43EF  59820100           [13] loadk      9   6        ; "BorderExtenderLeft"
43F3  99C20100           [14] loadk      10  7        ; "_width"
43F7  C4C28002           [15] mul        11  5   3  
43FB  A2410003           [16] call       6   6   1  
43FF  9D410000           [17] getglobal  6   1        ; mMovie
4403  A4414103           [18] self       6   6   261  ; -2013161817
4407  12020000           [19] move       8   0      
440B  59020200           [20] loadk      9   8        ; "BorderExtenderRight"
440F  99C20100           [21] loadk      10  7        ; "_width"
4413  CDC28084           [22] sub        11  265 3    ; 0
4417  C4C28202           [23] mul        11  5   11 
441B  A2410003           [24] call       6   6   1  
441F  1E008000           [25] return     0   1      
                         * constants:
4423  0A                 sizek (10)
4424  01                 const type 3
4425  DEAD95F5           const [0]: (-174740002)
4429  04                 const type 4
442A  07                 string size (7)
442B  6D4D6F76696500     "mMovie\0"
                         const [1]: "mMovie"
4432  01                 const type 3
4433  0B477B6B           const [2]: (1803241227)
4437  04                 const type 4
4438  0A                 string size (10)
4439  7465787457696474+  "textWidt"
4441  6800               "h\0"
                         const [3]: "textWidth"
4443  03                 const type 3
4444  0000F041           const [4]: (0)
4448  01                 const type 3
4449  A7960188           const [5]: (-2013161817)
444D  04                 const type 4
444E  13                 string size (19)
444F  426F726465724578+  "BorderEx"
4457  74656E6465724C65+  "tenderLe"
445F  667400             "ft\0"
                         const [6]: "BorderExtenderLeft"
4462  04                 const type 4
4463  07                 string size (7)
4464  5F776964746800     "_width\0"
                         const [7]: "_width"
446B  04                 const type 4
446C  14                 string size (20)
446D  426F726465724578+  "BorderEx"
4475  74656E6465725269+  "tenderRi"
447D  67687400           "ght\0"
                         const [8]: "BorderExtenderRight"
4481  03                 const type 3
4482  0000803F           const [9]: (0)
                         * functions:
4486  00                 sizep (0)
                         * lines:
4487  19                 sizelineinfo (25)
                         [pc] (line)
4488  0D                 [01] (13)
4489  02                 [02] (13)
448A  00                 [03] (13)
448B  00                 [04] (13)
448C  0D                 [05] (13)
448D  02                 [06] (13)
448E  00                 [07] (13)
448F  00                 [08] (14)
4490  0D                 [09] (14)
4491  02                 [10] (16)
4492  00                 [11] (16)
4493  00                 [12] (16)
4494  0D                 [13] (16)
4495  02                 [14] (16)
4496  00                 [15] (16)
4497  00                 [16] (16)
4498  0D                 [17] (17)
4499  02                 [18] (17)
449A  00                 [19] (17)
449B  00                 [20] (17)
449C  0D                 [21] (17)
449D  02                 [22] (17)
449E  00                 [23] (17)
449F  00                 [24] (17)
44A0  0D                 [25] (18)
                         * locals:
44EC  00                 sizelocvars (0)
                         * upvalues:
44ED  00                 sizeupvalues (0)
                         ** end of function **

                         
44EE                     ** function [19] definition (level 2)
                         ** start of function **
44EE  00                 string size (0)
                         source name: (none)
44F0  04                 line defined (532)
44F1  C2                 last line defined (578)
44F2  04                 nups (2)
44F3  02                 numparams (0)
44F4  00                 is_vararg (0)
44F5  00                 maxstacksize (5)
                         * code:
44F8  01                 sizecode (202)
44F9  1D000000           [001] getglobal  0   0        ; mMovie
44FD  24404000           [002] self       0   0   257  ; 471456102
4501  99800000           [003] loadk      2   2        ; "SystemStage.Dividers.WeaponryTitle"
4505  D9C00000           [004] loadk      3   3        ; "textColor"
4509  13010000           [005] getupval   4   0      
450D  0E014102           [006] gettable   4   4   260  ; "FloatingContent"
4511  22408002           [007] call       0   5   1  
4515  1D000000           [008] getglobal  0   0        ; mMovie
4519  24404000           [009] self       0   0   257  ; 471456102
451D  99400100           [010] loadk      2   5        ; "SystemStage.Dividers.TacticalTitle"
4521  D9C00000           [011] loadk      3   3        ; "textColor"
4525  13010000           [012] getupval   4   0      
4529  0E014102           [013] gettable   4   4   260  ; "FloatingContent"
452D  22408002           [014] call       0   5   1  
4531  1D000000           [015] getglobal  0   0        ; mMovie
4535  24404000           [016] self       0   0   257  ; 471456102
4539  99800100           [017] loadk      2   6        ; "SystemStage.Dividers.BattleTitle"
453D  D9C00000           [018] loadk      3   3        ; "textColor"
4541  13010000           [019] getupval   4   0      
4545  0E014102           [020] gettable   4   4   260  ; "FloatingContent"
4549  22408002           [021] call       0   5   1  
454D  1D000000           [022] getglobal  0   0        ; mMovie
4551  24404000           [023] self       0   0   257  ; 471456102
4555  99C00100           [024] loadk      2   7        ; "SystemStage.Dividers.SystemsTitle"
4559  D9C00000           [025] loadk      3   3        ; "textColor"
455D  13010000           [026] getupval   4   0      
4561  0E014102           [027] gettable   4   4   260  ; "FloatingContent"
4565  22408002           [028] call       0   5   1  
4569  1D000000           [029] getglobal  0   0        ; mMovie
456D  24404000           [030] self       0   0   257  ; 471456102
4571  99000200           [031] loadk      2   8        ; "SystemStage.DividerDiamonds"
4575  D9400200           [032] loadk      3   9        ; "_color"
4579  13010000           [033] getupval   4   0      
457D  0E014102           [034] gettable   4   4   260  ; "FloatingContent"
4581  22408002           [035] call       0   5   1  
4585  1D000000           [036] getglobal  0   0        ; mMovie
4589  24404000           [037] self       0   0   257  ; 471456102
458D  99800200           [038] loadk      2   10       ; "SystemStage.Dividers.DividerLinesGhost"
4591  D9C00200           [039] loadk      3   11       ; "_z"
4595  19010300           [040] loadk      4   12       ; 0
4599  22408002           [041] call       0   5   1  
459D  1D000000           [042] getglobal  0   0        ; mMovie
45A1  24404000           [043] self       0   0   257  ; 471456102
45A5  99400300           [044] loadk      2   13       ; "SystemStage.Dividers.DividerLines"
45A9  D9800300           [045] loadk      3   14       ; "_alpha"
45AD  19C10300           [046] loadk      4   15       ; 0
45B1  22408002           [047] call       0   5   1  
45B5  1D000000           [048] getglobal  0   0        ; mMovie
45B9  24404000           [049] self       0   0   257  ; 471456102
45BD  99800200           [050] loadk      2   10       ; "SystemStage.Dividers.DividerLinesGhost"
45C1  D9800300           [051] loadk      3   14       ; "_alpha"
45C5  19010400           [052] loadk      4   16       ; 0
45C9  22408002           [053] call       0   5   1  
45CD  1D000000           [054] getglobal  0   0        ; mMovie
45D1  24404000           [055] self       0   0   257  ; 471456102
45D5  99400300           [056] loadk      2   13       ; "SystemStage.Dividers.DividerLines"
45D9  D9400200           [057] loadk      3   9        ; "_color"
45DD  13010000           [058] getupval   4   0      
45E1  0E014102           [059] gettable   4   4   260  ; "FloatingContent"
45E5  22408002           [060] call       0   5   1  
45E9  1D000000           [061] getglobal  0   0        ; mMovie
45ED  24404000           [062] self       0   0   257  ; 471456102
45F1  99800200           [063] loadk      2   10       ; "SystemStage.Dividers.DividerLinesGhost"
45F5  D9400200           [064] loadk      3   9        ; "_color"
45F9  13010000           [065] getupval   4   0      
45FD  0E014102           [066] gettable   4   4   260  ; "FloatingContent"
4601  22408002           [067] call       0   5   1  
4605  1D000000           [068] getglobal  0   0        ; mMovie
4609  24404400           [069] self       0   0   273  ; 386043535
460D  99800400           [070] loadk      2   18       ; "SystemStage.Dividers.WeaponryTitle.text"
4611  D9C00400           [071] loadk      3   19       ; "/Lotus/Language/Railjack/Systems_Weaponry"
4615  22400002           [072] call       0   4   1  
4619  1D000000           [073] getglobal  0   0        ; mMovie
461D  24404400           [074] self       0   0   273  ; 386043535
4621  99000500           [075] loadk      2   20       ; "SystemStage.Dividers.TacticalTitle.text"
4625  D9400500           [076] loadk      3   21       ; "/Lotus/Language/Railjack/Systems_Tactical"
4629  22400002           [077] call       0   4   1  
462D  1D000000           [078] getglobal  0   0        ; mMovie
4631  24404400           [079] self       0   0   273  ; 386043535
4635  99800500           [080] loadk      2   22       ; "SystemStage.Dividers.BattleTitle.text"
4639  D9C00500           [081] loadk      3   23       ; "/Lotus/Language/Railjack/Systems_Battle"
463D  22400002           [082] call       0   4   1  
4641  1D000000           [083] getglobal  0   0        ; mMovie
4645  24404400           [084] self       0   0   273  ; 386043535
4649  99000600           [085] loadk      2   24       ; "SystemStage.Dividers.SystemsTitle.text"
464D  D9400600           [086] loadk      3   25       ; "/Lotus/Language/Railjack/Systems_Systems"
4651  22400002           [087] call       0   4   1  
4655  13008000           [088] getupval   0   1      
4659  59800600           [089] loadk      1   26       ; "SystemStage.Dividers.DividerLines.TopLeftBorder"
465D  99800000           [090] loadk      2   2        ; "SystemStage.Dividers.WeaponryTitle"
4661  D9C00600           [091] loadk      3   27       ; 0
4665  19010700           [092] loadk      4   28       ; -61
4669  22408002           [093] call       0   5   1  
466D  13008000           [094] getupval   0   1      
4671  59400700           [095] loadk      1   29       ; "SystemStage.Dividers.DividerLines.TopRightBorder"
4675  99400100           [096] loadk      2   5        ; "SystemStage.Dividers.TacticalTitle"
4679  D9800700           [097] loadk      3   30       ; 0
467D  19C10700           [098] loadk      4   31       ; 20
4681  22408002           [099] call       0   5   1  
4685  13008000           [100] getupval   0   1      
4689  59000800           [101] loadk      1   32       ; "SystemStage.Dividers.DividerLines.BottomLeftBorder"
468D  99800100           [102] loadk      2   6        ; "SystemStage.Dividers.BattleTitle"
4691  D9400800           [103] loadk      3   33       ; 0
4695  19810800           [104] loadk      4   34       ; -82
4699  22408002           [105] call       0   5   1  
469D  13008000           [106] getupval   0   1      
46A1  59C00800           [107] loadk      1   35       ; "SystemStage.Dividers.DividerLines.BottomRightBorder"
46A5  99C00100           [108] loadk      2   7        ; "SystemStage.Dividers.SystemsTitle"
46A9  D9800700           [109] loadk      3   30       ; 0
46AD  19C10700           [110] loadk      4   31       ; 20
46B1  22408002           [111] call       0   5   1  
46B5  1D000000           [112] getglobal  0   0        ; mMovie
46B9  24004900           [113] self       0   0   292  ; 2115970775
46BD  99400900           [114] loadk      2   37       ; "SystemStage.Dividers.DividerLines.TopRightBorder.DiagonalCorner"
46C1  DD800900           [115] getglobal  3   38       ; linesMaterial
46C5  22400002           [116] call       0   4   1  
46C9  1D000000           [117] getglobal  0   0        ; mMovie
46CD  24004900           [118] self       0   0   292  ; 2115970775
46D1  99C00900           [119] loadk      2   39       ; "SystemStage.Dividers.DividerLines.TopRightBorder.BorderExtenderRight"
46D5  DD800900           [120] getglobal  3   38       ; linesMaterial
46D9  22400002           [121] call       0   4   1  
46DD  1D000000           [122] getglobal  0   0        ; mMovie
46E1  24004900           [123] self       0   0   292  ; 2115970775
46E5  99000A00           [124] loadk      2   40       ; "SystemStage.Dividers.DividerLines.TopRightBorder.BorderExtenderLeft"
46E9  DD800900           [125] getglobal  3   38       ; linesMaterial
46ED  22400002           [126] call       0   4   1  
46F1  1D000000           [127] getglobal  0   0        ; mMovie
46F5  24004900           [128] self       0   0   292  ; 2115970775
46F9  99400A00           [129] loadk      2   41       ; "SystemStage.Dividers.DividerLines.TopRightBorder.BorderEndCap"
46FD  DD800900           [130] getglobal  3   38       ; linesMaterial
4701  22400002           [131] call       0   4   1  
4705  1D000000           [132] getglobal  0   0        ; mMovie
4709  24004900           [133] self       0   0   292  ; 2115970775
470D  99800A00           [134] loadk      2   42       ; "SystemStage.Dividers.DividerLines.BottomRightBorder.DiagonalCorner"
4711  DD800900           [135] getglobal  3   38       ; linesMaterial
4715  22400002           [136] call       0   4   1  
4719  1D000000           [137] getglobal  0   0        ; mMovie
471D  24004900           [138] self       0   0   292  ; 2115970775
4721  99C00A00           [139] loadk      2   43       ; "SystemStage.Dividers.DividerLines.BottomRightBorder.BorderExtenderRight"
4725  DD800900           [140] getglobal  3   38       ; linesMaterial
4729  22400002           [141] call       0   4   1  
472D  1D000000           [142] getglobal  0   0        ; mMovie
4731  24004900           [143] self       0   0   292  ; 2115970775
4735  99000B00           [144] loadk      2   44       ; "SystemStage.Dividers.DividerLines.BottomRightBorder.BorderExtenderLeft"
4739  DD800900           [145] getglobal  3   38       ; linesMaterial
473D  22400002           [146] call       0   4   1  
4741  1D000000           [147] getglobal  0   0        ; mMovie
4745  24004900           [148] self       0   0   292  ; 2115970775
4749  99400B00           [149] loadk      2   45       ; "SystemStage.Dividers.DividerLines.BottomRightBorder.BorderEndCap"
474D  DD800900           [150] getglobal  3   38       ; linesMaterial
4751  22400002           [151] call       0   4   1  
4755  1D000000           [152] getglobal  0   0        ; mMovie
4759  24004900           [153] self       0   0   292  ; 2115970775
475D  99800B00           [154] loadk      2   46       ; "SystemStage.Dividers.DividerLines.TopLeftBorder.DiagonalCorner"
4761  DD800900           [155] getglobal  3   38       ; linesMaterial
4765  22400002           [156] call       0   4   1  
4769  1D000000           [157] getglobal  0   0        ; mMovie
476D  24004900           [158] self       0   0   292  ; 2115970775
4771  99C00B00           [159] loadk      2   47       ; "SystemStage.Dividers.DividerLines.TopLeftBorder.BorderExtenderRight"
4775  DD800900           [160] getglobal  3   38       ; linesMaterial
4779  22400002           [161] call       0   4   1  
477D  1D000000           [162] getglobal  0   0        ; mMovie
4781  24004900           [163] self       0   0   292  ; 2115970775
4785  99000C00           [164] loadk      2   48       ; "SystemStage.Dividers.DividerLines.TopLeftBorder.BorderExtenderLeft"
4789  DD800900           [165] getglobal  3   38       ; linesMaterial
478D  22400002           [166] call       0   4   1  
4791  1D000000           [167] getglobal  0   0        ; mMovie
4795  24004900           [168] self       0   0   292  ; 2115970775
4799  99400C00           [169] loadk      2   49       ; "SystemStage.Dividers.DividerLines.TopLeftBorder.BorderEndCap"
479D  DD800900           [170] getglobal  3   38       ; linesMaterial
47A1  22400002           [171] call       0   4   1  
47A5  1D000000           [172] getglobal  0   0        ; mMovie
47A9  24004900           [173] self       0   0   292  ; 2115970775
47AD  99800C00           [174] loadk      2   50       ; "SystemStage.Dividers.DividerLines.BottomLeftBorder.DiagonalCorner"
47B1  DD800900           [175] getglobal  3   38       ; linesMaterial
47B5  22400002           [176] call       0   4   1  
47B9  1D000000           [177] getglobal  0   0        ; mMovie
47BD  24004900           [178] self       0   0   292  ; 2115970775
47C1  99C00C00           [179] loadk      2   51       ; "SystemStage.Dividers.DividerLines.BottomLeftBorder.BorderExtenderRight"
47C5  DD800900           [180] getglobal  3   38       ; linesMaterial
47C9  22400002           [181] call       0   4   1  
47CD  1D000000           [182] getglobal  0   0        ; mMovie
47D1  24004900           [183] self       0   0   292  ; 2115970775
47D5  99000D00           [184] loadk      2   52       ; "SystemStage.Dividers.DividerLines.BottomLeftBorder.BorderExtenderLeft"
47D9  DD800900           [185] getglobal  3   38       ; linesMaterial
47DD  22400002           [186] call       0   4   1  
47E1  1D000000           [187] getglobal  0   0        ; mMovie
47E5  24004900           [188] self       0   0   292  ; 2115970775
47E9  99400D00           [189] loadk      2   53       ; "SystemStage.Dividers.DividerLines.BottomLeftBorder.BorderEndCap"
47ED  DD800900           [190] getglobal  3   38       ; linesMaterial
47F1  22400002           [191] call       0   4   1  
47F5  1D000000           [192] getglobal  0   0        ; mMovie
47F9  24004900           [193] self       0   0   292  ; 2115970775
47FD  99800D00           [194] loadk      2   54       ; "SystemStage.Dividers.DividerLines.MiddleDividerLeft"
4801  DD800900           [195] getglobal  3   38       ; linesMaterial
4805  22400002           [196] call       0   4   1  
4809  1D000000           [197] getglobal  0   0        ; mMovie
480D  24004900           [198] self       0   0   292  ; 2115970775
4811  99C00D00           [199] loadk      2   55       ; "SystemStage.Dividers.DividerLines.MiddleDividerRight"
4815  DD800900           [200] getglobal  3   38       ; linesMaterial
4819  22400002           [201] call       0   4   1  
481D  1E008000           [202] return     0   1      
                         * constants:
4821  38                 sizek (56)
4822  04                 const type 4
4823  07                 string size (7)
4824  6D4D6F76696500     "mMovie\0"
                         const [0]: "mMovie"
482B  01                 const type 3
482C  66D9191C           const [1]: (471456102)
4830  04                 const type 4
4831  23                 string size (35)
4832  53797374656D5374+  "SystemSt"
483A  6167652E44697669+  "age.Divi"
4842  646572732E576561+  "ders.Wea"
484A  706F6E7279546974+  "ponryTit"
4852  6C6500             "le\0"
                         const [2]: "SystemStage.Dividers.WeaponryTitle"
4855  04                 const type 4
4856  0A                 string size (10)
4857  74657874436F6C6F+  "textColo"
485F  7200               "r\0"
                         const [3]: "textColor"
4861  04                 const type 4
4862  10                 string size (16)
4863  466C6F6174696E67+  "Floating"
486B  436F6E74656E7400   "Content\0"
                         const [4]: "FloatingContent"
4873  04                 const type 4
4874  23                 string size (35)
4875  53797374656D5374+  "SystemSt"
487D  6167652E44697669+  "age.Divi"
4885  646572732E546163+  "ders.Tac"
488D  746963616C546974+  "ticalTit"
4895  6C6500             "le\0"
                         const [5]: "SystemStage.Dividers.TacticalTitle"
4898  04                 const type 4
4899  21                 string size (33)
489A  53797374656D5374+  "SystemSt"
48A2  6167652E44697669+  "age.Divi"
48AA  646572732E426174+  "ders.Bat"
48B2  746C655469746C65+  "tleTitle"
48BA  00                 "\0"
                         const [6]: "SystemStage.Dividers.BattleTitle"
48BB  04                 const type 4
48BC  22                 string size (34)
48BD  53797374656D5374+  "SystemSt"
48C5  6167652E44697669+  "age.Divi"
48CD  646572732E537973+  "ders.Sys"
48D5  74656D735469746C+  "temsTitl"
48DD  6500               "e\0"
                         const [7]: "SystemStage.Dividers.SystemsTitle"
48DF  04                 const type 4
48E0  1C                 string size (28)
48E1  53797374656D5374+  "SystemSt"
48E9  6167652E44697669+  "age.Divi"
48F1  6465724469616D6F+  "derDiamo"
48F9  6E647300           "nds\0"
                         const [8]: "SystemStage.DividerDiamonds"
48FD  04                 const type 4
48FE  07                 string size (7)
48FF  5F636F6C6F7200     "_color\0"
                         const [9]: "_color"
4906  04                 const type 4
4907  27                 string size (39)
4908  53797374656D5374+  "SystemSt"
4910  6167652E44697669+  "age.Divi"
4918  646572732E446976+  "ders.Div"
4920  696465724C696E65+  "iderLine"
4928  7347686F737400     "sGhost\0"
                         const [10]: "SystemStage.Dividers.DividerLinesGhost"
492F  04                 const type 4
4930  03                 string size (3)
4931  5F7A00             "_z\0"
                         const [11]: "_z"
4934  03                 const type 3
4935  00002F44           const [12]: (0)
4939  04                 const type 4
493A  22                 string size (34)
493B  53797374656D5374+  "SystemSt"
4943  6167652E44697669+  "age.Divi"
494B  646572732E446976+  "ders.Div"
4953  696465724C696E65+  "iderLine"
495B  7300               "s\0"
                         const [13]: "SystemStage.Dividers.DividerLines"
495D  04                 const type 4
495E  07                 string size (7)
495F  5F616C70686100     "_alpha\0"
                         const [14]: "_alpha"
4966  03                 const type 3
4967  00004842           const [15]: (0)
496B  03                 const type 3
496C  00007041           const [16]: (0)
4970  01                 const type 3
4971  8F8E0217           const [17]: (386043535)
4975  04                 const type 4
4976  28                 string size (40)
4977  53797374656D5374+  "SystemSt"
497F  6167652E44697669+  "age.Divi"
4987  646572732E576561+  "ders.Wea"
498F  706F6E7279546974+  "ponryTit"
4997  6C652E7465787400   "le.text\0"
                         const [18]: "SystemStage.Dividers.WeaponryTitle.text"
499F  04                 const type 4
49A0  2A                 string size (42)
49A1  2F4C6F7475732F4C+  "/Lotus/L"
49A9  616E67756167652F+  "anguage/"
49B1  5261696C6A61636B+  "Railjack"
49B9  2F53797374656D73+  "/Systems"
49C1  5F576561706F6E72+  "_Weaponr"
49C9  7900               "y\0"
                         const [19]: "/Lotus/Language/Railjack/Systems_Weaponry"
49CB  04                 const type 4
49CC  28                 string size (40)
49CD  53797374656D5374+  "SystemSt"
49D5  6167652E44697669+  "age.Divi"
49DD  646572732E546163+  "ders.Tac"
49E5  746963616C546974+  "ticalTit"
49ED  6C652E7465787400   "le.text\0"
                         const [20]: "SystemStage.Dividers.TacticalTitle.text"
49F5  04                 const type 4
49F6  2A                 string size (42)
49F7  2F4C6F7475732F4C+  "/Lotus/L"
49FF  616E67756167652F+  "anguage/"
4A07  5261696C6A61636B+  "Railjack"
4A0F  2F53797374656D73+  "/Systems"
4A17  5F54616374696361+  "_Tactica"
4A1F  6C00               "l\0"
                         const [21]: "/Lotus/Language/Railjack/Systems_Tactical"
4A21  04                 const type 4
4A22  26                 string size (38)
4A23  53797374656D5374+  "SystemSt"
4A2B  6167652E44697669+  "age.Divi"
4A33  646572732E426174+  "ders.Bat"
4A3B  746C655469746C65+  "tleTitle"
4A43  2E7465787400       ".text\0"
                         const [22]: "SystemStage.Dividers.BattleTitle.text"
4A49  04                 const type 4
4A4A  28                 string size (40)
4A4B  2F4C6F7475732F4C+  "/Lotus/L"
4A53  616E67756167652F+  "anguage/"
4A5B  5261696C6A61636B+  "Railjack"
4A63  2F53797374656D73+  "/Systems"
4A6B  5F426174746C6500   "_Battle\0"
                         const [23]: "/Lotus/Language/Railjack/Systems_Battle"
4A73  04                 const type 4
4A74  27                 string size (39)
4A75  53797374656D5374+  "SystemSt"
4A7D  6167652E44697669+  "age.Divi"
4A85  646572732E537973+  "ders.Sys"
4A8D  74656D735469746C+  "temsTitl"
4A95  652E7465787400     "e.text\0"
                         const [24]: "SystemStage.Dividers.SystemsTitle.text"
4A9C  04                 const type 4
4A9D  29                 string size (41)
4A9E  2F4C6F7475732F4C+  "/Lotus/L"
4AA6  616E67756167652F+  "anguage/"
4AAE  5261696C6A61636B+  "Railjack"
4AB6  2F53797374656D73+  "/Systems"
4ABE  5F53797374656D73+  "_Systems"
4AC6  00                 "\0"
                         const [25]: "/Lotus/Language/Railjack/Systems_Systems"
4AC7  04                 const type 4
4AC8  30                 string size (48)
4AC9  53797374656D5374+  "SystemSt"
4AD1  6167652E44697669+  "age.Divi"
4AD9  646572732E446976+  "ders.Div"
4AE1  696465724C696E65+  "iderLine"
4AE9  732E546F704C6566+  "s.TopLef"
4AF1  74426F7264657200   "tBorder\0"
                         const [26]: "SystemStage.Dividers.DividerLines.TopLeftBorder"
4AF9  03                 const type 3
4AFA  00005243           const [27]: (0)
4AFE  03                 const type 3
4AFF  C3F5283F           const [28]: (-61)
4B03  04                 const type 4
4B04  31                 string size (49)
4B05  53797374656D5374+  "SystemSt"
4B0D  6167652E44697669+  "age.Divi"
4B15  646572732E446976+  "ders.Div"
4B1D  696465724C696E65+  "iderLine"
4B25  732E546F70526967+  "s.TopRig"
4B2D  6874426F72646572+  "htBorder"
4B35  00                 "\0"
                         const [29]: "SystemStage.Dividers.DividerLines.TopRightBorder"
4B36  03                 const type 3
4B37  00000644           const [30]: (0)
4B3B  03                 const type 3
4B3C  14AE073F           const [31]: (20)
4B40  04                 const type 4
4B41  33                 string size (51)
4B42  53797374656D5374+  "SystemSt"
4B4A  6167652E44697669+  "age.Divi"
4B52  646572732E446976+  "ders.Div"
4B5A  696465724C696E65+  "iderLine"
4B62  732E426F74746F6D+  "s.Bottom"
4B6A  4C656674426F7264+  "LeftBord"
4B72  657200             "er\0"
                         const [32]: "SystemStage.Dividers.DividerLines.BottomLeftBorder"
4B75  03                 const type 3
4B76  00005143           const [33]: (0)
4B7A  03                 const type 3
4B7B  AE47213F           const [34]: (-82)
4B7F  04                 const type 4
4B80  34                 string size (52)
4B81  53797374656D5374+  "SystemSt"
4B89  6167652E44697669+  "age.Divi"
4B91  646572732E446976+  "ders.Div"
4B99  696465724C696E65+  "iderLine"
4BA1  732E426F74746F6D+  "s.Bottom"
4BA9  5269676874426F72+  "RightBor"
4BB1  64657200           "der\0"
                         const [35]: "SystemStage.Dividers.DividerLines.BottomRightBorder"
4BB5  01                 const type 3
4BB6  D7261F7E           const [36]: (2115970775)
4BBA  04                 const type 4
4BBB  40                 string size (64)
4BBC  53797374656D5374+  "SystemSt"
4BC4  6167652E44697669+  "age.Divi"
4BCC  646572732E446976+  "ders.Div"
4BD4  696465724C696E65+  "iderLine"
4BDC  732E546F70526967+  "s.TopRig"
4BE4  6874426F72646572+  "htBorder"
4BEC  2E446961676F6E61+  ".Diagona"
4BF4  6C436F726E657200   "lCorner\0"
                         const [37]: "SystemStage.Dividers.DividerLines.TopRightBorder.DiagonalCorner"
4BFC  04                 const type 4
4BFD  0E                 string size (14)
4BFE  6C696E65734D6174+  "linesMat"
4C06  657269616C00       "erial\0"
                         const [38]: "linesMaterial"
4C0C  04                 const type 4
4C0D  45                 string size (69)
4C0E  53797374656D5374+  "SystemSt"
4C16  6167652E44697669+  "age.Divi"
4C1E  646572732E446976+  "ders.Div"
4C26  696465724C696E65+  "iderLine"
4C2E  732E546F70526967+  "s.TopRig"
4C36  6874426F72646572+  "htBorder"
4C3E  2E426F7264657245+  ".BorderE"
4C46  7874656E64657252+  "xtenderR"
4C4E  6967687400         "ight\0"
                         const [39]: "SystemStage.Dividers.DividerLines.TopRightBorder.BorderExtenderRight"
4C53  04                 const type 4
4C54  44                 string size (68)
4C55  53797374656D5374+  "SystemSt"
4C5D  6167652E44697669+  "age.Divi"
4C65  646572732E446976+  "ders.Div"
4C6D  696465724C696E65+  "iderLine"
4C75  732E546F70526967+  "s.TopRig"
4C7D  6874426F72646572+  "htBorder"
4C85  2E426F7264657245+  ".BorderE"
4C8D  7874656E6465724C+  "xtenderL"
4C95  65667400           "eft\0"
                         const [40]: "SystemStage.Dividers.DividerLines.TopRightBorder.BorderExtenderLeft"
4C99  04                 const type 4
4C9A  3E                 string size (62)
4C9B  53797374656D5374+  "SystemSt"
4CA3  6167652E44697669+  "age.Divi"
4CAB  646572732E446976+  "ders.Div"
4CB3  696465724C696E65+  "iderLine"
4CBB  732E546F70526967+  "s.TopRig"
4CC3  6874426F72646572+  "htBorder"
4CCB  2E426F7264657245+  ".BorderE"
4CD3  6E6443617000       "ndCap\0"
                         const [41]: "SystemStage.Dividers.DividerLines.TopRightBorder.BorderEndCap"
4CD9  04                 const type 4
4CDA  43                 string size (67)
4CDB  53797374656D5374+  "SystemSt"
4CE3  6167652E44697669+  "age.Divi"
4CEB  646572732E446976+  "ders.Div"
4CF3  696465724C696E65+  "iderLine"
4CFB  732E426F74746F6D+  "s.Bottom"
4D03  5269676874426F72+  "RightBor"
4D0B  6465722E44696167+  "der.Diag"
4D13  6F6E616C436F726E+  "onalCorn"
4D1B  657200             "er\0"
                         const [42]: "SystemStage.Dividers.DividerLines.BottomRightBorder.DiagonalCorner"
4D1E  04                 const type 4
4D1F  48                 string size (72)
4D20  53797374656D5374+  "SystemSt"
4D28  6167652E44697669+  "age.Divi"
4D30  646572732E446976+  "ders.Div"
4D38  696465724C696E65+  "iderLine"
4D40  732E426F74746F6D+  "s.Bottom"
4D48  5269676874426F72+  "RightBor"
4D50  6465722E426F7264+  "der.Bord"
4D58  6572457874656E64+  "erExtend"
4D60  6572526967687400   "erRight\0"
                         const [43]: "SystemStage.Dividers.DividerLines.BottomRightBorder.BorderExtenderRight"
4D68  04                 const type 4
4D69  47                 string size (71)
4D6A  53797374656D5374+  "SystemSt"
4D72  6167652E44697669+  "age.Divi"
4D7A  646572732E446976+  "ders.Div"
4D82  696465724C696E65+  "iderLine"
4D8A  732E426F74746F6D+  "s.Bottom"
4D92  5269676874426F72+  "RightBor"
4D9A  6465722E426F7264+  "der.Bord"
4DA2  6572457874656E64+  "erExtend"
4DAA  65724C65667400     "erLeft\0"
                         const [44]: "SystemStage.Dividers.DividerLines.BottomRightBorder.BorderExtenderLeft"
4DB1  04                 const type 4
4DB2  41                 string size (65)
4DB3  53797374656D5374+  "SystemSt"
4DBB  6167652E44697669+  "age.Divi"
4DC3  646572732E446976+  "ders.Div"
4DCB  696465724C696E65+  "iderLine"
4DD3  732E426F74746F6D+  "s.Bottom"
4DDB  5269676874426F72+  "RightBor"
4DE3  6465722E426F7264+  "der.Bord"
4DEB  6572456E64436170+  "erEndCap"
4DF3  00                 "\0"
                         const [45]: "SystemStage.Dividers.DividerLines.BottomRightBorder.BorderEndCap"
4DF4  04                 const type 4
4DF5  3F                 string size (63)
4DF6  53797374656D5374+  "SystemSt"
4DFE  6167652E44697669+  "age.Divi"
4E06  646572732E446976+  "ders.Div"
4E0E  696465724C696E65+  "iderLine"
4E16  732E546F704C6566+  "s.TopLef"
4E1E  74426F726465722E+  "tBorder."
4E26  446961676F6E616C+  "Diagonal"
4E2E  436F726E657200     "Corner\0"
                         const [46]: "SystemStage.Dividers.DividerLines.TopLeftBorder.DiagonalCorner"
4E35  04                 const type 4
4E36  44                 string size (68)
4E37  53797374656D5374+  "SystemSt"
4E3F  6167652E44697669+  "age.Divi"
4E47  646572732E446976+  "ders.Div"
4E4F  696465724C696E65+  "iderLine"
4E57  732E546F704C6566+  "s.TopLef"
4E5F  74426F726465722E+  "tBorder."
4E67  426F726465724578+  "BorderEx"
4E6F  74656E6465725269+  "tenderRi"
4E77  67687400           "ght\0"
                         const [47]: "SystemStage.Dividers.DividerLines.TopLeftBorder.BorderExtenderRight"
4E7B  04                 const type 4
4E7C  43                 string size (67)
4E7D  53797374656D5374+  "SystemSt"
4E85  6167652E44697669+  "age.Divi"
4E8D  646572732E446976+  "ders.Div"
4E95  696465724C696E65+  "iderLine"
4E9D  732E546F704C6566+  "s.TopLef"
4EA5  74426F726465722E+  "tBorder."
4EAD  426F726465724578+  "BorderEx"
4EB5  74656E6465724C65+  "tenderLe"
4EBD  667400             "ft\0"
                         const [48]: "SystemStage.Dividers.DividerLines.TopLeftBorder.BorderExtenderLeft"
4EC0  04                 const type 4
4EC1  3D                 string size (61)
4EC2  53797374656D5374+  "SystemSt"
4ECA  6167652E44697669+  "age.Divi"
4ED2  646572732E446976+  "ders.Div"
4EDA  696465724C696E65+  "iderLine"
4EE2  732E546F704C6566+  "s.TopLef"
4EEA  74426F726465722E+  "tBorder."
4EF2  426F72646572456E+  "BorderEn"
4EFA  6443617000         "dCap\0"
                         const [49]: "SystemStage.Dividers.DividerLines.TopLeftBorder.BorderEndCap"
4EFF  04                 const type 4
4F00  42                 string size (66)
4F01  53797374656D5374+  "SystemSt"
4F09  6167652E44697669+  "age.Divi"
4F11  646572732E446976+  "ders.Div"
4F19  696465724C696E65+  "iderLine"
4F21  732E426F74746F6D+  "s.Bottom"
4F29  4C656674426F7264+  "LeftBord"
4F31  65722E446961676F+  "er.Diago"
4F39  6E616C436F726E65+  "nalCorne"
4F41  7200               "r\0"
                         const [50]: "SystemStage.Dividers.DividerLines.BottomLeftBorder.DiagonalCorner"
4F43  04                 const type 4
4F44  47                 string size (71)
4F45  53797374656D5374+  "SystemSt"
4F4D  6167652E44697669+  "age.Divi"
4F55  646572732E446976+  "ders.Div"
4F5D  696465724C696E65+  "iderLine"
4F65  732E426F74746F6D+  "s.Bottom"
4F6D  4C656674426F7264+  "LeftBord"
4F75  65722E426F726465+  "er.Borde"
4F7D  72457874656E6465+  "rExtende"
4F85  72526967687400     "rRight\0"
                         const [51]: "SystemStage.Dividers.DividerLines.BottomLeftBorder.BorderExtenderRight"
4F8C  04                 const type 4
4F8D  46                 string size (70)
4F8E  53797374656D5374+  "SystemSt"
4F96  6167652E44697669+  "age.Divi"
4F9E  646572732E446976+  "ders.Div"
4FA6  696465724C696E65+  "iderLine"
4FAE  732E426F74746F6D+  "s.Bottom"
4FB6  4C656674426F7264+  "LeftBord"
4FBE  65722E426F726465+  "er.Borde"
4FC6  72457874656E6465+  "rExtende"
4FCE  724C65667400       "rLeft\0"
                         const [52]: "SystemStage.Dividers.DividerLines.BottomLeftBorder.BorderExtenderLeft"
4FD4  04                 const type 4
4FD5  40                 string size (64)
4FD6  53797374656D5374+  "SystemSt"
4FDE  6167652E44697669+  "age.Divi"
4FE6  646572732E446976+  "ders.Div"
4FEE  696465724C696E65+  "iderLine"
4FF6  732E426F74746F6D+  "s.Bottom"
4FFE  4C656674426F7264+  "LeftBord"
5006  65722E426F726465+  "er.Borde"
500E  72456E6443617000   "rEndCap\0"
                         const [53]: "SystemStage.Dividers.DividerLines.BottomLeftBorder.BorderEndCap"
5016  04                 const type 4
5017  34                 string size (52)
5018  53797374656D5374+  "SystemSt"
5020  6167652E44697669+  "age.Divi"
5028  646572732E446976+  "ders.Div"
5030  696465724C696E65+  "iderLine"
5038  732E4D6964646C65+  "s.Middle"
5040  446976696465724C+  "DividerL"
5048  65667400           "eft\0"
                         const [54]: "SystemStage.Dividers.DividerLines.MiddleDividerLeft"
504C  04                 const type 4
504D  35                 string size (53)
504E  53797374656D5374+  "SystemSt"
5056  6167652E44697669+  "age.Divi"
505E  646572732E446976+  "ders.Div"
5066  696465724C696E65+  "iderLine"
506E  732E4D6964646C65+  "s.Middle"
5076  4469766964657252+  "DividerR"
507E  6967687400         "ight\0"
                         const [55]: "SystemStage.Dividers.DividerLines.MiddleDividerRight"
                         * functions:
5083  00                 sizep (0)
                         * lines:
5085  01                 sizelineinfo (202)
                         [pc] (line)
5086  15                 [001] (21)
5087  02                 [002] (21)
5088  00                 [003] (21)
5089  00                 [004] (21)
508A  15                 [005] (21)
508B  02                 [006] (21)
508C  00                 [007] (21)
508D  00                 [008] (22)
508E  15                 [009] (22)
508F  02                 [010] (22)
5090  00                 [011] (22)
5091  00                 [012] (22)
5092  15                 [013] (22)
5093  02                 [014] (22)
5094  00                 [015] (23)
5095  00                 [016] (23)
5096  15                 [017] (23)
5097  02                 [018] (23)
5098  00                 [019] (23)
5099  00                 [020] (23)
509A  15                 [021] (23)
509B  02                 [022] (24)
509C  00                 [023] (24)
509D  00                 [024] (24)
509E  15                 [025] (24)
509F  02                 [026] (24)
50A0  00                 [027] (24)
50A1  00                 [028] (24)
50A2  16                 [029] (25)
50A3  02                 [030] (25)
50A4  00                 [031] (25)
50A5  00                 [032] (25)
50A6  16                 [033] (25)
50A7  02                 [034] (25)
50A8  00                 [035] (25)
50A9  00                 [036] (27)
50AA  16                 [037] (27)
50AB  02                 [038] (27)
50AC  00                 [039] (27)
50AD  00                 [040] (27)
50AE  16                 [041] (27)
50AF  02                 [042] (29)
50B0  00                 [043] (29)
50B1  00                 [044] (29)
50B2  16                 [045] (29)
50B3  02                 [046] (29)
50B4  00                 [047] (29)
50B5  00                 [048] (30)
50B6  16                 [049] (30)
50B7  02                 [050] (30)
50B8  00                 [051] (30)
50B9  00                 [052] (30)
50BA  16                 [053] (30)
50BB  02                 [054] (31)
50BC  00                 [055] (31)
50BD  00                 [056] (31)
50BE  17                 [057] (31)
50BF  02                 [058] (31)
50C0  00                 [059] (31)
50C1  00                 [060] (31)
50C2  17                 [061] (32)
50C3  02                 [062] (32)
50C4  00                 [063] (32)
50C5  00                 [064] (32)
50C6  17                 [065] (32)
50C7  02                 [066] (32)
50C8  00                 [067] (32)
50C9  00                 [068] (34)
50CA  17                 [069] (34)
50CB  02                 [070] (34)
50CC  00                 [071] (34)
50CD  00                 [072] (34)
50CE  17                 [073] (35)
50CF  02                 [074] (35)
50D0  00                 [075] (35)
50D1  00                 [076] (35)
50D2  17                 [077] (35)
50D3  02                 [078] (36)
50D4  00                 [079] (36)
50D5  00                 [080] (36)
50D6  17                 [081] (36)
50D7  02                 [082] (36)
50D8  00                 [083] (37)
50D9  00                 [084] (37)
50DA  18                 [085] (37)
50DB  02                 [086] (37)
50DC  00                 [087] (37)
50DD  00                 [088] (39)
50DE  18                 [089] (39)
50DF  02                 [090] (39)
50E0  00                 [091] (39)
50E1  00                 [092] (39)
50E2  18                 [093] (39)
50E3  02                 [094] (40)
50E4  00                 [095] (40)
50E5  00                 [096] (40)
50E6  18                 [097] (40)
50E7  02                 [098] (40)
50E8  00                 [099] (40)
50E9  00                 [100] (41)
50EA  18                 [101] (41)
50EB  02                 [102] (41)
50EC  00                 [103] (41)
50ED  00                 [104] (41)
50EE  18                 [105] (41)
50EF  02                 [106] (42)
50F0  00                 [107] (42)
50F1  00                 [108] (42)
50F2  18                 [109] (42)
50F3  02                 [110] (42)
50F4  00                 [111] (42)
50F5  00                 [112] (44)
50F6  19                 [113] (44)
50F7  02                 [114] (44)
50F8  00                 [115] (44)
50F9  00                 [116] (44)
50FA  19                 [117] (45)
50FB  02                 [118] (45)
50FC  00                 [119] (45)
50FD  00                 [120] (45)
50FE  19                 [121] (45)
50FF  02                 [122] (46)
5100  00                 [123] (46)
5101  00                 [124] (46)
5102  19                 [125] (46)
5103  02                 [126] (46)
5104  00                 [127] (47)
5105  00                 [128] (47)
5106  19                 [129] (47)
5107  02                 [130] (47)
5108  00                 [131] (47)
5109  00                 [132] (49)
510A  19                 [133] (49)
510B  02                 [134] (49)
510C  00                 [135] (49)
510D  00                 [136] (49)
510E  19                 [137] (50)
510F  02                 [138] (50)
5110  00                 [139] (50)
5111  00                 [140] (50)
5112  1B                 [141] (50)
5113  02                 [142] (51)
5114  00                 [143] (51)
5115  00                 [144] (51)
5116  1B                 [145] (51)
5117  02                 [146] (51)
5118  00                 [147] (52)
5119  00                 [148] (52)
511A  1B                 [149] (52)
511B  02                 [150] (52)
511C  00                 [151] (52)
511D  00                 [152] (54)
511E  1B                 [153] (54)
511F  02                 [154] (54)
5120  00                 [155] (54)
5121  00                 [156] (54)
5122  1B                 [157] (55)
5123  02                 [158] (55)
5124  00                 [159] (55)
5125  00                 [160] (55)
5126  1B                 [161] (55)
5127  02                 [162] (56)
5128  00                 [163] (56)
5129  00                 [164] (56)
512A  1D                 [165] (56)
512B  02                 [166] (56)
512C  00                 [167] (57)
512D  00                 [168] (57)
512E  1D                 [169] (57)
512F  02                 [170] (57)
5130  00                 [171] (57)
5131  00                 [172] (59)
5132  1D                 [173] (59)
5133  02                 [174] (59)
5134  00                 [175] (59)
5135  00                 [176] (59)
5136  1D                 [177] (60)
5137  02                 [178] (60)
5138  00                 [179] (60)
5139  00                 [180] (60)
513A  1D                 [181] (60)
513B  02                 [182] (61)
513C  00                 [183] (61)
513D  00                 [184] (61)
513E  1D                 [185] (61)
513F  02                 [186] (61)
5140  00                 [187] (62)
5141  00                 [188] (62)
5142  1E                 [189] (62)
5143  02                 [190] (62)
5144  00                 [191] (62)
5145  00                 [192] (64)
5146  1E                 [193] (64)
5147  02                 [194] (64)
5148  00                 [195] (64)
5149  00                 [196] (64)
514A  1E                 [197] (65)
514B  02                 [198] (65)
514C  00                 [199] (65)
514D  00                 [200] (65)
514E  1E                 [201] (65)
514F  02                 [202] (66)
                         * locals:
53AE  00                 sizelocvars (0)
                         * upvalues:
53AF  00                 sizeupvalues (0)
                         ** end of function **

                         
53B0                     ** function [20] definition (level 2)
                         ** start of function **
53B0  00                 string size (0)
                         source name: (none)
53B2  04                 line defined (580)
53B3  F1                 last line defined (625)
53B4  04                 nups (6)
53B5  06                 numparams (0)
53B6  00                 is_vararg (0)
53B7  00                 maxstacksize (20)
                         * code:
53BA  01                 sizecode (134)
53BB  13000000           [001] getupval   0   0      
53BF  0E004000           [002] gettable   0   0   256  ; "mSelectedElement"
fail op	35
53C3  23404000           [003] close      0  
53C7  1A000080           [004] jmp        1            ; to [6]
53CB  1E008000           [005] return     0   1      
53CF  53008000           [006] getupval   1   1      
53D3  4CC04081           [007] settable   1   258 259  ; "Visible" 1
53D7  53000001           [008] getupval   1   2      
53DB  8E004100           [009] gettable   2   0   260  ; "mSection"
53DF  4E808000           [010] gettable   1   1   2  
53E3  9D400100           [011] getglobal  2   5        ; mMovie
53E7  A4804101           [012] self       2   2   262  ; 98241492
53EB  0EC1C100           [013] gettable   4   1   263  ; "Loc"
53EF  57010000           [014] loadbool   5   0   0    ; false
53F3  A2800002           [015] call       2   4   2  
53F7  DD400100           [016] getglobal  3   5        ; mMovie
53FB  E400C201           [017] self       3   3   264  ; 386043535
53FF  59410200           [018] loadk      5   9        ; "SystemStage.Picker.Title.text"
5403  99810200           [019] loadk      6   10       ; "/Lotus/Language/Railjack/Systems_PickerTitle"
5407  CB410000           [020] newtable   7   0   1    ; array=0, hash=1
540B  CC818085           [021] settable   7   267 2    ; "TYPE"
540F  E2408002           [022] call       3   5   1  
5413  D3008000           [023] getupval   3   1      
5417  CE00C301           [024] gettable   3   3   268  ; "Grid"
541B  E440C301           [025] self       3   3   269  ; 2096569603
541F  57018000           [026] loadbool   5   1   0    ; true
5423  97018000           [027] loadbool   6   1   0    ; true
5427  E2400002           [028] call       3   4   1  
542B  CE804300           [029] gettable   3   0   270  ; "mTwoSlots"
542F  D8000000           [030] test       3       0    ; to [32] if true
5433  1A000380           [031] jmp        13           ; to [45]
5437  D3008000           [032] getupval   3   1      
543B  CE00C301           [033] gettable   3   3   268  ; "Grid"
543F  CC00C487           [034] settable   3   271 272  ; "mClipName" "SystemStage.Picker.Grid.DoubleWideSlot"
5443  D3008000           [035] getupval   3   1      
5447  CE00C301           [036] gettable   3   3   268  ; "Grid"
544B  CC80C488           [037] settable   3   273 274  ; "mInitialX" 0
544F  D3008000           [038] getupval   3   1      
5453  CE00C301           [039] gettable   3   3   268  ; "Grid"
5457  CC00C589           [040] settable   3   275 276  ; "mColumns" 0
545B  D3008000           [041] getupval   3   1      
545F  CE00C301           [042] gettable   3   3   268  ; "Grid"
5463  CC80C58A           [043] settable   3   277 278  ; "mColumnSeparation" 0
5467  1AC00280           [044] jmp        12           ; to [57]
546B  D3008000           [045] getupval   3   1      
546F  CE00C301           [046] gettable   3   3   268  ; "Grid"
5473  CCC0C587           [047] settable   3   271 279  ; "mClipName" "SystemStage.Picker.Grid.Slot"
5477  D3008000           [048] getupval   3   1      
547B  CE00C301           [049] gettable   3   3   268  ; "Grid"
547F  CC00C688           [050] settable   3   273 280  ; "mInitialX" 0
5483  D3008000           [051] getupval   3   1      
5487  CE00C301           [052] gettable   3   3   268  ; "Grid"
548B  CC40C689           [053] settable   3   275 281  ; "mColumns" 0
548F  D3008000           [054] getupval   3   1      
5493  CE00C301           [055] gettable   3   3   268  ; "Grid"
5497  CC80C68A           [056] settable   3   277 282  ; "mColumnSeparation" 0
549B  D3008000           [057] getupval   3   1      
549F  CE00C301           [058] gettable   3   3   268  ; "Grid"
54A3  13018000           [059] getupval   4   1      
54A7  0E014302           [060] gettable   4   4   268  ; "Grid"
54AB  0EC14402           [061] gettable   4   4   275  ; "mColumns"
54AF  53018000           [062] getupval   5   1      
54B3  4E01C302           [063] gettable   5   5   268  ; "Grid"
54B7  4E01C702           [064] gettable   5   5   284  ; "mRows"
54BB  04410102           [065] mul        4   4   5  
54BF  CC00818D           [066] settable   3   283 4    ; "mVisibleElements"
54C3  D9000600           [067] loadk      3   24       ; 0
54C7  13018001           [068] getupval   4   3      
54CB  0E414702           [069] gettable   4   4   285  ; "info"
54CF  0E814702           [070] gettable   4   4   286  ; "mItemId"
54D3  0EC14702           [071] gettable   4   4   287  ; "mId"
54D7  53010002           [072] getupval   5   4      
54DB  4E01C802           [073] gettable   5   5   288  ; -132701534
54DF  8E814300           [074] gettable   6   0   270  ; "mTwoSlots"
54E3  CE41C800           [075] gettable   7   1   289  ; "AbilityType"
54E7  0E82C800           [076] gettable   8   1   290  ; "Type"
54EB  62810002           [077] call       5   4   2  
54EF  9DC10800           [078] getglobal  6   35       ; 248503575
54F3  D3018002           [079] getupval   7   5      
54F7  A2010101           [080] call       6   2   4  
54FB  1A800580           [081] jmp        23           ; to [105]
54FF  CE024905           [082] gettable   11  10  292  ; "mUpgrade"
5503  CE42C905           [083] gettable   11  11  293  ; "mItemType"
5507  E482C905           [084] self       11  11  294  ; -1957065004
550B  52038002           [085] move       13  5      
550F  E2828001           [086] call       11  3   2  
5513  D8020000           [087] test       11      0    ; to [89] if true
5517  1AC00380           [088] jmp        16           ; to [105]
551B  CEC24905           [089] gettable   11  10  295  ; "mInstalled"
fail op	35
551F  6340C005           [090] close      1  
5523  1AC00080           [091] jmp        4            ; to [96]
5527  CEC24905           [092] gettable   11  10  295  ; "mInstalled"
552B  CE028105           [093] gettable   11  11  4  
fail op	35
552F  2340C005           [094] close      0  
5533  1A000280           [095] jmp        9            ; to [105]
5537  D3028000           [096] getupval   11  1      
553B  CE02C305           [097] gettable   11  11  268  ; "Grid"
553F  E402CA05           [098] self       11  11  296  ; -1484936978
5543  4B830000           [099] newtable   13  0   2    ; array=0, hash=2
5547  4C838294           [100] settable   13  297 10   ; "mMod"
554B  4C430295           [101] settable   13  298 9    ; "mModIndex"
554F  97038000           [102] loadbool   14  1   0    ; true
5553  E2420002           [103] call       11  4   1  
5557  C3C0CA01           [104] add        3   3   299  ; 0
555B  96810000           [105] tforloop   6       2    ; to [107] if exit
555F  1A80F97F           [106] jmp        -25          ; to [82]
5563  D9C20A00           [107] loadk      11  43       ; 0
5567  13038000           [108] getupval   12  1      
556B  0E034306           [109] gettable   12  12  268  ; "Grid"
556F  0EC34606           [110] gettable   12  12  283  ; "mVisibleElements"
5573  0DC30006           [111] sub        12  12  3  
5577  59C30A00           [112] loadk      13  43       ; 0
557B  D0820180           [113] forprep    11  7        ; to [121]
557F  D3038000           [114] getupval   15  1      
5583  CE03C307           [115] gettable   15  15  268  ; "Grid"
5587  E403CA07           [116] self       15  15  296  ; -1484936978
558B  4B440000           [117] newtable   17  0   1    ; array=0, hash=1
558F  4CC44096           [118] settable   17  300 259  ; "Filler" 1
5593  97048000           [119] loadbool   18  1   0    ; true
5597  E2430002           [120] call       15  4   1  
559B  D4C2FD7F           [121] forloop    11  -8       ; to [114] if loop
559F  D3038000           [122] getupval   15  1      
55A3  CE03C307           [123] gettable   15  15  268  ; "Grid"
55A7  E443CB07           [124] self       15  15  301  ; 1685109492
55AB  46040009           [125] loadnil    17  18     
55AF  D7048000           [126] loadbool   19  1   0    ; true
55B3  E2438002           [127] call       15  5   1  
55B7  DD430100           [128] getglobal  15  5        ; mMovie
55BB  E483CB07           [129] self       15  15  302  ; 471456102
55BF  59C40B00           [130] loadk      17  47       ; "SystemStage.Picker"
55C3  99040C00           [131] loadk      18  48       ; "_visible"
55C7  D7048000           [132] loadbool   19  1   0    ; true
55CB  E2438002           [133] call       15  5   1  
55CF  1E008000           [134] return     0   1      
                         * constants:
55D3  31                 sizek (49)
55D4  04                 const type 4
55D5  11                 string size (17)
55D6  6D53656C65637465+  "mSelecte"
55DE  64456C656D656E74+  "dElement"
55E6  00                 "\0"
                         const [0]: "mSelectedElement"
55E7  00                 const type 0
                         const [1]: nil
55E8  04                 const type 4
55E9  08                 string size (8)
55EA  56697369626C6500   "Visible\0"
                         const [2]: "Visible"
55F2  01                 const type 3
55F3  01000000           const [3]: (1)
55F7  04                 const type 4
55F8  09                 string size (9)
55F9  6D53656374696F6E+  "mSection"
5601  00                 "\0"
                         const [4]: "mSection"
5602  04                 const type 4
5603  07                 string size (7)
5604  6D4D6F76696500     "mMovie\0"
                         const [5]: "mMovie"
560B  01                 const type 3
560C  D40BDB05           const [6]: (98241492)
5610  04                 const type 4
5611  04                 string size (4)
5612  4C6F6300           "Loc\0"
                         const [7]: "Loc"
5616  01                 const type 3
5617  8F8E0217           const [8]: (386043535)
561B  04                 const type 4
561C  1E                 string size (30)
561D  53797374656D5374+  "SystemSt"
5625  6167652E5069636B+  "age.Pick"
562D  65722E5469746C65+  "er.Title"
5635  2E7465787400       ".text\0"
                         const [9]: "SystemStage.Picker.Title.text"
563B  04                 const type 4
563C  2D                 string size (45)
563D  2F4C6F7475732F4C+  "/Lotus/L"
5645  616E67756167652F+  "anguage/"
564D  5261696C6A61636B+  "Railjack"
5655  2F53797374656D73+  "/Systems"
565D  5F5069636B657254+  "_PickerT"
5665  69746C6500         "itle\0"
                         const [10]: "/Lotus/Language/Railjack/Systems_PickerTitle"
566A  04                 const type 4
566B  05                 string size (5)
566C  5459504500         "TYPE\0"
                         const [11]: "TYPE"
5671  04                 const type 4
5672  05                 string size (5)
5673  4772696400         "Grid\0"
                         const [12]: "Grid"
5678  01                 const type 3
5679  031DF77C           const [13]: (2096569603)
567D  04                 const type 4
567E  0A                 string size (10)
567F  6D54776F536C6F74+  "mTwoSlot"
5687  7300               "s\0"
                         const [14]: "mTwoSlots"
5689  04                 const type 4
568A  0A                 string size (10)
568B  6D436C69704E616D+  "mClipNam"
5693  6500               "e\0"
                         const [15]: "mClipName"
5695  04                 const type 4
5696  27                 string size (39)
5697  53797374656D5374+  "SystemSt"
569F  6167652E5069636B+  "age.Pick"
56A7  65722E477269642E+  "er.Grid."
56AF  446F75626C655769+  "DoubleWi"
56B7  6465536C6F7400     "deSlot\0"
                         const [16]: "SystemStage.Picker.Grid.DoubleWideSlot"
56BE  04                 const type 4
56BF  0A                 string size (10)
56C0  6D496E697469616C+  "mInitial"
56C8  5800               "X\0"
                         const [17]: "mInitialX"
56CA  03                 const type 3
56CB  00005C42           const [18]: (0)
56CF  04                 const type 4
56D0  09                 string size (9)
56D1  6D436F6C756D6E73+  "mColumns"
56D9  00                 "\0"
                         const [19]: "mColumns"
56DA  03                 const type 3
56DB  00000040           const [20]: (0)
56DF  04                 const type 4
56E0  12                 string size (18)
56E1  6D436F6C756D6E53+  "mColumnS"
56E9  657061726174696F+  "eparatio"
56F1  6E00               "n\0"
                         const [21]: "mColumnSeparation"
56F3  03                 const type 3
56F4  00005C43           const [22]: (0)
56F8  04                 const type 4
56F9  1D                 string size (29)
56FA  53797374656D5374+  "SystemSt"
5702  6167652E5069636B+  "age.Pick"
570A  65722E477269642E+  "er.Grid."
5712  536C6F7400         "Slot\0"
                         const [23]: "SystemStage.Picker.Grid.Slot"
5717  03                 const type 3
5718  00000000           const [24]: (0)
571C  03                 const type 3
571D  00008040           const [25]: (0)
5721  03                 const type 3
5722  0000DC42           const [26]: (0)
5726  04                 const type 4
5727  11                 string size (17)
5728  6D56697369626C65+  "mVisible"
5730  456C656D656E7473+  "Elements"
5738  00                 "\0"
                         const [27]: "mVisibleElements"
5739  04                 const type 4
573A  06                 string size (6)
573B  6D526F777300       "mRows\0"
                         const [28]: "mRows"
5741  04                 const type 4
5742  05                 string size (5)
5743  696E666F00         "info\0"
                         const [29]: "info"
5748  04                 const type 4
5749  08                 string size (8)
574A  6D4974656D496400   "mItemId\0"
                         const [30]: "mItemId"
5752  04                 const type 4
5753  04                 string size (4)
5754  6D496400           "mId\0"
                         const [31]: "mId"
5758  01                 const type 3
5759  A22217F8           const [32]: (-132701534)
575D  04                 const type 4
575E  0C                 string size (12)
575F  4162696C69747954+  "AbilityT"
5767  79706500           "ype\0"
                         const [33]: "AbilityType"
576B  04                 const type 4
576C  05                 string size (5)
576D  5479706500         "Type\0"
                         const [34]: "Type"
5772  01                 const type 3
5773  17DDCF0E           const [35]: (248503575)
5777  04                 const type 4
5778  09                 string size (9)
5779  6D55706772616465+  "mUpgrade"
5781  00                 "\0"
                         const [36]: "mUpgrade"
5782  04                 const type 4
5783  0A                 string size (10)
5784  6D4974656D547970+  "mItemTyp"
578C  6500               "e\0"
                         const [37]: "mItemType"
578E  01                 const type 3
578F  D48E598B           const [38]: (-1957065004)
5793  04                 const type 4
5794  0B                 string size (11)
5795  6D496E7374616C6C+  "mInstall"
579D  656400             "ed\0"
                         const [39]: "mInstalled"
57A0  01                 const type 3
57A1  EEA87DA7           const [40]: (-1484936978)
57A5  04                 const type 4
57A6  05                 string size (5)
57A7  6D4D6F6400         "mMod\0"
                         const [41]: "mMod"
57AC  04                 const type 4
57AD  0A                 string size (10)
57AE  6D4D6F64496E6465+  "mModInde"
57B6  7800               "x\0"
                         const [42]: "mModIndex"
57B8  03                 const type 3
57B9  0000803F           const [43]: (0)
57BD  04                 const type 4
57BE  07                 string size (7)
57BF  46696C6C657200     "Filler\0"
                         const [44]: "Filler"
57C6  01                 const type 3
57C7  F4BA7064           const [45]: (1685109492)
57CB  01                 const type 3
57CC  66D9191C           const [46]: (471456102)
57D0  04                 const type 4
57D1  13                 string size (19)
57D2  53797374656D5374+  "SystemSt"
57DA  6167652E5069636B+  "age.Pick"
57E2  657200             "er\0"
                         const [47]: "SystemStage.Picker"
57E5  04                 const type 4
57E6  09                 string size (9)
57E7  5F76697369626C65+  "_visible"
57EF  00                 "\0"
                         const [48]: "_visible"
                         * functions:
57F0  00                 sizep (0)
                         * lines:
57F2  01                 sizelineinfo (134)
                         [pc] (line)
57F3  45                 [001] (69)
57F4  02                 [002] (69)
57F5  00                 [003] (70)
57F6  00                 [004] (70)
57F7  45                 [005] (71)
57F8  02                 [006] (74)
57F9  00                 [007] (74)
57FA  00                 [008] (76)
57FB  46                 [009] (76)
57FC  02                 [010] (76)
57FD  00                 [011] (77)
57FE  00                 [012] (77)
57FF  46                 [013] (77)
5800  02                 [014] (77)
5801  00                 [015] (77)
5802  00                 [016] (78)
5803  47                 [017] (78)
5804  02                 [018] (78)
5805  00                 [019] (78)
5806  00                 [020] (78)
5807  4A                 [021] (78)
5808  02                 [022] (78)
5809  00                 [023] (80)
580A  00                 [024] (80)
580B  4A                 [025] (80)
580C  02                 [026] (80)
580D  00                 [027] (80)
580E  00                 [028] (80)
580F  4C                 [029] (82)
5810  02                 [030] (82)
5811  00                 [031] (82)
5812  00                 [032] (83)
5813  4C                 [033] (83)
5814  02                 [034] (83)
5815  00                 [035] (84)
5816  00                 [036] (84)
5817  4C                 [037] (84)
5818  02                 [038] (85)
5819  00                 [039] (85)
581A  00                 [040] (85)
581B  4D                 [041] (86)
581C  02                 [042] (86)
581D  00                 [043] (86)
581E  00                 [044] (86)
581F  4D                 [045] (88)
5820  02                 [046] (88)
5821  00                 [047] (88)
5822  00                 [048] (89)
5823  4D                 [049] (89)
5824  02                 [050] (89)
5825  00                 [051] (90)
5826  00                 [052] (90)
5827  4D                 [053] (90)
5828  02                 [054] (91)
5829  00                 [055] (91)
582A  00                 [056] (91)
582B  4D                 [057] (93)
582C  02                 [058] (93)
582D  00                 [059] (93)
582E  00                 [060] (93)
582F  4E                 [061] (93)
5830  02                 [062] (93)
5831  00                 [063] (93)
5832  00                 [064] (93)
5833  4E                 [065] (93)
5834  02                 [066] (93)
5835  00                 [067] (95)
5836  00                 [068] (96)
5837  4E                 [069] (96)
5838  02                 [070] (96)
5839  00                 [071] (96)
583A  00                 [072] (97)
583B  4E                 [073] (97)
583C  02                 [074] (97)
583D  00                 [075] (97)
583E  00                 [076] (97)
583F  4E                 [077] (97)
5840  02                 [078] (98)
5841  00                 [079] (98)
5842  00                 [080] (98)
5843  4E                 [081] (98)
5844  02                 [082] (99)
5845  00                 [083] (99)
5846  00                 [084] (99)
5847  4E                 [085] (99)
5848  02                 [086] (99)
5849  00                 [087] (99)
584A  00                 [088] (99)
584B  50                 [089] (99)
584C  02                 [090] (99)
584D  00                 [091] (99)
584E  00                 [092] (99)
584F  50                 [093] (99)
5850  02                 [094] (99)
5851  00                 [095] (99)
5852  00                 [096] (100)
5853  50                 [097] (100)
5854  02                 [098] (100)
5855  00                 [099] (100)
5856  00                 [100] (100)
5857  50                 [101] (100)
5858  02                 [102] (100)
5859  00                 [103] (100)
585A  00                 [104] (102)
585B  50                 [105] (98)
585C  02                 [106] (103)
585D  00                 [107] (106)
585E  00                 [108] (106)
585F  50                 [109] (106)
5860  02                 [110] (106)
5861  00                 [111] (106)
5862  00                 [112] (106)
5863  52                 [113] (106)
5864  02                 [114] (107)
5865  00                 [115] (107)
5866  00                 [116] (107)
5867  52                 [117] (107)
5868  02                 [118] (107)
5869  00                 [119] (107)
586A  00                 [120] (107)
586B  52                 [121] (106)
586C  02                 [122] (110)
586D  00                 [123] (110)
586E  00                 [124] (110)
586F  53                 [125] (110)
5870  02                 [126] (110)
5871  00                 [127] (110)
5872  00                 [128] (112)
5873  53                 [129] (112)
5874  02                 [130] (112)
5875  00                 [131] (112)
5876  00                 [132] (112)
5877  53                 [133] (112)
5878  02                 [134] (113)
                         * locals:
5A0B  00                 sizelocvars (0)
                         * upvalues:
5A0C  00                 sizeupvalues (0)
                         ** end of function **

                         
5A0D                     ** function [21] definition (level 2)
                         ** start of function **
5A0D  00                 string size (0)
                         source name: (none)
5A0F  04                 line defined (627)
5A10  FB                 last line defined (635)
5A11  04                 nups (2)
5A12  02                 numparams (0)
5A13  00                 is_vararg (0)
5A14  00                 maxstacksize (5)
                         * code:
5A16  13                 sizecode (19)
5A17  13000000           [01] getupval   0   0      
5A1B  0C404080           [02] settable   0   256 257  ; "Visible" 0
5A1F  1D800000           [03] getglobal  0   2        ; mMovie
5A23  24C04000           [04] self       0   0   259  ; 471456102
5A27  99000100           [05] loadk      2   4        ; "SystemStage.Picker"
5A2B  D9400100           [06] loadk      3   5        ; "_visible"
5A2F  17010000           [07] loadbool   4   0   0    ; false
5A33  22408002           [08] call       0   5   1  
5A37  13008000           [09] getupval   0   1      
5A3B  0E804100           [10] gettable   0   0   262  ; "mSelectedElement"
fail op	35
5A3F  63C04100           [11] close      1  
5A43  1A400180           [12] jmp        6            ; to [19]
5A47  13008000           [13] getupval   0   1      
5A4B  24004200           [14] self       0   0   264  ; -1023981741
5A4F  93008000           [15] getupval   2   1      
5A53  8E804101           [16] gettable   2   2   262  ; "mSelectedElement"
5A57  8E404201           [17] gettable   2   2   265  ; "mIndex"
5A5B  22408001           [18] call       0   3   1  
5A5F  1E008000           [19] return     0   1      
                         * constants:
5A63  0A                 sizek (10)
5A64  04                 const type 4
5A65  08                 string size (8)
5A66  56697369626C6500   "Visible\0"
                         const [0]: "Visible"
5A6E  01                 const type 3
5A6F  00000000           const [1]: (0)
5A73  04                 const type 4
5A74  07                 string size (7)
5A75  6D4D6F76696500     "mMovie\0"
                         const [2]: "mMovie"
5A7C  01                 const type 3
5A7D  66D9191C           const [3]: (471456102)
5A81  04                 const type 4
5A82  13                 string size (19)
5A83  53797374656D5374+  "SystemSt"
5A8B  6167652E5069636B+  "age.Pick"
5A93  657200             "er\0"
                         const [4]: "SystemStage.Picker"
5A96  04                 const type 4
5A97  09                 string size (9)
5A98  5F76697369626C65+  "_visible"
5AA0  00                 "\0"
                         const [5]: "_visible"
5AA1  04                 const type 4
5AA2  11                 string size (17)
5AA3  6D53656C65637465+  "mSelecte"
5AAB  64456C656D656E74+  "dElement"
5AB3  00                 "\0"
                         const [6]: "mSelectedElement"
5AB4  00                 const type 0
                         const [7]: nil
5AB5  01                 const type 3
5AB6  5347F7C2           const [8]: (-1023981741)
5ABA  04                 const type 4
5ABB  07                 string size (7)
5ABC  6D496E64657800     "mIndex\0"
                         const [9]: "mIndex"
                         * functions:
5AC3  00                 sizep (0)
                         * lines:
5AC4  13                 sizelineinfo (19)
                         [pc] (line)
5AC5  74                 [01] (116)
5AC6  02                 [02] (116)
5AC7  00                 [03] (118)
5AC8  00                 [04] (118)
5AC9  74                 [05] (118)
5ACA  02                 [06] (118)
5ACB  00                 [07] (118)
5ACC  00                 [08] (118)
5ACD  76                 [09] (120)
5ACE  02                 [10] (120)
5ACF  00                 [11] (120)
5AD0  00                 [12] (120)
5AD1  76                 [13] (121)
5AD2  02                 [14] (121)
5AD3  00                 [15] (121)
5AD4  00                 [16] (121)
5AD5  76                 [17] (121)
5AD6  02                 [18] (121)
5AD7  00                 [19] (123)
                         * locals:
5B11  00                 sizelocvars (0)
                         * upvalues:
5B12  00                 sizeupvalues (0)
                         ** end of function **

                         
5B13                     ** function [22] definition (level 2)
                         ** start of function **
5B13  00                 string size (0)
                         source name: (none)
5B15  04                 line defined (637)
5B16  85                 last line defined (645)
5B17  05                 nups (2)
5B18  02                 numparams (1)
5B19  01                 is_vararg (0)
5B1A  00                 maxstacksize (3)
                         * code:
5B1C  16                 sizecode (22)
5B1D  5D000000           [01] getglobal  1   0        ; 1074689893
5B21  92000000           [02] move       2   0      
5B25  62800001           [03] call       1   2   2  
5B29  58000000           [04] test       1       0    ; to [6] if true
5B2D  1A400080           [05] jmp        2            ; to [8]
5B31  57000000           [06] loadbool   1   0   0    ; false
5B35  5E000001           [07] return     1   2      
5B39  4E404000           [08] gettable   1   0   257  ; "Id"
5B3D  93000000           [09] getupval   2   0      
fail op	35
5B41  63808000           [10] close      1  
5B45  1AC00180           [11] jmp        8            ; to [20]
5B49  4E404000           [12] gettable   1   0   257  ; "Id"
5B4D  93008000           [13] getupval   2   1      
fail op	35
5B51  63808000           [14] close      1  
5B55  1AC00080           [15] jmp        4            ; to [20]
5B59  4E404000           [16] gettable   1   0   257  ; "Id"
fail op	33
5B5D  6180C000           [17] tforloop   1       258  ; to [19] if exit
5B61  1A000080           [18] jmp        1            ; to [20]
5B65  57400000           [19] loadbool   1   0   1    ; false, to [21]
5B69  57008000           [20] loadbool   1   1   0    ; true
5B6D  5E000001           [21] return     1   2      
5B71  1E008000           [22] return     0   1      
                         * constants:
5B75  03                 sizek (3)
5B76  01                 const type 3
5B77  65770E40           const [0]: (1074689893)
5B7B  04                 const type 4
5B7C  03                 string size (3)
5B7D  496400             "Id\0"
                         const [1]: "Id"
5B80  03                 const type 3
5B81  0000A040           const [2]: (0)
                         * functions:
5B85  00                 sizep (0)
                         * lines:
5B86  16                 sizelineinfo (22)
                         [pc] (line)
5B87  7E                 [01] (126)
5B88  02                 [02] (126)
5B89  00                 [03] (126)
5B8A  00                 [04] (126)
5B8B  7E                 [05] (126)
5B8C  02                 [06] (127)
5B8D  00                 [07] (127)
5B8E  00                 [08] (-124)
5B8F  7E                 [09] (-124)
5B90  02                 [10] (-124)
5B91  00                 [11] (-124)
5B92  00                 [12] (-124)
5B93  7E                 [13] (-124)
5B94  02                 [14] (-124)
5B95  00                 [15] (-124)
5B96  00                 [16] (-124)
5B97  7E                 [17] (-124)
5B98  02                 [18] (-124)
5B99  00                 [19] (-124)
5B9A  00                 [20] (-124)
5B9B  7F                 [21] (-124)
5B9C  02                 [22] (-123)
                         * locals:
5BDF  00                 sizelocvars (0)
                         * upvalues:
5BE0  00                 sizeupvalues (0)
                         ** end of function **

                         
5BE1                     ** function [23] definition (level 2)
                         ** start of function **
5BE1  00                 string size (0)
                         source name: (none)
5BE3  05                 line defined (647)
5BE4  E2                 last line defined (738)
5BE5  05                 nups (6)
5BE6  06                 numparams (4)
5BE7  04                 is_vararg (0)
5BE8  00                 maxstacksize (30)
                         * code:
5BEB  02                 sizecode (352)
5BEC  1D010000           [001] getglobal  4   0        ; 1390508688
5BF0  5D410000           [002] getglobal  5   1        ; mMovie
5BF4  99810000           [003] loadk      6   2        ; "_root."
5BF8  CEC1C000           [004] gettable   7   1   259  ; "mClipName"
5BFC  82C10103           [005] concat     6   6   7  
5C00  DD010100           [006] getglobal  7   4        ; UISys
5C04  CE41C103           [007] gettable   7   7   261  ; "FlashInstance_SMOOTH_STEP"
5C08  0B028000           [008] newtable   8   1   0    ; array=1, hash=0
5C0C  59820100           [009] loadk      9   6        ; "_z"
5C10  1B428000           [010] setlist    8   1   1    ; index 1 to 1
5C14  4B020000           [011] newtable   9   0   0    ; array=0, hash=0
5C18  93020000           [012] getupval   10  0      
5C1C  8EC24105           [013] gettable   10  10  263  ; -132701534
5C20  D2020001           [014] move       11  2      
5C24  19030200           [015] loadk      12  8        ; 0
5C28  59430200           [016] loadk      13  9        ; 0
5C2C  A2020002           [017] call       10  4   0  
5C30  5B420000           [018] setlist    9   0   1    ; index 1 to top
5C34  99820200           [019] loadk      10  10       ; -102
5C38  22418003           [020] call       4   7   1  
5C3C  0EC1C200           [021] gettable   4   1   267  ; "mMod"
fail op	35
5C40  23004302           [022] close      0  
5C44  1A000080           [023] jmp        1            ; to [25]
5C48  17410000           [024] loadbool   4   0   1    ; false, to [26]
5C4C  17018000           [025] loadbool   4   1   0    ; true
5C50  4E41C300           [026] gettable   5   1   269  ; "mStatus"
fail op	35
5C54  2300C302           [027] close      0  
5C58  1A000180           [028] jmp        5            ; to [34]
5C5C  8BC10000           [029] newtable   6   0   3    ; array=0, hash=3
5C60  8CC14387           [030] settable   6   270 271  ; "mOn" 0
5C64  8CC14388           [031] settable   6   272 271  ; "mDamaged" 0
5C68  8CC1C388           [032] settable   6   273 271  ; "mPowered" 0
5C6C  52010003           [033] move       5   6      
5C70  97018000           [034] loadbool   6   1   0    ; true
5C74  D3018000           [035] getupval   7   1      
5C78  CE81C403           [036] gettable   7   7   274  ; "Content"
5C7C  19C20400           [037] loadk      8   19       ; 98
5C80  53028000           [038] getupval   9   1      
5C84  4E02C504           [039] gettable   9   9   276  ; "FloatingContentHighlight"
5C88  93028000           [040] getupval   10  1      
5C8C  8E024505           [041] gettable   10  10  276  ; "FloatingContentHighlight"
5C90  D3028000           [042] getupval   11  1      
5C94  CE42C505           [043] gettable   11  11  277  ; "FloatingContent"
5C98  13038000           [044] getupval   12  1      
5C9C  0E434506           [045] gettable   12  12  277  ; "FloatingContent"
5CA0  59C30400           [046] loadk      13  19       ; 98
5CA4  93038000           [047] getupval   14  1      
5CA8  8E834507           [048] gettable   14  14  278  ; "Background1"
5CAC  D3030001           [049] getupval   15  2      
5CB0  13048001           [050] getupval   16  3      
5CB4  0EC44508           [051] gettable   16  16  279  ; "ENABLE"
fail op	35
5CB8  63008407           [052] close      1  
5CBC  1A400080           [053] jmp        2            ; to [56]
5CC0  18410000           [054] test       4       1    ; to [56] if false
5CC4  1A000380           [055] jmp        13           ; to [69]
5CC8  CE83C302           [056] gettable   15  5   270  ; "mOn"
5CCC  D8030000           [057] test       15      0    ; to [59] if true
5CD0  1A400080           [058] jmp        2            ; to [61]
5CD4  18410000           [059] test       4       1    ; to [61] if false
5CD8  1AC00180           [060] jmp        8            ; to [69]
5CDC  D3038000           [061] getupval   15  1      
5CE0  4E42C507           [062] gettable   9   15  277  ; "FloatingContent"
5CE4  97010000           [063] loadbool   6   0   0    ; false
5CE8  D3038000           [064] getupval   15  1      
5CEC  CE01C607           [065] gettable   7   15  280  ; "Background4"
5CF0  D3038000           [066] getupval   15  1      
5CF4  8E03C607           [067] gettable   14  15  280  ; "Background4"
5CF8  1A000880           [068] jmp        33           ; to [102]
5CFC  D3030001           [069] getupval   15  2      
5D00  13048001           [070] getupval   16  3      
5D04  0E444608           [071] gettable   16  16  281  ; "INSTALL"
fail op	35
5D08  23008407           [072] close      0  
5D0C  1A400080           [073] jmp        2            ; to [76]
5D10  18410000           [074] test       4       1    ; to [76] if false
5D14  1A400680           [075] jmp        26           ; to [102]
5D18  CE83C302           [076] gettable   15  5   270  ; "mOn"
5D1C  D8030000           [077] test       15      0    ; to [79] if true
5D20  1A800180           [078] jmp        7            ; to [86]
5D24  CE03C402           [079] gettable   15  5   272  ; "mDamaged"
5D28  D8430000           [080] test       15      1    ; to [82] if false
5D2C  1AC00080           [081] jmp        4            ; to [86]
5D30  CE43C402           [082] gettable   15  5   273  ; "mPowered"
5D34  D8030000           [083] test       15      0    ; to [85] if true
5D38  1A000080           [084] jmp        1            ; to [86]
5D3C  1AC00380           [085] jmp        16           ; to [102]
5D40  CE03C402           [086] gettable   15  5   272  ; "mDamaged"
5D44  D8430000           [087] test       15      1    ; to [89] if false
5D48  1A800080           [088] jmp        3            ; to [92]
5D4C  CE43C402           [089] gettable   15  5   273  ; "mPowered"
5D50  D8430000           [090] test       15      1    ; to [92] if false
5D54  1A400280           [091] jmp        10           ; to [102]
5D58  D3038000           [092] getupval   15  1      
5D5C  0E83C607           [093] gettable   12  15  282  ; "Negative"
5D60  D3038000           [094] getupval   15  1      
5D64  4E83C607           [095] gettable   13  15  282  ; "Negative"
5D68  D3038000           [096] getupval   15  1      
5D6C  0E82C607           [097] gettable   8   15  282  ; "Negative"
5D70  D3038000           [098] getupval   15  1      
5D74  8E82C607           [099] gettable   10  15  282  ; "Negative"
5D78  D3038000           [100] getupval   15  1      
5D7C  CE82C607           [101] gettable   11  15  282  ; "Negative"
5D80  CEC3C600           [102] gettable   15  1   283  ; "Id"
fail op	33
5D84  2100C707           [103] tforloop   0       284  ; to [105] if exit
5D88  1A000180           [104] jmp        5            ; to [110]
5D8C  CE43C700           [105] gettable   15  1   285  ; "mSection"
fail op	35
5D90  6300C307           [106] close      1  
5D94  1A400080           [107] jmp        2            ; to [110]
5D98  DD830700           [108] getglobal  15  30       ; _G
5D9C  8EC3C707           [109] gettable   14  15  287  ; "UIColor_White"
5DA0  98010000           [110] test       6       0    ; to [112] if true
5DA4  1A000080           [111] jmp        1            ; to [113]
5DA8  92010002           [112] move       6   4      
5DAC  DD430000           [113] getglobal  15  1        ; mMovie
5DB0  E403C807           [114] self       15  15  288  ; -2013161817
5DB4  4EC4C000           [115] gettable   17  1   259  ; "mClipName"
5DB8  99440800           [116] loadk      18  33       ; "InnerGlowBig"
5DBC  D9840800           [117] loadk      19  34       ; "_visible"
5DC0  12050003           [118] move       20  6      
5DC4  E2430003           [119] call       15  6   1  
5DC8  DD430000           [120] getglobal  15  1        ; mMovie
5DCC  E403C807           [121] self       15  15  288  ; -2013161817
5DD0  4EC4C000           [122] gettable   17  1   259  ; "mClipName"
5DD4  99C40800           [123] loadk      18  35       ; "InnerGlowSmall"
5DD8  D9840800           [124] loadk      19  34       ; "_visible"
5DDC  12050003           [125] move       20  6      
5DE0  E2430003           [126] call       15  6   1  
5DE4  DD430000           [127] getglobal  15  1        ; mMovie
5DE8  E403C807           [128] self       15  15  288  ; -2013161817
5DEC  4EC4C000           [129] gettable   17  1   259  ; "mClipName"
5DF0  99040900           [130] loadk      18  36       ; "DiamondBorderGlow"
5DF4  D9840800           [131] loadk      19  34       ; "_visible"
5DF8  12050003           [132] move       20  6      
5DFC  E2430003           [133] call       15  6   1  
5E00  DD430000           [134] getglobal  15  1        ; mMovie
5E04  E403C807           [135] self       15  15  288  ; -2013161817
5E08  4EC4C000           [136] gettable   17  1   259  ; "mClipName"
5E0C  99440900           [137] loadk      18  37       ; "RadialGlow"
5E10  D9840800           [138] loadk      19  34       ; "_visible"
5E14  12050003           [139] move       20  6      
5E18  E2430003           [140] call       15  6   1  
5E1C  DD430000           [141] getglobal  15  1        ; mMovie
5E20  E403C807           [142] self       15  15  288  ; -2013161817
5E24  4EC4C000           [143] gettable   17  1   259  ; "mClipName"
5E28  99840900           [144] loadk      18  38       ; "DoubleWideFill"
5E2C  D9C40900           [145] loadk      19  39       ; "_color"
5E30  12050006           [146] move       20  12     
5E34  E2430003           [147] call       15  6   1  
5E38  DD430000           [148] getglobal  15  1        ; mMovie
5E3C  E403C807           [149] self       15  15  288  ; -2013161817
5E40  4EC4C000           [150] gettable   17  1   259  ; "mClipName"
5E44  99040A00           [151] loadk      18  40       ; "ModBacker"
5E48  D9C40900           [152] loadk      19  39       ; "_color"
5E4C  12050006           [153] move       20  12     
5E50  E2430003           [154] call       15  6   1  
5E54  DD430000           [155] getglobal  15  1        ; mMovie
5E58  E403C807           [156] self       15  15  288  ; -2013161817
5E5C  4EC4C000           [157] gettable   17  1   259  ; "mClipName"
5E60  99440A00           [158] loadk      18  41       ; "EmptyMod"
5E64  D9C40900           [159] loadk      19  39       ; "_color"
5E68  12050006           [160] move       20  12     
5E6C  E2430003           [161] call       15  6   1  
5E70  DD430000           [162] getglobal  15  1        ; mMovie
5E74  E403C807           [163] self       15  15  288  ; -2013161817
5E78  4EC4C000           [164] gettable   17  1   259  ; "mClipName"
5E7C  99840A00           [165] loadk      18  42       ; "OuterBorder"
5E80  D9C40900           [166] loadk      19  39       ; "_color"
5E84  12050006           [167] move       20  12     
5E88  E2430003           [168] call       15  6   1  
5E8C  DD430000           [169] getglobal  15  1        ; mMovie
5E90  E403C807           [170] self       15  15  288  ; -2013161817
5E94  4EC4C000           [171] gettable   17  1   259  ; "mClipName"
5E98  99C40A00           [172] loadk      18  43       ; "TopDiamond"
5E9C  D9C40900           [173] loadk      19  39       ; "_color"
5EA0  12050006           [174] move       20  12     
5EA4  E2430003           [175] call       15  6   1  
5EA8  DD430000           [176] getglobal  15  1        ; mMovie
5EAC  E403C807           [177] self       15  15  288  ; -2013161817
5EB0  4EC4C000           [178] gettable   17  1   259  ; "mClipName"
5EB4  99040B00           [179] loadk      18  44       ; "BottomDiamond"
5EB8  D9C40900           [180] loadk      19  39       ; "_color"
5EBC  12050006           [181] move       20  12     
5EC0  E2430003           [182] call       15  6   1  
5EC4  DD430000           [183] getglobal  15  1        ; mMovie
5EC8  E403C807           [184] self       15  15  288  ; -2013161817
5ECC  4EC4C000           [185] gettable   17  1   259  ; "mClipName"
5ED0  99440B00           [186] loadk      18  45       ; "Drain"
5ED4  D9840B00           [187] loadk      19  46       ; "textColor"
5ED8  12058004           [188] move       20  9      
5EDC  E2430003           [189] call       15  6   1  
5EE0  DD430000           [190] getglobal  15  1        ; mMovie
5EE4  E403C807           [191] self       15  15  288  ; -2013161817
5EE8  4EC4C000           [192] gettable   17  1   259  ; "mClipName"
5EEC  99C40B00           [193] loadk      18  47       ; "TopIcon"
5EF0  D9C40900           [194] loadk      19  39       ; "_color"
5EF4  12058004           [195] move       20  9      
5EF8  E2430003           [196] call       15  6   1  
5EFC  DD430000           [197] getglobal  15  1        ; mMovie
5F00  E403C807           [198] self       15  15  288  ; -2013161817
5F04  4EC4C000           [199] gettable   17  1   259  ; "mClipName"
5F08  99040C00           [200] loadk      18  48       ; "Icon"
5F0C  D9C40900           [201] loadk      19  39       ; "_color"
5F10  12050007           [202] move       20  14     
5F14  E2430003           [203] call       15  6   1  
5F18  DD430000           [204] getglobal  15  1        ; mMovie
5F1C  E403C807           [205] self       15  15  288  ; -2013161817
5F20  4EC4C000           [206] gettable   17  1   259  ; "mClipName"
5F24  99440C00           [207] loadk      18  49       ; "DiamondBorder"
5F28  D9C40900           [208] loadk      19  39       ; "_color"
5F2C  12058003           [209] move       20  7      
5F30  E2430003           [210] call       15  6   1  
5F34  DD430000           [211] getglobal  15  1        ; mMovie
5F38  E403C807           [212] self       15  15  288  ; -2013161817
5F3C  4EC4C000           [213] gettable   17  1   259  ; "mClipName"
5F40  99040900           [214] loadk      18  36       ; "DiamondBorderGlow"
5F44  D9C40900           [215] loadk      19  39       ; "_color"
5F48  12050004           [216] move       20  8      
5F4C  E2430003           [217] call       15  6   1  
5F50  DD430000           [218] getglobal  15  1        ; mMovie
5F54  E403C807           [219] self       15  15  288  ; -2013161817
5F58  4EC4C000           [220] gettable   17  1   259  ; "mClipName"
5F5C  99440800           [221] loadk      18  33       ; "InnerGlowBig"
5F60  D9C40900           [222] loadk      19  39       ; "_color"
5F64  12050005           [223] move       20  10     
5F68  E2430003           [224] call       15  6   1  
5F6C  DD430000           [225] getglobal  15  1        ; mMovie
5F70  E403C807           [226] self       15  15  288  ; -2013161817
5F74  4EC4C000           [227] gettable   17  1   259  ; "mClipName"
5F78  99440900           [228] loadk      18  37       ; "RadialGlow"
5F7C  D9C40900           [229] loadk      19  39       ; "_color"
5F80  12058006           [230] move       20  13     
5F84  E2430003           [231] call       15  6   1  
5F88  DD430000           [232] getglobal  15  1        ; mMovie
5F8C  E403C807           [233] self       15  15  288  ; -2013161817
5F90  4EC4C000           [234] gettable   17  1   259  ; "mClipName"
5F94  99840C00           [235] loadk      18  50       ; "InnerBorder"
5F98  D9C40900           [236] loadk      19  39       ; "_color"
5F9C  12058005           [237] move       20  11     
5FA0  E2430003           [238] call       15  6   1  
5FA4  D8400000           [239] test       3       1    ; to [241] if false
5FA8  1A001080           [240] jmp        65           ; to [306]
5FAC  98000000           [241] test       2       0    ; to [243] if true
5FB0  1A800E80           [242] jmp        59           ; to [302]
5FB4  18010000           [243] test       4       0    ; to [245] if true
5FB8  1A000E80           [244] jmp        57           ; to [302]
5FBC  CB430100           [245] newtable   15  0   5    ; array=0, hash=5
5FC0  CC03CD99           [246] settable   15  307 308  ; "CustomEntry" 1
5FC4  0EC4C200           [247] gettable   16  1   267  ; "mMod"
5FC8  0E844D08           [248] gettable   16  16  310  ; "mName"
5FCC  CC03849A           [249] settable   15  309 16   ; "Name"
5FD0  0EC4C200           [250] gettable   16  1   267  ; "mMod"
5FD4  0E044E08           [251] gettable   16  16  312  ; "mDesc"
5FD8  CC03849B           [252] settable   15  311 16   ; "LocalizedDesc"
5FDC  13040002           [253] getupval   16  4      
5FE0  52048000           [254] move       17  1      
5FE4  22840001           [255] call       16  2   2  
5FE8  18440000           [256] test       16      1    ; to [258] if false
5FEC  1A000180           [257] jmp        5            ; to [263]
5FF0  13040001           [258] getupval   16  2      
5FF4  53048001           [259] getupval   17  3      
5FF8  4E44C608           [260] gettable   17  17  281  ; "INSTALL"
fail op	35
5FFC  63400408           [261] close      1  
6000  1A000080           [262] jmp        1            ; to [264]
6004  17440000           [263] loadbool   16  0   1    ; false, to [265]
6008  17048000           [264] loadbool   16  1   0    ; true
600C  CC03849C           [265] settable   15  313 16   ; "CanPreviewOverride"
6010  CCC34E9D           [266] settable   15  314 315  ; "PreviewTagOverride" "/Lotus/Language/Menu/Loadout_Remove"
6014  13048002           [267] getupval   16  5      
6018  0E044F08           [268] gettable   16  16  316  ; 1284490972
601C  5D440000           [269] getglobal  17  1        ; mMovie
6020  92048007           [270] move       18  15     
6024  DD440F00           [271] getglobal  19  61       ; -174740002
6028  1D450000           [272] getglobal  20  1        ; mMovie
602C  24854F0A           [273] self       20  20  318  ; 1803241227
6030  8EC5C000           [274] gettable   22  1   259  ; "mClipName"
6034  D9C50F00           [275] loadk      23  63       ; ".Btn"
6038  82C5050B           [276] concat     22  22  23 
603C  D9051000           [277] loadk      23  64       ; "_screenX"
6040  22050002           [278] call       20  4   0  
6044  E2840000           [279] call       19  0   2  
6048  1D450F00           [280] getglobal  20  61       ; -174740002
604C  5D450000           [281] getglobal  21  1        ; mMovie
6050  6485CF0A           [282] self       21  21  318  ; 1803241227
6054  CEC5C000           [283] gettable   23  1   259  ; "mClipName"
6058  19C60F00           [284] loadk      24  63       ; ".Btn"
605C  C205860B           [285] concat     23  23  24 
6060  19461000           [286] loadk      24  65       ; "_screenY"
6064  62050002           [287] call       21  4   0  
6068  22850000           [288] call       20  0   2  
606C  53050000           [289] getupval   21  0      
6070  4EC5C10A           [290] gettable   21  21  263  ; -132701534
6074  8E85D000           [291] gettable   22  1   322  ; "mTwoSlots"
6078  D9C51000           [292] loadk      23  67       ; 0
607C  19061100           [293] loadk      24  68       ; 0
6080  62850002           [294] call       21  4   2  
6084  99451100           [295] loadk      22  69       ; 0
6088  22448003           [296] call       16  7   1  
608C  1D841100           [297] getglobal  16  70       ; _T
6090  0C0480A3           [298] settable   16  327 0    ; "InfoPopup_Grid"
6094  1D841100           [299] getglobal  16  70       ; _T
6098  0CC403A4           [300] settable   16  328 15   ; "InfoPopup_Data"
609C  1AC00080           [301] jmp        4            ; to [306]
60A0  1D841100           [302] getglobal  16  70       ; _T
60A4  0C04C3A3           [303] settable   16  327 268  ; "InfoPopup_Grid" nil
60A8  1D841100           [304] getglobal  16  70       ; _T
60AC  0C0443A4           [305] settable   16  328 268  ; "InfoPopup_Data" nil
60B0  1D040000           [306] getglobal  16  0        ; 1390508688
60B4  5D440000           [307] getglobal  17  1        ; mMovie
60B8  8EC4C000           [308] gettable   18  1   259  ; "mClipName"
60BC  D9441200           [309] loadk      19  73       ; ".HoverBorders"
60C0  82C40409           [310] concat     18  18  19 
60C4  DD040100           [311] getglobal  19  4        ; UISys
60C8  CE84D209           [312] gettable   19  19  330  ; "FlashInstance_LINEAR"
60CC  0B058000           [313] newtable   20  1   0    ; array=1, hash=0
60D0  59C51200           [314] loadk      21  75       ; "_alpha"
60D4  1B458000           [315] setlist    20  1   1    ; index 1 to 1
60D8  4B050000           [316] newtable   21  0   0    ; array=0, hash=0
60DC  93050000           [317] getupval   22  0      
60E0  8EC5410B           [318] gettable   22  22  263  ; -132701534
60E4  D2050001           [319] move       23  2      
60E8  19061300           [320] loadk      24  76       ; 0
60EC  59460200           [321] loadk      25  9        ; 0
60F0  A2050002           [322] call       22  4   0  
60F4  5B450000           [323] setlist    21  0   1    ; index 1 to top
60F8  99850200           [324] loadk      22  10       ; -102
60FC  22448003           [325] call       16  7   1  
6100  19441300           [326] loadk      16  77       ; 0
6104  59841300           [327] loadk      17  78       ; 0
6108  99441300           [328] loadk      18  77       ; 0
610C  10040580           [329] forprep    16  21       ; to [351]
6110  1D050000           [330] getglobal  20  0        ; 1390508688
6114  5D450000           [331] getglobal  21  1        ; mMovie
6118  8EC5C000           [332] gettable   22  1   259  ; "mClipName"
611C  D9C51300           [333] loadk      23  79       ; ".HoverBorders.Border"
6120  12068009           [334] move       24  19     
6124  8205060B           [335] concat     22  22  24 
6128  DD050100           [336] getglobal  23  4        ; UISys
612C  CE05D40B           [337] gettable   23  23  336  ; "FlashInstance_EASE_OUT"
6130  0B068000           [338] newtable   24  1   0    ; array=1, hash=0
6134  59860100           [339] loadk      25  6        ; "_z"
6138  1B468000           [340] setlist    24  1   1    ; index 1 to 1
613C  4B060000           [341] newtable   25  0   0    ; array=0, hash=0
6140  93060000           [342] getupval   26  0      
6144  8EC6410D           [343] gettable   26  26  263  ; -132701534
6148  D2060001           [344] move       27  2      
614C  0447D409           [345] mul        28  19  337  ; 0
6150  59470200           [346] loadk      29  9        ; 0
6154  A2060002           [347] call       26  4   0  
6158  5B460000           [348] setlist    25  0   1    ; index 1 to top
615C  99861400           [349] loadk      26  82       ; 0
6160  22458003           [350] call       20  7   1  
6164  1444FA7F           [351] forloop    16  -22      ; to [330] if loop
6168  1E008000           [352] return     0   1      
                         * constants:
616C  53                 sizek (83)
616D  01                 const type 3
616E  907AE152           const [0]: (1390508688)
6172  04                 const type 4
6173  07                 string size (7)
6174  6D4D6F76696500     "mMovie\0"
                         const [1]: "mMovie"
617B  04                 const type 4
617C  07                 string size (7)
617D  5F726F6F742E00     "_root.\0"
                         const [2]: "_root."
6184  04                 const type 4
6185  0A                 string size (10)
6186  6D436C69704E616D+  "mClipNam"
618E  6500               "e\0"
                         const [3]: "mClipName"
6190  04                 const type 4
6191  06                 string size (6)
6192  554953797300       "UISys\0"
                         const [4]: "UISys"
6198  04                 const type 4
6199  1A                 string size (26)
619A  466C617368496E73+  "FlashIns"
61A2  74616E63655F534D+  "tance_SM"
61AA  4F4F54485F535445+  "OOTH_STE"
61B2  5000               "P\0"
                         const [5]: "FlashInstance_SMOOTH_STEP"
61B4  04                 const type 4
61B5  03                 string size (3)
61B6  5F7A00             "_z\0"
                         const [6]: "_z"
61B9  01                 const type 3
61BA  A22217F8           const [7]: (-132701534)
61BE  03                 const type 3
61BF  0000AFC3           const [8]: (0)
61C3  03                 const type 3
61C4  00000000           const [9]: (0)
61C8  03                 const type 3
61C9  9A99193E           const [10]: (-102)
61CD  04                 const type 4
61CE  05                 string size (5)
61CF  6D4D6F6400         "mMod\0"
                         const [11]: "mMod"
61D4  00                 const type 0
                         const [12]: nil
61D5  04                 const type 4
61D6  08                 string size (8)
61D7  6D53746174757300   "mStatus\0"
                         const [13]: "mStatus"
61DF  04                 const type 4
61E0  04                 string size (4)
61E1  6D4F6E00           "mOn\0"
                         const [14]: "mOn"
61E5  01                 const type 3
61E6  00000000           const [15]: (0)
61EA  04                 const type 4
61EB  09                 string size (9)
61EC  6D44616D61676564+  "mDamaged"
61F4  00                 "\0"
                         const [16]: "mDamaged"
61F5  04                 const type 4
61F6  09                 string size (9)
61F7  6D506F7765726564+  "mPowered"
61FF  00                 "\0"
                         const [17]: "mPowered"
6200  04                 const type 4
6201  08                 string size (8)
6202  436F6E74656E7400   "Content\0"
                         const [18]: "Content"
620A  03                 const type 3
620B  62EF7A4B           const [19]: (98)
620F  04                 const type 4
6210  19                 string size (25)
6211  466C6F6174696E67+  "Floating"
6219  436F6E74656E7448+  "ContentH"
6221  6967686C69676874+  "ighlight"
6229  00                 "\0"
                         const [20]: "FloatingContentHighlight"
622A  04                 const type 4
622B  10                 string size (16)
622C  466C6F6174696E67+  "Floating"
6234  436F6E74656E7400   "Content\0"
                         const [21]: "FloatingContent"
623C  04                 const type 4
623D  0C                 string size (12)
623E  4261636B67726F75+  "Backgrou"
6246  6E643100           "nd1\0"
                         const [22]: "Background1"
624A  04                 const type 4
624B  07                 string size (7)
624C  454E41424C4500     "ENABLE\0"
                         const [23]: "ENABLE"
6253  04                 const type 4
6254  0C                 string size (12)
6255  4261636B67726F75+  "Backgrou"
625D  6E643400           "nd4\0"
                         const [24]: "Background4"
6261  04                 const type 4
6262  08                 string size (8)
6263  494E5354414C4C00   "INSTALL\0"
                         const [25]: "INSTALL"
626B  04                 const type 4
626C  09                 string size (9)
626D  4E65676174697665+  "Negative"
6275  00                 "\0"
                         const [26]: "Negative"
6276  04                 const type 4
6277  03                 string size (3)
6278  496400             "Id\0"
                         const [27]: "Id"
627B  03                 const type 3
627C  0000A040           const [28]: (0)
6280  04                 const type 4
6281  09                 string size (9)
6282  6D53656374696F6E+  "mSection"
628A  00                 "\0"
                         const [29]: "mSection"
628B  04                 const type 4
628C  03                 string size (3)
628D  5F4700             "_G\0"
                         const [30]: "_G"
6290  04                 const type 4
6291  0E                 string size (14)
6292  5549436F6C6F725F+  "UIColor_"
629A  576869746500       "White\0"
                         const [31]: "UIColor_White"
62A0  01                 const type 3
62A1  A7960188           const [32]: (-2013161817)
62A5  04                 const type 4
62A6  0D                 string size (13)
62A7  496E6E6572476C6F+  "InnerGlo"
62AF  7742696700         "wBig\0"
                         const [33]: "InnerGlowBig"
62B4  04                 const type 4
62B5  09                 string size (9)
62B6  5F76697369626C65+  "_visible"
62BE  00                 "\0"
                         const [34]: "_visible"
62BF  04                 const type 4
62C0  0F                 string size (15)
62C1  496E6E6572476C6F+  "InnerGlo"
62C9  77536D616C6C00     "wSmall\0"
                         const [35]: "InnerGlowSmall"
62D0  04                 const type 4
62D1  12                 string size (18)
62D2  4469616D6F6E6442+  "DiamondB"
62DA  6F72646572476C6F+  "orderGlo"
62E2  7700               "w\0"
                         const [36]: "DiamondBorderGlow"
62E4  04                 const type 4
62E5  0B                 string size (11)
62E6  52616469616C476C+  "RadialGl"
62EE  6F7700             "ow\0"
                         const [37]: "RadialGlow"
62F1  04                 const type 4
62F2  0F                 string size (15)
62F3  446F75626C655769+  "DoubleWi"
62FB  646546696C6C00     "deFill\0"
                         const [38]: "DoubleWideFill"
6302  04                 const type 4
6303  07                 string size (7)
6304  5F636F6C6F7200     "_color\0"
                         const [39]: "_color"
630B  04                 const type 4
630C  0A                 string size (10)
630D  4D6F644261636B65+  "ModBacke"
6315  7200               "r\0"
                         const [40]: "ModBacker"
6317  04                 const type 4
6318  09                 string size (9)
6319  456D7074794D6F64+  "EmptyMod"
6321  00                 "\0"
                         const [41]: "EmptyMod"
6322  04                 const type 4
6323  0C                 string size (12)
6324  4F75746572426F72+  "OuterBor"
632C  64657200           "der\0"
                         const [42]: "OuterBorder"
6330  04                 const type 4
6331  0B                 string size (11)
6332  546F704469616D6F+  "TopDiamo"
633A  6E6400             "nd\0"
                         const [43]: "TopDiamond"
633D  04                 const type 4
633E  0E                 string size (14)
633F  426F74746F6D4469+  "BottomDi"
6347  616D6F6E6400       "amond\0"
                         const [44]: "BottomDiamond"
634D  04                 const type 4
634E  06                 string size (6)
634F  447261696E00       "Drain\0"
                         const [45]: "Drain"
6355  04                 const type 4
6356  0A                 string size (10)
6357  74657874436F6C6F+  "textColo"
635F  7200               "r\0"
                         const [46]: "textColor"
6361  04                 const type 4
6362  08                 string size (8)
6363  546F7049636F6E00   "TopIcon\0"
                         const [47]: "TopIcon"
636B  04                 const type 4
636C  05                 string size (5)
636D  49636F6E00         "Icon\0"
                         const [48]: "Icon"
6372  04                 const type 4
6373  0E                 string size (14)
6374  4469616D6F6E6442+  "DiamondB"
637C  6F7264657200       "order\0"
                         const [49]: "DiamondBorder"
6382  04                 const type 4
6383  0C                 string size (12)
6384  496E6E6572426F72+  "InnerBor"
638C  64657200           "der\0"
                         const [50]: "InnerBorder"
6390  04                 const type 4
6391  0C                 string size (12)
6392  437573746F6D456E+  "CustomEn"
639A  74727900           "try\0"
                         const [51]: "CustomEntry"
639E  01                 const type 3
639F  01000000           const [52]: (1)
63A3  04                 const type 4
63A4  05                 string size (5)
63A5  4E616D6500         "Name\0"
                         const [53]: "Name"
63AA  04                 const type 4
63AB  06                 string size (6)
63AC  6D4E616D6500       "mName\0"
                         const [54]: "mName"
63B2  04                 const type 4
63B3  0E                 string size (14)
63B4  4C6F63616C697A65+  "Localize"
63BC  644465736300       "dDesc\0"
                         const [55]: "LocalizedDesc"
63C2  04                 const type 4
63C3  06                 string size (6)
63C4  6D4465736300       "mDesc\0"
                         const [56]: "mDesc"
63CA  04                 const type 4
63CB  13                 string size (19)
63CC  43616E5072657669+  "CanPrevi"
63D4  65774F7665727269+  "ewOverri"
63DC  646500             "de\0"
                         const [57]: "CanPreviewOverride"
63DF  04                 const type 4
63E0  13                 string size (19)
63E1  5072657669657754+  "PreviewT"
63E9  61674F7665727269+  "agOverri"
63F1  646500             "de\0"
                         const [58]: "PreviewTagOverride"
63F4  04                 const type 4
63F5  24                 string size (36)
63F6  2F4C6F7475732F4C+  "/Lotus/L"
63FE  616E67756167652F+  "anguage/"
6406  4D656E752F4C6F61+  "Menu/Loa"
640E  646F75745F52656D+  "dout_Rem"
6416  6F766500           "ove\0"
                         const [59]: "/Lotus/Language/Menu/Loadout_Remove"
641A  01                 const type 3
641B  DCC68F4C           const [60]: (1284490972)
641F  01                 const type 3
6420  DEAD95F5           const [61]: (-174740002)
6424  01                 const type 3
6425  0B477B6B           const [62]: (1803241227)
6429  04                 const type 4
642A  05                 string size (5)
642B  2E42746E00         ".Btn\0"
                         const [63]: ".Btn"
6430  04                 const type 4
6431  09                 string size (9)
6432  5F73637265656E58+  "_screenX"
643A  00                 "\0"
                         const [64]: "_screenX"
643B  04                 const type 4
643C  09                 string size (9)
643D  5F73637265656E59+  "_screenY"
6445  00                 "\0"
                         const [65]: "_screenY"
6446  04                 const type 4
6447  0A                 string size (10)
6448  6D54776F536C6F74+  "mTwoSlot"
6450  7300               "s\0"
                         const [66]: "mTwoSlots"
6452  03                 const type 3
6453  00006143           const [67]: (0)
6457  03                 const type 3
6458  0000FA42           const [68]: (0)
645C  03                 const type 3
645D  00001643           const [69]: (0)
6461  04                 const type 4
6462  03                 string size (3)
6463  5F5400             "_T\0"
                         const [70]: "_T"
6466  04                 const type 4
6467  0F                 string size (15)
6468  496E666F506F7075+  "InfoPopu"
6470  705F4772696400     "p_Grid\0"
                         const [71]: "InfoPopup_Grid"
6477  04                 const type 4
6478  0F                 string size (15)
6479  496E666F506F7075+  "InfoPopu"
6481  705F4461746100     "p_Data\0"
                         const [72]: "InfoPopup_Data"
6488  04                 const type 4
6489  0E                 string size (14)
648A  2E486F766572426F+  ".HoverBo"
6492  726465727300       "rders\0"
                         const [73]: ".HoverBorders"
6498  04                 const type 4
6499  15                 string size (21)
649A  466C617368496E73+  "FlashIns"
64A2  74616E63655F4C49+  "tance_LI"
64AA  4E45415200         "NEAR\0"
                         const [74]: "FlashInstance_LINEAR"
64AF  04                 const type 4
64B0  07                 string size (7)
64B1  5F616C70686100     "_alpha\0"
                         const [75]: "_alpha"
64B8  03                 const type 3
64B9  0000C842           const [76]: (0)
64BD  03                 const type 3
64BE  0000803F           const [77]: (0)
64C2  03                 const type 3
64C3  00008040           const [78]: (0)
64C7  04                 const type 4
64C8  15                 string size (21)
64C9  2E486F766572426F+  ".HoverBo"
64D1  72646572732E426F+  "rders.Bo"
64D9  7264657200         "rder\0"
                         const [79]: ".HoverBorders.Border"
64DE  04                 const type 4
64DF  17                 string size (23)
64E0  466C617368496E73+  "FlashIns"
64E8  74616E63655F4541+  "tance_EA"
64F0  53455F4F555400     "SE_OUT\0"
                         const [80]: "FlashInstance_EASE_OUT"
64F7  03                 const type 3
64F8  00803B44           const [81]: (0)
64FC  03                 const type 3
64FD  0000803E           const [82]: (0)
                         * functions:
6501  00                 sizep (0)
                         * lines:
6503  02                 sizelineinfo (352)
                         [pc] (line)
6504  88                 [001] (-120)
6505  02                 [002] (-120)
6506  00                 [003] (-120)
6507  00                 [004] (-120)
6508  88                 [005] (-120)
6509  02                 [006] (-120)
650A  00                 [007] (-120)
650B  00                 [008] (-120)
650C  88                 [009] (-120)
650D  02                 [010] (-120)
650E  00                 [011] (-120)
650F  00                 [012] (-120)
6510  88                 [013] (-120)
6511  02                 [014] (-120)
6512  00                 [015] (-120)
6513  00                 [016] (-120)
6514  88                 [017] (-120)
6515  02                 [018] (-120)
6516  00                 [019] (-120)
6517  00                 [020] (-120)
6518  88                 [021] (-118)
6519  02                 [022] (-118)
651A  00                 [023] (-118)
651B  00                 [024] (-118)
651C  88                 [025] (-118)
651D  02                 [026] (-117)
651E  00                 [027] (-116)
651F  00                 [028] (-116)
6520  88                 [029] (-115)
6521  02                 [030] (-115)
6522  00                 [031] (-115)
6523  00                 [032] (-115)
6524  88                 [033] (-115)
6525  02                 [034] (-112)
6526  00                 [035] (-111)
6527  00                 [036] (-111)
6528  88                 [037] (-110)
6529  02                 [038] (-109)
652A  00                 [039] (-109)
652B  00                 [040] (-108)
652C  88                 [041] (-108)
652D  02                 [042] (-107)
652E  00                 [043] (-107)
652F  00                 [044] (-106)
6530  88                 [045] (-106)
6531  02                 [046] (-105)
6532  00                 [047] (-104)
6533  00                 [048] (-104)
6534  88                 [049] (-103)
6535  02                 [050] (-103)
6536  00                 [051] (-103)
6537  00                 [052] (-103)
6538  88                 [053] (-103)
6539  02                 [054] (-103)
653A  00                 [055] (-103)
653B  00                 [056] (-103)
653C  88                 [057] (-103)
653D  02                 [058] (-103)
653E  00                 [059] (-103)
653F  00                 [060] (-103)
6540  88                 [061] (-101)
6541  02                 [062] (-101)
6542  00                 [063] (-100)
6543  00                 [064] (-99)
6544  88                 [065] (-99)
6545  02                 [066] (-98)
6546  00                 [067] (-98)
6547  00                 [068] (-98)
6548  88                 [069] (-97)
6549  02                 [070] (-97)
654A  00                 [071] (-97)
654B  00                 [072] (-97)
654C  88                 [073] (-97)
654D  02                 [074] (-97)
654E  00                 [075] (-97)
654F  00                 [076] (-97)
6550  88                 [077] (-97)
6551  02                 [078] (-97)
6552  00                 [079] (-97)
6553  00                 [080] (-97)
6554  8A                 [081] (-97)
6555  02                 [082] (-97)
6556  00                 [083] (-97)
6557  00                 [084] (-97)
6558  8A                 [085] (-97)
6559  02                 [086] (-94)
655A  00                 [087] (-94)
655B  00                 [088] (-94)
655C  8A                 [089] (-94)
655D  02                 [090] (-94)
655E  00                 [091] (-94)
655F  00                 [092] (-92)
6560  8A                 [093] (-92)
6561  02                 [094] (-91)
6562  00                 [095] (-91)
6563  00                 [096] (-90)
6564  8A                 [097] (-90)
6565  02                 [098] (-89)
6566  00                 [099] (-89)
6567  00                 [100] (-88)
6568  8B                 [101] (-88)
6569  02                 [102] (-85)
656A  00                 [103] (-85)
656B  00                 [104] (-85)
656C  8C                 [105] (-85)
656D  02                 [106] (-85)
656E  00                 [107] (-85)
656F  00                 [108] (-83)
6570  8C                 [109] (-83)
6571  02                 [110] (-80)
6572  00                 [111] (-80)
6573  00                 [112] (-80)
6574  8D                 [113] (-79)
6575  02                 [114] (-79)
6576  00                 [115] (-79)
6577  00                 [116] (-79)
6578  8D                 [117] (-79)
6579  02                 [118] (-79)
657A  00                 [119] (-79)
657B  00                 [120] (-78)
657C  8D                 [121] (-78)
657D  02                 [122] (-78)
657E  00                 [123] (-78)
657F  00                 [124] (-78)
6580  8D                 [125] (-78)
6581  02                 [126] (-78)
6582  00                 [127] (-77)
6583  00                 [128] (-77)
6584  8D                 [129] (-77)
6585  02                 [130] (-77)
6586  00                 [131] (-77)
6587  00                 [132] (-77)
6588  90                 [133] (-77)
6589  02                 [134] (-76)
658A  00                 [135] (-76)
658B  00                 [136] (-76)
658C  91                 [137] (-76)
658D  02                 [138] (-76)
658E  00                 [139] (-76)
658F  00                 [140] (-76)
6590  91                 [141] (-74)
6591  02                 [142] (-74)
6592  00                 [143] (-74)
6593  00                 [144] (-74)
6594  92                 [145] (-74)
6595  02                 [146] (-74)
6596  00                 [147] (-74)
6597  00                 [148] (-73)
6598  93                 [149] (-73)
6599  02                 [150] (-73)
659A  00                 [151] (-73)
659B  00                 [152] (-73)
659C  93                 [153] (-73)
659D  02                 [154] (-73)
659E  00                 [155] (-72)
659F  00                 [156] (-72)
65A0  94                 [157] (-72)
65A1  02                 [158] (-72)
65A2  00                 [159] (-72)
65A3  00                 [160] (-72)
65A4  94                 [161] (-72)
65A5  02                 [162] (-71)
65A6  00                 [163] (-71)
65A7  00                 [164] (-71)
65A8  95                 [165] (-71)
65A9  02                 [166] (-71)
65AA  00                 [167] (-71)
65AB  00                 [168] (-71)
65AC  95                 [169] (-70)
65AD  02                 [170] (-70)
65AE  00                 [171] (-70)
65AF  00                 [172] (-70)
65B0  96                 [173] (-70)
65B1  02                 [174] (-70)
65B2  00                 [175] (-70)
65B3  00                 [176] (-69)
65B4  96                 [177] (-69)
65B5  02                 [178] (-69)
65B6  00                 [179] (-69)
65B7  00                 [180] (-69)
65B8  97                 [181] (-69)
65B9  02                 [182] (-69)
65BA  00                 [183] (-68)
65BB  00                 [184] (-68)
65BC  98                 [185] (-68)
65BD  02                 [186] (-68)
65BE  00                 [187] (-68)
65BF  00                 [188] (-68)
65C0  98                 [189] (-68)
65C1  02                 [190] (-67)
65C2  00                 [191] (-67)
65C3  00                 [192] (-67)
65C4  99                 [193] (-67)
65C5  02                 [194] (-67)
65C6  00                 [195] (-67)
65C7  00                 [196] (-67)
65C8  99                 [197] (-66)
65C9  02                 [198] (-66)
65CA  00                 [199] (-66)
65CB  00                 [200] (-66)
65CC  99                 [201] (-66)
65CD  02                 [202] (-66)
65CE  00                 [203] (-66)
65CF  00                 [204] (-64)
65D0  99                 [205] (-64)
65D1  02                 [206] (-64)
65D2  00                 [207] (-64)
65D3  00                 [208] (-64)
65D4  99                 [209] (-64)
65D5  02                 [210] (-64)
65D6  00                 [211] (-63)
65D7  00                 [212] (-63)
65D8  99                 [213] (-63)
65D9  02                 [214] (-63)
65DA  00                 [215] (-63)
65DB  00                 [216] (-63)
65DC  99                 [217] (-63)
65DD  02                 [218] (-62)
65DE  00                 [219] (-62)
65DF  00                 [220] (-62)
65E0  99                 [221] (-62)
65E1  02                 [222] (-62)
65E2  00                 [223] (-62)
65E3  00                 [224] (-62)
65E4  99                 [225] (-61)
65E5  02                 [226] (-61)
65E6  00                 [227] (-61)
65E7  00                 [228] (-61)
65E8  99                 [229] (-61)
65E9  02                 [230] (-61)
65EA  00                 [231] (-61)
65EB  00                 [232] (-60)
65EC  99                 [233] (-60)
65ED  02                 [234] (-60)
65EE  00                 [235] (-60)
65EF  00                 [236] (-60)
65F0  99                 [237] (-60)
65F1  02                 [238] (-60)
65F2  00                 [239] (-58)
65F3  00                 [240] (-58)
65F4  9B                 [241] (-57)
65F5  02                 [242] (-57)
65F6  00                 [243] (-57)
65F7  00                 [244] (-57)
65F8  9B                 [245] (-56)
65F9  02                 [246] (-54)
65FA  00                 [247] (-53)
65FB  00                 [248] (-53)
65FC  9C                 [249] (-53)
65FD  02                 [250] (-52)
65FE  00                 [251] (-52)
65FF  00                 [252] (-52)
6600  9D                 [253] (-51)
6601  02                 [254] (-51)
6602  00                 [255] (-51)
6603  00                 [256] (-51)
6604  9D                 [257] (-51)
6605  02                 [258] (-51)
6606  00                 [259] (-51)
6607  00                 [260] (-51)
6608  9E                 [261] (-51)
6609  02                 [262] (-51)
660A  00                 [263] (-51)
660B  00                 [264] (-51)
660C  9E                 [265] (-51)
660D  02                 [266] (-50)
660E  00                 [267] (-48)
660F  00                 [268] (-48)
6610  9E                 [269] (-48)
6611  02                 [270] (-48)
6612  00                 [271] (-47)
6613  00                 [272] (-47)
6614  9F                 [273] (-47)
6615  02                 [274] (-47)
6616  00                 [275] (-47)
6617  00                 [276] (-47)
6618  9F                 [277] (-47)
6619  02                 [278] (-47)
661A  00                 [279] (-47)
661B  00                 [280] (-46)
661C  9F                 [281] (-46)
661D  02                 [282] (-46)
661E  00                 [283] (-46)
661F  00                 [284] (-46)
6620  9F                 [285] (-46)
6621  02                 [286] (-46)
6622  00                 [287] (-46)
6623  00                 [288] (-46)
6624  9F                 [289] (-45)
6625  02                 [290] (-45)
6626  00                 [291] (-45)
6627  00                 [292] (-45)
6628  9F                 [293] (-45)
6629  02                 [294] (-45)
662A  00                 [295] (-44)
662B  00                 [296] (-48)
662C  9F                 [297] (-42)
662D  02                 [298] (-42)
662E  00                 [299] (-41)
662F  00                 [300] (-41)
6630  9F                 [301] (-41)
6631  02                 [302] (-39)
6632  00                 [303] (-39)
6633  00                 [304] (-38)
6634  9F                 [305] (-38)
6635  02                 [306] (-34)
6636  00                 [307] (-34)
6637  00                 [308] (-34)
6638  9F                 [309] (-34)
6639  02                 [310] (-34)
663A  00                 [311] (-34)
663B  00                 [312] (-34)
663C  9F                 [313] (-34)
663D  02                 [314] (-34)
663E  00                 [315] (-34)
663F  00                 [316] (-34)
6640  9F                 [317] (-34)
6641  02                 [318] (-34)
6642  00                 [319] (-34)
6643  00                 [320] (-34)
6644  9F                 [321] (-34)
6645  02                 [322] (-34)
6646  00                 [323] (-34)
6647  00                 [324] (-34)
6648  9F                 [325] (-34)
6649  02                 [326] (-33)
664A  00                 [327] (-33)
664B  00                 [328] (-33)
664C  9F                 [329] (-33)
664D  02                 [330] (-32)
664E  00                 [331] (-32)
664F  00                 [332] (-32)
6650  9F                 [333] (-32)
6651  02                 [334] (-32)
6652  00                 [335] (-32)
6653  00                 [336] (-32)
6654  9F                 [337] (-32)
6655  02                 [338] (-32)
6656  00                 [339] (-32)
6657  00                 [340] (-32)
6658  A2                 [341] (-32)
6659  02                 [342] (-32)
665A  00                 [343] (-32)
665B  00                 [344] (-32)
665C  A2                 [345] (-32)
665D  02                 [346] (-32)
665E  00                 [347] (-32)
665F  00                 [348] (-32)
6660  A2                 [349] (-32)
6661  02                 [350] (-32)
6662  00                 [351] (-33)
6663  00                 [352] (-30)
                         * locals:
6A84  00                 sizelocvars (0)
                         * upvalues:
6A85  00                 sizeupvalues (0)
                         ** end of function **

                         
6A86                     ** function [24] definition (level 2)
                         ** start of function **
6A86  00                 string size (0)
                         source name: (none)
6A88  05                 line defined (740)
6A89  B0                 last line defined (816)
6A8A  06                 nups (5)
6A8B  05                 numparams (2)
6A8C  02                 is_vararg (0)
6A8D  00                 maxstacksize (24)
                         * code:
6A90  02                 sizecode (358)
6A91  A4004000           [001] self       2   0   256  ; -1749775947
6A95  A2800001           [002] call       2   2   2  
fail op	35
6A99  63404001           [003] close      1  
6A9D  1AC00080           [004] jmp        4            ; to [9]
6AA1  CE804001           [005] gettable   3   2   258  ; "Id"
6AA5  0E81C000           [006] gettable   4   1   258  ; "Id"
fail op	35
6AA9  63008101           [007] close      1  
6AAD  1A000080           [008] jmp        1            ; to [10]
6AB1  D7400000           [009] loadbool   3   0   1    ; false, to [11]
6AB5  D7008000           [010] loadbool   3   1   0    ; true
6AB9  0EC1C000           [011] gettable   4   1   259  ; "mMod"
fail op	35
6ABD  23404002           [012] close      0  
6AC1  1A000080           [013] jmp        1            ; to [15]
6AC5  17410000           [014] loadbool   4   0   1    ; false, to [16]
6AC9  17018000           [015] loadbool   4   1   0    ; true
6ACD  4E01C100           [016] gettable   5   1   260  ; "mStatus"
fail op	35
6AD1  2340C002           [017] close      0  
6AD5  1A000180           [018] jmp        5            ; to [24]
6AD9  8BC10000           [019] newtable   6   0   3    ; array=0, hash=3
6ADD  8C81C182           [020] settable   6   261 262  ; "mOn" 0
6AE1  8C81C183           [021] settable   6   263 262  ; "mDamaged" 0
6AE5  8C814184           [022] settable   6   264 262  ; "mPowered" 0
6AE9  52010003           [023] move       5   6      
6AED  9D410200           [024] getglobal  6   9        ; mMovie
6AF1  A4814203           [025] self       6   6   266  ; -2013161817
6AF5  0EC2C200           [026] gettable   8   1   267  ; "mClipName"
6AF9  59020300           [027] loadk      9   12       ; "Icon"
6AFD  99420300           [028] loadk      10  13       ; "_visible"
6B01  D2020002           [029] move       11  4      
6B05  A2410003           [030] call       6   6   1  
6B09  9D410200           [031] getglobal  6   9        ; mMovie
6B0D  A4814203           [032] self       6   6   266  ; -2013161817
6B11  0EC2C200           [033] gettable   8   1   267  ; "mClipName"
6B15  59820300           [034] loadk      9   14       ; "InnerBorder"
6B19  99420300           [035] loadk      10  13       ; "_visible"
6B1D  D2020002           [036] move       11  4      
6B21  A2410003           [037] call       6   6   1  
6B25  9D410200           [038] getglobal  6   9        ; mMovie
6B29  A4814203           [039] self       6   6   266  ; -2013161817
6B2D  0EC2C200           [040] gettable   8   1   267  ; "mClipName"
6B31  59820300           [041] loadk      9   14       ; "InnerBorder"
6B35  99C20300           [042] loadk      10  15       ; "_alpha"
6B39  D9020400           [043] loadk      11  16       ; 0
6B3D  A2410003           [044] call       6   6   1  
6B41  9D410200           [045] getglobal  6   9        ; mMovie
6B45  A4814203           [046] self       6   6   266  ; -2013161817
6B49  0EC2C200           [047] gettable   8   1   267  ; "mClipName"
6B4D  59420400           [048] loadk      9   17       ; "DisabledInnerBorder"
6B51  99420300           [049] loadk      10  13       ; "_visible"
6B55  D7020000           [050] loadbool   11  0   0    ; false
6B59  A2410003           [051] call       6   6   1  
6B5D  9D410200           [052] getglobal  6   9        ; mMovie
6B61  A4814203           [053] self       6   6   266  ; -2013161817
6B65  0EC2C200           [054] gettable   8   1   267  ; "mClipName"
6B69  59820400           [055] loadk      9   18       ; "ModBacker"
6B6D  99420300           [056] loadk      10  13       ; "_visible"
6B71  D2020002           [057] move       11  4      
6B75  A2410003           [058] call       6   6   1  
6B79  9D410200           [059] getglobal  6   9        ; mMovie
6B7D  A4814203           [060] self       6   6   266  ; -2013161817
6B81  0EC2C200           [061] gettable   8   1   267  ; "mClipName"
6B85  59C20400           [062] loadk      9   19       ; "DoubleWideFill"
6B89  99420300           [063] loadk      10  13       ; "_visible"
6B8D  D2020002           [064] move       11  4      
6B91  A2410003           [065] call       6   6   1  
6B95  9D410200           [066] getglobal  6   9        ; mMovie
6B99  A4814203           [067] self       6   6   266  ; -2013161817
6B9D  0EC2C200           [068] gettable   8   1   267  ; "mClipName"
6BA1  59020500           [069] loadk      9   20       ; "InnerBorderBlurred"
6BA5  99420300           [070] loadk      10  13       ; "_visible"
6BA9  D2020002           [071] move       11  4      
6BAD  A2410003           [072] call       6   6   1  
6BB1  9D410200           [073] getglobal  6   9        ; mMovie
6BB5  A4814203           [074] self       6   6   266  ; -2013161817
6BB9  0EC2C200           [075] gettable   8   1   267  ; "mClipName"
6BBD  59420500           [076] loadk      9   21       ; "TopDiamond"
6BC1  99420300           [077] loadk      10  13       ; "_visible"
fail op	5
6BC5  C5020002           [078] getglobal  11  2048     ; nil
6BC9  1A800180           [079] jmp        7            ; to [87]
6BCD  D3020000           [080] getupval   11  0      
6BD1  13038000           [081] getupval   12  1      
6BD5  0E834506           [082] gettable   12  12  278  ; "ENABLE"
fail op	35
6BD9  63008305           [083] close      1  
6BDD  1A000080           [084] jmp        1            ; to [86]
6BE1  D7420000           [085] loadbool   11  0   1    ; false, to [87]
6BE5  D7028000           [086] loadbool   11  1   0    ; true
6BE9  A2410003           [087] call       6   6   1  
6BED  9D410200           [088] getglobal  6   9        ; mMovie
6BF1  A4814203           [089] self       6   6   266  ; -2013161817
6BF5  0EC2C200           [090] gettable   8   1   267  ; "mClipName"
6BF9  59C20500           [091] loadk      9   23       ; "TopIcon"
6BFD  99420300           [092] loadk      10  13       ; "_visible"
fail op	5
6C01  C5020002           [093] getglobal  11  2048     ; nil
6C05  1A800180           [094] jmp        7            ; to [102]
6C09  D3020000           [095] getupval   11  0      
6C0D  13038000           [096] getupval   12  1      
6C11  0E834506           [097] gettable   12  12  278  ; "ENABLE"
fail op	35
6C15  63008305           [098] close      1  
6C19  1A000080           [099] jmp        1            ; to [101]
6C1D  D7420000           [100] loadbool   11  0   1    ; false, to [102]
6C21  D7028000           [101] loadbool   11  1   0    ; true
6C25  A2410003           [102] call       6   6   1  
6C29  9D410200           [103] getglobal  6   9        ; mMovie
6C2D  A4814203           [104] self       6   6   266  ; -2013161817
6C31  0EC2C200           [105] gettable   8   1   267  ; "mClipName"
6C35  59020600           [106] loadk      9   24       ; "BottomDiamond"
6C39  99420300           [107] loadk      10  13       ; "_visible"
6C3D  D2020002           [108] move       11  4      
6C41  A2410003           [109] call       6   6   1  
6C45  9D410600           [110] getglobal  6   25       ; -1939558487
6C49  DD410200           [111] getglobal  7   9        ; mMovie
6C4D  0EC2C200           [112] gettable   8   1   267  ; "mClipName"
6C51  59820600           [113] loadk      9   26       ; ".EmptyMod.gotoAndStop"
6C55  02420204           [114] concat     8   8   9  
6C59  53020001           [115] getupval   9   2      
6C5D  4EC2C604           [116] gettable   9   9   283  ; -132701534
6C61  92020002           [117] move       10  4      
6C65  D9020700           [118] loadk      11  28       ; 0
6C69  19430700           [119] loadk      12  29       ; 0
6C6D  62020002           [120] call       9   4   0  
6C71  A2410000           [121] call       6   0   1  
6C75  9D410600           [122] getglobal  6   25       ; -1939558487
6C79  DD410200           [123] getglobal  7   9        ; mMovie
6C7D  0EC2C200           [124] gettable   8   1   267  ; "mClipName"
6C81  59820700           [125] loadk      9   30       ; ".OuterBorder.gotoAndStop"
6C85  02420204           [126] concat     8   8   9  
6C89  53020001           [127] getupval   9   2      
6C8D  4EC2C604           [128] gettable   9   9   283  ; -132701534
6C91  92020002           [129] move       10  4      
6C95  D9020700           [130] loadk      11  28       ; 0
6C99  19430700           [131] loadk      12  29       ; 0
6C9D  62020002           [132] call       9   4   0  
6CA1  A2410000           [133] call       6   0   1  
6CA5  99410700           [134] loadk      6   29       ; 0
6CA9  D9C10700           [135] loadk      7   31       ; 0
6CAD  19420700           [136] loadk      8   29       ; 0
6CB1  90810280           [137] forprep    6   11       ; to [149]
6CB5  9D420600           [138] getglobal  10  25       ; -1939558487
6CB9  DD420200           [139] getglobal  11  9        ; mMovie
6CBD  0EC3C200           [140] gettable   12  1   267  ; "mClipName"
6CC1  59030800           [141] loadk      13  32       ; ".HoverBorders.Border"
6CC5  9D430800           [142] getglobal  14  33       ; -1615931716
6CC9  D2038004           [143] move       15  9      
6CCD  A2830001           [144] call       14  2   2  
6CD1  D9830800           [145] loadk      15  34       ; ".gotoAndStop"
6CD5  02C30306           [146] concat     12  12  15 
6CD9  59430700           [147] loadk      13  29       ; 0
6CDD  A2420002           [148] call       10  4   1  
6CE1  94C1FC7F           [149] forloop    6   -12      ; to [138] if loop
6CE5  9D420200           [150] getglobal  10  9        ; mMovie
6CE9  A4824205           [151] self       10  10  266  ; -2013161817
6CED  0EC3C200           [152] gettable   12  1   267  ; "mClipName"
6CF1  59C30800           [153] loadk      13  35       ; "InnerGlowBig"
6CF5  99C30300           [154] loadk      14  15       ; "_alpha"
6CF9  D9030900           [155] loadk      15  36       ; 0
6CFD  A2420003           [156] call       10  6   1  
6D01  9D420200           [157] getglobal  10  9        ; mMovie
6D05  A4824205           [158] self       10  10  266  ; -2013161817
6D09  0EC3C200           [159] gettable   12  1   267  ; "mClipName"
6D0D  59430900           [160] loadk      13  37       ; "InnerGlowSmall"
6D11  99C30300           [161] loadk      14  15       ; "_alpha"
6D15  D9030900           [162] loadk      15  36       ; 0
6D19  A2420003           [163] call       10  6   1  
6D1D  9D420200           [164] getglobal  10  9        ; mMovie
6D21  A4824205           [165] self       10  10  266  ; -2013161817
6D25  0EC3C200           [166] gettable   12  1   267  ; "mClipName"
6D29  59830900           [167] loadk      13  38       ; "HoverBorders"
6D2D  99C30300           [168] loadk      14  15       ; "_alpha"
6D31  D9C30900           [169] loadk      15  39       ; 0
6D35  A2420003           [170] call       10  6   1  
6D39  9D420200           [171] getglobal  10  9        ; mMovie
6D3D  A4824205           [172] self       10  10  266  ; -2013161817
6D41  0EC3C200           [173] gettable   12  1   267  ; "mClipName"
6D45  59830900           [174] loadk      13  38       ; "HoverBorders"
6D49  99030A00           [175] loadk      14  40       ; "_color"
6D4D  D3038001           [176] getupval   15  3      
6D51  CE43CA07           [177] gettable   15  15  297  ; "FloatingContent"
6D55  A2420003           [178] call       10  6   1  
6D59  99420700           [179] loadk      10  29       ; 0
6D5D  D9C20700           [180] loadk      11  31       ; 0
6D61  19430700           [181] loadk      12  29       ; 0
6D65  90420280           [182] forprep    10  10       ; to [193]
6D69  9D430200           [183] getglobal  14  9        ; mMovie
6D6D  A4834A07           [184] self       14  14  298  ; 471456102
6D71  0EC4C200           [185] gettable   16  1   267  ; "mClipName"
6D75  59040800           [186] loadk      17  32       ; ".HoverBorders.Border"
6D79  92048006           [187] move       18  13     
6D7D  02840408           [188] concat     16  16  18 
6D81  59C40300           [189] loadk      17  15       ; "_alpha"
6D85  8D448395           [190] sub        18  299 13   ; 0
6D89  84044B09           [191] mul        18  18  300  ; 0
6D8D  A2438002           [192] call       14  5   1  
6D91  9402FD7F           [193] forloop    10  -11      ; to [183] if loop
6D95  93030002           [194] getupval   14  4      
6D99  D2030000           [195] move       15  0      
6D9D  12048000           [196] move       16  1      
6DA1  52048001           [197] move       17  3      
6DA5  97048000           [198] loadbool   18  1   0    ; true
6DA9  A2438002           [199] call       14  5   1  
6DAD  9D430B00           [200] getglobal  14  45       ; defaultModTexture
6DB1  D9830B00           [201] loadk      15  46       ; ""
6DB5  18010000           [202] test       4       0    ; to [204] if true
6DB9  1A400C80           [203] jmp        50           ; to [254]
6DBD  0EC4C000           [204] gettable   16  1   259  ; "mMod"
6DC1  8EC34B08           [205] gettable   14  16  303  ; "mIcon"
6DC5  19040C00           [206] loadk      16  48       ; "<DT_ELECTRICITY>"
6DC9  53040001           [207] getupval   17  2      
6DCD  4E44CC08           [208] gettable   17  17  305  ; 2115597333
6DD1  8EC4C000           [209] gettable   18  1   259  ; "mMod"
6DD5  8E844C09           [210] gettable   18  18  306  ; "mDrain"
6DD9  62840001           [211] call       17  2   2  
6DDD  99C40C00           [212] loadk      18  51       ; "\r\n"
6DE1  C2830408           [213] concat     15  16  18 
6DE5  06040008           [214] loadnil    16  16     
6DE9  59C40900           [215] loadk      17  39       ; 0
6DED  8EC4C102           [216] gettable   18  5   263  ; "mDamaged"
6DF1  98040000           [217] test       18      0    ; to [219] if true
6DF5  1AC00080           [218] jmp        4            ; to [223]
6DF9  9D040D00           [219] getglobal  18  52       ; topIconTextures
6DFD  0E444D09           [220] gettable   16  18  309  ; 0
6E01  59840D00           [221] loadk      17  54       ; 0
6E05  1A000480           [222] jmp        17           ; to [240]
6E09  8E44C102           [223] gettable   18  5   261  ; "mOn"
6E0D  98040000           [224] test       18      0    ; to [226] if true
6E11  1A400180           [225] jmp        6            ; to [232]
6E15  8E04C202           [226] gettable   18  5   264  ; "mPowered"
6E19  98440000           [227] test       18      1    ; to [229] if false
6E1D  1A800080           [228] jmp        3            ; to [232]
6E21  9D040D00           [229] getglobal  18  52       ; topIconTextures
6E25  0EC44709           [230] gettable   16  18  287  ; 0
6E29  1AC00180           [231] jmp        8            ; to [240]
6E2D  8E44C102           [232] gettable   18  5   261  ; "mOn"
6E31  98040000           [233] test       18      0    ; to [235] if true
6E35  1A800080           [234] jmp        3            ; to [238]
6E39  9D040D00           [235] getglobal  18  52       ; topIconTextures
6E3D  0E044709           [236] gettable   16  18  284  ; 0
6E41  1A400080           [237] jmp        2            ; to [240]
6E45  9D040D00           [238] getglobal  18  52       ; topIconTextures
6E49  0E444709           [239] gettable   16  18  285  ; 0
6E4D  9D440200           [240] getglobal  18  9        ; mMovie
6E51  A4844209           [241] self       18  18  266  ; -2013161817
6E55  0EC5C200           [242] gettable   20  1   267  ; "mClipName"
6E59  59C50500           [243] loadk      21  23       ; "TopIcon"
6E5D  99C50D00           [244] loadk      22  55       ; "_y"
6E61  C345049C           [245] add        23  312 17   ; 0
6E65  A2440003           [246] call       18  6   1  
6E69  9D440200           [247] getglobal  18  9        ; mMovie
6E6D  A4444E09           [248] self       18  18  313  ; 643307062
6E71  0EC5C200           [249] gettable   20  1   267  ; "mClipName"
6E75  59850E00           [250] loadk      21  58       ; ".TopIcon"
6E79  0245050A           [251] concat     20  20  21 
6E7D  52050008           [252] move       21  16     
6E81  A2440002           [253] call       18  4   1  
6E85  8EC4CE00           [254] gettable   18  1   315  ; "Level"
fail op	35
6E89  63404009           [255] close      1  
6E8D  1AC00080           [256] jmp        4            ; to [261]
6E91  92048007           [257] move       18  15     
6E95  D9040F00           [258] loadk      19  60       ; "Lvl = "
6E99  0EC5CE00           [259] gettable   20  1   315  ; "Level"
6E9D  C2030509           [260] concat     15  18  20 
6EA1  9D440200           [261] getglobal  18  9        ; mMovie
6EA5  A4444F09           [262] self       18  18  317  ; 386043535
6EA9  0EC5C200           [263] gettable   20  1   267  ; "mClipName"
6EAD  59850F00           [264] loadk      21  62       ; ".Drain.text"
6EB1  0245050A           [265] concat     20  20  21 
6EB5  52058007           [266] move       21  15     
6EB9  A2440002           [267] call       18  4   1  
6EBD  9D440200           [268] getglobal  18  9        ; mMovie
6EC1  A4444E09           [269] self       18  18  313  ; 643307062
6EC5  0EC5C200           [270] gettable   20  1   267  ; "mClipName"
6EC9  59C50F00           [271] loadk      21  63       ; ".Icon"
6ECD  0245050A           [272] concat     20  20  21 
6ED1  52050007           [273] move       21  14     
6ED5  A2440002           [274] call       18  4   1  
6ED9  9D440200           [275] getglobal  18  9        ; mMovie
6EDD  A4844209           [276] self       18  18  266  ; -2013161817
6EE1  0EC5C200           [277] gettable   20  1   267  ; "mClipName"
6EE5  59051000           [278] loadk      21  64       ; "Backer"
6EE9  99050A00           [279] loadk      22  40       ; "_color"
6EED  D3058001           [280] getupval   23  3      
6EF1  CE45D00B           [281] gettable   23  23  321  ; "Background1"
6EF5  A2440003           [282] call       18  6   1  
6EF9  9D440200           [283] getglobal  18  9        ; mMovie
6EFD  A4844209           [284] self       18  18  266  ; -2013161817
6F01  0EC5C200           [285] gettable   20  1   267  ; "mClipName"
6F05  59051000           [286] loadk      21  64       ; "Backer"
6F09  99C50300           [287] loadk      22  15       ; "_alpha"
6F0D  D9851000           [288] loadk      23  66       ; 0
6F11  A2440003           [289] call       18  6   1  
6F15  9D440200           [290] getglobal  18  9        ; mMovie
6F19  A4844209           [291] self       18  18  266  ; -2013161817
6F1D  0EC5C200           [292] gettable   20  1   267  ; "mClipName"
6F21  59450900           [293] loadk      21  37       ; "InnerGlowSmall"
6F25  99050A00           [294] loadk      22  40       ; "_color"
6F29  D3058001           [295] getupval   23  3      
6F2D  CEC5D00B           [296] gettable   23  23  323  ; "Content"
6F31  A2440003           [297] call       18  6   1  
6F35  9D440200           [298] getglobal  18  9        ; mMovie
6F39  A4844209           [299] self       18  18  266  ; -2013161817
6F3D  0EC5C200           [300] gettable   20  1   267  ; "mClipName"
6F41  59051100           [301] loadk      21  68       ; "DividerDetailRight"
6F45  99050A00           [302] loadk      22  40       ; "_color"
6F49  D3058001           [303] getupval   23  3      
6F4D  CE45D10B           [304] gettable   23  23  325  ; "Background4"
6F51  A2440003           [305] call       18  6   1  
6F55  9D440200           [306] getglobal  18  9        ; mMovie
6F59  A4844209           [307] self       18  18  266  ; -2013161817
6F5D  0EC5C200           [308] gettable   20  1   267  ; "mClipName"
6F61  59851100           [309] loadk      21  70       ; "DividerDetailLeft"
6F65  99050A00           [310] loadk      22  40       ; "_color"
6F69  D3058001           [311] getupval   23  3      
6F6D  CE45D10B           [312] gettable   23  23  325  ; "Background4"
6F71  A2440003           [313] call       18  6   1  
6F75  9D440200           [314] getglobal  18  9        ; mMovie
6F79  A4844209           [315] self       18  18  266  ; -2013161817
6F7D  0EC5C200           [316] gettable   20  1   267  ; "mClipName"
6F81  59C51100           [317] loadk      21  71       ; "ModBorderBlurred"
6F85  99051200           [318] loadk      22  72       ; "_z"
6F89  D9451200           [319] loadk      23  73       ; 0
6F8D  A2440003           [320] call       18  6   1  
6F91  9D440200           [321] getglobal  18  9        ; mMovie
6F95  A4844209           [322] self       18  18  266  ; -2013161817
6F99  0EC5C200           [323] gettable   20  1   267  ; "mClipName"
6F9D  59C51100           [324] loadk      21  71       ; "ModBorderBlurred"
6FA1  99050A00           [325] loadk      22  40       ; "_color"
6FA5  D3058001           [326] getupval   23  3      
6FA9  CE45D10B           [327] gettable   23  23  325  ; "Background4"
6FAD  A2440003           [328] call       18  6   1  
6FB1  9D440200           [329] getglobal  18  9        ; mMovie
6FB5  A4844209           [330] self       18  18  266  ; -2013161817
6FB9  0EC5C200           [331] gettable   20  1   267  ; "mClipName"
6FBD  59C51100           [332] loadk      21  71       ; "ModBorderBlurred"
6FC1  99C50300           [333] loadk      22  15       ; "_alpha"
6FC5  D9851200           [334] loadk      23  74       ; 0
6FC9  A2440003           [335] call       18  6   1  
6FCD  9D440200           [336] getglobal  18  9        ; mMovie
6FD1  A4844209           [337] self       18  18  266  ; -2013161817
6FD5  0EC5C200           [338] gettable   20  1   267  ; "mClipName"
6FD9  59050500           [339] loadk      21  20       ; "InnerBorderBlurred"
6FDD  99051200           [340] loadk      22  72       ; "_z"
6FE1  D9C51200           [341] loadk      23  75       ; 0
6FE5  A2440003           [342] call       18  6   1  
6FE9  9D440200           [343] getglobal  18  9        ; mMovie
6FED  A4844209           [344] self       18  18  266  ; -2013161817
6FF1  0EC5C200           [345] gettable   20  1   267  ; "mClipName"
6FF5  59050500           [346] loadk      21  20       ; "InnerBorderBlurred"
6FF9  99050A00           [347] loadk      22  40       ; "_color"
6FFD  D3058001           [348] getupval   23  3      
7001  CE45D10B           [349] gettable   23  23  325  ; "Background4"
7005  A2440003           [350] call       18  6   1  
7009  9D440200           [351] getglobal  18  9        ; mMovie
700D  A4844209           [352] self       18  18  266  ; -2013161817
7011  0EC5C200           [353] gettable   20  1   267  ; "mClipName"
7015  59050500           [354] loadk      21  20       ; "InnerBorderBlurred"
7019  99C50300           [355] loadk      22  15       ; "_alpha"
701D  D9051300           [356] loadk      23  76       ; 0
7021  A2440003           [357] call       18  6   1  
7025  1E008000           [358] return     0   1      
                         * constants:
7029  4D                 sizek (77)
702A  01                 const type 3
702B  B589B497           const [0]: (-1749775947)
702F  00                 const type 0
                         const [1]: nil
7030  04                 const type 4
7031  03                 string size (3)
7032  496400             "Id\0"
                         const [2]: "Id"
7035  04                 const type 4
7036  05                 string size (5)
7037  6D4D6F6400         "mMod\0"
                         const [3]: "mMod"
703C  04                 const type 4
703D  08                 string size (8)
703E  6D53746174757300   "mStatus\0"
                         const [4]: "mStatus"
7046  04                 const type 4
7047  04                 string size (4)
7048  6D4F6E00           "mOn\0"
                         const [5]: "mOn"
704C  01                 const type 3
704D  00000000           const [6]: (0)
7051  04                 const type 4
7052  09                 string size (9)
7053  6D44616D61676564+  "mDamaged"
705B  00                 "\0"
                         const [7]: "mDamaged"
705C  04                 const type 4
705D  09                 string size (9)
705E  6D506F7765726564+  "mPowered"
7066  00                 "\0"
                         const [8]: "mPowered"
7067  04                 const type 4
7068  07                 string size (7)
7069  6D4D6F76696500     "mMovie\0"
                         const [9]: "mMovie"
7070  01                 const type 3
7071  A7960188           const [10]: (-2013161817)
7075  04                 const type 4
7076  0A                 string size (10)
7077  6D436C69704E616D+  "mClipNam"
707F  6500               "e\0"
                         const [11]: "mClipName"
7081  04                 const type 4
7082  05                 string size (5)
7083  49636F6E00         "Icon\0"
                         const [12]: "Icon"
7088  04                 const type 4
7089  09                 string size (9)
708A  5F76697369626C65+  "_visible"
7092  00                 "\0"
                         const [13]: "_visible"
7093  04                 const type 4
7094  0C                 string size (12)
7095  496E6E6572426F72+  "InnerBor"
709D  64657200           "der\0"
                         const [14]: "InnerBorder"
70A1  04                 const type 4
70A2  07                 string size (7)
70A3  5F616C70686100     "_alpha\0"
                         const [15]: "_alpha"
70AA  03                 const type 3
70AB  00004842           const [16]: (0)
70AF  04                 const type 4
70B0  14                 string size (20)
70B1  44697361626C6564+  "Disabled"
70B9  496E6E6572426F72+  "InnerBor"
70C1  64657200           "der\0"
                         const [17]: "DisabledInnerBorder"
70C5  04                 const type 4
70C6  0A                 string size (10)
70C7  4D6F644261636B65+  "ModBacke"
70CF  7200               "r\0"
                         const [18]: "ModBacker"
70D1  04                 const type 4
70D2  0F                 string size (15)
70D3  446F75626C655769+  "DoubleWi"
70DB  646546696C6C00     "deFill\0"
                         const [19]: "DoubleWideFill"
70E2  04                 const type 4
70E3  13                 string size (19)
70E4  496E6E6572426F72+  "InnerBor"
70EC  646572426C757272+  "derBlurr"
70F4  656400             "ed\0"
                         const [20]: "InnerBorderBlurred"
70F7  04                 const type 4
70F8  0B                 string size (11)
70F9  546F704469616D6F+  "TopDiamo"
7101  6E6400             "nd\0"
                         const [21]: "TopDiamond"
7104  04                 const type 4
7105  07                 string size (7)
7106  454E41424C4500     "ENABLE\0"
                         const [22]: "ENABLE"
710D  04                 const type 4
710E  08                 string size (8)
710F  546F7049636F6E00   "TopIcon\0"
                         const [23]: "TopIcon"
7117  04                 const type 4
7118  0E                 string size (14)
7119  426F74746F6D4469+  "BottomDi"
7121  616D6F6E6400       "amond\0"
                         const [24]: "BottomDiamond"
7127  01                 const type 3
7128  A9AF648C           const [25]: (-1939558487)
712C  04                 const type 4
712D  16                 string size (22)
712E  2E456D7074794D6F+  ".EmptyMo"
7136  642E676F746F416E+  "d.gotoAn"
713E  6453746F7000       "dStop\0"
                         const [26]: ".EmptyMod.gotoAndStop"
7144  01                 const type 3
7145  A22217F8           const [27]: (-132701534)
7149  03                 const type 3
714A  00000040           const [28]: (0)
714E  03                 const type 3
714F  0000803F           const [29]: (0)
7153  04                 const type 4
7154  19                 string size (25)
7155  2E4F75746572426F+  ".OuterBo"
715D  726465722E676F74+  "rder.got"
7165  6F416E6453746F70+  "oAndStop"
716D  00                 "\0"
                         const [30]: ".OuterBorder.gotoAndStop"
716E  03                 const type 3
716F  00008040           const [31]: (0)
7173  04                 const type 4
7174  15                 string size (21)
7175  2E486F766572426F+  ".HoverBo"
717D  72646572732E426F+  "rders.Bo"
7185  7264657200         "rder\0"
                         const [32]: ".HoverBorders.Border"
718A  01                 const type 3
718B  BCD6AE9F           const [33]: (-1615931716)
718F  04                 const type 4
7190  0D                 string size (13)
7191  2E676F746F416E64+  ".gotoAnd"
7199  53746F7000         "Stop\0"
                         const [34]: ".gotoAndStop"
719E  04                 const type 4
719F  0D                 string size (13)
71A0  496E6E6572476C6F+  "InnerGlo"
71A8  7742696700         "wBig\0"
                         const [35]: "InnerGlowBig"
71AD  03                 const type 3
71AE  00009642           const [36]: (0)
71B2  04                 const type 4
71B3  0F                 string size (15)
71B4  496E6E6572476C6F+  "InnerGlo"
71BC  77536D616C6C00     "wSmall\0"
                         const [37]: "InnerGlowSmall"
71C3  04                 const type 4
71C4  0D                 string size (13)
71C5  486F766572426F72+  "HoverBor"
71CD  6465727300         "ders\0"
                         const [38]: "HoverBorders"
71D2  03                 const type 3
71D3  00000000           const [39]: (0)
71D7  04                 const type 4
71D8  07                 string size (7)
71D9  5F636F6C6F7200     "_color\0"
                         const [40]: "_color"
71E0  04                 const type 4
71E1  10                 string size (16)
71E2  466C6F6174696E67+  "Floating"
71EA  436F6E74656E7400   "Content\0"
                         const [41]: "FloatingContent"
71F2  01                 const type 3
71F3  66D9191C           const [42]: (471456102)
71F7  03                 const type 3
71F8  0000A040           const [43]: (0)
71FC  03                 const type 3
71FD  00007041           const [44]: (0)
7201  04                 const type 4
7202  12                 string size (18)
7203  64656661756C744D+  "defaultM"
720B  6F64546578747572+  "odTextur"
7213  6500               "e\0"
                         const [45]: "defaultModTexture"
7215  04                 const type 4
7216  01                 string size (0)
                         const [46]: ""
7218  04                 const type 4
7219  06                 string size (6)
721A  6D49636F6E00       "mIcon\0"
                         const [47]: "mIcon"
7220  04                 const type 4
7221  11                 string size (17)
7222  3C44545F454C4543+  "<DT_ELEC"
722A  545249434954593E+  "TRICITY>"
7232  00                 "\0"
                         const [48]: "<DT_ELECTRICITY>"
7233  01                 const type 3
7234  1574197E           const [49]: (2115597333)
7238  04                 const type 4
7239  07                 string size (7)
723A  6D447261696E00     "mDrain\0"
                         const [50]: "mDrain"
7241  04                 const type 4
7242  03                 string size (3)
7243  0D0A00             "\r\n\0"
                         const [51]: "\r\n"
7246  04                 const type 4
7247  10                 string size (16)
7248  746F7049636F6E54+  "topIconT"
7250  6578747572657300   "extures\0"
                         const [52]: "topIconTextures"
7258  03                 const type 3
7259  00004040           const [53]: (0)
725D  03                 const type 3
725E  000040C0           const [54]: (0)
7262  04                 const type 4
7263  03                 string size (3)
7264  5F7900             "_y\0"
                         const [55]: "_y"
7267  03                 const type 3
7268  0000C4C2           const [56]: (0)
726C  01                 const type 3
726D  36165826           const [57]: (643307062)
7271  04                 const type 4
7272  09                 string size (9)
7273  2E546F7049636F6E+  ".TopIcon"
727B  00                 "\0"
                         const [58]: ".TopIcon"
727C  04                 const type 4
727D  06                 string size (6)
727E  4C6576656C00       "Level\0"
                         const [59]: "Level"
7284  04                 const type 4
7285  07                 string size (7)
7286  4C766C203D2000     "Lvl = \0"
                         const [60]: "Lvl = "
728D  01                 const type 3
728E  8F8E0217           const [61]: (386043535)
7292  04                 const type 4
7293  0C                 string size (12)
7294  2E447261696E2E74+  ".Drain.t"
729C  65787400           "ext\0"
                         const [62]: ".Drain.text"
72A0  04                 const type 4
72A1  06                 string size (6)
72A2  2E49636F6E00       ".Icon\0"
                         const [63]: ".Icon"
72A8  04                 const type 4
72A9  07                 string size (7)
72AA  4261636B657200     "Backer\0"
                         const [64]: "Backer"
72B1  04                 const type 4
72B2  0C                 string size (12)
72B3  4261636B67726F75+  "Backgrou"
72BB  6E643100           "nd1\0"
                         const [65]: "Background1"
72BF  03                 const type 3
72C0  00008C42           const [66]: (0)
72C4  04                 const type 4
72C5  08                 string size (8)
72C6  436F6E74656E7400   "Content\0"
                         const [67]: "Content"
72CE  04                 const type 4
72CF  13                 string size (19)
72D0  4469766964657244+  "DividerD"
72D8  657461696C526967+  "etailRig"
72E0  687400             "ht\0"
                         const [68]: "DividerDetailRight"
72E3  04                 const type 4
72E4  0C                 string size (12)
72E5  4261636B67726F75+  "Backgrou"
72ED  6E643400           "nd4\0"
                         const [69]: "Background4"
72F1  04                 const type 4
72F2  12                 string size (18)
72F3  4469766964657244+  "DividerD"
72FB  657461696C4C6566+  "etailLef"
7303  7400               "t\0"
                         const [70]: "DividerDetailLeft"
7305  04                 const type 4
7306  11                 string size (17)
7307  4D6F64426F726465+  "ModBorde"
730F  72426C7572726564+  "rBlurred"
7317  00                 "\0"
                         const [71]: "ModBorderBlurred"
7318  04                 const type 4
7319  03                 string size (3)
731A  5F7A00             "_z\0"
                         const [72]: "_z"
731D  03                 const type 3
731E  00002F44           const [73]: (0)
7322  03                 const type 3
7323  00007042           const [74]: (0)
7327  03                 const type 3
7328  0080BB44           const [75]: (0)
732C  03                 const type 3
732D  0000A041           const [76]: (0)
                         * functions:
7331  00                 sizep (0)
                         * lines:
7333  02                 sizelineinfo (358)
                         [pc] (line)
7334  E5                 [001] (-27)
7335  02                 [002] (-27)
7336  00                 [003] (-26)
7337  00                 [004] (-26)
7338  E5                 [005] (-26)
7339  02                 [006] (-26)
733A  00                 [007] (-26)
733B  00                 [008] (-26)
733C  E6                 [009] (-26)
733D  02                 [010] (-26)
733E  00                 [011] (-25)
733F  00                 [012] (-25)
7340  E6                 [013] (-25)
7341  02                 [014] (-25)
7342  00                 [015] (-25)
7343  00                 [016] (-24)
7344  E6                 [017] (-23)
7345  02                 [018] (-23)
7346  00                 [019] (-22)
7347  00                 [020] (-22)
7348  E6                 [021] (-22)
7349  02                 [022] (-22)
734A  00                 [023] (-22)
734B  00                 [024] (-19)
734C  E6                 [025] (-19)
734D  02                 [026] (-19)
734E  00                 [027] (-19)
734F  00                 [028] (-19)
7350  E6                 [029] (-19)
7351  02                 [030] (-19)
7352  00                 [031] (-18)
7353  00                 [032] (-18)
7354  E6                 [033] (-18)
7355  02                 [034] (-18)
7356  00                 [035] (-18)
7357  00                 [036] (-18)
7358  E6                 [037] (-18)
7359  02                 [038] (-17)
735A  00                 [039] (-17)
735B  00                 [040] (-17)
735C  E7                 [041] (-17)
735D  02                 [042] (-17)
735E  00                 [043] (-17)
735F  00                 [044] (-17)
7360  E7                 [045] (-16)
7361  02                 [046] (-16)
7362  00                 [047] (-16)
7363  00                 [048] (-16)
7364  E7                 [049] (-16)
7365  02                 [050] (-16)
7366  00                 [051] (-16)
7367  00                 [052] (-15)
7368  E7                 [053] (-15)
7369  02                 [054] (-15)
736A  00                 [055] (-15)
736B  00                 [056] (-15)
736C  E7                 [057] (-15)
736D  02                 [058] (-15)
736E  00                 [059] (-14)
736F  00                 [060] (-14)
7370  E8                 [061] (-14)
7371  02                 [062] (-14)
7372  00                 [063] (-14)
7373  00                 [064] (-14)
7374  E9                 [065] (-14)
7375  02                 [066] (-13)
7376  00                 [067] (-13)
7377  00                 [068] (-13)
7378  E9                 [069] (-13)
7379  02                 [070] (-13)
737A  00                 [071] (-13)
737B  00                 [072] (-13)
737C  EA                 [073] (-12)
737D  02                 [074] (-12)
737E  00                 [075] (-12)
737F  00                 [076] (-12)
7380  EA                 [077] (-12)
7381  02                 [078] (-12)
7382  00                 [079] (-12)
7383  00                 [080] (-12)
7384  EA                 [081] (-12)
7385  02                 [082] (-12)
7386  00                 [083] (-12)
7387  00                 [084] (-12)
7388  EA                 [085] (-12)
7389  02                 [086] (-12)
738A  00                 [087] (-12)
738B  00                 [088] (-11)
738C  EA                 [089] (-11)
738D  02                 [090] (-11)
738E  00                 [091] (-11)
738F  00                 [092] (-11)
7390  ED                 [093] (-11)
7391  02                 [094] (-11)
7392  00                 [095] (-11)
7393  00                 [096] (-11)
7394  ED                 [097] (-11)
7395  02                 [098] (-11)
7396  00                 [099] (-11)
7397  00                 [100] (-11)
7398  ED                 [101] (-11)
7399  02                 [102] (-11)
739A  00                 [103] (-10)
739B  00                 [104] (-10)
739C  ED                 [105] (-10)
739D  02                 [106] (-10)
739E  00                 [107] (-10)
739F  00                 [108] (-10)
73A0  ED                 [109] (-10)
73A1  02                 [110] (-8)
73A2  00                 [111] (-8)
73A3  00                 [112] (-8)
73A4  ED                 [113] (-8)
73A5  02                 [114] (-8)
73A6  00                 [115] (-8)
73A7  00                 [116] (-8)
73A8  ED                 [117] (-8)
73A9  02                 [118] (-8)
73AA  00                 [119] (-8)
73AB  00                 [120] (-8)
73AC  EE                 [121] (-8)
73AD  02                 [122] (-7)
73AE  00                 [123] (-7)
73AF  00                 [124] (-7)
73B0  EE                 [125] (-7)
73B1  02                 [126] (-7)
73B2  00                 [127] (-7)
73B3  00                 [128] (-7)
73B4  EE                 [129] (-7)
73B5  02                 [130] (-7)
73B6  00                 [131] (-7)
73B7  00                 [132] (-7)
73B8  EE                 [133] (-7)
73B9  02                 [134] (-5)
73BA  00                 [135] (-5)
73BB  00                 [136] (-5)
73BC  EE                 [137] (-5)
73BD  02                 [138] (-4)
73BE  00                 [139] (-4)
73BF  00                 [140] (-4)
73C0  EE                 [141] (-4)
73C1  02                 [142] (-4)
73C2  00                 [143] (-4)
73C3  00                 [144] (-4)
73C4  EE                 [145] (-4)
73C5  02                 [146] (-4)
73C6  00                 [147] (-4)
73C7  00                 [148] (-4)
73C8  EF                 [149] (-5)
73C9  02                 [150] (-1)
73CA  00                 [151] (-1)
73CB  00                 [152] (-1)
73CC  EF                 [153] (-1)
73CD  02                 [154] (-1)
73CE  00                 [155] (-1)
73CF  00                 [156] (-1)
73D0  EF                 [157] (0)
73D1  02                 [158] (0)
73D2  00                 [159] (0)
73D3  00                 [160] (0)
73D4  EF                 [161] (0)
73D5  02                 [162] (0)
73D6  00                 [163] (0)
73D7  00                 [164] (2)
73D8  EF                 [165] (2)
73D9  02                 [166] (2)
73DA  00                 [167] (2)
73DB  00                 [168] (2)
73DC  EF                 [169] (2)
73DD  02                 [170] (2)
73DE  00                 [171] (3)
73DF  00                 [172] (3)
73E0  EF                 [173] (3)
73E1  02                 [174] (3)
73E2  00                 [175] (3)
73E3  00                 [176] (3)
73E4  F0                 [177] (3)
73E5  02                 [178] (3)
73E6  00                 [179] (4)
73E7  00                 [180] (4)
73E8  F0                 [181] (4)
73E9  02                 [182] (4)
73EA  00                 [183] (5)
73EB  00                 [184] (5)
73EC  F0                 [185] (5)
73ED  02                 [186] (5)
73EE  00                 [187] (5)
73EF  00                 [188] (5)
73F0  F0                 [189] (5)
73F1  02                 [190] (5)
73F2  00                 [191] (5)
73F3  00                 [192] (5)
73F4  F0                 [193] (4)
73F5  02                 [194] (8)
73F6  00                 [195] (8)
73F7  00                 [196] (8)
73F8  F0                 [197] (8)
73F9  02                 [198] (8)
73FA  00                 [199] (8)
73FB  00                 [200] (10)
73FC  F0                 [201] (11)
73FD  02                 [202] (12)
73FE  00                 [203] (12)
73FF  00                 [204] (13)
7400  F1                 [205] (13)
7401  02                 [206] (14)
7402  00                 [207] (14)
7403  00                 [208] (14)
7404  F1                 [209] (14)
7405  02                 [210] (14)
7406  00                 [211] (14)
7407  00                 [212] (14)
7408  F1                 [213] (14)
7409  02                 [214] (16)
740A  00                 [215] (17)
740B  00                 [216] (18)
740C  F1                 [217] (18)
740D  02                 [218] (18)
740E  00                 [219] (19)
740F  00                 [220] (19)
7410  F1                 [221] (20)
7411  02                 [222] (20)
7412  00                 [223] (21)
7413  00                 [224] (21)
7414  F1                 [225] (21)
7415  02                 [226] (21)
7416  00                 [227] (21)
7417  00                 [228] (21)
7418  F1                 [229] (22)
7419  02                 [230] (22)
741A  00                 [231] (22)
741B  00                 [232] (23)
741C  F2                 [233] (23)
741D  02                 [234] (23)
741E  00                 [235] (24)
741F  00                 [236] (24)
7420  F2                 [237] (24)
7421  02                 [238] (26)
7422  00                 [239] (26)
7423  00                 [240] (28)
7424  F2                 [241] (28)
7425  02                 [242] (28)
7426  00                 [243] (28)
7427  00                 [244] (28)
7428  F2                 [245] (28)
7429  02                 [246] (28)
742A  00                 [247] (29)
742B  00                 [248] (29)
742C  F2                 [249] (29)
742D  02                 [250] (29)
742E  00                 [251] (29)
742F  00                 [252] (29)
7430  F2                 [253] (29)
7431  02                 [254] (31)
7432  00                 [255] (31)
7433  00                 [256] (31)
7434  F2                 [257] (32)
7435  02                 [258] (32)
7436  00                 [259] (32)
7437  00                 [260] (32)
7438  F3                 [261] (34)
7439  02                 [262] (34)
743A  00                 [263] (34)
743B  00                 [264] (34)
743C  F3                 [265] (34)
743D  02                 [266] (34)
743E  00                 [267] (34)
743F  00                 [268] (35)
7440  F3                 [269] (35)
7441  02                 [270] (35)
7442  00                 [271] (35)
7443  00                 [272] (35)
7444  F3                 [273] (35)
7445  02                 [274] (35)
7446  00                 [275] (37)
7447  00                 [276] (37)
7448  F3                 [277] (37)
7449  02                 [278] (37)
744A  00                 [279] (37)
744B  00                 [280] (37)
744C  F3                 [281] (37)
744D  02                 [282] (37)
744E  00                 [283] (38)
744F  00                 [284] (38)
7450  F3                 [285] (38)
7451  02                 [286] (38)
7452  00                 [287] (38)
7453  00                 [288] (38)
7454  F4                 [289] (38)
7455  02                 [290] (39)
7456  00                 [291] (39)
7457  00                 [292] (39)
7458  F4                 [293] (39)
7459  02                 [294] (39)
745A  00                 [295] (39)
745B  00                 [296] (39)
745C  F4                 [297] (39)
745D  02                 [298] (40)
745E  00                 [299] (40)
745F  00                 [300] (40)
7460  F4                 [301] (40)
7461  02                 [302] (40)
7462  00                 [303] (40)
7463  00                 [304] (40)
7464  F4                 [305] (40)
7465  02                 [306] (41)
7466  00                 [307] (41)
7467  00                 [308] (41)
7468  F4                 [309] (41)
7469  02                 [310] (41)
746A  00                 [311] (41)
746B  00                 [312] (41)
746C  F4                 [313] (41)
746D  02                 [314] (42)
746E  00                 [315] (42)
746F  00                 [316] (42)
7470  F4                 [317] (42)
7471  02                 [318] (42)
7472  00                 [319] (42)
7473  00                 [320] (42)
7474  F4                 [321] (43)
7475  02                 [322] (43)
7476  00                 [323] (43)
7477  00                 [324] (43)
7478  F4                 [325] (43)
7479  02                 [326] (43)
747A  00                 [327] (43)
747B  00                 [328] (43)
747C  F4                 [329] (44)
747D  02                 [330] (44)
747E  00                 [331] (44)
747F  00                 [332] (44)
7480  F4                 [333] (44)
7481  02                 [334] (44)
7482  00                 [335] (44)
7483  00                 [336] (45)
7484  F4                 [337] (45)
7485  02                 [338] (45)
7486  00                 [339] (45)
7487  00                 [340] (45)
7488  F4                 [341] (45)
7489  02                 [342] (45)
748A  00                 [343] (46)
748B  00                 [344] (46)
748C  F4                 [345] (46)
748D  02                 [346] (46)
748E  00                 [347] (46)
748F  00                 [348] (46)
7490  F5                 [349] (46)
7491  02                 [350] (46)
7492  00                 [351] (47)
7493  00                 [352] (47)
7494  F5                 [353] (47)
7495  02                 [354] (47)
7496  00                 [355] (47)
7497  00                 [356] (47)
7498  F5                 [357] (47)
7499  02                 [358] (48)
                         * locals:
78CC  00                 sizelocvars (0)
                         * upvalues:
78CD  00                 sizeupvalues (0)
                         ** end of function **

                         
78CE                     ** function [25] definition (level 2)
                         ** start of function **
78CE  00                 string size (0)
                         source name: (none)
78D0  06                 line defined (818)
78D1  C1                 last line defined (833)
78D2  06                 nups (2)
78D3  02                 numparams (0)
78D4  00                 is_vararg (0)
78D5  00                 maxstacksize (12)
                         * code:
78D7  41                 sizecode (65)
78D8  53000000           [01] getupval   1   0      
78DC  4E00C000           [02] gettable   1   1   256  ; "Visible"
78E0  58000000           [03] test       1       0    ; to [5] if true
78E4  1A400180           [04] jmp        6            ; to [11]
78E8  53000000           [05] getupval   1   0      
78EC  4E40C000           [06] gettable   1   1   257  ; "Grid"
78F0  6480C000           [07] self       1   1   258  ; -1749775947
78F4  62800001           [08] call       1   2   2  
78F8  12008000           [09] move       0   1      
78FC  1AC00080           [10] jmp        4            ; to [15]
7900  53008000           [11] getupval   1   1      
7904  6480C000           [12] self       1   1   258  ; -1749775947
7908  62800001           [13] call       1   2   2  
790C  12008000           [14] move       0   1      
fail op	35
7910  63C04000           [15] close      1  
7914  1AC00B80           [16] jmp        48           ; to [65]
7918  4E004100           [17] gettable   1   0   260  ; "mClipName"
fail op	35
791C  63C0C000           [18] close      1  
7920  1A000B80           [19] jmp        45           ; to [65]
7924  5D400100           [20] getglobal  1   5        ; -174740002
7928  9D800100           [21] getglobal  2   6        ; mMovie
792C  A4C04101           [22] self       2   2   263  ; 1803241227
7930  0E014100           [23] gettable   4   0   260  ; "mClipName"
7934  59010200           [24] loadk      5   8        ; ".HoverBorders"
7938  02410102           [25] concat     4   4   5  
793C  59410200           [26] loadk      5   9        ; "_xmouse"
7940  A2000002           [27] call       2   4   0  
7944  62800000           [28] call       1   0   2  
7948  9D400100           [29] getglobal  2   5        ; -174740002
794C  DD800100           [30] getglobal  3   6        ; mMovie
7950  E4C0C101           [31] self       3   3   263  ; 1803241227
7954  4E014100           [32] gettable   5   0   260  ; "mClipName"
7958  99010200           [33] loadk      6   8        ; ".HoverBorders"
795C  42818102           [34] concat     5   5   6  
7960  99810200           [35] loadk      6   10       ; "_ymouse"
7964  E2000002           [36] call       3   4   0  
7968  A2800000           [37] call       2   0   2  
796C  D9C00200           [38] loadk      3   11       ; 0
7970  19010300           [39] loadk      4   12       ; 0
7974  59C10200           [40] loadk      5   11       ; 0
7978  D0400580           [41] forprep    3   22       ; to [64]
797C  DD810100           [42] getglobal  7   6        ; mMovie
7980  E441C303           [43] self       7   7   269  ; 471456102
7984  4E024100           [44] gettable   9   0   260  ; "mClipName"
7988  99820300           [45] loadk      10  14       ; ".HoverBorders.Border"
798C  D2020003           [46] move       11  6      
7990  42C28204           [47] concat     9   9   11 
7994  99C20300           [48] loadk      10  15       ; "_x"
fail op	0
7998  C0028000           [49] move       11  1      
799C  C4828105           [50] mul        11  11  6  
79A0  C402C405           [51] mul        11  11  272  ; -51
79A4  E2418002           [52] call       7   5   1  
79A8  DD810100           [53] getglobal  7   6        ; mMovie
79AC  E441C303           [54] self       7   7   269  ; 471456102
79B0  4E024100           [55] gettable   9   0   260  ; "mClipName"
79B4  99820300           [56] loadk      10  14       ; ".HoverBorders.Border"
79B8  D2020003           [57] move       11  6      
79BC  42C28204           [58] concat     9   9   11 
79C0  99420400           [59] loadk      10  17       ; "_y"
fail op	0
79C4  C0020001           [60] move       11  2      
79C8  C4828105           [61] mul        11  11  6  
79CC  C402C405           [62] mul        11  11  272  ; -51
79D0  E2418002           [63] call       7   5   1  
79D4  D400FA7F           [64] forloop    3   -23      ; to [42] if loop
79D8  1E008000           [65] return     0   1      
                         * constants:
79DC  12                 sizek (18)
79DD  04                 const type 4
79DE  08                 string size (8)
79DF  56697369626C6500   "Visible\0"
                         const [0]: "Visible"
79E7  04                 const type 4
79E8  05                 string size (5)
79E9  4772696400         "Grid\0"
                         const [1]: "Grid"
79EE  01                 const type 3
79EF  B589B497           const [2]: (-1749775947)
79F3  00                 const type 0
                         const [3]: nil
79F4  04                 const type 4
79F5  0A                 string size (10)
79F6  6D436C69704E616D+  "mClipNam"
79FE  6500               "e\0"
                         const [4]: "mClipName"
7A00  01                 const type 3
7A01  DEAD95F5           const [5]: (-174740002)
7A05  04                 const type 4
7A06  07                 string size (7)
7A07  6D4D6F76696500     "mMovie\0"
                         const [6]: "mMovie"
7A0E  01                 const type 3
7A0F  0B477B6B           const [7]: (1803241227)
7A13  04                 const type 4
7A14  0E                 string size (14)
7A15  2E486F766572426F+  ".HoverBo"
7A1D  726465727300       "rders\0"
                         const [8]: ".HoverBorders"
7A23  04                 const type 4
7A24  08                 string size (8)
7A25  5F786D6F75736500   "_xmouse\0"
                         const [9]: "_xmouse"
7A2D  04                 const type 4
7A2E  08                 string size (8)
7A2F  5F796D6F75736500   "_ymouse\0"
                         const [10]: "_ymouse"
7A37  03                 const type 3
7A38  0000803F           const [11]: (0)
7A3C  03                 const type 3
7A3D  00008040           const [12]: (0)
7A41  01                 const type 3
7A42  66D9191C           const [13]: (471456102)
7A46  04                 const type 4
7A47  15                 string size (21)
7A48  2E486F766572426F+  ".HoverBo"
7A50  72646572732E426F+  "rders.Bo"
7A58  7264657200         "rder\0"
                         const [14]: ".HoverBorders.Border"
7A5D  04                 const type 4
7A5E  03                 string size (3)
7A5F  5F7800             "_x\0"
                         const [15]: "_x"
7A62  03                 const type 3
7A63  CDCCCC3D           const [16]: (-51)
7A67  04                 const type 4
7A68  03                 string size (3)
7A69  5F7900             "_y\0"
                         const [17]: "_y"
                         * functions:
7A6C  00                 sizep (0)
                         * lines:
7A6D  41                 sizelineinfo (65)
                         [pc] (line)
7A6E  34                 [01] (52)
7A6F  03                 [02] (52)
7A70  00                 [03] (52)
7A71  00                 [04] (52)
7A72  34                 [05] (53)
7A73  03                 [06] (53)
7A74  00                 [07] (53)
7A75  00                 [08] (53)
7A76  34                 [09] (53)
7A77  03                 [10] (53)
7A78  00                 [11] (55)
7A79  00                 [12] (55)
7A7A  34                 [13] (55)
7A7B  03                 [14] (55)
7A7C  00                 [15] (57)
7A7D  00                 [16] (57)
7A7E  35                 [17] (57)
7A7F  03                 [18] (57)
7A80  00                 [19] (57)
7A81  00                 [20] (58)
7A82  35                 [21] (58)
7A83  03                 [22] (58)
7A84  00                 [23] (58)
7A85  00                 [24] (58)
7A86  35                 [25] (58)
7A87  03                 [26] (58)
7A88  00                 [27] (58)
7A89  00                 [28] (58)
7A8A  35                 [29] (59)
7A8B  03                 [30] (59)
7A8C  00                 [31] (59)
7A8D  00                 [32] (59)
7A8E  35                 [33] (59)
7A8F  03                 [34] (59)
7A90  00                 [35] (59)
7A91  00                 [36] (59)
7A92  35                 [37] (59)
7A93  03                 [38] (60)
7A94  00                 [39] (60)
7A95  00                 [40] (60)
7A96  37                 [41] (60)
7A97  03                 [42] (61)
7A98  00                 [43] (61)
7A99  00                 [44] (61)
7A9A  37                 [45] (61)
7A9B  03                 [46] (61)
7A9C  00                 [47] (61)
7A9D  00                 [48] (61)
7A9E  37                 [49] (61)
7A9F  03                 [50] (61)
7AA0  00                 [51] (61)
7AA1  00                 [52] (61)
7AA2  37                 [53] (62)
7AA3  03                 [54] (62)
7AA4  00                 [55] (62)
7AA5  00                 [56] (62)
7AA6  39                 [57] (62)
7AA7  03                 [58] (62)
7AA8  00                 [59] (62)
7AA9  00                 [60] (62)
7AAA  39                 [61] (62)
7AAB  03                 [62] (62)
7AAC  00                 [63] (62)
7AAD  00                 [64] (60)
7AAE  39                 [65] (65)
                         * locals:
7B72  00                 sizelocvars (0)
                         * upvalues:
7B73  00                 sizeupvalues (0)
                         ** end of function **

                         
7B74                     ** function [26] definition (level 2)
                         ** start of function **
7B74  00                 string size (0)
                         source name: (none)
7B76  06                 line defined (835)
7B77  D9                 last line defined (857)
7B78  06                 nups (1)
7B79  01                 numparams (4)
7B7A  04                 is_vararg (0)
7B7B  00                 maxstacksize (15)
                         * code:
7B7D  23                 sizecode (35)
fail op	35
7B7E  23004001           [01] close      0  
7B82  1A000080           [02] jmp        1            ; to [4]
7B86  99400000           [03] loadk      2   1        ; -102
7B8A  17010000           [04] loadbool   4   0   0    ; false
fail op	35
7B8E  2300C001           [05] close      0  
7B92  1A400080           [06] jmp        2            ; to [9]
7B96  D9800000           [07] loadk      3   2        ; "_root"
7B9A  17018000           [08] loadbool   4   1   0    ; true
7B9E  65010000           [09] closure    5   0      
7BA2  12008001           [10] move       0   3      
7BA6  13000000           [11] getupval   0   0      
7BAA  12000002           [12] move       0   4      
7BAE  12000000           [13] move       0   0      
7BB2  12008000           [14] move       0   1      
7BB6  9DC10000           [15] getglobal  6   3        ; 1390508688
7BBA  DD010100           [16] getglobal  7   4        ; mMovie
7BBE  12028001           [17] move       8   3      
7BC2  5D420100           [18] getglobal  9   5        ; UISys
7BC6  4E82C104           [19] gettable   9   9   262  ; "FlashInstance_EASE_OUT"
7BCA  8B028000           [20] newtable   10  1   0    ; array=1, hash=0
7BCE  E5420000           [21] closure    11  1      
7BD2  12008002           [22] move       0   5      
7BD6  12000001           [23] move       0   2      
7BDA  9B428000           [24] setlist    10  1   1    ; index 1 to 1
7BDE  CB028000           [25] newtable   11  1   0    ; array=1, hash=0
7BE2  19C30100           [26] loadk      12  7        ; 0
7BE6  DB428000           [27] setlist    11  1   1    ; index 1 to 1
7BEA  19030200           [28] loadk      12  8        ; -51
7BEE  59430200           [29] loadk      13  9        ; 0
7BF2  A5830000           [30] closure    14  2      
7BF6  12008001           [31] move       0   3      
7BFA  12008002           [32] move       0   5      
7BFE  12000001           [33] move       0   2      
7C02  A2418004           [34] call       6   9   1  
7C06  1E008000           [35] return     0   1      
                         * constants:
7C0A  0A                 sizek (10)
7C0B  00                 const type 0
                         const [0]: nil
7C0C  03                 const type 3
7C0D  9A99193E           const [1]: (-102)
7C11  04                 const type 4
7C12  06                 string size (6)
7C13  5F726F6F7400       "_root\0"
                         const [2]: "_root"
7C19  01                 const type 3
7C1A  907AE152           const [3]: (1390508688)
7C1E  04                 const type 4
7C1F  07                 string size (7)
7C20  6D4D6F76696500     "mMovie\0"
                         const [4]: "mMovie"
7C27  04                 const type 4
7C28  06                 string size (6)
7C29  554953797300       "UISys\0"
                         const [5]: "UISys"
7C2F  04                 const type 4
7C30  17                 string size (23)
7C31  466C617368496E73+  "FlashIns"
7C39  74616E63655F4541+  "tance_EA"
7C41  53455F4F555400     "SE_OUT\0"
                         const [6]: "FlashInstance_EASE_OUT"
7C48  03                 const type 3
7C49  0000803F           const [7]: (0)
7C4D  03                 const type 3
7C4E  CDCCCC3D           const [8]: (-51)
7C52  03                 const type 3
7C53  00000000           const [9]: (0)
                         * functions:
7C57  03                 sizep (3)
                         
7C58                     ** function [0] definition (level 3)
                         ** start of function **
7C58  00                 string size (0)
                         source name: (none)
7C5A  06                 line defined (845)
7C5B  D4                 last line defined (852)
7C5C  06                 nups (5)
7C5D  05                 numparams (1)
7C5E  01                 is_vararg (0)
7C5F  00                 maxstacksize (7)
                         * code:
7C61  26                 sizecode (38)
7C62  5D000000           [01] getglobal  1   0        ; mMovie
7C66  6440C000           [02] self       1   1   257  ; 471456102
7C6A  D3000000           [03] getupval   3   0      
7C6E  19810000           [04] loadk      4   2        ; "_xscale"
7C72  43018081           [05] add        5   259 0    ; 0
7C76  93018000           [06] getupval   6   1      
7C7A  8E014103           [07] gettable   6   6   260  ; "mInitialScale"
7C7E  44818102           [08] mul        5   5   6  
7C82  62408002           [09] call       1   5   1  
7C86  5D000000           [10] getglobal  1   0        ; mMovie
7C8A  6440C000           [11] self       1   1   257  ; 471456102
7C8E  D3000000           [12] getupval   3   0      
7C92  19410100           [13] loadk      4   5        ; "_yscale"
7C96  43018081           [14] add        5   259 0    ; 0
7C9A  93018000           [15] getupval   6   1      
7C9E  8E014103           [16] gettable   6   6   260  ; "mInitialScale"
7CA2  44818102           [17] mul        5   5   6  
7CA6  62408002           [18] call       1   5   1  
7CAA  53000001           [19] getupval   1   2      
7CAE  58000000           [20] test       1       0    ; to [22] if true
7CB2  1AC00380           [21] jmp        16           ; to [38]
7CB6  5D000000           [22] getglobal  1   0        ; mMovie
7CBA  6440C000           [23] self       1   1   257  ; 471456102
7CBE  D3000000           [24] getupval   3   0      
7CC2  19810100           [25] loadk      4   6        ; "_x"
7CC6  53018001           [26] getupval   5   3      
fail op	0
7CCA  40018002           [27] move       5   5      
7CCE  44410100           [28] mul        5   0   5  
7CD2  62408002           [29] call       1   5   1  
7CD6  5D000000           [30] getglobal  1   0        ; mMovie
7CDA  6440C000           [31] self       1   1   257  ; 471456102
7CDE  D3000000           [32] getupval   3   0      
7CE2  19C10100           [33] loadk      4   7        ; "_y"
7CE6  53010002           [34] getupval   5   4      
fail op	0
7CEA  40018002           [35] move       5   5      
7CEE  44410100           [36] mul        5   0   5  
7CF2  62408002           [37] call       1   5   1  
7CF6  1E008000           [38] return     0   1      
                         * constants:
7CFA  08                 sizek (8)
7CFB  04                 const type 4
7CFC  07                 string size (7)
7CFD  6D4D6F76696500     "mMovie\0"
                         const [0]: "mMovie"
7D04  01                 const type 3
7D05  66D9191C           const [1]: (471456102)
7D09  04                 const type 4
7D0A  08                 string size (8)
7D0B  5F787363616C6500   "_xscale\0"
                         const [2]: "_xscale"
7D13  03                 const type 3
7D14  0000803F           const [3]: (0)
7D18  04                 const type 4
7D19  0E                 string size (14)
7D1A  6D496E697469616C+  "mInitial"
7D22  5363616C6500       "Scale\0"
                         const [4]: "mInitialScale"
7D28  04                 const type 4
7D29  08                 string size (8)
7D2A  5F797363616C6500   "_yscale\0"
                         const [5]: "_yscale"
7D32  04                 const type 4
7D33  03                 string size (3)
7D34  5F7800             "_x\0"
                         const [6]: "_x"
7D37  04                 const type 4
7D38  03                 string size (3)
7D39  5F7900             "_y\0"
                         const [7]: "_y"
                         * functions:
7D3C  00                 sizep (0)
                         * lines:
7D3D  26                 sizelineinfo (38)
                         [pc] (line)
7D3E  4E                 [01] (78)
7D3F  03                 [02] (78)
7D40  00                 [03] (78)
7D41  00                 [04] (78)
7D42  4E                 [05] (78)
7D43  03                 [06] (78)
7D44  00                 [07] (78)
7D45  00                 [08] (78)
7D46  4E                 [09] (78)
7D47  03                 [10] (79)
7D48  00                 [11] (79)
7D49  00                 [12] (79)
7D4A  4E                 [13] (79)
7D4B  03                 [14] (79)
7D4C  00                 [15] (79)
7D4D  00                 [16] (79)
7D4E  4E                 [17] (79)
7D4F  03                 [18] (79)
7D50  00                 [19] (80)
7D51  00                 [20] (80)
7D52  4E                 [21] (80)
7D53  03                 [22] (81)
7D54  00                 [23] (81)
7D55  00                 [24] (81)
7D56  4E                 [25] (81)
7D57  03                 [26] (81)
7D58  00                 [27] (81)
7D59  00                 [28] (81)
7D5A  4E                 [29] (81)
7D5B  03                 [30] (82)
7D5C  00                 [31] (82)
7D5D  00                 [32] (82)
7D5E  4E                 [33] (82)
7D5F  03                 [34] (82)
7D60  00                 [35] (82)
7D61  00                 [36] (82)
7D62  4F                 [37] (82)
7D63  03                 [38] (84)
                         * locals:
7DD6  00                 sizelocvars (0)
                         * upvalues:
7DD7  00                 sizeupvalues (0)
                         ** end of function **

                         
7DD8                     ** function [1] definition (level 3)
                         ** start of function **
7DD8  00                 string size (0)
                         source name: (none)
7DDA  06                 line defined (853)
7DDB  D5                 last line defined (853)
7DDC  06                 nups (2)
7DDD  02                 numparams (1)
7DDE  01                 is_vararg (0)
7DDF  00                 maxstacksize (3)
                         * code:
7DE1  05                 sizecode (5)
7DE2  53000000           [1] getupval   1   0      
7DE6  93008000           [2] getupval   2   1      
7DEA  84800000           [3] mul        2   0   2  
7DEE  62400001           [4] call       1   2   1  
7DF2  1E008000           [5] return     0   1      
                         * constants:
7DF6  00                 sizek (0)
                         * functions:
7DF7  00                 sizep (0)
                         * lines:
7DF8  05                 sizelineinfo (5)
                         [pc] (line)
7DF9  55                 [1] (85)
7DFA  03                 [2] (85)
7DFB  00                 [3] (85)
7DFC  00                 [4] (85)
7DFD  55                 [5] (85)
                         * locals:
7E0D  00                 sizelocvars (0)
                         * upvalues:
7E0E  00                 sizeupvalues (0)
                         ** end of function **

                         
7E0F                     ** function [2] definition (level 3)
                         ** start of function **
7E0F  00                 string size (0)
                         source name: (none)
7E11  06                 line defined (854)
7E12  D8                 last line defined (856)
7E13  06                 nups (3)
7E14  03                 numparams (0)
7E15  00                 is_vararg (0)
7E16  00                 maxstacksize (7)
                         * code:
7E18  10                 sizecode (16)
7E19  1D000000           [01] getglobal  0   0        ; 1390508688
7E1D  5D400000           [02] getglobal  1   1        ; mMovie
7E21  93000000           [03] getupval   2   0      
7E25  DD800000           [04] getglobal  3   2        ; UISys
7E29  CEC0C001           [05] gettable   3   3   259  ; "FlashInstance_LINEAR"
7E2D  0B018000           [06] newtable   4   1   0    ; array=1, hash=0
7E31  65010000           [07] closure    5   0      
7E35  13008000           [08] getupval   0   1      
7E39  13000001           [09] getupval   0   2      
7E3D  1B418000           [10] setlist    4   1   1    ; index 1 to 1
7E41  4B018000           [11] newtable   5   1   0    ; array=1, hash=0
7E45  99010100           [12] loadk      6   4        ; 0
7E49  5B418000           [13] setlist    5   1   1    ; index 1 to 1
7E4D  99410100           [14] loadk      6   5        ; 102
7E51  22408003           [15] call       0   7   1  
7E55  1E008000           [16] return     0   1      
                         * constants:
7E59  06                 sizek (6)
7E5A  01                 const type 3
7E5B  907AE152           const [0]: (1390508688)
7E5F  04                 const type 4
7E60  07                 string size (7)
7E61  6D4D6F76696500     "mMovie\0"
                         const [1]: "mMovie"
7E68  04                 const type 4
7E69  06                 string size (6)
7E6A  554953797300       "UISys\0"
                         const [2]: "UISys"
7E70  04                 const type 4
7E71  15                 string size (21)
7E72  466C617368496E73+  "FlashIns"
7E7A  74616E63655F4C49+  "tance_LI"
7E82  4E45415200         "NEAR\0"
                         const [3]: "FlashInstance_LINEAR"
7E87  03                 const type 3
7E88  0000803F           const [4]: (0)
7E8C  03                 const type 3
7E8D  6666263F           const [5]: (102)
                         * functions:
7E91  01                 sizep (1)
                         
7E92                     ** function [0] definition (level 4)
                         ** start of function **
7E92  00                 string size (0)
                         source name: (none)
7E94  06                 line defined (855)
7E95  D7                 last line defined (855)
7E96  06                 nups (2)
7E97  02                 numparams (1)
7E98  01                 is_vararg (0)
7E99  00                 maxstacksize (4)
                         * code:
7E9B  06                 sizecode (6)
7E9C  53000000           [1] getupval   1   0      
7EA0  8D000080           [2] sub        2   256 0    ; 0
7EA4  D3008000           [3] getupval   3   1      
7EA8  84C00001           [4] mul        2   2   3  
7EAC  62400001           [5] call       1   2   1  
7EB0  1E008000           [6] return     0   1      
                         * constants:
7EB4  01                 sizek (1)
7EB5  03                 const type 3
7EB6  0000803F           const [0]: (0)
                         * functions:
7EBA  00                 sizep (0)
                         * lines:
7EBB  06                 sizelineinfo (6)
                         [pc] (line)
7EBC  57                 [1] (87)
7EBD  03                 [2] (87)
7EBE  00                 [3] (87)
7EBF  00                 [4] (87)
7EC0  57                 [5] (87)
7EC1  03                 [6] (87)
                         * locals:
7ED4  00                 sizelocvars (0)
                         * upvalues:
7ED5  00                 sizeupvalues (0)
                         ** end of function **

                         * lines:
7ED6  10                 sizelineinfo (16)
                         [pc] (line)
7ED7  57                 [01] (87)
7ED8  03                 [02] (87)
7ED9  00                 [03] (87)
7EDA  00                 [04] (87)
7EDB  57                 [05] (87)
7EDC  03                 [06] (87)
7EDD  00                 [07] (87)
7EDE  00                 [08] (87)
7EDF  57                 [09] (87)
7EE0  03                 [10] (87)
7EE1  00                 [11] (87)
7EE2  00                 [12] (87)
7EE3  57                 [13] (87)
7EE4  03                 [14] (87)
7EE5  00                 [15] (87)
7EE6  00                 [16] (88)
                         * locals:
7F17  00                 sizelocvars (0)
                         * upvalues:
7F18  00                 sizeupvalues (0)
                         ** end of function **

                         * lines:
7F19  23                 sizelineinfo (35)
                         [pc] (line)
7F1A  44                 [01] (68)
7F1B  03                 [02] (68)
7F1C  00                 [03] (69)
7F1D  00                 [04] (71)
7F1E  44                 [05] (72)
7F1F  03                 [06] (72)
7F20  00                 [07] (73)
7F21  00                 [08] (74)
7F22  45                 [09] (84)
7F23  03                 [10] (84)
7F24  00                 [11] (84)
7F25  00                 [12] (84)
7F26  47                 [13] (84)
7F27  03                 [14] (84)
7F28  00                 [15] (85)
7F29  00                 [16] (85)
7F2A  48                 [17] (85)
7F2B  03                 [18] (85)
7F2C  00                 [19] (85)
7F2D  00                 [20] (85)
7F2E  48                 [21] (85)
7F2F  03                 [22] (85)
7F30  00                 [23] (85)
7F31  00                 [24] (85)
7F32  49                 [25] (85)
7F33  03                 [26] (85)
7F34  00                 [27] (85)
7F35  00                 [28] (85)
7F36  4A                 [29] (85)
7F37  03                 [30] (88)
7F38  00                 [31] (88)
7F39  00                 [32] (88)
7F3A  54                 [33] (88)
7F3B  03                 [34] (85)
7F3C  00                 [35] (89)
                         * locals:
7FA6  00                 sizelocvars (0)
                         * upvalues:
7FA7  00                 sizeupvalues (0)
                         ** end of function **

                         
7FA8                     ** function [27] definition (level 2)
                         ** start of function **
7FA8  00                 string size (0)
                         source name: (none)
7FAA  06                 line defined (859)
7FAB  A9                 last line defined (937)
7FAC  07                 nups (12)
7FAD  0C                 numparams (0)
7FAE  00                 is_vararg (0)
7FAF  00                 maxstacksize (7)
                         * code:
7FB1  4C                 sizecode (76)
7FB2  1D000000           [01] getglobal  0   0        ; 849075268
7FB6  59400000           [02] loadk      1   1        ; "EE.Interface.Components.List"
7FBA  22800001           [03] call       0   2   2  
7FBE  4E804000           [04] gettable   1   0   258  ; -1274155969
7FC2  9DC00000           [05] getglobal  2   3        ; mMovie
7FC6  D9000100           [06] loadk      3   4        ; "SystemStage.SlotWeaponry1"
7FCA  62808001           [07] call       1   3   2  
fail op	8
7FCE  48000000           [08] setupval   1   0      
7FD2  53000000           [09] getupval   1   0      
7FD6  6440C100           [10] self       1   1   261  ; 236168549
7FDA  D9800100           [11] loadk      3   6        ; "SlotSelected"
7FDE  19C10100           [12] loadk      4   7        ; "SlotFocused"
7FE2  59010200           [13] loadk      5   8        ; "SlotUnfocused"
7FE6  99410200           [14] loadk      6   9        ; "SlotPressed"
7FEA  62400003           [15] call       1   6   1  
7FEE  53000000           [16] getupval   1   0      
7FF2  4CC04285           [17] settable   1   266 267  ; "mElementTransitionTime" -102
7FF6  53000000           [18] getupval   1   0      
7FFA  4C404386           [19] settable   1   268 269  ; "mInitialDepth" 0
7FFE  53000000           [20] getupval   1   0      
8002  4CC04387           [21] settable   1   270 271  ; "CanPreviewElements" 1
8006  53000000           [22] getupval   1   0      
800A  9D400400           [23] getglobal  2   17       ; -174740002
800E  DDC00000           [24] getglobal  3   3        ; mMovie
8012  E480C401           [25] self       3   3   274  ; 1803241227
8016  53010000           [26] getupval   5   0      
801A  4EC1C402           [27] gettable   5   5   275  ; "mClipName"
801E  99010500           [28] loadk      6   20       ; "_xscale"
8022  E2000002           [29] call       3   4   0  
8026  A2800000           [30] call       2   0   2  
802A  4C800088           [31] settable   1   272 2    ; "mInitialScale"
802E  53000000           [32] getupval   1   0      
8032  A5000000           [33] closure    2   0      
8036  13008000           [34] getupval   0   1      
803A  13000001           [35] getupval   0   2      
803E  13000000           [36] getupval   0   0      
8042  4C80808A           [37] settable   1   277 2    ; "mOnFocusedCallback"
8046  53000000           [38] getupval   1   0      
804A  A5400000           [39] closure    2   1      
804E  13000001           [40] getupval   0   2      
8052  13000000           [41] getupval   0   0      
8056  4C80008B           [42] settable   1   278 2    ; "mOnUnfocusedCallback"
805A  53000000           [43] getupval   1   0      
805E  A5800000           [44] closure    2   2      
8062  4C80808B           [45] settable   1   279 2    ; "mOnPressedCallback"
8066  53000000           [46] getupval   1   0      
806A  A5C00000           [47] closure    2   3      
806E  13008001           [48] getupval   0   3      
8072  13000002           [49] getupval   0   4      
8076  13008002           [50] getupval   0   5      
807A  13000003           [51] getupval   0   6      
807E  13008000           [52] getupval   0   1      
8082  13008003           [53] getupval   0   7      
8086  13000004           [54] getupval   0   8      
808A  13008004           [55] getupval   0   9      
808E  13000005           [56] getupval   0   10     
8092  4C80008C           [57] settable   1   280 2    ; "mOnSelectedCallback"
8096  53000000           [58] getupval   1   0      
809A  A5000100           [59] closure    2   4      
809E  13008005           [60] getupval   0   11     
80A2  13000000           [61] getupval   0   0      
80A6  13008000           [62] getupval   0   1      
80AA  4C80808C           [63] settable   1   281 2    ; "mElementDrawCallback"
80AE  53000000           [64] getupval   1   0      
80B2  A5400100           [65] closure    2   5      
80B6  4C80008D           [66] settable   1   282 2    ; "CalculateX"
80BA  53000000           [67] getupval   1   0      
80BE  A5800100           [68] closure    2   6      
80C2  4C80808D           [69] settable   1   283 2    ; "CalculateY"
80C6  53000000           [70] getupval   1   0      
80CA  A5C00100           [71] closure    2   7      
80CE  4C80008E           [72] settable   1   284 2    ; "SetupPreInterpolationValues"
80D2  53000000           [73] getupval   1   0      
80D6  A5000200           [74] closure    2   8      
80DA  4C80808E           [75] settable   1   285 2    ; "GetInterpolationProperties"
80DE  1E008000           [76] return     0   1      
                         * constants:
80E2  1E                 sizek (30)
80E3  01                 const type 3
80E4  44DC9B32           const [0]: (849075268)
80E8  04                 const type 4
80E9  1D                 string size (29)
80EA  45452E496E746572+  "EE.Inter"
80F2  666163652E436F6D+  "face.Com"
80FA  706F6E656E74732E+  "ponents."
8102  4C69737400         "List\0"
                         const [1]: "EE.Interface.Components.List"
8107  01                 const type 3
8108  3FEC0DB4           const [2]: (-1274155969)
810C  04                 const type 4
810D  07                 string size (7)
810E  6D4D6F76696500     "mMovie\0"
                         const [3]: "mMovie"
8115  04                 const type 4
8116  1A                 string size (26)
8117  53797374656D5374+  "SystemSt"
811F  6167652E536C6F74+  "age.Slot"
8127  576561706F6E7279+  "Weaponry"
812F  3100               "1\0"
                         const [4]: "SystemStage.SlotWeaponry1"
8131  01                 const type 3
8132  65A5130E           const [5]: (236168549)
8136  04                 const type 4
8137  0D                 string size (13)
8138  536C6F7453656C65+  "SlotSele"
8140  6374656400         "cted\0"
                         const [6]: "SlotSelected"
8145  04                 const type 4
8146  0C                 string size (12)
8147  536C6F74466F6375+  "SlotFocu"
814F  73656400           "sed\0"
                         const [7]: "SlotFocused"
8153  04                 const type 4
8154  0E                 string size (14)
8155  536C6F74556E666F+  "SlotUnfo"
815D  637573656400       "cused\0"
                         const [8]: "SlotUnfocused"
8163  04                 const type 4
8164  0C                 string size (12)
8165  536C6F7450726573+  "SlotPres"
816D  73656400           "sed\0"
                         const [9]: "SlotPressed"
8171  04                 const type 4
8172  17                 string size (23)
8173  6D456C656D656E74+  "mElement"
817B  5472616E73697469+  "Transiti"
8183  6F6E54696D6500     "onTime\0"
                         const [10]: "mElementTransitionTime"
818A  03                 const type 3
818B  9A99193E           const [11]: (-102)
818F  04                 const type 4
8190  0E                 string size (14)
8191  6D496E697469616C+  "mInitial"
8199  446570746800       "Depth\0"
                         const [12]: "mInitialDepth"
819F  03                 const type 3
81A0  00409C45           const [13]: (0)
81A4  04                 const type 4
81A5  13                 string size (19)
81A6  43616E5072657669+  "CanPrevi"
81AE  6577456C656D656E+  "ewElemen"
81B6  747300             "ts\0"
                         const [14]: "CanPreviewElements"
81B9  01                 const type 3
81BA  01000000           const [15]: (1)
81BE  04                 const type 4
81BF  0E                 string size (14)
81C0  6D496E697469616C+  "mInitial"
81C8  5363616C6500       "Scale\0"
                         const [16]: "mInitialScale"
81CE  01                 const type 3
81CF  DEAD95F5           const [17]: (-174740002)
81D3  01                 const type 3
81D4  0B477B6B           const [18]: (1803241227)
81D8  04                 const type 4
81D9  0A                 string size (10)
81DA  6D436C69704E616D+  "mClipNam"
81E2  6500               "e\0"
                         const [19]: "mClipName"
81E4  04                 const type 4
81E5  08                 string size (8)
81E6  5F787363616C6500   "_xscale\0"
                         const [20]: "_xscale"
81EE  04                 const type 4
81EF  13                 string size (19)
81F0  6D4F6E466F637573+  "mOnFocus"
81F8  656443616C6C6261+  "edCallba"
8200  636B00             "ck\0"
                         const [21]: "mOnFocusedCallback"
8203  04                 const type 4
8204  15                 string size (21)
8205  6D4F6E556E666F63+  "mOnUnfoc"
820D  7573656443616C6C+  "usedCall"
8215  6261636B00         "back\0"
                         const [22]: "mOnUnfocusedCallback"
821A  04                 const type 4
821B  13                 string size (19)
821C  6D4F6E5072657373+  "mOnPress"
8224  656443616C6C6261+  "edCallba"
822C  636B00             "ck\0"
                         const [23]: "mOnPressedCallback"
822F  04                 const type 4
8230  14                 string size (20)
8231  6D4F6E53656C6563+  "mOnSelec"
8239  74656443616C6C62+  "tedCallb"
8241  61636B00           "ack\0"
                         const [24]: "mOnSelectedCallback"
8245  04                 const type 4
8246  15                 string size (21)
8247  6D456C656D656E74+  "mElement"
824F  4472617743616C6C+  "DrawCall"
8257  6261636B00         "back\0"
                         const [25]: "mElementDrawCallback"
825C  04                 const type 4
825D  0B                 string size (11)
825E  43616C63756C6174+  "Calculat"
8266  655800             "eX\0"
                         const [26]: "CalculateX"
8269  04                 const type 4
826A  0B                 string size (11)
826B  43616C63756C6174+  "Calculat"
8273  655900             "eY\0"
                         const [27]: "CalculateY"
8276  04                 const type 4
8277  1C                 string size (28)
8278  5365747570507265+  "SetupPre"
8280  496E746572706F6C+  "Interpol"
8288  6174696F6E56616C+  "ationVal"
8290  75657300           "ues\0"
                         const [28]: "SetupPreInterpolationValues"
8294  04                 const type 4
8295  1B                 string size (27)
8296  476574496E746572+  "GetInter"
829E  706F6C6174696F6E+  "polation"
82A6  50726F7065727469+  "Properti"
82AE  657300             "es\0"
                         const [29]: "GetInterpolationProperties"
                         * functions:
82B1  09                 sizep (9)
                         
82B2                     ** function [0] definition (level 3)
                         ** start of function **
82B2  00                 string size (0)
                         source name: (none)
82B4  06                 line defined (868)
82B5  E8                 last line defined (872)
82B6  06                 nups (3)
82B7  03                 numparams (1)
82B8  01                 is_vararg (0)
82B9  00                 maxstacksize (5)
                         * code:
82BB  0B                 sizecode (11)
82BC  53000000           [01] getupval   1   0      
82C0  4E00C000           [02] gettable   1   1   256  ; 630793108
82C4  9D400000           [03] getglobal  2   1        ; _G
82C8  8E804001           [04] gettable   2   2   258  ; "UISound_Focus"
82CC  62400001           [05] call       1   2   1  
82D0  53008000           [06] getupval   1   1      
82D4  93000001           [07] getupval   2   2      
82D8  D2000000           [08] move       3   0      
82DC  17018000           [09] loadbool   4   1   0    ; true
82E0  62400002           [10] call       1   4   1  
82E4  1E008000           [11] return     0   1      
                         * constants:
82E8  03                 sizek (3)
82E9  01                 const type 3
82EA  94239925           const [0]: (630793108)
82EE  04                 const type 4
82EF  03                 string size (3)
82F0  5F4700             "_G\0"
                         const [1]: "_G"
82F3  04                 const type 4
82F4  0E                 string size (14)
82F5  5549536F756E645F+  "UISound_"
82FD  466F63757300       "Focus\0"
                         const [2]: "UISound_Focus"
                         * functions:
8303  00                 sizep (0)
                         * lines:
8304  0B                 sizelineinfo (11)
                         [pc] (line)
8305  65                 [01] (101)
8306  03                 [02] (101)
8307  00                 [03] (101)
8308  00                 [04] (101)
8309  65                 [05] (101)
830A  03                 [06] (103)
830B  00                 [07] (103)
830C  00                 [08] (103)
830D  65                 [09] (103)
830E  03                 [10] (103)
830F  00                 [11] (104)
                         * locals:
8331  00                 sizelocvars (0)
                         * upvalues:
8332  00                 sizeupvalues (0)
                         ** end of function **

                         
8333                     ** function [1] definition (level 3)
                         ** start of function **
8333  00                 string size (0)
                         source name: (none)
8335  06                 line defined (874)
8336  EC                 last line defined (876)
8337  06                 nups (2)
8338  02                 numparams (1)
8339  01                 is_vararg (0)
833A  00                 maxstacksize (5)
                         * code:
833C  06                 sizecode (6)
833D  53000000           [1] getupval   1   0      
8341  93008000           [2] getupval   2   1      
8345  D2000000           [3] move       3   0      
8349  17010000           [4] loadbool   4   0   0    ; false
834D  62400002           [5] call       1   4   1  
8351  1E008000           [6] return     0   1      
                         * constants:
8355  00                 sizek (0)
                         * functions:
8356  00                 sizep (0)
                         * lines:
8357  06                 sizelineinfo (6)
                         [pc] (line)
8358  6B                 [1] (107)
8359  03                 [2] (107)
835A  00                 [3] (107)
835B  00                 [4] (107)
835C  6B                 [5] (107)
835D  03                 [6] (108)
                         * locals:
8370  00                 sizelocvars (0)
                         * upvalues:
8371  00                 sizeupvalues (0)
                         ** end of function **

                         
8372                     ** function [2] definition (level 3)
                         ** start of function **
8372  00                 string size (0)
                         source name: (none)
8374  06                 line defined (878)
8375  EF                 last line defined (879)
8376  06                 nups (0)
8377  00                 numparams (1)
8378  01                 is_vararg (0)
8379  00                 maxstacksize (2)
                         * code:
837B  01                 sizecode (1)
837C  1E008000           [1] return     0   1      
                         * constants:
8380  00                 sizek (0)
                         * functions:
8381  00                 sizep (0)
                         * lines:
8382  01                 sizelineinfo (1)
                         [pc] (line)
8383  6F                 [1] (111)
                         * locals:
8387  00                 sizelocvars (0)
                         * upvalues:
8388  00                 sizeupvalues (0)
                         ** end of function **

                         
8389                     ** function [3] definition (level 3)
                         ** start of function **
8389  00                 string size (0)
                         source name: (none)
838B  06                 line defined (881)
838C  92                 last line defined (914)
838D  07                 nups (9)
838E  09                 numparams (3)
838F  03                 is_vararg (0)
8390  00                 maxstacksize (13)
                         * code:
8392  5D                 sizecode (93)
8393  D3000000           [01] getupval   3   0      
8397  13018000           [02] getupval   4   1      
839B  0E014002           [03] gettable   4   4   256  ; "INSTALL"
fail op	35
839F  23008101           [04] close      0  
83A3  1AC00180           [05] jmp        8            ; to [14]
83A7  D3000001           [06] getupval   3   2      
83AB  12010000           [07] move       4   0      
83AF  E2800001           [08] call       3   2   2  
83B3  D8400000           [09] test       3       1    ; to [11] if false
83B7  1A401480           [10] jmp        82           ; to [93]
83BB  D3008001           [11] getupval   3   3      
83BF  E2408000           [12] call       3   1   1  
83C3  1A801380           [13] jmp        79           ; to [93]
83C7  CE404000           [14] gettable   3   0   257  ; "mMod"
fail op	35
83CB  6380C001           [15] close      1  
83CF  1AC01280           [16] jmp        76           ; to [93]
83D3  CEC04000           [17] gettable   3   0   259  ; "mStatus"
83D7  CE00C101           [18] gettable   3   3   260  ; "mOn"
fail op	9
83DB  C9008001           [19] settable   3   3   0  
83DF  1D410100           [20] getglobal  4   5        ; slotDeactivateFx
83E3  D8000000           [21] test       3       0    ; to [23] if true
83E7  1A000080           [22] jmp        1            ; to [24]
83EB  1D810100           [23] getglobal  4   6        ; slotActivateFx
83EF  5DC10100           [24] getglobal  5   7        ; 1074689893
83F3  92010002           [25] move       6   4      
83F7  62810001           [26] call       5   2   2  
83FB  58410000           [27] test       5       1    ; to [29] if false
83FF  1AC00680           [28] jmp        28           ; to [57]
8403  53010002           [29] getupval   5   4      
8407  4E41C202           [30] gettable   5   5   265  ; -1407588540
840B  9D810200           [31] getglobal  6   10       ; mMovie
840F  CEC14200           [32] gettable   7   0   267  ; "mClipName"
8413  12020002           [33] move       8   4      
8417  46028004           [34] loadnil    9   9      
841B  99020300           [35] loadk      10  12       ; 0
841F  62810003           [36] call       5   6   2  
8423  0C400184           [37] settable   0   264 5    ; "mActivationParticles"
8427  53018002           [38] getupval   5   5      
842B  4E41C302           [39] gettable   5   5   269  ; -576482948
842F  9D810300           [40] getglobal  6   14       ; Lotus_Game
8433  8EC14303           [41] gettable   6   6   271  ; "UIStyle_FloatingContentHighlight"
8437  D7010000           [42] loadbool   7   0   0    ; false
843B  62818001           [43] call       5   3   2  
843F  93010002           [44] getupval   6   4      
8443  8E414403           [45] gettable   6   6   273  ; -132701534
8447  D2018001           [46] move       7   3      
844B  19820400           [47] loadk      8   18       ; 0
844F  59C20400           [48] loadk      9   19       ; 0
8453  A2810002           [49] call       6   4   2  
8457  4C810188           [50] settable   5   272 6    ; "alpha"
845B  8E014200           [51] gettable   6   0   264  ; "mActivationParticles"
845F  8E014503           [52] gettable   6   6   276  ; "mInstance"
8463  A4414503           [53] self       6   6   277  ; 1082791834
8467  12028002           [54] move       8   5      
846B  52028002           [55] move       9   5      
846F  A2410002           [56] call       6   4   1  
8473  93010003           [57] getupval   6   6      
8477  A4814503           [58] self       6   6   278  ; -1917464545
847B  A2810001           [59] call       6   2   2  
847F  A4C14503           [60] self       6   6   279  ; 1769516121
8483  A2810001           [61] call       6   2   2  
8487  A4014603           [62] self       6   6   280  ; -762573166
848B  13028003           [63] getupval   8   7      
848F  4E424600           [64] gettable   9   0   281  ; "Id"
8493  0E420204           [65] gettable   8   8   9  
8497  0D824604           [66] sub        8   8   282  ; 0
849B  52028001           [67] move       9   3      
849F  A2410002           [68] call       6   4   1  
84A3  8EC14000           [69] gettable   6   0   259  ; "mStatus"
84A7  8E014103           [70] gettable   6   6   260  ; "mOn"
84AB  98010000           [71] test       6       0    ; to [73] if true
84AF  1A000180           [72] jmp        5            ; to [78]
84B3  93010002           [73] getupval   6   4      
84B7  8EC14603           [74] gettable   6   6   283  ; 630793108
84BB  DD010700           [75] getglobal  7   28       ; deactivateSound
84BF  A2410001           [76] call       6   2   1  
84C3  1A800380           [77] jmp        15           ; to [93]
84C7  93010002           [78] getupval   6   4      
84CB  8EC14603           [79] gettable   6   6   283  ; 630793108
84CF  DD410700           [80] getglobal  7   29       ; activateSound
84D3  A2410001           [81] call       6   2   1  
84D7  93010002           [82] getupval   6   4      
84DB  8E814703           [83] gettable   6   6   286  ; 110860349
84DF  DD810200           [84] getglobal  7   10       ; mMovie
84E3  0EC24200           [85] gettable   8   0   267  ; "mClipName"
84E7  A2C18001           [86] call       6   3   3  
84EB  13020004           [87] getupval   8   8      
84EF  52020003           [88] move       9   6      
84F3  92028003           [89] move       10  7      
84F7  D9C20700           [90] loadk      11  31       ; -51
84FB  0EC34200           [91] gettable   12  0   267  ; "mClipName"
84FF  22428002           [92] call       8   5   1  
8503  1E008000           [93] return     0   1      
                         * constants:
8507  20                 sizek (32)
8508  04                 const type 4
8509  08                 string size (8)
850A  494E5354414C4C00   "INSTALL\0"
                         const [0]: "INSTALL"
8512  04                 const type 4
8513  05                 string size (5)
8514  6D4D6F6400         "mMod\0"
                         const [1]: "mMod"
8519  00                 const type 0
                         const [2]: nil
851A  04                 const type 4
851B  08                 string size (8)
851C  6D53746174757300   "mStatus\0"
                         const [3]: "mStatus"
8524  04                 const type 4
8525  04                 string size (4)
8526  6D4F6E00           "mOn\0"
                         const [4]: "mOn"
852A  04                 const type 4
852B  11                 string size (17)
852C  736C6F7444656163+  "slotDeac"
8534  7469766174654678+  "tivateFx"
853C  00                 "\0"
                         const [5]: "slotDeactivateFx"
853D  04                 const type 4
853E  0F                 string size (15)
853F  736C6F7441637469+  "slotActi"
8547  76617465467800     "vateFx\0"
                         const [6]: "slotActivateFx"
854E  01                 const type 3
854F  65770E40           const [7]: (1074689893)
8553  04                 const type 4
8554  15                 string size (21)
8555  6D41637469766174+  "mActivat"
855D  696F6E5061727469+  "ionParti"
8565  636C657300         "cles\0"
                         const [8]: "mActivationParticles"
856A  01                 const type 3
856B  44E719AC           const [9]: (-1407588540)
856F  04                 const type 4
8570  07                 string size (7)
8571  6D4D6F76696500     "mMovie\0"
                         const [10]: "mMovie"
8578  04                 const type 4
8579  0A                 string size (10)
857A  6D436C69704E616D+  "mClipNam"
8582  6500               "e\0"
                         const [11]: "mClipName"
8584  03                 const type 3
8585  00000040           const [12]: (0)
8589  01                 const type 3
858A  7C91A3DD           const [13]: (-576482948)
858E  04                 const type 4
858F  0B                 string size (11)
8590  4C6F7475735F4761+  "Lotus_Ga"
8598  6D6500             "me\0"
                         const [14]: "Lotus_Game"
859B  04                 const type 4
859C  21                 string size (33)
859D  55495374796C655F+  "UIStyle_"
85A5  466C6F6174696E67+  "Floating"
85AD  436F6E74656E7448+  "ContentH"
85B5  6967686C69676874+  "ighlight"
85BD  00                 "\0"
                         const [15]: "UIStyle_FloatingContentHighlight"
85BE  04                 const type 4
85BF  06                 string size (6)
85C0  616C70686100       "alpha\0"
                         const [16]: "alpha"
85C6  01                 const type 3
85C7  A22217F8           const [17]: (-132701534)
85CB  03                 const type 3
85CC  0000C842           const [18]: (0)
85D0  03                 const type 3
85D1  00005C42           const [19]: (0)
85D5  04                 const type 4
85D6  0A                 string size (10)
85D7  6D496E7374616E63+  "mInstanc"
85DF  6500               "e\0"
                         const [20]: "mInstance"
85E1  01                 const type 3
85E2  9A178A40           const [21]: (1082791834)
85E6  01                 const type 3
85E7  1FD0B58D           const [22]: (-1917464545)
85EB  01                 const type 3
85EC  59AC7869           const [23]: (1769516121)
85F0  01                 const type 3
85F1  920E8CD2           const [24]: (-762573166)
85F5  04                 const type 4
85F6  03                 string size (3)
85F7  496400             "Id\0"
                         const [25]: "Id"
85FA  03                 const type 3
85FB  0000803F           const [26]: (0)
85FF  01                 const type 3
8600  94239925           const [27]: (630793108)
8604  04                 const type 4
8605  10                 string size (16)
8606  6465616374697661+  "deactiva"
860E  7465536F756E6400   "teSound\0"
                         const [28]: "deactivateSound"
8616  04                 const type 4
8617  0E                 string size (14)
8618  6163746976617465+  "activate"
8620  536F756E6400       "Sound\0"
                         const [29]: "activateSound"
8626  01                 const type 3
8627  3D989B06           const [30]: (110860349)
862B  03                 const type 3
862C  CDCC4C3E           const [31]: (-51)
                         * functions:
8630  00                 sizep (0)
                         * lines:
8631  5D                 sizelineinfo (93)
                         [pc] (line)
8632  74                 [01] (116)
8633  03                 [02] (116)
8634  00                 [03] (116)
8635  00                 [04] (116)
8636  74                 [05] (116)
8637  03                 [06] (117)
8638  00                 [07] (117)
8639  00                 [08] (117)
863A  74                 [09] (117)
863B  03                 [10] (117)
863C  00                 [11] (118)
863D  00                 [12] (118)
863E  74                 [13] (119)
863F  03                 [14] (120)
8640  00                 [15] (120)
8641  00                 [16] (120)
8642  74                 [17] (121)
8643  03                 [18] (121)
8644  00                 [19] (121)
8645  00                 [20] (123)
8646  75                 [21] (124)
8647  03                 [22] (124)
8648  00                 [23] (125)
8649  00                 [24] (127)
864A  75                 [25] (127)
864B  03                 [26] (127)
864C  00                 [27] (127)
864D  00                 [28] (127)
864E  75                 [29] (-128)
864F  03                 [30] (-128)
8650  00                 [31] (-128)
8651  00                 [32] (-128)
8652  75                 [33] (-128)
8653  03                 [34] (-128)
8654  00                 [35] (-128)
8655  00                 [36] (-128)
8656  75                 [37] (-128)
8657  03                 [38] (-127)
8658  00                 [39] (-127)
8659  00                 [40] (-127)
865A  76                 [41] (-127)
865B  03                 [42] (-127)
865C  00                 [43] (-127)
865D  00                 [44] (-126)
865E  76                 [45] (-126)
865F  03                 [46] (-126)
8660  00                 [47] (-126)
8661  00                 [48] (-126)
8662  77                 [49] (-126)
8663  03                 [50] (-126)
8664  00                 [51] (-125)
8665  00                 [52] (-125)
8666  78                 [53] (-125)
8667  03                 [54] (-125)
8668  00                 [55] (-125)
8669  00                 [56] (-125)
866A  78                 [57] (-122)
866B  03                 [58] (-122)
866C  00                 [59] (-122)
866D  00                 [60] (-122)
866E  78                 [61] (-122)
866F  03                 [62] (-122)
8670  00                 [63] (-122)
8671  00                 [64] (-122)
8672  79                 [65] (-122)
8673  03                 [66] (-122)
8674  00                 [67] (-122)
8675  00                 [68] (-122)
8676  79                 [69] (-120)
8677  03                 [70] (-120)
8678  00                 [71] (-120)
8679  00                 [72] (-120)
867A  79                 [73] (-119)
867B  03                 [74] (-119)
867C  00                 [75] (-119)
867D  00                 [76] (-119)
867E  7B                 [77] (-119)
867F  03                 [78] (-117)
8680  00                 [79] (-117)
8681  00                 [80] (-117)
8682  7C                 [81] (-117)
8683  03                 [82] (-115)
8684  00                 [83] (-115)
8685  00                 [84] (-115)
8686  7C                 [85] (-115)
8687  03                 [86] (-115)
8688  00                 [87] (-114)
8689  00                 [88] (-114)
868A  7D                 [89] (-114)
868B  03                 [90] (-114)
868C  00                 [91] (-114)
868D  00                 [92] (-114)
868E  7F                 [93] (-110)
                         * locals:
87A6  00                 sizelocvars (0)
                         * upvalues:
87A7  00                 sizeupvalues (0)
                         ** end of function **

                         
87A8                     ** function [4] definition (level 3)
                         ** start of function **
87A8  00                 string size (0)
                         source name: (none)
87AA  07                 line defined (916)
87AB  99                 last line defined (921)
87AC  07                 nups (3)
87AD  03                 numparams (1)
87AE  01                 is_vararg (0)
87AF  00                 maxstacksize (8)
                         * code:
87B1  16                 sizecode (22)
87B2  53000000           [01] getupval   1   0      
87B6  93008000           [02] getupval   2   1      
87BA  D2000000           [03] move       3   0      
87BE  62408001           [04] call       1   3   1  
87C2  53000001           [05] getupval   1   2      
87C6  4E00C000           [06] gettable   1   1   256  ; -132701534
87CA  8E404000           [07] gettable   2   0   257  ; "BtnOffset"
fail op	35
87CE  23804001           [08] close      0  
87D2  1A000080           [09] jmp        1            ; to [11]
87D6  97400000           [10] loadbool   2   0   1    ; false, to [12]
87DA  97008000           [11] loadbool   2   1   0    ; true
87DE  CE404000           [12] gettable   3   0   257  ; "BtnOffset"
87E2  19C10000           [13] loadk      4   3        ; 0
87E6  62800002           [14] call       1   4   2  
87EA  9D000100           [15] getglobal  2   4        ; mMovie
87EE  A4404101           [16] self       2   2   261  ; -2013161817
87F2  0E814100           [17] gettable   4   0   262  ; "mClipName"
87F6  59C10100           [18] loadk      5   7        ; "Btn"
87FA  99010200           [19] loadk      6   8        ; "_x"
87FE  D2018000           [20] move       7   1      
8802  A2400003           [21] call       2   6   1  
8806  1E008000           [22] return     0   1      
                         * constants:
880A  09                 sizek (9)
880B  01                 const type 3
880C  A22217F8           const [0]: (-132701534)
8810  04                 const type 4
8811  0A                 string size (10)
8812  42746E4F66667365+  "BtnOffse"
881A  7400               "t\0"
                         const [1]: "BtnOffset"
881C  00                 const type 0
                         const [2]: nil
881D  03                 const type 3
881E  00000000           const [3]: (0)
8822  04                 const type 4
8823  07                 string size (7)
8824  6D4D6F76696500     "mMovie\0"
                         const [4]: "mMovie"
882B  01                 const type 3
882C  A7960188           const [5]: (-2013161817)
8830  04                 const type 4
8831  0A                 string size (10)
8832  6D436C69704E616D+  "mClipNam"
883A  6500               "e\0"
                         const [6]: "mClipName"
883C  04                 const type 4
883D  04                 string size (4)
883E  42746E00           "Btn\0"
                         const [7]: "Btn"
8842  04                 const type 4
8843  03                 string size (3)
8844  5F7800             "_x\0"
                         const [8]: "_x"
                         * functions:
8847  00                 sizep (0)
                         * lines:
8848  16                 sizelineinfo (22)
                         [pc] (line)
8849  95                 [01] (-107)
884A  03                 [02] (-107)
884B  00                 [03] (-107)
884C  00                 [04] (-107)
884D  95                 [05] (-105)
884E  03                 [06] (-105)
884F  00                 [07] (-105)
8850  00                 [08] (-105)
8851  95                 [09] (-105)
8852  03                 [10] (-105)
8853  00                 [11] (-105)
8854  00                 [12] (-105)
8855  95                 [13] (-105)
8856  03                 [14] (-105)
8857  00                 [15] (-104)
8858  00                 [16] (-104)
8859  97                 [17] (-104)
885A  03                 [18] (-104)
885B  00                 [19] (-104)
885C  00                 [20] (-104)
885D  97                 [21] (-104)
885E  03                 [22] (-103)
                         * locals:
88A1  00                 sizelocvars (0)
                         * upvalues:
88A2  00                 sizeupvalues (0)
                         ** end of function **

                         
88A3                     ** function [5] definition (level 3)
                         ** start of function **
88A3  00                 string size (0)
                         source name: (none)
88A5  07                 line defined (923)
88A6  9D                 last line defined (925)
88A7  07                 nups (0)
88A8  00                 numparams (2)
88A9  02                 is_vararg (0)
88AA  00                 maxstacksize (3)
                         * code:
88AC  03                 sizecode (3)
88AD  8E00C000           [1] gettable   2   1   256  ; "mX"
88B1  9E000001           [2] return     2   2      
88B5  1E008000           [3] return     0   1      
                         * constants:
88B9  01                 sizek (1)
88BA  04                 const type 4
88BB  03                 string size (3)
88BC  6D5800             "mX\0"
                         const [0]: "mX"
                         * functions:
88BF  00                 sizep (0)
                         * lines:
88C0  03                 sizelineinfo (3)
                         [pc] (line)
88C1  9C                 [1] (-100)
88C2  03                 [2] (-100)
88C3  00                 [3] (-99)
                         * locals:
88CD  00                 sizelocvars (0)
                         * upvalues:
88CE  00                 sizeupvalues (0)
                         ** end of function **

                         
88CF                     ** function [6] definition (level 3)
                         ** start of function **
88CF  00                 string size (0)
                         source name: (none)
88D1  07                 line defined (927)
88D2  A1                 last line defined (929)
88D3  07                 nups (0)
88D4  00                 numparams (2)
88D5  02                 is_vararg (0)
88D6  00                 maxstacksize (3)
                         * code:
88D8  03                 sizecode (3)
88D9  8E00C000           [1] gettable   2   1   256  ; "mY"
88DD  9E000001           [2] return     2   2      
88E1  1E008000           [3] return     0   1      
                         * constants:
88E5  01                 sizek (1)
88E6  04                 const type 4
88E7  03                 string size (3)
88E8  6D5900             "mY\0"
                         const [0]: "mY"
                         * functions:
88EB  00                 sizep (0)
                         * lines:
88EC  03                 sizelineinfo (3)
                         [pc] (line)
88ED  A0                 [1] (-96)
88EE  03                 [2] (-96)
88EF  00                 [3] (-95)
                         * locals:
88F9  00                 sizelocvars (0)
                         * upvalues:
88FA  00                 sizeupvalues (0)
                         ** end of function **

                         
88FB                     ** function [7] definition (level 3)
                         ** start of function **
88FB  00                 string size (0)
                         source name: (none)
88FD  07                 line defined (931)
88FE  A4                 last line defined (932)
88FF  07                 nups (0)
8900  00                 numparams (2)
8901  02                 is_vararg (0)
8902  00                 maxstacksize (2)
                         * code:
8904  01                 sizecode (1)
8905  1E008000           [1] return     0   1      
                         * constants:
8909  00                 sizek (0)
                         * functions:
890A  00                 sizep (0)
                         * lines:
890B  01                 sizelineinfo (1)
                         [pc] (line)
890C  A4                 [1] (-92)
                         * locals:
8910  00                 sizelocvars (0)
                         * upvalues:
8911  00                 sizeupvalues (0)
                         ** end of function **

                         
8912                     ** function [8] definition (level 3)
                         ** start of function **
8912  00                 string size (0)
                         source name: (none)
8914  07                 line defined (934)
8915  A8                 last line defined (936)
8916  07                 nups (0)
8917  00                 numparams (2)
8918  02                 is_vararg (0)
8919  00                 maxstacksize (5)
                         * code:
891B  08                 sizecode (8)
891C  8B008000           [1] newtable   2   1   0    ; array=1, hash=0
8920  D9000000           [2] loadk      3   0        ; "_alpha"
8924  9B408000           [3] setlist    2   1   1    ; index 1 to 1
8928  CB008000           [4] newtable   3   1   0    ; array=1, hash=0
892C  19410000           [5] loadk      4   1        ; 0
8930  DB408000           [6] setlist    3   1   1    ; index 1 to 1
8934  9E008001           [7] return     2   3      
8938  1E008000           [8] return     0   1      
                         * constants:
893C  02                 sizek (2)
893D  04                 const type 4
893E  07                 string size (7)
893F  5F616C70686100     "_alpha\0"
                         const [0]: "_alpha"
8946  03                 const type 3
8947  0000C842           const [1]: (0)
                         * functions:
894B  00                 sizep (0)
                         * lines:
894C  08                 sizelineinfo (8)
                         [pc] (line)
894D  A7                 [1] (-89)
894E  03                 [2] (-89)
894F  00                 [3] (-89)
8950  00                 [4] (-89)
8951  A7                 [5] (-89)
8952  03                 [6] (-89)
8953  00                 [7] (-89)
8954  00                 [8] (-88)
                         * locals:
896D  00                 sizelocvars (0)
                         * upvalues:
896E  00                 sizeupvalues (0)
                         ** end of function **

                         * lines:
896F  4C                 sizelineinfo (76)
                         [pc] (line)
8970  5C                 [01] (92)
8971  03                 [02] (92)
8972  00                 [03] (92)
8973  00                 [04] (93)
8974  5C                 [05] (93)
8975  03                 [06] (93)
8976  00                 [07] (93)
8977  00                 [08] (93)
8978  5C                 [09] (94)
8979  03                 [10] (94)
897A  00                 [11] (94)
897B  00                 [12] (94)
897C  5D                 [13] (94)
897D  03                 [14] (94)
897E  00                 [15] (94)
897F  00                 [16] (95)
8980  5D                 [17] (95)
8981  03                 [18] (96)
8982  00                 [19] (96)
8983  00                 [20] (97)
8984  5D                 [21] (97)
8985  03                 [22] (98)
8986  00                 [23] (98)
8987  00                 [24] (98)
8988  5D                 [25] (98)
8989  03                 [26] (98)
898A  00                 [27] (98)
898B  00                 [28] (98)
898C  5D                 [29] (98)
898D  03                 [30] (98)
898E  00                 [31] (98)
898F  00                 [32] (99)
8990  5E                 [33] (104)
8991  03                 [34] (104)
8992  00                 [35] (104)
8993  00                 [36] (104)
8994  5E                 [37] (104)
8995  03                 [38] (105)
8996  00                 [39] (108)
8997  00                 [40] (108)
8998  5E                 [41] (108)
8999  03                 [42] (108)
899A  00                 [43] (109)
899B  00                 [44] (111)
899C  5E                 [45] (111)
899D  03                 [46] (112)
899E  00                 [47] (-110)
899F  00                 [48] (-110)
89A0  5E                 [49] (-110)
89A1  03                 [50] (-110)
89A2  00                 [51] (-110)
89A3  00                 [52] (-110)
89A4  5E                 [53] (-110)
89A5  03                 [54] (-110)
89A6  00                 [55] (-110)
89A7  00                 [56] (-110)
89A8  5E                 [57] (-110)
89A9  03                 [58] (-109)
89AA  00                 [59] (-103)
89AB  00                 [60] (-103)
89AC  5F                 [61] (-103)
89AD  03                 [62] (-103)
89AE  00                 [63] (-103)
89AF  00                 [64] (-102)
89B0  5F                 [65] (-99)
89B1  03                 [66] (-99)
89B2  00                 [67] (-98)
89B3  00                 [68] (-95)
89B4  60                 [69] (-95)
89B5  03                 [70] (-94)
89B6  00                 [71] (-92)
89B7  00                 [72] (-92)
89B8  60                 [73] (-91)
89B9  03                 [74] (-88)
89BA  00                 [75] (-88)
89BB  00                 [76] (-87)
                         * locals:
8AA0  00                 sizelocvars (0)
                         * upvalues:
8AA1  00                 sizeupvalues (0)
                         ** end of function **

                         
8AA2                     ** function [28] definition (level 2)
                         ** start of function **
8AA2  00                 string size (0)
                         source name: (none)
8AA4  07                 line defined (939)
8AA5  C0                 last line defined (960)
8AA6  07                 nups (2)
8AA7  02                 numparams (6)
8AA8  06                 is_vararg (0)
8AA9  00                 maxstacksize (15)
                         * code:
8AAB  4D                 sizecode (77)
fail op	35
8AAC  23004002           [01] close      0  
8AB0  1A000080           [02] jmp        1            ; to [4]
8AB4  17010000           [03] loadbool   4   0   0    ; false
8AB8  99410000           [04] loadk      6   1        ; "SystemStage."
8ABC  D2010000           [05] move       7   0      
8AC0  1D820000           [06] getglobal  8   2        ; -1615931716
8AC4  52028000           [07] move       9   1      
8AC8  22820001           [08] call       8   2   2  
8ACC  82010203           [09] concat     6   6   8  
8AD0  DDC10000           [10] getglobal  7   3        ; mMovie
8AD4  E401C103           [11] self       7   7   260  ; 1803241227
8AD8  52020003           [12] move       9   6      
8ADC  E2818001           [13] call       7   3   2  
fail op	35
8AE0  2340C103           [14] close      0  
8AE4  1A800280           [15] jmp        11           ; to [27]
8AE8  DD810100           [16] getglobal  7   6        ; -1817107093
8AEC  19C20100           [17] loadk      8   7        ; "ERROR: Clip doens't exist: '"
8AF0  5D820000           [18] getglobal  9   2        ; -1615931716
8AF4  92020003           [19] move       10  6      
8AF8  62820001           [20] call       9   2   2  
8AFC  99020200           [21] loadk      10  8        ; "'"
8B00  02820204           [22] concat     8   8   10 
8B04  E2410001           [23] call       7   2   1  
8B08  DD410200           [24] getglobal  7   9        ; 317968122
8B0C  17020000           [25] loadbool   8   0   0    ; false
8B10  E2410001           [26] call       7   2   1  
8B14  DD810200           [27] getglobal  7   10       ; -174740002
8B18  1DC20000           [28] getglobal  8   3        ; mMovie
8B1C  24024104           [29] self       8   8   260  ; 1803241227
8B20  92020003           [30] move       10  6      
8B24  D9C20200           [31] loadk      11  11       ; "_x"
8B28  22020002           [32] call       8   4   0  
8B2C  E2810000           [33] call       7   0   2  
8B30  1D820200           [34] getglobal  8   10       ; -174740002
8B34  5DC20000           [35] getglobal  9   3        ; mMovie
8B38  6402C104           [36] self       9   9   260  ; 1803241227
8B3C  D2020003           [37] move       11  6      
8B40  19030300           [38] loadk      12  12       ; "_y"
8B44  62020002           [39] call       9   4   0  
8B48  22820000           [40] call       8   0   2  
8B4C  4BC20100           [41] newtable   9   0   7    ; array=0, hash=7
8B50  4C828186           [42] settable   9   269 6    ; "mOverrideClipName"
8B54  4CC20187           [43] settable   9   270 7    ; "mX"
8B58  4C028287           [44] settable   9   271 8    ; "mY"
8B5C  4C420088           [45] settable   9   272 1    ; "mSlotId"
8B60  4C828088           [46] settable   9   273 2    ; "mSection"
8B64  4C020189           [47] settable   9   274 4    ; "mTwoSlots"
8B68  4C428189           [48] settable   9   275 5    ; "BtnOffset"
8B6C  93020000           [49] getupval   10  0      
8B70  D3028000           [50] getupval   11  1      
8B74  E402C505           [51] self       11  11  276  ; -988128099
8B78  E2820001           [52] call       11  2   2  
8B7C  C342C505           [53] add        11  11  277  ; 0
8B80  8EC20205           [54] gettable   10  10  11 
8B84  8E828201           [55] gettable   10  3   10 
fail op	35
8B88  63004005           [56] close      1  
8B8C  1A000280           [57] jmp        9            ; to [67]
8B90  CBC20000           [58] newtable   11  0   3    ; array=0, hash=3
8B94  0EC34505           [59] gettable   12  10  279  ; "mOn"
8B98  CC02838B           [60] settable   11  279 12   ; "mOn"
8B9C  0E034605           [61] gettable   12  10  280  ; "mPowered"
8BA0  CC02038C           [62] settable   11  280 12   ; "mPowered"
8BA4  0E434605           [63] gettable   12  10  281  ; "mDamaged"
8BA8  CC02838C           [64] settable   11  281 12   ; "mDamaged"
8BAC  4CC2028B           [65] settable   9   278 11   ; "mStatus"
8BB0  1A000180           [66] jmp        5            ; to [72]
8BB4  CBC20000           [67] newtable   11  0   3    ; array=0, hash=3
8BB8  CC82C68B           [68] settable   11  279 282  ; "mOn" 0
8BBC  CC82468C           [69] settable   11  280 282  ; "mPowered" 0
8BC0  CC82C68C           [70] settable   11  281 282  ; "mDamaged" 0
8BC4  4CC2028B           [71] settable   9   278 11   ; "mStatus"
8BC8  D3028000           [72] getupval   11  1      
8BCC  E4C2C605           [73] self       11  11  283  ; -1484936978
8BD0  52038004           [74] move       13  9      
8BD4  97038000           [75] loadbool   14  1   0    ; true
8BD8  E2420002           [76] call       11  4   1  
8BDC  1E008000           [77] return     0   1      
                         * constants:
8BE0  1C                 sizek (28)
8BE1  00                 const type 0
                         const [0]: nil
8BE2  04                 const type 4
8BE3  0D                 string size (13)
8BE4  53797374656D5374+  "SystemSt"
8BEC  6167652E00         "age.\0"
                         const [1]: "SystemStage."
8BF1  01                 const type 3
8BF2  BCD6AE9F           const [2]: (-1615931716)
8BF6  04                 const type 4
8BF7  07                 string size (7)
8BF8  6D4D6F76696500     "mMovie\0"
                         const [3]: "mMovie"
8BFF  01                 const type 3
8C00  0B477B6B           const [4]: (1803241227)
8C04  04                 const type 4
8C05  0A                 string size (10)
8C06  756E646566696E65+  "undefine"
8C0E  6400               "d\0"
                         const [5]: "undefined"
8C10  01                 const type 3
8C11  6B25B193           const [6]: (-1817107093)
8C15  04                 const type 4
8C16  1D                 string size (29)
8C17  4552524F523A2043+  "ERROR: C"
8C1F  6C697020646F656E+  "lip doen"
8C27  7327742065786973+  "s't exis"
8C2F  743A202700         "t: '\0"
                         const [7]: "ERROR: Clip doens't exist: '"
8C34  04                 const type 4
8C35  02                 string size (2)
8C36  2700               "'\0"
                         const [8]: "'"
8C38  01                 const type 3
8C39  FACEF312           const [9]: (317968122)
8C3D  01                 const type 3
8C3E  DEAD95F5           const [10]: (-174740002)
8C42  04                 const type 4
8C43  03                 string size (3)
8C44  5F7800             "_x\0"
                         const [11]: "_x"
8C47  04                 const type 4
8C48  03                 string size (3)
8C49  5F7900             "_y\0"
                         const [12]: "_y"
8C4C  04                 const type 4
8C4D  12                 string size (18)
8C4E  6D4F766572726964+  "mOverrid"
8C56  65436C69704E616D+  "eClipNam"
8C5E  6500               "e\0"
                         const [13]: "mOverrideClipName"
8C60  04                 const type 4
8C61  03                 string size (3)
8C62  6D5800             "mX\0"
                         const [14]: "mX"
8C65  04                 const type 4
8C66  03                 string size (3)
8C67  6D5900             "mY\0"
                         const [15]: "mY"
8C6A  04                 const type 4
8C6B  08                 string size (8)
8C6C  6D536C6F74496400   "mSlotId\0"
                         const [16]: "mSlotId"
8C74  04                 const type 4
8C75  09                 string size (9)
8C76  6D53656374696F6E+  "mSection"
8C7E  00                 "\0"
                         const [17]: "mSection"
8C7F  04                 const type 4
8C80  0A                 string size (10)
8C81  6D54776F536C6F74+  "mTwoSlot"
8C89  7300               "s\0"
                         const [18]: "mTwoSlots"
8C8B  04                 const type 4
8C8C  0A                 string size (10)
8C8D  42746E4F66667365+  "BtnOffse"
8C95  7400               "t\0"
                         const [19]: "BtnOffset"
8C97  01                 const type 3
8C98  9D5C1AC5           const [20]: (-988128099)
8C9C  03                 const type 3
8C9D  0000803F           const [21]: (0)
8CA1  04                 const type 4
8CA2  08                 string size (8)
8CA3  6D53746174757300   "mStatus\0"
                         const [22]: "mStatus"
8CAB  04                 const type 4
8CAC  04                 string size (4)
8CAD  6D4F6E00           "mOn\0"
                         const [23]: "mOn"
8CB1  04                 const type 4
8CB2  09                 string size (9)
8CB3  6D506F7765726564+  "mPowered"
8CBB  00                 "\0"
                         const [24]: "mPowered"
8CBC  04                 const type 4
8CBD  09                 string size (9)
8CBE  6D44616D61676564+  "mDamaged"
8CC6  00                 "\0"
                         const [25]: "mDamaged"
8CC7  01                 const type 3
8CC8  00000000           const [26]: (0)
8CCC  01                 const type 3
8CCD  EEA87DA7           const [27]: (-1484936978)
                         * functions:
8CD1  00                 sizep (0)
                         * lines:
8CD2  4D                 sizelineinfo (77)
                         [pc] (line)
8CD3  AC                 [01] (-84)
8CD4  03                 [02] (-84)
8CD5  00                 [03] (-83)
8CD6  00                 [04] (-81)
8CD7  AC                 [05] (-81)
8CD8  03                 [06] (-81)
8CD9  00                 [07] (-81)
8CDA  00                 [08] (-81)
8CDB  AD                 [09] (-81)
8CDC  03                 [10] (-80)
8CDD  00                 [11] (-80)
8CDE  00                 [12] (-80)
8CDF  AF                 [13] (-80)
8CE0  03                 [14] (-80)
8CE1  00                 [15] (-80)
8CE2  00                 [16] (-79)
8CE3  AF                 [17] (-79)
8CE4  03                 [18] (-79)
8CE5  00                 [19] (-79)
8CE6  00                 [20] (-79)
8CE7  AF                 [21] (-79)
8CE8  03                 [22] (-79)
8CE9  00                 [23] (-79)
8CEA  00                 [24] (-78)
8CEB  AF                 [25] (-78)
8CEC  03                 [26] (-78)
8CED  00                 [27] (-76)
8CEE  00                 [28] (-76)
8CEF  AF                 [29] (-76)
8CF0  03                 [30] (-76)
8CF1  00                 [31] (-76)
8CF2  00                 [32] (-76)
8CF3  AF                 [33] (-76)
8CF4  03                 [34] (-75)
8CF5  00                 [35] (-75)
8CF6  00                 [36] (-75)
8CF7  B0                 [37] (-75)
8CF8  03                 [38] (-75)
8CF9  00                 [39] (-75)
8CFA  00                 [40] (-75)
8CFB  B0                 [41] (-73)
8CFC  03                 [42] (-73)
8CFD  00                 [43] (-73)
8CFE  00                 [44] (-73)
8CFF  B0                 [45] (-73)
8D00  03                 [46] (-73)
8D01  00                 [47] (-73)
8D02  00                 [48] (-73)
8D03  B0                 [49] (-72)
8D04  03                 [50] (-72)
8D05  00                 [51] (-72)
8D06  00                 [52] (-72)
8D07  B0                 [53] (-72)
8D08  03                 [54] (-72)
8D09  00                 [55] (-72)
8D0A  00                 [56] (-71)
8D0B  B0                 [57] (-71)
8D0C  03                 [58] (-70)
8D0D  00                 [59] (-70)
8D0E  00                 [60] (-70)
8D0F  B1                 [61] (-70)
8D10  03                 [62] (-70)
8D11  00                 [63] (-70)
8D12  00                 [64] (-70)
8D13  B1                 [65] (-70)
8D14  03                 [66] (-70)
8D15  00                 [67] (-68)
8D16  00                 [68] (-68)
8D17  B1                 [69] (-68)
8D18  03                 [70] (-68)
8D19  00                 [71] (-68)
8D1A  00                 [72] (-65)
8D1B  B1                 [73] (-65)
8D1C  03                 [74] (-65)
8D1D  00                 [75] (-65)
8D1E  00                 [76] (-65)
8D1F  B1                 [77] (-64)
                         * locals:
8E07  00                 sizelocvars (0)
                         * upvalues:
8E08  00                 sizeupvalues (0)
                         ** end of function **

                         
8E09                     ** function [29] definition (level 2)
                         ** start of function **
8E09  00                 string size (0)
                         source name: (none)
8E0B  07                 line defined (962)
8E0C  CA                 last line defined (1098)
8E0D  08                 nups (12)
8E0E  0C                 numparams (0)
8E0F  00                 is_vararg (0)
8E10  00                 maxstacksize (27)
                         * code:
8E13  03                 sizecode (486)
8E14  4B000000           [001] newtable   1   0   0    ; array=0, hash=0
8E18  9D000000           [002] getglobal  2   0        ; 1074689893
8E1C  D3000000           [003] getupval   3   0      
8E20  A2800001           [004] call       2   2   2  
8E24  98400000           [005] test       2       1    ; to [7] if false
8E28  1A000280           [006] jmp        9            ; to [16]
8E2C  93000000           [007] getupval   2   0      
8E30  A4404001           [008] self       2   2   257  ; -1917464545
8E34  A2800001           [009] call       2   2   2  
8E38  A4804001           [010] self       2   2   258  ; 1769516121
8E3C  A2800001           [011] call       2   2   2  
8E40  12000001           [012] move       0   2      
8E44  A4C04000           [013] self       2   0   259  ; 666345268
8E48  A2800001           [014] call       2   2   2  
8E4C  52000001           [015] move       1   2      
8E50  93008000           [016] getupval   2   1      
8E54  D9000100           [017] loadk      3   4        ; "SlotWeaponry"
8E58  19410100           [018] loadk      4   5        ; 0
8E5C  53010001           [019] getupval   5   2      
8E60  4E81C102           [020] gettable   5   5   262  ; "WEAPONRY"
8E64  92018000           [021] move       6   1      
8E68  A2408002           [022] call       2   5   1  
8E6C  93008000           [023] getupval   2   1      
8E70  D9000100           [024] loadk      3   4        ; "SlotWeaponry"
8E74  19C10100           [025] loadk      4   7        ; 0
8E78  53010001           [026] getupval   5   2      
8E7C  4E81C102           [027] gettable   5   5   262  ; "WEAPONRY"
8E80  92018000           [028] move       6   1      
8E84  A2408002           [029] call       2   5   1  
8E88  93008000           [030] getupval   2   1      
8E8C  D9000100           [031] loadk      3   4        ; "SlotWeaponry"
8E90  19010200           [032] loadk      4   8        ; 0
8E94  53010001           [033] getupval   5   2      
8E98  4E81C102           [034] gettable   5   5   262  ; "WEAPONRY"
8E9C  92018000           [035] move       6   1      
8EA0  A2408002           [036] call       2   5   1  
8EA4  93008000           [037] getupval   2   1      
8EA8  D9000100           [038] loadk      3   4        ; "SlotWeaponry"
8EAC  19410200           [039] loadk      4   9        ; 0
8EB0  53010001           [040] getupval   5   2      
8EB4  4E81C102           [041] gettable   5   5   262  ; "WEAPONRY"
8EB8  92018000           [042] move       6   1      
8EBC  A2408002           [043] call       2   5   1  
8EC0  93008000           [044] getupval   2   1      
8EC4  D9000100           [045] loadk      3   4        ; "SlotWeaponry"
8EC8  19810200           [046] loadk      4   10       ; 0
8ECC  53010001           [047] getupval   5   2      
8ED0  4E81C102           [048] gettable   5   5   262  ; "WEAPONRY"
8ED4  92018000           [049] move       6   1      
8ED8  D7018000           [050] loadbool   7   1   0    ; true
8EDC  A2400003           [051] call       2   6   1  
8EE0  93008000           [052] getupval   2   1      
8EE4  D9C00200           [053] loadk      3   11       ; "SlotBattle"
8EE8  19410100           [054] loadk      4   5        ; 0
8EEC  53010001           [055] getupval   5   2      
8EF0  4E01C302           [056] gettable   5   5   268  ; "BATTLE"
8EF4  92018000           [057] move       6   1      
8EF8  D7018000           [058] loadbool   7   1   0    ; true
8EFC  A2400003           [059] call       2   6   1  
8F00  93008000           [060] getupval   2   1      
8F04  D9C00200           [061] loadk      3   11       ; "SlotBattle"
8F08  19C10100           [062] loadk      4   7        ; 0
8F0C  53010001           [063] getupval   5   2      
8F10  4E01C302           [064] gettable   5   5   268  ; "BATTLE"
8F14  92018000           [065] move       6   1      
8F18  D7018000           [066] loadbool   7   1   0    ; true
8F1C  A2400003           [067] call       2   6   1  
8F20  93008000           [068] getupval   2   1      
8F24  D9C00200           [069] loadk      3   11       ; "SlotBattle"
8F28  19010200           [070] loadk      4   8        ; 0
8F2C  53010001           [071] getupval   5   2      
8F30  4E01C302           [072] gettable   5   5   268  ; "BATTLE"
8F34  92018000           [073] move       6   1      
8F38  D7018000           [074] loadbool   7   1   0    ; true
8F3C  A2400003           [075] call       2   6   1  
8F40  93008000           [076] getupval   2   1      
8F44  D9400300           [077] loadk      3   13       ; "SlotTactical"
8F48  19410100           [078] loadk      4   5        ; 0
8F4C  53010001           [079] getupval   5   2      
8F50  4E81C302           [080] gettable   5   5   270  ; "TACTICAL"
8F54  92018000           [081] move       6   1      
8F58  A2408002           [082] call       2   5   1  
8F5C  93008000           [083] getupval   2   1      
8F60  D9400300           [084] loadk      3   13       ; "SlotTactical"
8F64  19C10100           [085] loadk      4   7        ; 0
8F68  53010001           [086] getupval   5   2      
8F6C  4E81C302           [087] gettable   5   5   270  ; "TACTICAL"
8F70  92018000           [088] move       6   1      
8F74  A2408002           [089] call       2   5   1  
8F78  93008000           [090] getupval   2   1      
8F7C  D9400300           [091] loadk      3   13       ; "SlotTactical"
8F80  19010200           [092] loadk      4   8        ; 0
8F84  53010001           [093] getupval   5   2      
8F88  4E81C302           [094] gettable   5   5   270  ; "TACTICAL"
8F8C  92018000           [095] move       6   1      
8F90  A2408002           [096] call       2   5   1  
8F94  93008000           [097] getupval   2   1      
8F98  D9400300           [098] loadk      3   13       ; "SlotTactical"
8F9C  19410200           [099] loadk      4   9        ; 0
8FA0  53010001           [100] getupval   5   2      
8FA4  4E81C302           [101] gettable   5   5   270  ; "TACTICAL"
8FA8  92018000           [102] move       6   1      
8FAC  C6018003           [103] loadnil    7   7      
8FB0  19C20300           [104] loadk      8   15       ; 0
8FB4  A2408003           [105] call       2   7   1  
8FB8  93008000           [106] getupval   2   1      
8FBC  D9400300           [107] loadk      3   13       ; "SlotTactical"
8FC0  19810200           [108] loadk      4   10       ; 0
8FC4  53010001           [109] getupval   5   2      
8FC8  4E81C302           [110] gettable   5   5   270  ; "TACTICAL"
8FCC  92018000           [111] move       6   1      
8FD0  D7018000           [112] loadbool   7   1   0    ; true
8FD4  19C20300           [113] loadk      8   15       ; 0
8FD8  A2408003           [114] call       2   7   1  
8FDC  93008000           [115] getupval   2   1      
8FE0  D9400300           [116] loadk      3   13       ; "SlotTactical"
8FE4  19010400           [117] loadk      4   16       ; 0
8FE8  53010001           [118] getupval   5   2      
8FEC  4E81C302           [119] gettable   5   5   270  ; "TACTICAL"
8FF0  92018000           [120] move       6   1      
8FF4  A2408002           [121] call       2   5   1  
8FF8  93008000           [122] getupval   2   1      
8FFC  D9400300           [123] loadk      3   13       ; "SlotTactical"
9000  19410400           [124] loadk      4   17       ; 0
9004  53010001           [125] getupval   5   2      
9008  4E81C302           [126] gettable   5   5   270  ; "TACTICAL"
900C  92018000           [127] move       6   1      
9010  A2408002           [128] call       2   5   1  
9014  93008000           [129] getupval   2   1      
9018  D9400300           [130] loadk      3   13       ; "SlotTactical"
901C  19810400           [131] loadk      4   18       ; 0
9020  53010001           [132] getupval   5   2      
9024  4E81C302           [133] gettable   5   5   270  ; "TACTICAL"
9028  92018000           [134] move       6   1      
902C  A2408002           [135] call       2   5   1  
9030  93008000           [136] getupval   2   1      
9034  D9400300           [137] loadk      3   13       ; "SlotTactical"
9038  19C10400           [138] loadk      4   19       ; 0
903C  53010001           [139] getupval   5   2      
9040  4E81C302           [140] gettable   5   5   270  ; "TACTICAL"
9044  92018000           [141] move       6   1      
9048  C6018003           [142] loadnil    7   7      
904C  19C20300           [143] loadk      8   15       ; 0
9050  A2408003           [144] call       2   7   1  
9054  93008000           [145] getupval   2   1      
9058  D9400300           [146] loadk      3   13       ; "SlotTactical"
905C  19010500           [147] loadk      4   20       ; 0
9060  53010001           [148] getupval   5   2      
9064  4E81C302           [149] gettable   5   5   270  ; "TACTICAL"
9068  92018000           [150] move       6   1      
906C  D7018000           [151] loadbool   7   1   0    ; true
9070  19C20300           [152] loadk      8   15       ; 0
9074  A2408003           [153] call       2   7   1  
9078  93008000           [154] getupval   2   1      
907C  D9400500           [155] loadk      3   21       ; "SlotSystems"
9080  19410100           [156] loadk      4   5        ; 0
9084  53010001           [157] getupval   5   2      
9088  4E81C502           [158] gettable   5   5   278  ; "SYSTEMS"
908C  92018000           [159] move       6   1      
9090  A2408002           [160] call       2   5   1  
9094  93008000           [161] getupval   2   1      
9098  D9400500           [162] loadk      3   21       ; "SlotSystems"
909C  19C10100           [163] loadk      4   7        ; 0
90A0  53010001           [164] getupval   5   2      
90A4  4E81C502           [165] gettable   5   5   278  ; "SYSTEMS"
90A8  92018000           [166] move       6   1      
90AC  A2408002           [167] call       2   5   1  
90B0  93008000           [168] getupval   2   1      
90B4  D9400500           [169] loadk      3   21       ; "SlotSystems"
90B8  19010200           [170] loadk      4   8        ; 0
90BC  53010001           [171] getupval   5   2      
90C0  4E81C502           [172] gettable   5   5   278  ; "SYSTEMS"
90C4  92018000           [173] move       6   1      
90C8  A2408002           [174] call       2   5   1  
90CC  93008000           [175] getupval   2   1      
90D0  D9400500           [176] loadk      3   21       ; "SlotSystems"
90D4  19410200           [177] loadk      4   9        ; 0
90D8  53010001           [178] getupval   5   2      
90DC  4E81C502           [179] gettable   5   5   278  ; "SYSTEMS"
90E0  92018000           [180] move       6   1      
90E4  C6018003           [181] loadnil    7   7      
90E8  19C20300           [182] loadk      8   15       ; 0
90EC  A2408003           [183] call       2   7   1  
90F0  93008000           [184] getupval   2   1      
90F4  D9400500           [185] loadk      3   21       ; "SlotSystems"
90F8  19810200           [186] loadk      4   10       ; 0
90FC  53010001           [187] getupval   5   2      
9100  4E81C502           [188] gettable   5   5   278  ; "SYSTEMS"
9104  92018000           [189] move       6   1      
9108  D7018000           [190] loadbool   7   1   0    ; true
910C  19C20300           [191] loadk      8   15       ; 0
9110  A2408003           [192] call       2   7   1  
9114  93008000           [193] getupval   2   1      
9118  D9400500           [194] loadk      3   21       ; "SlotSystems"
911C  19010400           [195] loadk      4   16       ; 0
9120  53010001           [196] getupval   5   2      
9124  4E81C502           [197] gettable   5   5   278  ; "SYSTEMS"
9128  92018000           [198] move       6   1      
912C  A2408002           [199] call       2   5   1  
9130  93008000           [200] getupval   2   1      
9134  D9400500           [201] loadk      3   21       ; "SlotSystems"
9138  19410400           [202] loadk      4   17       ; 0
913C  53010001           [203] getupval   5   2      
9140  4E81C502           [204] gettable   5   5   278  ; "SYSTEMS"
9144  92018000           [205] move       6   1      
9148  A2408002           [206] call       2   5   1  
914C  93008000           [207] getupval   2   1      
9150  D9400500           [208] loadk      3   21       ; "SlotSystems"
9154  19810400           [209] loadk      4   18       ; 0
9158  53010001           [210] getupval   5   2      
915C  4E81C502           [211] gettable   5   5   278  ; "SYSTEMS"
9160  92018000           [212] move       6   1      
9164  A2408002           [213] call       2   5   1  
9168  93008000           [214] getupval   2   1      
916C  D9400500           [215] loadk      3   21       ; "SlotSystems"
9170  19C10400           [216] loadk      4   19       ; 0
9174  53010001           [217] getupval   5   2      
9178  4E81C502           [218] gettable   5   5   278  ; "SYSTEMS"
917C  92018000           [219] move       6   1      
9180  C6018003           [220] loadnil    7   7      
9184  19C20300           [221] loadk      8   15       ; 0
9188  A2408003           [222] call       2   7   1  
918C  93008000           [223] getupval   2   1      
9190  D9400500           [224] loadk      3   21       ; "SlotSystems"
9194  19010500           [225] loadk      4   20       ; 0
9198  53010001           [226] getupval   5   2      
919C  4E81C502           [227] gettable   5   5   278  ; "SYSTEMS"
91A0  92018000           [228] move       6   1      
91A4  D7018000           [229] loadbool   7   1   0    ; true
91A8  19C20300           [230] loadk      8   15       ; 0
91AC  A2408003           [231] call       2   7   1  
91B0  8B000000           [232] newtable   2   0   0    ; array=0, hash=0
91B4  DD000000           [233] getglobal  3   0        ; 1074689893
91B8  12010000           [234] move       4   0      
91BC  E2800001           [235] call       3   2   2  
91C0  D8400000           [236] test       3       1    ; to [238] if false
91C4  1A800080           [237] jmp        3            ; to [241]
91C8  E4C04500           [238] self       3   0   279  ; -1234778714
91CC  E2800001           [239] call       3   2   2  
91D0  92008001           [240] move       2   3      
91D4  D9400100           [241] loadk      3   5        ; 0
91D8  0A010001           [242] len        4   2      
91DC  59410100           [243] loadk      5   5        ; 0
91E0  D0C00D80           [244] forprep    3   56       ; to [301]
91E4  CE810101           [245] gettable   7   2   6  
91E8  1D020000           [246] getglobal  8   0        ; 1074689893
91EC  4E02C603           [247] gettable   9   7   280  ; "mItemType"
91F0  22820001           [248] call       8   2   2  
91F4  18020000           [249] test       8       0    ; to [251] if true
91F8  1AC00080           [250] jmp        4            ; to [255]
91FC  0E42C603           [251] gettable   8   7   281  ; "mItemId"
9200  0E824604           [252] gettable   8   8   282  ; "mId"
fail op	35
9204  63C04604           [253] close      1  
9208  1A400B80           [254] jmp        46           ; to [301]
920C  06020004           [255] loadnil    8   8      
9210  4E42C603           [256] gettable   9   7   281  ; "mItemId"
9214  4E82C604           [257] gettable   9   9   282  ; "mId"
fail op	35
9218  63C0C604           [258] close      1  
921C  1A000480           [259] jmp        17           ; to [277]
9220  53028001           [260] getupval   9   3      
9224  8E42C603           [261] gettable   10  7   281  ; "mItemId"
9228  8E824605           [262] gettable   10  10  282  ; "mId"
922C  4E828204           [263] gettable   9   9   10 
fail op	35
9230  2300C704           [264] close      0  
9234  1AC00180           [265] jmp        8            ; to [274]
9238  9D420700           [266] getglobal  10  29       ; -1817107093
923C  D9820700           [267] loadk      11  30       ; "RailjackSystems:: Could not find card with id "
9240  0E43C603           [268] gettable   12  7   281  ; "mItemId"
9244  0E834606           [269] gettable   12  12  282  ; "mId"
9248  59C30700           [270] loadk      13  31       ; " in cards list"
924C  C2428305           [271] concat     11  11  13 
9250  A2420001           [272] call       10  2   1  
9254  1A000580           [273] jmp        21           ; to [295]
9258  93020002           [274] getupval   10  4      
925C  0E420205           [275] gettable   8   10  9  
9260  1A400480           [276] jmp        18           ; to [295]
9264  93028002           [277] getupval   10  5      
9268  CE02C603           [278] gettable   11  7   280  ; "mItemType"
926C  E402C805           [279] self       11  11  288  ; 455421500
9270  E2820001           [280] call       11  2   2  
9274  8EC20205           [281] gettable   10  10  11 
fail op	35
9278  23004705           [282] close      0  
927C  1A000280           [283] jmp        9            ; to [293]
9280  DD420700           [284] getglobal  11  29       ; -1817107093
9284  19430800           [285] loadk      12  33       ; "RailjackSystems:: Could not find card with type "
9288  4E03C603           [286] gettable   13  7   280  ; "mItemType"
928C  6403C806           [287] self       13  13  288  ; 455421500
9290  62830001           [288] call       13  2   2  
9294  99C30700           [289] loadk      14  31       ; " in cards list"
9298  02830306           [290] concat     12  12  14 
929C  E2420001           [291] call       11  2   1  
92A0  1A400080           [292] jmp        2            ; to [295]
92A4  D3020002           [293] getupval   11  4      
92A8  0E828205           [294] gettable   8   11  10 
92AC  D3020003           [295] getupval   11  6      
92B0  13038003           [296] getupval   12  7      
92B4  0E830106           [297] gettable   12  12  6  
92B8  52030004           [298] move       13  8      
92BC  97038000           [299] loadbool   14  1   0    ; true
92C0  E2420002           [300] call       11  4   1  
92C4  D480F17F           [301] forloop    3   -57      ; to [245] if loop
92C8  DD020000           [302] getglobal  11  0        ; 1074689893
92CC  12030000           [303] move       12  0      
92D0  E2820001           [304] call       11  2   2  
92D4  D8420000           [305] test       11      1    ; to [307] if false
92D8  1A802580           [306] jmp        151          ; to [458]
92DC  E4824800           [307] self       11  0   290  ; 1834729641
92E0  E2820001           [308] call       11  2   2  
92E4  1D030000           [309] getglobal  12  0        ; 1074689893
92E8  52038005           [310] move       13  11     
92EC  22830001           [311] call       12  2   2  
92F0  18430000           [312] test       12      1    ; to [314] if false
92F4  1A800680           [313] jmp        27           ; to [341]
92F8  0BC30000           [314] newtable   12  0   3    ; array=0, hash=3
92FC  0C03C591           [315] settable   12  291 276  ; "mDrain" 0
9300  5D430900           [316] getglobal  13  37       ; mMovie
9304  6483C906           [317] self       13  13  294  ; 98241492
9308  E4C3C905           [318] self       15  11  295  ; 1634497718
930C  E2830001           [319] call       15  2   2  
9310  E403CA07           [320] self       15  15  296  ; 1590141906
9314  E2830001           [321] call       15  2   2  
9318  17040000           [322] loadbool   16  0   0    ; false
931C  62830002           [323] call       13  4   2  
9320  99430A00           [324] loadk      14  41       ; " ("
9324  DD430900           [325] getglobal  15  37       ; mMovie
9328  E483C907           [326] self       15  15  294  ; 98241492
932C  59840A00           [327] loadk      17  42       ; "/Lotus/Language/Railjack/Pilot"
9330  97040000           [328] loadbool   18  0   0    ; false
9334  E2830002           [329] call       15  4   2  
9338  19C40A00           [330] loadk      16  43       ; ")"
933C  42038406           [331] concat     13  13  16 
9340  0C430392           [332] settable   12  292 13   ; "mName"
9344  6443CB05           [333] self       13  11  301  ; 1043469869
9348  62830001           [334] call       13  2   2  
934C  0C430396           [335] settable   12  300 13   ; "mIcon"
9350  53030003           [336] getupval   13  6      
9354  99430100           [337] loadk      14  5        ; 0
9358  D2030006           [338] move       15  12     
935C  17048000           [339] loadbool   16  1   0    ; true
9360  62430002           [340] call       13  4   1  
9364  64834B00           [341] self       13  0   302  ; -1227555038
9368  62830001           [342] call       13  2   2  
936C  9D030000           [343] getglobal  14  0        ; 1074689893
9370  D2038006           [344] move       15  13     
9374  A2830001           [345] call       14  2   2  
9378  98430000           [346] test       14      1    ; to [348] if false
937C  1A800680           [347] jmp        27           ; to [375]
9380  8BC30000           [348] newtable   14  0   3    ; array=0, hash=3
9384  8C03C591           [349] settable   14  291 276  ; "mDrain" 0
9388  DD430900           [350] getglobal  15  37       ; mMovie
938C  E483C907           [351] self       15  15  294  ; 98241492
9390  64C4C906           [352] self       17  13  295  ; 1634497718
9394  62840001           [353] call       17  2   2  
9398  6404CA08           [354] self       17  17  296  ; 1590141906
939C  62840001           [355] call       17  2   2  
93A0  97040000           [356] loadbool   18  0   0    ; false
93A4  E2830002           [357] call       15  4   2  
93A8  19440A00           [358] loadk      16  41       ; " ("
93AC  5D440900           [359] getglobal  17  37       ; mMovie
93B0  6484C908           [360] self       17  17  294  ; 98241492
93B4  D9C40B00           [361] loadk      19  47       ; "/Lotus/Language/Railjack/Turret"
93B8  17050000           [362] loadbool   20  0   0    ; false
93BC  62840002           [363] call       17  4   2  
93C0  99C40A00           [364] loadk      18  43       ; ")"
93C4  C2838407           [365] concat     15  15  18 
93C8  8CC30392           [366] settable   14  292 15   ; "mName"
93CC  E443CB06           [367] self       15  13  301  ; 1043469869
93D0  E2830001           [368] call       15  2   2  
93D4  8CC30396           [369] settable   14  300 15   ; "mIcon"
93D8  D3030003           [370] getupval   15  6      
93DC  19C40100           [371] loadk      16  7        ; 0
93E0  52040007           [372] move       17  14     
93E4  97048000           [373] loadbool   18  1   0    ; true
93E8  E2430002           [374] call       15  4   1  
93EC  E4034C00           [375] self       15  0   304  ; 640404734
93F0  E2830001           [376] call       15  2   2  
93F4  1D040000           [377] getglobal  16  0        ; 1074689893
93F8  52048007           [378] move       17  15     
93FC  22840001           [379] call       16  2   2  
9400  18440000           [380] test       16      1    ; to [382] if false
9404  1A800680           [381] jmp        27           ; to [409]
9408  0BC40000           [382] newtable   16  0   3    ; array=0, hash=3
940C  0C04C591           [383] settable   16  291 276  ; "mDrain" 0
9410  5D440900           [384] getglobal  17  37       ; mMovie
9414  6484C908           [385] self       17  17  294  ; 98241492
9418  E4C4C907           [386] self       19  15  295  ; 1634497718
941C  E2840001           [387] call       19  2   2  
9420  E404CA09           [388] self       19  19  296  ; 1590141906
9424  E2840001           [389] call       19  2   2  
9428  17050000           [390] loadbool   20  0   0    ; false
942C  62840002           [391] call       17  4   2  
9430  99440A00           [392] loadk      18  41       ; " ("
9434  DD440900           [393] getglobal  19  37       ; mMovie
9438  E484C909           [394] self       19  19  294  ; 98241492
943C  59450C00           [395] loadk      21  49       ; "/Lotus/Language/Railjack/Ordinance"
9440  97050000           [396] loadbool   22  0   0    ; false
9444  E2840002           [397] call       19  4   2  
9448  19C50A00           [398] loadk      20  43       ; ")"
944C  42048508           [399] concat     17  17  20 
9450  0C440492           [400] settable   16  292 17   ; "mName"
9454  6444CB07           [401] self       17  15  301  ; 1043469869
9458  62840001           [402] call       17  2   2  
945C  0C440496           [403] settable   16  300 17   ; "mIcon"
9460  53040003           [404] getupval   17  6      
9464  99040200           [405] loadk      18  8        ; 0
9468  D2040008           [406] move       19  16     
946C  17058000           [407] loadbool   20  1   0    ; true
9470  62440002           [408] call       17  4   1  
9474  64844C00           [409] self       17  0   306  ; -1020558387
9478  62840001           [410] call       17  2   2  
947C  9D040000           [411] getglobal  18  0        ; 1074689893
9480  D2048008           [412] move       19  17     
9484  A2840001           [413] call       18  2   2  
9488  98440000           [414] test       18      1    ; to [416] if false
948C  1A800680           [415] jmp        27           ; to [443]
9490  8BC40000           [416] newtable   18  0   3    ; array=0, hash=3
9494  8C04C591           [417] settable   18  291 276  ; "mDrain" 0
9498  DD440900           [418] getglobal  19  37       ; mMovie
949C  E484C909           [419] self       19  19  294  ; 98241492
94A0  64C5C908           [420] self       21  17  295  ; 1634497718
94A4  62850001           [421] call       21  2   2  
94A8  6405CA0A           [422] self       21  21  296  ; 1590141906
94AC  62850001           [423] call       21  2   2  
94B0  97050000           [424] loadbool   22  0   0    ; false
94B4  E2840002           [425] call       19  4   2  
94B8  19450A00           [426] loadk      20  41       ; " ("
94BC  5D450900           [427] getglobal  21  37       ; mMovie
94C0  6485C90A           [428] self       21  21  294  ; 98241492
94C4  D9C50C00           [429] loadk      23  51       ; "/Lotus/Language/Railjack/Countermeasures"
94C8  17060000           [430] loadbool   24  0   0    ; false
94CC  62850002           [431] call       21  4   2  
94D0  99C50A00           [432] loadk      22  43       ; ")"
94D4  C2848509           [433] concat     19  19  22 
94D8  8CC40492           [434] settable   18  292 19   ; "mName"
94DC  E444CB08           [435] self       19  17  301  ; 1043469869
94E0  E2840001           [436] call       19  2   2  
94E4  8CC40496           [437] settable   18  300 19   ; "mIcon"
94E8  D3040003           [438] getupval   19  6      
94EC  19450200           [439] loadk      20  9        ; 0
94F0  52050009           [440] move       21  18     
94F4  97058000           [441] loadbool   22  1   0    ; true
94F8  E2440002           [442] call       19  4   1  
94FC  CBC40000           [443] newtable   19  0   3    ; array=0, hash=3
9500  CC04C591           [444] settable   19  291 276  ; "mDrain" 0
9504  1D450900           [445] getglobal  20  37       ; mMovie
9508  2485490A           [446] self       20  20  294  ; 98241492
950C  99050D00           [447] loadk      22  52       ; "/Lotus/Language/CrewShip/Wpn_MegaLaser"
9510  D7050000           [448] loadbool   23  0   0    ; false
9514  22850002           [449] call       20  4   2  
9518  CC040592           [450] settable   19  292 20   ; "mName"
951C  1D450D00           [451] getglobal  20  53       ; superWeaponIcon
9520  CC040596           [452] settable   19  300 20   ; "mIcon"
9524  13050003           [453] getupval   20  6      
9528  59850200           [454] loadk      21  10       ; 0
952C  92058009           [455] move       22  19     
9530  D7058000           [456] loadbool   23  1   0    ; true
9534  22450002           [457] call       20  4   1  
9538  0BC50000           [458] newtable   20  0   3    ; array=0, hash=3
953C  0C05C591           [459] settable   20  291 276  ; "mDrain" 0
9540  0C854D92           [460] settable   20  292 310  ; "mName" "ENGINES"
9544  5DC50D00           [461] getglobal  21  55       ; engineIcon
9548  0C450596           [462] settable   20  300 21   ; "mIcon"
954C  53050003           [463] getupval   21  6      
9550  93050004           [464] getupval   22  8      
9554  D205000A           [465] move       23  20     
9558  17068000           [466] loadbool   24  1   0    ; true
955C  62450002           [467] call       21  4   1  
9560  4BC50000           [468] newtable   21  0   3    ; array=0, hash=3
9564  4C05C591           [469] settable   21  291 276  ; "mDrain" 0
9568  4C054E92           [470] settable   21  292 312  ; "mName" "SHIELDS"
956C  9D450E00           [471] getglobal  22  57       ; shieldIcon
9570  4C850596           [472] settable   21  300 22   ; "mIcon"
9574  93050003           [473] getupval   22  6      
9578  D3058004           [474] getupval   23  9      
957C  1206800A           [475] move       24  21     
9580  57068000           [476] loadbool   25  1   0    ; true
9584  A2450002           [477] call       22  4   1  
9588  93050005           [478] getupval   22  10     
958C  D7058000           [479] loadbool   23  1   0    ; true
9590  A2450001           [480] call       22  2   1  
9594  93058005           [481] getupval   22  11     
9598  A4854E0B           [482] self       22  22  314  ; 1685109492
959C  0606800C           [483] loadnil    24  25     
95A0  97068000           [484] loadbool   26  1   0    ; true
95A4  A2458002           [485] call       22  5   1  
95A8  1E008000           [486] return     0   1      
                         * constants:
95AC  3B                 sizek (59)
95AD  01                 const type 3
95AE  65770E40           const [0]: (1074689893)
95B2  01                 const type 3
95B3  1FD0B58D           const [1]: (-1917464545)
95B7  01                 const type 3
95B8  59AC7869           const [2]: (1769516121)
95BC  01                 const type 3
95BD  349FB727           const [3]: (666345268)
95C1  04                 const type 4
95C2  0D                 string size (13)
95C3  536C6F7457656170+  "SlotWeap"
95CB  6F6E727900         "onry\0"
                         const [4]: "SlotWeaponry"
95D0  03                 const type 3
95D1  0000803F           const [5]: (0)
95D5  04                 const type 4
95D6  09                 string size (9)
95D7  574541504F4E5259+  "WEAPONRY"
95DF  00                 "\0"
                         const [6]: "WEAPONRY"
95E0  03                 const type 3
95E1  00000040           const [7]: (0)
95E5  03                 const type 3
95E6  00004040           const [8]: (0)
95EA  03                 const type 3
95EB  00008040           const [9]: (0)
95EF  03                 const type 3
95F0  0000A040           const [10]: (0)
95F4  04                 const type 4
95F5  0B                 string size (11)
95F6  536C6F7442617474+  "SlotBatt"
95FE  6C6500             "le\0"
                         const [11]: "SlotBattle"
9601  04                 const type 4
9602  07                 string size (7)
9603  424154544C4500     "BATTLE\0"
                         const [12]: "BATTLE"
960A  04                 const type 4
960B  0D                 string size (13)
960C  536C6F7454616374+  "SlotTact"
9614  6963616C00         "ical\0"
                         const [13]: "SlotTactical"
9619  04                 const type 4
961A  09                 string size (9)
961B  544143544943414C+  "TACTICAL"
9623  00                 "\0"
                         const [14]: "TACTICAL"
9624  03                 const type 3
9625  000020C2           const [15]: (0)
9629  03                 const type 3
962A  0000C040           const [16]: (0)
962E  03                 const type 3
962F  0000E040           const [17]: (0)
9633  03                 const type 3
9634  00000041           const [18]: (0)
9638  03                 const type 3
9639  00001041           const [19]: (0)
963D  03                 const type 3
963E  00002041           const [20]: (0)
9642  04                 const type 4
9643  0C                 string size (12)
9644  536C6F7453797374+  "SlotSyst"
964C  656D7300           "ems\0"
                         const [21]: "SlotSystems"
9650  04                 const type 4
9651  08                 string size (8)
9652  53595354454D5300   "SYSTEMS\0"
                         const [22]: "SYSTEMS"
965A  01                 const type 3
965B  A6C566B6           const [23]: (-1234778714)
965F  04                 const type 4
9660  0A                 string size (10)
9661  6D4974656D547970+  "mItemTyp"
9669  6500               "e\0"
                         const [24]: "mItemType"
966B  04                 const type 4
966C  08                 string size (8)
966D  6D4974656D496400   "mItemId\0"
                         const [25]: "mItemId"
9675  04                 const type 4
9676  04                 string size (4)
9677  6D496400           "mId\0"
                         const [26]: "mId"
967B  04                 const type 4
967C  01                 string size (0)
                         const [27]: ""
967E  00                 const type 0
                         const [28]: nil
967F  01                 const type 3
9680  6B25B193           const [29]: (-1817107093)
9684  04                 const type 4
9685  2F                 string size (47)
9686  5261696C6A61636B+  "Railjack"
968E  53797374656D733A+  "Systems:"
9696  3A20436F756C6420+  ": Could "
969E  6E6F742066696E64+  "not find"
96A6  2063617264207769+  " card wi"
96AE  74682069642000     "th id \0"
                         const [30]: "RailjackSystems:: Could not find card with id "
96B5  04                 const type 4
96B6  0F                 string size (15)
96B7  20696E2063617264+  " in card"
96BF  73206C69737400     "s list\0"
                         const [31]: " in cards list"
96C6  01                 const type 3
96C7  3C2E251B           const [32]: (455421500)
96CB  04                 const type 4
96CC  31                 string size (49)
96CD  5261696C6A61636B+  "Railjack"
96D5  53797374656D733A+  "Systems:"
96DD  3A20436F756C6420+  ": Could "
96E5  6E6F742066696E64+  "not find"
96ED  2063617264207769+  " card wi"
96F5  7468207479706520+  "th type "
96FD  00                 "\0"
                         const [33]: "RailjackSystems:: Could not find card with type "
96FE  01                 const type 3
96FF  A9C05B6D           const [34]: (1834729641)
9703  04                 const type 4
9704  07                 string size (7)
9705  6D447261696E00     "mDrain\0"
                         const [35]: "mDrain"
970C  04                 const type 4
970D  06                 string size (6)
970E  6D4E616D6500       "mName\0"
                         const [36]: "mName"
9714  04                 const type 4
9715  07                 string size (7)
9716  6D4D6F76696500     "mMovie\0"
                         const [37]: "mMovie"
971D  01                 const type 3
971E  D40BDB05           const [38]: (98241492)
9722  01                 const type 3
9723  B6746C61           const [39]: (1634497718)
9727  01                 const type 3
9728  D2A3C75E           const [40]: (1590141906)
972C  04                 const type 4
972D  03                 string size (3)
972E  202800             " (\0"
                         const [41]: " ("
9731  04                 const type 4
9732  1F                 string size (31)
9733  2F4C6F7475732F4C+  "/Lotus/L"
973B  616E67756167652F+  "anguage/"
9743  5261696C6A61636B+  "Railjack"
974B  2F50696C6F7400     "/Pilot\0"
                         const [42]: "/Lotus/Language/Railjack/Pilot"
9752  04                 const type 4
9753  02                 string size (2)
9754  2900               ")\0"
                         const [43]: ")"
9756  04                 const type 4
9757  06                 string size (6)
9758  6D49636F6E00       "mIcon\0"
                         const [44]: "mIcon"
975E  01                 const type 3
975F  2D16323E           const [45]: (1043469869)
9763  01                 const type 3
9764  22FFD4B6           const [46]: (-1227555038)
9768  04                 const type 4
9769  20                 string size (32)
976A  2F4C6F7475732F4C+  "/Lotus/L"
9772  616E67756167652F+  "anguage/"
977A  5261696C6A61636B+  "Railjack"
9782  2F54757272657400   "/Turret\0"
                         const [47]: "/Lotus/Language/Railjack/Turret"
978A  01                 const type 3
978B  FECC2B26           const [48]: (640404734)
978F  04                 const type 4
9790  23                 string size (35)
9791  2F4C6F7475732F4C+  "/Lotus/L"
9799  616E67756167652F+  "anguage/"
97A1  5261696C6A61636B+  "Railjack"
97A9  2F4F7264696E616E+  "/Ordinan"
97B1  636500             "ce\0"
                         const [49]: "/Lotus/Language/Railjack/Ordinance"
97B4  01                 const type 3
97B5  CD832BC3           const [50]: (-1020558387)
97B9  04                 const type 4
97BA  29                 string size (41)
97BB  2F4C6F7475732F4C+  "/Lotus/L"
97C3  616E67756167652F+  "anguage/"
97CB  5261696C6A61636B+  "Railjack"
97D3  2F436F756E746572+  "/Counter"
97DB  6D65617375726573+  "measures"
97E3  00                 "\0"
                         const [51]: "/Lotus/Language/Railjack/Countermeasures"
97E4  04                 const type 4
97E5  27                 string size (39)
97E6  2F4C6F7475732F4C+  "/Lotus/L"
97EE  616E67756167652F+  "anguage/"
97F6  4372657753686970+  "CrewShip"
97FE  2F57706E5F4D6567+  "/Wpn_Meg"
9806  614C6173657200     "aLaser\0"
                         const [52]: "/Lotus/Language/CrewShip/Wpn_MegaLaser"
980D  04                 const type 4
980E  10                 string size (16)
980F  7375706572576561+  "superWea"
9817  706F6E49636F6E00   "ponIcon\0"
                         const [53]: "superWeaponIcon"
981F  04                 const type 4
9820  08                 string size (8)
9821  454E47494E455300   "ENGINES\0"
                         const [54]: "ENGINES"
9829  04                 const type 4
982A  0B                 string size (11)
982B  656E67696E654963+  "engineIc"
9833  6F6E00             "on\0"
                         const [55]: "engineIcon"
9836  04                 const type 4
9837  08                 string size (8)
9838  534849454C445300   "SHIELDS\0"
                         const [56]: "SHIELDS"
9840  04                 const type 4
9841  0B                 string size (11)
9842  736869656C644963+  "shieldIc"
984A  6F6E00             "on\0"
                         const [57]: "shieldIcon"
984D  01                 const type 3
984E  F4BA7064           const [58]: (1685109492)
                         * functions:
9852  00                 sizep (0)
                         * lines:
9854  03                 sizelineinfo (486)
                         [pc] (line)
9855  C4                 [001] (-60)
9856  03                 [002] (-59)
9857  00                 [003] (-59)
9858  00                 [004] (-59)
9859  C5                 [005] (-59)
985A  03                 [006] (-59)
985B  00                 [007] (-58)
985C  00                 [008] (-58)
985D  C5                 [009] (-58)
985E  03                 [010] (-58)
985F  00                 [011] (-58)
9860  00                 [012] (-58)
9861  C5                 [013] (-57)
9862  03                 [014] (-57)
9863  00                 [015] (-57)
9864  00                 [016] (-54)
9865  C5                 [017] (-54)
9866  03                 [018] (-54)
9867  00                 [019] (-54)
9868  00                 [020] (-54)
9869  C5                 [021] (-54)
986A  03                 [022] (-54)
986B  00                 [023] (-53)
986C  00                 [024] (-53)
986D  C6                 [025] (-53)
986E  03                 [026] (-53)
986F  00                 [027] (-53)
9870  00                 [028] (-53)
9871  C6                 [029] (-53)
9872  03                 [030] (-52)
9873  00                 [031] (-52)
9874  00                 [032] (-52)
9875  C6                 [033] (-52)
9876  03                 [034] (-52)
9877  00                 [035] (-52)
9878  00                 [036] (-52)
9879  C6                 [037] (-51)
987A  03                 [038] (-51)
987B  00                 [039] (-51)
987C  00                 [040] (-51)
987D  C6                 [041] (-51)
987E  03                 [042] (-51)
987F  00                 [043] (-51)
9880  00                 [044] (-50)
9881  C6                 [045] (-50)
9882  03                 [046] (-50)
9883  00                 [047] (-50)
9884  00                 [048] (-50)
9885  C7                 [049] (-50)
9886  03                 [050] (-50)
9887  00                 [051] (-50)
9888  00                 [052] (-48)
9889  C7                 [053] (-48)
988A  03                 [054] (-48)
988B  00                 [055] (-48)
988C  00                 [056] (-48)
988D  C7                 [057] (-48)
988E  03                 [058] (-48)
988F  00                 [059] (-48)
9890  00                 [060] (-47)
9891  CA                 [061] (-47)
9892  03                 [062] (-47)
9893  00                 [063] (-47)
9894  00                 [064] (-47)
9895  CA                 [065] (-47)
9896  03                 [066] (-47)
9897  00                 [067] (-47)
9898  00                 [068] (-46)
9899  CA                 [069] (-46)
989A  03                 [070] (-46)
989B  00                 [071] (-46)
989C  00                 [072] (-46)
989D  CA                 [073] (-46)
989E  03                 [074] (-46)
989F  00                 [075] (-46)
98A0  00                 [076] (-44)
98A1  CA                 [077] (-44)
98A2  03                 [078] (-44)
98A3  00                 [079] (-44)
98A4  00                 [080] (-44)
98A5  CA                 [081] (-44)
98A6  03                 [082] (-44)
98A7  00                 [083] (-43)
98A8  00                 [084] (-43)
98A9  CA                 [085] (-43)
98AA  03                 [086] (-43)
98AB  00                 [087] (-43)
98AC  00                 [088] (-43)
98AD  CB                 [089] (-43)
98AE  03                 [090] (-42)
98AF  00                 [091] (-42)
98B0  00                 [092] (-42)
98B1  CB                 [093] (-42)
98B2  03                 [094] (-42)
98B3  00                 [095] (-42)
98B4  00                 [096] (-42)
98B5  CB                 [097] (-41)
98B6  03                 [098] (-41)
98B7  00                 [099] (-41)
98B8  00                 [100] (-41)
98B9  CB                 [101] (-41)
98BA  03                 [102] (-41)
98BB  00                 [103] (-41)
98BC  00                 [104] (-41)
98BD  CB                 [105] (-41)
98BE  03                 [106] (-40)
98BF  00                 [107] (-40)
98C0  00                 [108] (-40)
98C1  CB                 [109] (-40)
98C2  03                 [110] (-40)
98C3  00                 [111] (-40)
98C4  00                 [112] (-40)
98C5  CB                 [113] (-40)
98C6  03                 [114] (-40)
98C7  00                 [115] (-39)
98C8  00                 [116] (-39)
98C9  CC                 [117] (-39)
98CA  03                 [118] (-39)
98CB  00                 [119] (-39)
98CC  00                 [120] (-39)
98CD  CC                 [121] (-39)
98CE  03                 [122] (-38)
98CF  00                 [123] (-38)
98D0  00                 [124] (-38)
98D1  CC                 [125] (-38)
98D2  03                 [126] (-38)
98D3  00                 [127] (-38)
98D4  00                 [128] (-38)
98D5  CC                 [129] (-37)
98D6  03                 [130] (-37)
98D7  00                 [131] (-37)
98D8  00                 [132] (-37)
98D9  CC                 [133] (-37)
98DA  03                 [134] (-37)
98DB  00                 [135] (-37)
98DC  00                 [136] (-36)
98DD  CC                 [137] (-36)
98DE  03                 [138] (-36)
98DF  00                 [139] (-36)
98E0  00                 [140] (-36)
98E1  CC                 [141] (-36)
98E2  03                 [142] (-36)
98E3  00                 [143] (-36)
98E4  00                 [144] (-36)
98E5  CD                 [145] (-35)
98E6  03                 [146] (-35)
98E7  00                 [147] (-35)
98E8  00                 [148] (-35)
98E9  CD                 [149] (-35)
98EA  03                 [150] (-35)
98EB  00                 [151] (-35)
98EC  00                 [152] (-35)
98ED  CD                 [153] (-35)
98EE  03                 [154] (-33)
98EF  00                 [155] (-33)
98F0  00                 [156] (-33)
98F1  CD                 [157] (-33)
98F2  03                 [158] (-33)
98F3  00                 [159] (-33)
98F4  00                 [160] (-33)
98F5  CD                 [161] (-32)
98F6  03                 [162] (-32)
98F7  00                 [163] (-32)
98F8  00                 [164] (-32)
98F9  CD                 [165] (-32)
98FA  03                 [166] (-32)
98FB  00                 [167] (-32)
98FC  00                 [168] (-31)
98FD  CD                 [169] (-31)
98FE  03                 [170] (-31)
98FF  00                 [171] (-31)
9900  00                 [172] (-31)
9901  CE                 [173] (-31)
9902  03                 [174] (-31)
9903  00                 [175] (-30)
9904  00                 [176] (-30)
9905  CE                 [177] (-30)
9906  03                 [178] (-30)
9907  00                 [179] (-30)
9908  00                 [180] (-30)
9909  CE                 [181] (-30)
990A  03                 [182] (-30)
990B  00                 [183] (-30)
990C  00                 [184] (-29)
990D  CE                 [185] (-29)
990E  03                 [186] (-29)
990F  00                 [187] (-29)
9910  00                 [188] (-29)
9911  CE                 [189] (-29)
9912  03                 [190] (-29)
9913  00                 [191] (-29)
9914  00                 [192] (-29)
9915  CE                 [193] (-28)
9916  03                 [194] (-28)
9917  00                 [195] (-28)
9918  00                 [196] (-28)
9919  CE                 [197] (-28)
991A  03                 [198] (-28)
991B  00                 [199] (-28)
991C  00                 [200] (-27)
991D  CE                 [201] (-27)
991E  03                 [202] (-27)
991F  00                 [203] (-27)
9920  00                 [204] (-27)
9921  D0                 [205] (-27)
9922  03                 [206] (-27)
9923  00                 [207] (-26)
9924  00                 [208] (-26)
9925  D0                 [209] (-26)
9926  03                 [210] (-26)
9927  00                 [211] (-26)
9928  00                 [212] (-26)
9929  D0                 [213] (-26)
992A  03                 [214] (-25)
992B  00                 [215] (-25)
992C  00                 [216] (-25)
992D  D0                 [217] (-25)
992E  03                 [218] (-25)
992F  00                 [219] (-25)
9930  00                 [220] (-25)
9931  D0                 [221] (-25)
9932  03                 [222] (-25)
9933  00                 [223] (-24)
9934  00                 [224] (-24)
9935  D0                 [225] (-24)
9936  03                 [226] (-24)
9937  00                 [227] (-24)
9938  00                 [228] (-24)
9939  D0                 [229] (-24)
993A  03                 [230] (-24)
993B  00                 [231] (-24)
993C  00                 [232] (-20)
993D  D0                 [233] (-19)
993E  03                 [234] (-19)
993F  00                 [235] (-19)
9940  00                 [236] (-19)
9941  D1                 [237] (-19)
9942  03                 [238] (-18)
9943  00                 [239] (-18)
9944  00                 [240] (-18)
9945  D1                 [241] (-16)
9946  03                 [242] (-16)
9947  00                 [243] (-16)
9948  00                 [244] (-16)
9949  D1                 [245] (-15)
994A  03                 [246] (-14)
994B  00                 [247] (-14)
994C  00                 [248] (-14)
994D  D1                 [249] (-14)
994E  03                 [250] (-14)
994F  00                 [251] (-14)
9950  00                 [252] (-14)
9951  D1                 [253] (-14)
9952  03                 [254] (-14)
9953  00                 [255] (-13)
9954  00                 [256] (-12)
9955  D1                 [257] (-12)
9956  03                 [258] (-12)
9957  00                 [259] (-12)
9958  00                 [260] (-11)
9959  D1                 [261] (-11)
995A  03                 [262] (-11)
995B  00                 [263] (-11)
995C  00                 [264] (-10)
995D  D1                 [265] (-10)
995E  03                 [266] (-9)
995F  00                 [267] (-9)
9960  00                 [268] (-9)
9961  D2                 [269] (-9)
9962  03                 [270] (-9)
9963  00                 [271] (-9)
9964  00                 [272] (-9)
9965  D2                 [273] (-9)
9966  03                 [274] (-7)
9967  00                 [275] (-7)
9968  00                 [276] (-6)
9969  D2                 [277] (-4)
996A  03                 [278] (-4)
996B  00                 [279] (-4)
996C  00                 [280] (-4)
996D  D2                 [281] (-4)
996E  03                 [282] (-3)
996F  00                 [283] (-3)
9970  00                 [284] (-2)
9971  D2                 [285] (-2)
9972  03                 [286] (-2)
9973  00                 [287] (-2)
9974  00                 [288] (-2)
9975  D2                 [289] (-2)
9976  03                 [290] (-2)
9977  00                 [291] (-2)
9978  00                 [292] (-2)
9979  D2                 [293] (0)
997A  03                 [294] (0)
997B  00                 [295] (3)
997C  00                 [296] (3)
997D  D2                 [297] (3)
997E  03                 [298] (3)
997F  00                 [299] (3)
9980  00                 [300] (3)
9981  D4                 [301] (-16)
9982  03                 [302] (8)
9983  00                 [303] (8)
9984  00                 [304] (8)
9985  D4                 [305] (8)
9986  03                 [306] (8)
9987  00                 [307] (9)
9988  00                 [308] (9)
9989  D4                 [309] (10)
998A  03                 [310] (10)
998B  00                 [311] (10)
998C  00                 [312] (10)
998D  D4                 [313] (10)
998E  03                 [314] (11)
998F  00                 [315] (12)
9990  00                 [316] (13)
9991  D4                 [317] (13)
9992  03                 [318] (13)
9993  00                 [319] (13)
9994  00                 [320] (13)
9995  D4                 [321] (13)
9996  03                 [322] (13)
9997  00                 [323] (13)
9998  00                 [324] (13)
9999  D4                 [325] (13)
999A  03                 [326] (13)
999B  00                 [327] (13)
999C  00                 [328] (13)
999D  D5                 [329] (13)
999E  03                 [330] (13)
999F  00                 [331] (13)
99A0  00                 [332] (13)
99A1  D5                 [333] (14)
99A2  03                 [334] (14)
99A3  00                 [335] (14)
99A4  00                 [336] (16)
99A5  D5                 [337] (16)
99A6  03                 [338] (16)
99A7  00                 [339] (16)
99A8  00                 [340] (16)
99A9  D5                 [341] (19)
99AA  03                 [342] (19)
99AB  00                 [343] (20)
99AC  00                 [344] (20)
99AD  D5                 [345] (20)
99AE  03                 [346] (20)
99AF  00                 [347] (20)
99B0  00                 [348] (21)
99B1  D5                 [349] (22)
99B2  03                 [350] (23)
99B3  00                 [351] (23)
99B4  00                 [352] (23)
99B5  D5                 [353] (23)
99B6  03                 [354] (23)
99B7  00                 [355] (23)
99B8  00                 [356] (23)
99B9  D6                 [357] (23)
99BA  03                 [358] (23)
99BB  00                 [359] (23)
99BC  00                 [360] (23)
99BD  D6                 [361] (23)
99BE  03                 [362] (23)
99BF  00                 [363] (23)
99C0  00                 [364] (23)
99C1  D6                 [365] (23)
99C2  03                 [366] (23)
99C3  00                 [367] (24)
99C4  00                 [368] (24)
99C5  D6                 [369] (24)
99C6  03                 [370] (26)
99C7  00                 [371] (26)
99C8  00                 [372] (26)
99C9  D6                 [373] (26)
99CA  03                 [374] (26)
99CB  00                 [375] (29)
99CC  00                 [376] (29)
99CD  D6                 [377] (30)
99CE  03                 [378] (30)
99CF  00                 [379] (30)
99D0  00                 [380] (30)
99D1  D6                 [381] (30)
99D2  03                 [382] (31)
99D3  00                 [383] (32)
99D4  00                 [384] (33)
99D5  D7                 [385] (33)
99D6  03                 [386] (33)
99D7  00                 [387] (33)
99D8  00                 [388] (33)
99D9  D7                 [389] (33)
99DA  03                 [390] (33)
99DB  00                 [391] (33)
99DC  00                 [392] (33)
99DD  D7                 [393] (33)
99DE  03                 [394] (33)
99DF  00                 [395] (33)
99E0  00                 [396] (33)
99E1  D7                 [397] (33)
99E2  03                 [398] (33)
99E3  00                 [399] (33)
99E4  00                 [400] (33)
99E5  D7                 [401] (34)
99E6  03                 [402] (34)
99E7  00                 [403] (34)
99E8  00                 [404] (36)
99E9  D7                 [405] (36)
99EA  03                 [406] (36)
99EB  00                 [407] (36)
99EC  00                 [408] (36)
99ED  D7                 [409] (39)
99EE  03                 [410] (39)
99EF  00                 [411] (40)
99F0  00                 [412] (40)
99F1  D7                 [413] (40)
99F2  03                 [414] (40)
99F3  00                 [415] (40)
99F4  00                 [416] (41)
99F5  D7                 [417] (42)
99F6  03                 [418] (43)
99F7  00                 [419] (43)
99F8  00                 [420] (43)
99F9  D8                 [421] (43)
99FA  03                 [422] (43)
99FB  00                 [423] (43)
99FC  00                 [424] (43)
99FD  D8                 [425] (43)
99FE  03                 [426] (43)
99FF  00                 [427] (43)
9A00  00                 [428] (43)
9A01  D8                 [429] (43)
9A02  03                 [430] (43)
9A03  00                 [431] (43)
9A04  00                 [432] (43)
9A05  D8                 [433] (43)
9A06  03                 [434] (43)
9A07  00                 [435] (44)
9A08  00                 [436] (44)
9A09  D8                 [437] (44)
9A0A  03                 [438] (46)
9A0B  00                 [439] (46)
9A0C  00                 [440] (46)
9A0D  D8                 [441] (46)
9A0E  03                 [442] (46)
9A0F  00                 [443] (49)
9A10  00                 [444] (50)
9A11  D8                 [445] (51)
9A12  03                 [446] (51)
9A13  00                 [447] (51)
9A14  00                 [448] (51)
9A15  D8                 [449] (51)
9A16  03                 [450] (51)
9A17  00                 [451] (52)
9A18  00                 [452] (52)
9A19  D8                 [453] (54)
9A1A  03                 [454] (54)
9A1B  00                 [455] (54)
9A1C  00                 [456] (54)
9A1D  D9                 [457] (54)
9A1E  03                 [458] (57)
9A1F  00                 [459] (58)
9A20  00                 [460] (59)
9A21  D9                 [461] (60)
9A22  03                 [462] (60)
9A23  00                 [463] (62)
9A24  00                 [464] (62)
9A25  D9                 [465] (62)
9A26  03                 [466] (62)
9A27  00                 [467] (62)
9A28  00                 [468] (64)
9A29  D9                 [469] (65)
9A2A  03                 [470] (66)
9A2B  00                 [471] (67)
9A2C  00                 [472] (67)
9A2D  D9                 [473] (69)
9A2E  03                 [474] (69)
9A2F  00                 [475] (69)
9A30  00                 [476] (69)
9A31  D9                 [477] (69)
9A32  03                 [478] (71)
9A33  00                 [479] (71)
9A34  00                 [480] (71)
9A35  D9                 [481] (73)
9A36  03                 [482] (73)
9A37  00                 [483] (73)
9A38  00                 [484] (73)
9A39  DA                 [485] (73)
9A3A  03                 [486] (74)
                         * locals:
9FED  00                 sizelocvars (0)
                         * upvalues:
9FEE  00                 sizeupvalues (0)
                         ** end of function **

                         
9FEF                     ** function [30] definition (level 2)
                         ** start of function **
9FEF  00                 string size (0)
                         source name: (none)
9FF1  08                 line defined (1100)
9FF2  D9                 last line defined (1113)
9FF3  08                 nups (2)
9FF4  02                 numparams (0)
9FF5  00                 is_vararg (0)
9FF6  00                 maxstacksize (7)
                         * code:
9FF8  57                 sizecode (87)
9FF9  13000000           [01] getupval   0   0      
9FFD  53008000           [02] getupval   1   1      
A001  4E40C000           [03] gettable   1   1   257  ; -576482948
A005  9D800000           [04] getglobal  2   2        ; Lotus_Game
A009  8EC04001           [05] gettable   2   2   259  ; "UIStyle_Background1"
A00D  D7008000           [06] loadbool   3   1   0    ; true
A011  62808001           [07] call       1   3   2  
A015  0C400080           [08] settable   0   256 1    ; "Background1"
A019  13000000           [09] getupval   0   0      
A01D  53008000           [10] getupval   1   1      
A021  4E40C000           [11] gettable   1   1   257  ; -576482948
A025  9D800000           [12] getglobal  2   2        ; Lotus_Game
A029  8E404101           [13] gettable   2   2   261  ; "UIStyle_Background4"
A02D  D7008000           [14] loadbool   3   1   0    ; true
A031  62808001           [15] call       1   3   2  
A035  0C400082           [16] settable   0   260 1    ; "Background4"
A039  13000000           [17] getupval   0   0      
A03D  53008000           [18] getupval   1   1      
A041  4E40C000           [19] gettable   1   1   257  ; -576482948
A045  9D800000           [20] getglobal  2   2        ; Lotus_Game
A049  8EC04101           [21] gettable   2   2   263  ; "UIStyle_Content"
A04D  D7008000           [22] loadbool   3   1   0    ; true
A051  62808001           [23] call       1   3   2  
A055  0C400083           [24] settable   0   262 1    ; "Content"
A059  13000000           [25] getupval   0   0      
A05D  53008000           [26] getupval   1   1      
A061  4E40C000           [27] gettable   1   1   257  ; -576482948
A065  9D800000           [28] getglobal  2   2        ; Lotus_Game
A069  8E404201           [29] gettable   2   2   265  ; "UIStyle_FloatingContent"
A06D  D7008000           [30] loadbool   3   1   0    ; true
A071  62808001           [31] call       1   3   2  
A075  0C400084           [32] settable   0   264 1    ; "FloatingContent"
A079  13000000           [33] getupval   0   0      
A07D  53008000           [34] getupval   1   1      
A081  4E40C000           [35] gettable   1   1   257  ; -576482948
A085  9D800000           [36] getglobal  2   2        ; Lotus_Game
A089  8EC04201           [37] gettable   2   2   267  ; "UIStyle_FloatingContentHighlight"
A08D  D7000000           [38] loadbool   3   0   0    ; false
A091  62808001           [39] call       1   3   2  
A095  0C400085           [40] settable   0   266 1    ; "FloatingContentHighlightObject"
A099  13000000           [41] getupval   0   0      
A09D  53000000           [42] getupval   1   0      
A0A1  4E80C200           [43] gettable   1   1   266  ; "FloatingContentHighlightObject"
A0A5  6440C300           [44] self       1   1   269  ; 1201562292
A0A9  62800001           [45] call       1   2   2  
A0AD  0C400086           [46] settable   0   268 1    ; "FloatingContentHighlight"
A0B1  13000000           [47] getupval   0   0      
A0B5  53008000           [48] getupval   1   1      
A0B9  4E40C000           [49] gettable   1   1   257  ; -576482948
A0BD  9D800000           [50] getglobal  2   2        ; Lotus_Game
A0C1  8EC04301           [51] gettable   2   2   271  ; "UIStyle_BackerHighlight"
A0C5  D7008000           [52] loadbool   3   1   0    ; true
A0C9  62808001           [53] call       1   3   2  
A0CD  0C400087           [54] settable   0   270 1    ; "BackerHighlight"
A0D1  13000000           [55] getupval   0   0      
A0D5  53008000           [56] getupval   1   1      
A0D9  4E40C000           [57] gettable   1   1   257  ; -576482948
A0DD  9D800000           [58] getglobal  2   2        ; Lotus_Game
A0E1  8E404401           [59] gettable   2   2   273  ; "UIStyle_Negative"
A0E5  D7008000           [60] loadbool   3   1   0    ; true
A0E9  62808001           [61] call       1   3   2  
A0ED  0C400088           [62] settable   0   272 1    ; "Negative"
A0F1  1D800400           [63] getglobal  0   18       ; mMovie
A0F5  24C04400           [64] self       0   0   275  ; -266877948
A0F9  93000000           [65] getupval   2   0      
A0FD  8E004001           [66] gettable   2   2   256  ; "Background1"
A101  22408001           [67] call       0   3   1  
A105  1D000500           [68] getglobal  0   20       ; linesMaterial
A109  24404500           [69] self       0   0   277  ; -1795477990
A10D  9D800500           [70] getglobal  2   22       ; -332969190
A111  D9C00500           [71] loadk      3   23       ; "RipplesColor"
A115  A2800001           [72] call       2   2   2  
A119  D3000000           [73] getupval   3   0      
A11D  CE80C201           [74] gettable   3   3   266  ; "FloatingContentHighlightObject"
A121  CE00C601           [75] gettable   3   3   280  ; "red"
A125  DC40C601           [76] div        3   3   281  ; 0
A129  13010000           [77] getupval   4   0      
A12D  0E814202           [78] gettable   4   4   266  ; "FloatingContentHighlightObject"
A131  0E814602           [79] gettable   4   4   282  ; "green"
A135  1C414602           [80] div        4   4   281  ; 0
A139  53010000           [81] getupval   5   0      
A13D  4E81C202           [82] gettable   5   5   266  ; "FloatingContentHighlightObject"
A141  4EC1C602           [83] gettable   5   5   283  ; "blue"
A145  5C41C602           [84] div        5   5   281  ; 0
A149  99010700           [85] loadk      6   28       ; 0
A14D  22408003           [86] call       0   7   1  
A151  1E008000           [87] return     0   1      
                         * constants:
A155  1D                 sizek (29)
A156  04                 const type 4
A157  0C                 string size (12)
A158  4261636B67726F75+  "Backgrou"
A160  6E643100           "nd1\0"
                         const [0]: "Background1"
A164  01                 const type 3
A165  7C91A3DD           const [1]: (-576482948)
A169  04                 const type 4
A16A  0B                 string size (11)
A16B  4C6F7475735F4761+  "Lotus_Ga"
A173  6D6500             "me\0"
                         const [2]: "Lotus_Game"
A176  04                 const type 4
A177  14                 string size (20)
A178  55495374796C655F+  "UIStyle_"
A180  4261636B67726F75+  "Backgrou"
A188  6E643100           "nd1\0"
                         const [3]: "UIStyle_Background1"
A18C  04                 const type 4
A18D  0C                 string size (12)
A18E  4261636B67726F75+  "Backgrou"
A196  6E643400           "nd4\0"
                         const [4]: "Background4"
A19A  04                 const type 4
A19B  14                 string size (20)
A19C  55495374796C655F+  "UIStyle_"
A1A4  4261636B67726F75+  "Backgrou"
A1AC  6E643400           "nd4\0"
                         const [5]: "UIStyle_Background4"
A1B0  04                 const type 4
A1B1  08                 string size (8)
A1B2  436F6E74656E7400   "Content\0"
                         const [6]: "Content"
A1BA  04                 const type 4
A1BB  10                 string size (16)
A1BC  55495374796C655F+  "UIStyle_"
A1C4  436F6E74656E7400   "Content\0"
                         const [7]: "UIStyle_Content"
A1CC  04                 const type 4
A1CD  10                 string size (16)
A1CE  466C6F6174696E67+  "Floating"
A1D6  436F6E74656E7400   "Content\0"
                         const [8]: "FloatingContent"
A1DE  04                 const type 4
A1DF  18                 string size (24)
A1E0  55495374796C655F+  "UIStyle_"
A1E8  466C6F6174696E67+  "Floating"
A1F0  436F6E74656E7400   "Content\0"
                         const [9]: "UIStyle_FloatingContent"
A1F8  04                 const type 4
A1F9  1F                 string size (31)
A1FA  466C6F6174696E67+  "Floating"
A202  436F6E74656E7448+  "ContentH"
A20A  6967686C69676874+  "ighlight"
A212  4F626A65637400     "Object\0"
                         const [10]: "FloatingContentHighlightObject"
A219  04                 const type 4
A21A  21                 string size (33)
A21B  55495374796C655F+  "UIStyle_"
A223  466C6F6174696E67+  "Floating"
A22B  436F6E74656E7448+  "ContentH"
A233  6967686C69676874+  "ighlight"
A23B  00                 "\0"
                         const [11]: "UIStyle_FloatingContentHighlight"
A23C  04                 const type 4
A23D  19                 string size (25)
A23E  466C6F6174696E67+  "Floating"
A246  436F6E74656E7448+  "ContentH"
A24E  6967686C69676874+  "ighlight"
A256  00                 "\0"
                         const [12]: "FloatingContentHighlight"
A257  01                 const type 3
A258  B4629E47           const [13]: (1201562292)
A25C  04                 const type 4
A25D  10                 string size (16)
A25E  4261636B65724869+  "BackerHi"
A266  67686C6967687400   "ghlight\0"
                         const [14]: "BackerHighlight"
A26E  04                 const type 4
A26F  18                 string size (24)
A270  55495374796C655F+  "UIStyle_"
A278  4261636B65724869+  "BackerHi"
A280  67686C6967687400   "ghlight\0"
                         const [15]: "UIStyle_BackerHighlight"
A288  04                 const type 4
A289  09                 string size (9)
A28A  4E65676174697665+  "Negative"
A292  00                 "\0"
                         const [16]: "Negative"
A293  04                 const type 4
A294  11                 string size (17)
A295  55495374796C655F+  "UIStyle_"
A29D  4E65676174697665+  "Negative"
A2A5  00                 "\0"
                         const [17]: "UIStyle_Negative"
A2A6  04                 const type 4
A2A7  07                 string size (7)
A2A8  6D4D6F76696500     "mMovie\0"
                         const [18]: "mMovie"
A2AF  01                 const type 3
A2B0  04C417F0           const [19]: (-266877948)
A2B4  04                 const type 4
A2B5  0E                 string size (14)
A2B6  6C696E65734D6174+  "linesMat"
A2BE  657269616C00       "erial\0"
                         const [20]: "linesMaterial"
A2C4  01                 const type 3
A2C5  1A2EFB94           const [21]: (-1795477990)
A2C9  01                 const type 3
A2CA  1A4B27EC           const [22]: (-332969190)
A2CE  04                 const type 4
A2CF  0D                 string size (13)
A2D0  526970706C657343+  "RipplesC"
A2D8  6F6C6F7200         "olor\0"
                         const [23]: "RipplesColor"
A2DD  04                 const type 4
A2DE  04                 string size (4)
A2DF  72656400           "red\0"
                         const [24]: "red"
A2E3  03                 const type 3
A2E4  00007F43           const [25]: (0)
A2E8  04                 const type 4
A2E9  06                 string size (6)
A2EA  677265656E00       "green\0"
                         const [26]: "green"
A2F0  04                 const type 4
A2F1  05                 string size (5)
A2F2  626C756500         "blue\0"
                         const [27]: "blue"
A2F7  03                 const type 3
A2F8  0000803F           const [28]: (0)
                         * functions:
A2FC  00                 sizep (0)
                         * lines:
A2FD  57                 sizelineinfo (87)
                         [pc] (line)
A2FE  4D                 [01] (77)
A2FF  04                 [02] (77)
A300  00                 [03] (77)
A301  00                 [04] (77)
A302  4D                 [05] (77)
A303  04                 [06] (77)
A304  00                 [07] (77)
A305  00                 [08] (77)
A306  4D                 [09] (78)
A307  04                 [10] (78)
A308  00                 [11] (78)
A309  00                 [12] (78)
A30A  4D                 [13] (78)
A30B  04                 [14] (78)
A30C  00                 [15] (78)
A30D  00                 [16] (78)
A30E  4D                 [17] (79)
A30F  04                 [18] (79)
A310  00                 [19] (79)
A311  00                 [20] (79)
A312  4D                 [21] (79)
A313  04                 [22] (79)
A314  00                 [23] (79)
A315  00                 [24] (79)
A316  4D                 [25] (80)
A317  04                 [26] (80)
A318  00                 [27] (80)
A319  00                 [28] (80)
A31A  4D                 [29] (80)
A31B  04                 [30] (80)
A31C  00                 [31] (80)
A31D  00                 [32] (80)
A31E  4E                 [33] (81)
A31F  04                 [34] (81)
A320  00                 [35] (81)
A321  00                 [36] (81)
A322  4E                 [37] (81)
A323  04                 [38] (81)
A324  00                 [39] (81)
A325  00                 [40] (81)
A326  4E                 [41] (82)
A327  04                 [42] (82)
A328  00                 [43] (82)
A329  00                 [44] (82)
A32A  4E                 [45] (82)
A32B  04                 [46] (82)
A32C  00                 [47] (83)
A32D  00                 [48] (83)
A32E  4E                 [49] (83)
A32F  04                 [50] (83)
A330  00                 [51] (83)
A331  00                 [52] (83)
A332  4E                 [53] (83)
A333  04                 [54] (83)
A334  00                 [55] (84)
A335  00                 [56] (84)
A336  4E                 [57] (84)
A337  04                 [58] (84)
A338  00                 [59] (84)
A339  00                 [60] (84)
A33A  4E                 [61] (84)
A33B  04                 [62] (84)
A33C  00                 [63] (86)
A33D  00                 [64] (86)
A33E  4F                 [65] (86)
A33F  04                 [66] (86)
A340  00                 [67] (86)
A341  00                 [68] (88)
A342  4F                 [69] (88)
A343  04                 [70] (88)
A344  00                 [71] (88)
A345  00                 [72] (88)
A346  4F                 [73] (88)
A347  04                 [74] (88)
A348  00                 [75] (88)
A349  00                 [76] (88)
A34A  4F                 [77] (88)
A34B  04                 [78] (88)
A34C  00                 [79] (88)
A34D  00                 [80] (88)
A34E  4F                 [81] (88)
A34F  04                 [82] (88)
A350  00                 [83] (88)
A351  00                 [84] (88)
A352  4F                 [85] (88)
A353  04                 [86] (88)
A354  00                 [87] (89)
                         * locals:
A45A  00                 sizelocvars (0)
                         * upvalues:
A45B  00                 sizeupvalues (0)
                         ** end of function **

                         
A45C                     ** function [31] definition (level 2)
                         ** start of function **
A45C  00                 string size (0)
                         source name: (none)
A45E  08                 line defined (1115)
A45F  E3                 last line defined (1123)
A460  08                 nups (3)
A461  03                 numparams (0)
A462  00                 is_vararg (0)
A463  00                 maxstacksize (4)
                         * code:
A465  0B                 sizecode (11)
A466  1D000000           [01] getglobal  0   0        ; gRegion
A46A  24404000           [02] self       0   0   257  ; 65205951
A46E  22800001           [03] call       0   2   2  
fail op	8
A472  08000000           [04] setupval   0   0      
A476  13008000           [05] getupval   0   1      
A47A  24804000           [06] self       0   0   258  ; 1632191879
A47E  93000001           [07] getupval   2   2      
A482  E5000000           [08] closure    3   0      
A486  13000000           [09] getupval   0   0      
A48A  22400002           [10] call       0   4   1  
A48E  1E008000           [11] return     0   1      
                         * constants:
A492  03                 sizek (3)
A493  04                 const type 4
A494  08                 string size (8)
A495  67526567696F6E00   "gRegion\0"
                         const [0]: "gRegion"
A49D  01                 const type 3
A49E  BFF6E203           const [1]: (65205951)
A4A2  01                 const type 3
A4A3  87454961           const [2]: (1632191879)
                         * functions:
A4A7  01                 sizep (1)
                         
A4A8                     ** function [0] definition (level 3)
                         ** start of function **
A4A8  00                 string size (0)
                         source name: (none)
A4AA  08                 line defined (1118)
A4AB  E2                 last line defined (1122)
A4AC  08                 nups (1)
A4AD  01                 numparams (0)
A4AE  00                 is_vararg (0)
A4AF  00                 maxstacksize (3)
                         * code:
A4B1  0A                 sizecode (10)
A4B2  1D000000           [01] getglobal  0   0        ; 1074689893
A4B6  53000000           [02] getupval   1   0      
A4BA  22800001           [03] call       0   2   2  
A4BE  18400000           [04] test       0       1    ; to [6] if false
A4C2  1AC00080           [05] jmp        4            ; to [10]
A4C6  13000000           [06] getupval   0   0      
A4CA  24404000           [07] self       0   0   257  ; -458552994
A4CE  97000000           [08] loadbool   2   0   0    ; false
A4D2  22408001           [09] call       0   3   1  
A4D6  1E008000           [10] return     0   1      
                         * constants:
A4DA  02                 sizek (2)
A4DB  01                 const type 3
A4DC  65770E40           const [0]: (1074689893)
A4E0  01                 const type 3
A4E1  5E09ABE4           const [1]: (-458552994)
                         * functions:
A4E5  00                 sizep (0)
                         * lines:
A4E6  0A                 sizelineinfo (10)
                         [pc] (line)
A4E7  5F                 [01] (95)
A4E8  04                 [02] (95)
A4E9  00                 [03] (95)
A4EA  00                 [04] (95)
A4EB  5F                 [05] (95)
A4EC  04                 [06] (96)
A4ED  00                 [07] (96)
A4EE  00                 [08] (96)
A4EF  5F                 [09] (96)
A4F0  04                 [10] (98)
                         * locals:
A50F  00                 sizelocvars (0)
                         * upvalues:
A510  00                 sizeupvalues (0)
                         ** end of function **

                         * lines:
A511  0B                 sizelineinfo (11)
                         [pc] (line)
A512  5C                 [01] (92)
A513  04                 [02] (92)
A514  00                 [03] (92)
A515  00                 [04] (92)
A516  5C                 [05] (93)
A517  04                 [06] (93)
A518  00                 [07] (93)
A519  00                 [08] (98)
A51A  5C                 [09] (98)
A51B  04                 [10] (93)
A51C  00                 [11] (99)
                         * locals:
A53E  00                 sizelocvars (0)
                         * upvalues:
A53F  00                 sizeupvalues (0)
                         ** end of function **

                         
A540                     ** function [32] definition (level 2)
                         ** start of function **
A540  00                 string size (0)
                         source name: (none)
A542  08                 line defined (1125)
A543  F8                 last line defined (1144)
A544  08                 nups (6)
A545  06                 numparams (0)
A546  00                 is_vararg (0)
A547  00                 maxstacksize (13)
                         * code:
A549  3D                 sizecode (61)
A54A  1D000000           [01] getglobal  0   0        ; 1074689893
A54E  5D400000           [02] getglobal  1   1        ; cameraSpot
A552  22800001           [03] call       0   2   2  
A556  18400000           [04] test       0       1    ; to [6] if false
A55A  1A800D80           [05] jmp        55           ; to [61]
A55E  1D000000           [06] getglobal  0   0        ; 1074689893
A562  53000000           [07] getupval   1   0      
A566  22800001           [08] call       0   2   2  
A56A  18400000           [09] test       0       1    ; to [11] if false
A56E  1A400C80           [10] jmp        50           ; to [61]
A572  13000000           [11] getupval   0   0      
A576  24804000           [12] self       0   0   258  ; 1525877273
A57A  22800001           [13] call       0   2   2  
A57E  64C04000           [14] self       1   0   259  ; -735717699
A582  62800001           [15] call       1   2   2  
fail op	8
A586  48008000           [16] setupval   1   1      
A58A  5D000000           [17] getglobal  1   0        ; 1074689893
A58E  93008000           [18] getupval   2   1      
A592  62800001           [19] call       1   2   2  
A596  58400000           [20] test       1       1    ; to [22] if false
A59A  1AC00080           [21] jmp        4            ; to [26]
A59E  64004100           [22] self       1   0   260  ; 1362416700
A5A2  C6008001           [23] loadnil    3   3      
A5A6  19410100           [24] loadk      4   5        ; 0
A5AA  62400002           [25] call       1   4   1  
A5AE  5D000000           [26] getglobal  1   0        ; 1074689893
A5B2  92000000           [27] move       2   0      
A5B6  62800001           [28] call       1   2   2  
A5BA  58400000           [29] test       1       1    ; to [31] if false
A5BE  1A400780           [30] jmp        30           ; to [61]
A5C2  53000000           [31] getupval   1   0      
A5C6  6480C100           [32] self       1   1   262  ; 366271214
A5CA  DD400000           [33] getglobal  3   1        ; cameraSpot
A5CE  62808001           [34] call       1   3   2  
A5D2  9DC00100           [35] getglobal  2   7        ; 1672515847
A5D6  D2008000           [36] move       3   1      
A5DA  A2000101           [37] call       2   2   4  
A5DE  1A400080           [38] jmp        2            ; to [41]
A5E2  E4014203           [39] self       7   6   264  ; -725453761
A5E6  E2410001           [40] call       7   2   1  
A5EA  96800000           [41] tforloop   2       2    ; to [43] if exit
A5EE  1AC0FE7F           [42] jmp        -4           ; to [39]
A5F2  D3010001           [43] getupval   7   2      
A5F6  13020000           [44] getupval   8   0      
A5FA  24424204           [45] self       8   8   265  ; 1839670529
A5FE  22820001           [46] call       8   2   2  
A602  C3018203           [47] add        7   7   8  
fail op	8
A606  C8010001           [48] setupval   7   2      
A60A  DD810200           [49] getglobal  7   10       ; gRegion
A60E  E4C1C203           [50] self       7   7   267  ; -1110225722
A612  5D420000           [51] getglobal  9   1        ; cameraSpot
A616  93020001           [52] getupval   10  2      
A61A  D3020002           [53] getupval   11  4      
A61E  13030000           [54] getupval   12  0      
A622  E2810003           [55] call       7   6   2  
fail op	8
A626  C8018001           [56] setupval   7   3      
A62A  E4014100           [57] self       7   0   260  ; 1362416700
A62E  53028001           [58] getupval   9   3      
A632  93028002           [59] getupval   10  5      
A636  E2410002           [60] call       7   4   1  
A63A  1E008000           [61] return     0   1      
                         * constants:
A63E  0C                 sizek (12)
A63F  01                 const type 3
A640  65770E40           const [0]: (1074689893)
A644  04                 const type 4
A645  0B                 string size (11)
A646  63616D6572615370+  "cameraSp"
A64E  6F7400             "ot\0"
                         const [1]: "cameraSpot"
A651  01                 const type 3
A652  190AF35A           const [2]: (1525877273)
A656  01                 const type 3
A657  BDD625D4           const [3]: (-735717699)
A65B  01                 const type 3
A65C  3CD43451           const [4]: (1362416700)
A660  03                 const type 3
A661  00000000           const [5]: (0)
A665  01                 const type 3
A666  EEDAD415           const [6]: (366271214)
A66A  01                 const type 3
A66B  0791B063           const [7]: (1672515847)
A66F  01                 const type 3
A670  3F74C2D4           const [8]: (-725453761)
A674  01                 const type 3
A675  0125A76D           const [9]: (1839670529)
A679  04                 const type 4
A67A  08                 string size (8)
A67B  67526567696F6E00   "gRegion\0"
                         const [10]: "gRegion"
A683  01                 const type 3
A684  C64CD3BD           const [11]: (-1110225722)
                         * functions:
A688  00                 sizep (0)
                         * lines:
A689  3D                 sizelineinfo (61)
                         [pc] (line)
A68A  66                 [01] (102)
A68B  04                 [02] (102)
A68C  00                 [03] (102)
A68D  00                 [04] (102)
A68E  66                 [05] (102)
A68F  04                 [06] (102)
A690  00                 [07] (102)
A691  00                 [08] (102)
A692  66                 [09] (102)
A693  04                 [10] (102)
A694  00                 [11] (103)
A695  00                 [12] (103)
A696  66                 [13] (103)
A697  04                 [14] (104)
A698  00                 [15] (104)
A699  00                 [16] (104)
A69A  66                 [17] (105)
A69B  04                 [18] (105)
A69C  00                 [19] (105)
A69D  00                 [20] (105)
A69E  66                 [21] (105)
A69F  04                 [22] (106)
A6A0  00                 [23] (106)
A6A1  00                 [24] (106)
A6A2  66                 [25] (106)
A6A3  04                 [26] (109)
A6A4  00                 [27] (109)
A6A5  00                 [28] (109)
A6A6  66                 [29] (109)
A6A7  04                 [30] (109)
A6A8  00                 [31] (110)
A6A9  00                 [32] (110)
A6AA  66                 [33] (110)
A6AB  04                 [34] (110)
A6AC  00                 [35] (111)
A6AD  00                 [36] (111)
A6AE  66                 [37] (111)
A6AF  04                 [38] (111)
A6B0  00                 [39] (112)
A6B1  00                 [40] (112)
A6B2  67                 [41] (111)
A6B3  04                 [42] (112)
A6B4  00                 [43] (115)
A6B5  00                 [44] (115)
A6B6  67                 [45] (115)
A6B7  04                 [46] (115)
A6B8  00                 [47] (115)
A6B9  00                 [48] (115)
A6BA  67                 [49] (116)
A6BB  04                 [50] (116)
A6BC  00                 [51] (116)
A6BD  00                 [52] (116)
A6BE  68                 [53] (116)
A6BF  04                 [54] (116)
A6C0  00                 [55] (116)
A6C1  00                 [56] (116)
A6C2  68                 [57] (117)
A6C3  04                 [58] (117)
A6C4  00                 [59] (117)
A6C5  00                 [60] (117)
A6C6  68                 [61] (120)
                         * locals:
A77E  00                 sizelocvars (0)
                         * upvalues:
A77F  00                 sizeupvalues (0)
                         ** end of function **

                         
A780                     ** function [33] definition (level 2)
                         ** start of function **
A780  00                 string size (0)
                         source name: (none)
A782  08                 line defined (1146)
A783  8B                 last line defined (1163)
A784  09                 nups (2)
A785  02                 numparams (1)
A786  01                 is_vararg (0)
A787  00                 maxstacksize (14)
                         * code:
A789  33                 sizecode (51)
A78A  5D000000           [01] getglobal  1   0        ; math
A78E  4E40C000           [02] gettable   1   1   257  ; -150971781
A792  9C804000           [03] div        2   0   258  ; 0
A796  62800001           [04] call       1   2   2  
A79A  4D408081           [05] sub        1   259 1    ; 0
A79E  86008001           [06] loadnil    2   3      
A7A2  19010100           [07] loadk      4   4        ; 0
A7A6  59C10000           [08] loadk      5   3        ; 0
A7AA  99010100           [09] loadk      6   4        ; 0
A7AE  10410780           [10] forprep    4   30       ; to [41]
A7B2  99400100           [11] loadk      2   5        ; 0
A7B6  13020000           [12] getupval   8   0      
A7BA  CE804104           [13] gettable   3   8   262  ; "FloatingContentHighlight"
fail op	21
A7BE  15C08100           [14] concat     0   1   7  
A7C2  1AC00080           [15] jmp        4            ; to [20]
A7C6  99C00100           [16] loadk      2   7        ; 0
A7CA  13020000           [17] getupval   8   0      
A7CE  CE004204           [18] gettable   3   8   264  ; "FloatingContent"
A7D2  1A000180           [19] jmp        5            ; to [25]
fail op	21
A7D6  15408003           [20] concat     0   7   1  
A7DA  1A800080           [21] jmp        3            ; to [25]
A7DE  99400200           [22] loadk      2   9        ; 0
A7E2  13020000           [23] getupval   8   0      
A7E6  CE804204           [24] gettable   3   8   266  ; "Negative"
A7EA  1DC20200           [25] getglobal  8   11       ; mMovie
A7EE  24024304           [26] self       8   8   268  ; 471456102
A7F2  99420300           [27] loadk      10  13       ; "SystemStage.Ship.ShieldLayer"
A7F6  D2028003           [28] move       11  7      
A7FA  82C20205           [29] concat     10  10  11 
A7FE  D9820300           [30] loadk      11  14       ; "_alpha"
A802  12030001           [31] move       12  2      
A806  22428002           [32] call       8   5   1  
A80A  1DC20200           [33] getglobal  8   11       ; mMovie
A80E  24024304           [34] self       8   8   268  ; 471456102
A812  99420300           [35] loadk      10  13       ; "SystemStage.Ship.ShieldLayer"
A816  D2028003           [36] move       11  7      
A81A  82C20205           [37] concat     10  10  11 
A81E  D9C20300           [38] loadk      11  15       ; "_color"
A822  12038001           [39] move       12  3      
A826  22428002           [40] call       8   5   1  
A82A  1401F87F           [41] forloop    4   -31      ; to [11] if loop
A82E  1DC20200           [42] getglobal  8   11       ; mMovie
A832  24024404           [43] self       8   8   272  ; -693657623
A836  99420400           [44] loadk      10  17       ; "SystemStage.Ship.Shield"
A83A  D9820400           [45] loadk      11  18       ; "text"
A83E  13038000           [46] getupval   12  1      
A842  0EC34406           [47] gettable   12  12  275  ; -1250011425
A846  52030000           [48] move       13  0      
A84A  22030001           [49] call       12  2   0  
A84E  22420000           [50] call       8   0   1  
A852  1E008000           [51] return     0   1      
                         * constants:
A856  14                 sizek (20)
A857  04                 const type 4
A858  05                 string size (5)
A859  6D61746800         "math\0"
                         const [0]: "math"
A85E  01                 const type 3
A85F  7B5A00F7           const [1]: (-150971781)
A863  03                 const type 3
A864  0000A041           const [2]: (0)
A868  03                 const type 3
A869  0000A040           const [3]: (0)
A86D  03                 const type 3
A86E  0000803F           const [4]: (0)
A872  03                 const type 3
A873  0000C842           const [5]: (0)
A877  04                 const type 4
A878  19                 string size (25)
A879  466C6F6174696E67+  "Floating"
A881  436F6E74656E7448+  "ContentH"
A889  6967686C69676874+  "ighlight"
A891  00                 "\0"
                         const [6]: "FloatingContentHighlight"
A892  03                 const type 3
A893  00007042           const [7]: (0)
A897  04                 const type 4
A898  10                 string size (16)
A899  466C6F6174696E67+  "Floating"
A8A1  436F6E74656E7400   "Content\0"
                         const [8]: "FloatingContent"
A8A9  03                 const type 3
A8AA  0000C841           const [9]: (0)
A8AE  04                 const type 4
A8AF  09                 string size (9)
A8B0  4E65676174697665+  "Negative"
A8B8  00                 "\0"
                         const [10]: "Negative"
A8B9  04                 const type 4
A8BA  07                 string size (7)
A8BB  6D4D6F76696500     "mMovie\0"
                         const [11]: "mMovie"
A8C2  01                 const type 3
A8C3  66D9191C           const [12]: (471456102)
A8C7  04                 const type 4
A8C8  1D                 string size (29)
A8C9  53797374656D5374+  "SystemSt"
A8D1  6167652E53686970+  "age.Ship"
A8D9  2E536869656C644C+  ".ShieldL"
A8E1  6179657200         "ayer\0"
                         const [13]: "SystemStage.Ship.ShieldLayer"
A8E6  04                 const type 4
A8E7  07                 string size (7)
A8E8  5F616C70686100     "_alpha\0"
                         const [14]: "_alpha"
A8EF  04                 const type 4
A8F0  07                 string size (7)
A8F1  5F636F6C6F7200     "_color\0"
                         const [15]: "_color"
A8F8  01                 const type 3
A8F9  E99FA7D6           const [16]: (-693657623)
A8FD  04                 const type 4
A8FE  18                 string size (24)
A8FF  53797374656D5374+  "SystemSt"
A907  6167652E53686970+  "age.Ship"
A90F  2E536869656C6400   ".Shield\0"
                         const [17]: "SystemStage.Ship.Shield"
A917  04                 const type 4
A918  05                 string size (5)
A919  7465787400         "text\0"
                         const [18]: "text"
A91E  01                 const type 3
A91F  DF567EB5           const [19]: (-1250011425)
                         * functions:
A923  00                 sizep (0)
                         * lines:
A924  33                 sizelineinfo (51)
                         [pc] (line)
A925  7B                 [01] (123)
A926  04                 [02] (123)
A927  00                 [03] (123)
A928  00                 [04] (123)
A929  7B                 [05] (123)
A92A  04                 [06] (124)
A92B  00                 [07] (125)
A92C  00                 [08] (125)
A92D  7B                 [09] (125)
A92E  04                 [10] (125)
A92F  00                 [11] (126)
A930  00                 [12] (127)
A931  7B                 [13] (127)
A932  04                 [14] (-128)
A933  00                 [15] (-128)
A934  00                 [16] (-127)
A935  7B                 [17] (-126)
A936  04                 [18] (-126)
A937  00                 [19] (-126)
A938  00                 [20] (-125)
A939  7C                 [21] (-125)
A93A  04                 [22] (-124)
A93B  00                 [23] (-123)
A93C  00                 [24] (-123)
A93D  7D                 [25] (-121)
A93E  04                 [26] (-121)
A93F  00                 [27] (-121)
A940  00                 [28] (-121)
A941  7D                 [29] (-121)
A942  04                 [30] (-121)
A943  00                 [31] (-121)
A944  00                 [32] (-121)
A945  7D                 [33] (-120)
A946  04                 [34] (-120)
A947  00                 [35] (-120)
A948  00                 [36] (-120)
A949  7D                 [37] (-120)
A94A  04                 [38] (-120)
A94B  00                 [39] (-120)
A94C  00                 [40] (-120)
A94D  7E                 [41] (125)
A94E  04                 [42] (-118)
A94F  00                 [43] (-118)
A950  00                 [44] (-118)
A951  7F                 [45] (-118)
A952  04                 [46] (-118)
A953  00                 [47] (-118)
A954  00                 [48] (-118)
A955  7F                 [49] (-118)
A956  04                 [50] (-118)
A957  00                 [51] (-117)
                         * locals:
A9F1  00                 sizelocvars (0)
                         * upvalues:
A9F2  00                 sizeupvalues (0)
                         ** end of function **

                         
A9F3                     ** function [34] definition (level 2)
                         ** start of function **
A9F3  00                 string size (0)
                         source name: (none)
A9F5  09                 line defined (1165)
A9F6  8E                 last line defined (1166)
A9F7  09                 nups (0)
A9F8  00                 numparams (0)
A9F9  00                 is_vararg (0)
A9FA  00                 maxstacksize (2)
                         * code:
A9FC  01                 sizecode (1)
A9FD  1E008000           [1] return     0   1      
                         * constants:
AA01  00                 sizek (0)
                         * functions:
AA02  00                 sizep (0)
                         * lines:
AA03  01                 sizelineinfo (1)
                         [pc] (line)
AA04  8E                 [1] (-114)
                         * locals:
AA08  00                 sizelocvars (0)
                         * upvalues:
AA09  00                 sizeupvalues (0)
                         ** end of function **

                         
AA0A                     ** function [35] definition (level 2)
                         ** start of function **
AA0A  00                 string size (0)
                         source name: (none)
AA0C  09                 line defined (1168)
AA0D  95                 last line defined (1173)
AA0E  09                 nups (2)
AA0F  02                 numparams (2)
AA10  02                 is_vararg (0)
AA11  00                 maxstacksize (4)
                         * code:
AA13  09                 sizecode (9)
AA14  9D000000           [1] getglobal  2   0        ; _T
AA18  8C80C080           [2] settable   2   257 258  ; "LoadoutSaveRequired" 0
AA1C  93000000           [3] getupval   2   0      
AA20  8EC04001           [4] gettable   2   2   259  ; 2122082048
AA24  D9000100           [5] loadk      3   4        ; "OnUpdateSessionSettings"
AA28  A2400001           [6] call       2   2   1  
AA2C  93008000           [7] getupval   2   1      
AA30  A2408000           [8] call       2   1   1  
AA34  1E008000           [9] return     0   1      
                         * constants:
AA38  05                 sizek (5)
AA39  04                 const type 4
AA3A  03                 string size (3)
AA3B  5F5400             "_T\0"
                         const [0]: "_T"
AA3E  04                 const type 4
AA3F  14                 string size (20)
AA40  4C6F61646F757453+  "LoadoutS"
AA48  6176655265717569+  "aveRequi"
AA50  72656400           "red\0"
                         const [1]: "LoadoutSaveRequired"
AA54  01                 const type 3
AA55  00000000           const [2]: (0)
AA59  01                 const type 3
AA5A  00677C7E           const [3]: (2122082048)
AA5E  04                 const type 4
AA5F  18                 string size (24)
AA60  4F6E557064617465+  "OnUpdate"
AA68  53657373696F6E53+  "SessionS"
AA70  657474696E677300   "ettings\0"
                         const [4]: "OnUpdateSessionSettings"
                         * functions:
AA78  00                 sizep (0)
                         * lines:
AA79  09                 sizelineinfo (9)
                         [pc] (line)
AA7A  91                 [1] (-111)
AA7B  04                 [2] (-111)
AA7C  00                 [3] (-110)
AA7D  00                 [4] (-110)
AA7E  91                 [5] (-110)
AA7F  04                 [6] (-110)
AA80  00                 [7] (-108)
AA81  00                 [8] (-108)
AA82  92                 [9] (-107)
                         * locals:
AA9E  00                 sizelocvars (0)
                         * upvalues:
AA9F  00                 sizeupvalues (0)
                         ** end of function **

                         
AAA0                     ** function [36] definition (level 2)
                         ** start of function **
AAA0  00                 string size (0)
                         source name: (none)
AAA2  09                 line defined (1175)
AAA3  A3                 last line defined (1187)
AAA4  09                 nups (1)
AAA5  01                 numparams (0)
AAA6  00                 is_vararg (0)
AAA7  00                 maxstacksize (12)
                         * code:
AAA9  2F                 sizecode (47)
AAAA  1D000000           [01] getglobal  0   0        ; 1074689893
AAAE  5D400000           [02] getglobal  1   1        ; _T
AAB2  4E80C000           [03] gettable   1   1   258  ; "loadoutInProgress"
AAB6  22800001           [04] call       0   2   2  
AABA  18000000           [05] test       0       0    ; to [7] if true
AABE  1A400580           [06] jmp        22           ; to [29]
AAC2  13000000           [07] getupval   0   0      
AAC6  24C04000           [08] self       0   0   259  ; 1865287165
AACA  22800001           [09] call       0   2   2  
AACE  5D400000           [10] getglobal  1   1        ; _T
AAD2  8B000000           [11] newtable   2   0   0    ; array=0, hash=0
AAD6  4C800081           [12] settable   1   258 2    ; "loadoutInProgress"
AADA  59000100           [13] loadk      1   4        ; 0
AADE  9D400100           [14] getglobal  2   5        ; Lotus_Game
AAE2  8E804101           [15] gettable   2   2   262  ; "MAX_LoadOutType"
AAE6  8DC04101           [16] sub        2   2   263  ; 0
AAEA  D9C00100           [17] loadk      3   7        ; 0
AAEE  50000280           [18] forprep    1   9        ; to [28]
AAF2  5D410000           [19] getglobal  5   1        ; _T
AAF6  4E81C002           [20] gettable   5   5   258  ; "loadoutInProgress"
AAFA  A4014200           [21] self       6   0   264  ; 1516752192
AAFE  12020002           [22] move       8   4      
AB02  64424200           [23] self       9   0   265  ; 1094587633
AB06  D2020002           [24] move       11  4      
AB0A  62028001           [25] call       9   3   0  
AB0E  A2810000           [26] call       6   0   2  
AB12  4C810102           [27] settable   5   4   6  
AB16  5440FD7F           [28] forloop    1   -10      ; to [19] if loop
AB1A  53010000           [29] getupval   5   0      
AB1E  64C1C002           [30] self       5   5   259  ; 1865287165
AB22  62810001           [31] call       5   2   2  
AB26  6481C202           [32] self       5   5   266  ; 1851169770
AB2A  DD410100           [33] getglobal  7   5        ; Lotus_Game
AB2E  CEC1C203           [34] gettable   7   7   267  ; "LOT_NORMAL"
AB32  1D420000           [35] getglobal  8   1        ; _T
AB36  0E824004           [36] gettable   8   8   258  ; "loadoutInProgress"
AB3A  5D420100           [37] getglobal  9   5        ; Lotus_Game
AB3E  4EC2C204           [38] gettable   9   9   267  ; "LOT_NORMAL"
AB42  0E420204           [39] gettable   8   8   9  
AB46  62410002           [40] call       5   4   1  
AB4A  53010000           [41] getupval   5   0      
AB4E  6401C302           [42] self       5   5   268  ; -2092150459
AB52  D9410300           [43] loadk      7   13       ; "OnSaveLoadOutComplete"
AB56  62418001           [44] call       5   3   1  
AB5A  5D410000           [45] getglobal  5   1        ; _T
AB5E  4C814381           [46] settable   5   258 270  ; "loadoutInProgress" nil
AB62  1E008000           [47] return     0   1      
                         * constants:
AB66  0F                 sizek (15)
AB67  01                 const type 3
AB68  65770E40           const [0]: (1074689893)
AB6C  04                 const type 4
AB6D  03                 string size (3)
AB6E  5F5400             "_T\0"
                         const [1]: "_T"
AB71  04                 const type 4
AB72  12                 string size (18)
AB73  6C6F61646F757449+  "loadoutI"
AB7B  6E50726F67726573+  "nProgres"
AB83  7300               "s\0"
                         const [2]: "loadoutInProgress"
AB85  01                 const type 3
AB86  FD052E6F           const [3]: (1865287165)
AB8A  03                 const type 3
AB8B  00000000           const [4]: (0)
AB8F  04                 const type 4
AB90  0B                 string size (11)
AB91  4C6F7475735F4761+  "Lotus_Ga"
AB99  6D6500             "me\0"
                         const [5]: "Lotus_Game"
AB9C  04                 const type 4
AB9D  10                 string size (16)
AB9E  4D41585F4C6F6164+  "MAX_Load"
ABA6  4F75745479706500   "OutType\0"
                         const [6]: "MAX_LoadOutType"
ABAE  03                 const type 3
ABAF  0000803F           const [7]: (0)
ABB3  01                 const type 3
ABB4  40CD675A           const [8]: (1516752192)
ABB8  01                 const type 3
ABB9  F1143E41           const [9]: (1094587633)
ABBD  01                 const type 3
ABBE  EA9B566E           const [10]: (1851169770)
ABC2  04                 const type 4
ABC3  0B                 string size (11)
ABC4  4C4F545F4E4F524D+  "LOT_NORM"
ABCC  414C00             "AL\0"
                         const [11]: "LOT_NORMAL"
ABCF  01                 const type 3
ABD0  45514C83           const [12]: (-2092150459)
ABD4  04                 const type 4
ABD5  16                 string size (22)
ABD6  4F6E536176654C6F+  "OnSaveLo"
ABDE  61644F7574436F6D+  "adOutCom"
ABE6  706C65746500       "plete\0"
                         const [13]: "OnSaveLoadOutComplete"
ABEC  00                 const type 0
                         const [14]: nil
                         * functions:
ABED  00                 sizep (0)
                         * lines:
ABEE  2F                 sizelineinfo (47)
                         [pc] (line)
ABEF  98                 [01] (-104)
ABF0  04                 [02] (-104)
ABF1  00                 [03] (-104)
ABF2  00                 [04] (-104)
ABF3  98                 [05] (-104)
ABF4  04                 [06] (-104)
ABF5  00                 [07] (-103)
ABF6  00                 [08] (-103)
ABF7  98                 [09] (-103)
ABF8  04                 [10] (-102)
ABF9  00                 [11] (-102)
ABFA  00                 [12] (-102)
ABFB  98                 [13] (-101)
ABFC  04                 [14] (-101)
ABFD  00                 [15] (-101)
ABFE  00                 [16] (-101)
ABFF  98                 [17] (-101)
AC00  04                 [18] (-101)
AC01  00                 [19] (-100)
AC02  00                 [20] (-100)
AC03  98                 [21] (-100)
AC04  04                 [22] (-100)
AC05  00                 [23] (-100)
AC06  00                 [24] (-100)
AC07  99                 [25] (-100)
AC08  04                 [26] (-100)
AC09  00                 [27] (-100)
AC0A  00                 [28] (-101)
AC0B  99                 [29] (-97)
AC0C  04                 [30] (-97)
AC0D  00                 [31] (-97)
AC0E  00                 [32] (-97)
AC0F  99                 [33] (-97)
AC10  04                 [34] (-97)
AC11  00                 [35] (-97)
AC12  00                 [36] (-97)
AC13  9A                 [37] (-97)
AC14  04                 [38] (-97)
AC15  00                 [39] (-97)
AC16  00                 [40] (-97)
AC17  9A                 [41] (-96)
AC18  04                 [42] (-96)
AC19  00                 [43] (-96)
AC1A  00                 [44] (-96)
AC1B  9A                 [45] (-94)
AC1C  04                 [46] (-94)
AC1D  00                 [47] (-93)
                         * locals:
ACAB  00                 sizelocvars (0)
                         * upvalues:
ACAC  00                 sizeupvalues (0)
                         ** end of function **

                         
ACAD                     ** function [37] definition (level 2)
                         ** start of function **
ACAD  00                 string size (0)
                         source name: (none)
ACAF  09                 line defined (1189)
ACB0  B2                 last line defined (1202)
ACB1  09                 nups (6)
ACB2  06                 numparams (1)
ACB3  01                 is_vararg (0)
ACB4  00                 maxstacksize (11)
                         * code:
ACB6  3C                 sizecode (60)
ACB7  53000000           [01] getupval   1   0      
ACBB  6400C000           [02] self       1   1   256  ; -1917464545
ACBF  62800001           [03] call       1   2   2  
ACC3  6440C000           [04] self       1   1   257  ; 1769516121
ACC7  62800001           [05] call       1   2   2  
ACCB  6480C000           [06] self       1   1   258  ; 735743254
ACCF  62000101           [07] call       1   2   4  
ACD3  13018000           [08] getupval   4   1      
ACD7  0EC14002           [09] gettable   4   4   259  ; "Unused"
fail op	35
ACDB  23400002           [10] close      0  
ACDF  1AC00180           [11] jmp        8            ; to [20]
ACE3  13018000           [12] getupval   4   1      
ACE7  0E014102           [13] gettable   4   4   260  ; "DamagedTotal"
fail op	35
ACEB  23800002           [14] close      0  
ACEF  1AC00080           [15] jmp        4            ; to [20]
ACF3  13018000           [16] getupval   4   1      
ACF7  0E414102           [17] gettable   4   4   261  ; "Total"
fail op	35
ACFB  63C00002           [18] close      1  
ACFF  1AC00980           [19] jmp        40           ; to [60]
AD03  13018000           [20] getupval   4   1      
AD07  0C418081           [21] settable   4   259 1    ; "Unused"
AD0B  13018000           [22] getupval   4   1      
AD0F  0C810082           [23] settable   4   260 2    ; "DamagedTotal"
AD13  13018000           [24] getupval   4   1      
AD17  0CC18082           [25] settable   4   261 3    ; "Total"
AD1B  13010001           [26] getupval   4   2      
AD1F  59810100           [27] loadk      5   6        ; "SystemStage.Bar."
AD23  93018001           [28] getupval   6   3      
AD27  DCC18000           [29] div        7   1   3  
AD2B  12020000           [30] move       8   0      
AD2F  22418002           [31] call       4   5   1  
AD33  13010001           [32] getupval   4   2      
AD37  59C10100           [33] loadk      5   7        ; "SystemStage.Bar.Damage"
AD3B  93018001           [34] getupval   6   3      
AD3F  CD818001           [35] sub        7   3   2  
AD43  DCC18003           [36] div        7   7   3  
fail op	0
AD47  C0018003           [37] move       7   7      
AD4B  12020000           [38] move       8   0      
AD4F  22418002           [39] call       4   5   1  
AD53  13010002           [40] getupval   4   4      
AD57  0E014202           [41] gettable   4   4   264  ; 2115597333
AD5B  52018000           [42] move       5   1      
AD5F  22810001           [43] call       4   2   2  
AD63  5D410200           [44] getglobal  5   9        ; mMovie
AD67  6481C202           [45] self       5   5   266  ; 98241492
AD6B  D9C10200           [46] loadk      7   11       ; "<DT_ELECTRICITY>"
AD6F  17028000           [47] loadbool   8   1   0    ; true
AD73  62810002           [48] call       5   4   2  
AD77  99010300           [49] loadk      6   12       ; " "
AD7B  DD410200           [50] getglobal  7   9        ; mMovie
AD7F  E481C203           [51] self       7   7   266  ; 98241492
AD83  59420300           [52] loadk      9   13       ; "/Game/AVATAR_ABILITY"
AD87  97020000           [53] loadbool   10  0   0    ; false
AD8B  E2810002           [54] call       7   4   2  
AD8F  02C10102           [55] concat     4   4   7  
AD93  53018002           [56] getupval   5   5      
AD97  99810300           [57] loadk      6   14       ; "SystemStage.SystemsText"
AD9B  D2010002           [58] move       7   4      
AD9F  62418001           [59] call       5   3   1  
ADA3  1E008000           [60] return     0   1      
                         * constants:
ADA7  0F                 sizek (15)
ADA8  01                 const type 3
ADA9  1FD0B58D           const [0]: (-1917464545)
ADAD  01                 const type 3
ADAE  59AC7869           const [1]: (1769516121)
ADB2  01                 const type 3
ADB3  168DDA2B           const [2]: (735743254)
ADB7  04                 const type 4
ADB8  07                 string size (7)
ADB9  556E7573656400     "Unused\0"
                         const [3]: "Unused"
ADC0  04                 const type 4
ADC1  0D                 string size (13)
ADC2  44616D6167656454+  "DamagedT"
ADCA  6F74616C00         "otal\0"
                         const [4]: "DamagedTotal"
ADCF  04                 const type 4
ADD0  06                 string size (6)
ADD1  546F74616C00       "Total\0"
                         const [5]: "Total"
ADD7  04                 const type 4
ADD8  11                 string size (17)
ADD9  53797374656D5374+  "SystemSt"
ADE1  6167652E4261722E+  "age.Bar."
ADE9  00                 "\0"
                         const [6]: "SystemStage.Bar."
ADEA  04                 const type 4
ADEB  17                 string size (23)
ADEC  53797374656D5374+  "SystemSt"
ADF4  6167652E4261722E+  "age.Bar."
ADFC  44616D61676500     "Damage\0"
                         const [7]: "SystemStage.Bar.Damage"
AE03  01                 const type 3
AE04  1574197E           const [8]: (2115597333)
AE08  04                 const type 4
AE09  07                 string size (7)
AE0A  6D4D6F76696500     "mMovie\0"
                         const [9]: "mMovie"
AE11  01                 const type 3
AE12  D40BDB05           const [10]: (98241492)
AE16  04                 const type 4
AE17  11                 string size (17)
AE18  3C44545F454C4543+  "<DT_ELEC"
AE20  545249434954593E+  "TRICITY>"
AE28  00                 "\0"
                         const [11]: "<DT_ELECTRICITY>"
AE29  04                 const type 4
AE2A  02                 string size (2)
AE2B  2000               " \0"
                         const [12]: " "
AE2D  04                 const type 4
AE2E  15                 string size (21)
AE2F  2F47616D652F4156+  "/Game/AV"
AE37  415441525F414249+  "ATAR_ABI"
AE3F  4C49545900         "LITY\0"
                         const [13]: "/Game/AVATAR_ABILITY"
AE44  04                 const type 4
AE45  18                 string size (24)
AE46  53797374656D5374+  "SystemSt"
AE4E  6167652E53797374+  "age.Syst"
AE56  656D735465787400   "emsText\0"
                         const [14]: "SystemStage.SystemsText"
                         * functions:
AE5E  00                 sizep (0)
                         * lines:
AE5F  3C                 sizelineinfo (60)
                         [pc] (line)
AE60  A6                 [01] (-90)
AE61  04                 [02] (-90)
AE62  00                 [03] (-90)
AE63  00                 [04] (-90)
AE64  A6                 [05] (-90)
AE65  04                 [06] (-90)
AE66  00                 [07] (-90)
AE67  00                 [08] (-89)
AE68  A6                 [09] (-89)
AE69  04                 [10] (-89)
AE6A  00                 [11] (-89)
AE6B  00                 [12] (-89)
AE6C  A6                 [13] (-89)
AE6D  04                 [14] (-89)
AE6E  00                 [15] (-89)
AE6F  00                 [16] (-89)
AE70  A6                 [17] (-89)
AE71  04                 [18] (-89)
AE72  00                 [19] (-89)
AE73  00                 [20] (-88)
AE74  A6                 [21] (-88)
AE75  04                 [22] (-87)
AE76  00                 [23] (-87)
AE77  00                 [24] (-86)
AE78  A6                 [25] (-86)
AE79  04                 [26] (-84)
AE7A  00                 [27] (-84)
AE7B  00                 [28] (-84)
AE7C  A7                 [29] (-84)
AE7D  04                 [30] (-84)
AE7E  00                 [31] (-84)
AE7F  00                 [32] (-83)
AE80  A7                 [33] (-83)
AE81  04                 [34] (-83)
AE82  00                 [35] (-83)
AE83  00                 [36] (-83)
AE84  A7                 [37] (-83)
AE85  04                 [38] (-83)
AE86  00                 [39] (-83)
AE87  00                 [40] (-81)
AE88  A7                 [41] (-81)
AE89  04                 [42] (-81)
AE8A  00                 [43] (-81)
AE8B  00                 [44] (-81)
AE8C  A7                 [45] (-81)
AE8D  04                 [46] (-81)
AE8E  00                 [47] (-81)
AE8F  00                 [48] (-81)
AE90  A7                 [49] (-81)
AE91  04                 [50] (-81)
AE92  00                 [51] (-81)
AE93  00                 [52] (-81)
AE94  A7                 [53] (-81)
AE95  04                 [54] (-81)
AE96  00                 [55] (-81)
AE97  00                 [56] (-80)
AE98  A7                 [57] (-80)
AE99  04                 [58] (-80)
AE9A  00                 [59] (-80)
AE9B  00                 [60] (-78)
                         * locals:
AF50  00                 sizelocvars (0)
                         * upvalues:
AF51  00                 sizeupvalues (0)
                         ** end of function **

                         
AF52                     ** function [38] definition (level 2)
                         ** start of function **
AF52  00                 string size (0)
                         source name: (none)
AF54  09                 line defined (1204)
AF55  D2                 last line defined (1234)
AF56  09                 nups (4)
AF57  04                 numparams (2)
AF58  02                 is_vararg (0)
AF59  00                 maxstacksize (10)
                         * code:
AF5B  29                 sizecode (41)
AF5C  9D000000           [01] getglobal  2   0        ; 1074689893
AF60  D2000000           [02] move       3   0      
AF64  A2800001           [03] call       2   2   2  
AF68  98000000           [04] test       2       0    ; to [6] if true
AF6C  1A000080           [05] jmp        1            ; to [7]
AF70  1E008000           [06] return     0   1      
AF74  8B000000           [07] newtable   2   0   0    ; array=0, hash=0
AF78  D3000000           [08] getupval   3   0      
AF7C  E440C001           [09] self       3   3   257  ; -1658822453
AF80  65010000           [10] closure    5   0      
AF84  12000001           [11] move       0   2      
AF88  13008000           [12] getupval   0   1      
AF8C  E2408001           [13] call       3   3   1  
AF90  D3000001           [14] getupval   3   2      
AF94  E480C001           [15] self       3   3   258  ; 1865287165
AF98  E2800001           [16] call       3   2   2  
AF9C  24C1C001           [17] self       4   3   259  ; 82716918
AFA0  93018001           [18] getupval   6   3      
AFA4  8E014103           [19] gettable   6   6   260  ; "info"
AFA8  8E414103           [20] gettable   6   6   261  ; "mItemId"
AFAC  8E814103           [21] gettable   6   6   262  ; "mId"
AFB0  D2018000           [22] move       7   1      
AFB4  17020000           [23] loadbool   8   0   0    ; false
AFB8  52020001           [24] move       9   2      
AFBC  22410003           [25] call       4   6   1  
AFC0  13010001           [26] getupval   4   2      
AFC4  24C14102           [27] self       4   4   263  ; -1047951754
AFC8  22410001           [28] call       4   2   1  
AFCC  13010001           [29] getupval   4   2      
AFD0  24014202           [30] self       4   4   264  ; 51109503
AFD4  22810001           [31] call       4   2   2  
AFD8  64414200           [32] self       5   0   265  ; -1917464545
AFDC  62810001           [33] call       5   2   2  
AFE0  6481C202           [34] self       5   5   266  ; 1769516121
AFE4  62810001           [35] call       5   2   2  
AFE8  64C1C202           [36] self       5   5   267  ; 351927371
AFEC  CE014302           [37] gettable   7   4   268  ; "mCrewShipLoadOut"
AFF0  62418001           [38] call       5   3   1  
AFF4  5D410300           [39] getglobal  5   13       ; _T
AFF8  4CC14387           [40] settable   5   270 271  ; "LoadoutSaveRequired" 1
AFFC  1E008000           [41] return     0   1      
                         * constants:
B000  10                 sizek (16)
B001  01                 const type 3
B002  65770E40           const [0]: (1074689893)
B006  01                 const type 3
B007  CB60209D           const [1]: (-1658822453)
B00B  01                 const type 3
B00C  FD052E6F           const [2]: (1865287165)
B010  01                 const type 3
B011  F628EE04           const [3]: (82716918)
B015  04                 const type 4
B016  05                 string size (5)
B017  696E666F00         "info\0"
                         const [4]: "info"
B01C  04                 const type 4
B01D  08                 string size (8)
B01E  6D4974656D496400   "mItemId\0"
                         const [5]: "mItemId"
B026  04                 const type 4
B027  04                 string size (4)
B028  6D496400           "mId\0"
                         const [6]: "mId"
B02C  01                 const type 3
B02D  768689C1           const [7]: (-1047951754)
B031  01                 const type 3
B032  7FDE0B03           const [8]: (51109503)
B036  01                 const type 3
B037  1FD0B58D           const [9]: (-1917464545)
B03B  01                 const type 3
B03C  59AC7869           const [10]: (1769516121)
B040  01                 const type 3
B041  4BFCF914           const [11]: (351927371)
B045  04                 const type 4
B046  11                 string size (17)
B047  6D43726577536869+  "mCrewShi"
B04F  704C6F61644F7574+  "pLoadOut"
B057  00                 "\0"
                         const [12]: "mCrewShipLoadOut"
B058  04                 const type 4
B059  03                 string size (3)
B05A  5F5400             "_T\0"
                         const [13]: "_T"
B05D  04                 const type 4
B05E  14                 string size (20)
B05F  4C6F61646F757453+  "LoadoutS"
B067  6176655265717569+  "aveRequi"
B06F  72656400           "red\0"
                         const [14]: "LoadoutSaveRequired"
B073  01                 const type 3
B074  01000000           const [15]: (1)
                         * functions:
B078  01                 sizep (1)
                         
B079                     ** function [0] definition (level 3)
                         ** start of function **
B079  00                 string size (0)
                         source name: (none)
B07B  09                 line defined (1211)
B07C  C7                 last line defined (1223)
B07D  09                 nups (2)
B07E  02                 numparams (1)
B07F  01                 is_vararg (0)
B080  00                 maxstacksize (6)
                         * code:
B082  1D                 sizecode (29)
B083  5D000000           [01] getglobal  1   0        ; Lotus_Game
B087  4E40C000           [02] gettable   1   1   257  ; 670730051
B08B  62808000           [03] call       1   1   2  
B08F  8E804000           [04] gettable   2   0   258  ; "mMod"
fail op	35
B093  63C04001           [05] close      1  
B097  1A000480           [06] jmp        17           ; to [24]
B09B  9D000100           [07] getglobal  2   4        ; 1074689893
B09F  CE804000           [08] gettable   3   0   258  ; "mMod"
B0A3  CE40C101           [09] gettable   3   3   261  ; "mUpgrade"
B0A7  A2800001           [10] call       2   2   2  
B0AB  98400000           [11] test       2       1    ; to [13] if false
B0AF  1A800280           [12] jmp        11           ; to [24]
B0B3  8E804000           [13] gettable   2   0   258  ; "mMod"
B0B7  8E404101           [14] gettable   2   2   261  ; "mUpgrade"
B0BB  CE804101           [15] gettable   3   2   262  ; "mItemId"
B0BF  CEC0C101           [16] gettable   3   3   263  ; "mId"
fail op	35
B0C3  6300C201           [17] close      1  
B0C7  1A800080           [18] jmp        3            ; to [22]
B0CB  CE804101           [19] gettable   3   2   262  ; "mItemId"
B0CF  4CC08083           [20] settable   1   263 3    ; "mId"
B0D3  1A400080           [21] jmp        2            ; to [24]
B0D7  CE804201           [22] gettable   3   2   266  ; "mItemType"
B0DB  4CC08084           [23] settable   1   265 3    ; "mType"
B0DF  D3000000           [24] getupval   3   0      
B0E3  13018000           [25] getupval   4   1      
B0E7  4EC14200           [26] gettable   5   0   267  ; "Id"
B0EB  0E410102           [27] gettable   4   4   5  
B0EF  CC400002           [28] settable   3   4   1  
B0F3  1E008000           [29] return     0   1      
                         * constants:
B0F7  0C                 sizek (12)
B0F8  04                 const type 4
B0F9  0B                 string size (11)
B0FA  4C6F7475735F4761+  "Lotus_Ga"
B102  6D6500             "me\0"
                         const [0]: "Lotus_Game"
B105  01                 const type 3
B106  4387FA27           const [1]: (670730051)
B10A  04                 const type 4
B10B  05                 string size (5)
B10C  6D4D6F6400         "mMod\0"
                         const [2]: "mMod"
B111  00                 const type 0
                         const [3]: nil
B112  01                 const type 3
B113  65770E40           const [4]: (1074689893)
B117  04                 const type 4
B118  09                 string size (9)
B119  6D55706772616465+  "mUpgrade"
B121  00                 "\0"
                         const [5]: "mUpgrade"
B122  04                 const type 4
B123  08                 string size (8)
B124  6D4974656D496400   "mItemId\0"
                         const [6]: "mItemId"
B12C  04                 const type 4
B12D  04                 string size (4)
B12E  6D496400           "mId\0"
                         const [7]: "mId"
B132  04                 const type 4
B133  01                 string size (0)
                         const [8]: ""
B135  04                 const type 4
B136  06                 string size (6)
B137  6D5479706500       "mType\0"
                         const [9]: "mType"
B13D  04                 const type 4
B13E  0A                 string size (10)
B13F  6D4974656D547970+  "mItemTyp"
B147  6500               "e\0"
                         const [10]: "mItemType"
B149  04                 const type 4
B14A  03                 string size (3)
B14B  496400             "Id\0"
                         const [11]: "Id"
                         * functions:
B14E  00                 sizep (0)
                         * lines:
B14F  1D                 sizelineinfo (29)
                         [pc] (line)
B150  BC                 [01] (-68)
B151  04                 [02] (-68)
B152  00                 [03] (-68)
B153  00                 [04] (-67)
B154  BC                 [05] (-67)
B155  04                 [06] (-67)
B156  00                 [07] (-67)
B157  00                 [08] (-67)
B158  BC                 [09] (-67)
B159  04                 [10] (-67)
B15A  00                 [11] (-67)
B15B  00                 [12] (-67)
B15C  BD                 [13] (-66)
B15D  04                 [14] (-66)
B15E  00                 [15] (-65)
B15F  00                 [16] (-65)
B160  BD                 [17] (-65)
B161  04                 [18] (-65)
B162  00                 [19] (-64)
B163  00                 [20] (-64)
B164  BD                 [21] (-64)
B165  04                 [22] (-62)
B166  00                 [23] (-62)
B167  00                 [24] (-58)
B168  BD                 [25] (-58)
B169  04                 [26] (-58)
B16A  00                 [27] (-58)
B16B  00                 [28] (-58)
B16C  BD                 [29] (-57)
                         * locals:
B1C4  00                 sizelocvars (0)
                         * upvalues:
B1C5  00                 sizeupvalues (0)
                         ** end of function **

                         * lines:
B1C6  29                 sizelineinfo (41)
                         [pc] (line)
B1C7  B5                 [01] (-75)
B1C8  04                 [02] (-75)
B1C9  00                 [03] (-75)
B1CA  00                 [04] (-75)
B1CB  B5                 [05] (-75)
B1CC  04                 [06] (-74)
B1CD  00                 [07] (-71)
B1CE  00                 [08] (-70)
B1CF  B5                 [09] (-70)
B1D0  04                 [10] (-57)
B1D1  00                 [11] (-57)
B1D2  00                 [12] (-57)
B1D3  B5                 [13] (-70)
B1D4  04                 [14] (-55)
B1D5  00                 [15] (-55)
B1D6  00                 [16] (-55)
B1D7  B5                 [17] (-54)
B1D8  04                 [18] (-54)
B1D9  00                 [19] (-54)
B1DA  00                 [20] (-54)
B1DB  B6                 [21] (-54)
B1DC  04                 [22] (-54)
B1DD  00                 [23] (-54)
B1DE  00                 [24] (-54)
B1DF  B9                 [25] (-54)
B1E0  04                 [26] (-52)
B1E1  00                 [27] (-52)
B1E2  00                 [28] (-52)
B1E3  BA                 [29] (-50)
B1E4  04                 [30] (-50)
B1E5  00                 [31] (-50)
B1E6  00                 [32] (-49)
B1E7  BA                 [33] (-49)
B1E8  04                 [34] (-49)
B1E9  00                 [35] (-49)
B1EA  00                 [36] (-49)
B1EB  C7                 [37] (-49)
B1EC  04                 [38] (-49)
B1ED  00                 [39] (-47)
B1EE  00                 [40] (-47)
B1EF  C7                 [41] (-46)
                         * locals:
B26B  00                 sizelocvars (0)
                         * upvalues:
B26C  00                 sizeupvalues (0)
                         ** end of function **

                         
B26D                     ** function [39] definition (level 2)
                         ** start of function **
B26D  00                 string size (0)
                         source name: (none)
B26F  09                 line defined (1236)
B270  F9                 last line defined (1273)
B271  09                 nups (8)
B272  08                 numparams (3)
B273  03                 is_vararg (0)
B274  00                 maxstacksize (16)
                         * code:
B276  58                 sizecode (88)
B277  D3000000           [01] getupval   3   0      
B27B  E400C001           [02] self       3   3   256  ; -681678822
B27F  52010000           [03] move       5   0      
B283  E2808001           [04] call       3   3   2  
B287  1D410000           [05] getglobal  4   1        ; 1074689893
B28B  52018001           [06] move       5   3      
B28F  22810001           [07] call       4   2   2  
B293  18410000           [08] test       4       1    ; to [10] if false
B297  1A800E80           [09] jmp        59           ; to [69]
fail op	35
B29B  2380C000           [10] close      0  
B29F  1A400180           [11] jmp        6            ; to [18]
B2A3  0EC1C001           [12] gettable   4   3   259  ; "mMod"
fail op	35
B2A7  63804002           [13] close      1  
B2AB  1A800080           [14] jmp        3            ; to [18]
B2AF  0EC1C001           [15] gettable   4   3   259  ; "mMod"
B2B3  4B010000           [16] newtable   5   0   0    ; array=0, hash=0
B2B7  0C410182           [17] settable   4   260 5    ; "mInstalled"
B2BB  CC408081           [18] settable   3   259 1    ; "mMod"
B2BF  0EC1C001           [19] gettable   4   3   259  ; "mMod"
B2C3  18010000           [20] test       4       0    ; to [22] if true
B2C7  1A000A80           [21] jmp        41           ; to [63]
B2CB  1D410000           [22] getglobal  4   1        ; 1074689893
B2CF  4EC1C001           [23] gettable   5   3   259  ; "mMod"
B2D3  4E41C102           [24] gettable   5   5   261  ; "mUpgrade"
B2D7  22810001           [25] call       4   2   2  
B2DB  18410000           [26] test       4       1    ; to [28] if false
B2DF  1A800880           [27] jmp        35           ; to [63]
B2E3  0EC1C001           [28] gettable   4   3   259  ; "mMod"
B2E7  0E414102           [29] gettable   4   4   261  ; "mUpgrade"
B2EB  0E814102           [30] gettable   4   4   262  ; "mUpgradeFingerprint"
B2EF  53018000           [31] getupval   5   1      
B2F3  4EC1C102           [32] gettable   5   5   263  ; "info"
B2F7  4E01C202           [33] gettable   5   5   264  ; "mSlotLevels"
B2FB  93010001           [34] getupval   6   2      
B2FF  8E010003           [35] gettable   6   6   0  
B303  C6018003           [36] loadnil    7   7      
B307  0A028002           [37] len        8   5      
fail op	33
B30B  21000203           [38] tforloop   0       8    ; to [40] if exit
B30F  1A400080           [39] jmp        2            ; to [42]
B313  CE818102           [40] gettable   7   5   6  
B317  1A000080           [41] jmp        1            ; to [43]
B31B  D9410200           [42] loadk      7   9        ; 0
B31F  0EC2C001           [43] gettable   8   3   259  ; "mMod"
B323  0E424104           [44] gettable   8   8   261  ; "mUpgrade"
B327  0E824204           [45] gettable   8   8   266  ; "mInstance"
B32B  24C24204           [46] self       8   8   267  ; 1611864383
B32F  92028003           [47] move       10  7      
B333  D2020002           [48] move       11  4      
B337  22820002           [49] call       8   4   2  
B33B  4EC2C001           [50] gettable   9   3   259  ; "mMod"
B33F  4C424386           [51] settable   9   268 269  ; "mDesc" ""
B343  4EC2C001           [52] gettable   9   3   259  ; "mMod"
B347  4E42C104           [53] gettable   9   9   261  ; "mUpgrade"
B34B  4E82C204           [54] gettable   9   9   266  ; "mInstance"
B34F  6482C304           [55] self       9   9   270  ; 394432583
B353  D2020004           [56] move       11  8      
B357  62828001           [57] call       9   3   2  
B35B  93028001           [58] getupval   10  3      
B35F  8EC24305           [59] gettable   10  10  271  ; 1289263837
B363  CEC2C001           [60] gettable   11  3   259  ; "mMod"
B367  12038004           [61] move       12  9      
B36B  A2428001           [62] call       10  3   1  
B36F  98400000           [63] test       2       1    ; to [65] if false
B373  1AC00080           [64] jmp        4            ; to [69]
B377  93020000           [65] getupval   10  0      
B37B  8E024405           [66] gettable   10  10  272  ; -1552746934
B37F  D2028001           [67] move       11  3      
B383  A2420001           [68] call       10  2   1  
B387  98400000           [69] test       2       1    ; to [71] if false
B38B  1A000480           [70] jmp        17           ; to [88]
B38F  93020002           [71] getupval   10  4      
B393  D3028002           [72] getupval   11  5      
B397  13030003           [73] getupval   12  6      
B39B  A2428001           [74] call       10  3   1  
fail op	35
B39F  6380C000           [75] close      1  
B3A3  1A800280           [76] jmp        11           ; to [88]
B3A7  93028001           [77] getupval   10  3      
B3AB  8E424405           [78] gettable   10  10  273  ; -1793854406
B3AF  D3028003           [79] getupval   11  7      
B3B3  E482C405           [80] self       11  11  274  ; 1865287165
B3B7  E2820001           [81] call       11  2   2  
B3BB  13038000           [82] getupval   12  1      
B3BF  0EC34106           [83] gettable   12  12  263  ; "info"
B3C3  52038000           [84] move       13  1      
B3C7  99430200           [85] loadk      14  9        ; 0
B3CB  D7030000           [86] loadbool   15  0   0    ; false
B3CF  A2420003           [87] call       10  6   1  
B3D3  1E008000           [88] return     0   1      
                         * constants:
B3D7  13                 sizek (19)
B3D8  01                 const type 3
B3D9  1A685ED7           const [0]: (-681678822)
B3DD  01                 const type 3
B3DE  65770E40           const [1]: (1074689893)
B3E2  00                 const type 0
                         const [2]: nil
B3E3  04                 const type 4
B3E4  05                 string size (5)
B3E5  6D4D6F6400         "mMod\0"
                         const [3]: "mMod"
B3EA  04                 const type 4
B3EB  0B                 string size (11)
B3EC  6D496E7374616C6C+  "mInstall"
B3F4  656400             "ed\0"
                         const [4]: "mInstalled"
B3F7  04                 const type 4
B3F8  09                 string size (9)
B3F9  6D55706772616465+  "mUpgrade"
B401  00                 "\0"
                         const [5]: "mUpgrade"
B402  04                 const type 4
B403  14                 string size (20)
B404  6D55706772616465+  "mUpgrade"
B40C  46696E6765727072+  "Fingerpr"
B414  696E7400           "int\0"
                         const [6]: "mUpgradeFingerprint"
B418  04                 const type 4
B419  05                 string size (5)
B41A  696E666F00         "info\0"
                         const [7]: "info"
B41F  04                 const type 4
B420  0C                 string size (12)
B421  6D536C6F744C6576+  "mSlotLev"
B429  656C7300           "els\0"
                         const [8]: "mSlotLevels"
B42D  03                 const type 3
B42E  00000000           const [9]: (0)
B432  04                 const type 4
B433  0A                 string size (10)
B434  6D496E7374616E63+  "mInstanc"
B43C  6500               "e\0"
                         const [10]: "mInstance"
B43E  01                 const type 3
B43F  3F191360           const [11]: (1611864383)
B443  04                 const type 4
B444  06                 string size (6)
B445  6D4465736300       "mDesc\0"
                         const [12]: "mDesc"
B44B  04                 const type 4
B44C  01                 string size (0)
                         const [13]: ""
B44E  01                 const type 3
B44F  47908217           const [14]: (394432583)
B453  01                 const type 3
B454  DD9AD84C           const [15]: (1289263837)
B458  01                 const type 3
B459  4AF672A3           const [16]: (-1552746934)
B45D  01                 const type 3
B45E  3AF41395           const [17]: (-1793854406)
B462  01                 const type 3
B463  FD052E6F           const [18]: (1865287165)
                         * functions:
B467  00                 sizep (0)
                         * lines:
B468  58                 sizelineinfo (88)
                         [pc] (line)
B469  D5                 [01] (-43)
B46A  04                 [02] (-43)
B46B  00                 [03] (-43)
B46C  00                 [04] (-43)
B46D  D5                 [05] (-42)
B46E  04                 [06] (-42)
B46F  00                 [07] (-42)
B470  00                 [08] (-42)
B471  D5                 [09] (-42)
B472  04                 [10] (-41)
B473  00                 [11] (-41)
B474  00                 [12] (-41)
B475  D5                 [13] (-41)
B476  04                 [14] (-41)
B477  00                 [15] (-40)
B478  00                 [16] (-40)
B479  D6                 [17] (-40)
B47A  04                 [18] (-38)
B47B  00                 [19] (-35)
B47C  00                 [20] (-35)
B47D  D6                 [21] (-35)
B47E  04                 [22] (-35)
B47F  00                 [23] (-35)
B480  00                 [24] (-35)
B481  D6                 [25] (-35)
B482  04                 [26] (-35)
B483  00                 [27] (-35)
B484  00                 [28] (-34)
B485  D6                 [29] (-34)
B486  04                 [30] (-34)
B487  00                 [31] (-33)
B488  00                 [32] (-33)
B489  D6                 [33] (-33)
B48A  04                 [34] (-32)
B48B  00                 [35] (-32)
B48C  00                 [36] (-31)
B48D  D7                 [37] (-30)
B48E  04                 [38] (-30)
B48F  00                 [39] (-30)
B490  00                 [40] (-29)
B491  D7                 [41] (-29)
B492  04                 [42] (-27)
B493  00                 [43] (-24)
B494  00                 [44] (-24)
B495  D7                 [45] (-24)
B496  04                 [46] (-24)
B497  00                 [47] (-24)
B498  00                 [48] (-24)
B499  D7                 [49] (-24)
B49A  04                 [50] (-23)
B49B  00                 [51] (-23)
B49C  00                 [52] (-22)
B49D  D7                 [53] (-22)
B49E  04                 [54] (-22)
B49F  00                 [55] (-22)
B4A0  00                 [56] (-22)
B4A1  D8                 [57] (-22)
B4A2  04                 [58] (-21)
B4A3  00                 [59] (-21)
B4A4  00                 [60] (-21)
B4A5  D8                 [61] (-21)
B4A6  04                 [62] (-21)
B4A7  00                 [63] (-18)
B4A8  00                 [64] (-18)
B4A9  D8                 [65] (-17)
B4AA  04                 [66] (-17)
B4AB  00                 [67] (-17)
B4AC  00                 [68] (-17)
B4AD  DA                 [69] (-13)
B4AE  04                 [70] (-13)
B4AF  00                 [71] (-12)
B4B0  00                 [72] (-12)
B4B1  DD                 [73] (-12)
B4B2  04                 [74] (-12)
B4B3  00                 [75] (-11)
B4B4  00                 [76] (-11)
B4B5  DD                 [77] (-10)
B4B6  04                 [78] (-10)
B4B7  00                 [79] (-10)
B4B8  00                 [80] (-10)
B4B9  DD                 [81] (-10)
B4BA  04                 [82] (-10)
B4BB  00                 [83] (-10)
B4BC  00                 [84] (-10)
B4BD  DD                 [85] (-10)
B4BE  04                 [86] (-10)
B4BF  00                 [87] (-10)
B4C0  00                 [88] (-7)
                         * locals:
B5C9  00                 sizelocvars (0)
                         * upvalues:
B5CA  00                 sizeupvalues (0)
                         ** end of function **

                         
B5CB                     ** function [40] definition (level 2)
                         ** start of function **
B5CB  00                 string size (0)
                         source name: (none)
B5CD  09                 line defined (1275)
B5CE  8A                 last line defined (1290)
B5CF  0A                 nups (0)
B5D0  00                 numparams (2)
B5D1  02                 is_vararg (0)
B5D2  00                 maxstacksize (4)
                         * code:
B5D4  3C                 sizecode (60)
B5D5  8E004000           [01] gettable   2   0   256  ; "mUpgradeType"
B5D9  DD400000           [02] getglobal  3   1        ; Game
B5DD  CE80C001           [03] gettable   3   3   258  ; "AVATAR_ABILITY"
fail op	35
B5E1  23C00001           [04] close      0  
B5E5  1A800580           [05] jmp        23           ; to [29]
B5E9  8E00C000           [06] gettable   2   1   256  ; "mUpgradeType"
B5ED  DD400000           [07] getglobal  3   1        ; Game
B5F1  CE80C001           [08] gettable   3   3   258  ; "AVATAR_ABILITY"
fail op	35
B5F5  23C00001           [09] close      0  
B5F9  1A400480           [10] jmp        18           ; to [29]
B5FD  8EC04000           [11] gettable   2   0   259  ; "mUpgradeValue"
B601  CEC0C000           [12] gettable   3   1   259  ; "mUpgradeValue"
fail op	35
B605  23C00001           [13] close      0  
B609  1A800180           [14] jmp        7            ; to [22]
B60D  8E004100           [15] gettable   2   0   260  ; "mDrain"
B611  CE00C100           [16] gettable   3   1   260  ; "mDrain"
fail op	21
B615  55C00001           [17] concat     1   2   3  
B619  1A000080           [18] jmp        1            ; to [20]
B61D  97400000           [19] loadbool   2   0   1    ; false, to [21]
B621  97008000           [20] loadbool   2   1   0    ; true
B625  9E000001           [21] return     2   2      
B629  8EC04000           [22] gettable   2   0   259  ; "mUpgradeValue"
B62D  CEC0C000           [23] gettable   3   1   259  ; "mUpgradeValue"
fail op	21
B631  55C00001           [24] concat     1   2   3  
B635  1A000080           [25] jmp        1            ; to [27]
B639  97400000           [26] loadbool   2   0   1    ; false, to [28]
B63D  97008000           [27] loadbool   2   1   0    ; true
B641  9E000001           [28] return     2   2      
B645  8E004000           [29] gettable   2   0   256  ; "mUpgradeType"
B649  DD400000           [30] getglobal  3   1        ; Game
B64D  CE80C001           [31] gettable   3   3   258  ; "AVATAR_ABILITY"
fail op	35
B651  23C00001           [32] close      0  
B655  1A800180           [33] jmp        7            ; to [41]
B659  8E00C000           [34] gettable   2   1   256  ; "mUpgradeType"
B65D  DD400000           [35] getglobal  3   1        ; Game
B661  CE80C001           [36] gettable   3   3   258  ; "AVATAR_ABILITY"
fail op	35
B665  63C00001           [37] close      1  
B669  1A400080           [38] jmp        2            ; to [41]
B66D  97008000           [39] loadbool   2   1   0    ; true
B671  9E000001           [40] return     2   2      
B675  8E004000           [41] gettable   2   0   256  ; "mUpgradeType"
B679  DD400000           [42] getglobal  3   1        ; Game
B67D  CE80C001           [43] gettable   3   3   258  ; "AVATAR_ABILITY"
fail op	35
B681  63C00001           [44] close      1  
B685  1A800180           [45] jmp        7            ; to [53]
B689  8E00C000           [46] gettable   2   1   256  ; "mUpgradeType"
B68D  DD400000           [47] getglobal  3   1        ; Game
B691  CE80C001           [48] gettable   3   3   258  ; "AVATAR_ABILITY"
fail op	35
B695  23C00001           [49] close      0  
B699  1A400080           [50] jmp        2            ; to [53]
B69D  97000000           [51] loadbool   2   0   0    ; false
B6A1  9E000001           [52] return     2   2      
B6A5  8E404100           [53] gettable   2   0   261  ; "mName"
B6A9  CE40C100           [54] gettable   3   1   261  ; "mName"
fail op	21
B6AD  55C00001           [55] concat     1   2   3  
B6B1  1A000080           [56] jmp        1            ; to [58]
B6B5  97400000           [57] loadbool   2   0   1    ; false, to [59]
B6B9  97008000           [58] loadbool   2   1   0    ; true
B6BD  9E000001           [59] return     2   2      
B6C1  1E008000           [60] return     0   1      
                         * constants:
B6C5  06                 sizek (6)
B6C6  04                 const type 4
B6C7  0D                 string size (13)
B6C8  6D55706772616465+  "mUpgrade"
B6D0  5479706500         "Type\0"
                         const [0]: "mUpgradeType"
B6D5  04                 const type 4
B6D6  05                 string size (5)
B6D7  47616D6500         "Game\0"
                         const [1]: "Game"
B6DC  04                 const type 4
B6DD  0F                 string size (15)
B6DE  4156415441525F41+  "AVATAR_A"
B6E6  42494C49545900     "BILITY\0"
                         const [2]: "AVATAR_ABILITY"
B6ED  04                 const type 4
B6EE  0E                 string size (14)
B6EF  6D55706772616465+  "mUpgrade"
B6F7  56616C756500       "Value\0"
                         const [3]: "mUpgradeValue"
B6FD  04                 const type 4
B6FE  07                 string size (7)
B6FF  6D447261696E00     "mDrain\0"
                         const [4]: "mDrain"
B706  04                 const type 4
B707  06                 string size (6)
B708  6D4E616D6500       "mName\0"
                         const [5]: "mName"
                         * functions:
B70E  00                 sizep (0)
                         * lines:
B70F  3C                 sizelineinfo (60)
                         [pc] (line)
B710  FC                 [01] (-4)
B711  04                 [02] (-4)
B712  00                 [03] (-4)
B713  00                 [04] (-4)
B714  FC                 [05] (-4)
B715  04                 [06] (-4)
B716  00                 [07] (-4)
B717  00                 [08] (-4)
B718  FC                 [09] (-4)
B719  04                 [10] (-4)
B71A  00                 [11] (-3)
B71B  00                 [12] (-3)
B71C  FC                 [13] (-3)
B71D  04                 [14] (-3)
B71E  00                 [15] (-2)
B71F  00                 [16] (-2)
B720  FC                 [17] (-2)
B721  04                 [18] (-2)
B722  00                 [19] (-2)
B723  00                 [20] (-2)
B724  FC                 [21] (-2)
B725  04                 [22] (0)
B726  00                 [23] (0)
B727  00                 [24] (0)
B728  FC                 [25] (0)
B729  04                 [26] (0)
B72A  00                 [27] (0)
B72B  00                 [28] (0)
B72C  FC                 [29] (2)
B72D  04                 [30] (2)
B72E  00                 [31] (2)
B72F  00                 [32] (2)
B730  FC                 [33] (2)
B731  04                 [34] (2)
B732  00                 [35] (2)
B733  00                 [36] (2)
B734  FC                 [37] (2)
B735  04                 [38] (2)
B736  00                 [39] (3)
B737  00                 [40] (3)
B738  FD                 [41] (5)
B739  04                 [42] (5)
B73A  00                 [43] (5)
B73B  00                 [44] (5)
B73C  FD                 [45] (5)
B73D  04                 [46] (5)
B73E  00                 [47] (5)
B73F  00                 [48] (5)
B740  FD                 [49] (5)
B741  04                 [50] (5)
B742  00                 [51] (6)
B743  00                 [52] (6)
B744  FD                 [53] (9)
B745  04                 [54] (9)
B746  00                 [55] (9)
B747  00                 [56] (9)
B748  FE                 [57] (9)
B749  04                 [58] (9)
B74A  00                 [59] (9)
B74B  00                 [60] (10)
                         * locals:
B800  00                 sizelocvars (0)
                         * upvalues:
B801  00                 sizeupvalues (0)
                         ** end of function **

                         
B802                     ** function [41] definition (level 2)
                         ** start of function **
B802  00                 string size (0)
                         source name: (none)
B804  0A                 line defined (1292)
B805  B5                 last line defined (1333)
B806  0A                 nups (11)
B807  0B                 numparams (0)
B808  00                 is_vararg (0)
B809  00                 maxstacksize (13)
                         * code:
B80B  5E                 sizecode (94)
B80C  13000000           [01] getupval   0   0      
B810  24004000           [02] self       0   0   256  ; 1865287165
B814  22800001           [03] call       0   2   2  
B818  4B000000           [04] newtable   1   0   0    ; array=0, hash=0
fail op	8
B81C  48008000           [05] setupval   1   1      
B820  4B000000           [06] newtable   1   0   0    ; array=0, hash=0
fail op	8
B824  48000001           [07] setupval   1   2      
B828  4B000000           [08] newtable   1   0   0    ; array=0, hash=0
fail op	8
B82C  48008001           [09] setupval   1   3      
B830  65000000           [10] closure    1   0      
B834  13000002           [11] getupval   0   4      
B838  13008000           [12] getupval   0   1      
B83C  12000000           [13] move       0   0      
B840  13008002           [14] getupval   0   5      
B844  13000003           [15] getupval   0   6      
B848  93008003           [16] getupval   2   7      
B84C  D3000004           [17] getupval   3   8      
B850  CE40C001           [18] gettable   3   3   257  ; "ENABLE"
fail op	35
B854  23C00001           [19] close      0  
B858  1A400280           [20] jmp        10           ; to [31]
B85C  92008000           [21] move       2   1      
B860  D3008004           [22] getupval   3   9      
B864  E480C001           [23] self       3   3   258  ; -1917464545
B868  E2800001           [24] call       3   2   2  
B86C  E4C0C001           [25] self       3   3   259  ; 1769516121
B870  E2800001           [26] call       3   2   2  
B874  E400C101           [27] self       3   3   260  ; -1234778714
B878  E2000001           [28] call       3   2   0  
B87C  A2400000           [29] call       2   0   1  
B880  1AC00480           [30] jmp        20           ; to [51]
B884  92008000           [31] move       2   1      
B888  E4404100           [32] self       3   0   261  ; -579428699
B88C  5D810100           [33] getglobal  5   6        ; Lotus_Game
B890  4EC1C102           [34] gettable   5   5   263  ; "ARSENAL_STATE_PVE"
B894  9D010200           [35] getglobal  6   8        ; Engine
B898  8E414203           [36] gettable   6   6   265  ; "Item_Suits"
B89C  D3018002           [37] getupval   7   5      
B8A0  CE81C203           [38] gettable   7   7   266  ; "item"
B8A4  E2008002           [39] call       3   5   0  
B8A8  A2400000           [40] call       2   0   1  
B8AC  92008000           [41] move       2   1      
B8B0  E4C04200           [42] self       3   0   267  ; 256983468
B8B4  5D810100           [43] getglobal  5   6        ; Lotus_Game
B8B8  4EC1C102           [44] gettable   5   5   263  ; "ARSENAL_STATE_PVE"
B8BC  9D010200           [45] getglobal  6   8        ; Engine
B8C0  8E414203           [46] gettable   6   6   265  ; "Item_Suits"
B8C4  D3018002           [47] getupval   7   5      
B8C8  CE81C203           [48] gettable   7   7   266  ; "item"
B8CC  E2008002           [49] call       3   5   0  
B8D0  A2400000           [50] call       2   0   1  
B8D4  9D000300           [51] getglobal  2   12       ; table
B8D8  8E404301           [52] gettable   2   2   269  ; -1513783280
B8DC  D3008000           [53] getupval   3   1      
B8E0  13010005           [54] getupval   4   10     
B8E4  A2408001           [55] call       2   3   1  
B8E8  9D800300           [56] getglobal  2   14       ; 1672515847
B8EC  D3008000           [57] getupval   3   1      
B8F0  A2000101           [58] call       2   2   4  
B8F4  1AC00780           [59] jmp        32           ; to [92]
B8F8  CEC14303           [60] gettable   7   6   271  ; "mUpgrade"
B8FC  CE01C403           [61] gettable   7   7   272  ; "mItemType"
B900  0EC24303           [62] gettable   8   6   271  ; "mUpgrade"
B904  0E424404           [63] gettable   8   8   273  ; "mItemId"
B908  0E824404           [64] gettable   8   8   274  ; "mId"
fail op	35
B90C  63C04404           [65] close      1  
B910  1A800080           [66] jmp        3            ; to [70]
B914  53020001           [67] getupval   9   2      
B918  4C420104           [68] settable   9   8   5  
B91C  1A400580           [69] jmp        22           ; to [92]
B920  5D020500           [70] getglobal  9   20       ; 1074689893
B924  92028003           [71] move       10  7      
B928  62820001           [72] call       9   2   2  
B92C  58420000           [73] test       9       1    ; to [75] if false
B930  1A000480           [74] jmp        17           ; to [92]
B934  53028001           [75] getupval   9   3      
B938  A442C503           [76] self       10  7   277  ; 455421500
B93C  A2820001           [77] call       10  2   2  
B940  4E828204           [78] gettable   9   9   10 
fail op	35
B944  2380C504           [79] close      0  
B948  1A000180           [80] jmp        5            ; to [86]
B94C  53028001           [81] getupval   9   3      
B950  A442C503           [82] self       10  7   277  ; 455421500
B954  A2820001           [83] call       10  2   2  
B958  4C420105           [84] settable   9   10  5  
B95C  1A400180           [85] jmp        6            ; to [92]
B960  5DC20500           [86] getglobal  9   23       ; -1817107093
B964  99020600           [87] loadk      10  24       ; "Multiple cards of type "
B968  E442C503           [88] self       11  7   277  ; 455421500
B96C  E2820001           [89] call       11  2   2  
B970  82C20205           [90] concat     10  10  11 
B974  62420001           [91] call       9   2   1  
B978  96800000           [92] tforloop   2       2    ; to [94] if exit
B97C  1A40F77F           [93] jmp        -34          ; to [60]
B980  1E008000           [94] return     0   1      
                         * constants:
B984  19                 sizek (25)
B985  01                 const type 3
B986  FD052E6F           const [0]: (1865287165)
B98A  04                 const type 4
B98B  07                 string size (7)
B98C  454E41424C4500     "ENABLE\0"
                         const [1]: "ENABLE"
B993  01                 const type 3
B994  1FD0B58D           const [2]: (-1917464545)
B998  01                 const type 3
B999  59AC7869           const [3]: (1769516121)
B99D  01                 const type 3
B99E  A6C566B6           const [4]: (-1234778714)
B9A2  01                 const type 3
B9A3  A59E76DD           const [5]: (-579428699)
B9A7  04                 const type 4
B9A8  0B                 string size (11)
B9A9  4C6F7475735F4761+  "Lotus_Ga"
B9B1  6D6500             "me\0"
                         const [6]: "Lotus_Game"
B9B4  04                 const type 4
B9B5  12                 string size (18)
B9B6  415253454E414C5F+  "ARSENAL_"
B9BE  53544154455F5056+  "STATE_PV"
B9C6  4500               "E\0"
                         const [7]: "ARSENAL_STATE_PVE"
B9C8  04                 const type 4
B9C9  07                 string size (7)
B9CA  456E67696E6500     "Engine\0"
                         const [8]: "Engine"
B9D1  04                 const type 4
B9D2  0B                 string size (11)
B9D3  4974656D5F537569+  "Item_Sui"
B9DB  747300             "ts\0"
                         const [9]: "Item_Suits"
B9DE  04                 const type 4
B9DF  05                 string size (5)
B9E0  6974656D00         "item\0"
                         const [10]: "item"
B9E5  01                 const type 3
B9E6  AC41510F           const [11]: (256983468)
B9EA  04                 const type 4
B9EB  06                 string size (6)
B9EC  7461626C6500       "table\0"
                         const [12]: "table"
B9F2  01                 const type 3
B9F3  1080C5A5           const [13]: (-1513783280)
B9F7  01                 const type 3
B9F8  0791B063           const [14]: (1672515847)
B9FC  04                 const type 4
B9FD  09                 string size (9)
B9FE  6D55706772616465+  "mUpgrade"
BA06  00                 "\0"
                         const [15]: "mUpgrade"
BA07  04                 const type 4
BA08  0A                 string size (10)
BA09  6D4974656D547970+  "mItemTyp"
BA11  6500               "e\0"
                         const [16]: "mItemType"
BA13  04                 const type 4
BA14  08                 string size (8)
BA15  6D4974656D496400   "mItemId\0"
                         const [17]: "mItemId"
BA1D  04                 const type 4
BA1E  04                 string size (4)
BA1F  6D496400           "mId\0"
                         const [18]: "mId"
BA23  04                 const type 4
BA24  01                 string size (0)
                         const [19]: ""
BA26  01                 const type 3
BA27  65770E40           const [20]: (1074689893)
BA2B  01                 const type 3
BA2C  3C2E251B           const [21]: (455421500)
BA30  00                 const type 0
                         const [22]: nil
BA31  01                 const type 3
BA32  6B25B193           const [23]: (-1817107093)
BA36  04                 const type 4
BA37  18                 string size (24)
BA38  4D756C7469706C65+  "Multiple"
BA40  206361726473206F+  " cards o"
BA48  6620747970652000   "f type \0"
                         const [24]: "Multiple cards of type "
                         * functions:
BA50  01                 sizep (1)
                         
BA51                     ** function [0] definition (level 3)
                         ** start of function **
BA51  00                 string size (0)
                         source name: (none)
BA53  0A                 line defined (1299)
BA54  9E                 last line defined (1310)
BA55  0A                 nups (5)
BA56  05                 numparams (1)
BA57  01                 is_vararg (0)
BA58  00                 maxstacksize (12)
                         * code:
BA5A  29                 sizecode (41)
BA5B  59000000           [01] loadk      1   0        ; 0
BA5F  8A000000           [02] len        2   0      
BA63  D9000000           [03] loadk      3   0        ; 0
BA67  50800880           [04] forprep    1   35       ; to [40]
BA6B  5D410000           [05] getglobal  5   1        ; 1074689893
BA6F  8E010100           [06] gettable   6   0   4  
BA73  8E814003           [07] gettable   6   6   258  ; "mItemType"
BA77  62810001           [08] call       5   2   2  
BA7B  58010000           [09] test       5       0    ; to [11] if true
BA7F  1A000180           [10] jmp        5            ; to [16]
BA83  4E010100           [11] gettable   5   0   4  
BA87  4EC1C002           [12] gettable   5   5   259  ; "mItemId"
BA8B  4E01C102           [13] gettable   5   5   260  ; "mId"
fail op	35
BA8F  6340C102           [14] close      1  
BA93  1AC00580           [15] jmp        24           ; to [40]
BA97  53010000           [16] getupval   5   0      
BA9B  4E81C102           [17] gettable   5   5   262  ; -2088525348
BA9F  8E010100           [18] gettable   6   0   4  
BAA3  D3018000           [19] getupval   7   1      
BAA7  CA018003           [20] len        7   7      
BAAB  C301C003           [21] add        7   7   256  ; 0
BAAF  62818001           [22] call       5   3   2  
BAB3  8EC1C102           [23] gettable   6   5   263  ; "mIsHidden"
BAB7  98410000           [24] test       6       1    ; to [26] if false
BABB  1A400380           [25] jmp        14           ; to [40]
BABF  93010000           [26] getupval   6   0      
BAC3  8E014203           [27] gettable   6   6   264  ; -1793854406
BAC7  D3010001           [28] getupval   7   2      
BACB  13028001           [29] getupval   8   3      
BACF  0E424204           [30] gettable   8   8   265  ; "info"
BAD3  52028002           [31] move       9   5      
BAD7  93020002           [32] getupval   10  4      
BADB  D7020000           [33] loadbool   11  0   0    ; false
BADF  A2410003           [34] call       6   6   1  
BAE3  9D810200           [35] getglobal  6   10       ; table
BAE7  8EC14203           [36] gettable   6   6   267  ; -431682403
BAEB  D3018000           [37] getupval   7   1      
BAEF  12028002           [38] move       8   5      
BAF3  A2418001           [39] call       6   3   1  
BAF7  54C0F67F           [40] forloop    1   -36      ; to [5] if loop
BAFB  1E008000           [41] return     0   1      
                         * constants:
BAFF  0C                 sizek (12)
BB00  03                 const type 3
BB01  0000803F           const [0]: (0)
BB05  01                 const type 3
BB06  65770E40           const [1]: (1074689893)
BB0A  04                 const type 4
BB0B  0A                 string size (10)
BB0C  6D4974656D547970+  "mItemTyp"
BB14  6500               "e\0"
                         const [2]: "mItemType"
BB16  04                 const type 4
BB17  08                 string size (8)
BB18  6D4974656D496400   "mItemId\0"
                         const [3]: "mItemId"
BB20  04                 const type 4
BB21  04                 string size (4)
BB22  6D496400           "mId\0"
                         const [4]: "mId"
BB26  04                 const type 4
BB27  01                 string size (0)
                         const [5]: ""
BB29  01                 const type 3
BB2A  DCA18383           const [6]: (-2088525348)
BB2E  04                 const type 4
BB2F  0A                 string size (10)
BB30  6D49734869646465+  "mIsHidde"
BB38  6E00               "n\0"
                         const [7]: "mIsHidden"
BB3A  01                 const type 3
BB3B  3AF41395           const [8]: (-1793854406)
BB3F  04                 const type 4
BB40  05                 string size (5)
BB41  696E666F00         "info\0"
                         const [9]: "info"
BB46  04                 const type 4
BB47  06                 string size (6)
BB48  7461626C6500       "table\0"
                         const [10]: "table"
BB4E  01                 const type 3
BB4F  9D0C45E6           const [11]: (-431682403)
                         * functions:
BB53  00                 sizep (0)
                         * lines:
BB54  29                 sizelineinfo (41)
                         [pc] (line)
BB55  14                 [01] (20)
BB56  05                 [02] (20)
BB57  00                 [03] (20)
BB58  00                 [04] (20)
BB59  14                 [05] (21)
BB5A  05                 [06] (21)
BB5B  00                 [07] (21)
BB5C  00                 [08] (21)
BB5D  14                 [09] (21)
BB5E  05                 [10] (21)
BB5F  00                 [11] (21)
BB60  00                 [12] (21)
BB61  14                 [13] (21)
BB62  05                 [14] (21)
BB63  00                 [15] (21)
BB64  00                 [16] (22)
BB65  15                 [17] (22)
BB66  05                 [18] (22)
BB67  00                 [19] (22)
BB68  00                 [20] (22)
BB69  15                 [21] (22)
BB6A  05                 [22] (22)
BB6B  00                 [23] (23)
BB6C  00                 [24] (23)
BB6D  15                 [25] (23)
BB6E  05                 [26] (24)
BB6F  00                 [27] (24)
BB70  00                 [28] (24)
BB71  15                 [29] (24)
BB72  05                 [30] (24)
BB73  00                 [31] (24)
BB74  00                 [32] (24)
BB75  15                 [33] (24)
BB76  05                 [34] (24)
BB77  00                 [35] (26)
BB78  00                 [36] (26)
BB79  15                 [37] (26)
BB7A  05                 [38] (26)
BB7B  00                 [39] (26)
BB7C  00                 [40] (20)
BB7D  15                 [41] (30)
                         * locals:
BBF9  00                 sizelocvars (0)
                         * upvalues:
BBFA  00                 sizeupvalues (0)
                         ** end of function **

                         * lines:
BBFB  5E                 sizelineinfo (94)
                         [pc] (line)
BBFC  0D                 [01] (13)
BBFD  05                 [02] (13)
BBFE  00                 [03] (13)
BBFF  00                 [04] (14)
BC00  0D                 [05] (14)
BC01  05                 [06] (15)
BC02  00                 [07] (15)
BC03  00                 [08] (16)
BC04  0D                 [09] (16)
BC05  05                 [10] (30)
BC06  00                 [11] (30)
BC07  00                 [12] (30)
BC08  0E                 [13] (30)
BC09  05                 [14] (30)
BC0A  00                 [15] (30)
BC0B  00                 [16] (32)
BC0C  0E                 [17] (32)
BC0D  05                 [18] (32)
BC0E  00                 [19] (32)
BC0F  00                 [20] (32)
BC10  0F                 [21] (33)
BC11  05                 [22] (33)
BC12  00                 [23] (33)
BC13  00                 [24] (33)
BC14  0F                 [25] (33)
BC15  05                 [26] (33)
BC16  00                 [27] (33)
BC17  00                 [28] (33)
BC18  10                 [29] (33)
BC19  05                 [30] (33)
BC1A  00                 [31] (35)
BC1B  00                 [32] (35)
BC1C  10                 [33] (35)
BC1D  05                 [34] (35)
BC1E  00                 [35] (35)
BC1F  00                 [36] (35)
BC20  1E                 [37] (35)
BC21  05                 [38] (35)
BC22  00                 [39] (35)
BC23  00                 [40] (35)
BC24  1E                 [41] (36)
BC25  05                 [42] (36)
BC26  00                 [43] (36)
BC27  00                 [44] (36)
BC28  1E                 [45] (36)
BC29  05                 [46] (36)
BC2A  00                 [47] (36)
BC2B  00                 [48] (36)
BC2C  1E                 [49] (36)
BC2D  05                 [50] (36)
BC2E  00                 [51] (39)
BC2F  00                 [52] (39)
BC30  1E                 [53] (39)
BC31  05                 [54] (39)
BC32  00                 [55] (39)
BC33  00                 [56] (40)
BC34  1E                 [57] (40)
BC35  05                 [58] (40)
BC36  00                 [59] (40)
BC37  00                 [60] (41)
BC38  20                 [61] (41)
BC39  05                 [62] (42)
BC3A  00                 [63] (42)
BC3B  00                 [64] (42)
BC3C  20                 [65] (43)
BC3D  05                 [66] (43)
BC3E  00                 [67] (44)
BC3F  00                 [68] (44)
BC40  20                 [69] (44)
BC41  05                 [70] (45)
BC42  00                 [71] (45)
BC43  00                 [72] (45)
BC44  20                 [73] (45)
BC45  05                 [74] (45)
BC46  00                 [75] (46)
BC47  00                 [76] (46)
BC48  20                 [77] (46)
BC49  05                 [78] (46)
BC4A  00                 [79] (46)
BC4B  00                 [80] (46)
BC4C  21                 [81] (47)
BC4D  05                 [82] (47)
BC4E  00                 [83] (47)
BC4F  00                 [84] (47)
BC50  21                 [85] (47)
BC51  05                 [86] (49)
BC52  00                 [87] (49)
BC53  00                 [88] (49)
BC54  21                 [89] (49)
BC55  05                 [90] (49)
BC56  00                 [91] (49)
BC57  00                 [92] (40)
BC58  21                 [93] (51)
BC59  05                 [94] (53)
                         * locals:
BD74  00                 sizelocvars (0)
                         * upvalues:
BD75  00                 sizeupvalues (0)
                         ** end of function **

                         
BD76                     ** function [42] definition (level 2)
                         ** start of function **
BD76  00                 string size (0)
                         source name: (none)
BD78  0A                 line defined (1335)
BD79  8D                 last line defined (1421)
BD7A  0B                 nups (8)
BD7B  08                 numparams (0)
BD7C  00                 is_vararg (0)
BD7D  00                 maxstacksize (10)
                         * code:
BD80  01                 sizecode (204)
BD81  19000000           [001] loadk      0   0        ; "SystemStage.Picker"
BD85  5D400000           [002] getglobal  1   1        ; mMovie
BD89  6480C000           [003] self       1   1   258  ; 2115970775
BD8D  D2000000           [004] move       3   0      
BD91  19C10000           [005] loadk      4   3        ; ".Bg"
BD95  C2008101           [006] concat     3   3   4  
BD99  1D010100           [007] getglobal  4   4        ; pickerBackerMaterial
BD9D  62400002           [008] call       1   4   1  
BDA1  5D400000           [009] getglobal  1   1        ; mMovie
BDA5  6440C100           [010] self       1   1   261  ; -2013161817
BDA9  D2000000           [011] move       3   0      
BDAD  19810100           [012] loadk      4   6        ; "Bg"
BDB1  59C10100           [013] loadk      5   7        ; "_color"
BDB5  93010000           [014] getupval   6   0      
BDB9  8E014203           [015] gettable   6   6   264  ; "Background1"
BDBD  62400003           [016] call       1   6   1  
BDC1  5D400000           [017] getglobal  1   1        ; mMovie
BDC5  6440C100           [018] self       1   1   261  ; -2013161817
BDC9  D2000000           [019] move       3   0      
BDCD  19810100           [020] loadk      4   6        ; "Bg"
BDD1  59410200           [021] loadk      5   9        ; "_alpha"
BDD5  99810200           [022] loadk      6   10       ; 0
BDD9  62400003           [023] call       1   6   1  
BDDD  5D400000           [024] getglobal  1   1        ; mMovie
BDE1  6440C100           [025] self       1   1   261  ; -2013161817
BDE5  D2000000           [026] move       3   0      
BDE9  19C10200           [027] loadk      4   11       ; "TopBorder"
BDED  59C10100           [028] loadk      5   7        ; "_color"
BDF1  93010000           [029] getupval   6   0      
BDF5  8E014303           [030] gettable   6   6   268  ; "FloatingContent"
BDF9  62400003           [031] call       1   6   1  
BDFD  5D400000           [032] getglobal  1   1        ; mMovie
BE01  6440C100           [033] self       1   1   261  ; -2013161817
BE05  D2000000           [034] move       3   0      
BE09  19C10200           [035] loadk      4   11       ; "TopBorder"
BE0D  59410200           [036] loadk      5   9        ; "_alpha"
BE11  99410300           [037] loadk      6   13       ; 0
BE15  62400003           [038] call       1   6   1  
BE19  5D400000           [039] getglobal  1   1        ; mMovie
BE1D  6480C000           [040] self       1   1   258  ; 2115970775
BE21  D2000000           [041] move       3   0      
BE25  19810300           [042] loadk      4   14       ; ".TopBorder"
BE29  C2008101           [043] concat     3   3   4  
BE2D  1DC10300           [044] getglobal  4   15       ; linesMaterial
BE31  62400002           [045] call       1   4   1  
BE35  5D400000           [046] getglobal  1   1        ; mMovie
BE39  6440C100           [047] self       1   1   261  ; -2013161817
BE3D  D2000000           [048] move       3   0      
BE41  19010400           [049] loadk      4   16       ; "BottomBorder"
BE45  59C10100           [050] loadk      5   7        ; "_color"
BE49  93010000           [051] getupval   6   0      
BE4D  8E014303           [052] gettable   6   6   268  ; "FloatingContent"
BE51  62400003           [053] call       1   6   1  
BE55  5D400000           [054] getglobal  1   1        ; mMovie
BE59  6440C100           [055] self       1   1   261  ; -2013161817
BE5D  D2000000           [056] move       3   0      
BE61  19010400           [057] loadk      4   16       ; "BottomBorder"
BE65  59410200           [058] loadk      5   9        ; "_alpha"
BE69  99410300           [059] loadk      6   13       ; 0
BE6D  62400003           [060] call       1   6   1  
BE71  5D400000           [061] getglobal  1   1        ; mMovie
BE75  6480C000           [062] self       1   1   258  ; 2115970775
BE79  D2000000           [063] move       3   0      
BE7D  19410400           [064] loadk      4   17       ; ".BottomBorder"
BE81  C2008101           [065] concat     3   3   4  
BE85  1DC10300           [066] getglobal  4   15       ; linesMaterial
BE89  62400002           [067] call       1   4   1  
BE8D  5D400000           [068] getglobal  1   1        ; mMovie
BE91  6440C100           [069] self       1   1   261  ; -2013161817
BE95  D2000000           [070] move       3   0      
BE99  19810400           [071] loadk      4   18       ; "Title"
BE9D  59C10400           [072] loadk      5   19       ; "textColor"
BEA1  93010000           [073] getupval   6   0      
BEA5  8E014503           [074] gettable   6   6   276  ; "FloatingContentHighlight"
BEA9  62400003           [075] call       1   6   1  
BEAD  5D400500           [076] getglobal  1   21       ; 849075268
BEB1  99800500           [077] loadk      2   22       ; "Lotus.Interface.Components.ThemedButton"
BEB5  62800001           [078] call       1   2   2  
BEB9  93008000           [079] getupval   2   1      
BEBD  CE00C600           [080] gettable   3   1   280  ; 1191123516
BEC1  1D410000           [081] getglobal  4   1        ; mMovie
BEC5  52010000           [082] move       5   0      
BEC9  99410600           [083] loadk      6   25       ; ".CloseBtn"
BECD  42818102           [084] concat     5   5   6  
BED1  99810600           [085] loadk      6   26       ; "/Menu/Confirm_Item_Cancel"
BED5  D9C10600           [086] loadk      7   27       ; "Close"
BED9  19020700           [087] loadk      8   28       ; "<MENU_CANCEL>"
BEDD  57028000           [088] loadbool   9   1   0    ; true
BEE1  E2808003           [089] call       3   7   2  
BEE5  8CC0808B           [090] settable   2   279 3    ; "CloseBtn"
BEE9  93008000           [091] getupval   2   1      
BEED  8EC04501           [092] gettable   2   2   279  ; "CloseBtn"
BEF1  A4404701           [093] self       2   2   285  ; -2011541260
BEF5  19810700           [094] loadk      4   30       ; 0
BEF9  A2408001           [095] call       2   3   1  
BEFD  93008000           [096] getupval   2   1      
BF01  CE00C600           [097] gettable   3   1   280  ; 1191123516
BF05  1D410000           [098] getglobal  4   1        ; mMovie
BF09  52010000           [099] move       5   0      
BF0D  99010800           [100] loadk      6   32       ; ".UpgradeBtn"
BF11  42818102           [101] concat     5   5   6  
BF15  99410800           [102] loadk      6   33       ; "/Lotus/Language/Menu/Global_ProductCategory_Upgrade"
BF19  D9810800           [103] loadk      7   34       ; "UpgradeSlot"
BF1D  19C20800           [104] loadk      8   35       ; "<MENU_GENERIC1>"
BF21  57028000           [105] loadbool   9   1   0    ; true
BF25  E2808003           [106] call       3   7   2  
BF29  8CC0808F           [107] settable   2   287 3    ; "UpgradeBtn"
BF2D  93008000           [108] getupval   2   1      
BF31  8EC04701           [109] gettable   2   2   287  ; "UpgradeBtn"
BF35  A4404701           [110] self       2   2   285  ; -2011541260
BF39  19810700           [111] loadk      4   30       ; 0
BF3D  A2408001           [112] call       2   3   1  
BF41  9D400000           [113] getglobal  2   1        ; mMovie
BF45  A4404101           [114] self       2   2   261  ; -2013161817
BF49  12010000           [115] move       4   0      
BF4D  59010900           [116] loadk      5   36       ; "Grid.DoubleWideSlot"
BF51  99410200           [117] loadk      6   9        ; "_alpha"
BF55  D9410900           [118] loadk      7   37       ; 0
BF59  A2400003           [119] call       2   6   1  
BF5D  9D400500           [120] getglobal  2   21       ; 849075268
BF61  D9800900           [121] loadk      3   38       ; "EE.Interface.Components.Grid"
BF65  A2800001           [122] call       2   2   2  
BF69  D3008000           [123] getupval   3   1      
BF6D  0E014A01           [124] gettable   4   2   296  ; -1703198922
BF71  5D410000           [125] getglobal  5   1        ; mMovie
BF75  92010000           [126] move       6   0      
BF79  D9410A00           [127] loadk      7   41       ; ".Grid.Slot"
BF7D  82C10103           [128] concat     6   6   7  
BF81  C6018003           [129] loadnil    7   7      
BF85  19820A00           [130] loadk      8   42       ; 0
BF89  59C20A00           [131] loadk      9   43       ; 0
BF8D  22810003           [132] call       4   6   2  
BF91  CC008193           [133] settable   3   295 4    ; "Grid"
BF95  D3008000           [134] getupval   3   1      
BF99  CEC0C901           [135] gettable   3   3   295  ; "Grid"
BF9D  E400CB01           [136] self       3   3   300  ; 236168549
BFA1  59410B00           [137] loadk      5   45       ; "PickerSlotSelected"
BFA5  99810B00           [138] loadk      6   46       ; "PickerSlotFocused"
BFA9  D9C10B00           [139] loadk      7   47       ; "PickerSlotUnfocused"
BFAD  19020C00           [140] loadk      8   48       ; "PickerSlotPressed"
BFB1  E2400003           [141] call       3   6   1  
BFB5  D3008000           [142] getupval   3   1      
BFB9  CEC0C901           [143] gettable   3   3   295  ; "Grid"
BFBD  CC80CC98           [144] settable   3   305 306  ; "mRowSeparation" 0
BFC1  D3008000           [145] getupval   3   1      
BFC5  CEC0C901           [146] gettable   3   3   295  ; "Grid"
BFC9  CC00CD99           [147] settable   3   307 308  ; "mColumnSeparation" 0
BFCD  D3008000           [148] getupval   3   1      
BFD1  CEC0C901           [149] gettable   3   3   295  ; "Grid"
BFD5  CC80CD9A           [150] settable   3   309 310  ; "mExtraRowScroll" 0
BFD9  D3008000           [151] getupval   3   1      
BFDD  CEC0C901           [152] gettable   3   3   295  ; "Grid"
BFE1  E4C0CD01           [153] self       3   3   311  ; 1035345719
BFE5  52010000           [154] move       5   0      
BFE9  99010E00           [155] loadk      6   56       ; ".ScrollBar"
BFED  42818102           [156] concat     5   5   6  
BFF1  99410900           [157] loadk      6   37       ; 0
BFF5  E2400002           [158] call       3   4   1  
BFF9  D3008000           [159] getupval   3   1      
BFFD  CEC0C901           [160] gettable   3   3   295  ; "Grid"
C001  E440CE01           [161] self       3   3   313  ; -104757962
C005  E2400001           [162] call       3   2   1  
C009  D3008000           [163] getupval   3   1      
C00D  CEC0C901           [164] gettable   3   3   295  ; "Grid"
C011  25010000           [165] closure    4   0      
C015  13000001           [166] getupval   0   2      
C019  13008001           [167] getupval   0   3      
C01D  13000002           [168] getupval   0   4      
C021  CC00019D           [169] settable   3   314 4    ; "mOnFocusedCallback"
C025  D3008000           [170] getupval   3   1      
C029  CEC0C901           [171] gettable   3   3   295  ; "Grid"
C02D  25410000           [172] closure    4   1      
C031  13008001           [173] getupval   0   3      
C035  13000002           [174] getupval   0   4      
C039  CC00819D           [175] settable   3   315 4    ; "mOnUnfocusedCallback"
C03D  D3008000           [176] getupval   3   1      
C041  CEC0C901           [177] gettable   3   3   295  ; "Grid"
C045  25810000           [178] closure    4   2      
C049  13000001           [179] getupval   0   2      
C04D  13000002           [180] getupval   0   4      
C051  13008002           [181] getupval   0   5      
C055  13000003           [182] getupval   0   6      
C059  CC00019E           [183] settable   3   316 4    ; "mOnSelectedCallback"
C05D  D3008000           [184] getupval   3   1      
C061  CEC0C901           [185] gettable   3   3   295  ; "Grid"
C065  25C10000           [186] closure    4   3      
C069  13008003           [187] getupval   0   7      
C06D  13008000           [188] getupval   0   1      
C071  CC00819E           [189] settable   3   317 4    ; "mElementDrawCallback"
C075  D3008000           [190] getupval   3   1      
C079  CEC0C901           [191] gettable   3   3   295  ; "Grid"
C07D  25010100           [192] closure    4   4      
C081  CC00019F           [193] settable   3   318 4    ; "SetupPreInterpolationValues"
C085  D3008000           [194] getupval   3   1      
C089  CEC0C901           [195] gettable   3   3   295  ; "Grid"
C08D  25410100           [196] closure    4   5      
C091  CC00819F           [197] settable   3   319 4    ; "GetInterpolationProperties"
C095  DD400000           [198] getglobal  3   1        ; mMovie
C099  E400D001           [199] self       3   3   320  ; 471456102
C09D  52010000           [200] move       5   0      
C0A1  99411000           [201] loadk      6   65       ; "_visible"
C0A5  D7010000           [202] loadbool   7   0   0    ; false
C0A9  E2408002           [203] call       3   5   1  
C0AD  1E008000           [204] return     0   1      
                         * constants:
C0B1  42                 sizek (66)
C0B2  04                 const type 4
C0B3  13                 string size (19)
C0B4  53797374656D5374+  "SystemSt"
C0BC  6167652E5069636B+  "age.Pick"
C0C4  657200             "er\0"
                         const [0]: "SystemStage.Picker"
C0C7  04                 const type 4
C0C8  07                 string size (7)
C0C9  6D4D6F76696500     "mMovie\0"
                         const [1]: "mMovie"
C0D0  01                 const type 3
C0D1  D7261F7E           const [2]: (2115970775)
C0D5  04                 const type 4
C0D6  04                 string size (4)
C0D7  2E426700           ".Bg\0"
                         const [3]: ".Bg"
C0DB  04                 const type 4
C0DC  15                 string size (21)
C0DD  7069636B65724261+  "pickerBa"
C0E5  636B65724D617465+  "ckerMate"
C0ED  7269616C00         "rial\0"
                         const [4]: "pickerBackerMaterial"
C0F2  01                 const type 3
C0F3  A7960188           const [5]: (-2013161817)
C0F7  04                 const type 4
C0F8  03                 string size (3)
C0F9  426700             "Bg\0"
                         const [6]: "Bg"
C0FC  04                 const type 4
C0FD  07                 string size (7)
C0FE  5F636F6C6F7200     "_color\0"
                         const [7]: "_color"
C105  04                 const type 4
C106  0C                 string size (12)
C107  4261636B67726F75+  "Backgrou"
C10F  6E643100           "nd1\0"
                         const [8]: "Background1"
C113  04                 const type 4
C114  07                 string size (7)
C115  5F616C70686100     "_alpha\0"
                         const [9]: "_alpha"
C11C  03                 const type 3
C11D  0000B442           const [10]: (0)
C121  04                 const type 4
C122  0A                 string size (10)
C123  546F70426F726465+  "TopBorde"
C12B  7200               "r\0"
                         const [11]: "TopBorder"
C12D  04                 const type 4
C12E  10                 string size (16)
C12F  466C6F6174696E67+  "Floating"
C137  436F6E74656E7400   "Content\0"
                         const [12]: "FloatingContent"
C13F  03                 const type 3
C140  00004842           const [13]: (0)
C144  04                 const type 4
C145  0B                 string size (11)
C146  2E546F70426F7264+  ".TopBord"
C14E  657200             "er\0"
                         const [14]: ".TopBorder"
C151  04                 const type 4
C152  0E                 string size (14)
C153  6C696E65734D6174+  "linesMat"
C15B  657269616C00       "erial\0"
                         const [15]: "linesMaterial"
C161  04                 const type 4
C162  0D                 string size (13)
C163  426F74746F6D426F+  "BottomBo"
C16B  7264657200         "rder\0"
                         const [16]: "BottomBorder"
C170  04                 const type 4
C171  0E                 string size (14)
C172  2E426F74746F6D42+  ".BottomB"
C17A  6F7264657200       "order\0"
                         const [17]: ".BottomBorder"
C180  04                 const type 4
C181  06                 string size (6)
C182  5469746C6500       "Title\0"
                         const [18]: "Title"
C188  04                 const type 4
C189  0A                 string size (10)
C18A  74657874436F6C6F+  "textColo"
C192  7200               "r\0"
                         const [19]: "textColor"
C194  04                 const type 4
C195  19                 string size (25)
C196  466C6F6174696E67+  "Floating"
C19E  436F6E74656E7448+  "ContentH"
C1A6  6967686C69676874+  "ighlight"
C1AE  00                 "\0"
                         const [20]: "FloatingContentHighlight"
C1AF  01                 const type 3
C1B0  44DC9B32           const [21]: (849075268)
C1B4  04                 const type 4
C1B5  28                 string size (40)
C1B6  4C6F7475732E496E+  "Lotus.In"
C1BE  746572666163652E+  "terface."
C1C6  436F6D706F6E656E+  "Componen"
C1CE  74732E5468656D65+  "ts.Theme"
C1D6  64427574746F6E00   "dButton\0"
                         const [22]: "Lotus.Interface.Components.ThemedButton"
C1DE  04                 const type 4
C1DF  09                 string size (9)
C1E0  436C6F736542746E+  "CloseBtn"
C1E8  00                 "\0"
                         const [23]: "CloseBtn"
C1E9  01                 const type 3
C1EA  3C1AFF46           const [24]: (1191123516)
C1EE  04                 const type 4
C1EF  0A                 string size (10)
C1F0  2E436C6F73654274+  ".CloseBt"
C1F8  6E00               "n\0"
                         const [25]: ".CloseBtn"
C1FA  04                 const type 4
C1FB  1A                 string size (26)
C1FC  2F4D656E752F436F+  "/Menu/Co"
C204  6E6669726D5F4974+  "nfirm_It"
C20C  656D5F43616E6365+  "em_Cance"
C214  6C00               "l\0"
                         const [26]: "/Menu/Confirm_Item_Cancel"
C216  04                 const type 4
C217  06                 string size (6)
C218  436C6F736500       "Close\0"
                         const [27]: "Close"
C21E  04                 const type 4
C21F  0E                 string size (14)
C220  3C4D454E555F4341+  "<MENU_CA"
C228  4E43454C3E00       "NCEL>\0"
                         const [28]: "<MENU_CANCEL>"
C22E  01                 const type 3
C22F  F4501A88           const [29]: (-2011541260)
C233  03                 const type 3
C234  0000C842           const [30]: (0)
C238  04                 const type 4
C239  0B                 string size (11)
C23A  5570677261646542+  "UpgradeB"
C242  746E00             "tn\0"
                         const [31]: "UpgradeBtn"
C245  04                 const type 4
C246  0C                 string size (12)
C247  2E55706772616465+  ".Upgrade"
C24F  42746E00           "Btn\0"
                         const [32]: ".UpgradeBtn"
C253  04                 const type 4
C254  34                 string size (52)
C255  2F4C6F7475732F4C+  "/Lotus/L"
C25D  616E67756167652F+  "anguage/"
C265  4D656E752F476C6F+  "Menu/Glo"
C26D  62616C5F50726F64+  "bal_Prod"
C275  7563744361746567+  "uctCateg"
C27D  6F72795F55706772+  "ory_Upgr"
C285  61646500           "ade\0"
                         const [33]: "/Lotus/Language/Menu/Global_ProductCategory_Upgrade"
C289  04                 const type 4
C28A  0C                 string size (12)
C28B  5570677261646553+  "UpgradeS"
C293  6C6F7400           "lot\0"
                         const [34]: "UpgradeSlot"
C297  04                 const type 4
C298  10                 string size (16)
C299  3C4D454E555F4745+  "<MENU_GE"
C2A1  4E45524943313E00   "NERIC1>\0"
                         const [35]: "<MENU_GENERIC1>"
C2A9  04                 const type 4
C2AA  14                 string size (20)
C2AB  477269642E446F75+  "Grid.Dou"
C2B3  626C655769646553+  "bleWideS"
C2BB  6C6F7400           "lot\0"
                         const [36]: "Grid.DoubleWideSlot"
C2BF  03                 const type 3
C2C0  00000000           const [37]: (0)
C2C4  04                 const type 4
C2C5  1D                 string size (29)
C2C6  45452E496E746572+  "EE.Inter"
C2CE  666163652E436F6D+  "face.Com"
C2D6  706F6E656E74732E+  "ponents."
C2DE  4772696400         "Grid\0"
                         const [38]: "EE.Interface.Components.Grid"
C2E3  04                 const type 4
C2E4  05                 string size (5)
C2E5  4772696400         "Grid\0"
                         const [39]: "Grid"
C2EA  01                 const type 3
C2EB  363F7B9A           const [40]: (-1703198922)
C2EF  04                 const type 4
C2F0  0B                 string size (11)
C2F1  2E477269642E536C+  ".Grid.Sl"
C2F9  6F7400             "ot\0"
                         const [41]: ".Grid.Slot"
C2FC  03                 const type 3
C2FD  00008040           const [42]: (0)
C301  03                 const type 3
C302  00004040           const [43]: (0)
C306  01                 const type 3
C307  65A5130E           const [44]: (236168549)
C30B  04                 const type 4
C30C  13                 string size (19)
C30D  5069636B6572536C+  "PickerSl"
C315  6F7453656C656374+  "otSelect"
C31D  656400             "ed\0"
                         const [45]: "PickerSlotSelected"
C320  04                 const type 4
C321  12                 string size (18)
C322  5069636B6572536C+  "PickerSl"
C32A  6F74466F63757365+  "otFocuse"
C332  6400               "d\0"
                         const [46]: "PickerSlotFocused"
C334  04                 const type 4
C335  14                 string size (20)
C336  5069636B6572536C+  "PickerSl"
C33E  6F74556E666F6375+  "otUnfocu"
C346  73656400           "sed\0"
                         const [47]: "PickerSlotUnfocused"
C34A  04                 const type 4
C34B  12                 string size (18)
C34C  5069636B6572536C+  "PickerSl"
C354  6F74507265737365+  "otPresse"
C35C  6400               "d\0"
                         const [48]: "PickerSlotPressed"
C35E  04                 const type 4
C35F  0F                 string size (15)
C360  6D526F7753657061+  "mRowSepa"
C368  726174696F6E00     "ration\0"
                         const [49]: "mRowSeparation"
C36F  03                 const type 3
C370  00002A43           const [50]: (0)
C374  04                 const type 4
C375  12                 string size (18)
C376  6D436F6C756D6E53+  "mColumnS"
C37E  657061726174696F+  "eparatio"
C386  6E00               "n\0"
                         const [51]: "mColumnSeparation"
C388  03                 const type 3
C389  0000DC42           const [52]: (0)
C38D  04                 const type 4
C38E  10                 string size (16)
C38F  6D4578747261526F+  "mExtraRo"
C397  775363726F6C6C00   "wScroll\0"
                         const [53]: "mExtraRowScroll"
C39F  03                 const type 3
C3A0  0000803F           const [54]: (0)
C3A4  01                 const type 3
C3A5  371FB63D           const [55]: (1035345719)
C3A9  04                 const type 4
C3AA  0B                 string size (11)
C3AB  2E5363726F6C6C42+  ".ScrollB"
C3B3  617200             "ar\0"
                         const [56]: ".ScrollBar"
C3B6  01                 const type 3
C3B7  3685C1F9           const [57]: (-104757962)
C3BB  04                 const type 4
C3BC  13                 string size (19)
C3BD  6D4F6E466F637573+  "mOnFocus"
C3C5  656443616C6C6261+  "edCallba"
C3CD  636B00             "ck\0"
                         const [58]: "mOnFocusedCallback"
C3D0  04                 const type 4
C3D1  15                 string size (21)
C3D2  6D4F6E556E666F63+  "mOnUnfoc"
C3DA  7573656443616C6C+  "usedCall"
C3E2  6261636B00         "back\0"
                         const [59]: "mOnUnfocusedCallback"
C3E7  04                 const type 4
C3E8  14                 string size (20)
C3E9  6D4F6E53656C6563+  "mOnSelec"
C3F1  74656443616C6C62+  "tedCallb"
C3F9  61636B00           "ack\0"
                         const [60]: "mOnSelectedCallback"
C3FD  04                 const type 4
C3FE  15                 string size (21)
C3FF  6D456C656D656E74+  "mElement"
C407  4472617743616C6C+  "DrawCall"
C40F  6261636B00         "back\0"
                         const [61]: "mElementDrawCallback"
C414  04                 const type 4
C415  1C                 string size (28)
C416  5365747570507265+  "SetupPre"
C41E  496E746572706F6C+  "Interpol"
C426  6174696F6E56616C+  "ationVal"
C42E  75657300           "ues\0"
                         const [62]: "SetupPreInterpolationValues"
C432  04                 const type 4
C433  1B                 string size (27)
C434  476574496E746572+  "GetInter"
C43C  706F6C6174696F6E+  "polation"
C444  50726F7065727469+  "Properti"
C44C  657300             "es\0"
                         const [63]: "GetInterpolationProperties"
C44F  01                 const type 3
C450  66D9191C           const [64]: (471456102)
C454  04                 const type 4
C455  09                 string size (9)
C456  5F76697369626C65+  "_visible"
C45E  00                 "\0"
                         const [65]: "_visible"
                         * functions:
C45F  06                 sizep (6)
                         
C460                     ** function [0] definition (level 3)
                         ** start of function **
C460  00                 string size (0)
                         source name: (none)
C462  0A                 line defined (1370)
C463  DD                 last line defined (1373)
C464  0A                 nups (3)
C465  03                 numparams (1)
C466  01                 is_vararg (0)
C467  00                 maxstacksize (5)
                         * code:
C469  0B                 sizecode (11)
C46A  53000000           [01] getupval   1   0      
C46E  4E00C000           [02] gettable   1   1   256  ; 630793108
C472  9D400000           [03] getglobal  2   1        ; _G
C476  8E804001           [04] gettable   2   2   258  ; "UISound_Focus"
C47A  62400001           [05] call       1   2   1  
C47E  53008000           [06] getupval   1   1      
C482  93000001           [07] getupval   2   2      
C486  D2000000           [08] move       3   0      
C48A  17018000           [09] loadbool   4   1   0    ; true
C48E  62400002           [10] call       1   4   1  
C492  1E008000           [11] return     0   1      
                         * constants:
C496  03                 sizek (3)
C497  01                 const type 3
C498  94239925           const [0]: (630793108)
C49C  04                 const type 4
C49D  03                 string size (3)
C49E  5F4700             "_G\0"
                         const [1]: "_G"
C4A1  04                 const type 4
C4A2  0E                 string size (14)
C4A3  5549536F756E645F+  "UISound_"
C4AB  466F63757300       "Focus\0"
                         const [2]: "UISound_Focus"
                         * functions:
C4B1  00                 sizep (0)
                         * lines:
C4B2  0B                 sizelineinfo (11)
                         [pc] (line)
C4B3  5B                 [01] (91)
C4B4  05                 [02] (91)
C4B5  00                 [03] (91)
C4B6  00                 [04] (91)
C4B7  5B                 [05] (91)
C4B8  05                 [06] (92)
C4B9  00                 [07] (92)
C4BA  00                 [08] (92)
C4BB  5B                 [09] (92)
C4BC  05                 [10] (92)
C4BD  00                 [11] (93)
                         * locals:
C4DF  00                 sizelocvars (0)
                         * upvalues:
C4E0  00                 sizeupvalues (0)
                         ** end of function **

                         
C4E1                     ** function [1] definition (level 3)
                         ** start of function **
C4E1  00                 string size (0)
                         source name: (none)
C4E3  0A                 line defined (1375)
C4E4  E1                 last line defined (1377)
C4E5  0A                 nups (2)
C4E6  02                 numparams (1)
C4E7  01                 is_vararg (0)
C4E8  00                 maxstacksize (5)
                         * code:
C4EA  06                 sizecode (6)
C4EB  53000000           [1] getupval   1   0      
C4EF  93008000           [2] getupval   2   1      
C4F3  D2000000           [3] move       3   0      
C4F7  17010000           [4] loadbool   4   0   0    ; false
C4FB  62400002           [5] call       1   4   1  
C4FF  1E008000           [6] return     0   1      
                         * constants:
C503  00                 sizek (0)
                         * functions:
C504  00                 sizep (0)
                         * lines:
C505  06                 sizelineinfo (6)
                         [pc] (line)
C506  60                 [1] (96)
C507  05                 [2] (96)
C508  00                 [3] (96)
C509  00                 [4] (96)
C50A  60                 [5] (96)
C50B  05                 [6] (97)
                         * locals:
C51E  00                 sizelocvars (0)
                         * upvalues:
C51F  00                 sizeupvalues (0)
                         ** end of function **

                         
C520                     ** function [2] definition (level 3)
                         ** start of function **
C520  00                 string size (0)
                         source name: (none)
C522  0A                 line defined (1379)
C523  EF                 last line defined (1391)
C524  0A                 nups (4)
C525  04                 numparams (1)
C526  01                 is_vararg (0)
C527  00                 maxstacksize (4)
                         * code:
C529  16                 sizecode (22)
C52A  4E004000           [01] gettable   1   0   256  ; "Filler"
C52E  58000000           [02] test       1       0    ; to [4] if true
C532  1A000080           [03] jmp        1            ; to [5]
C536  1E008000           [04] return     0   1      
C53A  53000000           [05] getupval   1   0      
C53E  4E40C000           [06] gettable   1   1   257  ; 630793108
C542  9D800000           [07] getglobal  2   2        ; _G
C546  8EC04001           [08] gettable   2   2   259  ; "UISound_ButtonSelect"
C54A  62400001           [09] call       1   2   1  
C54E  53008000           [10] getupval   1   1      
C552  4E00C100           [11] gettable   1   1   260  ; "mSelectedElement"
fail op	35
C556  6340C100           [12] close      1  
C55A  1A400180           [13] jmp        6            ; to [20]
C55E  53000001           [14] getupval   1   2      
C562  93008000           [15] getupval   2   1      
C566  8E004101           [16] gettable   2   2   260  ; "mSelectedElement"
C56A  8E804101           [17] gettable   2   2   262  ; "mIndex"
C56E  CEC04100           [18] gettable   3   0   263  ; "mMod"
C572  62408001           [19] call       1   3   1  
C576  53008001           [20] getupval   1   3      
C57A  62408000           [21] call       1   1   1  
C57E  1E008000           [22] return     0   1      
                         * constants:
C582  08                 sizek (8)
C583  04                 const type 4
C584  07                 string size (7)
C585  46696C6C657200     "Filler\0"
                         const [0]: "Filler"
C58C  01                 const type 3
C58D  94239925           const [1]: (630793108)
C591  04                 const type 4
C592  03                 string size (3)
C593  5F4700             "_G\0"
                         const [2]: "_G"
C596  04                 const type 4
C597  15                 string size (21)
C598  5549536F756E645F+  "UISound_"
C5A0  427574746F6E5365+  "ButtonSe"
C5A8  6C65637400         "lect\0"
                         const [3]: "UISound_ButtonSelect"
C5AD  04                 const type 4
C5AE  11                 string size (17)
C5AF  6D53656C65637465+  "mSelecte"
C5B7  64456C656D656E74+  "dElement"
C5BF  00                 "\0"
                         const [4]: "mSelectedElement"
C5C0  00                 const type 0
                         const [5]: nil
C5C1  04                 const type 4
C5C2  07                 string size (7)
C5C3  6D496E64657800     "mIndex\0"
                         const [6]: "mIndex"
C5CA  04                 const type 4
C5CB  05                 string size (5)
C5CC  6D4D6F6400         "mMod\0"
                         const [7]: "mMod"
                         * functions:
C5D1  00                 sizep (0)
                         * lines:
C5D2  16                 sizelineinfo (22)
                         [pc] (line)
C5D3  64                 [01] (100)
C5D4  05                 [02] (100)
C5D5  00                 [03] (100)
C5D6  00                 [04] (101)
C5D7  64                 [05] (104)
C5D8  05                 [06] (104)
C5D9  00                 [07] (104)
C5DA  00                 [08] (104)
C5DB  64                 [09] (104)
C5DC  05                 [10] (106)
C5DD  00                 [11] (106)
C5DE  00                 [12] (106)
C5DF  65                 [13] (106)
C5E0  05                 [14] (107)
C5E1  00                 [15] (107)
C5E2  00                 [16] (107)
C5E3  68                 [17] (107)
C5E4  05                 [18] (107)
C5E5  00                 [19] (107)
C5E6  00                 [20] (110)
C5E7  68                 [21] (110)
C5E8  05                 [22] (111)
                         * locals:
C62B  00                 sizelocvars (0)
                         * upvalues:
C62C  00                 sizeupvalues (0)
                         ** end of function **

                         
C62D                     ** function [3] definition (level 3)
                         ** start of function **
C62D  00                 string size (0)
                         source name: (none)
C62F  0A                 line defined (1393)
C630  83                 last line defined (1411)
C631  0B                 nups (2)
C632  02                 numparams (1)
C633  01                 is_vararg (0)
C634  00                 maxstacksize (22)
                         * code:
C636  51                 sizecode (81)
C637  5D000000           [01] getglobal  1   0        ; mMovie
C63B  6440C000           [02] self       1   1   257  ; -2013161817
C63F  CE804000           [03] gettable   3   0   258  ; "mClipName"
C643  19C10000           [04] loadk      4   3        ; "TopIcon"
C647  59010100           [05] loadk      5   4        ; "_visible"
C64B  97010000           [06] loadbool   6   0   0    ; false
C64F  62400003           [07] call       1   6   1  
C653  5D000000           [08] getglobal  1   0        ; mMovie
C657  6440C000           [09] self       1   1   257  ; -2013161817
C65B  CE804000           [10] gettable   3   0   258  ; "mClipName"
C65F  19410100           [11] loadk      4   5        ; "TopDiamond"
C663  59010100           [12] loadk      5   4        ; "_visible"
C667  97010000           [13] loadbool   6   0   0    ; false
C66B  62400003           [14] call       1   6   1  
C66F  4B000008           [15] newtable   1   16  0    ; array=16, hash=0
C673  99800100           [16] loadk      2   6        ; "Backer"
C677  D9C00100           [17] loadk      3   7        ; "OuterBorder"
C67B  19010200           [18] loadk      4   8        ; "BottomDiamond"
C67F  59410200           [19] loadk      5   9        ; "DoubleWideFill"
C683  99810200           [20] loadk      6   10       ; "DiamondBorder"
C687  D9C10000           [21] loadk      7   3        ; "TopIcon"
C68B  19C20200           [22] loadk      8   11       ; "Icon"
C68F  59020300           [23] loadk      9   12       ; "DisabledInnerBorder"
C693  99420300           [24] loadk      10  13       ; "InnerBorder"
C697  D9820300           [25] loadk      11  14       ; "EmptyMod"
C69B  19C30300           [26] loadk      12  15       ; "ModBacker"
C69F  59030400           [27] loadk      13  16       ; "DividerDetailLeft"
C6A3  99430400           [28] loadk      14  17       ; "DividerDetailRight"
C6A7  D9830400           [29] loadk      15  18       ; "InnerGlowSmall"
C6AB  19C40400           [30] loadk      16  19       ; "InnerGlowBig"
C6AF  59040500           [31] loadk      17  20       ; "RadialGlow"
C6B3  5B400008           [32] setlist    1   16  1    ; index 1 to 16
C6B7  99400500           [33] loadk      2   21       ; 0
C6BB  D9800500           [34] loadk      3   22       ; 0
C6BF  19410500           [35] loadk      4   21       ; 0
C6C3  90800180           [36] forprep    2   7        ; to [44]
C6C7  9DC10500           [37] getglobal  6   23       ; table
C6CB  8E014603           [38] gettable   6   6   280  ; -431682403
C6CF  D2018000           [39] move       7   1      
C6D3  19420600           [40] loadk      8   25       ; "HoverBorders.Border"
C6D7  52028002           [41] move       9   5      
C6DB  02420204           [42] concat     8   8   9  
C6DF  A2418001           [43] call       6   3   1  
C6E3  94C0FD7F           [44] forloop    2   -8       ; to [37] if loop
C6E7  9D810600           [45] getglobal  6   26       ; 248503575
C6EB  D2018000           [46] move       7   1      
C6EF  A2010101           [47] call       6   2   4  
C6F3  1AC00180           [48] jmp        8            ; to [57]
C6F7  DD020000           [49] getglobal  11  0        ; mMovie
C6FB  E4C2C605           [50] self       11  11  283  ; 2115970775
C6FF  4E834000           [51] gettable   13  0   258  ; "mClipName"
C703  99030700           [52] loadk      14  28       ; "."
C707  D2030005           [53] move       15  10     
C70B  42C38306           [54] concat     13  13  15 
C70F  9D430700           [55] getglobal  14  29       ; pickerGridVisRangeMaterial
C713  E2420002           [56] call       11  4   1  
C717  96810000           [57] tforloop   6       2    ; to [59] if exit
C71B  1A40FD7F           [58] jmp        -10          ; to [49]
C71F  CB028000           [59] newtable   11  1   0    ; array=1, hash=0
C723  19830700           [60] loadk      12  30       ; "Drain"
C727  DB428000           [61] setlist    11  1   1    ; index 1 to 1
C72B  1D830600           [62] getglobal  12  26       ; 248503575
C72F  52038005           [63] move       13  11     
C733  22030101           [64] call       12  2   4  
C737  1AC00180           [65] jmp        8            ; to [74]
C73B  5D040000           [66] getglobal  17  0        ; mMovie
C73F  64C4C608           [67] self       17  17  283  ; 2115970775
C743  CE844000           [68] gettable   19  0   258  ; "mClipName"
C747  19050700           [69] loadk      20  28       ; "."
C74B  52050008           [70] move       21  16     
C74F  C2448509           [71] concat     19  19  21 
C753  1DC50700           [72] getglobal  20  31       ; pickerGridVisRangeTextMaterial
C757  62440002           [73] call       17  4   1  
C75B  16830000           [74] tforloop   12      2    ; to [76] if exit
C75F  1A40FD7F           [75] jmp        -10          ; to [66]
C763  53040000           [76] getupval   17  0      
C767  93048000           [77] getupval   18  1      
C76B  8E044809           [78] gettable   18  18  288  ; "Grid"
C76F  D2040000           [79] move       19  0      
C773  62448001           [80] call       17  3   1  
C777  1E008000           [81] return     0   1      
                         * constants:
C77B  21                 sizek (33)
C77C  04                 const type 4
C77D  07                 string size (7)
C77E  6D4D6F76696500     "mMovie\0"
                         const [0]: "mMovie"
C785  01                 const type 3
C786  A7960188           const [1]: (-2013161817)
C78A  04                 const type 4
C78B  0A                 string size (10)
C78C  6D436C69704E616D+  "mClipNam"
C794  6500               "e\0"
                         const [2]: "mClipName"
C796  04                 const type 4
C797  08                 string size (8)
C798  546F7049636F6E00   "TopIcon\0"
                         const [3]: "TopIcon"
C7A0  04                 const type 4
C7A1  09                 string size (9)
C7A2  5F76697369626C65+  "_visible"
C7AA  00                 "\0"
                         const [4]: "_visible"
C7AB  04                 const type 4
C7AC  0B                 string size (11)
C7AD  546F704469616D6F+  "TopDiamo"
C7B5  6E6400             "nd\0"
                         const [5]: "TopDiamond"
C7B8  04                 const type 4
C7B9  07                 string size (7)
C7BA  4261636B657200     "Backer\0"
                         const [6]: "Backer"
C7C1  04                 const type 4
C7C2  0C                 string size (12)
C7C3  4F75746572426F72+  "OuterBor"
C7CB  64657200           "der\0"
                         const [7]: "OuterBorder"
C7CF  04                 const type 4
C7D0  0E                 string size (14)
C7D1  426F74746F6D4469+  "BottomDi"
C7D9  616D6F6E6400       "amond\0"
                         const [8]: "BottomDiamond"
C7DF  04                 const type 4
C7E0  0F                 string size (15)
C7E1  446F75626C655769+  "DoubleWi"
C7E9  646546696C6C00     "deFill\0"
                         const [9]: "DoubleWideFill"
C7F0  04                 const type 4
C7F1  0E                 string size (14)
C7F2  4469616D6F6E6442+  "DiamondB"
C7FA  6F7264657200       "order\0"
                         const [10]: "DiamondBorder"
C800  04                 const type 4
C801  05                 string size (5)
C802  49636F6E00         "Icon\0"
                         const [11]: "Icon"
C807  04                 const type 4
C808  14                 string size (20)
C809  44697361626C6564+  "Disabled"
C811  496E6E6572426F72+  "InnerBor"
C819  64657200           "der\0"
                         const [12]: "DisabledInnerBorder"
C81D  04                 const type 4
C81E  0C                 string size (12)
C81F  496E6E6572426F72+  "InnerBor"
C827  64657200           "der\0"
                         const [13]: "InnerBorder"
C82B  04                 const type 4
C82C  09                 string size (9)
C82D  456D7074794D6F64+  "EmptyMod"
C835  00                 "\0"
                         const [14]: "EmptyMod"
C836  04                 const type 4
C837  0A                 string size (10)
C838  4D6F644261636B65+  "ModBacke"
C840  7200               "r\0"
                         const [15]: "ModBacker"
C842  04                 const type 4
C843  12                 string size (18)
C844  4469766964657244+  "DividerD"
C84C  657461696C4C6566+  "etailLef"
C854  7400               "t\0"
                         const [16]: "DividerDetailLeft"
C856  04                 const type 4
C857  13                 string size (19)
C858  4469766964657244+  "DividerD"
C860  657461696C526967+  "etailRig"
C868  687400             "ht\0"
                         const [17]: "DividerDetailRight"
C86B  04                 const type 4
C86C  0F                 string size (15)
C86D  496E6E6572476C6F+  "InnerGlo"
C875  77536D616C6C00     "wSmall\0"
                         const [18]: "InnerGlowSmall"
C87C  04                 const type 4
C87D  0D                 string size (13)
C87E  496E6E6572476C6F+  "InnerGlo"
C886  7742696700         "wBig\0"
                         const [19]: "InnerGlowBig"
C88B  04                 const type 4
C88C  0B                 string size (11)
C88D  52616469616C476C+  "RadialGl"
C895  6F7700             "ow\0"
                         const [20]: "RadialGlow"
C898  03                 const type 3
C899  0000803F           const [21]: (0)
C89D  03                 const type 3
C89E  00008040           const [22]: (0)
C8A2  04                 const type 4
C8A3  06                 string size (6)
C8A4  7461626C6500       "table\0"
                         const [23]: "table"
C8AA  01                 const type 3
C8AB  9D0C45E6           const [24]: (-431682403)
C8AF  04                 const type 4
C8B0  14                 string size (20)
C8B1  486F766572426F72+  "HoverBor"
C8B9  646572732E426F72+  "ders.Bor"
C8C1  64657200           "der\0"
                         const [25]: "HoverBorders.Border"
C8C5  01                 const type 3
C8C6  17DDCF0E           const [26]: (248503575)
C8CA  01                 const type 3
C8CB  D7261F7E           const [27]: (2115970775)
C8CF  04                 const type 4
C8D0  02                 string size (2)
C8D1  2E00               ".\0"
                         const [28]: "."
C8D3  04                 const type 4
C8D4  1B                 string size (27)
C8D5  7069636B65724772+  "pickerGr"
C8DD  696456697352616E+  "idVisRan"
C8E5  67654D6174657269+  "geMateri"
C8ED  616C00             "al\0"
                         const [29]: "pickerGridVisRangeMaterial"
C8F0  04                 const type 4
C8F1  06                 string size (6)
C8F2  447261696E00       "Drain\0"
                         const [30]: "Drain"
C8F8  04                 const type 4
C8F9  1F                 string size (31)
C8FA  7069636B65724772+  "pickerGr"
C902  696456697352616E+  "idVisRan"
C90A  6765546578744D61+  "geTextMa"
C912  74657269616C00     "terial\0"
                         const [31]: "pickerGridVisRangeTextMaterial"
C919  04                 const type 4
C91A  05                 string size (5)
C91B  4772696400         "Grid\0"
                         const [32]: "Grid"
                         * functions:
C920  00                 sizep (0)
                         * lines:
C921  51                 sizelineinfo (81)
                         [pc] (line)
C922  72                 [01] (114)
C923  05                 [02] (114)
C924  00                 [03] (114)
C925  00                 [04] (114)
C926  72                 [05] (114)
C927  05                 [06] (114)
C928  00                 [07] (114)
C929  00                 [08] (115)
C92A  72                 [09] (115)
C92B  05                 [10] (115)
C92C  00                 [11] (115)
C92D  00                 [12] (115)
C92E  72                 [13] (115)
C92F  05                 [14] (115)
C930  00                 [15] (117)
C931  00                 [16] (117)
C932  72                 [17] (117)
C933  05                 [18] (117)
C934  00                 [19] (117)
C935  00                 [20] (117)
C936  72                 [21] (117)
C937  05                 [22] (117)
C938  00                 [23] (117)
C939  00                 [24] (117)
C93A  72                 [25] (117)
C93B  05                 [26] (117)
C93C  00                 [27] (117)
C93D  00                 [28] (117)
C93E  73                 [29] (117)
C93F  05                 [30] (117)
C940  00                 [31] (117)
C941  00                 [32] (117)
C942  73                 [33] (118)
C943  05                 [34] (118)
C944  00                 [35] (118)
C945  00                 [36] (118)
C946  73                 [37] (119)
C947  05                 [38] (119)
C948  00                 [39] (119)
C949  00                 [40] (119)
C94A  73                 [41] (119)
C94B  05                 [42] (119)
C94C  00                 [43] (119)
C94D  00                 [44] (118)
C94E  73                 [45] (121)
C94F  05                 [46] (121)
C950  00                 [47] (121)
C951  00                 [48] (121)
C952  73                 [49] (122)
C953  05                 [50] (122)
C954  00                 [51] (122)
C955  00                 [52] (122)
C956  73                 [53] (122)
C957  05                 [54] (122)
C958  00                 [55] (122)
C959  00                 [56] (122)
C95A  75                 [57] (121)
C95B  05                 [58] (122)
C95C  00                 [59] (125)
C95D  00                 [60] (125)
C95E  75                 [61] (125)
C95F  05                 [62] (126)
C960  00                 [63] (126)
C961  00                 [64] (126)
C962  75                 [65] (126)
C963  05                 [66] (127)
C964  00                 [67] (127)
C965  00                 [68] (127)
C966  75                 [69] (127)
C967  05                 [70] (127)
C968  00                 [71] (127)
C969  00                 [72] (127)
C96A  75                 [73] (127)
C96B  05                 [74] (126)
C96C  00                 [75] (127)
C96D  00                 [76] (-126)
C96E  75                 [77] (-126)
C96F  05                 [78] (-126)
C970  00                 [79] (-126)
C971  00                 [80] (-126)
C972  75                 [81] (-125)
                         * locals:
CA66  00                 sizelocvars (0)
                         * upvalues:
CA67  00                 sizeupvalues (0)
                         ** end of function **

                         
CA68                     ** function [4] definition (level 3)
                         ** start of function **
CA68  00                 string size (0)
                         source name: (none)
CA6A  0B                 line defined (1413)
CA6B  86                 last line defined (1414)
CA6C  0B                 nups (0)
CA6D  00                 numparams (2)
CA6E  02                 is_vararg (0)
CA6F  00                 maxstacksize (2)
                         * code:
CA71  01                 sizecode (1)
CA72  1E008000           [1] return     0   1      
                         * constants:
CA76  00                 sizek (0)
                         * functions:
CA77  00                 sizep (0)
                         * lines:
CA78  01                 sizelineinfo (1)
                         [pc] (line)
CA79  86                 [1] (-122)
                         * locals:
CA7D  00                 sizelocvars (0)
                         * upvalues:
CA7E  00                 sizeupvalues (0)
                         ** end of function **

                         
CA7F                     ** function [5] definition (level 3)
                         ** start of function **
CA7F  00                 string size (0)
                         source name: (none)
CA81  0B                 line defined (1416)
CA82  8A                 last line defined (1418)
CA83  0B                 nups (0)
CA84  00                 numparams (2)
CA85  02                 is_vararg (0)
CA86  00                 maxstacksize (5)
                         * code:
CA88  08                 sizecode (8)
CA89  8B008000           [1] newtable   2   1   0    ; array=1, hash=0
CA8D  D9000000           [2] loadk      3   0        ; "_alpha"
CA91  9B408000           [3] setlist    2   1   1    ; index 1 to 1
CA95  CB008000           [4] newtable   3   1   0    ; array=1, hash=0
CA99  19410000           [5] loadk      4   1        ; 0
CA9D  DB408000           [6] setlist    3   1   1    ; index 1 to 1
CAA1  9E008001           [7] return     2   3      
CAA5  1E008000           [8] return     0   1      
                         * constants:
CAA9  02                 sizek (2)
CAAA  04                 const type 4
CAAB  07                 string size (7)
CAAC  5F616C70686100     "_alpha\0"
                         const [0]: "_alpha"
CAB3  03                 const type 3
CAB4  0000C842           const [1]: (0)
                         * functions:
CAB8  00                 sizep (0)
                         * lines:
CAB9  08                 sizelineinfo (8)
                         [pc] (line)
CABA  89                 [1] (-119)
CABB  05                 [2] (-119)
CABC  00                 [3] (-119)
CABD  00                 [4] (-119)
CABE  89                 [5] (-119)
CABF  05                 [6] (-119)
CAC0  00                 [7] (-119)
CAC1  00                 [8] (-118)
                         * locals:
CADA  00                 sizelocvars (0)
                         * upvalues:
CADB  00                 sizeupvalues (0)
                         ** end of function **

                         * lines:
CADD  01                 sizelineinfo (204)
                         [pc] (line)
CADE  38                 [001] (56)
CADF  05                 [002] (58)
CAE0  00                 [003] (58)
CAE1  00                 [004] (58)
CAE2  3A                 [005] (58)
CAE3  05                 [006] (58)
CAE4  00                 [007] (58)
CAE5  00                 [008] (58)
CAE6  3A                 [009] (59)
CAE7  05                 [010] (59)
CAE8  00                 [011] (59)
CAE9  00                 [012] (59)
CAEA  3A                 [013] (59)
CAEB  05                 [014] (59)
CAEC  00                 [015] (59)
CAED  00                 [016] (59)
CAEE  3A                 [017] (60)
CAEF  05                 [018] (60)
CAF0  00                 [019] (60)
CAF1  00                 [020] (60)
CAF2  3A                 [021] (60)
CAF3  05                 [022] (60)
CAF4  00                 [023] (60)
CAF5  00                 [024] (62)
CAF6  3A                 [025] (62)
CAF7  05                 [026] (62)
CAF8  00                 [027] (62)
CAF9  00                 [028] (62)
CAFA  3A                 [029] (62)
CAFB  05                 [030] (62)
CAFC  00                 [031] (62)
CAFD  00                 [032] (63)
CAFE  3B                 [033] (63)
CAFF  05                 [034] (63)
CB00  00                 [035] (63)
CB01  00                 [036] (63)
CB02  3B                 [037] (63)
CB03  05                 [038] (63)
CB04  00                 [039] (64)
CB05  00                 [040] (64)
CB06  3B                 [041] (64)
CB07  05                 [042] (64)
CB08  00                 [043] (64)
CB09  00                 [044] (64)
CB0A  3B                 [045] (64)
CB0B  05                 [046] (66)
CB0C  00                 [047] (66)
CB0D  00                 [048] (66)
CB0E  3B                 [049] (66)
CB0F  05                 [050] (66)
CB10  00                 [051] (66)
CB11  00                 [052] (66)
CB12  3B                 [053] (66)
CB13  05                 [054] (67)
CB14  00                 [055] (67)
CB15  00                 [056] (67)
CB16  3B                 [057] (67)
CB17  05                 [058] (67)
CB18  00                 [059] (67)
CB19  00                 [060] (67)
CB1A  3B                 [061] (68)
CB1B  05                 [062] (68)
CB1C  00                 [063] (68)
CB1D  00                 [064] (68)
CB1E  3C                 [065] (68)
CB1F  05                 [066] (68)
CB20  00                 [067] (68)
CB21  00                 [068] (70)
CB22  3C                 [069] (70)
CB23  05                 [070] (70)
CB24  00                 [071] (70)
CB25  00                 [072] (70)
CB26  3C                 [073] (70)
CB27  05                 [074] (70)
CB28  00                 [075] (70)
CB29  00                 [076] (72)
CB2A  3C                 [077] (72)
CB2B  05                 [078] (72)
CB2C  00                 [079] (73)
CB2D  00                 [080] (73)
CB2E  3C                 [081] (73)
CB2F  05                 [082] (73)
CB30  00                 [083] (73)
CB31  00                 [084] (73)
CB32  3C                 [085] (73)
CB33  05                 [086] (73)
CB34  00                 [087] (73)
CB35  00                 [088] (73)
CB36  3C                 [089] (73)
CB37  05                 [090] (73)
CB38  00                 [091] (74)
CB39  00                 [092] (74)
CB3A  3E                 [093] (74)
CB3B  05                 [094] (74)
CB3C  00                 [095] (74)
CB3D  00                 [096] (76)
CB3E  3E                 [097] (76)
CB3F  05                 [098] (76)
CB40  00                 [099] (76)
CB41  00                 [100] (76)
CB42  3E                 [101] (76)
CB43  05                 [102] (76)
CB44  00                 [103] (76)
CB45  00                 [104] (76)
CB46  3E                 [105] (76)
CB47  05                 [106] (76)
CB48  00                 [107] (76)
CB49  00                 [108] (77)
CB4A  3E                 [109] (77)
CB4B  05                 [110] (77)
CB4C  00                 [111] (77)
CB4D  00                 [112] (77)
CB4E  3E                 [113] (79)
CB4F  05                 [114] (79)
CB50  00                 [115] (79)
CB51  00                 [116] (79)
CB52  3E                 [117] (79)
CB53  05                 [118] (79)
CB54  00                 [119] (79)
CB55  00                 [120] (81)
CB56  3E                 [121] (81)
CB57  05                 [122] (81)
CB58  00                 [123] (82)
CB59  00                 [124] (82)
CB5A  3F                 [125] (82)
CB5B  05                 [126] (82)
CB5C  00                 [127] (82)
CB5D  00                 [128] (82)
CB5E  3F                 [129] (82)
CB5F  05                 [130] (82)
CB60  00                 [131] (82)
CB61  00                 [132] (82)
CB62  3F                 [133] (82)
CB63  05                 [134] (83)
CB64  00                 [135] (83)
CB65  00                 [136] (83)
CB66  3F                 [137] (83)
CB67  05                 [138] (83)
CB68  00                 [139] (83)
CB69  00                 [140] (83)
CB6A  3F                 [141] (83)
CB6B  05                 [142] (84)
CB6C  00                 [143] (84)
CB6D  00                 [144] (84)
CB6E  3F                 [145] (85)
CB6F  05                 [146] (85)
CB70  00                 [147] (85)
CB71  00                 [148] (86)
CB72  3F                 [149] (86)
CB73  05                 [150] (86)
CB74  00                 [151] (87)
CB75  00                 [152] (87)
CB76  40                 [153] (87)
CB77  05                 [154] (87)
CB78  00                 [155] (87)
CB79  00                 [156] (87)
CB7A  40                 [157] (87)
CB7B  05                 [158] (87)
CB7C  00                 [159] (88)
CB7D  00                 [160] (88)
CB7E  40                 [161] (88)
CB7F  05                 [162] (88)
CB80  00                 [163] (89)
CB81  00                 [164] (89)
CB82  40                 [165] (93)
CB83  05                 [166] (93)
CB84  00                 [167] (93)
CB85  00                 [168] (93)
CB86  40                 [169] (93)
CB87  05                 [170] (94)
CB88  00                 [171] (94)
CB89  00                 [172] (97)
CB8A  40                 [173] (97)
CB8B  05                 [174] (97)
CB8C  00                 [175] (97)
CB8D  00                 [176] (98)
CB8E  40                 [177] (98)
CB8F  05                 [178] (111)
CB90  00                 [179] (111)
CB91  00                 [180] (111)
CB92  42                 [181] (111)
CB93  05                 [182] (111)
CB94  00                 [183] (111)
CB95  00                 [184] (112)
CB96  42                 [185] (112)
CB97  05                 [186] (-125)
CB98  00                 [187] (-125)
CB99  00                 [188] (-125)
CB9A  42                 [189] (-125)
CB9B  05                 [190] (-124)
CB9C  00                 [191] (-124)
CB9D  00                 [192] (-122)
CB9E  42                 [193] (-122)
CB9F  05                 [194] (-121)
CBA0  00                 [195] (-121)
CBA1  00                 [196] (-118)
CBA2  42                 [197] (-118)
CBA3  05                 [198] (-116)
CBA4  00                 [199] (-116)
CBA5  00                 [200] (-116)
CBA6  42                 [201] (-116)
CBA7  05                 [202] (-116)
CBA8  00                 [203] (-116)
CBA9  00                 [204] (-115)
                         * locals:
CE0E  00                 sizelocvars (0)
                         * upvalues:
CE0F  00                 sizeupvalues (0)
                         ** end of function **

                         
CE10                     ** function [43] definition (level 2)
                         ** start of function **
CE10  00                 string size (0)
                         source name: (none)
CE12  0B                 line defined (1423)
CE13  9E                 last line defined (1438)
CE14  0B                 nups (3)
CE15  03                 numparams (0)
CE16  00                 is_vararg (0)
CE17  00                 maxstacksize (9)
                         * code:
CE19  2B                 sizecode (43)
CE1A  1D000000           [01] getglobal  0   0        ; 1074689893
CE1E  53000000           [02] getupval   1   0      
CE22  22800001           [03] call       0   2   2  
CE26  18000000           [04] test       0       0    ; to [6] if true
CE2A  1A000080           [05] jmp        1            ; to [7]
CE2E  1E008000           [06] return     0   1      
CE32  13000000           [07] getupval   0   0      
CE36  24404000           [08] self       0   0   257  ; -1917464545
CE3A  22800001           [09] call       0   2   2  
CE3E  24804000           [10] self       0   0   258  ; 1769516121
CE42  22800001           [11] call       0   2   2  
CE46  24C04000           [12] self       0   0   259  ; 666345268
CE4A  22800001           [13] call       0   2   2  
CE4E  59000100           [14] loadk      1   4        ; 0
CE52  8A000000           [15] len        2   0      
CE56  D9000100           [16] loadk      3   4        ; 0
CE5A  50C00580           [17] forprep    1   24       ; to [42]
CE5E  53018000           [18] getupval   5   1      
CE62  6441C102           [19] self       5   5   261  ; -681678822
CE66  D2010002           [20] move       7   4      
CE6A  62818001           [21] call       5   3   2  
CE6E  9D010000           [22] getglobal  6   0        ; 1074689893
CE72  D2018002           [23] move       7   5      
CE76  A2810001           [24] call       6   2   2  
CE7A  98410000           [25] test       6       1    ; to [27] if false
CE7E  1A800380           [26] jmp        15           ; to [42]
CE82  93010001           [27] getupval   6   2      
CE86  8E010103           [28] gettable   6   6   4  
CE8A  8E810100           [29] gettable   6   0   6  
CE8E  CBC10000           [30] newtable   7   0   3    ; array=0, hash=3
CE92  0EC24103           [31] gettable   8   6   263  ; "mOn"
CE96  CC018283           [32] settable   7   263 8    ; "mOn"
CE9A  0E024203           [33] gettable   8   6   264  ; "mPowered"
CE9E  CC010284           [34] settable   7   264 8    ; "mPowered"
CEA2  0E424203           [35] gettable   8   6   265  ; "mDamaged"
CEA6  CC018284           [36] settable   7   265 8    ; "mDamaged"
CEAA  4CC10183           [37] settable   5   262 7    ; "mStatus"
CEAE  D3018000           [38] getupval   7   1      
CEB2  CE81C203           [39] gettable   7   7   266  ; -1552746934
CEB6  12028002           [40] move       8   5      
CEBA  E2410001           [41] call       7   2   1  
CEBE  5480F97F           [42] forloop    1   -25      ; to [18] if loop
CEC2  1E008000           [43] return     0   1      
                         * constants:
CEC6  0B                 sizek (11)
CEC7  01                 const type 3
CEC8  65770E40           const [0]: (1074689893)
CECC  01                 const type 3
CECD  1FD0B58D           const [1]: (-1917464545)
CED1  01                 const type 3
CED2  59AC7869           const [2]: (1769516121)
CED6  01                 const type 3
CED7  349FB727           const [3]: (666345268)
CEDB  03                 const type 3
CEDC  0000803F           const [4]: (0)
CEE0  01                 const type 3
CEE1  1A685ED7           const [5]: (-681678822)
CEE5  04                 const type 4
CEE6  08                 string size (8)
CEE7  6D53746174757300   "mStatus\0"
                         const [6]: "mStatus"
CEEF  04                 const type 4
CEF0  04                 string size (4)
CEF1  6D4F6E00           "mOn\0"
                         const [7]: "mOn"
CEF5  04                 const type 4
CEF6  09                 string size (9)
CEF7  6D506F7765726564+  "mPowered"
CEFF  00                 "\0"
                         const [8]: "mPowered"
CF00  04                 const type 4
CF01  09                 string size (9)
CF02  6D44616D61676564+  "mDamaged"
CF0A  00                 "\0"
                         const [9]: "mDamaged"
CF0B  01                 const type 3
CF0C  4AF672A3           const [10]: (-1552746934)
                         * functions:
CF10  00                 sizep (0)
                         * lines:
CF11  2B                 sizelineinfo (43)
                         [pc] (line)
CF12  90                 [01] (-112)
CF13  05                 [02] (-112)
CF14  00                 [03] (-112)
CF15  00                 [04] (-112)
CF16  90                 [05] (-112)
CF17  05                 [06] (-111)
CF18  00                 [07] (-108)
CF19  00                 [08] (-108)
CF1A  90                 [09] (-108)
CF1B  05                 [10] (-108)
CF1C  00                 [11] (-108)
CF1D  00                 [12] (-108)
CF1E  90                 [13] (-108)
CF1F  05                 [14] (-107)
CF20  00                 [15] (-107)
CF21  00                 [16] (-107)
CF22  90                 [17] (-107)
CF23  05                 [18] (-106)
CF24  00                 [19] (-106)
CF25  00                 [20] (-106)
CF26  91                 [21] (-106)
CF27  05                 [22] (-105)
CF28  00                 [23] (-105)
CF29  00                 [24] (-105)
CF2A  94                 [25] (-105)
CF2B  05                 [26] (-105)
CF2C  00                 [27] (-104)
CF2D  00                 [28] (-104)
CF2E  94                 [29] (-104)
CF2F  05                 [30] (-102)
CF30  00                 [31] (-102)
CF31  00                 [32] (-102)
CF32  94                 [33] (-102)
CF33  05                 [34] (-102)
CF34  00                 [35] (-102)
CF35  00                 [36] (-102)
CF36  94                 [37] (-102)
CF37  05                 [38] (-101)
CF38  00                 [39] (-101)
CF39  00                 [40] (-101)
CF3A  94                 [41] (-101)
CF3B  05                 [42] (-107)
CF3C  00                 [43] (-98)
                         * locals:
CFBE  00                 sizelocvars (0)
                         * upvalues:
CFBF  00                 sizeupvalues (0)
                         ** end of function **

                         
CFC0                     ** function [44] definition (level 2)
                         ** start of function **
CFC0  00                 string size (0)
                         source name: (none)
CFC2  0B                 line defined (1440)
CFC3  A2                 last line defined (1442)
CFC4  0B                 nups (1)
CFC5  01                 numparams (0)
CFC6  00                 is_vararg (0)
CFC7  00                 maxstacksize (2)
                         * code:
CFC9  03                 sizecode (3)
CFCA  13000000           [1] getupval   0   0      
CFCE  22408000           [2] call       0   1   1  
CFD2  1E008000           [3] return     0   1      
                         * constants:
CFD6  00                 sizek (0)
                         * functions:
CFD7  00                 sizep (0)
                         * lines:
CFD8  03                 sizelineinfo (3)
                         [pc] (line)
CFD9  A1                 [1] (-95)
CFDA  05                 [2] (-95)
CFDB  00                 [3] (-94)
                         * locals:
CFE5  00                 sizelocvars (0)
                         * upvalues:
CFE6  00                 sizeupvalues (0)
                         ** end of function **

                         
CFE7                     ** function [45] definition (level 2)
                         ** start of function **
CFE7  00                 string size (0)
                         source name: (none)
CFE9  0B                 line defined (1444)
CFEA  F7                 last line defined (1527)
CFEB  0B                 nups (27)
CFEC  1B                 numparams (0)
CFED  00                 is_vararg (0)
CFEE  00                 maxstacksize (11)
                         * code:
CFF1  01                 sizecode (204)
CFF2  13000000           [001] getupval   0   0      
CFF6  22408000           [002] call       0   1   1  
CFFA  13008000           [003] getupval   0   1      
CFFE  0E004000           [004] gettable   0   0   256  ; -2065906648
D002  22808000           [005] call       0   1   2  
D006  53000001           [006] getupval   1   2      
D00A  4E40C000           [007] gettable   1   1   257  ; "ENABLE"
D00E  93008000           [008] getupval   2   1      
D012  8E804001           [009] gettable   2   2   258  ; "UI_MODE_IN_DOJO"
fail op	35
D016  23800000           [010] close      0  
D01A  1A800580           [011] jmp        23           ; to [35]
D01E  9DC00000           [012] getglobal  2   3        ; 1074689893
D022  D3008001           [013] getupval   3   3      
D026  CE00C101           [014] gettable   3   3   260  ; "item"
D02A  A2800001           [015] call       2   2   2  
D02E  98400000           [016] test       2       1    ; to [18] if false
D032  1A800380           [017] jmp        15           ; to [33]
D036  9DC00000           [018] getglobal  2   3        ; 1074689893
D03A  D3000002           [019] getupval   3   4      
D03E  A2800001           [020] call       2   2   2  
D042  98400000           [021] test       2       1    ; to [23] if false
D046  1A400280           [022] jmp        10           ; to [33]
D04A  93008001           [023] getupval   2   3      
D04E  8E004101           [024] gettable   2   2   260  ; "item"
D052  A4404101           [025] self       2   2   261  ; 1120605171
D056  13010002           [026] getupval   4   4      
D05A  A2808001           [027] call       2   3   2  
D05E  98000000           [028] test       2       0    ; to [30] if true
D062  1A800080           [029] jmp        3            ; to [33]
D066  93000001           [030] getupval   2   2      
D06A  4E404001           [031] gettable   1   2   257  ; "ENABLE"
D06E  1A400080           [032] jmp        2            ; to [35]
D072  93000001           [033] getupval   2   2      
D076  4E804101           [034] gettable   1   2   262  ; "INSTALL"
fail op	8
D07A  48008002           [035] setupval   1   5      
D07E  9DC00100           [036] getglobal  2   7        ; 849075268
D082  D9000200           [037] loadk      3   8        ; "Lotus.Interface.Components.ThemedButton"
D086  A2800001           [038] call       2   2   2  
D08A  CE404201           [039] gettable   3   2   265  ; 1191123516
D08E  1D810200           [040] getglobal  4   10       ; mMovie
D092  59C10200           [041] loadk      5   11       ; "SystemStage.TacticalBtn"
D096  99010300           [042] loadk      6   12       ; "/Lotus/Language/CrewShip/CommandConsole_Tactical"
D09A  D9410300           [043] loadk      7   13       ; "OnTacticalMapPressed"
D09E  19820300           [044] loadk      8   14       ; "<MENU_GENERIC1>"
D0A2  E2800003           [045] call       3   6   2  
fail op	8
D0A6  C8000003           [046] setupval   3   6      
D0AA  D3000003           [047] getupval   3   6      
D0AE  E4C0C301           [048] self       3   3   271  ; -1464598297
D0B2  E2400001           [049] call       3   2   1  
D0B6  D3000003           [050] getupval   3   6      
D0BA  E400C401           [051] self       3   3   272  ; -2011541260
D0BE  59410400           [052] loadk      5   17       ; 0
D0C2  E2408001           [053] call       3   3   1  
D0C6  D3000003           [054] getupval   3   6      
D0CA  E480C401           [055] self       3   3   274  ; 1649906088
D0CE  53018002           [056] getupval   5   5      
D0D2  93010001           [057] getupval   6   2      
D0D6  8E414003           [058] gettable   6   6   257  ; "ENABLE"
fail op	35
D0DA  63808102           [059] close      1  
D0DE  1A000080           [060] jmp        1            ; to [62]
D0E2  57410000           [061] loadbool   5   0   1    ; false, to [63]
D0E6  57018000           [062] loadbool   5   1   0    ; true
D0EA  E2408001           [063] call       3   3   1  
D0EE  D3000003           [064] getupval   3   6      
D0F2  E4C0C401           [065] self       3   3   275  ; 1685109492
D0F6  E2400001           [066] call       3   2   1  
D0FA  CE404201           [067] gettable   3   2   265  ; 1191123516
D0FE  1D810200           [068] getglobal  4   10       ; mMovie
D102  59010500           [069] loadk      5   20       ; "SystemStage.CameraBtn"
D106  99410500           [070] loadk      6   21       ; "CAM"
D10A  D9810500           [071] loadk      7   22       ; "OnCameraPressed"
D10E  19820300           [072] loadk      8   14       ; "<MENU_GENERIC1>"
D112  E2800003           [073] call       3   6   2  
fail op	8
D116  C8008003           [074] setupval   3   7      
D11A  D3008003           [075] getupval   3   7      
D11E  E4C0C301           [076] self       3   3   271  ; -1464598297
D122  E2400001           [077] call       3   2   1  
D126  D3008003           [078] getupval   3   7      
D12A  E400C401           [079] self       3   3   272  ; -2011541260
D12E  59C10500           [080] loadk      5   23       ; 0
D132  E2408001           [081] call       3   3   1  
D136  D3008003           [082] getupval   3   7      
D13A  E480C401           [083] self       3   3   274  ; 1649906088
D13E  57010000           [084] loadbool   5   0   0    ; false
D142  E2408001           [085] call       3   3   1  
D146  D3008003           [086] getupval   3   7      
D14A  E4C0C401           [087] self       3   3   275  ; 1685109492
D14E  E2400001           [088] call       3   2   1  
D152  D3000004           [089] getupval   3   8      
D156  E2408000           [090] call       3   1   1  
D15A  D3008004           [091] getupval   3   9      
D15E  E2408000           [092] call       3   1   1  
D162  D3000005           [093] getupval   3   10     
D166  E2408000           [094] call       3   1   1  
D16A  D3008005           [095] getupval   3   11     
D16E  E2408000           [096] call       3   1   1  
D172  D3000006           [097] getupval   3   12     
D176  E2408000           [098] call       3   1   1  
D17A  D3008006           [099] getupval   3   13     
D17E  19010600           [100] loadk      4   24       ; "SystemStage.Bar"
D182  53010007           [101] getupval   5   14     
D186  E2408001           [102] call       3   3   1  
D18A  D3008007           [103] getupval   3   15     
D18E  E2408000           [104] call       3   1   1  
D192  D3000008           [105] getupval   3   16     
D196  E2408000           [106] call       3   1   1  
D19A  D3008008           [107] getupval   3   17     
D19E  E2408000           [108] call       3   1   1  
D1A2  DDC00000           [109] getglobal  3   3        ; 1074689893
D1A6  13010009           [110] getupval   4   18     
D1AA  E2800001           [111] call       3   2   2  
D1AE  D8400000           [112] test       3       1    ; to [114] if false
D1B2  1AC00180           [113] jmp        8            ; to [122]
D1B6  D3000009           [114] getupval   3   18     
D1BA  E440C601           [115] self       3   3   281  ; -1917464545
D1BE  E2800001           [116] call       3   2   2  
D1C2  E480C601           [117] self       3   3   282  ; 1769516121
D1C6  E2800001           [118] call       3   2   2  
D1CA  E4C0C601           [119] self       3   3   283  ; -1692935302
D1CE  59010700           [120] loadk      5   28       ; "OnModStatusChanged"
D1D2  E2408001           [121] call       3   3   1  
D1D6  D3008009           [122] getupval   3   19     
D1DA  19410700           [123] loadk      4   29       ; "SystemStage.ShieldsText"
D1DE  59810700           [124] loadk      5   30       ; "/Lotus/Language/CrewShip/CommandConsole_ShieldTitle"
D1E2  E2408001           [125] call       3   3   1  
D1E6  D3008002           [126] getupval   3   5      
D1EA  13010001           [127] getupval   4   2      
D1EE  0E814102           [128] gettable   4   4   262  ; "INSTALL"
fail op	35
D1F2  23008101           [129] close      0  
D1F6  1A800080           [130] jmp        3            ; to [134]
D1FA  D300000A           [131] getupval   3   20     
D1FE  19C10500           [132] loadk      4   23       ; 0
D202  E2400001           [133] call       3   2   1  
D206  DDC00700           [134] getglobal  3   31       ; gFlashMgr
D20A  E400C801           [135] self       3   3   288  ; 1634586770
D20E  5D410800           [136] getglobal  5   33       ; overlayBg
D212  E2808001           [137] call       3   3   2  
D216  1DC10000           [138] getglobal  4   3        ; 1074689893
D21A  52018001           [139] move       5   3      
D21E  22810001           [140] call       4   2   2  
D222  18010000           [141] test       4       0    ; to [143] if true
D226  1A400480           [142] jmp        18           ; to [161]
D22A  1DC10700           [143] getglobal  4   31       ; gFlashMgr
D22E  24814802           [144] self       4   4   290  ; 1967690300
D232  9D410800           [145] getglobal  6   33       ; overlayBg
D236  22818001           [146] call       4   3   2  
fail op	8
D23A  0801800A           [147] setupval   4   21     
D23E  1DC10000           [148] getglobal  4   3        ; 1074689893
D242  5301800A           [149] getupval   5   21     
D246  22810001           [150] call       4   2   2  
D24A  18410000           [151] test       4       1    ; to [153] if false
D24E  1AC00180           [152] jmp        8            ; to [161]
D252  1301000B           [153] getupval   4   22     
D256  18010000           [154] test       4       0    ; to [156] if true
D25A  1A000180           [155] jmp        5            ; to [161]
D25E  1301800A           [156] getupval   4   21     
D262  24C14802           [157] self       4   4   291  ; 1167009705
D266  99010900           [158] loadk      6   36       ; "SetHideHud"
D26A  D9410900           [159] loadk      7   37       ; "false"
D26E  22410002           [160] call       4   4   1  
D272  1301800B           [161] getupval   4   23     
D276  22418000           [162] call       4   1   1  
D27A  1D810900           [163] getglobal  4   38       ; 1390508688
D27E  5D810200           [164] getglobal  5   10       ; mMovie
D282  99C10900           [165] loadk      6   39       ; "SystemStage"
D286  DD010A00           [166] getglobal  7   40       ; UISys
D28A  CE41CA03           [167] gettable   7   7   297  ; "FlashInstance_LINEAR"
D28E  0B028000           [168] newtable   8   1   0    ; array=1, hash=0
D292  59820A00           [169] loadk      9   42       ; "_alpha"
D296  1B428000           [170] setlist    8   1   1    ; index 1 to 1
D29A  4B028000           [171] newtable   9   1   0    ; array=1, hash=0
D29E  99C20500           [172] loadk      10  23       ; 0
D2A2  5B428000           [173] setlist    9   1   1    ; index 1 to 1
D2A6  99C20A00           [174] loadk      10  43       ; 51
D2AA  22418003           [175] call       4   7   1  
D2AE  1D810900           [176] getglobal  4   38       ; 1390508688
D2B2  5D810200           [177] getglobal  5   10       ; mMovie
D2B6  99010B00           [178] loadk      6   44       ; "Blurer"
D2BA  DD010A00           [179] getglobal  7   40       ; UISys
D2BE  CE41CA03           [180] gettable   7   7   297  ; "FlashInstance_LINEAR"
D2C2  0B028000           [181] newtable   8   1   0    ; array=1, hash=0
D2C6  59820A00           [182] loadk      9   42       ; "_alpha"
D2CA  1B428000           [183] setlist    8   1   1    ; index 1 to 1
D2CE  4B028000           [184] newtable   9   1   0    ; array=1, hash=0
D2D2  99C20500           [185] loadk      10  23       ; 0
D2D6  5B428000           [186] setlist    9   1   1    ; index 1 to 1
D2DA  99C20A00           [187] loadk      10  43       ; 51
D2DE  22418003           [188] call       4   7   1  
D2E2  1DC10000           [189] getglobal  4   3        ; 1074689893
D2E6  5D410B00           [190] getglobal  5   45       ; menuLoop
D2EA  22810001           [191] call       4   2   2  
D2EE  18410000           [192] test       4       1    ; to [194] if false
D2F2  1AC00180           [193] jmp        8            ; to [202]
D2F6  1301000C           [194] getupval   4   24     
fail op	35
D2FA  23804B02           [195] close      0  
D2FE  1A000180           [196] jmp        5            ; to [202]
D302  1301800C           [197] getupval   4   25     
D306  0EC14B02           [198] gettable   4   4   303  ; 630793108
D30A  5D410B00           [199] getglobal  5   45       ; menuLoop
D30E  22810001           [200] call       4   2   2  
fail op	8
D312  0801000C           [201] setupval   4   24     
D316  17018000           [202] loadbool   4   1   0    ; true
fail op	8
D31A  0801000D           [203] setupval   4   26     
D31E  1E008000           [204] return     0   1      
                         * constants:
D322  30                 sizek (48)
D323  01                 const type 3
D324  28C4DC84           const [0]: (-2065906648)
D328  04                 const type 4
D329  07                 string size (7)
D32A  454E41424C4500     "ENABLE\0"
                         const [1]: "ENABLE"
D331  04                 const type 4
D332  10                 string size (16)
D333  55495F4D4F44455F+  "UI_MODE_"
D33B  494E5F444F4A4F00   "IN_DOJO\0"
                         const [2]: "UI_MODE_IN_DOJO"
D343  01                 const type 3
D344  65770E40           const [3]: (1074689893)
D348  04                 const type 4
D349  05                 string size (5)
D34A  6974656D00         "item\0"
                         const [4]: "item"
D34F  01                 const type 3
D350  F313CB42           const [5]: (1120605171)
D354  04                 const type 4
D355  08                 string size (8)
D356  494E5354414C4C00   "INSTALL\0"
                         const [6]: "INSTALL"
D35E  01                 const type 3
D35F  44DC9B32           const [7]: (849075268)
D363  04                 const type 4
D364  28                 string size (40)
D365  4C6F7475732E496E+  "Lotus.In"
D36D  746572666163652E+  "terface."
D375  436F6D706F6E656E+  "Componen"
D37D  74732E5468656D65+  "ts.Theme"
D385  64427574746F6E00   "dButton\0"
                         const [8]: "Lotus.Interface.Components.ThemedButton"
D38D  01                 const type 3
D38E  3C1AFF46           const [9]: (1191123516)
D392  04                 const type 4
D393  07                 string size (7)
D394  6D4D6F76696500     "mMovie\0"
                         const [10]: "mMovie"
D39B  04                 const type 4
D39C  18                 string size (24)
D39D  53797374656D5374+  "SystemSt"
D3A5  6167652E54616374+  "age.Tact"
D3AD  6963616C42746E00   "icalBtn\0"
                         const [11]: "SystemStage.TacticalBtn"
D3B5  04                 const type 4
D3B6  31                 string size (49)
D3B7  2F4C6F7475732F4C+  "/Lotus/L"
D3BF  616E67756167652F+  "anguage/"
D3C7  4372657753686970+  "CrewShip"
D3CF  2F436F6D6D616E64+  "/Command"
D3D7  436F6E736F6C655F+  "Console_"
D3DF  546163746963616C+  "Tactical"
D3E7  00                 "\0"
                         const [12]: "/Lotus/Language/CrewShip/CommandConsole_Tactical"
D3E8  04                 const type 4
D3E9  15                 string size (21)
D3EA  4F6E546163746963+  "OnTactic"
D3F2  616C4D6170507265+  "alMapPre"
D3FA  7373656400         "ssed\0"
                         const [13]: "OnTacticalMapPressed"
D3FF  04                 const type 4
D400  10                 string size (16)
D401  3C4D454E555F4745+  "<MENU_GE"
D409  4E45524943313E00   "NERIC1>\0"
                         const [14]: "<MENU_GENERIC1>"
D411  01                 const type 3
D412  E700B4A8           const [15]: (-1464598297)
D416  01                 const type 3
D417  F4501A88           const [16]: (-2011541260)
D41B  03                 const type 3
D41C  00004843           const [17]: (0)
D420  01                 const type 3
D421  A8915762           const [18]: (1649906088)
D425  01                 const type 3
D426  F4BA7064           const [19]: (1685109492)
D42A  04                 const type 4
D42B  16                 string size (22)
D42C  53797374656D5374+  "SystemSt"
D434  6167652E43616D65+  "age.Came"
D43C  726142746E00       "raBtn\0"
                         const [20]: "SystemStage.CameraBtn"
D442  04                 const type 4
D443  04                 string size (4)
D444  43414D00           "CAM\0"
                         const [21]: "CAM"
D448  04                 const type 4
D449  10                 string size (16)
D44A  4F6E43616D657261+  "OnCamera"
D452  5072657373656400   "Pressed\0"
                         const [22]: "OnCameraPressed"
D45A  03                 const type 3
D45B  0000C842           const [23]: (0)
D45F  04                 const type 4
D460  10                 string size (16)
D461  53797374656D5374+  "SystemSt"
D469  6167652E42617200   "age.Bar\0"
                         const [24]: "SystemStage.Bar"
D471  01                 const type 3
D472  1FD0B58D           const [25]: (-1917464545)
D476  01                 const type 3
D477  59AC7869           const [26]: (1769516121)
D47B  01                 const type 3
D47C  7ADB179B           const [27]: (-1692935302)
D480  04                 const type 4
D481  13                 string size (19)
D482  4F6E4D6F64537461+  "OnModSta"
D48A  7475734368616E67+  "tusChang"
D492  656400             "ed\0"
                         const [28]: "OnModStatusChanged"
D495  04                 const type 4
D496  18                 string size (24)
D497  53797374656D5374+  "SystemSt"
D49F  6167652E53686965+  "age.Shie"
D4A7  6C64735465787400   "ldsText\0"
                         const [29]: "SystemStage.ShieldsText"
D4AF  04                 const type 4
D4B0  34                 string size (52)
D4B1  2F4C6F7475732F4C+  "/Lotus/L"
D4B9  616E67756167652F+  "anguage/"
D4C1  4372657753686970+  "CrewShip"
D4C9  2F436F6D6D616E64+  "/Command"
D4D1  436F6E736F6C655F+  "Console_"
D4D9  536869656C645469+  "ShieldTi"
D4E1  746C6500           "tle\0"
                         const [30]: "/Lotus/Language/CrewShip/CommandConsole_ShieldTitle"
D4E5  04                 const type 4
D4E6  0A                 string size (10)
D4E7  67466C6173684D67+  "gFlashMg"
D4EF  7200               "r\0"
                         const [31]: "gFlashMgr"
D4F1  01                 const type 3
D4F2  92D06D61           const [32]: (1634586770)
D4F6  04                 const type 4
D4F7  0A                 string size (10)
D4F8  6F7665726C617942+  "overlayB"
D500  6700               "g\0"
                         const [33]: "overlayBg"
D502  01                 const type 3
D503  3C924875           const [34]: (1967690300)
D507  01                 const type 3
D508  A9278F45           const [35]: (1167009705)
D50C  04                 const type 4
D50D  0B                 string size (11)
D50E  5365744869646548+  "SetHideH"
D516  756400             "ud\0"
                         const [36]: "SetHideHud"
D519  04                 const type 4
D51A  06                 string size (6)
D51B  66616C736500       "false\0"
                         const [37]: "false"
D521  01                 const type 3
D522  907AE152           const [38]: (1390508688)
D526  04                 const type 4
D527  0C                 string size (12)
D528  53797374656D5374+  "SystemSt"
D530  61676500           "age\0"
                         const [39]: "SystemStage"
D534  04                 const type 4
D535  06                 string size (6)
D536  554953797300       "UISys\0"
                         const [40]: "UISys"
D53C  04                 const type 4
D53D  15                 string size (21)
D53E  466C617368496E73+  "FlashIns"
D546  74616E63655F4C49+  "tance_LI"
D54E  4E45415200         "NEAR\0"
                         const [41]: "FlashInstance_LINEAR"
D553  04                 const type 4
D554  07                 string size (7)
D555  5F616C70686100     "_alpha\0"
                         const [42]: "_alpha"
D55C  03                 const type 3
D55D  3333B33E           const [43]: (51)
D561  04                 const type 4
D562  07                 string size (7)
D563  426C7572657200     "Blurer\0"
                         const [44]: "Blurer"
D56A  04                 const type 4
D56B  09                 string size (9)
D56C  6D656E754C6F6F70+  "menuLoop"
D574  00                 "\0"
                         const [45]: "menuLoop"
D575  00                 const type 0
                         const [46]: nil
D576  01                 const type 3
D577  94239925           const [47]: (630793108)
                         * functions:
D57B  00                 sizep (0)
                         * lines:
D57D  01                 sizelineinfo (204)
                         [pc] (line)
D57E  A5                 [001] (-91)
D57F  05                 [002] (-91)
D580  00                 [003] (-89)
D581  00                 [004] (-89)
D582  A5                 [005] (-89)
D583  05                 [006] (-88)
D584  00                 [007] (-88)
D585  00                 [008] (-87)
D586  A7                 [009] (-87)
D587  05                 [010] (-87)
D588  00                 [011] (-87)
D589  00                 [012] (-85)
D58A  A7                 [013] (-85)
D58B  05                 [014] (-85)
D58C  00                 [015] (-85)
D58D  00                 [016] (-85)
D58E  A7                 [017] (-85)
D58F  05                 [018] (-85)
D590  00                 [019] (-85)
D591  00                 [020] (-85)
D592  A8                 [021] (-85)
D593  05                 [022] (-85)
D594  00                 [023] (-85)
D595  00                 [024] (-85)
D596  A8                 [025] (-85)
D597  05                 [026] (-85)
D598  00                 [027] (-85)
D599  00                 [028] (-85)
D59A  A9                 [029] (-85)
D59B  05                 [030] (-84)
D59C  00                 [031] (-84)
D59D  00                 [032] (-84)
D59E  A9                 [033] (-82)
D59F  05                 [034] (-82)
D5A0  00                 [035] (-79)
D5A1  00                 [036] (-77)
D5A2  A9                 [037] (-77)
D5A3  05                 [038] (-77)
D5A4  00                 [039] (-76)
D5A5  00                 [040] (-76)
D5A6  A9                 [041] (-76)
D5A7  05                 [042] (-76)
D5A8  00                 [043] (-76)
D5A9  00                 [044] (-76)
D5AA  AB                 [045] (-76)
D5AB  05                 [046] (-76)
D5AC  00                 [047] (-75)
D5AD  00                 [048] (-75)
D5AE  AB                 [049] (-75)
D5AF  05                 [050] (-74)
D5B0  00                 [051] (-74)
D5B1  00                 [052] (-74)
D5B2  AB                 [053] (-74)
D5B3  05                 [054] (-73)
D5B4  00                 [055] (-73)
D5B5  00                 [056] (-73)
D5B6  AB                 [057] (-73)
D5B7  05                 [058] (-73)
D5B8  00                 [059] (-73)
D5B9  00                 [060] (-73)
D5BA  AB                 [061] (-73)
D5BB  05                 [062] (-73)
D5BC  00                 [063] (-73)
D5BD  00                 [064] (-72)
D5BE  AB                 [065] (-72)
D5BF  05                 [066] (-72)
D5C0  00                 [067] (-70)
D5C1  00                 [068] (-70)
D5C2  AB                 [069] (-70)
D5C3  05                 [070] (-70)
D5C4  00                 [071] (-70)
D5C5  00                 [072] (-70)
D5C6  AB                 [073] (-70)
D5C7  05                 [074] (-70)
D5C8  00                 [075] (-69)
D5C9  00                 [076] (-69)
D5CA  AB                 [077] (-69)
D5CB  05                 [078] (-68)
D5CC  00                 [079] (-68)
D5CD  00                 [080] (-68)
D5CE  AB                 [081] (-68)
D5CF  05                 [082] (-67)
D5D0  00                 [083] (-67)
D5D1  00                 [084] (-67)
D5D2  AB                 [085] (-67)
D5D3  05                 [086] (-66)
D5D4  00                 [087] (-66)
D5D5  00                 [088] (-66)
D5D6  AB                 [089] (-64)
D5D7  05                 [090] (-64)
D5D8  00                 [091] (-62)
D5D9  00                 [092] (-62)
D5DA  AB                 [093] (-61)
D5DB  05                 [094] (-61)
D5DC  00                 [095] (-60)
D5DD  00                 [096] (-60)
D5DE  AB                 [097] (-58)
D5DF  05                 [098] (-58)
D5E0  00                 [099] (-56)
D5E1  00                 [100] (-56)
D5E2  AB                 [101] (-56)
D5E3  05                 [102] (-56)
D5E4  00                 [103] (-54)
D5E5  00                 [104] (-54)
D5E6  AB                 [105] (-53)
D5E7  05                 [106] (-53)
D5E8  00                 [107] (-51)
D5E9  00                 [108] (-51)
D5EA  AB                 [109] (-49)
D5EB  05                 [110] (-49)
D5EC  00                 [111] (-49)
D5ED  00                 [112] (-49)
D5EE  AB                 [113] (-49)
D5EF  05                 [114] (-48)
D5F0  00                 [115] (-48)
D5F1  00                 [116] (-48)
D5F2  AC                 [117] (-48)
D5F3  05                 [118] (-48)
D5F4  00                 [119] (-48)
D5F5  00                 [120] (-48)
D5F6  AC                 [121] (-48)
D5F7  05                 [122] (-45)
D5F8  00                 [123] (-45)
D5F9  00                 [124] (-45)
D5FA  AC                 [125] (-45)
D5FB  05                 [126] (-44)
D5FC  00                 [127] (-44)
D5FD  00                 [128] (-44)
D5FE  AE                 [129] (-44)
D5FF  05                 [130] (-44)
D600  00                 [131] (-43)
D601  00                 [132] (-43)
D602  AE                 [133] (-43)
D603  05                 [134] (-30)
D604  00                 [135] (-30)
D605  00                 [136] (-30)
D606  B1                 [137] (-30)
D607  05                 [138] (-29)
D608  00                 [139] (-29)
D609  00                 [140] (-29)
D60A  B3                 [141] (-29)
D60B  05                 [142] (-29)
D60C  00                 [143] (-28)
D60D  00                 [144] (-28)
D60E  B3                 [145] (-28)
D60F  05                 [146] (-28)
D610  00                 [147] (-28)
D611  00                 [148] (-27)
D612  B3                 [149] (-27)
D613  05                 [150] (-27)
D614  00                 [151] (-27)
D615  00                 [152] (-27)
D616  B4                 [153] (-27)
D617  05                 [154] (-27)
D618  00                 [155] (-27)
D619  00                 [156] (-23)
D61A  B4                 [157] (-23)
D61B  05                 [158] (-23)
D61C  00                 [159] (-23)
D61D  00                 [160] (-23)
D61E  B4                 [161] (-19)
D61F  05                 [162] (-19)
D620  00                 [163] (-17)
D621  00                 [164] (-17)
D622  B4                 [165] (-17)
D623  05                 [166] (-17)
D624  00                 [167] (-17)
D625  00                 [168] (-17)
D626  B4                 [169] (-17)
D627  05                 [170] (-17)
D628  00                 [171] (-17)
D629  00                 [172] (-17)
D62A  B4                 [173] (-17)
D62B  05                 [174] (-17)
D62C  00                 [175] (-17)
D62D  00                 [176] (-16)
D62E  B4                 [177] (-16)
D62F  05                 [178] (-16)
D630  00                 [179] (-16)
D631  00                 [180] (-16)
D632  B4                 [181] (-16)
D633  05                 [182] (-16)
D634  00                 [183] (-16)
D635  00                 [184] (-16)
D636  B5                 [185] (-16)
D637  05                 [186] (-16)
D638  00                 [187] (-16)
D639  00                 [188] (-16)
D63A  B5                 [189] (-14)
D63B  05                 [190] (-14)
D63C  00                 [191] (-14)
D63D  00                 [192] (-14)
D63E  B5                 [193] (-14)
D63F  05                 [194] (-14)
D640  00                 [195] (-14)
D641  00                 [196] (-14)
D642  B6                 [197] (-13)
D643  05                 [198] (-13)
D644  00                 [199] (-13)
D645  00                 [200] (-13)
D646  B6                 [201] (-13)
D647  05                 [202] (-10)
D648  00                 [203] (-10)
D649  00                 [204] (-9)
                         * locals:
D8AE  00                 sizelocvars (0)
                         * upvalues:
D8AF  00                 sizeupvalues (0)
                         ** end of function **

                         
D8B0                     ** function [46] definition (level 2)
                         ** start of function **
D8B0  00                 string size (0)
                         source name: (none)
D8B2  0B                 line defined (1529)
D8B3  D0                 last line defined (1616)
D8B4  0C                 nups (14)
D8B5  0E                 numparams (0)
D8B6  00                 is_vararg (0)
D8B7  00                 maxstacksize (10)
                         * code:
D8BA  01                 sizecode (219)
D8BB  1D000000           [001] getglobal  0   0        ; _T
D8BF  0C80C080           [002] settable   0   257 258  ; "gToolTip" nil
D8C3  1DC00000           [003] getglobal  0   3        ; 1074689893
D8C7  5D000100           [004] getglobal  1   4        ; gPlayerProfileMgr
D8CB  22800001           [005] call       0   2   2  
D8CF  18400000           [006] test       0       1    ; to [8] if false
D8D3  1AC00180           [007] jmp        8            ; to [16]
D8D7  1DC00000           [008] getglobal  0   3        ; 1074689893
D8DB  5D000100           [009] getglobal  1   4        ; gPlayerProfileMgr
D8DF  6440C100           [010] self       1   1   261  ; 569342746
D8E3  D9800100           [011] loadk      3   6        ; 0
D8E7  62008001           [012] call       1   3   0  
D8EB  22800000           [013] call       0   0   2  
D8EF  18000000           [014] test       0       0    ; to [16] if true
D8F3  1AC00080           [015] jmp        4            ; to [20]
D8F7  1DC00100           [016] getglobal  0   7        ; -1817107093
D8FB  59000200           [017] loadk      1   8        ; "NULL PLAYER PROFILE WHAT TO DO"
D8FF  22400001           [018] call       0   2   1  
D903  1E008000           [019] return     0   1      
D907  1D000100           [020] getglobal  0   4        ; gPlayerProfileMgr
D90B  24404100           [021] self       0   0   261  ; 569342746
D90F  99800100           [022] loadk      2   6        ; 0
D913  22808001           [023] call       0   3   2  
D917  24404200           [024] self       0   0   265  ; 1699680402
D91B  22800001           [025] call       0   2   2  
fail op	8
D91F  08000000           [026] setupval   0   0      
D923  1DC00000           [027] getglobal  0   3        ; 1074689893
D927  53000000           [028] getupval   1   0      
D92B  22800001           [029] call       0   2   2  
D92F  18000000           [030] test       0       0    ; to [32] if true
D933  1AC00080           [031] jmp        4            ; to [36]
D937  1DC00100           [032] getglobal  0   7        ; -1817107093
D93B  59800200           [033] loadk      1   10       ; "NULL GAME DATA WHAT TO DO"
D93F  22400001           [034] call       0   2   1  
D943  1E008000           [035] return     0   1      
D947  1DC00200           [036] getglobal  0   11       ; 849075268
D94B  59000300           [037] loadk      1   12       ; "Lotus.Interface.Libs.TimerMgr"
D94F  22800001           [038] call       0   2   2  
D953  4E404300           [039] gettable   1   0   269  ; -1029178688
D957  62808000           [040] call       1   1   2  
fail op	8
D95B  48008000           [041] setupval   1   1      
D95F  53000001           [042] getupval   1   2      
fail op	35
D963  2380C000           [043] close      0  
D967  1AC00380           [044] jmp        16           ; to [61]
D96B  5D800300           [045] getglobal  1   14       ; -174740002
D96F  9DC00300           [046] getglobal  2   15       ; mMovie
D973  A4004401           [047] self       2   2   272  ; 1803241227
D977  19410400           [048] loadk      4   17       ; "SystemStage"
D97B  59810400           [049] loadk      5   18       ; "_x"
D97F  A2000002           [050] call       2   4   0  
D983  62800000           [051] call       1   0   2  
fail op	8
D987  48000001           [052] setupval   1   2      
D98B  5D800300           [053] getglobal  1   14       ; -174740002
D98F  9DC00300           [054] getglobal  2   15       ; mMovie
D993  A4004401           [055] self       2   2   272  ; 1803241227
D997  19410400           [056] loadk      4   17       ; "SystemStage"
D99B  59C10400           [057] loadk      5   19       ; "_y"
D99F  A2000002           [058] call       2   4   0  
D9A3  62800000           [059] call       1   0   2  
fail op	8
D9A7  48008001           [060] setupval   1   3      
D9AB  5DC00000           [061] getglobal  1   3        ; 1074689893
D9AF  9D000000           [062] getglobal  2   0        ; _T
D9B3  8E004501           [063] gettable   2   2   276  ; "ChangeHubVisCounter"
D9B7  62800001           [064] call       1   2   2  
D9BB  58400000           [065] test       1       1    ; to [67] if false
D9BF  1AC00080           [066] jmp        4            ; to [71]
D9C3  5D000000           [067] getglobal  1   0        ; _T
D9C7  4E40C500           [068] gettable   1   1   277  ; -1445955826
D9CB  99800500           [069] loadk      2   22       ; 0
D9CF  62400001           [070] call       1   2   1  
D9D3  5D000000           [071] getglobal  1   0        ; _T
D9D7  4EC0C500           [072] gettable   1   1   279  ; "MinimalHud"
D9DB  58000000           [073] test       1       0    ; to [75] if true
D9DF  1AC00680           [074] jmp        28           ; to [103]
D9E3  57008000           [075] loadbool   1   1   0    ; true
fail op	8
D9E7  48000002           [076] setupval   1   4      
D9EB  5D000600           [077] getglobal  1   24       ; gGameRules
D9EF  6440C600           [078] self       1   1   281  ; -2029400442
D9F3  62800001           [079] call       1   2   2  
D9F7  9DC00000           [080] getglobal  2   3        ; 1074689893
D9FB  D2008000           [081] move       3   1      
D9FF  A2800001           [082] call       2   2   2  
DA03  98400000           [083] test       2       1    ; to [85] if false
DA07  1A400380           [084] jmp        14           ; to [99]
DA0B  9D000000           [085] getglobal  2   0        ; _T
DA0F  8C80C68B           [086] settable   2   279 282  ; "MinimalHud" 0
DA13  A4C0C600           [087] self       2   1   283  ; 1167009705
DA17  19010700           [088] loadk      4   28       ; "UpdateFade"
DA1B  59410700           [089] loadk      5   29       ; ""
DA1F  A2400002           [090] call       2   4   1  
DA23  93008002           [091] getupval   2   5      
DA27  8E804701           [092] gettable   2   2   286  ; -1262767739
DA2B  D7008000           [093] loadbool   3   1   0    ; true
DA2F  A2400001           [094] call       2   2   1  
DA33  A4C0C600           [095] self       2   1   283  ; 1167009705
DA37  19010700           [096] loadk      4   28       ; "UpdateFade"
DA3B  59410700           [097] loadk      5   29       ; ""
DA3F  A2400002           [098] call       2   4   1  
DA43  93000003           [099] getupval   2   6      
DA47  8EC04701           [100] gettable   2   2   287  ; -304442849
DA4B  D7000000           [101] loadbool   3   0   0    ; false
DA4F  A2400001           [102] call       2   2   1  
DA53  9DC00100           [103] getglobal  2   7        ; -1817107093
DA57  D9000800           [104] loadk      3   32       ; "what is it? "
DA5B  1D410800           [105] getglobal  4   33       ; -1615931716
DA5F  5D010000           [106] getglobal  5   0        ; _T
DA63  4E81C802           [107] gettable   5   5   290  ; "HideHud"
DA67  22810001           [108] call       4   2   2  
DA6B  C2008101           [109] concat     3   3   4  
DA6F  A2400001           [110] call       2   2   1  
DA73  93008003           [111] getupval   2   7      
DA77  A2408000           [112] call       2   1   1  
DA7B  9DC00300           [113] getglobal  2   15       ; mMovie
DA7F  A4C04801           [114] self       2   2   291  ; 471456102
DA83  19410400           [115] loadk      4   17       ; "SystemStage"
DA87  59010900           [116] loadk      5   36       ; "_alpha"
DA8B  99810100           [117] loadk      6   6        ; 0
DA8F  A2408002           [118] call       2   5   1  
DA93  9DC00300           [119] getglobal  2   15       ; mMovie
DA97  A4C04801           [120] self       2   2   291  ; 471456102
DA9B  19410900           [121] loadk      4   37       ; "Blurer"
DA9F  59010900           [122] loadk      5   36       ; "_alpha"
DAA3  99810100           [123] loadk      6   6        ; 0
DAA7  A2408002           [124] call       2   5   1  
DAAB  9DC00300           [125] getglobal  2   15       ; mMovie
DAAF  A4804901           [126] self       2   2   294  ; -403402525
DAB3  19810100           [127] loadk      4   6        ; 0
DAB7  A2408001           [128] call       2   3   1  
DABB  9DC00000           [129] getglobal  2   3        ; 1074689893
DABF  DDC00900           [130] getglobal  3   39       ; openSound
DAC3  A2800001           [131] call       2   2   2  
DAC7  98400000           [132] test       2       1    ; to [134] if false
DACB  1AC00080           [133] jmp        4            ; to [138]
DACF  93000004           [134] getupval   2   8      
DAD3  8E004A01           [135] gettable   2   2   296  ; 630793108
DAD7  DDC00900           [136] getglobal  3   39       ; openSound
DADB  A2400001           [137] call       2   2   1  
DADF  9DC00200           [138] getglobal  2   11       ; 849075268
DAE3  D9400A00           [139] loadk      3   41       ; "Lotus.Interface.Components.ThemedSpinner"
DAE7  A2800001           [140] call       2   2   2  
DAEB  CE804A01           [141] gettable   3   2   298  ; 1191123516
DAEF  1DC10300           [142] getglobal  4   15       ; mMovie
DAF3  59C10A00           [143] loadk      5   43       ; "Spinner"
DAF7  E2808001           [144] call       3   3   2  
fail op	8
DAFB  C8008004           [145] setupval   3   9      
DAFF  D3008004           [146] getupval   3   9      
DB03  E400CB01           [147] self       3   3   300  ; -2120785850
DB07  59410B00           [148] loadk      5   45       ; "/Lotus/Language/Menu/Badlands_InitializingButton"
DB0B  E2408001           [149] call       3   3   1  
DB0F  DDC00000           [150] getglobal  3   3        ; 1074689893
DB13  1D010000           [151] getglobal  4   0        ; _T
DB17  0E814B02           [152] gettable   4   4   302  ; "SetButtons"
DB1B  E2800001           [153] call       3   2   2  
DB1F  D8400000           [154] test       3       1    ; to [156] if false
DB23  1A000180           [155] jmp        5            ; to [161]
DB27  DD000000           [156] getglobal  3   0        ; _T
DB2B  CEC0CB01           [157] gettable   3   3   303  ; -270549122
DB2F  1DC10300           [158] getglobal  4   15       ; mMovie
DB33  46018002           [159] loadnil    5   5      
DB37  E2408001           [160] call       3   3   1  
DB3B  D3000000           [161] getupval   3   0      
DB3F  E400CC01           [162] self       3   3   304  ; 51109503
DB43  E2800001           [163] call       3   2   2  
DB47  CE40CC01           [164] gettable   3   3   305  ; "mCrewShipLoadOut"
DB4B  CE80CC01           [165] gettable   3   3   306  ; "mShip"
DB4F  0B410000           [166] newtable   4   0   1    ; array=0, hash=1
DB53  0CC18099           [167] settable   4   307 3    ; "info"
fail op	8
DB57  08010005           [168] setupval   4   10     
DB5B  1D010600           [169] getglobal  4   24       ; gGameRules
DB5F  24014D02           [170] self       4   4   308  ; 285671363
DB63  22810001           [171] call       4   2   2  
DB67  46018002           [172] loadnil    5   5      
DB6B  9DC10000           [173] getglobal  6   3        ; 1074689893
DB6F  D2010002           [174] move       7   4      
DB73  A2810001           [175] call       6   2   2  
DB77  98410000           [176] test       6       1    ; to [178] if false
DB7B  1A800080           [177] jmp        3            ; to [181]
DB7F  A4414D02           [178] self       6   4   309  ; 339600978
DB83  A2810001           [179] call       6   2   2  
DB87  52010003           [180] move       5   6      
DB8B  9DC10000           [181] getglobal  6   3        ; 1074689893
DB8F  D2018002           [182] move       7   5      
DB93  A2810001           [183] call       6   2   2  
DB97  98410000           [184] test       6       1    ; to [186] if false
DB9B  1A400480           [185] jmp        18           ; to [204]
DB9F  93010000           [186] getupval   6   0      
DBA3  A4814D03           [187] self       6   6   310  ; 1865287165
DBA7  A2810001           [188] call       6   2   2  
DBAB  A4C14D03           [189] self       6   6   311  ; 1313518064
DBAF  19820100           [190] loadk      8   6        ; 0
DBB3  A2818001           [191] call       6   3   2  
DBB7  98410000           [192] test       6       1    ; to [194] if false
DBBB  1A400280           [193] jmp        10           ; to [204]
DBBF  A401CE02           [194] self       6   5   312  ; -1538682285
DBC3  A2810001           [195] call       6   2   2  
fail op	8
DBC7  88018005           [196] setupval   6   11     
DBCB  93010005           [197] getupval   6   10     
DBCF  8C41819C           [198] settable   6   313 5    ; "item"
DBD3  93018004           [199] getupval   6   9      
DBD7  A4814E03           [200] self       6   6   314  ; -492641364
DBDB  17020000           [201] loadbool   8   0   0    ; false
DBDF  A2418001           [202] call       6   3   1  
DBE3  1A000380           [203] jmp        13           ; to [217]
DBE7  97018000           [204] loadbool   6   1   0    ; true
fail op	8
DBEB  88010006           [205] setupval   6   12     
DBEF  93010004           [206] getupval   6   8      
DBF3  8EC14E03           [207] gettable   6   6   315  ; -617354062
DBF7  DDC10300           [208] getglobal  7   15       ; mMovie
DBFB  19020F00           [209] loadk      8   60       ; 102
DBFF  59420F00           [210] loadk      9   61       ; 0
DC03  A2410002           [211] call       6   4   1  
DC07  93018004           [212] getupval   6   9      
DC0B  A4814E03           [213] self       6   6   314  ; -492641364
DC0F  17028000           [214] loadbool   8   1   0    ; true
DC13  A2418001           [215] call       6   3   1  
DC17  1E008000           [216] return     0   1      
DC1B  93018006           [217] getupval   6   13     
DC1F  A2418000           [218] call       6   1   1  
DC23  1E008000           [219] return     0   1      
                         * constants:
DC27  3E                 sizek (62)
DC28  04                 const type 4
DC29  03                 string size (3)
DC2A  5F5400             "_T\0"
                         const [0]: "_T"
DC2D  04                 const type 4
DC2E  09                 string size (9)
DC2F  67546F6F6C546970+  "gToolTip"
DC37  00                 "\0"
                         const [1]: "gToolTip"
DC38  00                 const type 0
                         const [2]: nil
DC39  01                 const type 3
DC3A  65770E40           const [3]: (1074689893)
DC3E  04                 const type 4
DC3F  12                 string size (18)
DC40  67506C6179657250+  "gPlayerP"
DC48  726F66696C654D67+  "rofileMg"
DC50  7200               "r\0"
                         const [4]: "gPlayerProfileMgr"
DC52  01                 const type 3
DC53  1A7BEF21           const [5]: (569342746)
DC57  03                 const type 3
DC58  00000000           const [6]: (0)
DC5C  01                 const type 3
DC5D  6B25B193           const [7]: (-1817107093)
DC61  04                 const type 4
DC62  1F                 string size (31)
DC63  4E554C4C20504C41+  "NULL PLA"
DC6B  5945522050524F46+  "YER PROF"
DC73  494C452057484154+  "ILE WHAT"
DC7B  20544F20444F00     " TO DO\0"
                         const [8]: "NULL PLAYER PROFILE WHAT TO DO"
DC82  01                 const type 3
DC83  92104F65           const [9]: (1699680402)
DC87  04                 const type 4
DC88  1A                 string size (26)
DC89  4E554C4C2047414D+  "NULL GAM"
DC91  4520444154412057+  "E DATA W"
DC99  48415420544F2044+  "HAT TO D"
DCA1  4F00               "O\0"
                         const [10]: "NULL GAME DATA WHAT TO DO"
DCA3  01                 const type 3
DCA4  44DC9B32           const [11]: (849075268)
DCA8  04                 const type 4
DCA9  1E                 string size (30)
DCAA  4C6F7475732E496E+  "Lotus.In"
DCB2  746572666163652E+  "terface."
DCBA  4C6962732E54696D+  "Libs.Tim"
DCC2  65724D677200       "erMgr\0"
                         const [12]: "Lotus.Interface.Libs.TimerMgr"
DCC8  01                 const type 3
DCC9  C0FAA7C2           const [13]: (-1029178688)
DCCD  01                 const type 3
DCCE  DEAD95F5           const [14]: (-174740002)
DCD2  04                 const type 4
DCD3  07                 string size (7)
DCD4  6D4D6F76696500     "mMovie\0"
                         const [15]: "mMovie"
DCDB  01                 const type 3
DCDC  0B477B6B           const [16]: (1803241227)
DCE0  04                 const type 4
DCE1  0C                 string size (12)
DCE2  53797374656D5374+  "SystemSt"
DCEA  61676500           "age\0"
                         const [17]: "SystemStage"
DCEE  04                 const type 4
DCEF  03                 string size (3)
DCF0  5F7800             "_x\0"
                         const [18]: "_x"
DCF3  04                 const type 4
DCF4  03                 string size (3)
DCF5  5F7900             "_y\0"
                         const [19]: "_y"
DCF8  04                 const type 4
DCF9  14                 string size (20)
DCFA  4368616E67654875+  "ChangeHu"
DD02  62566973436F756E+  "bVisCoun"
DD0A  74657200           "ter\0"
                         const [20]: "ChangeHubVisCounter"
DD0E  01                 const type 3
DD0F  0E77D0A9           const [21]: (-1445955826)
DD13  03                 const type 3
DD14  0000803F           const [22]: (0)
DD18  04                 const type 4
DD19  0B                 string size (11)
DD1A  4D696E696D616C48+  "MinimalH"
DD22  756400             "ud\0"
                         const [23]: "MinimalHud"
DD25  04                 const type 4
DD26  0B                 string size (11)
DD27  6747616D6552756C+  "gGameRul"
DD2F  657300             "es\0"
                         const [24]: "gGameRules"
DD32  01                 const type 3
DD33  86CE0987           const [25]: (-2029400442)
DD37  01                 const type 3
DD38  00000000           const [26]: (0)
DD3C  01                 const type 3
DD3D  A9278F45           const [27]: (1167009705)
DD41  04                 const type 4
DD42  0B                 string size (11)
DD43  5570646174654661+  "UpdateFa"
DD4B  646500             "de\0"
                         const [28]: "UpdateFade"
DD4E  04                 const type 4
DD4F  01                 string size (0)
                         const [29]: ""
DD51  01                 const type 3
DD52  85B1BBB4           const [30]: (-1262767739)
DD56  01                 const type 3
DD57  1F92DAED           const [31]: (-304442849)
DD5B  04                 const type 4
DD5C  0D                 string size (13)
DD5D  7768617420697320+  "what is "
DD65  69743F2000         "it? \0"
                         const [32]: "what is it? "
DD6A  01                 const type 3
DD6B  BCD6AE9F           const [33]: (-1615931716)
DD6F  04                 const type 4
DD70  08                 string size (8)
DD71  4869646548756400   "HideHud\0"
                         const [34]: "HideHud"
DD79  01                 const type 3
DD7A  66D9191C           const [35]: (471456102)
DD7E  04                 const type 4
DD7F  07                 string size (7)
DD80  5F616C70686100     "_alpha\0"
                         const [36]: "_alpha"
DD87  04                 const type 4
DD88  07                 string size (7)
DD89  426C7572657200     "Blurer\0"
                         const [37]: "Blurer"
DD90  01                 const type 3
DD91  E390F4E7           const [38]: (-403402525)
DD95  04                 const type 4
DD96  0A                 string size (10)
DD97  6F70656E536F756E+  "openSoun"
DD9F  6400               "d\0"
                         const [39]: "openSound"
DDA1  01                 const type 3
DDA2  94239925           const [40]: (630793108)
DDA6  04                 const type 4
DDA7  29                 string size (41)
DDA8  4C6F7475732E496E+  "Lotus.In"
DDB0  746572666163652E+  "terface."
DDB8  436F6D706F6E656E+  "Componen"
DDC0  74732E5468656D65+  "ts.Theme"
DDC8  645370696E6E6572+  "dSpinner"
DDD0  00                 "\0"
                         const [41]: "Lotus.Interface.Components.ThemedSpinner"
DDD1  01                 const type 3
DDD2  3C1AFF46           const [42]: (1191123516)
DDD6  04                 const type 4
DDD7  08                 string size (8)
DDD8  5370696E6E657200   "Spinner\0"
                         const [43]: "Spinner"
DDE0  01                 const type 3
DDE1  46609781           const [44]: (-2120785850)
DDE5  04                 const type 4
DDE6  31                 string size (49)
DDE7  2F4C6F7475732F4C+  "/Lotus/L"
DDEF  616E67756167652F+  "anguage/"
DDF7  4D656E752F426164+  "Menu/Bad"
DDFF  6C616E64735F496E+  "lands_In"
DE07  697469616C697A69+  "itializi"
DE0F  6E67427574746F6E+  "ngButton"
DE17  00                 "\0"
                         const [45]: "/Lotus/Language/Menu/Badlands_InitializingButton"
DE18  04                 const type 4
DE19  0B                 string size (11)
DE1A  536574427574746F+  "SetButto"
DE22  6E7300             "ns\0"
                         const [46]: "SetButtons"
DE25  01                 const type 3
DE26  7EBFDFEF           const [47]: (-270549122)
DE2A  01                 const type 3
DE2B  7FDE0B03           const [48]: (51109503)
DE2F  04                 const type 4
DE30  11                 string size (17)
DE31  6D43726577536869+  "mCrewShi"
DE39  704C6F61644F7574+  "pLoadOut"
DE41  00                 "\0"
                         const [49]: "mCrewShipLoadOut"
DE42  04                 const type 4
DE43  06                 string size (6)
DE44  6D5368697000       "mShip\0"
                         const [50]: "mShip"
DE4A  04                 const type 4
DE4B  05                 string size (5)
DE4C  696E666F00         "info\0"
                         const [51]: "info"
DE51  01                 const type 3
DE52  C3FF0611           const [52]: (285671363)
DE56  01                 const type 3
DE57  52E63D14           const [53]: (339600978)
DE5B  01                 const type 3
DE5C  FD052E6F           const [54]: (1865287165)
DE60  01                 const type 3
DE61  F0B14A4E           const [55]: (1313518064)
DE65  01                 const type 3
DE66  539249A4           const [56]: (-1538682285)
DE6A  04                 const type 4
DE6B  05                 string size (5)
DE6C  6974656D00         "item\0"
                         const [57]: "item"
DE71  01                 const type 3
DE72  ACE3A2E2           const [58]: (-492641364)
DE76  01                 const type 3
DE77  B2EC33DB           const [59]: (-617354062)
DE7B  03                 const type 3
DE7C  6666663F           const [60]: (102)
DE80  03                 const type 3
DE81  0000803E           const [61]: (0)
                         * functions:
DE85  00                 sizep (0)
                         * lines:
DE87  01                 sizelineinfo (219)
                         [pc] (line)
DE88  FA                 [001] (-6)
DE89  05                 [002] (-6)
DE8A  00                 [003] (-5)
DE8B  00                 [004] (-5)
DE8C  FA                 [005] (-5)
DE8D  05                 [006] (-5)
DE8E  00                 [007] (-5)
DE8F  00                 [008] (-5)
DE90  FB                 [009] (-5)
DE91  05                 [010] (-5)
DE92  00                 [011] (-5)
DE93  00                 [012] (-5)
DE94  FB                 [013] (-5)
DE95  05                 [014] (-5)
DE96  00                 [015] (-5)
DE97  00                 [016] (-4)
DE98  FB                 [017] (-4)
DE99  05                 [018] (-4)
DE9A  00                 [019] (-3)
DE9B  00                 [020] (0)
DE9C  FB                 [021] (0)
DE9D  05                 [022] (0)
DE9E  00                 [023] (0)
DE9F  00                 [024] (0)
DEA0  FB                 [025] (0)
DEA1  05                 [026] (0)
DEA2  00                 [027] (1)
DEA3  00                 [028] (1)
DEA4  FB                 [029] (1)
DEA5  05                 [030] (1)
DEA6  00                 [031] (1)
DEA7  00                 [032] (2)
DEA8  FB                 [033] (2)
DEA9  05                 [034] (2)
DEAA  00                 [035] (3)
DEAB  00                 [036] (6)
DEAC  FB                 [037] (6)
DEAD  05                 [038] (6)
DEAE  00                 [039] (7)
DEAF  00                 [040] (7)
DEB0  FB                 [041] (7)
DEB1  05                 [042] (9)
DEB2  00                 [043] (9)
DEB3  00                 [044] (9)
DEB4  FB                 [045] (10)
DEB5  05                 [046] (10)
DEB6  00                 [047] (10)
DEB7  00                 [048] (10)
DEB8  FB                 [049] (10)
DEB9  05                 [050] (10)
DEBA  00                 [051] (10)
DEBB  00                 [052] (10)
DEBC  FB                 [053] (11)
DEBD  05                 [054] (11)
DEBE  00                 [055] (11)
DEBF  00                 [056] (11)
DEC0  FB                 [057] (11)
DEC1  05                 [058] (11)
DEC2  00                 [059] (11)
DEC3  00                 [060] (11)
DEC4  FC                 [061] (14)
DEC5  05                 [062] (14)
DEC6  00                 [063] (14)
DEC7  00                 [064] (14)
DEC8  FC                 [065] (14)
DEC9  05                 [066] (14)
DECA  00                 [067] (15)
DECB  00                 [068] (15)
DECC  FC                 [069] (15)
DECD  05                 [070] (15)
DECE  00                 [071] (20)
DECF  00                 [072] (20)
DED0  FD                 [073] (20)
DED1  05                 [074] (20)
DED2  00                 [075] (21)
DED3  00                 [076] (21)
DED4  00                 [077] (22)
DED5  06                 [078] (22)
DED6  00                 [079] (22)
DED7  00                 [080] (23)
DED8  00                 [081] (23)
DED9  06                 [082] (23)
DEDA  00                 [083] (23)
DEDB  00                 [084] (23)
DEDC  00                 [085] (24)
DEDD  06                 [086] (24)
DEDE  00                 [087] (25)
DEDF  00                 [088] (25)
DEE0  00                 [089] (25)
DEE1  06                 [090] (25)
DEE2  00                 [091] (26)
DEE3  00                 [092] (26)
DEE4  00                 [093] (26)
DEE5  06                 [094] (26)
DEE6  00                 [095] (27)
DEE7  00                 [096] (27)
DEE8  00                 [097] (27)
DEE9  06                 [098] (27)
DEEA  00                 [099] (30)
DEEB  00                 [100] (30)
DEEC  00                 [101] (30)
DEED  06                 [102] (30)
DEEE  00                 [103] (33)
DEEF  00                 [104] (33)
DEF0  01                 [105] (33)
DEF1  06                 [106] (33)
DEF2  00                 [107] (33)
DEF3  00                 [108] (33)
DEF4  01                 [109] (33)
DEF5  06                 [110] (33)
DEF6  00                 [111] (34)
DEF7  00                 [112] (34)
DEF8  01                 [113] (36)
DEF9  06                 [114] (36)
DEFA  00                 [115] (36)
DEFB  00                 [116] (36)
DEFC  01                 [117] (36)
DEFD  06                 [118] (36)
DEFE  00                 [119] (37)
DEFF  00                 [120] (37)
DF00  01                 [121] (37)
DF01  06                 [122] (37)
DF02  00                 [123] (37)
DF03  00                 [124] (37)
DF04  02                 [125] (39)
DF05  06                 [126] (39)
DF06  00                 [127] (39)
DF07  00                 [128] (39)
DF08  02                 [129] (40)
DF09  06                 [130] (40)
DF0A  00                 [131] (40)
DF0B  00                 [132] (40)
DF0C  02                 [133] (40)
DF0D  06                 [134] (41)
DF0E  00                 [135] (41)
DF0F  00                 [136] (41)
DF10  03                 [137] (41)
DF11  06                 [138] (44)
DF12  00                 [139] (44)
DF13  00                 [140] (44)
DF14  06                 [141] (45)
DF15  06                 [142] (45)
DF16  00                 [143] (45)
DF17  00                 [144] (45)
DF18  06                 [145] (45)
DF19  06                 [146] (46)
DF1A  00                 [147] (46)
DF1B  00                 [148] (46)
DF1C  06                 [149] (46)
DF1D  06                 [150] (48)
DF1E  00                 [151] (48)
DF1F  00                 [152] (48)
DF20  07                 [153] (48)
DF21  06                 [154] (48)
DF22  00                 [155] (48)
DF23  00                 [156] (49)
DF24  07                 [157] (49)
DF25  06                 [158] (49)
DF26  00                 [159] (49)
DF27  00                 [160] (49)
DF28  07                 [161] (52)
DF29  06                 [162] (52)
DF2A  00                 [163] (52)
DF2B  00                 [164] (52)
DF2C  09                 [165] (52)
DF2D  06                 [166] (53)
DF2E  00                 [167] (53)
DF2F  00                 [168] (53)
DF30  09                 [169] (54)
DF31  06                 [170] (54)
DF32  00                 [171] (54)
DF33  00                 [172] (55)
DF34  09                 [173] (56)
DF35  06                 [174] (56)
DF36  00                 [175] (56)
DF37  00                 [176] (56)
DF38  0A                 [177] (56)
DF39  06                 [178] (57)
DF3A  00                 [179] (57)
DF3B  00                 [180] (57)
DF3C  0A                 [181] (59)
DF3D  06                 [182] (59)
DF3E  00                 [183] (59)
DF3F  00                 [184] (59)
DF40  0A                 [185] (59)
DF41  06                 [186] (59)
DF42  00                 [187] (59)
DF43  00                 [188] (59)
DF44  0A                 [189] (59)
DF45  06                 [190] (59)
DF46  00                 [191] (59)
DF47  00                 [192] (59)
DF48  0A                 [193] (59)
DF49  06                 [194] (60)
DF4A  00                 [195] (60)
DF4B  00                 [196] (60)
DF4C  0A                 [197] (61)
DF4D  06                 [198] (61)
DF4E  00                 [199] (63)
DF4F  00                 [200] (63)
DF50  0A                 [201] (63)
DF51  06                 [202] (63)
DF52  00                 [203] (63)
DF53  00                 [204] (66)
DF54  0A                 [205] (66)
DF55  06                 [206] (67)
DF56  00                 [207] (67)
DF57  00                 [208] (67)
DF58  0B                 [209] (67)
DF59  06                 [210] (67)
DF5A  00                 [211] (67)
DF5B  00                 [212] (68)
DF5C  0B                 [213] (68)
DF5D  06                 [214] (68)
DF5E  00                 [215] (68)
DF5F  00                 [216] (70)
DF60  0B                 [217] (79)
DF61  06                 [218] (79)
DF62  00                 [219] (80)
                         * locals:
E1F4  00                 sizelocvars (0)
                         * upvalues:
E1F5  00                 sizeupvalues (0)
                         ** end of function **

                         
E1F6                     ** function [47] definition (level 2)
                         ** start of function **
E1F6  00                 string size (0)
                         source name: (none)
E1F8  0C                 line defined (1618)
E1F9  E6                 last line defined (1638)
E1FA  0C                 nups (6)
E1FB  06                 numparams (0)
E1FC  00                 is_vararg (0)
E1FD  00                 maxstacksize (6)
                         * code:
E1FF  2E                 sizecode (46)
E200  1D000000           [01] getglobal  0   0        ; 1074689893
E204  53000000           [02] getupval   1   0      
E208  22800001           [03] call       0   2   2  
E20C  18400000           [04] test       0       1    ; to [6] if false
E210  1A000180           [05] jmp        5            ; to [11]
E214  13008000           [06] getupval   0   1      
E218  53000001           [07] getupval   1   2      
E21C  4E40C000           [08] gettable   1   1   257  ; "INSTALL"
fail op	35
E220  23400000           [09] close      0  
E224  1A000080           [10] jmp        1            ; to [12]
E228  1E008000           [11] return     0   1      
E22C  13000000           [12] getupval   0   0      
E230  24804000           [13] self       0   0   258  ; -1544157541
E234  22800001           [14] call       0   2   2  
E238  5D000000           [15] getglobal  1   0        ; 1074689893
E23C  92000000           [16] move       2   0      
E240  62800001           [17] call       1   2   2  
E244  58400000           [18] test       1       1    ; to [20] if false
E248  1A400680           [19] jmp        26           ; to [46]
E24C  64C04000           [20] self       1   0   259  ; -1957065004
E250  DD000100           [21] getglobal  3   4        ; gCrewShipDamageControllerType
E254  62808001           [22] call       1   3   2  
E258  58000000           [23] test       1       0    ; to [25] if true
E25C  1A000580           [24] jmp        21           ; to [46]
E260  64404100           [25] self       1   0   261  ; -1583259949
E264  62800001           [26] call       1   2   2  
E268  A4804100           [27] self       2   0   262  ; -227502409
E26C  A2800001           [28] call       2   2   2  
fail op	35
E270  23C04101           [29] close      0  
E274  1A400080           [30] jmp        2            ; to [33]
E278  59C00100           [31] loadk      1   7        ; 0
E27C  1A000080           [32] jmp        1            ; to [34]
E280  5C808000           [33] div        1   1   2  
fail op	35
E284  6300C200           [34] close      1  
E288  1A800080           [35] jmp        3            ; to [39]
E28C  D3008001           [36] getupval   3   3      
fail op	35
E290  63C08000           [37] close      1  
E294  1A800180           [38] jmp        7            ; to [46]
E298  D3000002           [39] getupval   3   4      
E29C  13018002           [40] getupval   4   5      
E2A0  0E414202           [41] gettable   4   4   265  ; -1250011425
E2A4  4481C200           [42] mul        5   1   266  ; 0
E2A8  22010001           [43] call       4   2   0  
E2AC  E2400000           [44] call       3   0   1  
fail op	8
E2B0  48008001           [45] setupval   1   3      
E2B4  1E008000           [46] return     0   1      
                         * constants:
E2B8  0B                 sizek (11)
E2B9  01                 const type 3
E2BA  65770E40           const [0]: (1074689893)
E2BE  04                 const type 4
E2BF  08                 string size (8)
E2C0  494E5354414C4C00   "INSTALL\0"
                         const [1]: "INSTALL"
E2C8  01                 const type 3
E2C9  9B06F6A3           const [2]: (-1544157541)
E2CD  01                 const type 3
E2CE  D48E598B           const [3]: (-1957065004)
E2D2  04                 const type 4
E2D3  1E                 string size (30)
E2D4  6743726577536869+  "gCrewShi"
E2DC  7044616D61676543+  "pDamageC"
E2E4  6F6E74726F6C6C65+  "ontrolle"
E2EC  725479706500       "rType\0"
                         const [4]: "gCrewShipDamageControllerType"
E2F2  01                 const type 3
E2F3  D35EA1A1           const [5]: (-1583259949)
E2F7  01                 const type 3
E2F8  B79670F2           const [6]: (-227502409)
E2FC  03                 const type 3
E2FD  00000000           const [7]: (0)
E301  00                 const type 0
                         const [8]: nil
E302  01                 const type 3
E303  DF567EB5           const [9]: (-1250011425)
E307  03                 const type 3
E308  0000C842           const [10]: (0)
                         * functions:
E30C  00                 sizep (0)
                         * lines:
E30D  2E                 sizelineinfo (46)
                         [pc] (line)
E30E  53                 [01] (83)
E30F  06                 [02] (83)
E310  00                 [03] (83)
E311  00                 [04] (83)
E312  53                 [05] (83)
E313  06                 [06] (83)
E314  00                 [07] (83)
E315  00                 [08] (83)
E316  53                 [09] (83)
E317  06                 [10] (83)
E318  00                 [11] (84)
E319  00                 [12] (87)
E31A  53                 [13] (87)
E31B  06                 [14] (87)
E31C  00                 [15] (88)
E31D  00                 [16] (88)
E31E  53                 [17] (88)
E31F  06                 [18] (88)
E320  00                 [19] (88)
E321  00                 [20] (88)
E322  53                 [21] (88)
E323  06                 [22] (88)
E324  00                 [23] (88)
E325  00                 [24] (88)
E326  53                 [25] (89)
E327  06                 [26] (89)
E328  00                 [27] (90)
E329  00                 [28] (90)
E32A  53                 [29] (91)
E32B  06                 [30] (91)
E32C  00                 [31] (92)
E32D  00                 [32] (92)
E32E  53                 [33] (94)
E32F  06                 [34] (96)
E330  00                 [35] (96)
E331  00                 [36] (96)
E332  53                 [37] (96)
E333  06                 [38] (96)
E334  00                 [39] (97)
E335  00                 [40] (97)
E336  54                 [41] (97)
E337  06                 [42] (97)
E338  00                 [43] (97)
E339  00                 [44] (97)
E33A  57                 [45] (99)
E33B  06                 [46] (102)
                         * locals:
E3C6  00                 sizelocvars (0)
                         * upvalues:
E3C7  00                 sizeupvalues (0)
                         ** end of function **

                         
E3C8                     ** function [48] definition (level 2)
                         ** start of function **
E3C8  00                 string size (0)
                         source name: (none)
E3CA  0C                 line defined (1640)
E3CB  9A                 last line defined (1690)
E3CC  0D                 nups (15)
E3CD  0F                 numparams (0)
E3CE  00                 is_vararg (0)
E3CF  00                 maxstacksize (6)
                         * code:
E3D1  60                 sizecode (96)
E3D2  1D000000           [01] getglobal  0   0        ; mMovie
E3D6  24404000           [02] self       0   0   257  ; 135097114
E3DA  9D800000           [03] getglobal  2   2        ; 1661359502
E3DE  A2008000           [04] call       2   1   0  
E3E2  22400000           [05] call       0   0   1  
E3E6  1DC00000           [06] getglobal  0   3        ; 1074689893
E3EA  53000000           [07] getupval   1   0      
E3EE  22800001           [08] call       0   2   2  
E3F2  18400000           [09] test       0       1    ; to [11] if false
E3F6  1A800080           [10] jmp        3            ; to [14]
E3FA  13000000           [11] getupval   0   0      
E3FE  24004100           [12] self       0   0   260  ; -1938777623
E402  22400001           [13] call       0   2   1  
E406  13008000           [14] getupval   0   1      
E40A  18400000           [15] test       0       1    ; to [17] if false
E40E  1A000E80           [16] jmp        57           ; to [74]
E412  1DC00000           [17] getglobal  0   3        ; 1074689893
E416  53000001           [18] getupval   1   2      
E41A  22800001           [19] call       0   2   2  
E41E  18000000           [20] test       0       0    ; to [22] if true
E422  1AC00580           [21] jmp        24           ; to [46]
E426  1D400100           [22] getglobal  0   5        ; gGameRules
E42A  24804100           [23] self       0   0   262  ; 285671363
E42E  22800001           [24] call       0   2   2  
E432  46008000           [25] loadnil    1   1      
E436  9DC00000           [26] getglobal  2   3        ; 1074689893
E43A  D2000000           [27] move       3   0      
E43E  A2800001           [28] call       2   2   2  
E442  98400000           [29] test       2       1    ; to [31] if false
E446  1A800080           [30] jmp        3            ; to [34]
E44A  A4C04100           [31] self       2   0   263  ; 339600978
E44E  A2800001           [32] call       2   2   2  
E452  52000001           [33] move       1   2      
E456  9DC00000           [34] getglobal  2   3        ; 1074689893
E45A  D2008000           [35] move       3   1      
E45E  A2800001           [36] call       2   2   2  
E462  98400000           [37] test       2       1    ; to [39] if false
E466  1A400180           [38] jmp        6            ; to [45]
E46A  A400C200           [39] self       2   1   264  ; -1538682285
E46E  A2800001           [40] call       2   2   2  
fail op	8
E472  88000001           [41] setupval   2   2      
E476  93008001           [42] getupval   2   3      
E47A  8C408084           [43] settable   2   265 1    ; "item"
E47E  1A000080           [44] jmp        1            ; to [46]
E482  1E008000           [45] return     0   1      
E486  93000002           [46] getupval   2   4      
E48A  98000000           [47] test       2       0    ; to [49] if true
E48E  1A000680           [48] jmp        25           ; to [74]
E492  93008002           [49] getupval   2   5      
E496  A4804201           [50] self       2   2   266  ; 1865287165
E49A  A2800001           [51] call       2   2   2  
E49E  A4C04201           [52] self       2   2   267  ; 1313518064
E4A2  A2800001           [53] call       2   2   2  
fail op	8
E4A6  88000002           [54] setupval   2   4      
E4AA  93000002           [55] getupval   2   4      
E4AE  98400000           [56] test       2       1    ; to [58] if false
E4B2  1A800380           [57] jmp        15           ; to [73]
E4B6  97000000           [58] loadbool   2   0   0    ; false
fail op	8
E4BA  88000003           [59] setupval   2   6      
E4BE  93008003           [60] getupval   2   7      
E4C2  8E004301           [61] gettable   2   2   268  ; -617354062
E4C6  DD000000           [62] getglobal  3   0        ; mMovie
E4CA  19410300           [63] loadk      4   13       ; 0
E4CE  59810300           [64] loadk      5   14       ; 0
E4D2  A2400002           [65] call       2   4   1  
E4D6  93000000           [66] getupval   2   0      
E4DA  A4C04301           [67] self       2   2   271  ; -492641364
E4DE  17010000           [68] loadbool   4   0   0    ; false
E4E2  A2408001           [69] call       2   3   1  
E4E6  93000004           [70] getupval   2   8      
E4EA  A2408000           [71] call       2   1   1  
E4EE  1A000080           [72] jmp        1            ; to [74]
E4F2  1E008000           [73] return     0   1      
E4F6  9DC00000           [74] getglobal  2   3        ; 1074689893
E4FA  D3008004           [75] getupval   3   9      
E4FE  A2800001           [76] call       2   2   2  
E502  98400000           [77] test       2       1    ; to [79] if false
E506  1A000180           [78] jmp        5            ; to [84]
E50A  93008004           [79] getupval   2   9      
E50E  A4004101           [80] self       2   2   260  ; -1938777623
E512  1D810000           [81] getglobal  4   2        ; 1661359502
E516  22018000           [82] call       4   1   0  
E51A  A2400000           [83] call       2   0   1  
E51E  93000005           [84] getupval   2   10     
E522  A2408000           [85] call       2   1   1  
E526  93008005           [86] getupval   2   11     
E52A  A2408000           [87] call       2   1   1  
E52E  93000006           [88] getupval   2   12     
E532  A2408000           [89] call       2   1   1  
E536  93008006           [90] getupval   2   13     
E53A  A2408000           [91] call       2   1   1  
E53E  93000007           [92] getupval   2   14     
E542  A4004401           [93] self       2   2   272  ; -1658822453
E546  25010000           [94] closure    4   0      
E54A  A2408001           [95] call       2   3   1  
E54E  1E008000           [96] return     0   1      
                         * constants:
E552  11                 sizek (17)
E553  04                 const type 4
E554  07                 string size (7)
E555  6D4D6F76696500     "mMovie\0"
                         const [0]: "mMovie"
E55C  01                 const type 3
E55D  1A6B0D08           const [1]: (135097114)
E561  01                 const type 3
E562  8E550663           const [2]: (1661359502)
E566  01                 const type 3
E567  65770E40           const [3]: (1074689893)
E56B  01                 const type 3
E56C  E999708C           const [4]: (-1938777623)
E570  04                 const type 4
E571  0B                 string size (11)
E572  6747616D6552756C+  "gGameRul"
E57A  657300             "es\0"
                         const [5]: "gGameRules"
E57D  01                 const type 3
E57E  C3FF0611           const [6]: (285671363)
E582  01                 const type 3
E583  52E63D14           const [7]: (339600978)
E587  01                 const type 3
E588  539249A4           const [8]: (-1538682285)
E58C  04                 const type 4
E58D  05                 string size (5)
E58E  6974656D00         "item\0"
                         const [9]: "item"
E593  01                 const type 3
E594  FD052E6F           const [10]: (1865287165)
E598  01                 const type 3
E599  F0B14A4E           const [11]: (1313518064)
E59D  01                 const type 3
E59E  B2EC33DB           const [12]: (-617354062)
E5A2  03                 const type 3
E5A3  00000000           const [13]: (0)
E5A7  03                 const type 3
E5A8  0000803E           const [14]: (0)
E5AC  01                 const type 3
E5AD  ACE3A2E2           const [15]: (-492641364)
E5B1  01                 const type 3
E5B2  CB60209D           const [16]: (-1658822453)
                         * functions:
E5B6  01                 sizep (1)
                         
E5B7                     ** function [0] definition (level 3)
                         ** start of function **
E5B7  00                 string size (0)
                         source name: (none)
E5B9  0D                 line defined (1685)
E5BA  99                 last line defined (1689)
E5BB  0D                 nups (0)
E5BC  00                 numparams (1)
E5BD  01                 is_vararg (0)
E5BE  00                 maxstacksize (4)
                         * code:
E5C0  0E                 sizecode (14)
E5C1  4E004000           [01] gettable   1   0   256  ; "mClipName"
fail op	35
E5C5  6340C000           [02] close      1  
E5C9  1A400280           [03] jmp        10           ; to [14]
E5CD  5D800000           [04] getglobal  1   2        ; 1074689893
E5D1  8EC04000           [05] gettable   2   0   259  ; "mActivationParticles"
E5D5  62800001           [06] call       1   2   2  
E5D9  58400000           [07] test       1       1    ; to [9] if false
E5DD  1A000180           [08] jmp        5            ; to [14]
E5E1  4EC04000           [09] gettable   1   0   259  ; "mActivationParticles"
E5E5  6400C100           [10] self       1   1   260  ; -1938777623
E5E9  DD400100           [11] getglobal  3   5        ; 1661359502
E5ED  E2008000           [12] call       3   1   0  
E5F1  62400000           [13] call       1   0   1  
E5F5  1E008000           [14] return     0   1      
                         * constants:
E5F9  06                 sizek (6)
E5FA  04                 const type 4
E5FB  0A                 string size (10)
E5FC  6D436C69704E616D+  "mClipNam"
E604  6500               "e\0"
                         const [0]: "mClipName"
E606  00                 const type 0
                         const [1]: nil
E607  01                 const type 3
E608  65770E40           const [2]: (1074689893)
E60C  04                 const type 4
E60D  15                 string size (21)
E60E  6D41637469766174+  "mActivat"
E616  696F6E5061727469+  "ionParti"
E61E  636C657300         "cles\0"
                         const [3]: "mActivationParticles"
E623  01                 const type 3
E624  E999708C           const [4]: (-1938777623)
E628  01                 const type 3
E629  8E550663           const [5]: (1661359502)
                         * functions:
E62D  00                 sizep (0)
                         * lines:
E62E  0E                 sizelineinfo (14)
                         [pc] (line)
E62F  96                 [01] (-106)
E630  06                 [02] (-106)
E631  00                 [03] (-106)
E632  00                 [04] (-106)
E633  96                 [05] (-106)
E634  06                 [06] (-106)
E635  00                 [07] (-106)
E636  00                 [08] (-106)
E637  96                 [09] (-105)
E638  06                 [10] (-105)
E639  00                 [11] (-105)
E63A  00                 [12] (-105)
E63B  96                 [13] (-105)
E63C  06                 [14] (-103)
                         * locals:
E667  00                 sizelocvars (0)
                         * upvalues:
E668  00                 sizeupvalues (0)
                         ** end of function **

                         * lines:
E669  60                 sizelineinfo (96)
                         [pc] (line)
E66A  69                 [01] (105)
E66B  06                 [02] (105)
E66C  00                 [03] (105)
E66D  00                 [04] (105)
E66E  69                 [05] (105)
E66F  06                 [06] (107)
E670  00                 [07] (107)
E671  00                 [08] (107)
E672  69                 [09] (107)
E673  06                 [10] (107)
E674  00                 [11] (108)
E675  00                 [12] (108)
E676  69                 [13] (108)
E677  06                 [14] (111)
E678  00                 [15] (111)
E679  00                 [16] (111)
E67A  69                 [17] (112)
E67B  06                 [18] (112)
E67C  00                 [19] (112)
E67D  00                 [20] (112)
E67E  6B                 [21] (112)
E67F  06                 [22] (113)
E680  00                 [23] (113)
E681  00                 [24] (113)
E682  6B                 [25] (114)
E683  06                 [26] (115)
E684  00                 [27] (115)
E685  00                 [28] (115)
E686  6B                 [29] (115)
E687  06                 [30] (115)
E688  00                 [31] (116)
E689  00                 [32] (116)
E68A  6B                 [33] (116)
E68B  06                 [34] (118)
E68C  00                 [35] (118)
E68D  00                 [36] (118)
E68E  6B                 [37] (118)
E68F  06                 [38] (118)
E690  00                 [39] (119)
E691  00                 [40] (119)
E692  6C                 [41] (119)
E693  06                 [42] (120)
E694  00                 [43] (120)
E695  00                 [44] (120)
E696  6C                 [45] (122)
E697  06                 [46] (126)
E698  00                 [47] (126)
E699  00                 [48] (126)
E69A  6C                 [49] (127)
E69B  06                 [50] (127)
E69C  00                 [51] (127)
E69D  00                 [52] (127)
E69E  6F                 [53] (127)
E69F  06                 [54] (127)
E6A0  00                 [55] (-128)
E6A1  00                 [56] (-128)
E6A2  6F                 [57] (-128)
E6A3  06                 [58] (-127)
E6A4  00                 [59] (-127)
E6A5  00                 [60] (-126)
E6A6  6F                 [61] (-126)
E6A7  06                 [62] (-126)
E6A8  00                 [63] (-126)
E6A9  00                 [64] (-126)
E6AA  70                 [65] (-126)
E6AB  06                 [66] (-125)
E6AC  00                 [67] (-125)
E6AD  00                 [68] (-125)
E6AE  70                 [69] (-125)
E6AF  06                 [70] (-124)
E6B0  00                 [71] (-124)
E6B1  00                 [72] (-124)
E6B2  70                 [73] (-122)
E6B3  06                 [74] (-117)
E6B4  00                 [75] (-117)
E6B5  00                 [76] (-117)
E6B6  70                 [77] (-117)
E6B7  06                 [78] (-117)
E6B8  00                 [79] (-116)
E6B9  00                 [80] (-116)
E6BA  70                 [81] (-116)
E6BB  06                 [82] (-116)
E6BC  00                 [83] (-116)
E6BD  00                 [84] (-113)
E6BE  71                 [85] (-113)
E6BF  06                 [86] (-112)
E6C0  00                 [87] (-112)
E6C1  00                 [88] (-111)
E6C2  71                 [89] (-111)
E6C3  06                 [90] (-110)
E6C4  00                 [91] (-110)
E6C5  00                 [92] (-108)
E6C6  71                 [93] (-108)
E6C7  06                 [94] (-103)
E6C8  00                 [95] (-108)
E6C9  00                 [96] (-102)
                         * locals:
E7EA  00                 sizelocvars (0)
                         * upvalues:
E7EB  00                 sizeupvalues (0)
                         ** end of function **

                         
E7EC                     ** function [49] definition (level 2)
                         ** start of function **
E7EC  00                 string size (0)
                         source name: (none)
E7EE  0D                 line defined (1692)
E7EF  A0                 last line defined (1696)
E7F0  0D                 nups (1)
E7F1  01                 numparams (0)
E7F2  00                 is_vararg (0)
E7F3  00                 maxstacksize (2)
                         * code:
E7F5  05                 sizecode (5)
E7F6  13000000           [1] getupval   0   0      
E7FA  22408000           [2] call       0   1   1  
E7FE  17008000           [3] loadbool   0   1   0    ; true
E802  1E000001           [4] return     0   2      
E806  1E008000           [5] return     0   1      
                         * constants:
E80A  00                 sizek (0)
                         * functions:
E80B  00                 sizep (0)
                         * lines:
E80C  05                 sizelineinfo (5)
                         [pc] (line)
E80D  9D                 [1] (-99)
E80E  06                 [2] (-99)
E80F  00                 [3] (-97)
E810  00                 [4] (-97)
E811  9D                 [5] (-96)
                         * locals:
E821  00                 sizelocvars (0)
                         * upvalues:
E822  00                 sizeupvalues (0)
                         ** end of function **

                         
E823                     ** function [50] definition (level 2)
                         ** start of function **
E823  00                 string size (0)
                         source name: (none)
E825  0D                 line defined (1698)
E826  A4                 last line defined (1700)
E827  0D                 nups (0)
E828  00                 numparams (0)
E829  00                 is_vararg (0)
E82A  00                 maxstacksize (2)
                         * code:
E82C  03                 sizecode (3)
E82D  17008000           [1] loadbool   0   1   0    ; true
E831  1E000001           [2] return     0   2      
E835  1E008000           [3] return     0   1      
                         * constants:
E839  00                 sizek (0)
                         * functions:
E83A  00                 sizep (0)
                         * lines:
E83B  03                 sizelineinfo (3)
                         [pc] (line)
E83C  A3                 [1] (-93)
E83D  06                 [2] (-93)
E83E  00                 [3] (-92)
                         * locals:
E848  00                 sizelocvars (0)
                         * upvalues:
E849  00                 sizeupvalues (0)
                         ** end of function **

                         
E84A                     ** function [51] definition (level 2)
                         ** start of function **
E84A  00                 string size (0)
                         source name: (none)
E84C  0D                 line defined (1702)
E84D  AC                 last line defined (1708)
E84E  0D                 nups (2)
E84F  02                 numparams (2)
E850  02                 is_vararg (0)
E851  00                 maxstacksize (6)
                         * code:
E853  19                 sizecode (25)
E854  93000000           [01] getupval   2   0      
E858  98400000           [02] test       2       1    ; to [4] if false
E85C  1A400280           [03] jmp        10           ; to [14]
E860  93008000           [04] getupval   2   1      
E864  8E004001           [05] gettable   2   2   256  ; "Visible"
E868  98000000           [06] test       2       0    ; to [8] if true
E86C  1A400180           [07] jmp        6            ; to [14]
E870  9D400000           [08] getglobal  2   1        ; 1074689893
E874  D3008000           [09] getupval   3   1      
E878  CE80C001           [10] gettable   3   3   258  ; "Grid"
E87C  A2800001           [11] call       2   2   2  
E880  98000000           [12] test       2       0    ; to [14] if true
E884  1A000080           [13] jmp        1            ; to [15]
E888  1E008000           [14] return     0   1      
E88C  93008000           [15] getupval   2   1      
E890  8E804001           [16] gettable   2   2   258  ; "Grid"
E894  8EC04001           [17] gettable   2   2   259  ; "mScrollBar"
E898  A4004101           [18] self       2   2   260  ; -1622081655
E89C  1D410100           [19] getglobal  4   5        ; -174740002
E8A0  52018000           [20] move       5   1      
E8A4  22810001           [21] call       4   2   2  
E8A8  5D810100           [22] getglobal  5   6        ; _G
E8AC  4EC1C102           [23] gettable   5   5   263  ; "UISound_Scroll"
E8B0  A2400002           [24] call       2   4   1  
E8B4  1E008000           [25] return     0   1      
                         * constants:
E8B8  08                 sizek (8)
E8B9  04                 const type 4
E8BA  08                 string size (8)
E8BB  56697369626C6500   "Visible\0"
                         const [0]: "Visible"
E8C3  01                 const type 3
E8C4  65770E40           const [1]: (1074689893)
E8C8  04                 const type 4
E8C9  05                 string size (5)
E8CA  4772696400         "Grid\0"
                         const [2]: "Grid"
E8CF  04                 const type 4
E8D0  0B                 string size (11)
E8D1  6D5363726F6C6C42+  "mScrollB"
E8D9  617200             "ar\0"
                         const [3]: "mScrollBar"
E8DC  01                 const type 3
E8DD  89FF509F           const [4]: (-1622081655)
E8E1  01                 const type 3
E8E2  DEAD95F5           const [5]: (-174740002)
E8E6  04                 const type 4
E8E7  03                 string size (3)
E8E8  5F4700             "_G\0"
                         const [6]: "_G"
E8EB  04                 const type 4
E8EC  0F                 string size (15)
E8ED  5549536F756E645F+  "UISound_"
E8F5  5363726F6C6C00     "Scroll\0"
                         const [7]: "UISound_Scroll"
                         * functions:
E8FC  00                 sizep (0)
                         * lines:
E8FD  19                 sizelineinfo (25)
                         [pc] (line)
E8FE  A7                 [01] (-89)
E8FF  06                 [02] (-89)
E900  00                 [03] (-89)
E901  00                 [04] (-89)
E902  A7                 [05] (-89)
E903  06                 [06] (-89)
E904  00                 [07] (-89)
E905  00                 [08] (-89)
E906  A7                 [09] (-89)
E907  06                 [10] (-89)
E908  00                 [11] (-89)
E909  00                 [12] (-89)
E90A  A7                 [13] (-89)
E90B  06                 [14] (-88)
E90C  00                 [15] (-85)
E90D  00                 [16] (-85)
E90E  A7                 [17] (-85)
E90F  06                 [18] (-85)
E910  00                 [19] (-85)
E911  00                 [20] (-85)
E912  A7                 [21] (-85)
E913  06                 [22] (-85)
E914  00                 [23] (-85)
E915  00                 [24] (-85)
E916  A7                 [25] (-84)
                         * locals:
E962  00                 sizelocvars (0)
                         * upvalues:
E963  00                 sizeupvalues (0)
                         ** end of function **

                         
E964                     ** function [52] definition (level 2)
                         ** start of function **
E964  00                 string size (0)
                         source name: (none)
E966  0D                 line defined (1710)
E967  BB                 last line defined (1723)
E968  0D                 nups (7)
E969  07                 numparams (0)
E96A  00                 is_vararg (0)
E96B  00                 maxstacksize (4)
                         * code:
E96D  28                 sizecode (40)
E96E  13000000           [01] getupval   0   0      
E972  18400000           [02] test       0       1    ; to [4] if false
E976  1A400380           [03] jmp        14           ; to [18]
E97A  13008000           [04] getupval   0   1      
E97E  53000001           [05] getupval   1   2      
E982  4E00C000           [06] gettable   1   1   256  ; "ENABLE"
fail op	35
E986  63400000           [07] close      1  
E98A  1A000280           [08] jmp        9            ; to [18]
E98E  13008001           [09] getupval   0   3      
E992  0E404000           [10] gettable   0   0   257  ; "Visible"
E996  18400000           [11] test       0       1    ; to [13] if false
E99A  1A000180           [12] jmp        5            ; to [18]
E99E  1D800000           [13] getglobal  0   2        ; 1074689893
E9A2  53000002           [14] getupval   1   4      
E9A6  22800001           [15] call       0   2   2  
E9AA  18000000           [16] test       0       0    ; to [18] if true
E9AE  1A000080           [17] jmp        1            ; to [19]
E9B2  1E008000           [18] return     0   1      
E9B6  13000002           [19] getupval   0   4      
E9BA  24C04000           [20] self       0   0   259  ; -1749775947
E9BE  22800001           [21] call       0   2   2  
E9C2  5D800000           [22] getglobal  1   2        ; 1074689893
E9C6  92000000           [23] move       2   0      
E9CA  62800001           [24] call       1   2   2  
E9CE  58400000           [25] test       1       1    ; to [27] if false
E9D2  1A800080           [26] jmp        3            ; to [30]
E9D6  4E004100           [27] gettable   1   0   260  ; "mMod"
fail op	35
E9DA  2340C100           [28] close      0  
E9DE  1A000080           [29] jmp        1            ; to [31]
E9E2  1E008000           [30] return     0   1      
E9E6  53008002           [31] getupval   1   5      
E9EA  92000000           [32] move       2   0      
E9EE  62800001           [33] call       1   2   2  
E9F2  58400000           [34] test       1       1    ; to [36] if false
E9F6  1AC00080           [35] jmp        4            ; to [40]
E9FA  53000003           [36] getupval   1   6      
E9FE  8E804100           [37] gettable   2   0   262  ; "mIndex"
EA02  C6008001           [38] loadnil    3   3      
EA06  62408001           [39] call       1   3   1  
EA0A  1E008000           [40] return     0   1      
                         * constants:
EA0E  07                 sizek (7)
EA0F  04                 const type 4
EA10  07                 string size (7)
EA11  454E41424C4500     "ENABLE\0"
                         const [0]: "ENABLE"
EA18  04                 const type 4
EA19  08                 string size (8)
EA1A  56697369626C6500   "Visible\0"
                         const [1]: "Visible"
EA22  01                 const type 3
EA23  65770E40           const [2]: (1074689893)
EA27  01                 const type 3
EA28  B589B497           const [3]: (-1749775947)
EA2C  04                 const type 4
EA2D  05                 string size (5)
EA2E  6D4D6F6400         "mMod\0"
                         const [4]: "mMod"
EA33  00                 const type 0
                         const [5]: nil
EA34  04                 const type 4
EA35  07                 string size (7)
EA36  6D496E64657800     "mIndex\0"
                         const [6]: "mIndex"
                         * functions:
EA3D  00                 sizep (0)
                         * lines:
EA3E  28                 sizelineinfo (40)
                         [pc] (line)
EA3F  AF                 [01] (-81)
EA40  06                 [02] (-81)
EA41  00                 [03] (-81)
EA42  00                 [04] (-81)
EA43  AF                 [05] (-81)
EA44  06                 [06] (-81)
EA45  00                 [07] (-81)
EA46  00                 [08] (-81)
EA47  AF                 [09] (-81)
EA48  06                 [10] (-81)
EA49  00                 [11] (-81)
EA4A  00                 [12] (-81)
EA4B  AF                 [13] (-81)
EA4C  06                 [14] (-81)
EA4D  00                 [15] (-81)
EA4E  00                 [16] (-81)
EA4F  AF                 [17] (-81)
EA50  06                 [18] (-80)
EA51  00                 [19] (-77)
EA52  00                 [20] (-77)
EA53  AF                 [21] (-77)
EA54  06                 [22] (-76)
EA55  00                 [23] (-76)
EA56  00                 [24] (-76)
EA57  AF                 [25] (-76)
EA58  06                 [26] (-76)
EA59  00                 [27] (-76)
EA5A  00                 [28] (-76)
EA5B  AF                 [29] (-76)
EA5C  06                 [30] (-75)
EA5D  00                 [31] (-72)
EA5E  00                 [32] (-72)
EA5F  AF                 [33] (-72)
EA60  06                 [34] (-72)
EA61  00                 [35] (-72)
EA62  00                 [36] (-71)
EA63  AF                 [37] (-71)
EA64  06                 [38] (-71)
EA65  00                 [39] (-71)
EA66  00                 [40] (-69)
                         * locals:
EADF  00                 sizelocvars (0)
                         * upvalues:
EAE0  00                 sizeupvalues (0)
                         ** end of function **

                         
EAE1                     ** function [53] definition (level 2)
                         ** start of function **
EAE1  00                 string size (0)
                         source name: (none)
EAE3  0D                 line defined (1725)
EAE4  BF                 last line defined (1727)
EAE5  0D                 nups (0)
EAE6  00                 numparams (0)
EAE7  00                 is_vararg (0)
EAE8  00                 maxstacksize (2)
                         * code:
EAEA  03                 sizecode (3)
EAEB  17008000           [1] loadbool   0   1   0    ; true
EAEF  1E000001           [2] return     0   2      
EAF3  1E008000           [3] return     0   1      
                         * constants:
EAF7  00                 sizek (0)
                         * functions:
EAF8  00                 sizep (0)
                         * lines:
EAF9  03                 sizelineinfo (3)
                         [pc] (line)
EAFA  BE                 [1] (-66)
EAFB  06                 [2] (-66)
EAFC  00                 [3] (-65)
                         * locals:
EB06  00                 sizelocvars (0)
                         * upvalues:
EB07  00                 sizeupvalues (0)
                         ** end of function **

                         
EB08                     ** function [54] definition (level 2)
                         ** start of function **
EB08  00                 string size (0)
                         source name: (none)
EB0A  0D                 line defined (1729)
EB0B  C5                 last line defined (1733)
EB0C  0D                 nups (2)
EB0D  02                 numparams (1)
EB0E  01                 is_vararg (0)
EB0F  00                 maxstacksize (5)
                         * code:
EB11  10                 sizecode (16)
EB12  53000000           [01] getupval   1   0      
EB16  4E00C000           [02] gettable   1   1   256  ; "Visible"
EB1A  58400000           [03] test       1       1    ; to [5] if false
EB1E  1A800280           [04] jmp        11           ; to [16]
EB22  5D400000           [05] getglobal  1   1        ; 1074689893
EB26  93008000           [06] getupval   2   1      
EB2A  62800001           [07] call       1   2   2  
EB2E  58400000           [08] test       1       1    ; to [10] if false
EB32  1A400180           [09] jmp        6            ; to [16]
EB36  53008000           [10] getupval   1   1      
EB3A  6480C000           [11] self       1   1   258  ; -1967297336
EB3E  DDC00000           [12] getglobal  3   3        ; -174740002
EB42  12010000           [13] move       4   0      
EB46  E2000001           [14] call       3   2   0  
EB4A  62400000           [15] call       1   0   1  
EB4E  1E008000           [16] return     0   1      
                         * constants:
EB52  04                 sizek (4)
EB53  04                 const type 4
EB54  08                 string size (8)
EB55  56697369626C6500   "Visible\0"
                         const [0]: "Visible"
EB5D  01                 const type 3
EB5E  65770E40           const [1]: (1074689893)
EB62  01                 const type 3
EB63  C86CBD8A           const [2]: (-1967297336)
EB67  01                 const type 3
EB68  DEAD95F5           const [3]: (-174740002)
                         * functions:
EB6C  00                 sizep (0)
                         * lines:
EB6D  10                 sizelineinfo (16)
                         [pc] (line)
EB6E  C2                 [01] (-62)
EB6F  06                 [02] (-62)
EB70  00                 [03] (-62)
EB71  00                 [04] (-62)
EB72  C2                 [05] (-62)
EB73  06                 [06] (-62)
EB74  00                 [07] (-62)
EB75  00                 [08] (-62)
EB76  C2                 [09] (-62)
EB77  06                 [10] (-61)
EB78  00                 [11] (-61)
EB79  00                 [12] (-61)
EB7A  C2                 [13] (-61)
EB7B  06                 [14] (-61)
EB7C  00                 [15] (-61)
EB7D  00                 [16] (-59)
                         * locals:
EBAE  00                 sizelocvars (0)
                         * upvalues:
EBAF  00                 sizeupvalues (0)
                         ** end of function **

                         
EBB0                     ** function [55] definition (level 2)
                         ** start of function **
EBB0  00                 string size (0)
                         source name: (none)
EBB2  0D                 line defined (1735)
EBB3  CB                 last line defined (1739)
EBB4  0D                 nups (2)
EBB5  02                 numparams (1)
EBB6  01                 is_vararg (0)
EBB7  00                 maxstacksize (5)
                         * code:
EBB9  10                 sizecode (16)
EBBA  53000000           [01] getupval   1   0      
EBBE  4E00C000           [02] gettable   1   1   256  ; "Visible"
EBC2  58400000           [03] test       1       1    ; to [5] if false
EBC6  1A800280           [04] jmp        11           ; to [16]
EBCA  5D400000           [05] getglobal  1   1        ; 1074689893
EBCE  93008000           [06] getupval   2   1      
EBD2  62800001           [07] call       1   2   2  
EBD6  58400000           [08] test       1       1    ; to [10] if false
EBDA  1A400180           [09] jmp        6            ; to [16]
EBDE  53008000           [10] getupval   1   1      
EBE2  6480C000           [11] self       1   1   258  ; 561426718
EBE6  DDC00000           [12] getglobal  3   3        ; -174740002
EBEA  12010000           [13] move       4   0      
EBEE  E2000001           [14] call       3   2   0  
EBF2  62400000           [15] call       1   0   1  
EBF6  1E008000           [16] return     0   1      
                         * constants:
EBFA  04                 sizek (4)
EBFB  04                 const type 4
EBFC  08                 string size (8)
EBFD  56697369626C6500   "Visible\0"
                         const [0]: "Visible"
EC05  01                 const type 3
EC06  65770E40           const [1]: (1074689893)
EC0A  01                 const type 3
EC0B  1EB17621           const [2]: (561426718)
EC0F  01                 const type 3
EC10  DEAD95F5           const [3]: (-174740002)
                         * functions:
EC14  00                 sizep (0)
                         * lines:
EC15  10                 sizelineinfo (16)
                         [pc] (line)
EC16  C8                 [01] (-56)
EC17  06                 [02] (-56)
EC18  00                 [03] (-56)
EC19  00                 [04] (-56)
EC1A  C8                 [05] (-56)
EC1B  06                 [06] (-56)
EC1C  00                 [07] (-56)
EC1D  00                 [08] (-56)
EC1E  C8                 [09] (-56)
EC1F  06                 [10] (-55)
EC20  00                 [11] (-55)
EC21  00                 [12] (-55)
EC22  C8                 [13] (-55)
EC23  06                 [14] (-55)
EC24  00                 [15] (-55)
EC25  00                 [16] (-53)
                         * locals:
EC56  00                 sizelocvars (0)
                         * upvalues:
EC57  00                 sizeupvalues (0)
                         ** end of function **

                         
EC58                     ** function [56] definition (level 2)
                         ** start of function **
EC58  00                 string size (0)
                         source name: (none)
EC5A  0D                 line defined (1741)
EC5B  D1                 last line defined (1745)
EC5C  0D                 nups (3)
EC5D  03                 numparams (1)
EC5E  01                 is_vararg (0)
EC5F  00                 maxstacksize (5)
                         * code:
EC61  14                 sizecode (20)
EC62  53000000           [01] getupval   1   0      
EC66  4E00C000           [02] gettable   1   1   256  ; "Visible"
EC6A  58400000           [03] test       1       1    ; to [5] if false
EC6E  1A800380           [04] jmp        15           ; to [20]
EC72  53008000           [05] getupval   1   1      
EC76  58400000           [06] test       1       1    ; to [8] if false
EC7A  1AC00280           [07] jmp        12           ; to [20]
EC7E  5D400000           [08] getglobal  1   1        ; 1074689893
EC82  93000001           [09] getupval   2   2      
EC86  62800001           [10] call       1   2   2  
EC8A  58400000           [11] test       1       1    ; to [13] if false
EC8E  1A800180           [12] jmp        7            ; to [20]
EC92  53000001           [13] getupval   1   2      
EC96  6480C000           [14] self       1   1   258  ; 1002639746
EC9A  DDC00000           [15] getglobal  3   3        ; -174740002
EC9E  12010000           [16] move       4   0      
ECA2  E2800001           [17] call       3   2   2  
ECA6  17018000           [18] loadbool   4   1   0    ; true
ECAA  62400002           [19] call       1   4   1  
ECAE  1E008000           [20] return     0   1      
                         * constants:
ECB2  04                 sizek (4)
ECB3  04                 const type 4
ECB4  08                 string size (8)
ECB5  56697369626C6500   "Visible\0"
                         const [0]: "Visible"
ECBD  01                 const type 3
ECBE  65770E40           const [1]: (1074689893)
ECC2  01                 const type 3
ECC3  8211C33B           const [2]: (1002639746)
ECC7  01                 const type 3
ECC8  DEAD95F5           const [3]: (-174740002)
                         * functions:
ECCC  00                 sizep (0)
                         * lines:
ECCD  14                 sizelineinfo (20)
                         [pc] (line)
ECCE  CE                 [01] (-50)
ECCF  06                 [02] (-50)
ECD0  00                 [03] (-50)
ECD1  00                 [04] (-50)
ECD2  CE                 [05] (-50)
ECD3  06                 [06] (-50)
ECD4  00                 [07] (-50)
ECD5  00                 [08] (-50)
ECD6  CE                 [09] (-50)
ECD7  06                 [10] (-50)
ECD8  00                 [11] (-50)
ECD9  00                 [12] (-50)
ECDA  CE                 [13] (-49)
ECDB  06                 [14] (-49)
ECDC  00                 [15] (-49)
ECDD  00                 [16] (-49)
ECDE  CE                 [17] (-49)
ECDF  06                 [18] (-49)
ECE0  00                 [19] (-49)
ECE1  00                 [20] (-47)
                         * locals:
ED1E  00                 sizelocvars (0)
                         * upvalues:
ED1F  00                 sizeupvalues (0)
                         ** end of function **

                         
ED20                     ** function [57] definition (level 2)
                         ** start of function **
ED20  00                 string size (0)
                         source name: (none)
ED22  0D                 line defined (1747)
ED23  D7                 last line defined (1751)
ED24  0D                 nups (3)
ED25  03                 numparams (1)
ED26  01                 is_vararg (0)
ED27  00                 maxstacksize (5)
                         * code:
ED29  14                 sizecode (20)
ED2A  53000000           [01] getupval   1   0      
ED2E  4E00C000           [02] gettable   1   1   256  ; "Visible"
ED32  58400000           [03] test       1       1    ; to [5] if false
ED36  1A800380           [04] jmp        15           ; to [20]
ED3A  53008000           [05] getupval   1   1      
ED3E  58400000           [06] test       1       1    ; to [8] if false
ED42  1AC00280           [07] jmp        12           ; to [20]
ED46  5D400000           [08] getglobal  1   1        ; 1074689893
ED4A  93000001           [09] getupval   2   2      
ED4E  62800001           [10] call       1   2   2  
ED52  58400000           [11] test       1       1    ; to [13] if false
ED56  1A800180           [12] jmp        7            ; to [20]
ED5A  53000001           [13] getupval   1   2      
ED5E  6480C000           [14] self       1   1   258  ; 146425179
ED62  DDC00000           [15] getglobal  3   3        ; -174740002
ED66  12010000           [16] move       4   0      
ED6A  E2800001           [17] call       3   2   2  
ED6E  17018000           [18] loadbool   4   1   0    ; true
ED72  62400002           [19] call       1   4   1  
ED76  1E008000           [20] return     0   1      
                         * constants:
ED7A  04                 sizek (4)
ED7B  04                 const type 4
ED7C  08                 string size (8)
ED7D  56697369626C6500   "Visible\0"
                         const [0]: "Visible"
ED85  01                 const type 3
ED86  65770E40           const [1]: (1074689893)
ED8A  01                 const type 3
ED8B  5B45BA08           const [2]: (146425179)
ED8F  01                 const type 3
ED90  DEAD95F5           const [3]: (-174740002)
                         * functions:
ED94  00                 sizep (0)
                         * lines:
ED95  14                 sizelineinfo (20)
                         [pc] (line)
ED96  D4                 [01] (-44)
ED97  06                 [02] (-44)
ED98  00                 [03] (-44)
ED99  00                 [04] (-44)
ED9A  D4                 [05] (-44)
ED9B  06                 [06] (-44)
ED9C  00                 [07] (-44)
ED9D  00                 [08] (-44)
ED9E  D4                 [09] (-44)
ED9F  06                 [10] (-44)
EDA0  00                 [11] (-44)
EDA1  00                 [12] (-44)
EDA2  D4                 [13] (-43)
EDA3  06                 [14] (-43)
EDA4  00                 [15] (-43)
EDA5  00                 [16] (-43)
EDA6  D4                 [17] (-43)
EDA7  06                 [18] (-43)
EDA8  00                 [19] (-43)
EDA9  00                 [20] (-41)
                         * locals:
EDE6  00                 sizelocvars (0)
                         * upvalues:
EDE7  00                 sizeupvalues (0)
                         ** end of function **

                         
EDE8                     ** function [58] definition (level 2)
                         ** start of function **
EDE8  00                 string size (0)
                         source name: (none)
EDEA  0D                 line defined (1753)
EDEB  DD                 last line defined (1757)
EDEC  0D                 nups (1)
EDED  01                 numparams (1)
EDEE  01                 is_vararg (0)
EDEF  00                 maxstacksize (5)
                         * code:
EDF1  12                 sizecode (18)
EDF2  53000000           [01] getupval   1   0      
EDF6  4E00C000           [02] gettable   1   1   256  ; "Visible"
EDFA  58000000           [03] test       1       0    ; to [5] if true
EDFE  1A000380           [04] jmp        13           ; to [18]
EE02  5D400000           [05] getglobal  1   1        ; 1074689893
EE06  93000000           [06] getupval   2   0      
EE0A  8E804001           [07] gettable   2   2   258  ; "Grid"
EE0E  62800001           [08] call       1   2   2  
EE12  58400000           [09] test       1       1    ; to [11] if false
EE16  1A800180           [10] jmp        7            ; to [18]
EE1A  53000000           [11] getupval   1   0      
EE1E  4E80C000           [12] gettable   1   1   258  ; "Grid"
EE22  64C0C000           [13] self       1   1   259  ; -1967297336
EE26  DD000100           [14] getglobal  3   4        ; -174740002
EE2A  12010000           [15] move       4   0      
EE2E  E2000001           [16] call       3   2   0  
EE32  62400000           [17] call       1   0   1  
EE36  1E008000           [18] return     0   1      
                         * constants:
EE3A  05                 sizek (5)
EE3B  04                 const type 4
EE3C  08                 string size (8)
EE3D  56697369626C6500   "Visible\0"
                         const [0]: "Visible"
EE45  01                 const type 3
EE46  65770E40           const [1]: (1074689893)
EE4A  04                 const type 4
EE4B  05                 string size (5)
EE4C  4772696400         "Grid\0"
                         const [2]: "Grid"
EE51  01                 const type 3
EE52  C86CBD8A           const [3]: (-1967297336)
EE56  01                 const type 3
EE57  DEAD95F5           const [4]: (-174740002)
                         * functions:
EE5B  00                 sizep (0)
                         * lines:
EE5C  12                 sizelineinfo (18)
                         [pc] (line)
EE5D  DA                 [01] (-38)
EE5E  06                 [02] (-38)
EE5F  00                 [03] (-38)
EE60  00                 [04] (-38)
EE61  DA                 [05] (-38)
EE62  06                 [06] (-38)
EE63  00                 [07] (-38)
EE64  00                 [08] (-38)
EE65  DA                 [09] (-38)
EE66  06                 [10] (-38)
EE67  00                 [11] (-37)
EE68  00                 [12] (-37)
EE69  DA                 [13] (-37)
EE6A  06                 [14] (-37)
EE6B  00                 [15] (-37)
EE6C  00                 [16] (-37)
EE6D  DA                 [17] (-37)
EE6E  06                 [18] (-35)
                         * locals:
EEA5  00                 sizelocvars (0)
                         * upvalues:
EEA6  00                 sizeupvalues (0)
                         ** end of function **

                         
EEA7                     ** function [59] definition (level 2)
                         ** start of function **
EEA7  00                 string size (0)
                         source name: (none)
EEA9  0D                 line defined (1759)
EEAA  E3                 last line defined (1763)
EEAB  0D                 nups (1)
EEAC  01                 numparams (1)
EEAD  01                 is_vararg (0)
EEAE  00                 maxstacksize (5)
                         * code:
EEB0  12                 sizecode (18)
EEB1  53000000           [01] getupval   1   0      
EEB5  4E00C000           [02] gettable   1   1   256  ; "Visible"
EEB9  58000000           [03] test       1       0    ; to [5] if true
EEBD  1A000380           [04] jmp        13           ; to [18]
EEC1  5D400000           [05] getglobal  1   1        ; 1074689893
EEC5  93000000           [06] getupval   2   0      
EEC9  8E804001           [07] gettable   2   2   258  ; "Grid"
EECD  62800001           [08] call       1   2   2  
EED1  58400000           [09] test       1       1    ; to [11] if false
EED5  1A800180           [10] jmp        7            ; to [18]
EED9  53000000           [11] getupval   1   0      
EEDD  4E80C000           [12] gettable   1   1   258  ; "Grid"
EEE1  64C0C000           [13] self       1   1   259  ; 561426718
EEE5  DD000100           [14] getglobal  3   4        ; -174740002
EEE9  12010000           [15] move       4   0      
EEED  E2000001           [16] call       3   2   0  
EEF1  62400000           [17] call       1   0   1  
EEF5  1E008000           [18] return     0   1      
                         * constants:
EEF9  05                 sizek (5)
EEFA  04                 const type 4
EEFB  08                 string size (8)
EEFC  56697369626C6500   "Visible\0"
                         const [0]: "Visible"
EF04  01                 const type 3
EF05  65770E40           const [1]: (1074689893)
EF09  04                 const type 4
EF0A  05                 string size (5)
EF0B  4772696400         "Grid\0"
                         const [2]: "Grid"
EF10  01                 const type 3
EF11  1EB17621           const [3]: (561426718)
EF15  01                 const type 3
EF16  DEAD95F5           const [4]: (-174740002)
                         * functions:
EF1A  00                 sizep (0)
                         * lines:
EF1B  12                 sizelineinfo (18)
                         [pc] (line)
EF1C  E0                 [01] (-32)
EF1D  06                 [02] (-32)
EF1E  00                 [03] (-32)
EF1F  00                 [04] (-32)
EF20  E0                 [05] (-32)
EF21  06                 [06] (-32)
EF22  00                 [07] (-32)
EF23  00                 [08] (-32)
EF24  E0                 [09] (-32)
EF25  06                 [10] (-32)
EF26  00                 [11] (-31)
EF27  00                 [12] (-31)
EF28  E0                 [13] (-31)
EF29  06                 [14] (-31)
EF2A  00                 [15] (-31)
EF2B  00                 [16] (-31)
EF2C  E0                 [17] (-31)
EF2D  06                 [18] (-29)
                         * locals:
EF64  00                 sizelocvars (0)
                         * upvalues:
EF65  00                 sizeupvalues (0)
                         ** end of function **

                         
EF66                     ** function [60] definition (level 2)
                         ** start of function **
EF66  00                 string size (0)
                         source name: (none)
EF68  0D                 line defined (1765)
EF69  E9                 last line defined (1769)
EF6A  0D                 nups (2)
EF6B  02                 numparams (1)
EF6C  01                 is_vararg (0)
EF6D  00                 maxstacksize (5)
                         * code:
EF6F  16                 sizecode (22)
EF70  53000000           [01] getupval   1   0      
EF74  4E00C000           [02] gettable   1   1   256  ; "Visible"
EF78  58000000           [03] test       1       0    ; to [5] if true
EF7C  1A000480           [04] jmp        17           ; to [22]
EF80  53008000           [05] getupval   1   1      
EF84  58400000           [06] test       1       1    ; to [8] if false
EF88  1A400380           [07] jmp        14           ; to [22]
EF8C  5D400000           [08] getglobal  1   1        ; 1074689893
EF90  93000000           [09] getupval   2   0      
EF94  8E804001           [10] gettable   2   2   258  ; "Grid"
EF98  62800001           [11] call       1   2   2  
EF9C  58400000           [12] test       1       1    ; to [14] if false
EFA0  1AC00180           [13] jmp        8            ; to [22]
EFA4  53000000           [14] getupval   1   0      
EFA8  4E80C000           [15] gettable   1   1   258  ; "Grid"
EFAC  64C0C000           [16] self       1   1   259  ; 1002639746
EFB0  DD000100           [17] getglobal  3   4        ; -174740002
EFB4  12010000           [18] move       4   0      
EFB8  E2800001           [19] call       3   2   2  
EFBC  17018000           [20] loadbool   4   1   0    ; true
EFC0  62400002           [21] call       1   4   1  
EFC4  1E008000           [22] return     0   1      
                         * constants:
EFC8  05                 sizek (5)
EFC9  04                 const type 4
EFCA  08                 string size (8)
EFCB  56697369626C6500   "Visible\0"
                         const [0]: "Visible"
EFD3  01                 const type 3
EFD4  65770E40           const [1]: (1074689893)
EFD8  04                 const type 4
EFD9  05                 string size (5)
EFDA  4772696400         "Grid\0"
                         const [2]: "Grid"
EFDF  01                 const type 3
EFE0  8211C33B           const [3]: (1002639746)
EFE4  01                 const type 3
EFE5  DEAD95F5           const [4]: (-174740002)
                         * functions:
EFE9  00                 sizep (0)
                         * lines:
EFEA  16                 sizelineinfo (22)
                         [pc] (line)
EFEB  E6                 [01] (-26)
EFEC  06                 [02] (-26)
EFED  00                 [03] (-26)
EFEE  00                 [04] (-26)
EFEF  E6                 [05] (-26)
EFF0  06                 [06] (-26)
EFF1  00                 [07] (-26)
EFF2  00                 [08] (-26)
EFF3  E6                 [09] (-26)
EFF4  06                 [10] (-26)
EFF5  00                 [11] (-26)
EFF6  00                 [12] (-26)
EFF7  E6                 [13] (-26)
EFF8  06                 [14] (-25)
EFF9  00                 [15] (-25)
EFFA  00                 [16] (-25)
EFFB  E6                 [17] (-25)
EFFC  06                 [18] (-25)
EFFD  00                 [19] (-25)
EFFE  00                 [20] (-25)
EFFF  E6                 [21] (-25)
F000  06                 [22] (-23)
                         * locals:
F043  00                 sizelocvars (0)
                         * upvalues:
F044  00                 sizeupvalues (0)
                         ** end of function **

                         
F045                     ** function [61] definition (level 2)
                         ** start of function **
F045  00                 string size (0)
                         source name: (none)
F047  0D                 line defined (1771)
F048  EF                 last line defined (1775)
F049  0D                 nups (2)
F04A  02                 numparams (1)
F04B  01                 is_vararg (0)
F04C  00                 maxstacksize (5)
                         * code:
F04E  16                 sizecode (22)
F04F  53000000           [01] getupval   1   0      
F053  4E00C000           [02] gettable   1   1   256  ; "Visible"
F057  58000000           [03] test       1       0    ; to [5] if true
F05B  1A000480           [04] jmp        17           ; to [22]
F05F  53008000           [05] getupval   1   1      
F063  58400000           [06] test       1       1    ; to [8] if false
F067  1A400380           [07] jmp        14           ; to [22]
F06B  5D400000           [08] getglobal  1   1        ; 1074689893
F06F  93000000           [09] getupval   2   0      
F073  8E804001           [10] gettable   2   2   258  ; "Grid"
F077  62800001           [11] call       1   2   2  
F07B  58400000           [12] test       1       1    ; to [14] if false
F07F  1AC00180           [13] jmp        8            ; to [22]
F083  53000000           [14] getupval   1   0      
F087  4E80C000           [15] gettable   1   1   258  ; "Grid"
F08B  64C0C000           [16] self       1   1   259  ; 146425179
F08F  DD000100           [17] getglobal  3   4        ; -174740002
F093  12010000           [18] move       4   0      
F097  E2800001           [19] call       3   2   2  
F09B  17018000           [20] loadbool   4   1   0    ; true
F09F  62400002           [21] call       1   4   1  
F0A3  1E008000           [22] return     0   1      
                         * constants:
F0A7  05                 sizek (5)
F0A8  04                 const type 4
F0A9  08                 string size (8)
F0AA  56697369626C6500   "Visible\0"
                         const [0]: "Visible"
F0B2  01                 const type 3
F0B3  65770E40           const [1]: (1074689893)
F0B7  04                 const type 4
F0B8  05                 string size (5)
F0B9  4772696400         "Grid\0"
                         const [2]: "Grid"
F0BE  01                 const type 3
F0BF  5B45BA08           const [3]: (146425179)
F0C3  01                 const type 3
F0C4  DEAD95F5           const [4]: (-174740002)
                         * functions:
F0C8  00                 sizep (0)
                         * lines:
F0C9  16                 sizelineinfo (22)
                         [pc] (line)
F0CA  EC                 [01] (-20)
F0CB  06                 [02] (-20)
F0CC  00                 [03] (-20)
F0CD  00                 [04] (-20)
F0CE  EC                 [05] (-20)
F0CF  06                 [06] (-20)
F0D0  00                 [07] (-20)
F0D1  00                 [08] (-20)
F0D2  EC                 [09] (-20)
F0D3  06                 [10] (-20)
F0D4  00                 [11] (-20)
F0D5  00                 [12] (-20)
F0D6  EC                 [13] (-20)
F0D7  06                 [14] (-19)
F0D8  00                 [15] (-19)
F0D9  00                 [16] (-19)
F0DA  EC                 [17] (-19)
F0DB  06                 [18] (-19)
F0DC  00                 [19] (-19)
F0DD  00                 [20] (-19)
F0DE  EC                 [21] (-19)
F0DF  06                 [22] (-17)
                         * locals:
F122  00                 sizelocvars (0)
                         * upvalues:
F123  00                 sizeupvalues (0)
                         ** end of function **

                         
F124                     ** function [62] definition (level 2)
                         ** start of function **
F124  00                 string size (0)
                         source name: (none)
F126  0D                 line defined (1777)
F127  F3                 last line defined (1779)
F128  0D                 nups (1)
F129  01                 numparams (1)
F12A  01                 is_vararg (0)
F12B  00                 maxstacksize (2)
                         * code:
F12D  02                 sizecode (2)
fail op	8
F12E  08000000           [1] setupval   0   0      
F132  1E008000           [2] return     0   1      
                         * constants:
F136  00                 sizek (0)
                         * functions:
F137  00                 sizep (0)
                         * lines:
F138  02                 sizelineinfo (2)
                         [pc] (line)
F139  F2                 [1] (-14)
F13A  06                 [2] (-13)
                         * locals:
F141  00                 sizelocvars (0)
                         * upvalues:
F142  00                 sizeupvalues (0)
                         ** end of function **

                         * lines:
F144  04                 sizelineinfo (523)
                         [pc] (line)
F145  1F                 [001] (31)
F146  00                 [002] (31)
F147  00                 [003] (31)
F148  00                 [004] (32)
F149  1F                 [005] (32)
F14A  00                 [006] (32)
F14B  00                 [007] (33)
F14C  00                 [008] (33)
F14D  1F                 [009] (33)
F14E  00                 [010] (34)
F14F  00                 [011] (34)
F150  00                 [012] (34)
F151  20                 [013] (35)
F152  00                 [014] (35)
F153  00                 [015] (35)
F154  00                 [016] (36)
F155  20                 [017] (36)
F156  00                 [018] (36)
F157  00                 [019] (37)
F158  00                 [020] (40)
F159  20                 [021] (41)
F15A  00                 [022] (42)
F15B  00                 [023] (43)
F15C  00                 [024] (45)
F15D  21                 [025] (46)
F15E  00                 [026] (47)
F15F  00                 [027] (48)
F160  00                 [028] (52)
F161  21                 [029] (52)
F162  00                 [030] (52)
F163  00                 [031] (52)
F164  00                 [032] (52)
F165  21                 [033] (53)
F166  00                 [034] (53)
F167  00                 [035] (54)
F168  00                 [036] (54)
F169  22                 [037] (54)
F16A  00                 [038] (54)
F16B  00                 [039] (56)
F16C  00                 [040] (56)
F16D  22                 [041] (56)
F16E  00                 [042] (56)
F16F  00                 [043] (57)
F170  00                 [044] (57)
F171  22                 [045] (57)
F172  00                 [046] (57)
F173  00                 [047] (58)
F174  00                 [048] (61)
F175  23                 [049] (62)
F176  00                 [050] (63)
F177  00                 [051] (63)
F178  00                 [052] (63)
F179  23                 [053] (63)
F17A  00                 [054] (63)
F17B  00                 [055] (64)
F17C  00                 [056] (65)
F17D  23                 [057] (66)
F17E  00                 [058] (71)
F17F  00                 [059] (72)
F180  00                 [060] (73)
F181  24                 [061] (74)
F182  00                 [062] (75)
F183  00                 [063] (75)
F184  00                 [064] (75)
F185  24                 [065] (75)
F186  00                 [066] (75)
F187  00                 [067] (75)
F188  00                 [068] (75)
F189  24                 [069] (75)
F18A  00                 [070] (75)
F18B  00                 [071] (75)
F18C  00                 [072] (75)
F18D  25                 [073] (76)
F18E  00                 [074] (84)
F18F  00                 [075] (86)
F190  00                 [076] (86)
F191  28                 [077] (86)
F192  00                 [078] (86)
F193  00                 [079] (86)
F194  00                 [080] (86)
F195  29                 [081] (86)
F196  00                 [082] (86)
F197  00                 [083] (86)
F198  00                 [084] (86)
F199  2A                 [085] (86)
F19A  00                 [086] (86)
F19B  00                 [087] (86)
F19C  00                 [088] (86)
F19D  2B                 [089] (86)
F19E  00                 [090] (86)
F19F  00                 [091] (86)
F1A0  00                 [092] (86)
F1A1  2D                 [093] (86)
F1A2  00                 [094] (86)
F1A3  00                 [095] (86)
F1A4  00                 [096] (86)
F1A5  2E                 [097] (86)
F1A6  00                 [098] (86)
F1A7  00                 [099] (86)
F1A8  00                 [100] (86)
F1A9  2F                 [101] (86)
F1AA  00                 [102] (86)
F1AB  00                 [103] (86)
F1AC  00                 [104] (86)
F1AD  30                 [105] (87)
F1AE  00                 [106] (87)
F1AF  00                 [107] (87)
F1B0  00                 [108] (88)
F1B1  34                 [109] (89)
F1B2  00                 [110] (91)
F1B3  00                 [111] (92)
F1B4  00                 [112] (94)
F1B5  34                 [113] (95)
F1B6  00                 [114] (95)
F1B7  00                 [115] (95)
F1B8  00                 [116] (96)
F1B9  34                 [117] (96)
F1BA  00                 [118] (96)
F1BB  00                 [119] (97)
F1BC  00                 [120] (99)
F1BD  34                 [121] (100)
F1BE  00                 [122] (100)
F1BF  00                 [123] (100)
F1C0  00                 [124] (101)
F1C1  34                 [125] (101)
F1C2  00                 [126] (101)
F1C3  00                 [127] (101)
F1C4  00                 [128] (102)
F1C5  35                 [129] (104)
F1C6  00                 [130] (105)
F1C7  00                 [131] (105)
F1C8  00                 [132] (105)
F1C9  35                 [133] (105)
F1CA  00                 [134] (106)
F1CB  00                 [135] (106)
F1CC  00                 [136] (106)
F1CD  36                 [137] (106)
F1CE  00                 [138] (107)
F1CF  00                 [139] (109)
F1D0  00                 [140] (110)
F1D1  36                 [141] (110)
F1D2  00                 [142] (110)
F1D3  00                 [143] (110)
F1D4  00                 [144] (111)
F1D5  36                 [145] (111)
F1D6  00                 [146] (111)
F1D7  00                 [147] (111)
F1D8  00                 [148] (113)
F1D9  36                 [149] (114)
F1DA  00                 [150] (114)
F1DB  00                 [151] (114)
F1DC  00                 [152] (114)
F1DD  38                 [153] (114)
F1DE  00                 [154] (117)
F1DF  00                 [155] (117)
F1E0  00                 [156] (117)
F1E1  38                 [157] (119)
F1E2  00                 [158] (-114)
F1E3  00                 [159] (-114)
F1E4  00                 [160] (-114)
F1E5  38                 [161] (-114)
F1E6  00                 [162] (-114)
F1E7  00                 [163] (-110)
F1E8  00                 [164] (-110)
F1E9  38                 [165] (-110)
F1EA  00                 [166] (-112)
F1EB  00                 [167] (-85)
F1EC  00                 [168] (-85)
F1ED  39                 [169] (-85)
F1EE  00                 [170] (-85)
F1EF  00                 [171] (-85)
F1F0  00                 [172] (-108)
F1F1  39                 [173] (-34)
F1F2  00                 [174] (-34)
F1F3  00                 [175] (-34)
F1F4  00                 [176] (-34)
F1F5  39                 [177] (-34)
F1F6  00                 [178] (-34)
F1F7  00                 [179] (-34)
F1F8  00                 [180] (-34)
F1F9  39                 [181] (-34)
F1FA  00                 [182] (-34)
F1FB  00                 [183] (-34)
F1FC  00                 [184] (-34)
F1FD  3A                 [185] (-34)
F1FE  00                 [186] (-12)
F1FF  00                 [187] (-12)
F200  00                 [188] (-12)
F201  3D                 [189] (-12)
F202  00                 [190] (-12)
F203  00                 [191] (-12)
F204  00                 [192] (-32)
F205  3E                 [193] (-1)
F206  00                 [194] (-1)
F207  00                 [195] (-1)
F208  00                 [196] (-1)
F209  3F                 [197] (-1)
F20A  00                 [198] (-10)
F20B  00                 [199] (3)
F20C  00                 [200] (3)
F20D  3F                 [201] (3)
F20E  00                 [202] (1)
F20F  00                 [203] (11)
F210  00                 [204] (11)
F211  3F                 [205] (11)
F212  00                 [206] (5)
F213  00                 [207] (24)
F214  00                 [208] (24)
F215  3F                 [209] (79)
F216  00                 [210] (79)
F217  00                 [211] (79)
F218  00                 [212] (79)
F219  3F                 [213] (79)
F21A  00                 [214] (79)
F21B  00                 [215] (79)
F21C  00                 [216] (26)
F21D  40                 [217] (90)
F21E  00                 [218] (90)
F21F  00                 [219] (90)
F220  00                 [220] (123)
F221  41                 [221] (123)
F222  00                 [222] (123)
F223  00                 [223] (123)
F224  00                 [224] (123)
F225  42                 [225] (123)
F226  00                 [226] (123)
F227  00                 [227] (123)
F228  00                 [228] (123)
F229  47                 [229] (123)
F22A  00                 [230] (123)
F22B  00                 [231] (-101)
F22C  00                 [232] (-101)
F22D  48                 [233] (-79)
F22E  00                 [234] (-79)
F22F  00                 [235] (-46)
F230  00                 [236] (-46)
F231  49                 [237] (-22)
F232  00                 [238] (-22)
F233  00                 [239] (-22)
F234  00                 [240] (10)
F235  4A                 [241] (10)
F236  00                 [242] (18)
F237  00                 [243] (66)
F238  00                 [244] (66)
F239  4B                 [245] (66)
F23A  00                 [246] (113)
F23B  00                 [247] (113)
F23C  00                 [248] (113)
F23D  4B                 [249] (113)
F23E  00                 [250] (113)
F23F  00                 [251] (113)
F240  00                 [252] (113)
F241  4B                 [253] (123)
F242  00                 [254] (123)
F243  00                 [255] (123)
F244  00                 [256] (-123)
F245  4B                 [257] (-123)
F246  00                 [258] (-123)
F247  00                 [259] (-30)
F248  00                 [260] (-30)
F249  4B                 [261] (-30)
F24A  00                 [262] (-30)
F24B  00                 [263] (-30)
F24C  00                 [264] (-30)
F24D  4B                 [265] (-30)
F24E  00                 [266] (48)
F24F  00                 [267] (48)
F250  00                 [268] (48)
F251  4B                 [269] (48)
F252  00                 [270] (48)
F253  00                 [271] (48)
F254  00                 [272] (65)
F255  4B                 [273] (65)
F256  00                 [274] (65)
F257  00                 [275] (89)
F258  00                 [276] (89)
F259  4B                 [277] (-87)
F25A  00                 [278] (-87)
F25B  00                 [279] (-87)
F25C  00                 [280] (-87)
F25D  4B                 [281] (-87)
F25E  00                 [282] (-87)
F25F  00                 [283] (-87)
F260  00                 [284] (-87)
F261  4B                 [285] (-87)
F262  00                 [286] (-87)
F263  00                 [287] (-87)
F264  00                 [288] (-87)
F265  4C                 [289] (-87)
F266  00                 [290] (-64)
F267  00                 [291] (-64)
F268  00                 [292] (-64)
F269  54                 [293] (74)
F26A  00                 [294] (74)
F26B  00                 [295] (74)
F26C  00                 [296] (74)
F26D  56                 [297] (74)
F26E  00                 [298] (74)
F26F  00                 [299] (74)
F270  00                 [300] (74)
F271  56                 [301] (74)
F272  00                 [302] (74)
F273  00                 [303] (74)
F274  00                 [304] (74)
F275  56                 [305] (74)
F276  00                 [306] (89)
F277  00                 [307] (89)
F278  00                 [308] (89)
F279  56                 [309] (99)
F27A  00                 [310] (99)
F27B  00                 [311] (99)
F27C  00                 [312] (99)
F27D  56                 [313] (120)
F27E  00                 [314] (120)
F27F  00                 [315] (120)
F280  00                 [316] (120)
F281  56                 [317] (120)
F282  00                 [318] (120)
F283  00                 [319] (120)
F284  00                 [320] (-117)
F285  56                 [321] (-117)
F286  00                 [322] (-117)
F287  00                 [323] (-114)
F288  00                 [324] (-114)
F289  56                 [325] (-115)
F28A  00                 [326] (-107)
F28B  00                 [327] (-107)
F28C  00                 [328] (-107)
F28D  56                 [329] (-107)
F28E  00                 [330] (-112)
F28F  00                 [331] (-93)
F290  00                 [332] (-93)
F291  56                 [333] (-78)
F292  00                 [334] (-78)
F293  00                 [335] (-78)
F294  00                 [336] (-78)
F295  56                 [337] (-78)
F296  00                 [338] (-78)
F297  00                 [339] (-78)
F298  00                 [340] (-46)
F299  56                 [341] (-46)
F29A  00                 [342] (-46)
F29B  00                 [343] (-46)
F29C  00                 [344] (-46)
F29D  56                 [345] (-7)
F29E  00                 [346] (-7)
F29F  00                 [347] (-7)
F2A0  00                 [348] (-7)
F2A1  56                 [349] (-7)
F2A2  00                 [350] (-7)
F2A3  00                 [351] (-7)
F2A4  00                 [352] (-7)
F2A5  56                 [353] (-7)
F2A6  00                 [354] (10)
F2A7  00                 [355] (53)
F2A8  00                 [356] (53)
F2A9  56                 [357] (53)
F2AA  00                 [358] (53)
F2AB  00                 [359] (53)
F2AC  00                 [360] (53)
F2AD  56                 [361] (53)
F2AE  00                 [362] (53)
F2AF  00                 [363] (53)
F2B0  00                 [364] (53)
F2B1  56                 [365] (53)
F2B2  00                 [366] (53)
F2B3  00                 [367] (-115)
F2B4  00                 [368] (-115)
F2B5  56                 [369] (-115)
F2B6  00                 [370] (-115)
F2B7  00                 [371] (-115)
F2B8  00                 [372] (-115)
F2B9  56                 [373] (-115)
F2BA  00                 [374] (-115)
F2BB  00                 [375] (-115)
F2BC  00                 [376] (-98)
F2BD  56                 [377] (-98)
F2BE  00                 [378] (-98)
F2BF  00                 [379] (-98)
F2C0  00                 [380] (-94)
F2C1  56                 [381] (-94)
F2C2  00                 [382] (-94)
F2C3  00                 [383] (-96)
F2C4  00                 [384] (-9)
F2C5  56                 [385] (-9)
F2C6  00                 [386] (-9)
F2C7  00                 [387] (-9)
F2C8  00                 [388] (-9)
F2C9  56                 [389] (-9)
F2CA  00                 [390] (-9)
F2CB  00                 [391] (-9)
F2CC  00                 [392] (-9)
F2CD  56                 [393] (-9)
F2CE  00                 [394] (-9)
F2CF  00                 [395] (-9)
F2D0  00                 [396] (-9)
F2D1  56                 [397] (-9)
F2D2  00                 [398] (-9)
F2D3  00                 [399] (-9)
F2D4  00                 [400] (-9)
F2D5  56                 [401] (-9)
F2D6  00                 [402] (-9)
F2D7  00                 [403] (-9)
F2D8  00                 [404] (-9)
F2D9  56                 [405] (-9)
F2DA  00                 [406] (-9)
F2DB  00                 [407] (-9)
F2DC  00                 [408] (-9)
F2DD  56                 [409] (-9)
F2DE  00                 [410] (-9)
F2DF  00                 [411] (-9)
F2E0  00                 [412] (80)
F2E1  56                 [413] (80)
F2E2  00                 [414] (80)
F2E3  00                 [415] (80)
F2E4  00                 [416] (80)
F2E5  57                 [417] (80)
F2E6  00                 [418] (80)
F2E7  00                 [419] (80)
F2E8  00                 [420] (80)
F2E9  57                 [421] (80)
F2EA  00                 [422] (80)
F2EB  00                 [423] (80)
F2EC  00                 [424] (80)
F2ED  57                 [425] (80)
F2EE  00                 [426] (80)
F2EF  00                 [427] (80)
F2F0  00                 [428] (-7)
F2F1  58                 [429] (102)
F2F2  00                 [430] (102)
F2F3  00                 [431] (102)
F2F4  00                 [432] (102)
F2F5  59                 [433] (102)
F2F6  00                 [434] (102)
F2F7  00                 [435] (102)
F2F8  00                 [436] (-102)
F2F9  5B                 [437] (-102)
F2FA  00                 [438] (-102)
F2FB  00                 [439] (-102)
F2FC  00                 [440] (-102)
F2FD  5C                 [441] (-102)
F2FE  00                 [442] (-102)
F2FF  00                 [443] (-102)
F300  00                 [444] (-102)
F301  5E                 [445] (-102)
F302  00                 [446] (-102)
F303  00                 [447] (-102)
F304  00                 [448] (-102)
F305  5F                 [449] (-102)
F306  00                 [450] (-102)
F307  00                 [451] (-102)
F308  00                 [452] (-102)
F309  5F                 [453] (104)
F30A  00                 [454] (-96)
F30B  00                 [455] (-96)
F30C  00                 [456] (-96)
F30D  5F                 [457] (-100)
F30E  00                 [458] (-92)
F30F  00                 [459] (-92)
F310  00                 [460] (-94)
F311  60                 [461] (-84)
F312  00                 [462] (-84)
F313  00                 [463] (-84)
F314  00                 [464] (-84)
F315  60                 [465] (-90)
F316  00                 [466] (-69)
F317  00                 [467] (-69)
F318  00                 [468] (-69)
F319  60                 [469] (-69)
F31A  00                 [470] (-69)
F31B  00                 [471] (-69)
F31C  00                 [472] (-69)
F31D  61                 [473] (-69)
F31E  00                 [474] (-69)
F31F  00                 [475] (-82)
F320  00                 [476] (-65)
F321  63                 [477] (-65)
F322  00                 [478] (-67)
F323  00                 [479] (-59)
F324  00                 [480] (-59)
F325  64                 [481] (-59)
F326  00                 [482] (-59)
F327  00                 [483] (-63)
F328  00                 [484] (-53)
F329  64                 [485] (-53)
F32A  00                 [486] (-53)
F32B  00                 [487] (-53)
F32C  00                 [488] (-57)
F32D  64                 [489] (-47)
F32E  00                 [490] (-47)
F32F  00                 [491] (-47)
F330  00                 [492] (-47)
F331  65                 [493] (-47)
F332  00                 [494] (-51)
F333  00                 [495] (-41)
F334  00                 [496] (-41)
F335  65                 [497] (-41)
F336  00                 [498] (-41)
F337  00                 [499] (-41)
F338  00                 [500] (-45)
F339  65                 [501] (-35)
F33A  00                 [502] (-35)
F33B  00                 [503] (-35)
F33C  00                 [504] (-39)
F33D  65                 [505] (-29)
F33E  00                 [506] (-29)
F33F  00                 [507] (-29)
F340  00                 [508] (-33)
F341  66                 [509] (-23)
F342  00                 [510] (-23)
F343  00                 [511] (-23)
F344  00                 [512] (-23)
F345  68                 [513] (-27)
F346  00                 [514] (-17)
F347  00                 [515] (-17)
F348  00                 [516] (-17)
F349  69                 [517] (-17)
F34A  00                 [518] (-21)
F34B  00                 [519] (-13)
F34C  00                 [520] (-13)
F34D  69                 [521] (-13)
F34E  00                 [522] (-15)
F34F  00                 [523] (-13)
                         * locals:
F971  00                 sizelocvars (0)
                         * upvalues:
F972  00                 sizeupvalues (0)
                         ** end of function **

F973                     ** end of chunk **
