1	C:\wlua_dump\path\Lotus\ScriptsLisetCustomizationsUtilities.lua
Pos   Hex Data           Description or Code
------------------------------------------------------------------------
0000                     ** source chunk: C:\wlua_dump\path\Lotus\ScriptsLisetCustomizationsUtilities.lua
                         ** global header start **
0000  7F                 header signature: ""
0001  00                 version (major:minor hex digits)
0002  00                 format (0=official)
0003  00                 endianness (1=little endian)
0004  00                 size of int (bytes)
0005  00                 size of size_t (bytes)
0006  02                 size of Instruction (bytes)
0007  07                 size of number (bytes)
0008  29                 integral (1=integral)
441
                         * number type: single
                         * x86 standard (32-bit, little endian, doubles)
                         ** global header end **
package
seeall
/Lotus/Types/Game/LandingCraftDeco
PlayerLiset
Lotus.Scripts.Effects.EffectsColorUtilities
ApplyLocalCustomizations
ApplySquadCustomizations
ApplyLocalCustomizationsToEffect
ApplyStoredCustomization
alpha
gLensFlareType
gParticleSysType
gDecorationType
EffectsDeco
Lotus_Game
TINT_COLOR
red
green
blue
gWeaponTrailType
Lotus_Game
EnergyColor
mEnergyColor
EmissiveTintColorHi
Lotus_Game
gEntityType
gPlayerProfileMgr
mShip
mShipExterior
mSkinFlavourItem
mColors
_G
ShipMeshOverride
gEntityType
mesh
scale
_T
UsedLisetCustomizations
Normal
string
Small

gPlayerProfileMgr
gMatchingService
name
cjson
loadout
ShipCustomizations
ShipType
SkinFlavourItem
_G
gLoadedShipSkinsFromDiorama
About to load ship stuff and sleep until it's done...I hope you aren't calling this somewhere where you shouldn't sleep...
UISys
Loading ship and skin took 
 seconds
Lotus_Game
Colors
t0
TintColor0
t1
TintColor1
t2
TintColor2
t3
TintColor3
en
EnergyColor
EmissiveColor0
gPlayerProfileMgr
mShipExterior
mSkinFlavourItem
mColors
mEnergyColor
gEntityType
mColors
mSkinFlavourItem
UISys
Lotus_Game
EnergyColor
EmissiveColor0
mEnergyColor
gEntityType
                         
0001                     ** function [0] definition (level 1)
                         ** start of function **
0001  00                 string size (0)
                         source name: (none)
0002  00                 line defined (0)
0003  00                 last line defined (0)
0004  00                 nups (0)
0005  00                 numparams (0)
0006  02                 is_vararg (2)
0007  07                 maxstacksize (7)
                         * code:
0008  29                 sizecode (41)
0009  1D000000           [01] getglobal  0   0        ; 954442511
000D  41000001           [02] vararg     1   2      
0011  9D400000           [03] getglobal  2   1        ; package
0015  8E804001           [04] gettable   2   2   258  ; "seeall"
0019  22408001           [05] call       0   3   1  
001D  1DC00000           [06] getglobal  0   3        ; 738251817
0021  59000100           [07] loadk      1   4        ; "/Lotus/Types/Game/LandingCraftDeco"
0025  22800001           [08] call       0   2   2  
0029  5D400100           [09] getglobal  1   5        ; -332969190
002D  99800100           [10] loadk      2   6        ; "PlayerLiset"
0031  62800001           [11] call       1   2   2  
0035  9DC00100           [12] getglobal  2   7        ; 849075268
0039  D9000200           [13] loadk      3   8        ; "Lotus.Scripts.Effects.EffectsColorUtilities"
003D  A2800001           [14] call       2   2   2  
0041  E5000000           [15] closure    3   0      
0045  12000001           [16] move       0   2      
0049  25410000           [17] closure    4   1      
004D  65810000           [18] closure    5   2      
0051  12000002           [19] move       0   4      
0055  12008001           [20] move       0   3      
0059  A5C10000           [21] closure    6   3      
005D  12000000           [22] move       0   0      
0061  12008002           [23] move       0   5      
0065  A0410200           [24] setglobal  6   9        ; ApplyLocalCustomizations
0069  A0810200           [25] setglobal  6   10       ; 528439520
006D  A5010100           [26] closure    6   4      
0071  12000000           [27] move       0   0      
0075  12008002           [28] move       0   5      
0079  A0C10200           [29] setglobal  6   11       ; ApplySquadCustomizations
007D  A0010300           [30] setglobal  6   12       ; 551772386
0081  A5410100           [31] closure    6   5      
0085  12008000           [32] move       0   1      
0089  12008001           [33] move       0   3      
008D  A0410300           [34] setglobal  6   13       ; ApplyLocalCustomizationsToEffect
0091  A0810300           [35] setglobal  6   14       ; -512111592
0095  A5810100           [36] closure    6   6      
0099  12000002           [37] move       0   4      
009D  12008001           [38] move       0   3      
00A1  A0C10300           [39] setglobal  6   15       ; ApplyStoredCustomization
00A5  A0010400           [40] setglobal  6   16       ; -174539090
00A9  1E008000           [41] return     0   1      
                         * constants:
00AD  11                 sizek (17)
00AE  01                 const type 3
00AF  0FA3E338           const [0]: (954442511)
00B3  04                 const type 4
00B4  08                 string size (8)
00B5  7061636B61676500   "package\0"
                         const [1]: "package"
00BD  04                 const type 4
00BE  07                 string size (7)
00BF  736565616C6C00     "seeall\0"
                         const [2]: "seeall"
00C6  01                 const type 3
00C7  29D4002C           const [3]: (738251817)
00CB  04                 const type 4
00CC  23                 string size (35)
00CD  2F4C6F7475732F54+  "/Lotus/T"
00D5  797065732F47616D+  "ypes/Gam"
00DD  652F4C616E64696E+  "e/Landin"
00E5  6743726166744465+  "gCraftDe"
00ED  636F00             "co\0"
                         const [4]: "/Lotus/Types/Game/LandingCraftDeco"
00F0  01                 const type 3
00F1  1A4B27EC           const [5]: (-332969190)
00F5  04                 const type 4
00F6  0C                 string size (12)
00F7  506C617965724C69+  "PlayerLi"
00FF  73657400           "set\0"
                         const [6]: "PlayerLiset"
0103  01                 const type 3
0104  44DC9B32           const [7]: (849075268)
0108  04                 const type 4
0109  2C                 string size (44)
010A  4C6F7475732E5363+  "Lotus.Sc"
0112  72697074732E4566+  "ripts.Ef"
011A  66656374732E4566+  "fects.Ef"
0122  6665637473436F6C+  "fectsCol"
012A  6F725574696C6974+  "orUtilit"
0132  69657300           "ies\0"
                         const [8]: "Lotus.Scripts.Effects.EffectsColorUtilities"
0136  04                 const type 4
0137  19                 string size (25)
0138  4170706C794C6F63+  "ApplyLoc"
0140  616C437573746F6D+  "alCustom"
0148  697A6174696F6E73+  "izations"
0150  00                 "\0"
                         const [9]: "ApplyLocalCustomizations"
0151  01                 const type 3
0152  E0587F1F           const [10]: (528439520)
0156  04                 const type 4
0157  19                 string size (25)
0158  4170706C79537175+  "ApplySqu"
0160  6164437573746F6D+  "adCustom"
0168  697A6174696F6E73+  "izations"
0170  00                 "\0"
                         const [11]: "ApplySquadCustomizations"
0171  01                 const type 3
0172  E260E320           const [12]: (551772386)
0176  04                 const type 4
0177  21                 string size (33)
0178  4170706C794C6F63+  "ApplyLoc"
0180  616C437573746F6D+  "alCustom"
0188  697A6174696F6E73+  "izations"
0190  546F456666656374+  "ToEffect"
0198  00                 "\0"
                         const [13]: "ApplyLocalCustomizationsToEffect"
0199  01                 const type 3
019A  18CC79E1           const [14]: (-512111592)
019E  04                 const type 4
019F  19                 string size (25)
01A0  4170706C7953746F+  "ApplySto"
01A8  726564437573746F+  "redCusto"
01B0  6D697A6174696F6E+  "mization"
01B8  00                 "\0"
                         const [15]: "ApplyStoredCustomization"
01B9  01                 const type 3
01BA  AEBE98F5           const [16]: (-174539090)
                         * functions:
01BE  07                 sizep (7)
                         
01BF                     ** function [0] definition (level 2)
                         ** start of function **
01BF  00                 string size (0)
                         source name: (none)
01C0  0A                 line defined (10)
01C1  1B                 last line defined (27)
01C2  01                 nups (1)
01C3  02                 numparams (2)
01C4  00                 is_vararg (0)
01C5  0A                 maxstacksize (10)
                         * code:
01C6  47                 sizecode (71)
01C7  9D000000           [01] getglobal  2   0        ; -1247440829
01CB  D2008000           [02] move       3   1      
01CF  A2800001           [03] call       2   2   2  
01D3  8C80C080           [04] settable   2   257 258  ; "alpha" 0
01D7  E4C04000           [05] self       3   0   259  ; -1957065004
01DB  5D010100           [06] getglobal  5   4        ; gLensFlareType
01DF  E2808001           [07] call       3   3   2  
01E3  D8000000           [08] test       3       0    ; to [10] if true
01E7  1AC00080           [09] jmp        4            ; to [14]
01EB  E4404100           [10] self       3   0   261  ; -1576049472
01EF  52010001           [11] move       5   2      
01F3  E2408001           [12] call       3   3   1  
01F7  1A000E80           [13] jmp        57           ; to [71]
01FB  E4C04000           [14] self       3   0   259  ; -1957065004
01FF  5D810100           [15] getglobal  5   6        ; gParticleSysType
0203  E2808001           [16] call       3   3   2  
0207  D8000000           [17] test       3       0    ; to [19] if true
020B  1A400280           [18] jmp        10           ; to [29]
020F  E4C04100           [19] self       3   0   263  ; 1082791834
0213  52010001           [20] move       5   2      
0217  92010001           [21] move       6   2      
021B  E2400002           [22] call       3   4   1  
021F  D3000000           [23] getupval   3   0      
0223  CE00C201           [24] gettable   3   3   264  ; -1130533444
0227  12010000           [25] move       4   0      
022B  52010001           [26] move       5   2      
022F  E2408001           [27] call       3   3   1  
0233  1A400A80           [28] jmp        42           ; to [71]
0237  E4C04000           [29] self       3   0   259  ; -1957065004
023B  5D410200           [30] getglobal  5   9        ; gDecorationType
023F  E2808001           [31] call       3   3   2  
0243  D8000000           [32] test       3       0    ; to [34] if true
0247  1AC00580           [33] jmp        24           ; to [58]
024B  E4804200           [34] self       3   0   266  ; -830264577
024F  E2800001           [35] call       3   2   2  
0253  1DC10200           [36] getglobal  4   11       ; -332969190
0257  59010300           [37] loadk      5   12       ; "EffectsDeco"
025B  22810001           [38] call       4   2   2  
fail op	35
025F  23008101           [39] close      0  
0263  1A400780           [40] jmp        30           ; to [71]
0267  E4404300           [41] self       3   0   269  ; -786111647
026B  5D810300           [42] getglobal  5   14       ; Lotus_Game
026F  4EC1C302           [43] gettable   5   5   271  ; "TINT_COLOR"
0273  8E014401           [44] gettable   6   2   272  ; "red"
0277  9C814003           [45] div        6   6   258  ; 0
027B  CE414401           [46] gettable   7   2   273  ; "green"
027F  DC81C003           [47] div        7   7   258  ; 0
0283  0E824401           [48] gettable   8   2   274  ; "blue"
0287  1C824004           [49] div        8   8   258  ; 0
028B  59C20400           [50] loadk      9   19       ; 0
028F  E2408003           [51] call       3   7   1  
0293  D3000000           [52] getupval   3   0      
0297  CE00C201           [53] gettable   3   3   264  ; -1130533444
029B  12010000           [54] move       4   0      
029F  52010001           [55] move       5   2      
02A3  E2408001           [56] call       3   3   1  
02A7  1A000380           [57] jmp        13           ; to [71]
02AB  E4C04000           [58] self       3   0   259  ; -1957065004
02AF  5D010500           [59] getglobal  5   20       ; gWeaponTrailType
02B3  E2808001           [60] call       3   3   2  
02B7  D8000000           [61] test       3       0    ; to [63] if true
02BB  1AC00180           [62] jmp        8            ; to [71]
02BF  E4404100           [63] self       3   0   261  ; -1576049472
02C3  52010001           [64] move       5   2      
02C7  E2408001           [65] call       3   3   1  
02CB  D3000000           [66] getupval   3   0      
02CF  CE00C201           [67] gettable   3   3   264  ; -1130533444
02D3  12010000           [68] move       4   0      
02D7  52010001           [69] move       5   2      
02DB  E2408001           [70] call       3   3   1  
02DF  1E008000           [71] return     0   1      
                         * constants:
02E3  15                 sizek (21)
02E4  01                 const type 3
02E5  4390A5B5           const [0]: (-1247440829)
02E9  04                 const type 4
02EA  06                 string size (6)
02EB  616C70686100       "alpha\0"
                         const [1]: "alpha"
02F1  03                 const type 3
02F2  00007F43           const [2]: (0)
02F6  01                 const type 3
02F7  D48E598B           const [3]: (-1957065004)
02FB  04                 const type 4
02FC  0F                 string size (15)
02FD  674C656E73466C61+  "gLensFla"
0305  72655479706500     "reType\0"
                         const [4]: "gLensFlareType"
030C  01                 const type 3
030D  C0640FA2           const [5]: (-1576049472)
0311  04                 const type 4
0312  11                 string size (17)
0313  675061727469636C+  "gParticl"
031B  6553797354797065+  "eSysType"
0323  00                 "\0"
                         const [6]: "gParticleSysType"
0324  01                 const type 3
0325  9A178A40           const [7]: (1082791834)
0329  01                 const type 3
032A  BC6D9DBC           const [8]: (-1130533444)
032E  04                 const type 4
032F  10                 string size (16)
0330  674465636F726174+  "gDecorat"
0338  696F6E5479706500   "ionType\0"
                         const [9]: "gDecorationType"
0340  01                 const type 3
0341  FF2A83CE           const [10]: (-830264577)
0345  01                 const type 3
0346  1A4B27EC           const [11]: (-332969190)
034A  04                 const type 4
034B  0C                 string size (12)
034C  4566666563747344+  "EffectsD"
0354  65636F00           "eco\0"
                         const [12]: "EffectsDeco"
0358  01                 const type 3
0359  61E324D1           const [13]: (-786111647)
035D  04                 const type 4
035E  0B                 string size (11)
035F  4C6F7475735F4761+  "Lotus_Ga"
0367  6D6500             "me\0"
                         const [14]: "Lotus_Game"
036A  04                 const type 4
036B  0B                 string size (11)
036C  54494E545F434F4C+  "TINT_COL"
0374  4F5200             "OR\0"
                         const [15]: "TINT_COLOR"
0377  04                 const type 4
0378  04                 string size (4)
0379  72656400           "red\0"
                         const [16]: "red"
037D  04                 const type 4
037E  06                 string size (6)
037F  677265656E00       "green\0"
                         const [17]: "green"
0385  04                 const type 4
0386  05                 string size (5)
0387  626C756500         "blue\0"
                         const [18]: "blue"
038C  03                 const type 3
038D  0000803F           const [19]: (0)
0391  04                 const type 4
0392  11                 string size (17)
0393  67576561706F6E54+  "gWeaponT"
039B  7261696C54797065+  "railType"
03A3  00                 "\0"
                         const [20]: "gWeaponTrailType"
                         * functions:
03A4  00                 sizep (0)
                         * lines:
03A5  47                 sizelineinfo (71)
                         [pc] (line)
03A6  0B                 [01] (11)
03A7  00                 [02] (11)
03A8  00                 [03] (11)
03A9  00                 [04] (12)
03AA  0B                 [05] (13)
03AB  00                 [06] (13)
03AC  00                 [07] (13)
03AD  00                 [08] (13)
03AE  0B                 [09] (13)
03AF  00                 [10] (14)
03B0  00                 [11] (14)
03B1  00                 [12] (14)
03B2  0C                 [13] (14)
03B3  00                 [14] (15)
03B4  00                 [15] (15)
03B5  00                 [16] (15)
03B6  0D                 [17] (15)
03B7  00                 [18] (15)
03B8  00                 [19] (16)
03B9  00                 [20] (16)
03BA  0D                 [21] (16)
03BB  00                 [22] (16)
03BC  00                 [23] (17)
03BD  00                 [24] (17)
03BE  0D                 [25] (17)
03BF  00                 [26] (17)
03C0  00                 [27] (17)
03C1  00                 [28] (17)
03C2  0D                 [29] (18)
03C3  00                 [30] (18)
03C4  00                 [31] (18)
03C5  00                 [32] (18)
03C6  0D                 [33] (18)
03C7  00                 [34] (19)
03C8  00                 [35] (19)
03C9  00                 [36] (19)
03CA  0E                 [37] (19)
03CB  00                 [38] (19)
03CC  00                 [39] (19)
03CD  00                 [40] (19)
03CE  0E                 [41] (20)
03CF  00                 [42] (20)
03D0  00                 [43] (20)
03D1  00                 [44] (20)
03D2  0E                 [45] (20)
03D3  00                 [46] (20)
03D4  00                 [47] (20)
03D5  00                 [48] (20)
03D6  0E                 [49] (20)
03D7  00                 [50] (20)
03D8  00                 [51] (20)
03D9  00                 [52] (21)
03DA  0F                 [53] (21)
03DB  00                 [54] (21)
03DC  00                 [55] (21)
03DD  00                 [56] (21)
03DE  0F                 [57] (22)
03DF  00                 [58] (23)
03E0  00                 [59] (23)
03E1  00                 [60] (23)
03E2  0F                 [61] (23)
03E3  00                 [62] (23)
03E4  00                 [63] (24)
03E5  00                 [64] (24)
03E6  0F                 [65] (24)
03E7  00                 [66] (25)
03E8  00                 [67] (25)
03E9  00                 [68] (25)
03EA  0F                 [69] (25)
03EB  00                 [70] (25)
03EC  00                 [71] (27)
                         * locals:
04C2  00                 sizelocvars (0)
                         * upvalues:
04C3  00                 sizeupvalues (0)
                         ** end of function **

                         
04C4                     ** function [1] definition (level 2)
                         ** start of function **
04C4  00                 string size (0)
                         source name: (none)
04C5  1D                 line defined (29)
04C6  2F                 last line defined (47)
04C7  00                 nups (0)
04C8  02                 numparams (2)
04C9  00                 is_vararg (0)
04CA  0D                 maxstacksize (13)
                         * code:
04CB  33                 sizecode (51)
04CC  A400C000           [01] self       2   1   256  ; 979293742
04D0  1D410000           [02] getglobal  4   1        ; Lotus_Game
04D4  0E814002           [03] gettable   4   4   258  ; "EnergyColor"
04D8  A2808001           [04] call       2   3   2  
04DC  98000000           [05] test       2       0    ; to [7] if true
04E0  1A800080           [06] jmp        3            ; to [10]
04E4  8EC0C000           [07] gettable   2   1   259  ; "mEnergyColor"
04E8  9E000001           [08] return     2   2      
04EC  1A400880           [09] jmp        34           ; to [44]
04F0  A4004100           [10] self       2   0   260  ; 1781416269
04F4  19410100           [11] loadk      4   5        ; 0
04F8  A2808001           [12] call       2   3   2  
04FC  DD800100           [13] getglobal  3   6        ; -332969190
0500  19C10100           [14] loadk      4   7        ; "EmissiveTintColorHi"
0504  E2800001           [15] call       3   2   2  
0508  1D010200           [16] getglobal  4   8        ; 1074689893
050C  52010001           [17] move       5   2      
0510  22810001           [18] call       4   2   2  
0514  18410000           [19] test       4       1    ; to [21] if false
0518  1A800580           [20] jmp        23           ; to [44]
051C  24414201           [21] self       4   2   265  ; -1615759522
0520  92018001           [22] move       6   3      
0524  D9410100           [23] loadk      7   5        ; 0
0528  22810002           [24] call       4   4   2  
052C  64414201           [25] self       5   2   265  ; -1615759522
0530  D2018001           [26] move       7   3      
0534  19820200           [27] loadk      8   10       ; 0
0538  62810002           [28] call       5   4   2  
053C  A4414201           [29] self       6   2   265  ; -1615759522
0540  12028001           [30] move       8   3      
0544  59C20200           [31] loadk      9   11       ; 0
0548  A2810002           [32] call       6   4   2  
054C  E4414201           [33] self       7   2   265  ; -1615759522
0550  52028001           [34] move       9   3      
0554  99020300           [35] loadk      10  12       ; 0
0558  E2810002           [36] call       7   4   2  
055C  1D420300           [37] getglobal  8   13       ; -1247440829
0560  44824302           [38] mul        9   4   270  ; 0
0564  8482C302           [39] mul        10  5   270  ; 0
0568  C4824303           [40] mul        11  6   270  ; 0
056C  0483C303           [41] mul        12  7   270  ; 0
0570  07028002           [42] tailcall   8   5   0  
0574  1E020000           [43] return     8   0      
0578  1D420300           [44] getglobal  8   13       ; -1247440829
057C  59820300           [45] loadk      9   14       ; 0
0580  99820300           [46] loadk      10  14       ; 0
0584  D9820300           [47] loadk      11  14       ; 0
0588  19830300           [48] loadk      12  14       ; 0
058C  07028002           [49] tailcall   8   5   0  
0590  1E020000           [50] return     8   0      
0594  1E008000           [51] return     0   1      
                         * constants:
0598  0F                 sizek (15)
0599  01                 const type 3
059A  2ED65E3A           const [0]: (979293742)
059E  04                 const type 4
059F  0B                 string size (11)
05A0  4C6F7475735F4761+  "Lotus_Ga"
05A8  6D6500             "me\0"
                         const [1]: "Lotus_Game"
05AB  04                 const type 4
05AC  0C                 string size (12)
05AD  456E65726779436F+  "EnergyCo"
05B5  6C6F7200           "lor\0"
                         const [2]: "EnergyColor"
05B9  04                 const type 4
05BA  0D                 string size (13)
05BB  6D456E6572677943+  "mEnergyC"
05C3  6F6C6F7200         "olor\0"
                         const [3]: "mEnergyColor"
05C8  01                 const type 3
05C9  4D412E6A           const [4]: (1781416269)
05CD  03                 const type 3
05CE  0000803F           const [5]: (0)
05D2  01                 const type 3
05D3  1A4B27EC           const [6]: (-332969190)
05D7  04                 const type 4
05D8  14                 string size (20)
05D9  456D697373697665+  "Emissive"
05E1  54696E74436F6C6F+  "TintColo"
05E9  72486900           "rHi\0"
                         const [7]: "EmissiveTintColorHi"
05ED  01                 const type 3
05EE  65770E40           const [8]: (1074689893)
05F2  01                 const type 3
05F3  5E77B19F           const [9]: (-1615759522)
05F7  03                 const type 3
05F8  00000040           const [10]: (0)
05FC  03                 const type 3
05FD  00004040           const [11]: (0)
0601  03                 const type 3
0602  00008040           const [12]: (0)
0606  01                 const type 3
0607  4390A5B5           const [13]: (-1247440829)
060B  03                 const type 3
060C  00007F43           const [14]: (0)
                         * functions:
0610  00                 sizep (0)
                         * lines:
0611  33                 sizelineinfo (51)
                         [pc] (line)
0612  1E                 [01] (30)
0613  00                 [02] (30)
0614  00                 [03] (30)
0615  00                 [04] (30)
0616  1E                 [05] (30)
0617  00                 [06] (30)
0618  00                 [07] (31)
0619  00                 [08] (31)
061A  1E                 [09] (31)
061B  00                 [10] (33)
061C  00                 [11] (33)
061D  00                 [12] (33)
061E  1E                 [13] (34)
061F  00                 [14] (34)
0620  00                 [15] (34)
0621  00                 [16] (36)
0622  1E                 [17] (36)
0623  00                 [18] (36)
0624  00                 [19] (36)
0625  00                 [20] (36)
0626  1E                 [21] (37)
0627  00                 [22] (37)
0628  00                 [23] (37)
0629  00                 [24] (37)
062A  1F                 [25] (38)
062B  00                 [26] (38)
062C  00                 [27] (38)
062D  00                 [28] (38)
062E  1F                 [29] (39)
062F  00                 [30] (39)
0630  00                 [31] (39)
0631  00                 [32] (39)
0632  1F                 [33] (40)
0633  00                 [34] (40)
0634  00                 [35] (40)
0635  00                 [36] (40)
0636  21                 [37] (42)
0637  00                 [38] (42)
0638  00                 [39] (42)
0639  00                 [40] (42)
063A  21                 [41] (42)
063B  00                 [42] (42)
063C  00                 [43] (42)
063D  00                 [44] (46)
063E  21                 [45] (46)
063F  00                 [46] (46)
0640  00                 [47] (46)
0641  00                 [48] (46)
0642  22                 [49] (46)
0643  00                 [50] (46)
0644  00                 [51] (47)
                         * locals:
06DE  00                 sizelocvars (0)
                         * upvalues:
06DF  00                 sizeupvalues (0)
                         ** end of function **

                         
06E0                     ** function [2] definition (level 2)
                         ** start of function **
06E0  00                 string size (0)
                         source name: (none)
06E1  31                 line defined (49)
06E2  51                 last line defined (81)
06E3  02                 nups (2)
06E4  06                 numparams (6)
06E5  00                 is_vararg (0)
06E6  10                 maxstacksize (16)
                         * code:
06E7  5E                 sizecode (94)
06E8  9D010000           [01] getglobal  6   0        ; 1074689893
06EC  D2018000           [02] move       7   1      
06F0  A2810001           [03] call       6   2   2  
06F4  98410000           [04] test       6       1    ; to [6] if false
06F8  1A000980           [05] jmp        37           ; to [43]
06FC  9D010000           [06] getglobal  6   0        ; 1074689893
0700  E441C000           [07] self       7   1   257  ; -1298130151
0704  E2010001           [08] call       7   2   0  
0708  A2810000           [09] call       6   0   2  
070C  98410000           [10] test       6       1    ; to [12] if false
0710  1A800780           [11] jmp        31           ; to [43]
0714  A4814000           [12] self       6   0   258  ; 1756888998
0718  A2410001           [13] call       6   2   1  
071C  86010003           [14] loadnil    6   6      
0720  DD010000           [15] getglobal  7   0        ; 1074689893
0724  12020001           [16] move       8   2      
0728  E2810001           [17] call       7   2   2  
072C  D8410000           [18] test       7       1    ; to [20] if false
0730  1A800080           [19] jmp        3            ; to [23]
0734  E4C14001           [20] self       7   2   259  ; 1512339447
0738  E2810001           [21] call       7   2   2  
073C  92018003           [22] move       6   7      
0740  DD010000           [23] getglobal  7   0        ; 1074689893
0744  12020003           [24] move       8   6      
0748  E2810001           [25] call       7   2   2  
074C  D8010000           [26] test       7       0    ; to [28] if true
0750  1A800080           [27] jmp        3            ; to [31]
0754  E441C000           [28] self       7   1   257  ; -1298130151
0758  E2810001           [29] call       7   2   2  
075C  92018003           [30] move       6   7      
0760  E4014100           [31] self       7   0   260  ; 919598577
0764  52020003           [32] move       9   6      
0768  97028000           [33] loadbool   10  1   0    ; true
076C  D7020000           [34] loadbool   11  0   0    ; false
0770  E2418002           [35] call       7   5   1  
fail op	35
0774  63404102           [36] close      1  
0778  1A000180           [37] jmp        5            ; to [43]
077C  E4814100           [38] self       7   0   262  ; 1489721288
0780  64C2C100           [39] self       9   1   263  ; 1132261703
0784  D2020002           [40] move       11  4      
0788  62028001           [41] call       9   3   0  
078C  E2410000           [42] call       7   0   1  
0790  DD010000           [43] getglobal  7   0        ; 1074689893
0794  12020001           [44] move       8   2      
0798  E2810001           [45] call       7   2   2  
079C  D8410000           [46] test       7       1    ; to [48] if false
07A0  1A400180           [47] jmp        6            ; to [54]
07A4  E4014200           [48] self       7   0   264  ; 1728877662
07A8  59420200           [49] loadk      9   9        ; 0
07AC  A4824201           [50] self       10  2   266  ; 1788830577
07B0  A2820001           [51] call       10  2   2  
07B4  D7020000           [52] loadbool   11  0   0    ; false
07B8  E2418002           [53] call       7   5   1  
fail op	35
07BC  6340C102           [54] close      1  
07C0  1A000380           [55] jmp        13           ; to [69]
07C4  E4C1C202           [56] self       7   5   267  ; 828278287
07C8  E2810001           [57] call       7   2   2  
07CC  D8010000           [58] test       7       0    ; to [60] if true
07D0  1A000280           [59] jmp        9            ; to [69]
07D4  DD010000           [60] getglobal  7   0        ; 1074689893
07D8  12028000           [61] move       8   1      
07DC  E2810001           [62] call       7   2   2  
07E0  D8410000           [63] test       7       1    ; to [65] if false
07E4  1AC00080           [64] jmp        4            ; to [69]
07E8  E401C300           [65] self       7   1   268  ; 1863214142
07EC  52020000           [66] move       9   0      
07F0  92028002           [67] move       10  5      
07F4  E2410002           [68] call       7   4   1  
07F8  DD410300           [69] getglobal  7   13       ; Lotus_Game
07FC  CE81C303           [70] gettable   7   7   270  ; 724717559
0800  12020000           [71] move       8   0      
0804  52028001           [72] move       9   3      
0808  97028000           [73] loadbool   10  1   0    ; true
080C  E2410002           [74] call       7   4   1  
0810  DDC10300           [75] getglobal  7   15       ; 538022378
0814  19020400           [76] loadk      8   16       ; 0
0818  E2410001           [77] call       7   2   1  
081C  E4414400           [78] self       7   0   273  ; 366271214
0820  5D820400           [79] getglobal  9   18       ; gEntityType
0824  E2818001           [80] call       7   3   2  
0828  13020000           [81] getupval   8   0      
082C  52020000           [82] move       9   0      
0830  92028001           [83] move       10  3      
0834  22828001           [84] call       8   3   2  
0838  59420200           [85] loadk      9   9        ; 0
083C  8A028003           [86] len        10  7      
0840  D9420200           [87] loadk      11  9        ; 0
0844  50C20080           [88] forprep    9   4        ; to [93]
0848  53038000           [89] getupval   13  1      
084C  8E038303           [90] gettable   14  7   12 
0850  D2030004           [91] move       15  8      
0854  62438001           [92] call       13  3   1  
0858  5482FE7F           [93] forloop    9   -5       ; to [89] if loop
085C  1E008000           [94] return     0   1      
                         * constants:
0860  13                 sizek (19)
0861  01                 const type 3
0862  65770E40           const [0]: (1074689893)
0866  01                 const type 3
0867  191BA0B2           const [1]: (-1298130151)
086B  01                 const type 3
086C  A6FFB768           const [2]: (1756888998)
0870  01                 const type 3
0871  F777245A           const [3]: (1512339447)
0875  01                 const type 3
0876  F1F5CF36           const [4]: (919598577)
087A  00                 const type 0
                         const [5]: nil
087B  01                 const type 3
087C  C857CB58           const [6]: (1489721288)
0880  01                 const type 3
0881  47F17C43           const [7]: (1132261703)
0885  01                 const type 3
0886  5E940C67           const [8]: (1728877662)
088A  03                 const type 3
088B  0000803F           const [9]: (0)
088F  01                 const type 3
0890  71639F6A           const [10]: (1788830577)
0894  01                 const type 3
0895  0F865E31           const [11]: (828278287)
0899  01                 const type 3
089A  3E640E6F           const [12]: (1863214142)
089E  04                 const type 4
089F  0B                 string size (11)
08A0  4C6F7475735F4761+  "Lotus_Ga"
08A8  6D6500             "me\0"
                         const [13]: "Lotus_Game"
08AB  01                 const type 3
08AC  F74F322B           const [14]: (724717559)
08B0  01                 const type 3
08B1  EA911120           const [15]: (538022378)
08B5  03                 const type 3
08B6  00000000           const [16]: (0)
08BA  01                 const type 3
08BB  EEDAD415           const [17]: (366271214)
08BF  04                 const type 4
08C0  0C                 string size (12)
08C1  67456E7469747954+  "gEntityT"
08C9  79706500           "ype\0"
                         const [18]: "gEntityType"
                         * functions:
08CD  00                 sizep (0)
                         * lines:
08CE  5E                 sizelineinfo (94)
                         [pc] (line)
08CF  32                 [01] (50)
08D0  00                 [02] (50)
08D1  00                 [03] (50)
08D2  00                 [04] (50)
08D3  32                 [05] (50)
08D4  00                 [06] (50)
08D5  00                 [07] (50)
08D6  00                 [08] (50)
08D7  32                 [09] (50)
08D8  00                 [10] (50)
08D9  00                 [11] (50)
08DA  00                 [12] (51)
08DB  32                 [13] (51)
08DC  00                 [14] (53)
08DD  00                 [15] (54)
08DE  00                 [16] (54)
08DF  32                 [17] (54)
08E0  00                 [18] (54)
08E1  00                 [19] (54)
08E2  00                 [20] (55)
08E3  32                 [21] (55)
08E4  00                 [22] (55)
08E5  00                 [23] (57)
08E6  00                 [24] (57)
08E7  32                 [25] (57)
08E8  00                 [26] (57)
08E9  00                 [27] (57)
08EA  00                 [28] (58)
08EB  32                 [29] (58)
08EC  00                 [30] (58)
08ED  00                 [31] (60)
08EE  00                 [32] (60)
08EF  32                 [33] (60)
08F0  00                 [34] (60)
08F1  00                 [35] (60)
08F2  00                 [36] (61)
08F3  32                 [37] (61)
08F4  00                 [38] (62)
08F5  00                 [39] (62)
08F6  00                 [40] (62)
08F7  32                 [41] (62)
08F8  00                 [42] (62)
08F9  00                 [43] (66)
08FA  00                 [44] (66)
08FB  33                 [45] (66)
08FC  00                 [46] (66)
08FD  00                 [47] (66)
08FE  00                 [48] (67)
08FF  33                 [49] (67)
0900  00                 [50] (67)
0901  00                 [51] (67)
0902  00                 [52] (67)
0903  35                 [53] (67)
0904  00                 [54] (70)
0905  00                 [55] (70)
0906  00                 [56] (70)
0907  36                 [57] (70)
0908  00                 [58] (70)
0909  00                 [59] (70)
090A  00                 [60] (70)
090B  36                 [61] (70)
090C  00                 [62] (70)
090D  00                 [63] (70)
090E  00                 [64] (70)
090F  36                 [65] (71)
0910  00                 [66] (71)
0911  00                 [67] (71)
0912  00                 [68] (71)
0913  36                 [69] (74)
0914  00                 [70] (74)
0915  00                 [71] (74)
0916  00                 [72] (74)
0917  36                 [73] (74)
0918  00                 [74] (74)
0919  00                 [75] (75)
091A  00                 [76] (75)
091B  37                 [77] (75)
091C  00                 [78] (76)
091D  00                 [79] (76)
091E  00                 [80] (76)
091F  37                 [81] (77)
0920  00                 [82] (77)
0921  00                 [83] (77)
0922  00                 [84] (77)
0923  37                 [85] (78)
0924  00                 [86] (78)
0925  00                 [87] (78)
0926  00                 [88] (78)
0927  39                 [89] (79)
0928  00                 [90] (79)
0929  00                 [91] (79)
092A  00                 [92] (79)
092B  39                 [93] (78)
092C  00                 [94] (81)
                         * locals:
0A47  00                 sizelocvars (0)
                         * upvalues:
0A48  00                 sizeupvalues (0)
                         ** end of function **

                         
0A49                     ** function [3] definition (level 2)
                         ** start of function **
0A49  00                 string size (0)
                         source name: (none)
0A4A  53                 line defined (83)
0A4B  87                 last line defined (135)
0A4C  01                 nups (2)
0A4D  02                 numparams (3)
0A4E  03                 is_vararg (0)
0A4F  00                 maxstacksize (21)
                         * code:
0A51  7B                 sizecode (123)
0A52  DD000000           [001] getglobal  3   0        ; 538022378
0A56  19410000           [002] loadk      4   1        ; 0
0A5A  E2400001           [003] call       3   2   1  
0A5E  DD800000           [004] getglobal  3   2        ; gPlayerProfileMgr
0A62  E4C0C001           [005] self       3   3   259  ; 853032131
0A66  E2800001           [006] call       3   2   2  
0A6A  D8400000           [007] test       3       1    ; to [9] if false
0A6E  1AC00080           [008] jmp        4            ; to [13]
0A72  DD000000           [009] getglobal  3   0        ; 538022378
0A76  19410000           [010] loadk      4   1        ; 0
0A7A  E2400001           [011] call       3   2   1  
0A7E  1A80FD7F           [012] jmp        -9           ; to [4]
0A82  DD800000           [013] getglobal  3   2        ; gPlayerProfileMgr
0A86  E400C101           [014] self       3   3   260  ; 569342746
0A8A  59410000           [015] loadk      5   1        ; 0
0A8E  E2808001           [016] call       3   3   2  
0A92  1D410100           [017] getglobal  4   5        ; 1074689893
0A96  52018001           [018] move       5   3      
0A9A  22810001           [019] call       4   2   2  
0A9E  18410000           [020] test       4       1    ; to [22] if false
0AA2  1A001980           [021] jmp        101          ; to [123]
0AA6  2481C101           [022] self       4   3   262  ; 1699680402
0AAA  22810001           [023] call       4   2   2  
0AAE  5D410100           [024] getglobal  5   5        ; 1074689893
0AB2  92010002           [025] move       6   4      
0AB6  62810001           [026] call       5   2   2  
0ABA  58410000           [027] test       5       1    ; to [29] if false
0ABE  1A401780           [028] jmp        94           ; to [123]
0AC2  64C14102           [029] self       5   4   263  ; 399534467
0AC6  D7010000           [030] loadbool   7   0   0    ; false
0ACA  62818001           [031] call       5   3   2  
0ACE  9D410100           [032] getglobal  6   5        ; 1074689893
0AD2  D2018002           [033] move       7   5      
0AD6  A2810001           [034] call       6   2   2  
0ADA  98410000           [035] test       6       1    ; to [37] if false
0ADE  1A000180           [036] jmp        5            ; to [42]
0AE2  A401C202           [037] self       6   5   264  ; -1344420604
0AE6  A2810001           [038] call       6   2   2  
0AEA  98010000           [039] test       6       0    ; to [41] if true
0AEE  1A000080           [040] jmp        1            ; to [42]
0AF2  1AC00080           [041] jmp        4            ; to [46]
0AF6  9D010000           [042] getglobal  6   0        ; 538022378
0AFA  D9410000           [043] loadk      7   1        ; 0
0AFE  A2410001           [044] call       6   2   1  
0B02  1A80FB7F           [045] jmp        -17          ; to [29]
0B06  A4414202           [046] self       6   4   265  ; 51109503
0B0A  A2810001           [047] call       6   2   2  
0B0E  DD810200           [048] getglobal  7   10       ; -895206725
0B12  0EC24203           [049] gettable   8   6   267  ; "mShip"
0B16  E2810001           [050] call       7   2   2  
0B1A  1D020300           [051] getglobal  8   12       ; 2083004503
0B1E  52028003           [052] move       9   7      
0B22  22820001           [053] call       8   2   2  
0B26  4E424303           [054] gettable   9   6   269  ; "mShipExterior"
0B2A  9D820200           [055] getglobal  10  10       ; -895206725
0B2E  CE82C304           [056] gettable   11  9   270  ; "mSkinFlavourItem"
0B32  A2820001           [057] call       10  2   2  
0B36  E4C24300           [058] self       11  0   271  ; -1957065004
0B3A  53030000           [059] getupval   13  0      
0B3E  E2828001           [060] call       11  3   2  
0B42  D8020000           [061] test       11      0    ; to [63] if true
0B46  1A000580           [062] jmp        21           ; to [84]
0B4A  E4024400           [063] self       11  0   272  ; -533601365
0B4E  52030004           [064] move       13  8      
0B52  E2428001           [065] call       11  3   1  
0B56  E4424400           [066] self       11  0   273  ; -1038992139
0B5A  52038004           [067] move       13  9      
0B5E  E2428001           [068] call       11  3   1  
0B62  E482C400           [069] self       11  1   274  ; 828278287
0B66  E2820001           [070] call       11  2   2  
0B6A  D8020000           [071] test       11      0    ; to [73] if true
0B6E  1A800080           [072] jmp        3            ; to [76]
0B72  E4C24400           [073] self       11  0   275  ; 1577770468
0B76  52038000           [074] move       13  1      
0B7A  E2428001           [075] call       11  3   1  
0B7E  E4824401           [076] self       11  2   274  ; 828278287
0B82  E2820001           [077] call       11  2   2  
0B86  D8020000           [078] test       11      0    ; to [80] if true
0B8A  1AC00280           [079] jmp        12           ; to [92]
0B8E  E4024500           [080] self       11  0   276  ; 1287959894
0B92  52030001           [081] move       13  2      
0B96  E2428001           [082] call       11  3   1  
0B9A  1AC00180           [083] jmp        8            ; to [92]
0B9E  D3028000           [084] getupval   11  1      
0BA2  12030000           [085] move       12  0      
0BA6  52030004           [086] move       13  8      
0BAA  9D030300           [087] getglobal  14  12       ; 2083004503
0BAE  D2030005           [088] move       15  10     
0BB2  A2830001           [089] call       14  2   2  
0BB6  CE43C504           [090] gettable   15  9   277  ; "mColors"
0BBA  E2428002           [091] call       11  5   1  
0BBE  DD420100           [092] getglobal  11  5        ; 1074689893
0BC2  1D830500           [093] getglobal  12  22       ; _G
0BC6  0EC34506           [094] gettable   12  12  279  ; "ShipMeshOverride"
0BCA  E2820001           [095] call       11  2   2  
0BCE  D8420000           [096] test       11      1    ; to [98] if false
0BD2  1A000680           [097] jmp        25           ; to [123]
0BD6  E4024600           [098] self       11  0   280  ; 366271214
0BDA  5D430600           [099] getglobal  13  25       ; gEntityType
0BDE  E2828001           [100] call       11  3   2  
0BE2  19830600           [101] loadk      12  26       ; 0
0BE6  4A038005           [102] len        13  11     
0BEA  99830600           [103] loadk      14  26       ; 0
0BEE  10830080           [104] forprep    12  3        ; to [108]
0BF2  0EC48305           [105] gettable   16  11  15 
0BF6  24C44608           [106] self       16  16  283  ; -725453761
0BFA  22440001           [107] call       16  2   1  
0BFE  14C3FE7F           [108] forloop    12  -4       ; to [105] if loop
0C02  24044700           [109] self       16  0   284  ; 1756888998
0C06  22440001           [110] call       16  2   1  
0C0A  24444700           [111] self       16  0   285  ; 919598577
0C0E  9D840500           [112] getglobal  18  22       ; _G
0C12  8EC44509           [113] gettable   18  18  279  ; "ShipMeshOverride"
0C16  8E844709           [114] gettable   18  18  286  ; "mesh"
0C1A  D7048000           [115] loadbool   19  1   0    ; true
0C1E  17050000           [116] loadbool   20  0   0    ; false
0C22  22448002           [117] call       16  5   1  
0C26  24C44700           [118] self       16  0   287  ; 1786666898
0C2A  9D840500           [119] getglobal  18  22       ; _G
0C2E  8EC44509           [120] gettable   18  18  279  ; "ShipMeshOverride"
0C32  8E044809           [121] gettable   18  18  288  ; "scale"
0C36  22448001           [122] call       16  3   1  
0C3A  1E008000           [123] return     0   1      
                         * constants:
0C3E  21                 sizek (33)
0C3F  01                 const type 3
0C40  EA911120           const [0]: (538022378)
0C44  03                 const type 3
0C45  00000000           const [1]: (0)
0C49  04                 const type 4
0C4A  12                 string size (18)
0C4B  67506C6179657250+  "gPlayerP"
0C53  726F66696C654D67+  "rofileMg"
0C5B  7200               "r\0"
                         const [2]: "gPlayerProfileMgr"
0C5D  01                 const type 3
0C5E  C33CD832           const [3]: (853032131)
0C62  01                 const type 3
0C63  1A7BEF21           const [4]: (569342746)
0C67  01                 const type 3
0C68  65770E40           const [5]: (1074689893)
0C6C  01                 const type 3
0C6D  92104F65           const [6]: (1699680402)
0C71  01                 const type 3
0C72  8369D017           const [7]: (399534467)
0C76  01                 const type 3
0C77  04C5DDAF           const [8]: (-1344420604)
0C7B  01                 const type 3
0C7C  7FDE0B03           const [9]: (51109503)
0C80  01                 const type 3
0C81  BB3AA4CA           const [10]: (-895206725)
0C85  04                 const type 4
0C86  06                 string size (6)
0C87  6D5368697000       "mShip\0"
                         const [11]: "mShip"
0C8D  01                 const type 3
0C8E  5720287C           const [12]: (2083004503)
0C92  04                 const type 4
0C93  0E                 string size (14)
0C94  6D53686970457874+  "mShipExt"
0C9C  6572696F7200       "erior\0"
                         const [13]: "mShipExterior"
0CA2  04                 const type 4
0CA3  11                 string size (17)
0CA4  6D536B696E466C61+  "mSkinFla"
0CAC  766F75724974656D+  "vourItem"
0CB4  00                 "\0"
                         const [14]: "mSkinFlavourItem"
0CB5  01                 const type 3
0CB6  D48E598B           const [15]: (-1957065004)
0CBA  01                 const type 3
0CBB  ABE331E0           const [16]: (-533601365)
0CBF  01                 const type 3
0CC0  F53C12C2           const [17]: (-1038992139)
0CC4  01                 const type 3
0CC5  0F865E31           const [18]: (828278287)
0CC9  01                 const type 3
0CCA  E4DD0A5E           const [19]: (1577770468)
0CCE  01                 const type 3
0CCF  56B5C44C           const [20]: (1287959894)
0CD3  04                 const type 4
0CD4  08                 string size (8)
0CD5  6D436F6C6F727300   "mColors\0"
                         const [21]: "mColors"
0CDD  04                 const type 4
0CDE  03                 string size (3)
0CDF  5F4700             "_G\0"
                         const [22]: "_G"
0CE2  04                 const type 4
0CE3  11                 string size (17)
0CE4  536869704D657368+  "ShipMesh"
0CEC  4F76657272696465+  "Override"
0CF4  00                 "\0"
                         const [23]: "ShipMeshOverride"
0CF5  01                 const type 3
0CF6  EEDAD415           const [24]: (366271214)
0CFA  04                 const type 4
0CFB  0C                 string size (12)
0CFC  67456E7469747954+  "gEntityT"
0D04  79706500           "ype\0"
                         const [25]: "gEntityType"
0D08  03                 const type 3
0D09  0000803F           const [26]: (0)
0D0D  01                 const type 3
0D0E  3F74C2D4           const [27]: (-725453761)
0D12  01                 const type 3
0D13  A6FFB768           const [28]: (1756888998)
0D17  01                 const type 3
0D18  F1F5CF36           const [29]: (919598577)
0D1C  04                 const type 4
0D1D  05                 string size (5)
0D1E  6D65736800         "mesh\0"
                         const [30]: "mesh"
0D23  01                 const type 3
0D24  925F7E6A           const [31]: (1786666898)
0D28  04                 const type 4
0D29  06                 string size (6)
0D2A  7363616C6500       "scale\0"
                         const [32]: "scale"
                         * functions:
0D30  00                 sizep (0)
                         * lines:
0D31  7B                 sizelineinfo (123)
                         [pc] (line)
0D32  54                 [001] (84)
0D33  00                 [002] (84)
0D34  00                 [003] (84)
0D35  00                 [004] (86)
0D36  54                 [005] (86)
0D37  00                 [006] (86)
0D38  00                 [007] (86)
0D39  00                 [008] (86)
0D3A  54                 [009] (87)
0D3B  00                 [010] (87)
0D3C  00                 [011] (87)
0D3D  00                 [012] (87)
0D3E  56                 [013] (90)
0D3F  00                 [014] (90)
0D40  00                 [015] (90)
0D41  00                 [016] (90)
0D42  56                 [017] (91)
0D43  00                 [018] (91)
0D44  00                 [019] (91)
0D45  00                 [020] (91)
0D46  56                 [021] (91)
0D47  00                 [022] (92)
0D48  00                 [023] (92)
0D49  00                 [024] (93)
0D4A  56                 [025] (93)
0D4B  00                 [026] (93)
0D4C  00                 [027] (93)
0D4D  00                 [028] (93)
0D4E  56                 [029] (95)
0D4F  00                 [030] (95)
0D50  00                 [031] (95)
0D51  00                 [032] (97)
0D52  57                 [033] (97)
0D53  00                 [034] (97)
0D54  00                 [035] (97)
0D55  00                 [036] (97)
0D56  57                 [037] (97)
0D57  00                 [038] (97)
0D58  00                 [039] (97)
0D59  00                 [040] (97)
0D5A  57                 [041] (98)
0D5B  00                 [042] (101)
0D5C  00                 [043] (101)
0D5D  00                 [044] (101)
0D5E  57                 [045] (101)
0D5F  00                 [046] (104)
0D60  00                 [047] (104)
0D61  00                 [048] (105)
0D62  5A                 [049] (105)
0D63  00                 [050] (105)
0D64  00                 [051] (106)
0D65  00                 [052] (106)
0D66  5A                 [053] (106)
0D67  00                 [054] (107)
0D68  00                 [055] (108)
0D69  00                 [056] (108)
0D6A  5A                 [057] (108)
0D6B  00                 [058] (110)
0D6C  00                 [059] (110)
0D6D  00                 [060] (110)
0D6E  5A                 [061] (110)
0D6F  00                 [062] (110)
0D70  00                 [063] (111)
0D71  00                 [064] (111)
0D72  5B                 [065] (111)
0D73  00                 [066] (112)
0D74  00                 [067] (112)
0D75  00                 [068] (112)
0D76  5B                 [069] (113)
0D77  00                 [070] (113)
0D78  00                 [071] (113)
0D79  00                 [072] (113)
0D7A  5B                 [073] (114)
0D7B  00                 [074] (114)
0D7C  00                 [075] (114)
0D7D  00                 [076] (116)
0D7E  5B                 [077] (116)
0D7F  00                 [078] (116)
0D80  00                 [079] (116)
0D81  00                 [080] (117)
0D82  5B                 [081] (117)
0D83  00                 [082] (117)
0D84  00                 [083] (118)
0D85  00                 [084] (120)
0D86  5C                 [085] (120)
0D87  00                 [086] (120)
0D88  00                 [087] (120)
0D89  00                 [088] (120)
0D8A  5C                 [089] (120)
0D8B  00                 [090] (120)
0D8C  00                 [091] (120)
0D8D  00                 [092] (123)
0D8E  5D                 [093] (123)
0D8F  00                 [094] (123)
0D90  00                 [095] (123)
0D91  00                 [096] (123)
0D92  5D                 [097] (123)
0D93  00                 [098] (124)
0D94  00                 [099] (124)
0D95  00                 [100] (124)
0D96  5D                 [101] (125)
0D97  00                 [102] (125)
0D98  00                 [103] (125)
0D99  00                 [104] (125)
0D9A  5D                 [105] (126)
0D9B  00                 [106] (126)
0D9C  00                 [107] (126)
0D9D  00                 [108] (125)
0D9E  5D                 [109] (-128)
0D9F  00                 [110] (-128)
0DA0  00                 [111] (-127)
0DA1  00                 [112] (-127)
0DA2  5F                 [113] (-127)
0DA3  00                 [114] (-127)
0DA4  00                 [115] (-127)
0DA5  00                 [116] (-127)
0DA6  5F                 [117] (-127)
0DA7  00                 [118] (-126)
0DA8  00                 [119] (-126)
0DA9  00                 [120] (-126)
0DAA  5F                 [121] (-126)
0DAB  00                 [122] (-126)
0DAC  00                 [123] (-121)
                         * locals:
0F1E  00                 sizelocvars (0)
                         * upvalues:
0F1F  00                 sizeupvalues (0)
                         ** end of function **

                         
0F20                     ** function [4] definition (level 2)
                         ** start of function **
0F20  00                 string size (0)
                         source name: (none)
0F22  01                 line defined (137)
0F23  87                 last line defined (263)
0F24  02                 nups (2)
0F25  02                 numparams (4)
0F26  04                 is_vararg (0)
0F27  00                 maxstacksize (31)
                         * code:
0F2A  02                 sizecode (317)
0F2B  1D010000           [001] getglobal  4   0        ; _T
0F2F  0E414002           [002] gettable   4   4   257  ; "UsedLisetCustomizations"
fail op	35
0F33  23804002           [003] close      0  
0F37  1A800080           [004] jmp        3            ; to [8]
0F3B  1D010000           [005] getglobal  4   0        ; _T
0F3F  4B010000           [006] newtable   5   0   0    ; array=0, hash=0
0F43  0C418180           [007] settable   4   257 5    ; "UsedLisetCustomizations"
0F47  19C10000           [008] loadk      4   3        ; "Normal"
0F4B  5D010100           [009] getglobal  5   4        ; string
0F4F  4E41C102           [010] gettable   5   5   261  ; -565905820
0F53  A4814100           [011] self       6   0   262  ; 455421500
0F57  A2810001           [012] call       6   2   2  
0F5B  D9C10100           [013] loadk      7   7        ; "Small"
0F5F  62818001           [014] call       5   3   2  
fail op	35
0F63  6380C002           [015] close      1  
0F67  1A000080           [016] jmp        1            ; to [18]
0F6B  19C10100           [017] loadk      4   7        ; "Small"
0F6F  5D010000           [018] getglobal  5   0        ; _T
0F73  4E41C002           [019] gettable   5   5   257  ; "UsedLisetCustomizations"
0F77  4E018102           [020] gettable   5   5   4  
fail op	35
0F7B  2380C002           [021] close      0  
0F7F  1AC00080           [022] jmp        4            ; to [27]
0F83  5D010000           [023] getglobal  5   0        ; _T
0F87  4E41C002           [024] gettable   5   5   257  ; "UsedLisetCustomizations"
0F8B  8B010000           [025] newtable   6   0   0    ; array=0, hash=0
0F8F  4C810102           [026] settable   5   4   6  
0F93  59010200           [027] loadk      5   8        ; ""
0F97  9D410200           [028] getglobal  6   9        ; gPlayerProfileMgr
0F9B  A4814203           [029] self       6   6   266  ; 569342746
0F9F  19C20200           [030] loadk      8   11       ; 0
0FA3  A2818001           [031] call       6   3   2  
0FA7  DD010300           [032] getglobal  7   12       ; 1074689893
0FAB  12020003           [033] move       8   6      
0FAF  E2810001           [034] call       7   2   2  
0FB3  D8410000           [035] test       7       1    ; to [37] if false
0FB7  1A400180           [036] jmp        6            ; to [43]
0FBB  DD010100           [037] getglobal  7   4        ; string
0FBF  CE41C303           [038] gettable   7   7   269  ; -1110387163
0FC3  24824303           [039] self       8   6   270  ; 340404473
0FC7  22020001           [040] call       8   2   0  
0FCB  E2810000           [041] call       7   0   2  
0FCF  52018003           [042] move       5   7      
0FD3  DDC10300           [043] getglobal  7   15       ; -1615931716
0FD7  24024400           [044] self       8   0   272  ; -830264577
0FDB  22020001           [045] call       8   2   0  
0FDF  E2810000           [046] call       7   0   2  
0FE3  1D420400           [047] getglobal  8   17       ; gMatchingService
0FE7  24824404           [048] self       8   8   274  ; -1985412809
0FEB  22820001           [049] call       8   2   2  
0FEF  59C20400           [050] loadk      9   19       ; 0
0FF3  8A020004           [051] len        10  8      
0FF7  D9C20400           [052] loadk      11  19       ; 0
0FFB  50424180           [053] forprep    9   262      ; to [316]
0FFF  4E030304           [054] gettable   13  8   12 
1003  9D030100           [055] getglobal  14  4        ; string
1007  8E434307           [056] gettable   14  14  269  ; -1110387163
100B  CE03C506           [057] gettable   15  13  276  ; "name"
100F  A2830001           [058] call       14  2   2  
fail op	35
1013  63400107           [059] close      1  
1017  1A803F80           [060] jmp        255          ; to [316]
101B  DD030000           [061] getglobal  15  0        ; _T
101F  CE43C007           [062] gettable   15  15  257  ; "UsedLisetCustomizations"
1023  CE038107           [063] gettable   15  15  4  
1027  CE838307           [064] gettable   15  15  14 
fail op	35
102B  6380C007           [065] close      1  
102F  1A400180           [066] jmp        6            ; to [73]
1033  DD030000           [067] getglobal  15  0        ; _T
1037  CE43C007           [068] gettable   15  15  257  ; "UsedLisetCustomizations"
103B  CE038107           [069] gettable   15  15  4  
103F  CE838307           [070] gettable   15  15  14 
fail op	35
1043  23C08107           [071] close      0  
1047  1A803C80           [072] jmp        243          ; to [316]
fail op	35
104B  6380C001           [073] close      1  
104F  1A400080           [074] jmp        2            ; to [77]
fail op	35
1053  23808301           [075] close      0  
1057  1A803B80           [076] jmp        239          ; to [316]
105B  DD030000           [077] getglobal  15  0        ; _T
105F  CE43C007           [078] gettable   15  15  257  ; "UsedLisetCustomizations"
1063  CE038107           [079] gettable   15  15  4  
1067  CCC30107           [080] settable   15  14  7  
106B  DD430500           [081] getglobal  15  21       ; cjson
106F  CE83C507           [082] gettable   15  15  278  ; -1976663275
1073  0EC4C506           [083] gettable   16  13  279  ; "loadout"
1077  E2830001           [084] call       15  2   2  
107B  1D040300           [085] getglobal  16  12       ; 1074689893
107F  4E04C607           [086] gettable   17  15  280  ; "ShipCustomizations"
1083  22840001           [087] call       16  2   2  
1087  18040000           [088] test       16      0    ; to [90] if true
108B  1A000180           [089] jmp        5            ; to [95]
108F  1D040300           [090] getglobal  16  12       ; 1074689893
1093  4E44C607           [091] gettable   17  15  281  ; "ShipType"
1097  22840001           [092] call       16  2   2  
109B  18440000           [093] test       16      1    ; to [95] if false
109F  1AC03680           [094] jmp        220          ; to [315]
10A3  1D840600           [095] getglobal  16  26       ; 738251817
10A7  4E44C607           [096] gettable   17  15  281  ; "ShipType"
10AB  22840001           [097] call       16  2   2  
10AF  46048008           [098] loadnil    17  17     
10B3  9D040300           [099] getglobal  18  12       ; 1074689893
10B7  CE04C607           [100] gettable   19  15  280  ; "ShipCustomizations"
10BB  A2840001           [101] call       18  2   2  
10BF  98440000           [102] test       18      1    ; to [104] if false
10C3  1A000180           [103] jmp        5            ; to [109]
10C7  9D840600           [104] getglobal  18  26       ; 738251817
10CB  CE04C607           [105] gettable   19  15  280  ; "ShipCustomizations"
10CF  CEC4C609           [106] gettable   19  19  283  ; "SkinFlavourItem"
10D3  A2840001           [107] call       18  2   2  
10D7  52040009           [108] move       17  18     
10DB  8B040000           [109] newtable   18  0   0    ; array=0, hash=0
10DF  DD040300           [110] getglobal  19  12       ; 1074689893
10E3  12050008           [111] move       20  16     
10E7  E2840001           [112] call       19  2   2  
10EB  D8440000           [113] test       19      1    ; to [115] if false
10EF  1A800380           [114] jmp        15           ; to [130]
10F3  DD040700           [115] getglobal  19  28       ; _G
10F7  CE44C709           [116] gettable   19  19  285  ; "gLoadedShipSkinsFromDiorama"
10FB  0E45C607           [117] gettable   20  15  281  ; "ShipType"
10FF  CE048509           [118] gettable   19  19  20 
1103  D8440000           [119] test       19      1    ; to [121] if false
1107  1A000280           [120] jmp        9            ; to [130]
110B  CA040009           [121] len        19  18     
110F  C3C4C409           [122] add        19  19  275  ; 0
1113  24854108           [123] self       20  16  262  ; 455421500
1117  22850001           [124] call       20  2   2  
111B  8C048509           [125] settable   18  19  20 
111F  DD040700           [126] getglobal  19  28       ; _G
1123  CE44C709           [127] gettable   19  19  285  ; "gLoadedShipSkinsFromDiorama"
1127  0E45C607           [128] gettable   20  15  281  ; "ShipType"
112B  CC84470A           [129] settable   19  20  286  ; 1
112F  DD040300           [130] getglobal  19  12       ; 1074689893
1133  12058008           [131] move       20  17     
1137  E2840001           [132] call       19  2   2  
113B  D8440000           [133] test       19      1    ; to [135] if false
113F  1A000480           [134] jmp        17           ; to [152]
1143  DD040700           [135] getglobal  19  28       ; _G
1147  CE44C709           [136] gettable   19  19  285  ; "gLoadedShipSkinsFromDiorama"
114B  0E05C607           [137] gettable   20  15  280  ; "ShipCustomizations"
114F  0EC5460A           [138] gettable   20  20  283  ; "SkinFlavourItem"
1153  CE048509           [139] gettable   19  19  20 
1157  D8440000           [140] test       19      1    ; to [142] if false
115B  1A400280           [141] jmp        10           ; to [152]
115F  CA040009           [142] len        19  18     
1163  C3C4C409           [143] add        19  19  275  ; 0
1167  2485C108           [144] self       20  17  262  ; 455421500
116B  22850001           [145] call       20  2   2  
116F  8C048509           [146] settable   18  19  20 
1173  DD040700           [147] getglobal  19  28       ; _G
1177  CE44C709           [148] gettable   19  19  285  ; "gLoadedShipSkinsFromDiorama"
117B  0E05C607           [149] gettable   20  15  280  ; "ShipCustomizations"
117F  0EC5460A           [150] gettable   20  20  283  ; "SkinFlavourItem"
1183  CC84470A           [151] settable   19  20  286  ; 1
1187  CA040009           [152] len        19  18     
fail op	21
118B  15C08485           [153] concat     0   267 19 
118F  1A400780           [154] jmp        30           ; to [185]
1193  DDC40700           [155] getglobal  19  31       ; -1817107093
1197  19050800           [156] loadk      20  32       ; "About to load ship stuff and sleep until it's done...I hope you aren't calling this somewhere where you shouldn't sleep..."
119B  E2440001           [157] call       19  2   1  
119F  D9C40200           [158] loadk      19  11       ; 0
11A3  1D450800           [159] getglobal  20  33       ; UISys
11A7  0E85480A           [160] gettable   20  20  290  ; 1151030240
11AB  52050009           [161] move       21  18     
11AF  22850001           [162] call       20  2   2  
11B3  5D050300           [163] getglobal  21  12       ; 1074689893
11B7  9205000A           [164] move       22  20     
11BB  62850001           [165] call       21  2   2  
11BF  58450000           [166] test       21      1    ; to [168] if false
11C3  1A800280           [167] jmp        11           ; to [179]
11C7  64C5480A           [168] self       21  20  291  ; -1344420604
11CB  62850001           [169] call       21  2   2  
11CF  58450000           [170] test       21      1    ; to [172] if false
11D3  1A800180           [171] jmp        7            ; to [179]
11D7  5D050900           [172] getglobal  21  36       ; 538022378
11DB  99C50200           [173] loadk      22  11       ; 0
11DF  62450001           [174] call       21  2   1  
11E3  5D450900           [175] getglobal  21  37       ; 1661359502
11E7  62858000           [176] call       21  1   2  
11EB  C3448509           [177] add        19  19  21 
11EF  1AC0FB7F           [178] jmp        -16          ; to [163]
11F3  5DC50700           [179] getglobal  21  31       ; -1817107093
11F7  99850900           [180] loadk      22  38       ; "Loading ship and skin took "
11FB  D2058009           [181] move       23  19     
11FF  19C60900           [182] loadk      24  39       ; " seconds"
1203  8205060B           [183] concat     22  22  24 
1207  62450001           [184] call       21  2   1  
120B  5D050A00           [185] getglobal  21  40       ; 2083004503
120F  92050008           [186] move       22  16     
1213  62850001           [187] call       21  2   2  
1217  9D050A00           [188] getglobal  22  40       ; 2083004503
121B  D2058008           [189] move       23  17     
121F  A2850001           [190] call       22  2   2  
1223  D205000B           [191] move       23  22     
1227  1D460A00           [192] getglobal  24  41       ; Lotus_Game
122B  0E864A0C           [193] gettable   24  24  298  ; -552268994
122F  22868000           [194] call       24  1   2  
1233  5D060300           [195] getglobal  25  12       ; 1074689893
1237  8E06C607           [196] gettable   26  15  280  ; "ShipCustomizations"
123B  62860001           [197] call       25  2   2  
123F  58460000           [198] test       25      1    ; to [200] if false
1243  1A001380           [199] jmp        77           ; to [277]
1247  4E06C607           [200] gettable   25  15  280  ; "ShipCustomizations"
124B  4EC6CA0C           [201] gettable   25  25  299  ; "Colors"
124F  8E06CB0C           [202] gettable   26  25  300  ; "t0"
fail op	35
1253  6380400D           [203] close      1  
1257  1A400280           [204] jmp        10           ; to [215]
125B  A4464B0C           [205] self       26  24  301  ; 1092284606
125F  1D470A00           [206] getglobal  28  41       ; Lotus_Game
1263  0E874B0E           [207] gettable   28  28  302  ; "TintColor0"
1267  4E07CB0C           [208] gettable   29  25  300  ; "t0"
126B  A2460002           [209] call       26  4   1  
126F  A4C64B0C           [210] self       26  24  303  ; -1037856321
1273  1D470A00           [211] getglobal  28  41       ; Lotus_Game
1277  0E874B0E           [212] gettable   28  28  302  ; "TintColor0"
127B  57078000           [213] loadbool   29  1   0    ; true
127F  A2460002           [214] call       26  4   1  
1283  8E06CC0C           [215] gettable   26  25  304  ; "t1"
fail op	35
1287  6380400D           [216] close      1  
128B  1A400280           [217] jmp        10           ; to [228]
128F  A4464B0C           [218] self       26  24  301  ; 1092284606
1293  1D470A00           [219] getglobal  28  41       ; Lotus_Game
1297  0E474C0E           [220] gettable   28  28  305  ; "TintColor1"
129B  4E07CC0C           [221] gettable   29  25  304  ; "t1"
129F  A2460002           [222] call       26  4   1  
12A3  A4C64B0C           [223] self       26  24  303  ; -1037856321
12A7  1D470A00           [224] getglobal  28  41       ; Lotus_Game
12AB  0E474C0E           [225] gettable   28  28  305  ; "TintColor1"
12AF  57078000           [226] loadbool   29  1   0    ; true
12B3  A2460002           [227] call       26  4   1  
12B7  8E86CC0C           [228] gettable   26  25  306  ; "t2"
fail op	35
12BB  6380400D           [229] close      1  
12BF  1A400280           [230] jmp        10           ; to [241]
12C3  A4464B0C           [231] self       26  24  301  ; 1092284606
12C7  1D470A00           [232] getglobal  28  41       ; Lotus_Game
12CB  0EC74C0E           [233] gettable   28  28  307  ; "TintColor2"
12CF  4E87CC0C           [234] gettable   29  25  306  ; "t2"
12D3  A2460002           [235] call       26  4   1  
12D7  A4C64B0C           [236] self       26  24  303  ; -1037856321
12DB  1D470A00           [237] getglobal  28  41       ; Lotus_Game
12DF  0EC74C0E           [238] gettable   28  28  307  ; "TintColor2"
12E3  57078000           [239] loadbool   29  1   0    ; true
12E7  A2460002           [240] call       26  4   1  
12EB  8E06CD0C           [241] gettable   26  25  308  ; "t3"
fail op	35
12EF  6380400D           [242] close      1  
12F3  1A400280           [243] jmp        10           ; to [254]
12F7  A4464B0C           [244] self       26  24  301  ; 1092284606
12FB  1D470A00           [245] getglobal  28  41       ; Lotus_Game
12FF  0E474D0E           [246] gettable   28  28  309  ; "TintColor3"
1303  4E07CD0C           [247] gettable   29  25  308  ; "t3"
1307  A2460002           [248] call       26  4   1  
130B  A4C64B0C           [249] self       26  24  303  ; -1037856321
130F  1D470A00           [250] getglobal  28  41       ; Lotus_Game
1313  0E474D0E           [251] gettable   28  28  309  ; "TintColor3"
1317  57078000           [252] loadbool   29  1   0    ; true
131B  A2460002           [253] call       26  4   1  
131F  8E86CD0C           [254] gettable   26  25  310  ; "en"
fail op	35
1323  6380400D           [255] close      1  
1327  1AC00480           [256] jmp        20           ; to [277]
132B  A4464B0C           [257] self       26  24  301  ; 1092284606
132F  1D470A00           [258] getglobal  28  41       ; Lotus_Game
1333  0EC74D0E           [259] gettable   28  28  311  ; "EnergyColor"
1337  4E87CD0C           [260] gettable   29  25  310  ; "en"
133B  A2460002           [261] call       26  4   1  
133F  A4C64B0C           [262] self       26  24  303  ; -1037856321
1343  1D470A00           [263] getglobal  28  41       ; Lotus_Game
1347  0EC74D0E           [264] gettable   28  28  311  ; "EnergyColor"
134B  57078000           [265] loadbool   29  1   0    ; true
134F  A2460002           [266] call       26  4   1  
1353  A4464B0C           [267] self       26  24  301  ; 1092284606
1357  1D470A00           [268] getglobal  28  41       ; Lotus_Game
135B  0E074E0E           [269] gettable   28  28  312  ; "EmissiveColor0"
135F  4E87CD0C           [270] gettable   29  25  310  ; "en"
1363  A2460002           [271] call       26  4   1  
1367  A4C64B0C           [272] self       26  24  303  ; -1037856321
136B  1D470A00           [273] getglobal  28  41       ; Lotus_Game
136F  0E074E0E           [274] gettable   28  28  312  ; "EmissiveColor0"
1373  57078000           [275] loadbool   29  1   0    ; true
1377  A2460002           [276] call       26  4   1  
137B  9D060300           [277] getglobal  26  12       ; 1074689893
137F  D2060000           [278] move       27  0      
1383  A2860001           [279] call       26  2   2  
1387  98460000           [280] test       26      1    ; to [282] if false
138B  1A000880           [281] jmp        33           ; to [315]
138F  A4464E00           [282] self       26  0   313  ; -1957065004
1393  13070000           [283] getupval   28  0      
1397  A2868001           [284] call       26  3   2  
139B  98060000           [285] test       26      0    ; to [287] if true
139F  1A400580           [286] jmp        22           ; to [309]
13A3  A4864E00           [287] self       26  0   314  ; -533601365
13A7  1207800A           [288] move       28  21     
13AB  A2468001           [289] call       26  3   1  
13AF  A4C64E00           [290] self       26  0   315  ; -1038992139
13B3  1207800B           [291] move       28  23     
13B7  5207000C           [292] move       29  24     
13BB  A2460002           [293] call       26  4   1  
13BF  A406CF00           [294] self       26  1   316  ; 828278287
13C3  A2860001           [295] call       26  2   2  
13C7  98060000           [296] test       26      0    ; to [298] if true
13CB  1A800080           [297] jmp        3            ; to [301]
13CF  A4464F00           [298] self       26  0   317  ; 1577770468
13D3  12078000           [299] move       28  1      
13D7  A2468001           [300] call       26  3   1  
13DB  A4064F01           [301] self       26  2   316  ; 828278287
13DF  A2860001           [302] call       26  2   2  
13E3  98060000           [303] test       26      0    ; to [305] if true
13E7  1A400280           [304] jmp        10           ; to [315]
13EB  A4864F00           [305] self       26  0   318  ; 1287959894
13EF  12070001           [306] move       28  2      
13F3  A2468001           [307] call       26  3   1  
13F7  1A400180           [308] jmp        6            ; to [315]
13FB  93068000           [309] getupval   26  1      
13FF  D2060000           [310] move       27  0      
1403  1207800A           [311] move       28  21     
1407  5207800B           [312] move       29  23     
140B  9207000C           [313] move       30  24     
140F  A2468002           [314] call       26  5   1  
1413  1E008000           [315] return     0   1      
1417  5402BE7F           [316] forloop    9   -263     ; to [54] if loop
141B  1E008000           [317] return     0   1      
                         * constants:
141F  3F                 sizek (63)
1420  04                 const type 4
1421  03                 string size (3)
1422  5F5400             "_T\0"
                         const [0]: "_T"
1425  04                 const type 4
1426  18                 string size (24)
1427  557365644C697365+  "UsedLise"
142F  74437573746F6D69+  "tCustomi"
1437  7A6174696F6E7300   "zations\0"
                         const [1]: "UsedLisetCustomizations"
143F  00                 const type 0
                         const [2]: nil
1440  04                 const type 4
1441  07                 string size (7)
1442  4E6F726D616C00     "Normal\0"
                         const [3]: "Normal"
1449  04                 const type 4
144A  07                 string size (7)
144B  737472696E6700     "string\0"
                         const [4]: "string"
1452  01                 const type 3
1453  64F644DE           const [5]: (-565905820)
1457  01                 const type 3
1458  3C2E251B           const [6]: (455421500)
145C  04                 const type 4
145D  06                 string size (6)
145E  536D616C6C00       "Small\0"
                         const [7]: "Small"
1464  04                 const type 4
1465  01                 string size (0)
                         const [8]: ""
1467  04                 const type 4
1468  12                 string size (18)
1469  67506C6179657250+  "gPlayerP"
1471  726F66696C654D67+  "rofileMg"
1479  7200               "r\0"
                         const [9]: "gPlayerProfileMgr"
147B  01                 const type 3
147C  1A7BEF21           const [10]: (569342746)
1480  03                 const type 3
1481  00000000           const [11]: (0)
1485  01                 const type 3
1486  65770E40           const [12]: (1074689893)
148A  01                 const type 3
148B  25D6D0BD           const [13]: (-1110387163)
148F  01                 const type 3
1490  F9284A14           const [14]: (340404473)
1494  01                 const type 3
1495  BCD6AE9F           const [15]: (-1615931716)
1499  01                 const type 3
149A  FF2A83CE           const [16]: (-830264577)
149E  04                 const type 4
149F  11                 string size (17)
14A0  674D61746368696E+  "gMatchin"
14A8  6753657276696365+  "gService"
14B0  00                 "\0"
                         const [17]: "gMatchingService"
14B1  01                 const type 3
14B2  3701A989           const [18]: (-1985412809)
14B6  03                 const type 3
14B7  0000803F           const [19]: (0)
14BB  04                 const type 4
14BC  05                 string size (5)
14BD  6E616D6500         "name\0"
                         const [20]: "name"
14C2  04                 const type 4
14C3  06                 string size (6)
14C4  636A736F6E00       "cjson\0"
                         const [21]: "cjson"
14CA  01                 const type 3
14CB  15832E8A           const [22]: (-1976663275)
14CF  04                 const type 4
14D0  08                 string size (8)
14D1  6C6F61646F757400   "loadout\0"
                         const [23]: "loadout"
14D9  04                 const type 4
14DA  13                 string size (19)
14DB  5368697043757374+  "ShipCust"
14E3  6F6D697A6174696F+  "omizatio"
14EB  6E7300             "ns\0"
                         const [24]: "ShipCustomizations"
14EE  04                 const type 4
14EF  09                 string size (9)
14F0  5368697054797065+  "ShipType"
14F8  00                 "\0"
                         const [25]: "ShipType"
14F9  01                 const type 3
14FA  29D4002C           const [26]: (738251817)
14FE  04                 const type 4
14FF  10                 string size (16)
1500  536B696E466C6176+  "SkinFlav"
1508  6F75724974656D00   "ourItem\0"
                         const [27]: "SkinFlavourItem"
1510  04                 const type 4
1511  03                 string size (3)
1512  5F4700             "_G\0"
                         const [28]: "_G"
1515  04                 const type 4
1516  1C                 string size (28)
1517  674C6F6164656453+  "gLoadedS"
151F  686970536B696E73+  "hipSkins"
1527  46726F6D44696F72+  "FromDior"
152F  616D6100           "ama\0"
                         const [29]: "gLoadedShipSkinsFromDiorama"
1533  01                 const type 3
1534  01000000           const [30]: (1)
1538  01                 const type 3
1539  6B25B193           const [31]: (-1817107093)
153D  04                 const type 4
153E  7B                 string size (123)
153F  41626F757420746F+  "About to"
1547  206C6F6164207368+  " load sh"
154F  6970207374756666+  "ip stuff"
1557  20616E6420736C65+  " and sle"
155F  657020756E74696C+  "ep until"
1567  206974277320646F+  " it's do"
156F  6E652E2E2E492068+  "ne...I h"
1577  6F706520796F7520+  "ope you "
157F  6172656E27742063+  "aren't c"
1587  616C6C696E672074+  "alling t"
158F  68697320736F6D65+  "his some"
1597  7768657265207768+  "where wh"
159F  65726520796F7520+  "ere you "
15A7  73686F756C646E27+  "shouldn'"
15AF  7420736C6565702E+  "t sleep."
15B7  2E2E00             "..\0"
                         const [32]: "About to load ship stuff and sleep until it's done...I hope you aren't calling this somewhere where you shouldn't sleep..."
15BA  04                 const type 4
15BB  06                 string size (6)
15BC  554953797300       "UISys\0"
                         const [33]: "UISys"
15C2  01                 const type 3
15C3  E0539B44           const [34]: (1151030240)
15C7  01                 const type 3
15C8  04C5DDAF           const [35]: (-1344420604)
15CC  01                 const type 3
15CD  EA911120           const [36]: (538022378)
15D1  01                 const type 3
15D2  8E550663           const [37]: (1661359502)
15D6  04                 const type 4
15D7  1C                 string size (28)
15D8  4C6F6164696E6720+  "Loading "
15E0  7368697020616E64+  "ship and"
15E8  20736B696E20746F+  " skin to"
15F0  6F6B2000           "ok \0"
                         const [38]: "Loading ship and skin took "
15F4  04                 const type 4
15F5  09                 string size (9)
15F6  207365636F6E6473+  " seconds"
15FE  00                 "\0"
                         const [39]: " seconds"
15FF  01                 const type 3
1600  5720287C           const [40]: (2083004503)
1604  04                 const type 4
1605  0B                 string size (11)
1606  4C6F7475735F4761+  "Lotus_Ga"
160E  6D6500             "me\0"
                         const [41]: "Lotus_Game"
1611  01                 const type 3
1612  3E0B15DF           const [42]: (-552268994)
1616  04                 const type 4
1617  07                 string size (7)
1618  436F6C6F727300     "Colors\0"
                         const [43]: "Colors"
161F  04                 const type 4
1620  03                 string size (3)
1621  743000             "t0\0"
                         const [44]: "t0"
1624  01                 const type 3
1625  BEF01A41           const [45]: (1092284606)
1629  04                 const type 4
162A  0B                 string size (11)
162B  54696E74436F6C6F+  "TintColo"
1633  723000             "r0\0"
                         const [46]: "TintColor0"
1636  01                 const type 3
1637  BF9123C2           const [47]: (-1037856321)
163B  04                 const type 4
163C  03                 string size (3)
163D  743100             "t1\0"
                         const [48]: "t1"
1640  04                 const type 4
1641  0B                 string size (11)
1642  54696E74436F6C6F+  "TintColo"
164A  723100             "r1\0"
                         const [49]: "TintColor1"
164D  04                 const type 4
164E  03                 string size (3)
164F  743200             "t2\0"
                         const [50]: "t2"
1652  04                 const type 4
1653  0B                 string size (11)
1654  54696E74436F6C6F+  "TintColo"
165C  723200             "r2\0"
                         const [51]: "TintColor2"
165F  04                 const type 4
1660  03                 string size (3)
1661  743300             "t3\0"
                         const [52]: "t3"
1664  04                 const type 4
1665  0B                 string size (11)
1666  54696E74436F6C6F+  "TintColo"
166E  723300             "r3\0"
                         const [53]: "TintColor3"
1671  04                 const type 4
1672  03                 string size (3)
1673  656E00             "en\0"
                         const [54]: "en"
1676  04                 const type 4
1677  0C                 string size (12)
1678  456E65726779436F+  "EnergyCo"
1680  6C6F7200           "lor\0"
                         const [55]: "EnergyColor"
1684  04                 const type 4
1685  0F                 string size (15)
1686  456D697373697665+  "Emissive"
168E  436F6C6F723000     "Color0\0"
                         const [56]: "EmissiveColor0"
1695  01                 const type 3
1696  D48E598B           const [57]: (-1957065004)
169A  01                 const type 3
169B  ABE331E0           const [58]: (-533601365)
169F  01                 const type 3
16A0  F53C12C2           const [59]: (-1038992139)
16A4  01                 const type 3
16A5  0F865E31           const [60]: (828278287)
16A9  01                 const type 3
16AA  E4DD0A5E           const [61]: (1577770468)
16AE  01                 const type 3
16AF  56B5C44C           const [62]: (1287959894)
                         * functions:
16B3  00                 sizep (0)
                         * lines:
16B5  02                 sizelineinfo (317)
                         [pc] (line)
16B6  8B                 [001] (-117)
16B7  00                 [002] (-117)
16B8  00                 [003] (-117)
16B9  00                 [004] (-117)
16BA  8B                 [005] (-116)
16BB  00                 [006] (-116)
16BC  00                 [007] (-116)
16BD  00                 [008] (-112)
16BE  8B                 [009] (-111)
16BF  00                 [010] (-111)
16C0  00                 [011] (-111)
16C1  00                 [012] (-111)
16C2  8B                 [013] (-111)
16C3  00                 [014] (-111)
16C4  00                 [015] (-111)
16C5  00                 [016] (-111)
16C6  8C                 [017] (-110)
16C7  00                 [018] (-107)
16C8  00                 [019] (-107)
16C9  00                 [020] (-107)
16CA  8C                 [021] (-107)
16CB  00                 [022] (-107)
16CC  00                 [023] (-106)
16CD  00                 [024] (-106)
16CE  8C                 [025] (-106)
16CF  00                 [026] (-106)
16D0  00                 [027] (-103)
16D1  00                 [028] (-101)
16D2  90                 [029] (-101)
16D3  00                 [030] (-101)
16D4  00                 [031] (-101)
16D5  00                 [032] (-100)
16D6  91                 [033] (-100)
16D7  00                 [034] (-100)
16D8  00                 [035] (-100)
16D9  00                 [036] (-100)
16DA  91                 [037] (-99)
16DB  00                 [038] (-99)
16DC  00                 [039] (-99)
16DD  00                 [040] (-99)
16DE  91                 [041] (-99)
16DF  00                 [042] (-99)
16E0  00                 [043] (-96)
16E1  00                 [044] (-96)
16E2  91                 [045] (-96)
16E3  00                 [046] (-96)
16E4  00                 [047] (-94)
16E5  00                 [048] (-94)
16E6  91                 [049] (-94)
16E7  00                 [050] (-93)
16E8  00                 [051] (-93)
16E9  00                 [052] (-93)
16EA  91                 [053] (-93)
16EB  00                 [054] (-92)
16EC  00                 [055] (-91)
16ED  00                 [056] (-91)
16EE  91                 [057] (-91)
16EF  00                 [058] (-91)
16F0  00                 [059] (-88)
16F1  00                 [060] (-88)
16F2  91                 [061] (-87)
16F3  00                 [062] (-87)
16F4  00                 [063] (-87)
16F5  00                 [064] (-87)
16F6  92                 [065] (-87)
16F7  00                 [066] (-87)
16F8  00                 [067] (-87)
16F9  00                 [068] (-87)
16FA  95                 [069] (-87)
16FB  00                 [070] (-87)
16FC  00                 [071] (-87)
16FD  00                 [072] (-87)
16FE  95                 [073] (-86)
16FF  00                 [074] (-86)
1700  00                 [075] (-86)
1701  00                 [076] (-86)
1702  95                 [077] (-84)
1703  00                 [078] (-84)
1704  00                 [079] (-84)
1705  00                 [080] (-84)
1706  95                 [081] (-82)
1707  00                 [082] (-82)
1708  00                 [083] (-82)
1709  00                 [084] (-82)
170A  95                 [085] (-81)
170B  00                 [086] (-81)
170C  00                 [087] (-81)
170D  00                 [088] (-81)
170E  96                 [089] (-81)
170F  00                 [090] (-81)
1710  00                 [091] (-81)
1711  00                 [092] (-81)
1712  96                 [093] (-81)
1713  00                 [094] (-81)
1714  00                 [095] (-78)
1715  00                 [096] (-78)
1716  96                 [097] (-78)
1717  00                 [098] (-77)
1718  00                 [099] (-75)
1719  00                 [100] (-75)
171A  96                 [101] (-75)
171B  00                 [102] (-75)
171C  00                 [103] (-75)
171D  00                 [104] (-74)
171E  99                 [105] (-74)
171F  00                 [106] (-74)
1720  00                 [107] (-74)
1721  00                 [108] (-74)
1722  9B                 [109] (-71)
1723  00                 [110] (-70)
1724  00                 [111] (-70)
1725  00                 [112] (-70)
1726  9B                 [113] (-70)
1727  00                 [114] (-70)
1728  00                 [115] (-70)
1729  00                 [116] (-70)
172A  9B                 [117] (-70)
172B  00                 [118] (-70)
172C  00                 [119] (-70)
172D  00                 [120] (-70)
172E  9B                 [121] (-69)
172F  00                 [122] (-69)
1730  00                 [123] (-69)
1731  00                 [124] (-69)
1732  9C                 [125] (-69)
1733  00                 [126] (-68)
1734  00                 [127] (-68)
1735  00                 [128] (-68)
1736  9C                 [129] (-68)
1737  00                 [130] (-65)
1738  00                 [131] (-65)
1739  00                 [132] (-65)
173A  9C                 [133] (-65)
173B  00                 [134] (-65)
173C  00                 [135] (-65)
173D  00                 [136] (-65)
173E  9C                 [137] (-65)
173F  00                 [138] (-65)
1740  00                 [139] (-65)
1741  00                 [140] (-65)
1742  9C                 [141] (-65)
1743  00                 [142] (-64)
1744  00                 [143] (-64)
1745  00                 [144] (-64)
1746  9D                 [145] (-64)
1747  00                 [146] (-64)
1748  00                 [147] (-63)
1749  00                 [148] (-63)
174A  9D                 [149] (-63)
174B  00                 [150] (-63)
174C  00                 [151] (-63)
174D  00                 [152] (-60)
174E  9D                 [153] (-60)
174F  00                 [154] (-60)
1750  00                 [155] (-59)
1751  00                 [156] (-59)
1752  9D                 [157] (-59)
1753  00                 [158] (-58)
1754  00                 [159] (-57)
1755  00                 [160] (-57)
1756  9D                 [161] (-57)
1757  00                 [162] (-57)
1758  00                 [163] (-56)
1759  00                 [164] (-56)
175A  9D                 [165] (-56)
175B  00                 [166] (-56)
175C  00                 [167] (-56)
175D  00                 [168] (-56)
175E  A0                 [169] (-56)
175F  00                 [170] (-56)
1760  00                 [171] (-56)
1761  00                 [172] (-55)
1762  A0                 [173] (-55)
1763  00                 [174] (-55)
1764  00                 [175] (-54)
1765  00                 [176] (-54)
1766  A0                 [177] (-54)
1767  00                 [178] (-54)
1768  00                 [179] (-51)
1769  00                 [180] (-51)
176A  A0                 [181] (-51)
176B  00                 [182] (-51)
176C  00                 [183] (-51)
176D  00                 [184] (-51)
176E  A2                 [185] (-48)
176F  00                 [186] (-48)
1770  00                 [187] (-48)
1771  00                 [188] (-46)
1772  A2                 [189] (-46)
1773  00                 [190] (-46)
1774  00                 [191] (-45)
1775  00                 [192] (-43)
1776  A2                 [193] (-43)
1777  00                 [194] (-43)
1778  00                 [195] (-42)
1779  00                 [196] (-42)
177A  A3                 [197] (-42)
177B  00                 [198] (-42)
177C  00                 [199] (-42)
177D  00                 [200] (-41)
177E  A3                 [201] (-41)
177F  00                 [202] (-40)
1780  00                 [203] (-40)
1781  00                 [204] (-40)
1782  A3                 [205] (-39)
1783  00                 [206] (-39)
1784  00                 [207] (-39)
1785  00                 [208] (-39)
1786  A3                 [209] (-39)
1787  00                 [210] (-38)
1788  00                 [211] (-38)
1789  00                 [212] (-38)
178A  A4                 [213] (-38)
178B  00                 [214] (-38)
178C  00                 [215] (-35)
178D  00                 [216] (-35)
178E  A5                 [217] (-35)
178F  00                 [218] (-34)
1790  00                 [219] (-34)
1791  00                 [220] (-34)
1792  A5                 [221] (-34)
1793  00                 [222] (-34)
1794  00                 [223] (-33)
1795  00                 [224] (-33)
1796  A5                 [225] (-33)
1797  00                 [226] (-33)
1798  00                 [227] (-33)
1799  00                 [228] (-30)
179A  A5                 [229] (-30)
179B  00                 [230] (-30)
179C  00                 [231] (-29)
179D  00                 [232] (-29)
179E  A8                 [233] (-29)
179F  00                 [234] (-29)
17A0  00                 [235] (-29)
17A1  00                 [236] (-28)
17A2  A8                 [237] (-28)
17A3  00                 [238] (-28)
17A4  00                 [239] (-28)
17A5  00                 [240] (-28)
17A6  A9                 [241] (-25)
17A7  00                 [242] (-25)
17A8  00                 [243] (-25)
17A9  00                 [244] (-24)
17AA  A9                 [245] (-24)
17AB  00                 [246] (-24)
17AC  00                 [247] (-24)
17AD  00                 [248] (-24)
17AE  A9                 [249] (-23)
17AF  00                 [250] (-23)
17B0  00                 [251] (-23)
17B1  00                 [252] (-23)
17B2  A9                 [253] (-23)
17B3  00                 [254] (-20)
17B4  00                 [255] (-20)
17B5  00                 [256] (-20)
17B6  A9                 [257] (-19)
17B7  00                 [258] (-19)
17B8  00                 [259] (-19)
17B9  00                 [260] (-19)
17BA  A9                 [261] (-19)
17BB  00                 [262] (-18)
17BC  00                 [263] (-18)
17BD  00                 [264] (-18)
17BE  A9                 [265] (-18)
17BF  00                 [266] (-18)
17C0  00                 [267] (-17)
17C1  00                 [268] (-17)
17C2  A9                 [269] (-17)
17C3  00                 [270] (-17)
17C4  00                 [271] (-17)
17C5  00                 [272] (-16)
17C6  A9                 [273] (-16)
17C7  00                 [274] (-16)
17C8  00                 [275] (-16)
17C9  00                 [276] (-16)
17CA  A9                 [277] (-12)
17CB  00                 [278] (-12)
17CC  00                 [279] (-12)
17CD  00                 [280] (-12)
17CE  A9                 [281] (-12)
17CF  00                 [282] (-11)
17D0  00                 [283] (-11)
17D1  00                 [284] (-11)
17D2  A9                 [285] (-11)
17D3  00                 [286] (-11)
17D4  00                 [287] (-10)
17D5  00                 [288] (-10)
17D6  AA                 [289] (-10)
17D7  00                 [290] (-9)
17D8  00                 [291] (-9)
17D9  00                 [292] (-9)
17DA  AA                 [293] (-9)
17DB  00                 [294] (-8)
17DC  00                 [295] (-8)
17DD  00                 [296] (-8)
17DE  AA                 [297] (-8)
17DF  00                 [298] (-7)
17E0  00                 [299] (-7)
17E1  00                 [300] (-7)
17E2  AA                 [301] (-5)
17E3  00                 [302] (-5)
17E4  00                 [303] (-5)
17E5  00                 [304] (-5)
17E6  AC                 [305] (-4)
17E7  00                 [306] (-4)
17E8  00                 [307] (-4)
17E9  00                 [308] (-3)
17EA  AC                 [309] (-1)
17EB  00                 [310] (-1)
17EC  00                 [311] (-1)
17ED  00                 [312] (-1)
17EE  AC                 [313] (-1)
17EF  00                 [314] (-1)
17F0  00                 [315] (4)
17F1  00                 [316] (-93)
17F2  AC                 [317] (7)
                         * locals:
1BAA  00                 sizelocvars (0)
                         * upvalues:
1BAB  00                 sizeupvalues (0)
                         ** end of function **

                         
1BAC                     ** function [5] definition (level 2)
                         ** start of function **
1BAC  00                 string size (0)
                         source name: (none)
1BAE  02                 line defined (265)
1BAF  A2                 last line defined (290)
1BB0  02                 nups (2)
1BB1  02                 numparams (1)
1BB2  01                 is_vararg (0)
1BB3  00                 maxstacksize (13)
                         * code:
1BB5  45                 sizecode (69)
1BB6  64004000           [01] self       1   0   256  ; -1870903749
1BBA  62800001           [02] call       1   2   2  
1BBE  9D400000           [03] getglobal  2   1        ; 1074689893
1BC2  D2008000           [04] move       3   1      
1BC6  A2800001           [05] call       2   2   2  
1BCA  98000000           [06] test       2       0    ; to [8] if true
1BCE  1A800180           [07] jmp        7            ; to [15]
1BD2  9D800000           [08] getglobal  2   2        ; 538022378
1BD6  D9C00000           [09] loadk      3   3        ; 0
1BDA  A2400001           [10] call       2   2   1  
1BDE  A4004000           [11] self       2   0   256  ; -1870903749
1BE2  A2800001           [12] call       2   2   2  
1BE6  52000001           [13] move       1   2      
1BEA  1AC0FC7F           [14] jmp        -12          ; to [3]
1BEE  A400C100           [15] self       2   1   260  ; -830264577
1BF2  A2800001           [16] call       2   2   2  
1BF6  D3000000           [17] getupval   3   0      
fail op	35
1BFA  63C00001           [18] close      1  
1BFE  1A000080           [19] jmp        1            ; to [21]
1C02  1E008000           [20] return     0   1      
1C06  9D400100           [21] getglobal  2   5        ; gPlayerProfileMgr
1C0A  A4804101           [22] self       2   2   262  ; 569342746
1C0E  19C10000           [23] loadk      4   3        ; 0
1C12  A2808001           [24] call       2   3   2  
1C16  DD400000           [25] getglobal  3   1        ; 1074689893
1C1A  12010001           [26] move       4   2      
1C1E  E2800001           [27] call       3   2   2  
1C22  D8400000           [28] test       3       1    ; to [30] if false
1C26  1A800980           [29] jmp        39           ; to [69]
1C2A  E4C04101           [30] self       3   2   263  ; 1699680402
1C2E  E2800001           [31] call       3   2   2  
1C32  1D410000           [32] getglobal  4   1        ; 1074689893
1C36  52018001           [33] move       5   3      
1C3A  22810001           [34] call       4   2   2  
1C3E  18410000           [35] test       4       1    ; to [37] if false
1C42  1AC00780           [36] jmp        32           ; to [69]
1C46  2401C201           [37] self       4   3   264  ; 339600978
1C4A  97018000           [38] loadbool   6   1   0    ; true
1C4E  22818001           [39] call       4   3   2  
1C52  0E414202           [40] gettable   4   4   265  ; "mShipExterior"
1C56  5D410000           [41] getglobal  5   1        ; 1074689893
1C5A  92010002           [42] move       6   4      
1C5E  62810001           [43] call       5   2   2  
1C62  58410000           [44] test       5       1    ; to [46] if false
1C66  1A800580           [45] jmp        23           ; to [69]
1C6A  5D410000           [46] getglobal  5   1        ; 1074689893
1C6E  8E814202           [47] gettable   6   4   266  ; "mSkinFlavourItem"
1C72  62810001           [48] call       5   2   2  
1C76  58410000           [49] test       5       1    ; to [51] if false
1C7A  1A400480           [50] jmp        18           ; to [69]
1C7E  53018000           [51] getupval   5   1      
1C82  92010000           [52] move       6   0      
1C86  CEC14202           [53] gettable   7   4   267  ; "mColors"
1C8A  CE01C303           [54] gettable   7   7   268  ; "mEnergyColor"
1C8E  62418001           [55] call       5   3   1  
1C92  64414300           [56] self       5   0   269  ; 366271214
1C96  DD810300           [57] getglobal  7   14       ; gEntityType
1C9A  62818001           [58] call       5   3   2  
1C9E  99C10300           [59] loadk      6   15       ; 0
1CA2  CA018002           [60] len        7   5      
1CA6  19C20300           [61] loadk      8   15       ; 0
1CAA  90010180           [62] forprep    6   5        ; to [68]
1CAE  93028000           [63] getupval   10  1      
1CB2  CE428202           [64] gettable   11  5   9  
1CB6  0EC34202           [65] gettable   12  4   267  ; "mColors"
1CBA  0E034306           [66] gettable   12  12  268  ; "mEnergyColor"
1CBE  A2428001           [67] call       10  3   1  
1CC2  9441FE7F           [68] forloop    6   -6       ; to [63] if loop
1CC6  1E008000           [69] return     0   1      
                         * constants:
1CCA  10                 sizek (16)
1CCB  01                 const type 3
1CCC  3B467C90           const [0]: (-1870903749)
1CD0  01                 const type 3
1CD1  65770E40           const [1]: (1074689893)
1CD5  01                 const type 3
1CD6  EA911120           const [2]: (538022378)
1CDA  03                 const type 3
1CDB  00000000           const [3]: (0)
1CDF  01                 const type 3
1CE0  FF2A83CE           const [4]: (-830264577)
1CE4  04                 const type 4
1CE5  12                 string size (18)
1CE6  67506C6179657250+  "gPlayerP"
1CEE  726F66696C654D67+  "rofileMg"
1CF6  7200               "r\0"
                         const [5]: "gPlayerProfileMgr"
1CF8  01                 const type 3
1CF9  1A7BEF21           const [6]: (569342746)
1CFD  01                 const type 3
1CFE  92104F65           const [7]: (1699680402)
1D02  01                 const type 3
1D03  52E63D14           const [8]: (339600978)
1D07  04                 const type 4
1D08  0E                 string size (14)
1D09  6D53686970457874+  "mShipExt"
1D11  6572696F7200       "erior\0"
                         const [9]: "mShipExterior"
1D17  04                 const type 4
1D18  11                 string size (17)
1D19  6D536B696E466C61+  "mSkinFla"
1D21  766F75724974656D+  "vourItem"
1D29  00                 "\0"
                         const [10]: "mSkinFlavourItem"
1D2A  04                 const type 4
1D2B  08                 string size (8)
1D2C  6D436F6C6F727300   "mColors\0"
                         const [11]: "mColors"
1D34  04                 const type 4
1D35  0D                 string size (13)
1D36  6D456E6572677943+  "mEnergyC"
1D3E  6F6C6F7200         "olor\0"
                         const [12]: "mEnergyColor"
1D43  01                 const type 3
1D44  EEDAD415           const [13]: (366271214)
1D48  04                 const type 4
1D49  0C                 string size (12)
1D4A  67456E7469747954+  "gEntityT"
1D52  79706500           "ype\0"
                         const [14]: "gEntityType"
1D56  03                 const type 3
1D57  0000803F           const [15]: (0)
                         * functions:
1D5B  00                 sizep (0)
                         * lines:
1D5C  45                 sizelineinfo (69)
                         [pc] (line)
1D5D  0A                 [01] (10)
1D5E  01                 [02] (10)
1D5F  00                 [03] (11)
1D60  00                 [04] (11)
1D61  0A                 [05] (11)
1D62  01                 [06] (11)
1D63  00                 [07] (11)
1D64  00                 [08] (13)
1D65  0B                 [09] (13)
1D66  01                 [10] (13)
1D67  00                 [11] (14)
1D68  00                 [12] (14)
1D69  0B                 [13] (14)
1D6A  01                 [14] (14)
1D6B  00                 [15] (17)
1D6C  00                 [16] (17)
1D6D  0B                 [17] (17)
1D6E  01                 [18] (17)
1D6F  00                 [19] (17)
1D70  00                 [20] (18)
1D71  0B                 [21] (20)
1D72  01                 [22] (20)
1D73  00                 [23] (20)
1D74  00                 [24] (20)
1D75  0B                 [25] (21)
1D76  01                 [26] (21)
1D77  00                 [27] (21)
1D78  00                 [28] (21)
1D79  0D                 [29] (21)
1D7A  01                 [30] (22)
1D7B  00                 [31] (22)
1D7C  00                 [32] (23)
1D7D  0D                 [33] (23)
1D7E  01                 [34] (23)
1D7F  00                 [35] (23)
1D80  00                 [36] (23)
1D81  0D                 [37] (24)
1D82  01                 [38] (24)
1D83  00                 [39] (24)
1D84  00                 [40] (24)
1D85  0E                 [41] (25)
1D86  01                 [42] (25)
1D87  00                 [43] (25)
1D88  00                 [44] (25)
1D89  0E                 [45] (25)
1D8A  01                 [46] (25)
1D8B  00                 [47] (25)
1D8C  00                 [48] (25)
1D8D  0E                 [49] (25)
1D8E  01                 [50] (25)
1D8F  00                 [51] (26)
1D90  00                 [52] (26)
1D91  0E                 [53] (26)
1D92  01                 [54] (26)
1D93  00                 [55] (26)
1D94  00                 [56] (27)
1D95  11                 [57] (27)
1D96  01                 [58] (27)
1D97  00                 [59] (28)
1D98  00                 [60] (28)
1D99  11                 [61] (28)
1D9A  01                 [62] (28)
1D9B  00                 [63] (29)
1D9C  00                 [64] (29)
1D9D  11                 [65] (29)
1D9E  01                 [66] (29)
1D9F  00                 [67] (29)
1DA0  00                 [68] (28)
1DA1  11                 [69] (34)
                         * locals:
1E71  00                 sizelocvars (0)
                         * upvalues:
1E72  00                 sizeupvalues (0)
                         ** end of function **

                         
1E73                     ** function [6] definition (level 2)
                         ** start of function **
1E73  00                 string size (0)
                         source name: (none)
1E75  02                 line defined (292)
1E76  E6                 last line defined (358)
1E77  02                 nups (2)
1E78  02                 numparams (2)
1E79  02                 is_vararg (0)
1E7A  00                 maxstacksize (29)
                         * code:
1E7D  01                 sizecode (168)
1E7E  A4004000           [001] self       2   0   256  ; -1348043987
1E82  A2800001           [002] call       2   2   2  
1E86  CE404001           [003] gettable   3   2   257  ; "mColors"
1E8A  0E814001           [004] gettable   4   2   258  ; "mSkinFlavourItem"
1E8E  46010003           [005] loadnil    5   6      
1E92  E4C14000           [006] self       7   0   259  ; 96864811
1E96  E2810001           [007] call       7   2   2  
1E9A  1D020100           [008] getglobal  8   4        ; 1074689893
1E9E  52020002           [009] move       9   4      
1EA2  22820001           [010] call       8   2   2  
1EA6  18020000           [011] test       8       0    ; to [13] if true
1EAA  1A000280           [012] jmp        9            ; to [22]
1EAE  1D020100           [013] getglobal  8   4        ; 1074689893
1EB2  52028003           [014] move       9   7      
1EB6  22820001           [015] call       8   2   2  
1EBA  18420000           [016] test       8       1    ; to [18] if false
1EBE  1AC00280           [017] jmp        12           ; to [30]
1EC2  2442C103           [018] self       8   7   261  ; -776199318
1EC6  22820001           [019] call       8   2   2  
1ECA  92010004           [020] move       6   8      
1ECE  1AC00180           [021] jmp        8            ; to [30]
1ED2  1D820100           [022] getglobal  8   6        ; -895206725
1ED6  52020002           [023] move       9   4      
1EDA  22820001           [024] call       8   2   2  
1EDE  52010004           [025] move       5   8      
1EE2  1DC20100           [026] getglobal  8   7        ; 2083004503
1EE6  52028002           [027] move       9   5      
1EEA  22820001           [028] call       8   2   2  
1EEE  92010004           [029] move       6   8      
1EF2  24024200           [030] self       8   0   264  ; 1909117327
1EF6  22820001           [031] call       8   2   2  
1EFA  5D020100           [032] getglobal  9   4        ; 1074689893
1EFE  92020004           [033] move       10  8      
1F02  62820001           [034] call       9   2   2  
1F06  58420000           [035] test       9       1    ; to [37] if false
1F0A  1AC00180           [036] jmp        8            ; to [45]
1F0E  59420200           [037] loadk      9   9        ; 0
1F12  8A020004           [038] len        10  8      
1F16  D9420200           [039] loadk      11  9        ; 0
1F1A  50820080           [040] forprep    9   3        ; to [44]
1F1E  64834200           [041] self       13  0   266  ; -686100378
1F22  CE030304           [042] gettable   15  8   12 
1F26  62438001           [043] call       13  3   1  
1F2A  54C2FE7F           [044] forloop    9   -4       ; to [41] if loop
1F2E  64C3C200           [045] self       13  1   267  ; 828278287
1F32  62830001           [046] call       13  2   2  
1F36  58030000           [047] test       13      0    ; to [49] if true
1F3A  1A800080           [048] jmp        3            ; to [52]
1F3E  64034300           [049] self       13  0   268  ; 1577770468
1F42  D2038000           [050] move       15  1      
1F46  62438001           [051] call       13  3   1  
1F4A  46038006           [052] loadnil    13  13     
1F4E  9D030100           [053] getglobal  14  4        ; 1074689893
1F52  D2030003           [054] move       15  6      
1F56  A2830001           [055] call       14  2   2  
1F5A  98430000           [056] test       14      1    ; to [58] if false
1F5E  1A800580           [057] jmp        23           ; to [81]
1F62  A4434303           [058] self       14  6   269  ; 1512339447
1F66  A2830001           [059] call       14  2   2  
1F6A  52030007           [060] move       13  14     
1F6E  A4834300           [061] self       14  0   270  ; 1728877662
1F72  19440200           [062] loadk      16  9        ; 0
1F76  64C44303           [063] self       17  6   271  ; 1788830577
1F7A  62840001           [064] call       17  2   2  
1F7E  97040000           [065] loadbool   18  0   0    ; false
1F82  A2438002           [066] call       14  5   1  
1F86  A4034403           [067] self       14  6   272  ; 966250678
1F8A  A2830001           [068] call       14  2   2  
1F8E  12020007           [069] move       8   14     
1F92  99430200           [070] loadk      14  9        ; 0
1F96  CA030004           [071] len        15  8      
1F9A  19440200           [072] loadk      16  9        ; 0
1F9E  90830080           [073] forprep    14  3        ; to [77]
1FA2  A4444400           [074] self       18  0   273  ; -134581224
1FA6  0E450404           [075] gettable   20  8   17 
1FAA  A2448001           [076] call       18  3   1  
1FAE  94C3FE7F           [077] forloop    14  -4       ; to [74] if loop
1FB2  A4844400           [078] self       18  0   274  ; 790557423
1FB6  12050004           [079] move       20  8      
1FBA  A2448001           [080] call       18  3   1  
1FBE  9D040100           [081] getglobal  18  4        ; 1074689893
1FC2  D2048006           [082] move       19  13     
1FC6  A2840001           [083] call       18  2   2  
1FCA  98040000           [084] test       18      0    ; to [86] if true
1FCE  1AC00180           [085] jmp        8            ; to [94]
1FD2  9D040100           [086] getglobal  18  4        ; 1074689893
1FD6  D2048003           [087] move       19  7      
1FDA  A2840001           [088] call       18  2   2  
1FDE  98440000           [089] test       18      1    ; to [91] if false
1FE2  1A800080           [090] jmp        3            ; to [94]
1FE6  A4C4C403           [091] self       18  7   275  ; -1298130151
1FEA  A2840001           [092] call       18  2   2  
1FEE  52030009           [093] move       13  18     
1FF2  9D040100           [094] getglobal  18  4        ; 1074689893
1FF6  D2048006           [095] move       19  13     
1FFA  A2840001           [096] call       18  2   2  
1FFE  98440000           [097] test       18      1    ; to [99] if false
2002  1AC00480           [098] jmp        20           ; to [119]
2006  8B040000           [099] newtable   18  0   0    ; array=0, hash=0
200A  E404C506           [100] self       19  13  276  ; 455421500
200E  E2040001           [101] call       19  2   0  
2012  9B440000           [102] setlist    18  0   1    ; index 1 to top
2016  DD440500           [103] getglobal  19  21       ; UISys
201A  CE84C509           [104] gettable   19  19  278  ; 1151030240
201E  12050009           [105] move       20  18     
2022  E2840001           [106] call       19  2   2  
2026  1D050100           [107] getglobal  20  4        ; 1074689893
202A  52058009           [108] move       21  19     
202E  22850001           [109] call       20  2   2  
2032  18450000           [110] test       20      1    ; to [112] if false
2036  1A400080           [111] jmp        2            ; to [114]
203A  24C5C509           [112] self       20  19  279  ; 1712703828
203E  22450001           [113] call       20  2   1  
2042  24054600           [114] self       20  0   280  ; 919598577
2046  92058006           [115] move       22  13     
204A  D7050000           [116] loadbool   23  0   0    ; false
204E  17060000           [117] loadbool   24  0   0    ; false
2052  22458002           [118] call       20  5   1  
2056  2445C601           [119] self       20  3   281  ; 979293742
205A  9D850600           [120] getglobal  22  26       ; Lotus_Game
205E  8EC5460B           [121] gettable   22  22  283  ; "EnergyColor"
2062  22858001           [122] call       20  3   2  
2066  18050000           [123] test       20      0    ; to [125] if true
206A  1A400480           [124] jmp        18           ; to [143]
206E  2445C601           [125] self       20  3   281  ; 979293742
2072  9D850600           [126] getglobal  22  26       ; Lotus_Game
2076  8E05470B           [127] gettable   22  22  284  ; "EmissiveColor0"
207A  22858001           [128] call       20  3   2  
207E  18450000           [129] test       20      1    ; to [131] if false
2082  1AC00280           [130] jmp        12           ; to [143]
2086  2445C701           [131] self       20  3   285  ; -1881992366
208A  9D850600           [132] getglobal  22  26       ; Lotus_Game
208E  8E05470B           [133] gettable   22  22  284  ; "EmissiveColor0"
2092  DD850700           [134] getglobal  23  30       ; -1247440829
2096  0EC6C701           [135] gettable   24  3   287  ; "mEnergyColor"
209A  E2050001           [136] call       23  2   0  
209E  22450000           [137] call       20  0   1  
20A2  2405C801           [138] self       20  3   288  ; -1037856321
20A6  9D850600           [139] getglobal  22  26       ; Lotus_Game
20AA  8E05470B           [140] gettable   22  22  284  ; "EmissiveColor0"
20AE  D7058000           [141] loadbool   23  1   0    ; true
20B2  22450002           [142] call       20  4   1  
20B6  1D850600           [143] getglobal  20  26       ; Lotus_Game
20BA  0E45480A           [144] gettable   20  20  289  ; 724717559
20BE  52050000           [145] move       21  0      
20C2  92058001           [146] move       22  3      
20C6  D7058000           [147] loadbool   23  1   0    ; true
20CA  22450002           [148] call       20  4   1  
20CE  1D850800           [149] getglobal  20  34       ; 538022378
20D2  59C50800           [150] loadk      21  35       ; 0
20D6  22450001           [151] call       20  2   1  
20DA  24054900           [152] self       20  0   292  ; 366271214
20DE  9D450900           [153] getglobal  22  37       ; gEntityType
20E2  22858001           [154] call       20  3   2  
20E6  53050000           [155] getupval   21  0      
20EA  92050000           [156] move       22  0      
20EE  D2058001           [157] move       23  3      
20F2  62858001           [158] call       21  3   2  
20F6  99450200           [159] loadk      22  9        ; 0
20FA  CA05000A           [160] len        23  20     
20FE  19460200           [161] loadk      24  9        ; 0
2102  90C50080           [162] forprep    22  4        ; to [167]
2106  93068000           [163] getupval   26  1      
210A  CE46060A           [164] gettable   27  20  25 
210E  1207800A           [165] move       28  21     
2112  A2468001           [166] call       26  3   1  
2116  9485FE7F           [167] forloop    22  -5       ; to [163] if loop
211A  1E008000           [168] return     0   1      
                         * constants:
211E  26                 sizek (38)
211F  01                 const type 3
2120  2D7BA6AF           const [0]: (-1348043987)
2124  04                 const type 4
2125  08                 string size (8)
2126  6D436F6C6F727300   "mColors\0"
                         const [1]: "mColors"
212E  04                 const type 4
212F  11                 string size (17)
2130  6D536B696E466C61+  "mSkinFla"
2138  766F75724974656D+  "vourItem"
2140  00                 "\0"
                         const [2]: "mSkinFlavourItem"
2141  01                 const type 3
2142  2B0AC605           const [3]: (96864811)
2146  01                 const type 3
2147  65770E40           const [4]: (1074689893)
214B  01                 const type 3
214C  6A23BCD1           const [5]: (-776199318)
2150  01                 const type 3
2151  BB3AA4CA           const [6]: (-895206725)
2155  01                 const type 3
2156  5720287C           const [7]: (2083004503)
215A  01                 const type 3
215B  8FD1CA71           const [8]: (1909117327)
215F  03                 const type 3
2160  0000803F           const [9]: (0)
2164  01                 const type 3
2165  66F01AD7           const [10]: (-686100378)
2169  01                 const type 3
216A  0F865E31           const [11]: (828278287)
216E  01                 const type 3
216F  E4DD0A5E           const [12]: (1577770468)
2173  01                 const type 3
2174  F777245A           const [13]: (1512339447)
2178  01                 const type 3
2179  5E940C67           const [14]: (1728877662)
217D  01                 const type 3
217E  71639F6A           const [15]: (1788830577)
2182  01                 const type 3
2183  B6D09739           const [16]: (966250678)
2187  01                 const type 3
2188  1874FAF7           const [17]: (-134581224)
218C  01                 const type 3
218D  EFF21E2F           const [18]: (790557423)
2191  01                 const type 3
2192  191BA0B2           const [19]: (-1298130151)
2196  01                 const type 3
2197  3C2E251B           const [20]: (455421500)
219B  04                 const type 4
219C  06                 string size (6)
219D  554953797300       "UISys\0"
                         const [21]: "UISys"
21A3  01                 const type 3
21A4  E0539B44           const [22]: (1151030240)
21A8  01                 const type 3
21A9  54C91566           const [23]: (1712703828)
21AD  01                 const type 3
21AE  F1F5CF36           const [24]: (919598577)
21B2  01                 const type 3
21B3  2ED65E3A           const [25]: (979293742)
21B7  04                 const type 4
21B8  0B                 string size (11)
21B9  4C6F7475735F4761+  "Lotus_Ga"
21C1  6D6500             "me\0"
                         const [26]: "Lotus_Game"
21C4  04                 const type 4
21C5  0C                 string size (12)
21C6  456E65726779436F+  "EnergyCo"
21CE  6C6F7200           "lor\0"
                         const [27]: "EnergyColor"
21D2  04                 const type 4
21D3  0F                 string size (15)
21D4  456D697373697665+  "Emissive"
21DC  436F6C6F723000     "Color0\0"
                         const [28]: "EmissiveColor0"
21E3  01                 const type 3
21E4  5213D38F           const [29]: (-1881992366)
21E8  01                 const type 3
21E9  4390A5B5           const [30]: (-1247440829)
21ED  04                 const type 4
21EE  0D                 string size (13)
21EF  6D456E6572677943+  "mEnergyC"
21F7  6F6C6F7200         "olor\0"
                         const [31]: "mEnergyColor"
21FC  01                 const type 3
21FD  BF9123C2           const [32]: (-1037856321)
2201  01                 const type 3
2202  F74F322B           const [33]: (724717559)
2206  01                 const type 3
2207  EA911120           const [34]: (538022378)
220B  03                 const type 3
220C  00000000           const [35]: (0)
2210  01                 const type 3
2211  EEDAD415           const [36]: (366271214)
2215  04                 const type 4
2216  0C                 string size (12)
2217  67456E7469747954+  "gEntityT"
221F  79706500           "ype\0"
                         const [37]: "gEntityType"
                         * functions:
2223  00                 sizep (0)
                         * lines:
2225  01                 sizelineinfo (168)
                         [pc] (line)
2226  25                 [001] (37)
2227  01                 [002] (37)
2228  00                 [003] (38)
2229  00                 [004] (39)
222A  25                 [005] (40)
222B  01                 [006] (43)
222C  00                 [007] (43)
222D  00                 [008] (45)
222E  26                 [009] (45)
222F  01                 [010] (45)
2230  00                 [011] (45)
2231  00                 [012] (45)
2232  27                 [013] (46)
2233  01                 [014] (46)
2234  00                 [015] (46)
2235  00                 [016] (46)
2236  28                 [017] (46)
2237  01                 [018] (47)
2238  00                 [019] (47)
2239  00                 [020] (47)
223A  2B                 [021] (48)
223B  01                 [022] (50)
223C  00                 [023] (50)
223D  00                 [024] (50)
223E  2B                 [025] (50)
223F  01                 [026] (51)
2240  00                 [027] (51)
2241  00                 [028] (51)
2242  2D                 [029] (51)
2243  01                 [030] (55)
2244  00                 [031] (55)
2245  00                 [032] (56)
2246  2D                 [033] (56)
2247  01                 [034] (56)
2248  00                 [035] (56)
2249  00                 [036] (56)
224A  2D                 [037] (57)
224B  01                 [038] (57)
224C  00                 [039] (57)
224D  00                 [040] (57)
224E  2D                 [041] (58)
224F  01                 [042] (58)
2250  00                 [043] (58)
2251  00                 [044] (57)
2252  2D                 [045] (62)
2253  01                 [046] (62)
2254  00                 [047] (62)
2255  00                 [048] (62)
2256  2E                 [049] (63)
2257  01                 [050] (63)
2258  00                 [051] (63)
2259  00                 [052] (66)
225A  2E                 [053] (67)
225B  01                 [054] (67)
225C  00                 [055] (67)
225D  00                 [056] (67)
225E  2E                 [057] (67)
225F  01                 [058] (68)
2260  00                 [059] (68)
2261  00                 [060] (68)
2262  2E                 [061] (69)
2263  01                 [062] (69)
2264  00                 [063] (69)
2265  00                 [064] (69)
2266  2E                 [065] (69)
2267  01                 [066] (69)
2268  00                 [067] (70)
2269  00                 [068] (70)
226A  2F                 [069] (70)
226B  01                 [070] (71)
226C  00                 [071] (71)
226D  00                 [072] (71)
226E  2F                 [073] (71)
226F  01                 [074] (72)
2270  00                 [075] (72)
2271  00                 [076] (72)
2272  2F                 [077] (71)
2273  01                 [078] (74)
2274  00                 [079] (74)
2275  00                 [080] (74)
2276  30                 [081] (77)
2277  01                 [082] (77)
2278  00                 [083] (77)
2279  00                 [084] (77)
227A  32                 [085] (77)
227B  01                 [086] (77)
227C  00                 [087] (77)
227D  00                 [088] (77)
227E  32                 [089] (77)
227F  01                 [090] (77)
2280  00                 [091] (78)
2281  00                 [092] (78)
2282  32                 [093] (78)
2283  01                 [094] (81)
2284  00                 [095] (81)
2285  00                 [096] (81)
2286  32                 [097] (81)
2287  01                 [098] (81)
2288  00                 [099] (82)
2289  00                 [100] (82)
228A  33                 [101] (82)
228B  01                 [102] (82)
228C  00                 [103] (83)
228D  00                 [104] (83)
228E  33                 [105] (83)
228F  01                 [106] (83)
2290  00                 [107] (84)
2291  00                 [108] (84)
2292  33                 [109] (84)
2293  01                 [110] (84)
2294  00                 [111] (84)
2295  00                 [112] (85)
2296  33                 [113] (85)
2297  01                 [114] (87)
2298  00                 [115] (87)
2299  00                 [116] (87)
229A  37                 [117] (87)
229B  01                 [118] (87)
229C  00                 [119] (91)
229D  00                 [120] (91)
229E  37                 [121] (91)
229F  01                 [122] (91)
22A0  00                 [123] (91)
22A1  00                 [124] (91)
22A2  38                 [125] (91)
22A3  01                 [126] (91)
22A4  00                 [127] (91)
22A5  00                 [128] (91)
22A6  38                 [129] (91)
22A7  01                 [130] (91)
22A8  00                 [131] (92)
22A9  00                 [132] (92)
22AA  38                 [133] (92)
22AB  01                 [134] (92)
22AC  00                 [135] (92)
22AD  00                 [136] (92)
22AE  38                 [137] (92)
22AF  01                 [138] (93)
22B0  00                 [139] (93)
22B1  00                 [140] (93)
22B2  38                 [141] (93)
22B3  01                 [142] (93)
22B4  00                 [143] (95)
22B5  00                 [144] (95)
22B6  39                 [145] (95)
22B7  01                 [146] (95)
22B8  00                 [147] (95)
22B9  00                 [148] (95)
22BA  39                 [149] (96)
22BB  01                 [150] (96)
22BC  00                 [151] (96)
22BD  00                 [152] (97)
22BE  39                 [153] (97)
22BF  01                 [154] (97)
22C0  00                 [155] (98)
22C1  00                 [156] (98)
22C2  39                 [157] (98)
22C3  01                 [158] (98)
22C4  00                 [159] (99)
22C5  00                 [160] (99)
22C6  3A                 [161] (99)
22C7  01                 [162] (99)
22C8  00                 [163] (100)
22C9  00                 [164] (100)
22CA  3A                 [165] (100)
22CB  01                 [166] (100)
22CC  00                 [167] (99)
22CD  00                 [168] (102)
                         * locals:
24C6  00                 sizelocvars (0)
                         * upvalues:
24C7  00                 sizeupvalues (0)
                         ** end of function **

                         * lines:
24C8  29                 sizelineinfo (41)
                         [pc] (line)
24C9  01                 [01] (1)
24CA  00                 [02] (1)
24CB  00                 [03] (1)
24CC  00                 [04] (1)
24CD  01                 [05] (1)
24CE  00                 [06] (5)
24CF  00                 [07] (5)
24D0  00                 [08] (5)
24D1  01                 [09] (6)
24D2  00                 [10] (6)
24D3  00                 [11] (6)
24D4  00                 [12] (8)
24D5  01                 [13] (8)
24D6  00                 [14] (8)
24D7  00                 [15] (27)
24D8  00                 [16] (27)
24D9  01                 [17] (47)
24DA  00                 [18] (81)
24DB  00                 [19] (81)
24DC  00                 [20] (81)
24DD  05                 [21] (-121)
24DE  00                 [22] (-121)
24DF  00                 [23] (-121)
24E0  00                 [24] (-121)
24E1  05                 [25] (83)
24E2  00                 [26] (7)
24E3  00                 [27] (7)
24E4  00                 [28] (7)
24E5  05                 [29] (7)
24E6  00                 [30] (-119)
24E7  00                 [31] (34)
24E8  00                 [32] (34)
24E9  06                 [33] (34)
24EA  00                 [34] (34)
24EB  00                 [35] (9)
24EC  00                 [36] (102)
24ED  06                 [37] (102)
24EE  00                 [38] (102)
24EF  00                 [39] (102)
24F0  00                 [40] (36)
24F1  06                 [41] (102)
                         * locals:
256D  00                 sizelocvars (0)
                         * upvalues:
256E  00                 sizeupvalues (0)
                         ** end of function **

256F                     ** end of chunk **
