1	C:\wlua_dump\path\Lotus\ScriptsCinematicSetup.lua
Pos   Hex Data           Description or Code
------------------------------------------------------------------------
0000                     ** source chunk: C:\wlua_dump\path\Lotus\ScriptsCinematicSetup.lua
                         ** global header start **
0000  7F                 header signature: ""
0001  00                 version (major:minor hex digits)
0002  00                 format (0=official)
0003  00                 endianness (1=little endian)
0004  00                 size of int (bytes)
0005  00                 size of size_t (bytes)
0006  02                 size of Instruction (bytes)
0007  02                 size of number (bytes)
0008  0B                 integral (1=integral)
411
                         * number type: single
                         * x86 standard (32-bit, little endian, doubles)
                         ** global header end **
Lotus.Interface.LotusUtilities
ShipSetup
FactionShipSetup
gRegion
Player1
Player2
Player3
Player4
Player5
Player6
Player7
Player8
table
HIDDEN_PLAYER_NAME
gRegion
Level=
string
Derelict
DerelictShipMeshes
Infested
InfestedShipMeshes
GrineerAsteroid
GrineerAssMeshes
Ocean
GrineerOceanMeshes
Grineer
GrineerShipMeshes
Corpus
CorpusShipMeshes
OrokinTower
VoidShipMeshes
FactionShipSetup - No mesh
UISys
                         
0001                     ** function [0] definition (level 1)
                         ** start of function **
0001  00                 string size (0)
                         source name: (none)
0002  00                 line defined (0)
0003  00                 last line defined (0)
0004  00                 nups (0)
0005  00                 numparams (0)
0006  02                 is_vararg (2)
0007  02                 maxstacksize (2)
                         * code:
0008  0B                 sizecode (11)
0009  1D000000           [01] getglobal  0   0        ; 849075268
000D  59400000           [02] loadk      1   1        ; "Lotus.Interface.LotusUtilities"
0011  22800001           [03] call       0   2   2  
0015  65000000           [04] closure    1   0      
0019  12000000           [05] move       0   0      
001D  60800000           [06] setglobal  1   2        ; ShipSetup
0021  60C00000           [07] setglobal  1   3        ; 789326184
0025  65400000           [08] closure    1   1      
0029  60000100           [09] setglobal  1   4        ; FactionShipSetup
002D  60400100           [10] setglobal  1   5        ; 363830605
0031  1E008000           [11] return     0   1      
                         * constants:
0035  06                 sizek (6)
0036  01                 const type 3
0037  44DC9B32           const [0]: (849075268)
003B  04                 const type 4
003C  1F                 string size (31)
003D  4C6F7475732E496E+  "Lotus.In"
0045  746572666163652E+  "terface."
004D  4C6F747573557469+  "LotusUti"
0055  6C697469657300     "lities\0"
                         const [1]: "Lotus.Interface.LotusUtilities"
005C  04                 const type 4
005D  0A                 string size (10)
005E  5368697053657475+  "ShipSetu"
0066  7000               "p\0"
                         const [2]: "ShipSetup"
0068  01                 const type 3
0069  68290C2F           const [3]: (789326184)
006D  04                 const type 4
006E  11                 string size (17)
006F  46616374696F6E53+  "FactionS"
0077  6869705365747570+  "hipSetup"
007F  00                 "\0"
                         const [4]: "FactionShipSetup"
0080  01                 const type 3
0081  4D9DAF15           const [5]: (363830605)
                         * functions:
0085  02                 sizep (2)
                         
0086                     ** function [0] definition (level 2)
                         ** start of function **
0086  00                 string size (0)
                         source name: (none)
0087  0B                 line defined (11)
0088  52                 last line defined (82)
0089  01                 nups (1)
008A  00                 numparams (0)
008B  00                 is_vararg (0)
008C  1F                 maxstacksize (31)
                         * code:
008E  01                 sizecode (147)
008F  1D000000           [001] getglobal  0   0        ; gRegion
0093  24404000           [002] self       0   0   257  ; 1224466847
0097  22800001           [003] call       0   2   2  
009B  4B008003           [004] newtable   1   7   0    ; array=7, hash=0
009F  9D800000           [005] getglobal  2   2        ; -332969190
00A3  D9C00000           [006] loadk      3   3        ; "Player1"
00A7  A2800001           [007] call       2   2   2  
00AB  DD800000           [008] getglobal  3   2        ; -332969190
00AF  19010100           [009] loadk      4   4        ; "Player2"
00B3  E2800001           [010] call       3   2   2  
00B7  1D810000           [011] getglobal  4   2        ; -332969190
00BB  59410100           [012] loadk      5   5        ; "Player3"
00BF  22810001           [013] call       4   2   2  
00C3  5D810000           [014] getglobal  5   2        ; -332969190
00C7  99810100           [015] loadk      6   6        ; "Player4"
00CB  62810001           [016] call       5   2   2  
00CF  9D810000           [017] getglobal  6   2        ; -332969190
00D3  D9C10100           [018] loadk      7   7        ; "Player5"
00D7  A2810001           [019] call       6   2   2  
00DB  DD810000           [020] getglobal  7   2        ; -332969190
00DF  19020200           [021] loadk      8   8        ; "Player6"
00E3  E2810001           [022] call       7   2   2  
00E7  1D820000           [023] getglobal  8   2        ; -332969190
00EB  59420200           [024] loadk      9   9        ; "Player7"
00EF  22820001           [025] call       8   2   2  
00F3  5D820000           [026] getglobal  9   2        ; -332969190
00F7  99820200           [027] loadk      10  10       ; "Player8"
00FB  62020001           [028] call       9   2   0  
00FF  5B400000           [029] setlist    1   0   1    ; index 1 to top
0103  8B000000           [030] newtable   2   0   0    ; array=0, hash=0
0107  D9C00200           [031] loadk      3   11       ; 0
010B  0A018000           [032] len        4   1      
010F  59C10200           [033] loadk      5   11       ; 0
0113  D0800480           [034] forprep    3   19       ; to [54]
0117  DD010000           [035] getglobal  7   0        ; gRegion
011B  E401C303           [036] self       7   7   268  ; -1485896174
011F  4E828100           [037] gettable   9   1   6  
0123  E2818001           [038] call       7   3   2  
0127  1D420300           [039] getglobal  8   13       ; 1074689893
012B  52028003           [040] move       9   7      
012F  22820001           [041] call       8   2   2  
0133  18420000           [042] test       8       1    ; to [44] if false
0137  1A400280           [043] jmp        10           ; to [54]
013B  0EC2C203           [044] gettable   8   7   267  ; 0
013F  24824304           [045] self       8   8   270  ; 2109594123
0143  97020000           [046] loadbool   10  0   0    ; false
0147  D7028000           [047] loadbool   11  1   0    ; true
014B  22420002           [048] call       8   4   1  
014F  1DC20300           [049] getglobal  8   15       ; table
0153  0E024404           [050] gettable   8   8   272  ; -431682403
0157  52020001           [051] move       9   2      
015B  8EC2C203           [052] gettable   10  7   267  ; 0
015F  22428001           [053] call       8   3   1  
0163  D4C0FA7F           [054] forloop    3   -20      ; to [35] if loop
0167  1DC20300           [055] getglobal  8   15       ; table
016B  0E424404           [056] gettable   8   8   273  ; -1513783280
016F  52020001           [057] move       9   2      
0173  A5020000           [058] closure    10  0      
0177  22428001           [059] call       8   3   1  
017B  19820400           [060] loadk      8   18       ; 0
017F  59C20400           [061] loadk      9   19       ; 0
0183  9D020500           [062] getglobal  10  20       ; 1672515847
0187  D2020000           [063] move       11  0      
018B  A2020101           [064] call       10  2   4  
018F  1A400380           [065] jmp        14           ; to [80]
fail op	21
0193  15008204           [066] concat     0   9   8  
0197  1AC00280           [067] jmp        12           ; to [80]
019B  DD430300           [068] getglobal  15  13       ; 1074689893
019F  12040007           [069] move       16  14     
01A3  E2830001           [070] call       15  2   2  
01A7  D8430000           [071] test       15      1    ; to [73] if false
01AB  1A800180           [072] jmp        7            ; to [80]
01AF  E4434507           [073] self       15  14  277  ; 340404473
01B3  E2830001           [074] call       15  2   2  
01B7  13040000           [075] getupval   16  0      
01BB  0E844508           [076] gettable   16  16  278  ; "HIDDEN_PLAYER_NAME"
fail op	35
01BF  63008407           [077] close      1  
01C3  1A000080           [078] jmp        1            ; to [80]
01C7  43C2C204           [079] add        9   9   267  ; 0
01CB  96820000           [080] tforloop   10      2    ; to [82] if exit
01CF  1AC0FB7F           [081] jmp        -16          ; to [66]
01D3  D9C30200           [082] loadk      15  11       ; 0
01D7  12048004           [083] move       16  9      
01DB  59C40200           [084] loadk      17  11       ; 0
01DF  D0430280           [085] forprep    15  10       ; to [96]
01E3  CE840401           [086] gettable   19  2   18 
01E7  1D450300           [087] getglobal  20  13       ; 1074689893
01EB  52058009           [088] move       21  19     
01EF  22850001           [089] call       20  2   2  
01F3  18450000           [090] test       20      1    ; to [92] if false
01F7  1AC00080           [091] jmp        4            ; to [96]
01FB  2485C309           [092] self       20  19  270  ; 2109594123
01FF  97058000           [093] loadbool   22  1   0    ; true
0203  D7058000           [094] loadbool   23  1   0    ; true
0207  22450002           [095] call       20  4   1  
020B  D403FD7F           [096] forloop    15  -11      ; to [86] if loop
020F  1D050000           [097] getglobal  20  0        ; gRegion
0213  24C5450A           [098] self       20  20  279  ; 2066713391
0217  22850001           [099] call       20  2   2  
021B  5D450300           [100] getglobal  21  13       ; 1074689893
021F  9205000A           [101] move       22  20     
0223  62850001           [102] call       21  2   2  
fail op	9
0227  8905800A           [103] settable   22  21  0  
022B  58450000           [104] test       21      1    ; to [106] if false
022F  1A400080           [105] jmp        2            ; to [108]
0233  98050000           [106] test       22      0    ; to [108] if true
0237  1A400680           [107] jmp        26           ; to [134]
023B  58050000           [108] test       21      0    ; to [110] if true
023F  1AC00180           [109] jmp        8            ; to [118]
0243  DD050000           [110] getglobal  23  0        ; gRegion
0247  E4C5C50B           [111] self       23  23  279  ; 2066713391
024B  E2850001           [112] call       23  2   2  
024F  1205800B           [113] move       20  23     
0253  DD450300           [114] getglobal  23  13       ; 1074689893
0257  1206000A           [115] move       24  20     
025B  E2850001           [116] call       23  2   2  
025F  5205800B           [117] move       21  23     
0263  58450000           [118] test       21      1    ; to [120] if false
0267  1A400280           [119] jmp        10           ; to [130]
026B  DD050000           [120] getglobal  23  0        ; gRegion
026F  E4C5C50B           [121] self       23  23  279  ; 2066713391
0273  E2850001           [122] call       23  2   2  
0277  1D460300           [123] getglobal  24  13       ; 1074689893
027B  5206800B           [124] move       25  23     
027F  22860001           [125] call       24  2   2  
fail op	9
0283  8905000C           [126] settable   22  24  0  
fail op	35
0287  6300850B           [127] close      1  
028B  1A000080           [128] jmp        1            ; to [130]
028F  1AC00080           [129] jmp        4            ; to [134]
0293  1D060600           [130] getglobal  24  24       ; 538022378
0297  59C60400           [131] loadk      25  19       ; 0
029B  22460001           [132] call       24  2   1  
029F  1A40F87F           [133] jmp        -30          ; to [104]
02A3  1D060500           [134] getglobal  24  20       ; 1672515847
02A7  52060001           [135] move       25  2      
02AB  22060101           [136] call       24  2   4  
02AF  1A800180           [137] jmp        7            ; to [145]
02B3  5D470300           [138] getglobal  29  13       ; 1074689893
02B7  9207000E           [139] move       30  28     
02BB  62870001           [140] call       29  2   2  
02BF  58470000           [141] test       29      1    ; to [143] if false
02C3  1A400080           [142] jmp        2            ; to [145]
02C7  6447460E           [143] self       29  28  281  ; -1691371893
02CB  62470001           [144] call       29  2   1  
02CF  16860000           [145] tforloop   24      2    ; to [147] if exit
02D3  1A80FD7F           [146] jmp        -9           ; to [138]
02D7  1E008000           [147] return     0   1      
                         * constants:
02DB  1A                 sizek (26)
02DC  04                 const type 4
02DD  08                 string size (8)
02DE  67526567696F6E00   "gRegion\0"
                         const [0]: "gRegion"
02E6  01                 const type 3
02E7  9FE1FB48           const [1]: (1224466847)
02EB  01                 const type 3
02EC  1A4B27EC           const [2]: (-332969190)
02F0  04                 const type 4
02F1  08                 string size (8)
02F2  506C617965723100   "Player1\0"
                         const [3]: "Player1"
02FA  04                 const type 4
02FB  08                 string size (8)
02FC  506C617965723200   "Player2\0"
                         const [4]: "Player2"
0304  04                 const type 4
0305  08                 string size (8)
0306  506C617965723300   "Player3\0"
                         const [5]: "Player3"
030E  04                 const type 4
030F  08                 string size (8)
0310  506C617965723400   "Player4\0"
                         const [6]: "Player4"
0318  04                 const type 4
0319  08                 string size (8)
031A  506C617965723500   "Player5\0"
                         const [7]: "Player5"
0322  04                 const type 4
0323  08                 string size (8)
0324  506C617965723600   "Player6\0"
                         const [8]: "Player6"
032C  04                 const type 4
032D  08                 string size (8)
032E  506C617965723700   "Player7\0"
                         const [9]: "Player7"
0336  04                 const type 4
0337  08                 string size (8)
0338  506C617965723800   "Player8\0"
                         const [10]: "Player8"
0340  03                 const type 3
0341  0000803F           const [11]: (0)
0345  01                 const type 3
0346  12066FA7           const [12]: (-1485896174)
034A  01                 const type 3
034B  65770E40           const [13]: (1074689893)
034F  01                 const type 3
0350  0BDABD7D           const [14]: (2109594123)
0354  04                 const type 4
0355  06                 string size (6)
0356  7461626C6500       "table\0"
                         const [15]: "table"
035C  01                 const type 3
035D  9D0C45E6           const [16]: (-431682403)
0361  01                 const type 3
0362  1080C5A5           const [17]: (-1513783280)
0366  03                 const type 3
0367  00000041           const [18]: (0)
036B  03                 const type 3
036C  00000000           const [19]: (0)
0370  01                 const type 3
0371  0791B063           const [20]: (1672515847)
0375  01                 const type 3
0376  F9284A14           const [21]: (340404473)
037A  04                 const type 4
037B  13                 string size (19)
037C  48494444454E5F50+  "HIDDEN_P"
0384  4C415945525F4E41+  "LAYER_NA"
038C  4D4500             "ME\0"
                         const [22]: "HIDDEN_PLAYER_NAME"
038F  01                 const type 3
0390  2F8B2F7B           const [23]: (2066713391)
0394  01                 const type 3
0395  EA911120           const [24]: (538022378)
0399  01                 const type 3
039A  8BB62F9B           const [25]: (-1691371893)
                         * functions:
039E  01                 sizep (1)
                         
039F                     ** function [0] definition (level 3)
                         ** start of function **
039F  00                 string size (0)
                         source name: (none)
03A0  1A                 line defined (26)
03A1  27                 last line defined (39)
03A2  00                 nups (0)
03A3  02                 numparams (2)
03A4  00                 is_vararg (0)
03A5  07                 maxstacksize (7)
                         * code:
03A6  1D                 sizecode (29)
03A7  9D000000           [01] getglobal  2   0        ; 1074689893
03AB  E4404000           [02] self       3   0   257  ; 96864811
03AF  E2000001           [03] call       3   2   0  
03B3  A2800000           [04] call       2   0   2  
fail op	9
03B7  89000001           [05] settable   2   2   0  
03BB  DD000000           [06] getglobal  3   0        ; 1074689893
03BF  2441C000           [07] self       4   1   257  ; 96864811
03C3  22010001           [08] call       4   2   0  
03C7  E2800000           [09] call       3   0   2  
fail op	9
03CB  C9008001           [10] settable   3   3   0  
fail op	35
03CF  63C00001           [11] close      1  
03D3  1A800180           [12] jmp        7            ; to [20]
03D7  98000000           [13] test       2       0    ; to [15] if true
03DB  1A800080           [14] jmp        3            ; to [18]
03DF  17018000           [15] loadbool   4   1   0    ; true
03E3  1E010001           [16] return     4   2      
03E7  1A400080           [17] jmp        2            ; to [20]
03EB  17010000           [18] loadbool   4   0   0    ; false
03EF  1E010001           [19] return     4   2      
03F3  24814000           [20] self       4   0   258  ; -605089866
03F7  22810001           [21] call       4   2   2  
03FB  6481C000           [22] self       5   1   258  ; -605089866
03FF  62810001           [23] call       5   2   2  
fail op	21
0403  55400102           [24] concat     1   4   5  
0407  1A000080           [25] jmp        1            ; to [27]
040B  17410000           [26] loadbool   4   0   1    ; false, to [28]
040F  17018000           [27] loadbool   4   1   0    ; true
0413  1E010001           [28] return     4   2      
0417  1E008000           [29] return     0   1      
                         * constants:
041B  03                 sizek (3)
041C  01                 const type 3
041D  65770E40           const [0]: (1074689893)
0421  01                 const type 3
0422  2B0AC605           const [1]: (96864811)
0426  01                 const type 3
0427  B60FEFDB           const [2]: (-605089866)
                         * functions:
042B  00                 sizep (0)
                         * lines:
042C  1D                 sizelineinfo (29)
                         [pc] (line)
042D  1B                 [01] (27)
042E  00                 [02] (27)
042F  00                 [03] (27)
0430  00                 [04] (27)
0431  1B                 [05] (27)
0432  00                 [06] (28)
0433  00                 [07] (28)
0434  00                 [08] (28)
0435  1B                 [09] (28)
0436  00                 [10] (28)
0437  00                 [11] (30)
0438  00                 [12] (30)
0439  1B                 [13] (31)
043A  00                 [14] (31)
043B  00                 [15] (32)
043C  00                 [16] (32)
043D  1B                 [17] (32)
043E  00                 [18] (34)
043F  00                 [19] (34)
0440  00                 [20] (38)
0441  1C                 [21] (38)
0442  00                 [22] (38)
0443  00                 [23] (38)
0444  00                 [24] (38)
0445  1C                 [25] (38)
0446  00                 [26] (38)
0447  00                 [27] (38)
0448  00                 [28] (38)
0449  1C                 [29] (39)
                         * locals:
04A1  00                 sizelocvars (0)
                         * upvalues:
04A2  00                 sizeupvalues (0)
                         ** end of function **

                         * lines:
04A4  01                 sizelineinfo (147)
                         [pc] (line)
04A5  0C                 [001] (12)
04A6  00                 [002] (12)
04A7  00                 [003] (12)
04A8  00                 [004] (13)
04A9  0C                 [005] (13)
04AA  00                 [006] (13)
04AB  00                 [007] (13)
04AC  00                 [008] (13)
04AD  0C                 [009] (13)
04AE  00                 [010] (13)
04AF  00                 [011] (13)
04B0  00                 [012] (13)
04B1  0D                 [013] (13)
04B2  00                 [014] (13)
04B3  00                 [015] (13)
04B4  00                 [016] (13)
04B5  0D                 [017] (13)
04B6  00                 [018] (13)
04B7  00                 [019] (13)
04B8  00                 [020] (13)
04B9  0D                 [021] (13)
04BA  00                 [022] (13)
04BB  00                 [023] (13)
04BC  00                 [024] (13)
04BD  0D                 [025] (13)
04BE  00                 [026] (13)
04BF  00                 [027] (13)
04C0  00                 [028] (13)
04C1  0D                 [029] (13)
04C2  00                 [030] (15)
04C3  00                 [031] (16)
04C4  00                 [032] (16)
04C5  0D                 [033] (16)
04C6  00                 [034] (16)
04C7  00                 [035] (17)
04C8  00                 [036] (17)
04C9  0D                 [037] (17)
04CA  00                 [038] (17)
04CB  00                 [039] (18)
04CC  00                 [040] (18)
04CD  0D                 [041] (18)
04CE  00                 [042] (18)
04CF  00                 [043] (18)
04D0  00                 [044] (19)
04D1  0D                 [045] (19)
04D2  00                 [046] (19)
04D3  00                 [047] (19)
04D4  00                 [048] (19)
04D5  0D                 [049] (20)
04D6  00                 [050] (20)
04D7  00                 [051] (20)
04D8  00                 [052] (20)
04D9  0D                 [053] (20)
04DA  00                 [054] (16)
04DB  00                 [055] (25)
04DC  00                 [056] (25)
04DD  0D                 [057] (25)
04DE  00                 [058] (39)
04DF  00                 [059] (25)
04E0  00                 [060] (41)
04E1  0D                 [061] (42)
04E2  00                 [062] (44)
04E3  00                 [063] (44)
04E4  00                 [064] (44)
04E5  0D                 [065] (44)
04E6  00                 [066] (45)
04E7  00                 [067] (45)
04E8  00                 [068] (45)
04E9  0D                 [069] (45)
04EA  00                 [070] (45)
04EB  00                 [071] (45)
04EC  00                 [072] (45)
04ED  0D                 [073] (45)
04EE  00                 [074] (45)
04EF  00                 [075] (45)
04F0  00                 [076] (45)
04F1  0D                 [077] (45)
04F2  00                 [078] (45)
04F3  00                 [079] (46)
04F4  00                 [080] (44)
04F5  0D                 [081] (47)
04F6  00                 [082] (50)
04F7  00                 [083] (50)
04F8  00                 [084] (50)
04F9  0D                 [085] (50)
04FA  00                 [086] (51)
04FB  00                 [087] (52)
04FC  00                 [088] (52)
04FD  0D                 [089] (52)
04FE  00                 [090] (52)
04FF  00                 [091] (52)
0500  00                 [092] (53)
0501  0D                 [093] (53)
0502  00                 [094] (53)
0503  00                 [095] (53)
0504  00                 [096] (50)
0505  0D                 [097] (57)
0506  00                 [098] (57)
0507  00                 [099] (57)
0508  00                 [100] (58)
0509  0D                 [101] (58)
050A  00                 [102] (58)
050B  00                 [103] (59)
050C  00                 [104] (60)
050D  0D                 [105] (60)
050E  00                 [106] (60)
050F  00                 [107] (60)
0510  00                 [108] (61)
0511  0D                 [109] (61)
0512  00                 [110] (62)
0513  00                 [111] (62)
0514  00                 [112] (62)
0515  0D                 [113] (62)
0516  00                 [114] (63)
0517  00                 [115] (63)
0518  00                 [116] (63)
0519  0F                 [117] (63)
051A  00                 [118] (66)
051B  00                 [119] (66)
051C  00                 [120] (67)
051D  10                 [121] (67)
051E  00                 [122] (67)
051F  00                 [123] (68)
0520  00                 [124] (68)
0521  10                 [125] (68)
0522  00                 [126] (68)
0523  00                 [127] (69)
0524  00                 [128] (69)
0525  10                 [129] (70)
0526  00                 [130] (74)
0527  00                 [131] (74)
0528  00                 [132] (74)
0529  10                 [133] (74)
052A  00                 [134] (77)
052B  00                 [135] (77)
052C  00                 [136] (77)
052D  11                 [137] (77)
052E  00                 [138] (78)
052F  00                 [139] (78)
0530  00                 [140] (78)
0531  11                 [141] (78)
0532  00                 [142] (78)
0533  00                 [143] (79)
0534  00                 [144] (79)
0535  11                 [145] (77)
0536  00                 [146] (80)
0537  00                 [147] (82)
                         * locals:
06F1  00                 sizelocvars (0)
                         * upvalues:
06F2  00                 sizeupvalues (0)
                         ** end of function **

                         
06F3                     ** function [1] definition (level 2)
                         ** start of function **
06F3  00                 string size (0)
                         source name: (none)
06F4  55                 line defined (85)
06F5  8B                 last line defined (139)
06F6  01                 nups (0)
06F7  00                 numparams (1)
06F8  01                 is_vararg (0)
06F9  00                 maxstacksize (18)
                         * code:
06FC  01                 sizecode (174)
06FD  5D000000           [001] getglobal  1   0        ; gRegion
0701  6440C000           [002] self       1   1   257  ; 1250786858
0705  62800001           [003] call       1   2   2  
0709  6480C000           [004] self       1   1   258  ; 455421500
070D  62800001           [005] call       1   2   2  
0711  9DC00000           [006] getglobal  2   3        ; -1817107093
0715  D9000100           [007] loadk      3   4        ; "Level="
0719  1D410100           [008] getglobal  4   5        ; -1615931716
071D  52018000           [009] move       5   1      
0721  22810001           [010] call       4   2   2  
0725  C2008101           [011] concat     3   3   4  
0729  A2400001           [012] call       2   2   1  
072D  86000001           [013] loadnil    2   2      
0731  DD800100           [014] getglobal  3   6        ; string
0735  CEC0C101           [015] gettable   3   3   263  ; -565905820
0739  12018000           [016] move       4   1      
073D  59010200           [017] loadk      5   8        ; "Derelict"
0741  E2808001           [018] call       3   3   2  
fail op	35
0745  6340C201           [019] close      1  
0749  1AC00180           [020] jmp        8            ; to [29]
074D  DD800200           [021] getglobal  3   10       ; 2144646525
0751  19C10200           [022] loadk      4   11       ; 0
0755  5D010300           [023] getglobal  5   12       ; DerelictShipMeshes
0759  4A018002           [024] len        5   5      
075D  E2808001           [025] call       3   3   2  
0761  1D010300           [026] getglobal  4   12       ; DerelictShipMeshes
0765  8EC00002           [027] gettable   2   4   3  
0769  1A001680           [028] jmp        89           ; to [118]
076D  1D810100           [029] getglobal  4   6        ; string
0771  0EC14102           [030] gettable   4   4   263  ; -565905820
0775  52018000           [031] move       5   1      
0779  99410300           [032] loadk      6   13       ; "Infested"
077D  22818001           [033] call       4   3   2  
fail op	35
0781  63404202           [034] close      1  
0785  1AC00180           [035] jmp        8            ; to [44]
0789  1D810200           [036] getglobal  4   10       ; 2144646525
078D  59C10200           [037] loadk      5   11       ; 0
0791  9D810300           [038] getglobal  6   14       ; InfestedShipMeshes
0795  8A010003           [039] len        6   6      
0799  22818001           [040] call       4   3   2  
079D  5D810300           [041] getglobal  5   14       ; InfestedShipMeshes
07A1  8E008102           [042] gettable   2   5   4  
07A5  1A401280           [043] jmp        74           ; to [118]
07A9  5D810100           [044] getglobal  5   6        ; string
07AD  4EC1C102           [045] gettable   5   5   263  ; -565905820
07B1  92018000           [046] move       6   1      
07B5  D9C10300           [047] loadk      7   15       ; "GrineerAsteroid"
07B9  62818001           [048] call       5   3   2  
fail op	35
07BD  6340C202           [049] close      1  
07C1  1AC00180           [050] jmp        8            ; to [59]
07C5  5D810200           [051] getglobal  5   10       ; 2144646525
07C9  99C10200           [052] loadk      6   11       ; 0
07CD  DD010400           [053] getglobal  7   16       ; GrineerAssMeshes
07D1  CA018003           [054] len        7   7      
07D5  62818001           [055] call       5   3   2  
07D9  9D010400           [056] getglobal  6   16       ; GrineerAssMeshes
07DD  8E400103           [057] gettable   2   6   5  
07E1  1A800E80           [058] jmp        59           ; to [118]
07E5  9D810100           [059] getglobal  6   6        ; string
07E9  8EC14103           [060] gettable   6   6   263  ; -565905820
07ED  D2018000           [061] move       7   1      
07F1  19420400           [062] loadk      8   17       ; "Ocean"
07F5  A2818001           [063] call       6   3   2  
fail op	35
07F9  63404203           [064] close      1  
07FD  1AC00180           [065] jmp        8            ; to [74]
0801  9D810200           [066] getglobal  6   10       ; 2144646525
0805  D9C10200           [067] loadk      7   11       ; 0
0809  1D820400           [068] getglobal  8   18       ; GrineerOceanMeshes
080D  0A020004           [069] len        8   8      
0811  A2818001           [070] call       6   3   2  
0815  DD810400           [071] getglobal  7   18       ; GrineerOceanMeshes
0819  8E808103           [072] gettable   2   7   6  
081D  1AC00A80           [073] jmp        44           ; to [118]
0821  DD810100           [074] getglobal  7   6        ; string
0825  CEC1C103           [075] gettable   7   7   263  ; -565905820
0829  12028000           [076] move       8   1      
082D  59C20400           [077] loadk      9   19       ; "Grineer"
0831  E2818001           [078] call       7   3   2  
fail op	35
0835  6340C203           [079] close      1  
0839  1AC00180           [080] jmp        8            ; to [89]
083D  DD810200           [081] getglobal  7   10       ; 2144646525
0841  19C20200           [082] loadk      8   11       ; 0
0845  5D020500           [083] getglobal  9   20       ; GrineerShipMeshes
0849  4A028004           [084] len        9   9      
084D  E2818001           [085] call       7   3   2  
0851  1D020500           [086] getglobal  8   20       ; GrineerShipMeshes
0855  8EC00104           [087] gettable   2   8   7  
0859  1A000780           [088] jmp        29           ; to [118]
085D  1D820100           [089] getglobal  8   6        ; string
0861  0EC24104           [090] gettable   8   8   263  ; -565905820
0865  52028000           [091] move       9   1      
0869  99420500           [092] loadk      10  21       ; "Corpus"
086D  22828001           [093] call       8   3   2  
fail op	35
0871  63404204           [094] close      1  
0875  1AC00180           [095] jmp        8            ; to [104]
0879  1D820200           [096] getglobal  8   10       ; 2144646525
087D  59C20200           [097] loadk      9   11       ; 0
0881  9D820500           [098] getglobal  10  22       ; CorpusShipMeshes
0885  8A020005           [099] len        10  10     
0889  22828001           [100] call       8   3   2  
088D  5D820500           [101] getglobal  9   22       ; CorpusShipMeshes
0891  8E008204           [102] gettable   2   9   8  
0895  1A400380           [103] jmp        14           ; to [118]
0899  5D820100           [104] getglobal  9   6        ; string
089D  4EC2C104           [105] gettable   9   9   263  ; -565905820
08A1  92028000           [106] move       10  1      
08A5  D9C20500           [107] loadk      11  23       ; "OrokinTower"
08A9  62828001           [108] call       9   3   2  
fail op	35
08AD  6340C204           [109] close      1  
08B1  1A800180           [110] jmp        7            ; to [118]
08B5  5D820200           [111] getglobal  9   10       ; 2144646525
08B9  99C20200           [112] loadk      10  11       ; 0
08BD  DD020600           [113] getglobal  11  24       ; VoidShipMeshes
08C1  CA028005           [114] len        11  11     
08C5  62828001           [115] call       9   3   2  
08C9  9D020600           [116] getglobal  10  24       ; VoidShipMeshes
08CD  8E400205           [117] gettable   2   10  9  
08D1  9D420600           [118] getglobal  10  25       ; 1074689893
08D5  D2020001           [119] move       11  2      
08D9  A2820001           [120] call       10  2   2  
08DD  98020000           [121] test       10      0    ; to [123] if true
08E1  1AC00080           [122] jmp        4            ; to [127]
08E5  9DC20000           [123] getglobal  10  3        ; -1817107093
08E9  D9820600           [124] loadk      11  26       ; "FactionShipSetup - No mesh"
08ED  A2420001           [125] call       10  2   1  
08F1  1E008000           [126] return     0   1      
08F5  9DC20600           [127] getglobal  10  27       ; UISys
08F9  8E024705           [128] gettable   10  10  284  ; 1151030240
08FD  CB020000           [129] newtable   11  0   0    ; array=0, hash=0
0901  24834001           [130] self       12  2   258  ; 455421500
0905  22030001           [131] call       12  2   0  
0909  DB420000           [132] setlist    11  0   1    ; index 1 to top
090D  A2820001           [133] call       10  2   2  
0911  D9420700           [134] loadk      11  29       ; 0
0915  1D430600           [135] getglobal  12  25       ; 1074689893
0919  52030005           [136] move       13  10     
091D  22830001           [137] call       12  2   2  
0921  18430000           [138] test       12      1    ; to [140] if false
0925  1A800280           [139] jmp        11           ; to [151]
0929  24834705           [140] self       12  10  286  ; -1344420604
092D  22830001           [141] call       12  2   2  
0931  18430000           [142] test       12      1    ; to [144] if false
0935  1A800180           [143] jmp        7            ; to [151]
0939  1DC30700           [144] getglobal  12  31       ; 538022378
093D  59430700           [145] loadk      13  29       ; 0
0941  22430001           [146] call       12  2   1  
0945  1D030800           [147] getglobal  12  32       ; 1661359502
0949  22838000           [148] call       12  1   2  
094D  C3028305           [149] add        11  11  12 
0951  1AC0FB7F           [150] jmp        -16          ; to [135]
0955  1D430800           [151] getglobal  12  33       ; 2083004503
0959  52030001           [152] move       13  2      
095D  22830001           [153] call       12  2   2  
fail op	21
0961  15C0C205           [154] concat     0   11  267
0965  1A800080           [155] jmp        3            ; to [159]
0969  5DC30700           [156] getglobal  13  31       ; 538022378
096D  8DC38285           [157] sub        14  267 11   ; 0
0971  62430001           [158] call       13  2   1  
0975  5D430600           [159] getglobal  13  25       ; 1074689893
0979  92030000           [160] move       14  0      
097D  62830001           [161] call       13  2   2  
0981  58430000           [162] test       13      1    ; to [164] if false
0985  1A400280           [163] jmp        10           ; to [174]
0989  5D430600           [164] getglobal  13  25       ; 1074689893
098D  92030006           [165] move       14  12     
0991  62830001           [166] call       13  2   2  
0995  58430000           [167] test       13      1    ; to [169] if false
0999  1A000180           [168] jmp        5            ; to [174]
099D  64834800           [169] self       13  0   290  ; 919598577
09A1  D2030006           [170] move       15  12     
09A5  17040000           [171] loadbool   16  0   0    ; false
09A9  57040000           [172] loadbool   17  0   0    ; false
09AD  62438002           [173] call       13  5   1  
09B1  1E008000           [174] return     0   1      
                         * constants:
09B5  23                 sizek (35)
09B6  04                 const type 4
09B7  08                 string size (8)
09B8  67526567696F6E00   "gRegion\0"
                         const [0]: "gRegion"
09C0  01                 const type 3
09C1  2A7E8D4A           const [1]: (1250786858)
09C5  01                 const type 3
09C6  3C2E251B           const [2]: (455421500)
09CA  01                 const type 3
09CB  6B25B193           const [3]: (-1817107093)
09CF  04                 const type 4
09D0  07                 string size (7)
09D1  4C6576656C3D00     "Level=\0"
                         const [4]: "Level="
09D8  01                 const type 3
09D9  BCD6AE9F           const [5]: (-1615931716)
09DD  04                 const type 4
09DE  07                 string size (7)
09DF  737472696E6700     "string\0"
                         const [6]: "string"
09E6  01                 const type 3
09E7  64F644DE           const [7]: (-565905820)
09EB  04                 const type 4
09EC  09                 string size (9)
09ED  446572656C696374+  "Derelict"
09F5  00                 "\0"
                         const [8]: "Derelict"
09F6  00                 const type 0
                         const [9]: nil
09F7  01                 const type 3
09F8  7DB5D47F           const [10]: (2144646525)
09FC  03                 const type 3
09FD  0000803F           const [11]: (0)
0A01  04                 const type 4
0A02  13                 string size (19)
0A03  446572656C696374+  "Derelict"
0A0B  536869704D657368+  "ShipMesh"
0A13  657300             "es\0"
                         const [12]: "DerelictShipMeshes"
0A16  04                 const type 4
0A17  09                 string size (9)
0A18  496E666573746564+  "Infested"
0A20  00                 "\0"
                         const [13]: "Infested"
0A21  04                 const type 4
0A22  13                 string size (19)
0A23  496E666573746564+  "Infested"
0A2B  536869704D657368+  "ShipMesh"
0A33  657300             "es\0"
                         const [14]: "InfestedShipMeshes"
0A36  04                 const type 4
0A37  10                 string size (16)
0A38  4772696E65657241+  "GrineerA"
0A40  737465726F696400   "steroid\0"
                         const [15]: "GrineerAsteroid"
0A48  04                 const type 4
0A49  11                 string size (17)
0A4A  4772696E65657241+  "GrineerA"
0A52  73734D6573686573+  "ssMeshes"
0A5A  00                 "\0"
                         const [16]: "GrineerAssMeshes"
0A5B  04                 const type 4
0A5C  06                 string size (6)
0A5D  4F6365616E00       "Ocean\0"
                         const [17]: "Ocean"
0A63  04                 const type 4
0A64  13                 string size (19)
0A65  4772696E6565724F+  "GrineerO"
0A6D  6365616E4D657368+  "ceanMesh"
0A75  657300             "es\0"
                         const [18]: "GrineerOceanMeshes"
0A78  04                 const type 4
0A79  08                 string size (8)
0A7A  4772696E65657200   "Grineer\0"
                         const [19]: "Grineer"
0A82  04                 const type 4
0A83  12                 string size (18)
0A84  4772696E65657253+  "GrineerS"
0A8C  6869704D65736865+  "hipMeshe"
0A94  7300               "s\0"
                         const [20]: "GrineerShipMeshes"
0A96  04                 const type 4
0A97  07                 string size (7)
0A98  436F7270757300     "Corpus\0"
                         const [21]: "Corpus"
0A9F  04                 const type 4
0AA0  11                 string size (17)
0AA1  436F727075735368+  "CorpusSh"
0AA9  69704D6573686573+  "ipMeshes"
0AB1  00                 "\0"
                         const [22]: "CorpusShipMeshes"
0AB2  04                 const type 4
0AB3  0C                 string size (12)
0AB4  4F726F6B696E546F+  "OrokinTo"
0ABC  77657200           "wer\0"
                         const [23]: "OrokinTower"
0AC0  04                 const type 4
0AC1  0F                 string size (15)
0AC2  566F696453686970+  "VoidShip"
0ACA  4D657368657300     "Meshes\0"
                         const [24]: "VoidShipMeshes"
0AD1  01                 const type 3
0AD2  65770E40           const [25]: (1074689893)
0AD6  04                 const type 4
0AD7  1B                 string size (27)
0AD8  46616374696F6E53+  "FactionS"
0AE0  6869705365747570+  "hipSetup"
0AE8  202D204E6F206D65+  " - No me"
0AF0  736800             "sh\0"
                         const [26]: "FactionShipSetup - No mesh"
0AF3  04                 const type 4
0AF4  06                 string size (6)
0AF5  554953797300       "UISys\0"
                         const [27]: "UISys"
0AFB  01                 const type 3
0AFC  E0539B44           const [28]: (1151030240)
0B00  03                 const type 3
0B01  00000000           const [29]: (0)
0B05  01                 const type 3
0B06  04C5DDAF           const [30]: (-1344420604)
0B0A  01                 const type 3
0B0B  EA911120           const [31]: (538022378)
0B0F  01                 const type 3
0B10  8E550663           const [32]: (1661359502)
0B14  01                 const type 3
0B15  5720287C           const [33]: (2083004503)
0B19  01                 const type 3
0B1A  F1F5CF36           const [34]: (919598577)
                         * functions:
0B1E  00                 sizep (0)
                         * lines:
0B20  01                 sizelineinfo (174)
                         [pc] (line)
0B21  59                 [001] (89)
0B22  00                 [002] (89)
0B23  00                 [003] (89)
0B24  00                 [004] (89)
0B25  59                 [005] (89)
0B26  00                 [006] (91)
0B27  00                 [007] (91)
0B28  00                 [008] (91)
0B29  59                 [009] (91)
0B2A  00                 [010] (91)
0B2B  00                 [011] (91)
0B2C  00                 [012] (91)
0B2D  59                 [013] (94)
0B2E  00                 [014] (95)
0B2F  00                 [015] (95)
0B30  00                 [016] (95)
0B31  59                 [017] (95)
0B32  00                 [018] (95)
0B33  00                 [019] (95)
0B34  00                 [020] (95)
0B35  5B                 [021] (96)
0B36  00                 [022] (96)
0B37  00                 [023] (96)
0B38  00                 [024] (96)
0B39  5B                 [025] (96)
0B3A  00                 [026] (97)
0B3B  00                 [027] (97)
0B3C  00                 [028] (97)
0B3D  5B                 [029] (98)
0B3E  00                 [030] (98)
0B3F  00                 [031] (98)
0B40  00                 [032] (98)
0B41  5B                 [033] (98)
0B42  00                 [034] (98)
0B43  00                 [035] (98)
0B44  00                 [036] (99)
0B45  5B                 [037] (99)
0B46  00                 [038] (99)
0B47  00                 [039] (99)
0B48  00                 [040] (99)
0B49  5B                 [041] (100)
0B4A  00                 [042] (100)
0B4B  00                 [043] (100)
0B4C  00                 [044] (101)
0B4D  5B                 [045] (101)
0B4E  00                 [046] (101)
0B4F  00                 [047] (101)
0B50  00                 [048] (101)
0B51  5E                 [049] (101)
0B52  00                 [050] (101)
0B53  00                 [051] (102)
0B54  00                 [052] (102)
0B55  5F                 [053] (102)
0B56  00                 [054] (102)
0B57  00                 [055] (102)
0B58  00                 [056] (103)
0B59  5F                 [057] (103)
0B5A  00                 [058] (103)
0B5B  00                 [059] (104)
0B5C  00                 [060] (104)
0B5D  5F                 [061] (104)
0B5E  00                 [062] (104)
0B5F  00                 [063] (104)
0B60  00                 [064] (104)
0B61  5F                 [065] (104)
0B62  00                 [066] (105)
0B63  00                 [067] (105)
0B64  00                 [068] (105)
0B65  5F                 [069] (105)
0B66  00                 [070] (105)
0B67  00                 [071] (106)
0B68  00                 [072] (106)
0B69  5F                 [073] (106)
0B6A  00                 [074] (107)
0B6B  00                 [075] (107)
0B6C  00                 [076] (107)
0B6D  5F                 [077] (107)
0B6E  00                 [078] (107)
0B6F  00                 [079] (107)
0B70  00                 [080] (107)
0B71  60                 [081] (108)
0B72  00                 [082] (108)
0B73  00                 [083] (108)
0B74  00                 [084] (108)
0B75  60                 [085] (108)
0B76  00                 [086] (109)
0B77  00                 [087] (109)
0B78  00                 [088] (109)
0B79  60                 [089] (110)
0B7A  00                 [090] (110)
0B7B  00                 [091] (110)
0B7C  00                 [092] (110)
0B7D  60                 [093] (110)
0B7E  00                 [094] (110)
0B7F  00                 [095] (110)
0B80  00                 [096] (111)
0B81  60                 [097] (111)
0B82  00                 [098] (111)
0B83  00                 [099] (111)
0B84  00                 [100] (111)
0B85  61                 [101] (112)
0B86  00                 [102] (112)
0B87  00                 [103] (112)
0B88  00                 [104] (113)
0B89  61                 [105] (113)
0B8A  00                 [106] (113)
0B8B  00                 [107] (113)
0B8C  00                 [108] (113)
0B8D  61                 [109] (113)
0B8E  00                 [110] (113)
0B8F  00                 [111] (114)
0B90  00                 [112] (114)
0B91  62                 [113] (114)
0B92  00                 [114] (114)
0B93  00                 [115] (114)
0B94  00                 [116] (115)
0B95  62                 [117] (115)
0B96  00                 [118] (118)
0B97  00                 [119] (118)
0B98  00                 [120] (118)
0B99  62                 [121] (118)
0B9A  00                 [122] (118)
0B9B  00                 [123] (119)
0B9C  00                 [124] (119)
0B9D  62                 [125] (119)
0B9E  00                 [126] (120)
0B9F  00                 [127] (123)
0BA0  00                 [128] (123)
0BA1  62                 [129] (123)
0BA2  00                 [130] (123)
0BA3  00                 [131] (123)
0BA4  00                 [132] (123)
0BA5  62                 [133] (123)
0BA6  00                 [134] (124)
0BA7  00                 [135] (125)
0BA8  00                 [136] (125)
0BA9  62                 [137] (125)
0BAA  00                 [138] (125)
0BAB  00                 [139] (125)
0BAC  00                 [140] (125)
0BAD  63                 [141] (125)
0BAE  00                 [142] (125)
0BAF  00                 [143] (125)
0BB0  00                 [144] (126)
0BB1  63                 [145] (126)
0BB2  00                 [146] (126)
0BB3  00                 [147] (127)
0BB4  00                 [148] (127)
0BB5  63                 [149] (127)
0BB6  00                 [150] (127)
0BB7  00                 [151] (-126)
0BB8  00                 [152] (-126)
0BB9  63                 [153] (-126)
0BBA  00                 [154] (-124)
0BBB  00                 [155] (-124)
0BBC  00                 [156] (-123)
0BBD  63                 [157] (-123)
0BBE  00                 [158] (-123)
0BBF  00                 [159] (-120)
0BC0  00                 [160] (-120)
0BC1  64                 [161] (-120)
0BC2  00                 [162] (-120)
0BC3  00                 [163] (-120)
0BC4  00                 [164] (-120)
0BC5  64                 [165] (-120)
0BC6  00                 [166] (-120)
0BC7  00                 [167] (-120)
0BC8  00                 [168] (-120)
0BC9  64                 [169] (-119)
0BCA  00                 [170] (-119)
0BCB  00                 [171] (-119)
0BCC  00                 [172] (-119)
0BCD  65                 [173] (-119)
0BCE  00                 [174] (-117)
                         * locals:
0DD9  00                 sizelocvars (0)
                         * upvalues:
0DDA  00                 sizeupvalues (0)
                         ** end of function **

                         * lines:
0DDB  0B                 sizelineinfo (11)
                         [pc] (line)
0DDC  09                 [01] (9)
0DDD  00                 [02] (9)
0DDE  00                 [03] (9)
0DDF  00                 [04] (82)
0DE0  09                 [05] (82)
0DE1  00                 [06] (82)
0DE2  00                 [07] (11)
0DE3  00                 [08] (-117)
0DE4  09                 [09] (-117)
0DE5  00                 [10] (85)
0DE6  00                 [11] (-117)
                         * locals:
0E08  00                 sizelocvars (0)
                         * upvalues:
0E09  00                 sizeupvalues (0)
                         ** end of function **

0E0A                     ** end of chunk **
