1	C:\wlua_dump\path\Lotus\ScriptsAimGravityFX.lua
Pos   Hex Data           Description or Code
------------------------------------------------------------------------
0000                     ** source chunk: C:\wlua_dump\path\Lotus\ScriptsAimGravityFX.lua
                         ** global header start **
0000  7F                 header signature: ""
0001  00                 version (major:minor hex digits)
0002  00                 format (0=official)
0003  00                 endianness (1=little endian)
0004  00                 size of int (bytes)
0005  00                 size of size_t (bytes)
0006  02                 size of Instruction (bytes)
0007  02                 size of number (bytes)
0008  06                 integral (1=integral)
46
                         * number type: single
                         * x86 standard (32-bit, little endian, doubles)
                         ** global header end **
AimGravityFX
mixingGroups
mixingGains
mixingOcclusions
gTennoAvatarType
Engine
WALLRUNNING_LEFT
WALLRUNNING_RIGHT
WALLRUNNING_UP
aimGravityEnterSound
aimGravitySpawner
EMPTY_SYMBOL
aimGlideAttach
PM_AIM
PM_PARRY
PM_IN_AIR
Lotus_Game
ALPHA_ATTEN
math
mixerRatioSpeed
aimGravityExitSound
                         
0001                     ** function [0] definition (level 1)
                         ** start of function **
0001  00                 string size (0)
                         source name: (none)
0002  00                 line defined (0)
0003  00                 last line defined (0)
0004  00                 nups (0)
0005  00                 numparams (0)
0006  02                 is_vararg (2)
0007  02                 maxstacksize (2)
                         * code:
0008  06                 sizecode (6)
0009  25000000           [1] closure    0   0      
000D  65400000           [2] closure    1   1      
0011  12000000           [3] move       0   0      
0015  60000000           [4] setglobal  1   0        ; AimGravityFX
0019  60400000           [5] setglobal  1   1        ; 484506946
001D  1E008000           [6] return     0   1      
                         * constants:
0021  02                 sizek (2)
0022  04                 const type 4
0023  0D                 string size (13)
0024  41696D4772617669+  "AimGravi"
002C  7479465800         "tyFX\0"
                         const [0]: "AimGravityFX"
0031  01                 const type 3
0032  42FDE01C           const [1]: (484506946)
                         * functions:
0036  02                 sizep (2)
                         
0037                     ** function [0] definition (level 2)
                         ** start of function **
0037  00                 string size (0)
                         source name: (none)
0038  0B                 line defined (11)
0039  13                 last line defined (19)
003A  00                 nups (0)
003B  01                 numparams (1)
003C  00                 is_vararg (0)
003D  0C                 maxstacksize (12)
                         * code:
003E  26                 sizecode (38)
003F  59000000           [01] loadk      1   0        ; 0
0043  9D400000           [02] getglobal  2   1        ; mixingGroups
0047  8A000001           [03] len        2   2      
004B  D9000000           [04] loadk      3   0        ; 0
004F  50800780           [05] forprep    1   31       ; to [37]
0053  5D410000           [06] getglobal  5   1        ; mixingGroups
0057  4E018102           [07] gettable   5   5   4  
005B  9D810000           [08] getglobal  6   2        ; 1074689893
005F  D2018002           [09] move       7   5      
0063  A2810001           [10] call       6   2   2  
0067  98410000           [11] test       6       1    ; to [13] if false
006B  1AC00580           [12] jmp        24           ; to [37]
006F  9DC10000           [13] getglobal  6   3        ; mixingGains
0073  8E010103           [14] gettable   6   6   4  
0077  98010000           [15] test       6       0    ; to [17] if true
007B  1AC00480           [16] jmp        20           ; to [37]
007F  9D010100           [17] getglobal  6   4        ; mixingOcclusions
0083  8E010103           [18] gettable   6   6   4  
0087  98010000           [19] test       6       0    ; to [21] if true
008B  1AC00380           [20] jmp        16           ; to [37]
008F  A441C102           [21] self       6   5   261  ; -1323131731
0093  1D820100           [22] getglobal  8   6        ; -1828500651
0097  59C20100           [23] loadk      9   7        ; 0
009B  9DC20000           [24] getglobal  10  3        ; mixingGains
009F  8E020105           [25] gettable   10  10  4  
00A3  D2020000           [26] move       11  0      
00A7  22020002           [27] call       8   4   0  
00AB  A2410000           [28] call       6   0   1  
00AF  A401C202           [29] self       6   5   264  ; 1845535542
00B3  1D820100           [30] getglobal  8   6        ; -1828500651
00B7  59C20100           [31] loadk      9   7        ; 0
00BB  9D020100           [32] getglobal  10  4        ; mixingOcclusions
00BF  8E020105           [33] gettable   10  10  4  
00C3  D2020000           [34] move       11  0      
00C7  22020002           [35] call       8   4   0  
00CB  A2410000           [36] call       6   0   1  
00CF  54C0F77F           [37] forloop    1   -32      ; to [6] if loop
00D3  1E008000           [38] return     0   1      
                         * constants:
00D7  09                 sizek (9)
00D8  03                 const type 3
00D9  0000803F           const [0]: (0)
00DD  04                 const type 4
00DE  0D                 string size (13)
00DF  6D6978696E674772+  "mixingGr"
00E7  6F75707300         "oups\0"
                         const [1]: "mixingGroups"
00EC  01                 const type 3
00ED  65770E40           const [2]: (1074689893)
00F1  04                 const type 4
00F2  0C                 string size (12)
00F3  6D6978696E674761+  "mixingGa"
00FB  696E7300           "ins\0"
                         const [3]: "mixingGains"
00FF  04                 const type 4
0100  11                 string size (17)
0101  6D6978696E674F63+  "mixingOc"
0109  636C7573696F6E73+  "clusions"
0111  00                 "\0"
                         const [4]: "mixingOcclusions"
0112  01                 const type 3
0113  AD9C22B1           const [5]: (-1323131731)
0117  01                 const type 3
0118  554B0393           const [6]: (-1828500651)
011C  03                 const type 3
011D  00000000           const [7]: (0)
0121  01                 const type 3
0122  36A3006E           const [8]: (1845535542)
                         * functions:
0126  00                 sizep (0)
                         * lines:
0127  26                 sizelineinfo (38)
                         [pc] (line)
0128  0C                 [01] (12)
0129  00                 [02] (12)
012A  00                 [03] (12)
012B  00                 [04] (12)
012C  0C                 [05] (12)
012D  00                 [06] (13)
012E  00                 [07] (13)
012F  00                 [08] (14)
0130  0C                 [09] (14)
0131  00                 [10] (14)
0132  00                 [11] (14)
0133  00                 [12] (14)
0134  0C                 [13] (14)
0135  00                 [14] (14)
0136  00                 [15] (14)
0137  00                 [16] (14)
0138  0C                 [17] (14)
0139  00                 [18] (14)
013A  00                 [19] (14)
013B  00                 [20] (14)
013C  0D                 [21] (15)
013D  00                 [22] (15)
013E  00                 [23] (15)
013F  00                 [24] (15)
0140  0D                 [25] (15)
0141  00                 [26] (15)
0142  00                 [27] (15)
0143  00                 [28] (15)
0144  0E                 [29] (16)
0145  00                 [30] (16)
0146  00                 [31] (16)
0147  00                 [32] (16)
0148  0E                 [33] (16)
0149  00                 [34] (16)
014A  00                 [35] (16)
014B  00                 [36] (16)
014C  0E                 [37] (12)
014D  00                 [38] (19)
                         * locals:
01C0  00                 sizelocvars (0)
                         * upvalues:
01C1  00                 sizeupvalues (0)
                         ** end of function **

                         
01C2                     ** function [1] definition (level 2)
                         ** start of function **
01C2  00                 string size (0)
                         source name: (none)
01C3  15                 line defined (21)
01C4  4D                 last line defined (77)
01C5  01                 nups (1)
01C6  01                 numparams (1)
01C7  00                 is_vararg (0)
01C8  0E                 maxstacksize (14)
                         * code:
01CA  01                 sizecode (178)
01CB  64004000           [001] self       1   0   256  ; -1957065004
01CF  DD400000           [002] getglobal  3   1        ; gTennoAvatarType
01D3  62808001           [003] call       1   3   2  
01D7  86008001           [004] loadnil    2   3      
01DB  1D810000           [005] getglobal  4   2        ; 538022378
01DF  59C10000           [006] loadk      5   3        ; -51
01E3  22410001           [007] call       4   2   1  
01E7  24014100           [008] self       4   0   260  ; -49551937
01EB  22810001           [009] call       4   2   2  
01EF  5D410100           [010] getglobal  5   5        ; Engine
01F3  4E81C102           [011] gettable   5   5   262  ; "WALLRUNNING_LEFT"
fail op	35
01F7  63400102           [012] close      1  
01FB  1AC00280           [013] jmp        12           ; to [26]
01FF  24014100           [014] self       4   0   260  ; -49551937
0203  22810001           [015] call       4   2   2  
0207  5D410100           [016] getglobal  5   5        ; Engine
020B  4EC1C102           [017] gettable   5   5   263  ; "WALLRUNNING_RIGHT"
fail op	35
020F  63400102           [018] close      1  
0213  1A400180           [019] jmp        6            ; to [26]
0217  24014100           [020] self       4   0   260  ; -49551937
021B  22810001           [021] call       4   2   2  
021F  5D410100           [022] getglobal  5   5        ; Engine
0223  4E01C202           [023] gettable   5   5   264  ; "WALLRUNNING_UP"
fail op	35
0227  23400102           [024] close      0  
022B  1A000080           [025] jmp        1            ; to [27]
022F  1E008000           [026] return     0   1      
0233  24414200           [027] self       4   0   265  ; 630793108
0237  9D810200           [028] getglobal  6   10       ; aimGravityEnterSound
023B  D7010000           [029] loadbool   7   0   0    ; false
023F  19C20200           [030] loadk      8   11       ; 0
0243  57020000           [031] loadbool   9   0   0    ; false
0247  22410003           [032] call       4   6   1  
024B  1D010300           [033] getglobal  4   12       ; 1074689893
024F  5D410300           [034] getglobal  5   13       ; aimGravitySpawner
0253  22810001           [035] call       4   2   2  
0257  18410000           [036] test       4       1    ; to [38] if false
025B  1A000180           [037] jmp        5            ; to [43]
025F  24814300           [038] self       4   0   270  ; -1421644046
0263  9D410300           [039] getglobal  6   13       ; aimGravitySpawner
0267  DDC10300           [040] getglobal  7   15       ; EMPTY_SYMBOL
026B  22810002           [041] call       4   4   2  
026F  92000002           [042] move       2   4      
0273  1D010300           [043] getglobal  4   12       ; 1074689893
0277  5D010400           [044] getglobal  5   16       ; aimGlideAttach
027B  22810001           [045] call       4   2   2  
027F  18410000           [046] test       4       1    ; to [48] if false
0283  1A000180           [047] jmp        5            ; to [53]
0287  24814300           [048] self       4   0   270  ; -1421644046
028B  9D010400           [049] getglobal  6   16       ; aimGlideAttach
028F  DDC10300           [050] getglobal  7   15       ; EMPTY_SYMBOL
0293  22810002           [051] call       4   4   2  
0297  D2000002           [052] move       3   4      
029B  19410400           [053] loadk      4   17       ; 0
029F  64814400           [054] self       5   0   274  ; -1770455219
02A3  62810001           [055] call       5   2   2  
02A7  9D010300           [056] getglobal  6   12       ; 1074689893
02AB  D2010000           [057] move       7   0      
02AF  A2810001           [058] call       6   2   2  
02B3  98410000           [059] test       6       1    ; to [61] if false
02B7  1A801180           [060] jmp        71           ; to [132]
02BB  A4C14400           [061] self       6   0   275  ; 1511086594
02BF  A2810001           [062] call       6   2   2  
02C3  98410000           [063] test       6       1    ; to [65] if false
02C7  1A801080           [064] jmp        67           ; to [132]
02CB  A4014500           [065] self       6   0   276  ; -214694299
02CF  1D420100           [066] getglobal  8   5        ; Engine
02D3  0E424504           [067] gettable   8   8   277  ; "PM_AIM"
02D7  A2818001           [068] call       6   3   2  
02DB  98410000           [069] test       6       1    ; to [71] if false
02DF  1A400180           [070] jmp        6            ; to [77]
02E3  A4014500           [071] self       6   0   276  ; -214694299
02E7  1D420100           [072] getglobal  8   5        ; Engine
02EB  0E824504           [073] gettable   8   8   278  ; "PM_PARRY"
02EF  A2818001           [074] call       6   3   2  
02F3  98010000           [075] test       6       0    ; to [77] if true
02F7  1A800D80           [076] jmp        55           ; to [132]
02FB  A4014500           [077] self       6   0   276  ; -214694299
02FF  1D420100           [078] getglobal  8   5        ; Engine
0303  0EC24504           [079] gettable   8   8   279  ; "PM_IN_AIR"
0307  A2818001           [080] call       6   3   2  
030B  98010000           [081] test       6       0    ; to [83] if true
030F  1A000C80           [082] jmp        49           ; to [132]
0313  A4814400           [083] self       6   0   274  ; -1770455219
0317  A2810001           [084] call       6   2   2  
fail op	21
031B  15808188           [085] concat     0   273 6  
031F  1A000B80           [086] jmp        45           ; to [132]
0323  58000000           [087] test       1       0    ; to [89] if true
0327  1A000180           [088] jmp        5            ; to [94]
032B  A4014600           [089] self       6   0   280  ; -1989965367
032F  A2810001           [090] call       6   2   2  
0333  98410000           [091] test       6       1    ; to [93] if false
0337  1A000080           [092] jmp        1            ; to [94]
033B  1A400980           [093] jmp        38           ; to [132]
033F  A4814400           [094] self       6   0   274  ; -1770455219
0343  A2810001           [095] call       6   2   2  
0347  52010003           [096] move       5   6      
034B  9D010300           [097] getglobal  6   12       ; 1074689893
034F  D2018001           [098] move       7   3      
0353  A2810001           [099] call       6   2   2  
0357  98410000           [100] test       6       1    ; to [102] if false
035B  1A000380           [101] jmp        13           ; to [115]
035F  A441C601           [102] self       6   3   281  ; -786111647
0363  1D820600           [103] getglobal  8   26       ; Lotus_Game
0367  0EC24604           [104] gettable   8   8   283  ; "ALPHA_ATTEN"
036B  5D020700           [105] getglobal  9   28       ; math
036F  4E42C704           [106] gettable   9   9   285  ; -688728047
0373  9D820700           [107] getglobal  10  30       ; 1668611480
0377  C4C2C702           [108] mul        11  5   287  ; 0
037B  19430400           [109] loadk      12  17       ; 0
037F  59030800           [110] loadk      13  32       ; 0
0383  A2820002           [111] call       10  4   2  
0387  D9420800           [112] loadk      11  33       ; 0
038B  62028001           [113] call       9   3   0  
038F  A2410000           [114] call       6   0   1  
0393  9D810700           [115] getglobal  6   30       ; 1668611480
0397  DD810800           [116] getglobal  7   34       ; 1289681407
039B  E2818000           [117] call       7   1   2  
039F  1DC20800           [118] getglobal  8   35       ; mixerRatioSpeed
03A3  C4018203           [119] mul        7   7   8  
03A7  C3C10102           [120] add        7   4   7  
03AB  19420400           [121] loadk      8   17       ; 0
03AF  59020800           [122] loadk      9   32       ; 0
03B3  A2810002           [123] call       6   4   2  
03B7  12010003           [124] move       4   6      
03BB  93010000           [125] getupval   6   0      
03BF  D2010002           [126] move       7   4      
03C3  A2410001           [127] call       6   2   1  
03C7  9D810000           [128] getglobal  6   2        ; 538022378
03CB  D9410400           [129] loadk      7   17       ; 0
03CF  A2410001           [130] call       6   2   1  
03D3  1AC0EC7F           [131] jmp        -76          ; to [56]
03D7  9D010300           [132] getglobal  6   12       ; 1074689893
03DB  D2010000           [133] move       7   0      
03DF  A2810001           [134] call       6   2   2  
03E3  98410000           [135] test       6       1    ; to [137] if false
03E7  1A400280           [136] jmp        10           ; to [147]
03EB  A4C14400           [137] self       6   0   275  ; 1511086594
03EF  A2810001           [138] call       6   2   2  
03F3  98410000           [139] test       6       1    ; to [141] if false
03F7  1A400180           [140] jmp        6            ; to [147]
03FB  A4414200           [141] self       6   0   265  ; 630793108
03FF  1D020900           [142] getglobal  8   36       ; aimGravityExitSound
0403  57020000           [143] loadbool   9   0   0    ; false
0407  99C20200           [144] loadk      10  11       ; 0
040B  D7020000           [145] loadbool   11  0   0    ; false
040F  A2410003           [146] call       6   6   1  
0413  9D010300           [147] getglobal  6   12       ; 1074689893
0417  D2010001           [148] move       7   2      
041B  A2810001           [149] call       6   2   2  
041F  98410000           [150] test       6       1    ; to [152] if false
0423  1A400080           [151] jmp        2            ; to [154]
0427  A4414901           [152] self       6   2   293  ; -725453761
042B  A2410001           [153] call       6   2   1  
042F  9D010300           [154] getglobal  6   12       ; 1074689893
0433  D2018001           [155] move       7   3      
0437  A2810001           [156] call       6   2   2  
043B  98410000           [157] test       6       1    ; to [159] if false
043F  1A400080           [158] jmp        2            ; to [161]
0443  A441C901           [159] self       6   3   293  ; -725453761
0447  A2410001           [160] call       6   2   1  
fail op	21
044B  15008188           [161] concat     0   273 4  
044F  1A800380           [162] jmp        15           ; to [178]
0453  9D810700           [163] getglobal  6   30       ; 1668611480
0457  DD810800           [164] getglobal  7   34       ; 1289681407
045B  E2818000           [165] call       7   1   2  
045F  CDC10102           [166] sub        7   4   7  
0463  19420400           [167] loadk      8   17       ; 0
0467  59020800           [168] loadk      9   32       ; 0
046B  A2810002           [169] call       6   4   2  
046F  12010003           [170] move       4   6      
0473  93010000           [171] getupval   6   0      
0477  D2010002           [172] move       7   4      
047B  A2410001           [173] call       6   2   1  
047F  9D810000           [174] getglobal  6   2        ; 538022378
0483  D9410400           [175] loadk      7   17       ; 0
0487  A2410001           [176] call       6   2   1  
048B  1A80FB7F           [177] jmp        -17          ; to [161]
048F  1E008000           [178] return     0   1      
                         * constants:
0493  26                 sizek (38)
0494  01                 const type 3
0495  D48E598B           const [0]: (-1957065004)
0499  04                 const type 4
049A  11                 string size (17)
049B  6754656E6E6F4176+  "gTennoAv"
04A3  6174617254797065+  "atarType"
04AB  00                 "\0"
                         const [1]: "gTennoAvatarType"
04AC  01                 const type 3
04AD  EA911120           const [2]: (538022378)
04B1  03                 const type 3
04B2  CDCCCC3D           const [3]: (-51)
04B6  01                 const type 3
04B7  BFE50BFD           const [4]: (-49551937)
04BB  04                 const type 4
04BC  07                 string size (7)
04BD  456E67696E6500     "Engine\0"
                         const [5]: "Engine"
04C4  04                 const type 4
04C5  11                 string size (17)
04C6  57414C4C52554E4E+  "WALLRUNN"
04CE  494E475F4C454654+  "ING_LEFT"
04D6  00                 "\0"
                         const [6]: "WALLRUNNING_LEFT"
04D7  04                 const type 4
04D8  12                 string size (18)
04D9  57414C4C52554E4E+  "WALLRUNN"
04E1  494E475F52494748+  "ING_RIGH"
04E9  5400               "T\0"
                         const [7]: "WALLRUNNING_RIGHT"
04EB  04                 const type 4
04EC  0F                 string size (15)
04ED  57414C4C52554E4E+  "WALLRUNN"
04F5  494E475F555000     "ING_UP\0"
                         const [8]: "WALLRUNNING_UP"
04FC  01                 const type 3
04FD  94239925           const [9]: (630793108)
0501  04                 const type 4
0502  15                 string size (21)
0503  61696D4772617669+  "aimGravi"
050B  7479456E74657253+  "tyEnterS"
0513  6F756E6400         "ound\0"
                         const [10]: "aimGravityEnterSound"
0518  03                 const type 3
0519  000080BF           const [11]: (0)
051D  01                 const type 3
051E  65770E40           const [12]: (1074689893)
0522  04                 const type 4
0523  12                 string size (18)
0524  61696D4772617669+  "aimGravi"
052C  7479537061776E65+  "tySpawne"
0534  7200               "r\0"
                         const [13]: "aimGravitySpawner"
0536  01                 const type 3
0537  F26E43AB           const [14]: (-1421644046)
053B  04                 const type 4
053C  0D                 string size (13)
053D  454D5054595F5359+  "EMPTY_SY"
0545  4D424F4C00         "MBOL\0"
                         const [15]: "EMPTY_SYMBOL"
054A  04                 const type 4
054B  0F                 string size (15)
054C  61696D476C696465+  "aimGlide"
0554  41747461636800     "Attach\0"
                         const [16]: "aimGlideAttach"
055B  03                 const type 3
055C  00000000           const [17]: (0)
0560  01                 const type 3
0561  4DFF7896           const [18]: (-1770455219)
0565  01                 const type 3
0566  025A115A           const [19]: (1511086594)
056A  01                 const type 3
056B  650634F3           const [20]: (-214694299)
056F  04                 const type 4
0570  07                 string size (7)
0571  504D5F41494D00     "PM_AIM\0"
                         const [21]: "PM_AIM"
0578  04                 const type 4
0579  09                 string size (9)
057A  504D5F5041525259+  "PM_PARRY"
0582  00                 "\0"
                         const [22]: "PM_PARRY"
0583  04                 const type 4
0584  0A                 string size (10)
0585  504D5F494E5F4149+  "PM_IN_AI"
058D  5200               "R\0"
                         const [23]: "PM_IN_AIR"
058F  01                 const type 3
0590  C9896389           const [24]: (-1989965367)
0594  01                 const type 3
0595  61E324D1           const [25]: (-786111647)
0599  04                 const type 4
059A  0B                 string size (11)
059B  4C6F7475735F4761+  "Lotus_Ga"
05A3  6D6500             "me\0"
                         const [26]: "Lotus_Game"
05A6  04                 const type 4
05A7  0C                 string size (12)
05A8  414C5048415F4154+  "ALPHA_AT"
05B0  54454E00           "TEN\0"
                         const [27]: "ALPHA_ATTEN"
05B4  04                 const type 4
05B5  05                 string size (5)
05B6  6D61746800         "math\0"
                         const [28]: "math"
05BB  01                 const type 3
05BC  11D8F2D6           const [29]: (-688728047)
05C0  01                 const type 3
05C1  98FD7463           const [30]: (1668611480)
05C5  03                 const type 3
05C6  00000040           const [31]: (0)
05CA  03                 const type 3
05CB  0000803F           const [32]: (0)
05CF  03                 const type 3
05D0  0000003F           const [33]: (0)
05D4  01                 const type 3
05D5  FFF9DE4C           const [34]: (1289681407)
05D9  04                 const type 4
05DA  10                 string size (16)
05DB  6D69786572526174+  "mixerRat"
05E3  696F537065656400   "ioSpeed\0"
                         const [35]: "mixerRatioSpeed"
05EB  04                 const type 4
05EC  14                 string size (20)
05ED  61696D4772617669+  "aimGravi"
05F5  747945786974536F+  "tyExitSo"
05FD  756E6400           "und\0"
                         const [36]: "aimGravityExitSound"
0601  01                 const type 3
0602  3F74C2D4           const [37]: (-725453761)
                         * functions:
0606  00                 sizep (0)
                         * lines:
0608  01                 sizelineinfo (178)
                         [pc] (line)
0609  16                 [001] (22)
060A  00                 [002] (22)
060B  00                 [003] (22)
060C  00                 [004] (23)
060D  16                 [005] (26)
060E  00                 [006] (26)
060F  00                 [007] (26)
0610  00                 [008] (27)
0611  16                 [009] (27)
0612  00                 [010] (27)
0613  00                 [011] (27)
0614  00                 [012] (27)
0615  17                 [013] (27)
0616  00                 [014] (27)
0617  00                 [015] (27)
0618  00                 [016] (27)
0619  1A                 [017] (27)
061A  00                 [018] (27)
061B  00                 [019] (27)
061C  00                 [020] (27)
061D  1A                 [021] (27)
061E  00                 [022] (27)
061F  00                 [023] (27)
0620  00                 [024] (27)
0621  1A                 [025] (27)
0622  00                 [026] (28)
0623  00                 [027] (31)
0624  00                 [028] (31)
0625  1B                 [029] (31)
0626  00                 [030] (31)
0627  00                 [031] (31)
0628  00                 [032] (31)
0629  1B                 [033] (32)
062A  00                 [034] (32)
062B  00                 [035] (32)
062C  00                 [036] (32)
062D  1B                 [037] (32)
062E  00                 [038] (33)
062F  00                 [039] (33)
0630  00                 [040] (33)
0631  1B                 [041] (33)
0632  00                 [042] (33)
0633  00                 [043] (36)
0634  00                 [044] (36)
0635  1B                 [045] (36)
0636  00                 [046] (36)
0637  00                 [047] (36)
0638  00                 [048] (37)
0639  1B                 [049] (37)
063A  00                 [050] (37)
063B  00                 [051] (37)
063C  00                 [052] (37)
063D  1B                 [053] (40)
063E  00                 [054] (41)
063F  00                 [055] (41)
0640  00                 [056] (42)
0641  1B                 [057] (42)
0642  00                 [058] (42)
0643  00                 [059] (42)
0644  00                 [060] (42)
0645  1B                 [061] (42)
0646  00                 [062] (42)
0647  00                 [063] (42)
0648  00                 [064] (42)
0649  1B                 [065] (42)
064A  00                 [066] (42)
064B  00                 [067] (42)
064C  00                 [068] (42)
064D  1B                 [069] (42)
064E  00                 [070] (42)
064F  00                 [071] (42)
0650  00                 [072] (42)
0651  1B                 [073] (42)
0652  00                 [074] (42)
0653  00                 [075] (42)
0654  00                 [076] (42)
0655  1B                 [077] (42)
0656  00                 [078] (42)
0657  00                 [079] (42)
0658  00                 [080] (42)
0659  1B                 [081] (42)
065A  00                 [082] (42)
065B  00                 [083] (42)
065C  00                 [084] (42)
065D  1B                 [085] (42)
065E  00                 [086] (42)
065F  00                 [087] (43)
0660  00                 [088] (43)
0661  1B                 [089] (43)
0662  00                 [090] (43)
0663  00                 [091] (43)
0664  00                 [092] (43)
0665  1B                 [093] (44)
0666  00                 [094] (47)
0667  00                 [095] (47)
0668  00                 [096] (47)
0669  1B                 [097] (48)
066A  00                 [098] (48)
066B  00                 [099] (48)
066C  00                 [100] (48)
066D  1C                 [101] (48)
066E  00                 [102] (49)
066F  00                 [103] (49)
0670  00                 [104] (49)
0671  1F                 [105] (49)
0672  00                 [106] (49)
0673  00                 [107] (49)
0674  00                 [108] (49)
0675  1F                 [109] (49)
0676  00                 [110] (49)
0677  00                 [111] (49)
0678  00                 [112] (49)
0679  1F                 [113] (49)
067A  00                 [114] (49)
067B  00                 [115] (53)
067C  00                 [116] (53)
067D  1F                 [117] (53)
067E  00                 [118] (53)
067F  00                 [119] (53)
0680  00                 [120] (53)
0681  1F                 [121] (53)
0682  00                 [122] (53)
0683  00                 [123] (53)
0684  00                 [124] (53)
0685  1F                 [125] (54)
0686  00                 [126] (54)
0687  00                 [127] (54)
0688  00                 [128] (56)
0689  20                 [129] (56)
068A  00                 [130] (56)
068B  00                 [131] (56)
068C  00                 [132] (60)
068D  20                 [133] (60)
068E  00                 [134] (60)
068F  00                 [135] (60)
0690  00                 [136] (60)
0691  20                 [137] (60)
0692  00                 [138] (60)
0693  00                 [139] (60)
0694  00                 [140] (60)
0695  20                 [141] (61)
0696  00                 [142] (61)
0697  00                 [143] (61)
0698  00                 [144] (61)
0699  20                 [145] (61)
069A  00                 [146] (61)
069B  00                 [147] (64)
069C  00                 [148] (64)
069D  21                 [149] (64)
069E  00                 [150] (64)
069F  00                 [151] (64)
06A0  00                 [152] (65)
06A1  21                 [153] (65)
06A2  00                 [154] (68)
06A3  00                 [155] (68)
06A4  00                 [156] (68)
06A5  21                 [157] (68)
06A6  00                 [158] (68)
06A7  00                 [159] (69)
06A8  00                 [160] (69)
06A9  21                 [161] (72)
06AA  00                 [162] (72)
06AB  00                 [163] (73)
06AC  00                 [164] (73)
06AD  21                 [165] (73)
06AE  00                 [166] (73)
06AF  00                 [167] (73)
06B0  00                 [168] (73)
06B1  24                 [169] (73)
06B2  00                 [170] (73)
06B3  00                 [171] (74)
06B4  00                 [172] (74)
06B5  24                 [173] (74)
06B6  00                 [174] (75)
06B7  00                 [175] (75)
06B8  00                 [176] (75)
06B9  24                 [177] (75)
06BA  00                 [178] (77)
                         * locals:
08D1  00                 sizelocvars (0)
                         * upvalues:
08D2  00                 sizeupvalues (0)
                         ** end of function **

                         * lines:
08D3  06                 sizelineinfo (6)
                         [pc] (line)
08D4  13                 [1] (19)
08D5  00                 [2] (77)
08D6  00                 [3] (77)
08D7  00                 [4] (77)
08D8  4D                 [5] (21)
08D9  00                 [6] (77)
                         * locals:
08EC  00                 sizelocvars (0)
                         * upvalues:
08ED  00                 sizeupvalues (0)
                         ** end of function **

08EE                     ** end of chunk **
