1	C:\wlua_dump\path\Lotus\ScriptsLotusGameRules.lua
Pos   Hex Data           Description or Code
------------------------------------------------------------------------
0000                     ** source chunk: C:\wlua_dump\path\Lotus\ScriptsLotusGameRules.lua
                         ** global header start **
0000  7F                 header signature: ""
0001  00                 version (major:minor hex digits)
0002  00                 format (0=official)
0003  00                 endianness (1=little endian)
0004  00                 size of int (bytes)
0005  00                 size of size_t (bytes)
0006  02                 size of Instruction (bytes)
0007  35                 size of number (bytes)
0008  99                 integral (1=integral)
4153
                         * number type: single
                         * x86 standard (32-bit, little endian, doubles)
                         ** global header end **
EE.Interface.Utilities
Lotus.Interface.LotusUtilities
Lotus.Scripts.Libs.TransmissionSet
Lotus.Scripts.Libs.EncounterLib
Lotus.Interface.MissionRequirementUtilities
Lotus.Interface.WorldStateUtilities
FactionHunterSpawned
TimeElapsed
MissionBuilder
TENNO
/Lotus/Types/Enemies/Corpus/Drones/AIWeek/CorpusEliteShieldDroneAgent
/Lotus/Fx/Explosions/DropPodExplosion
/Lotus/Types/Gameplay/Arbitration/ReviveStationTrigger
/Lotus/Types/Gameplay/Arbitration/PlayerReviveStationState
/Lotus/Types/Gameplay/Arbitration/GameState
/Lotus/Types/Enemies/Infested/SpecialEvents/ArloZealotSwordAvatar
/Lotus/Types/Enemies/Infested/SpecialEvents/ArloZealotGunAvatar
/Lotus/Types/Enemies/Infested/SpecialEvents/ArloZealotDual/ArloZealotDualSwordGunAvatar
/Lotus/StoreItems/Types/Items/SyndicateDogTags/NoraInfestedDogTag
/Lotus/Sounds/Dialog/Nightwave/NoraWolfSaturnSix/DRandToken0230NoraNight
/Lotus/Sounds/Dialog/Barks/Battle/GrineerWolf/GrnWolfSentientArriveHowls
/Lotus/Fx/Enemies/Grineer/Wolf/WolfStalkerSpawnIn
/Lotus/Types/DropTables/WolfSentientStalkerAlertAgentDropTable
/Lotus/Types/Friendly/ArloDevotedHealerAgent
/Lotus/Types/Friendly/ArloDevotedHealerAvatar
/Lotus/Fx/Enemies/Stalker/StalkerSpawnIn
/Lotus/Animations/Amalgam/CorpusPilot/Reincarnate_anim.fbx
/Lotus/Weapons/Tenno/Rifle/SemiAutoRifle
/Lotus/Types/Friendly/DevotedHealerShockwaveEntity
/Lotus/Types/Gameplay/UniversalMissionHubScriptHelper
/Lotus/Types/Game/MarkerInfos/EnemyObjectiveMarkerInfo
ConvictSpawnCycle
ZealotEncounterLiveCount
/Lotus/Types/DropTables/HyenaRazorbackAgentDropTable
OnLevelLoaded
_T
OnConvictEliminated
OnUpdate
OnPlayerConnected
OnPlayerDisconnected
NotifyPlayerEnteringSpace
NotifyPlayerLeavingSpace
OnAvatarChanged
OnPlayerSpawned
OnLocalAvatarCreated
OnPreDeath
OnAssterminationDeath
OnDeath
CheckMissionRequirements
ReceivedCustomRaidData
SpawnEliteAlertDrone
OnEliteAlertDroneDestroyed
OnAgentCreated
ResetElementalVIP
CreateReviveStation
OnEliteAlertGameStateLoaded
PopulateAssterminationAmbushRoom
InitAssterminationBoss
SpawnDevotedHealer
_T
EnvRadiationGlowActive
gRegion
postProcess
saturation
math
pi
desaturateColor
fogColor
distanceFogDensity
lightMapTint
_T
MissionTimeAttackTracker
MissionTimeAttackActive
MissionTimeAttackValue
math
gGameRules
_T
RelayEventTimerActive
gGameRules
gGameConfig
RelayEventPhaseInfo
enhancement
item
itemAmount
marker
enemyMarkerType
transmission
enemySpawnTransmission
spawnDelay
location
region
regions
_T
IsEliteAlert
gGameRules
periodicMissionTag
ELITE_ALERT_PERIODIC_MISSION_TAG
ELITE_ALERT_PERIODIC_MISSION_TAG_ALT
EliteDroneSpawnTimer
gRegion
OnEliteAlertGameStateLoaded
math
Engine
gGameData
mSeasonInfo
mActivation
wgsi
wgsb
_T
ConvictSpawnCycle
gRegion
table
_T
ConvictTotalSpawnCount
ConvictProgressTracker
AddHudTracker
ConvictProgress
HT_PROGRESS_BAR
/Lotus/Language/Game/ConvictsCaptured
 / 
gRegion
gPromotedToHost
_T
MigratedDuplicateConvicts
wgrm
math
ConvictTotalSpawnCount
ConvictProgressTracker
_T
SeasonGameLoopActive
gGameRules
gRegion
goalTag
EMPTY_SYMBOL
archwingRequired
isSharkwingMission
gQuestMission
keyChainName
missionType
Lotus_Game
MT_GENERIC
MT_MASTERY
SecretMiniGameActive
minEnemyLevel
gPromotedToHost
ConvictSpawnCycle
MigratedDuplicateConvicts
_G
MigratedConvictSpawnCycle
ConvictSpawnTimer
ConvictSpawnQueued
_T
cachedIsWolfAsstermination
string
gGameRules
goalTag
Wolf
_T
AssterminationActive
MissionInitReady
gRegion
gGameRules
missionType
Lotus_Game
MT_ASSASSINATION
maxWaveNum
no choke points found in map
AssterminationChokePoints
table
pos
orient
AssterminationAmbushIndices
gNpcDoorHintType
AssterminationAmbushMiniBossIndices
math
AssterminationNextChokePoint
AssterminationAmbushSpawnRunning
AssterminationAmbushMiniBoss
AssterminationProgressTracker
gPromotedToHost
Close
Lock
PanicButton
DoorMessageTag
Unlock
InitAssterminationBoss
PopulateAssterminationAmbushRoom
AssterminationNextRoomPending
AsssterminationProgress
HT_PROGRESS_BAR
/Lotus/Language/RelayReconstruction/RelayFightExterminateCount
AssterminationTotalEnemies
 / 
vipAgent
OnAssterminationDeath
_T
BackgroundMovie
gGameRules
InitializeRegionChallenges

RelayEventTimerActive
RelayEventSpawnTimer
stripModsFromPlayer
gRegion
noModsImpactMessage
ShowImpactMessage
gClient
/Lotus/Language/Game/NightmareModeNoMods
PendingScenarioHubName
ScenarioHubStarted
ScenarioHubInstance
ZERO_VECTOR
ZERO_ROTATION
failed to create ScenarioHubScriptHelper
PendingScenarioHubShutdown
ShutdownScenarioHub
table
Lotus_Game
MAX_LoadOutType
MAX_LoadOutSlot
mItemType
MAX_SlotName
contextObjects
AllowContinuousJobs
ActiveJob
gMatchingService
EVERYONE IS HERE!
gRegion
table
_T
RelayEventTargetEnemy
RelayEventCaptureTimer
DeductEidolonShardFromClientCallback
_T
IsEliteAlert
EliteAlertPlayerDisconnected
gRegion
_T
ExclusiveWeaponSlot
Engine
SLOT_1
SLOT_2
SLOT_6
gRegion
_T
ExclusiveWeaponSlot
Engine
SLOT_1
SLOT_2
SLOT_6
SLOT_8
_T
IsEliteAlert
EliteAlertPlayerAvatarChanged
stripModsFromPlayer
Lotus_Game
FC_GRINEER
gGameRules
exclusiveWeapon
_T
noModsImpactMessage
mIsPartnerParticipatingInTwitchPromo
gPlayerProfileMgr
TwitchMarkedEnemyActive
TwitchMarkedEnemyInfo
gGameConfig
PartnerPlayer
spawnChance
mSpawnChance
coolDown
mCooldown
mAgentTypes
acceptedAgentTypes
table
TwitchMarkedEnemy
IsEliteAlert
EliteAlertPlayerSpawned
EliteAlertCycle
value
Game
STACKING_MULTIPLY
Engine
DT_ANY
gGameData
mSeasonInfo
mSeason
mPhase
archwingRequired
isSharkwingMission
gQuestMission
keyChainName
missionType
MT_GENERIC
MT_MASTERY
SecretMiniGameActive
gRegion
hsr
SpawnDevotedHealer
_T
BackgroundMovie
gGameRules
InitializeRegionChallenges

exclusiveWeapon
_T
SpawnDevotedHealer
table
gRegion
_T
AssterminationProgressTracker
AssterminationTotalEnemies
 / 
AssterminationNextRoomPending
GAME_C1_SPINE2
gGameRules
_T
AmbientMissionTransmissionSet
gGameRules
StopNormalTransmissions
gRegion
TennoDown
TwitchMarkedEnemy
PartnerPlayer
gChallengeMgr
MarkedEnemyDown
TwitchMarkedEnemyActive
IsEliteAlert
EliteAlertDroneKiller
OnEliteAlertDroneDestroyed
CreateReviveStation
ScenarioHubStarted
ScenarioOnDeath
AssterminationProgressTracker
gGameRules
text
PLAYER_NAME
player
VALUE
value
MIN
MAX
ITEM

_T
RaidCustomData
LotusGameRules.lua::ReceivedCustomRaidData - no global function defined
_T
RELAY_EVENT_INJURY_IMMUNITY_TAG
RelayEventVIPImmunity
DebugElementalCarrier

string
gFlashMgr
LotusGameRules.ForceElementalCarrier
RelayEventPhaseInfo
gGameRules
transmission
item
/Lotus/Language/RelayReconstruction/EnemyItemCarrierName
ITEM
enhancement
marker
GAME_C1_SPINE2
Lotus_Game
AR_RESIST_ALL
Engine
STUN
KNOCKDOWN
RAGDOLL
mType
/Lotus/Types/Enemies/RelayEvent/RelayEventCaptureEnemyAction
RelayEventTargetEnemy
RelayEventTimerActive
_T
TwitchMarkedEnemyInfo
gGameRules
enemySpawnTransmission
enemyMarkerType
GAME_C1_SPINE2
fxAura
EMPTY_SYMBOL
PartnerPlayer
TwitchMarkedEnemy
gRegion
gLotusNpcAvatarType
math
Engine
STANDARD
Game
AVATAR_HEALTH_MAX
STACKING_MULTIPLY
AVATAR_INJURY_BLOCK_CHANCE
SET
_T
EliteDroneSpawnTimer
gRegion
ZERO_ROTATION
Engine
baseAmount
radius
baseProcChance
hostAuthoritative
ignoreEntity
_T
EliteAlertDroneKiller
checkForCover
hitAirborneTargets
DT_EXPLOSION
Game
PT_KNOCKED_DOWN
_T
IsCorpusSortieMission
gGameRules
Lotus_Game
FC_CORPUS
IsMissionBuilderMission
goalTag
Game
AVATAR_DAMAGE_RESISTANCE
ADD
Engine
DT_BASE_ELEMENTAL
DT_COMPOUND_ELEMENTAL
MT_LANDSCAPE
MT_MASTERY
MT_RAID
MT_RECOVERY
RelayEventTimerActive
RelayEventSpawnTimer
RelayEventTargetEnemy
SecretMiniGameActive
vipAgent
InSimulacrum
gLotusPhotoBoothGameRulesType
location
TwitchMarkedEnemy
TwitchMarkedEnemyActive
TwitchMarkedEnemyInfo
spawnChance
acceptedAgentTypes
IsEliteAlert
EliteAlertDroneList
table
droneAgent
creationTime
EliteDroneSpawnTimer
EliteDroneForceSpawn
SpawnEliteAlertDrone
AssterminationActive
AVATAR_DROP_CHANCE_MODIFIER
MULTIPLY
IsRazorbackMission
FriendlyFireTacAlert
/Lotus/Types/Enemies/Corpus/Vip/Hyena/HyenaGunAvatar
HyCount
SET
OnAgentSpawnedCallback
ScenarioHubStarted
ScenarioOnAgentCreated
OnAgentSpawnedNemesisCallback
_T
RelayEventTimerActive
gRegion
RelayEventSpawnTimer
RelayEventPhaseInfo
spawnDelay
RelayEventTargetEnemy
RelayEventCaptureTimer
RelayEventCapturedEnemy
RelayEventCaptures
gRegion
gRegion
_T
IsEliteAlert
ZERO_VECTOR
ZERO_ROTATION
gRegion
gGameRules
minEnemyLevel
maxEnemyLevel
_T
AssterminationAmbushIndices
AssterminationNextChokePoint
AssterminationChokePoints
pos
orient
AssterminationAmbushMiniBossIndices
vipAgent
gNpcDoorHintType
EMPTY_SYMBOL
table
Game
AVATAR_HEALTH_MAX
STACKING_MULTIPLY
ZERO_ROTATION
ASSTERMINATION: Ran out of tries to find points to spawn enemies
Unlock
AssterminationTotalEnemies
AssterminationAmbushSpawnRunning
AssterminationNextRoomPending
gRegion
gGameRules
maxEnemyLevel
EMPTY_SYMBOL
vipAgent
Game
AVATAR_HEALTH_MAX
STACKING_MULTIPLY
_T
gQuestMission
In a quest, so not creating Devoted Healer
gGameRules
gRegion
Already a Devoted Avatar present. Will not spawn another
y
Healer
                         
0001                     ** function [0] definition (level 1)
                         ** start of function **
0001  00                 string size (0)
                         source name: (none)
0002  00                 line defined (0)
0003  00                 last line defined (0)
0004  00                 nups (0)
0005  00                 numparams (0)
0006  02                 is_vararg (2)
0007  35                 maxstacksize (53)
                         * code:
0009  02                 sizecode (281)
000A  1D000000           [001] getglobal  0   0        ; 849075268
000E  59400000           [002] loadk      1   1        ; "EE.Interface.Utilities"
0012  22800001           [003] call       0   2   2  
0016  5D000000           [004] getglobal  1   0        ; 849075268
001A  99800000           [005] loadk      2   2        ; "Lotus.Interface.LotusUtilities"
001E  62800001           [006] call       1   2   2  
0022  9D000000           [007] getglobal  2   0        ; 849075268
0026  D9C00000           [008] loadk      3   3        ; "Lotus.Scripts.Libs.TransmissionSet"
002A  A2800001           [009] call       2   2   2  
002E  DD000000           [010] getglobal  3   0        ; 849075268
0032  19010100           [011] loadk      4   4        ; "Lotus.Scripts.Libs.EncounterLib"
0036  E2800001           [012] call       3   2   2  
003A  1D010000           [013] getglobal  4   0        ; 849075268
003E  59410100           [014] loadk      5   5        ; "Lotus.Interface.MissionRequirementUtilities"
0042  22810001           [015] call       4   2   2  
0046  5D010000           [016] getglobal  5   0        ; 849075268
004A  99810100           [017] loadk      6   6        ; "Lotus.Interface.WorldStateUtilities"
004E  62810001           [018] call       5   2   2  
0052  9DC10100           [019] getglobal  6   7        ; -332969190
0056  D9010200           [020] loadk      7   8        ; "FactionHunterSpawned"
005A  A2810001           [021] call       6   2   2  
005E  DDC10100           [022] getglobal  7   7        ; -332969190
0062  19420200           [023] loadk      8   9        ; "TimeElapsed"
0066  E2810001           [024] call       7   2   2  
006A  1DC20100           [025] getglobal  8   7        ; -332969190
006E  59820200           [026] loadk      9   10       ; "MissionBuilder"
0072  22820001           [027] call       8   2   2  
0076  5DC20100           [028] getglobal  9   7        ; -332969190
007A  99C20200           [029] loadk      10  11       ; "TENNO"
007E  62820001           [030] call       9   2   2  
0082  8B020000           [031] newtable   10  0   0    ; array=0, hash=0
0086  DD020300           [032] getglobal  11  12       ; -1247440829
008A  19430300           [033] loadk      12  13       ; 0
008E  59830300           [034] loadk      13  14       ; 0
0092  99C30300           [035] loadk      14  15       ; 0
0096  E2820002           [036] call       11  4   2  
009A  1D030300           [037] getglobal  12  12       ; -1247440829
009E  59030400           [038] loadk      13  16       ; 0
00A2  99430400           [039] loadk      14  17       ; 0
00A6  D9030400           [040] loadk      15  16       ; 0
00AA  22830002           [041] call       12  4   2  
00AE  57038000           [042] loadbool   13  1   0    ; true
00B2  97030000           [043] loadbool   14  0   0    ; false
00B6  DD830400           [044] getglobal  15  18       ; 738251817
00BA  19C40400           [045] loadk      16  19       ; "/Lotus/Types/Enemies/Corpus/Drones/AIWeek/CorpusEliteShieldDroneAgent"
00BE  E2830001           [046] call       15  2   2  
00C2  1D840400           [047] getglobal  16  18       ; 738251817
00C6  59040500           [048] loadk      17  20       ; "/Lotus/Fx/Explosions/DropPodExplosion"
00CA  22840001           [049] call       16  2   2  
00CE  5D840400           [050] getglobal  17  18       ; 738251817
00D2  99440500           [051] loadk      18  21       ; "/Lotus/Types/Gameplay/Arbitration/ReviveStationTrigger"
00D6  62840001           [052] call       17  2   2  
00DA  9D840400           [053] getglobal  18  18       ; 738251817
00DE  D9840500           [054] loadk      19  22       ; "/Lotus/Types/Gameplay/Arbitration/PlayerReviveStationState"
00E2  A2840001           [055] call       18  2   2  
00E6  DD840400           [056] getglobal  19  18       ; 738251817
00EA  19C50500           [057] loadk      20  23       ; "/Lotus/Types/Gameplay/Arbitration/GameState"
00EE  E2840001           [058] call       19  2   2  
00F2  0B050001           [059] newtable   20  2   0    ; array=2, hash=0
00F6  5D850400           [060] getglobal  21  18       ; 738251817
00FA  99050600           [061] loadk      22  24       ; "/Lotus/Types/Enemies/Infested/SpecialEvents/ArloZealotSwordAvatar"
00FE  62850001           [062] call       21  2   2  
0102  9D850400           [063] getglobal  22  18       ; 738251817
0106  D9450600           [064] loadk      23  25       ; "/Lotus/Types/Enemies/Infested/SpecialEvents/ArloZealotGunAvatar"
010A  A2850001           [065] call       22  2   2  
010E  DD850400           [066] getglobal  23  18       ; 738251817
0112  19860600           [067] loadk      24  26       ; "/Lotus/Types/Enemies/Infested/SpecialEvents/ArloZealotDual/ArloZealotDualSwordGunAvatar"
0116  E2050001           [068] call       23  2   0  
011A  1B450000           [069] setlist    20  0   1    ; index 1 to top
011E  5D850400           [070] getglobal  21  18       ; 738251817
0122  99C50600           [071] loadk      22  27       ; "/Lotus/StoreItems/Types/Items/SyndicateDogTags/NoraInfestedDogTag"
0126  62850001           [072] call       21  2   2  
012A  9D850400           [073] getglobal  22  18       ; 738251817
012E  D9050700           [074] loadk      23  28       ; "/Lotus/Sounds/Dialog/Nightwave/NoraWolfSaturnSix/DRandToken0230NoraNight"
0132  A2850001           [075] call       22  2   2  
0136  DD850400           [076] getglobal  23  18       ; 738251817
013A  19460700           [077] loadk      24  29       ; "/Lotus/Sounds/Dialog/Barks/Battle/GrineerWolf/GrnWolfSentientArriveHowls"
013E  E2850001           [078] call       23  2   2  
0142  1D860400           [079] getglobal  24  18       ; 738251817
0146  59860700           [080] loadk      25  30       ; "/Lotus/Fx/Enemies/Grineer/Wolf/WolfStalkerSpawnIn"
014A  22860001           [081] call       24  2   2  
014E  5D860400           [082] getglobal  25  18       ; 738251817
0152  99C60700           [083] loadk      26  31       ; "/Lotus/Types/DropTables/WolfSentientStalkerAlertAgentDropTable"
0156  62860001           [084] call       25  2   2  
015A  9D860400           [085] getglobal  26  18       ; 738251817
015E  D9060800           [086] loadk      27  32       ; "/Lotus/Types/Friendly/ArloDevotedHealerAgent"
0162  A2860001           [087] call       26  2   2  
0166  DD860400           [088] getglobal  27  18       ; 738251817
016A  19470800           [089] loadk      28  33       ; "/Lotus/Types/Friendly/ArloDevotedHealerAvatar"
016E  E2860001           [090] call       27  2   2  
0172  1D870400           [091] getglobal  28  18       ; 738251817
0176  59870800           [092] loadk      29  34       ; "/Lotus/Fx/Enemies/Stalker/StalkerSpawnIn"
017A  22870001           [093] call       28  2   2  
017E  5D870400           [094] getglobal  29  18       ; 738251817
0182  99C70800           [095] loadk      30  35       ; "/Lotus/Animations/Amalgam/CorpusPilot/Reincarnate_anim.fbx"
0186  62870001           [096] call       29  2   2  
018A  9D870400           [097] getglobal  30  18       ; 738251817
018E  D9070900           [098] loadk      31  36       ; "/Lotus/Weapons/Tenno/Rifle/SemiAutoRifle"
0192  A2870001           [099] call       30  2   2  
0196  DD870400           [100] getglobal  31  18       ; 738251817
019A  19480900           [101] loadk      32  37       ; "/Lotus/Types/Friendly/DevotedHealerShockwaveEntity"
019E  E2870001           [102] call       31  2   2  
01A2  1D880400           [103] getglobal  32  18       ; 738251817
01A6  59880900           [104] loadk      33  38       ; "/Lotus/Types/Gameplay/UniversalMissionHubScriptHelper"
01AA  22880001           [105] call       32  2   2  
01AE  5D880400           [106] getglobal  33  18       ; 738251817
01B2  99C80900           [107] loadk      34  39       ; "/Lotus/Types/Game/MarkerInfos/EnemyObjectiveMarkerInfo"
01B6  62880001           [108] call       33  2   2  
01BA  9DC80100           [109] getglobal  34  7        ; -332969190
01BE  D9080A00           [110] loadk      35  40       ; "ConvictSpawnCycle"
01C2  A2880001           [111] call       34  2   2  
01C6  DDC80100           [112] getglobal  35  7        ; -332969190
01CA  19490A00           [113] loadk      36  41       ; "ZealotEncounterLiveCount"
01CE  E2880001           [114] call       35  2   2  
01D2  1D890400           [115] getglobal  36  18       ; 738251817
01D6  59890A00           [116] loadk      37  42       ; "/Lotus/Types/DropTables/HyenaRazorbackAgentDropTable"
01DA  22890001           [117] call       36  2   2  
01DE  65090000           [118] closure    37  0      
01E2  12008001           [119] move       0   3      
01E6  60C90A00           [120] setglobal  37  43       ; OnLevelLoaded
01EA  60090B00           [121] setglobal  37  44       ; 1480604671
01EE  65490000           [122] closure    37  1      
01F2  12000006           [123] move       0   12     
01F6  12008005           [124] move       0   11     
01FA  A5890000           [125] closure    38  2      
01FE  12008003           [126] move       0   7      
0202  E5C90000           [127] closure    39  3      
0206  12008000           [128] move       0   1      
020A  250A0100           [129] closure    40  4      
020E  12008000           [130] move       0   1      
0212  12008007           [131] move       0   15     
0216  12000008           [132] move       0   16     
021A  12008008           [133] move       0   17     
021E  12000009           [134] move       0   18     
0222  12008009           [135] move       0   19     
0226  654A0100           [136] closure    41  5      
022A  12008002           [137] move       0   5      
022E  A58A0100           [138] closure    42  6      
0232  1200000A           [139] move       0   20     
0236  E5CA0100           [140] closure    43  7      
023A  12000015           [141] move       0   42     
023E  12008000           [142] move       0   1      
0242  250B0200           [143] closure    44  8      
0246  1200800A           [144] move       0   21     
024A  12008002           [145] move       0   5      
024E  12008015           [146] move       0   43     
0252  1200000B           [147] move       0   22     
0256  5D4B0B00           [148] getglobal  45  45       ; _T
025A  4C0B0B97           [149] settable   45  302 44   ; "OnConvictEliminated"
025E  654B0200           [150] closure    45  9      
0262  12008000           [151] move       0   1      
0266  1200800A           [152] move       0   21     
026A  1200000B           [153] move       0   22     
026E  12008015           [154] move       0   43     
0272  12000011           [155] move       0   34     
0276  12008014           [156] move       0   41     
027A  12000015           [157] move       0   42     
027E  12008011           [158] move       0   35     
0282  A58B0200           [159] closure    46  10     
0286  E5CB0200           [160] closure    47  11     
028A  12000000           [161] move       0   0      
028E  12008010           [162] move       0   33     
0292  12000017           [163] move       0   46     
0296  1200800B           [164] move       0   23     
029A  1200000C           [165] move       0   24     
029E  1200800C           [166] move       0   25     
02A2  12008000           [167] move       0   1      
02A6  250C0300           [168] closure    48  12     
02AA  12008012           [169] move       0   37     
02AE  12000013           [170] move       0   38     
02B2  12000007           [171] move       0   14     
02B6  12008013           [172] move       0   39     
02BA  12008000           [173] move       0   1      
02BE  12000014           [174] move       0   40     
02C2  12008016           [175] move       0   45     
02C6  12008017           [176] move       0   47     
02CA  12000010           [177] move       0   32     
02CE  12000005           [178] move       0   10     
02D2  12008006           [179] move       0   13     
02D6  20CC0B00           [180] setglobal  48  47       ; OnUpdate
02DA  200C0C00           [181] setglobal  48  48       ; -1493290172
02DE  254C0300           [182] closure    48  13     
02E2  12000005           [183] move       0   10     
02E6  204C0C00           [184] setglobal  48  49       ; OnPlayerConnected
02EA  208C0C00           [185] setglobal  48  50       ; -908207724
02EE  258C0300           [186] closure    48  14     
02F2  20CC0C00           [187] setglobal  48  51       ; OnPlayerDisconnected
02F6  200C0D00           [188] setglobal  48  52       ; -602321378
02FA  25CC0300           [189] closure    48  15     
02FE  204C0D00           [190] setglobal  48  53       ; NotifyPlayerEnteringSpace
0302  208C0D00           [191] setglobal  48  54       ; -1630393634
0306  250C0400           [192] closure    48  16     
030A  20CC0D00           [193] setglobal  48  55       ; NotifyPlayerLeavingSpace
030E  200C0E00           [194] setglobal  48  56       ; 1699930657
0312  254C0400           [195] closure    48  17     
0316  12008000           [196] move       0   1      
031A  204C0E00           [197] setglobal  48  57       ; OnAvatarChanged
031E  208C0E00           [198] setglobal  48  58       ; -930177230
0322  258C0400           [199] closure    48  18     
0326  12000003           [200] move       0   6      
032A  12008000           [201] move       0   1      
032E  12008002           [202] move       0   5      
0332  20CC0E00           [203] setglobal  48  59       ; OnPlayerSpawned
0336  200C0F00           [204] setglobal  48  60       ; -2127358586
033A  25CC0400           [205] closure    48  19     
033E  12000007           [206] move       0   14     
0342  12008000           [207] move       0   1      
0346  204C0F00           [208] setglobal  48  61       ; OnLocalAvatarCreated
034A  208C0F00           [209] setglobal  48  62       ; -401279259
034E  250C0500           [210] closure    48  20     
0352  20CC0F00           [211] setglobal  48  63       ; OnPreDeath
0356  200C1000           [212] setglobal  48  64       ; -1183521466
035A  254C0500           [213] closure    48  21     
035E  12008010           [214] move       0   33     
0362  658C0500           [215] closure    49  22     
0366  12000018           [216] move       0   48     
036A  604C1000           [217] setglobal  49  65       ; OnAssterminationDeath
036E  608C1000           [218] setglobal  49  66       ; 162524691
0372  65CC0500           [219] closure    49  23     
0376  12000001           [220] move       0   2      
037A  12008007           [221] move       0   15     
037E  12000018           [222] move       0   48     
0382  60CC1000           [223] setglobal  49  67       ; OnDeath
0386  600C1100           [224] setglobal  49  68       ; -988143666
038A  650C0600           [225] closure    49  24     
038E  12000002           [226] move       0   4      
0392  604C1100           [227] setglobal  49  69       ; CheckMissionRequirements
0396  608C1100           [228] setglobal  49  70       ; 974226769
039A  654C0600           [229] closure    49  25     
039E  60CC1100           [230] setglobal  49  71       ; ReceivedCustomRaidData
03A2  600C1200           [231] setglobal  49  72       ; -505411267
03A6  658C0600           [232] closure    49  26     
03AA  12008013           [233] move       0   39     
03AE  A5CC0600           [234] closure    50  27     
03B2  E50C0700           [235] closure    51  28     
03B6  12008007           [236] move       0   15     
03BA  E04C1200           [237] setglobal  51  73       ; SpawnEliteAlertDrone
03BE  E08C1200           [238] setglobal  51  74       ; 380902029
03C2  E54C0700           [239] closure    51  29     
03C6  12000008           [240] move       0   16     
03CA  E0CC1200           [241] setglobal  51  75       ; OnEliteAlertDroneDestroyed
03CE  E00C1300           [242] setglobal  51  76       ; -1705809416
03D2  E58C0700           [243] closure    51  30     
03D6  12000004           [244] move       0   8      
03DA  12008004           [245] move       0   9      
03DE  12008018           [246] move       0   49     
03E2  12000019           [247] move       0   50     
03E6  12008007           [248] move       0   15     
03EA  12000012           [249] move       0   36     
03EE  E04C1300           [250] setglobal  51  77       ; OnAgentCreated
03F2  E08C1300           [251] setglobal  51  78       ; 1104743078
03F6  DD4C0B00           [252] getglobal  51  45       ; _T
03FA  25CD0700           [253] closure    52  31     
03FE  CC0C8DA7           [254] settable   51  335 52   ; "ResetElementalVIP"
0402  E50C0800           [255] closure    51  32     
0406  E00C1400           [256] setglobal  51  80       ; CreateReviveStation
040A  E04C1400           [257] setglobal  51  81       ; -19971398
040E  E54C0800           [258] closure    51  33     
0412  12008009           [259] move       0   19     
0416  E08C1400           [260] setglobal  51  82       ; OnEliteAlertGameStateLoaded
041A  E0CC1400           [261] setglobal  51  83       ; -484161307
041E  E58C0800           [262] closure    51  34     
0422  12000017           [263] move       0   46     
0426  E00C1500           [264] setglobal  51  84       ; PopulateAssterminationAmbushRoom
042A  E04C1500           [265] setglobal  51  85       ; -1343198943
042E  E5CC0800           [266] closure    51  35     
0432  1200800C           [267] move       0   25     
0436  12000017           [268] move       0   46     
043A  1200800B           [269] move       0   23     
043E  E08C1500           [270] setglobal  51  86       ; InitAssterminationBoss
0442  E0CC1500           [271] setglobal  51  87       ; 1072569334
0446  E50C0900           [272] closure    51  36     
044A  1200000D           [273] move       0   26     
044E  1200000E           [274] move       0   28     
0452  1200800E           [275] move       0   29     
0456  1200000F           [276] move       0   30     
045A  1200800F           [277] move       0   31     
045E  1200800D           [278] move       0   27     
0462  E00C1600           [279] setglobal  51  88       ; SpawnDevotedHealer
0466  E04C1600           [280] setglobal  51  89       ; 1081604323
046A  1E008000           [281] return     0   1      
                         * constants:
046E  5A                 sizek (90)
046F  01                 const type 3
0470  44DC9B32           const [0]: (849075268)
0474  04                 const type 4
0475  17                 string size (23)
0476  45452E496E746572+  "EE.Inter"
047E  666163652E557469+  "face.Uti"
0486  6C697469657300     "lities\0"
                         const [1]: "EE.Interface.Utilities"
048D  04                 const type 4
048E  1F                 string size (31)
048F  4C6F7475732E496E+  "Lotus.In"
0497  746572666163652E+  "terface."
049F  4C6F747573557469+  "LotusUti"
04A7  6C697469657300     "lities\0"
                         const [2]: "Lotus.Interface.LotusUtilities"
04AE  04                 const type 4
04AF  23                 string size (35)
04B0  4C6F7475732E5363+  "Lotus.Sc"
04B8  72697074732E4C69+  "ripts.Li"
04C0  62732E5472616E73+  "bs.Trans"
04C8  6D697373696F6E53+  "missionS"
04D0  657400             "et\0"
                         const [3]: "Lotus.Scripts.Libs.TransmissionSet"
04D3  04                 const type 4
04D4  20                 string size (32)
04D5  4C6F7475732E5363+  "Lotus.Sc"
04DD  72697074732E4C69+  "ripts.Li"
04E5  62732E456E636F75+  "bs.Encou"
04ED  6E7465724C696200   "nterLib\0"
                         const [4]: "Lotus.Scripts.Libs.EncounterLib"
04F5  04                 const type 4
04F6  2C                 string size (44)
04F7  4C6F7475732E496E+  "Lotus.In"
04FF  746572666163652E+  "terface."
0507  4D697373696F6E52+  "MissionR"
050F  6571756972656D65+  "equireme"
0517  6E745574696C6974+  "ntUtilit"
051F  69657300           "ies\0"
                         const [5]: "Lotus.Interface.MissionRequirementUtilities"
0523  04                 const type 4
0524  24                 string size (36)
0525  4C6F7475732E496E+  "Lotus.In"
052D  746572666163652E+  "terface."
0535  576F726C64537461+  "WorldSta"
053D  74655574696C6974+  "teUtilit"
0545  69657300           "ies\0"
                         const [6]: "Lotus.Interface.WorldStateUtilities"
0549  01                 const type 3
054A  1A4B27EC           const [7]: (-332969190)
054E  04                 const type 4
054F  15                 string size (21)
0550  46616374696F6E48+  "FactionH"
0558  756E746572537061+  "unterSpa"
0560  776E656400         "wned\0"
                         const [8]: "FactionHunterSpawned"
0565  04                 const type 4
0566  0C                 string size (12)
0567  54696D65456C6170+  "TimeElap"
056F  73656400           "sed\0"
                         const [9]: "TimeElapsed"
0573  04                 const type 4
0574  0F                 string size (15)
0575  4D697373696F6E42+  "MissionB"
057D  75696C64657200     "uilder\0"
                         const [10]: "MissionBuilder"
0584  04                 const type 4
0585  06                 string size (6)
0586  54454E4E4F00       "TENNO\0"
                         const [11]: "TENNO"
058C  01                 const type 3
058D  4390A5B5           const [12]: (-1247440829)
0591  03                 const type 3
0592  00003543           const [13]: (0)
0596  03                 const type 3
0597  00005C43           const [14]: (0)
059B  03                 const type 3
059C  0000A042           const [15]: (0)
05A0  03                 const type 3
05A1  00004443           const [16]: (0)
05A5  03                 const type 3
05A6  00007F43           const [17]: (0)
05AA  01                 const type 3
05AB  29D4002C           const [18]: (738251817)
05AF  04                 const type 4
05B0  46                 string size (70)
05B1  2F4C6F7475732F54+  "/Lotus/T"
05B9  797065732F456E65+  "ypes/Ene"
05C1  6D6965732F436F72+  "mies/Cor"
05C9  7075732F44726F6E+  "pus/Dron"
05D1  65732F4149576565+  "es/AIWee"
05D9  6B2F436F72707573+  "k/Corpus"
05E1  456C697465536869+  "EliteShi"
05E9  656C6444726F6E65+  "eldDrone"
05F1  4167656E7400       "Agent\0"
                         const [19]: "/Lotus/Types/Enemies/Corpus/Drones/AIWeek/CorpusEliteShieldDroneAgent"
05F7  04                 const type 4
05F8  26                 string size (38)
05F9  2F4C6F7475732F46+  "/Lotus/F"
0601  782F4578706C6F73+  "x/Explos"
0609  696F6E732F44726F+  "ions/Dro"
0611  70506F644578706C+  "pPodExpl"
0619  6F73696F6E00       "osion\0"
                         const [20]: "/Lotus/Fx/Explosions/DropPodExplosion"
061F  04                 const type 4
0620  37                 string size (55)
0621  2F4C6F7475732F54+  "/Lotus/T"
0629  797065732F47616D+  "ypes/Gam"
0631  65706C61792F4172+  "eplay/Ar"
0639  626974726174696F+  "bitratio"
0641  6E2F526576697665+  "n/Revive"
0649  53746174696F6E54+  "StationT"
0651  72696767657200     "rigger\0"
                         const [21]: "/Lotus/Types/Gameplay/Arbitration/ReviveStationTrigger"
0658  04                 const type 4
0659  3B                 string size (59)
065A  2F4C6F7475732F54+  "/Lotus/T"
0662  797065732F47616D+  "ypes/Gam"
066A  65706C61792F4172+  "eplay/Ar"
0672  626974726174696F+  "bitratio"
067A  6E2F506C61796572+  "n/Player"
0682  5265766976655374+  "ReviveSt"
068A  6174696F6E537461+  "ationSta"
0692  746500             "te\0"
                         const [22]: "/Lotus/Types/Gameplay/Arbitration/PlayerReviveStationState"
0695  04                 const type 4
0696  2C                 string size (44)
0697  2F4C6F7475732F54+  "/Lotus/T"
069F  797065732F47616D+  "ypes/Gam"
06A7  65706C61792F4172+  "eplay/Ar"
06AF  626974726174696F+  "bitratio"
06B7  6E2F47616D655374+  "n/GameSt"
06BF  61746500           "ate\0"
                         const [23]: "/Lotus/Types/Gameplay/Arbitration/GameState"
06C3  04                 const type 4
06C4  42                 string size (66)
06C5  2F4C6F7475732F54+  "/Lotus/T"
06CD  797065732F456E65+  "ypes/Ene"
06D5  6D6965732F496E66+  "mies/Inf"
06DD  65737465642F5370+  "ested/Sp"
06E5  656369616C457665+  "ecialEve"
06ED  6E74732F41726C6F+  "nts/Arlo"
06F5  5A65616C6F745377+  "ZealotSw"
06FD  6F72644176617461+  "ordAvata"
0705  7200               "r\0"
                         const [24]: "/Lotus/Types/Enemies/Infested/SpecialEvents/ArloZealotSwordAvatar"
0707  04                 const type 4
0708  40                 string size (64)
0709  2F4C6F7475732F54+  "/Lotus/T"
0711  797065732F456E65+  "ypes/Ene"
0719  6D6965732F496E66+  "mies/Inf"
0721  65737465642F5370+  "ested/Sp"
0729  656369616C457665+  "ecialEve"
0731  6E74732F41726C6F+  "nts/Arlo"
0739  5A65616C6F744775+  "ZealotGu"
0741  6E41766174617200   "nAvatar\0"
                         const [25]: "/Lotus/Types/Enemies/Infested/SpecialEvents/ArloZealotGunAvatar"
0749  04                 const type 4
074A  58                 string size (88)
074B  2F4C6F7475732F54+  "/Lotus/T"
0753  797065732F456E65+  "ypes/Ene"
075B  6D6965732F496E66+  "mies/Inf"
0763  65737465642F5370+  "ested/Sp"
076B  656369616C457665+  "ecialEve"
0773  6E74732F41726C6F+  "nts/Arlo"
077B  5A65616C6F744475+  "ZealotDu"
0783  616C2F41726C6F5A+  "al/ArloZ"
078B  65616C6F74447561+  "ealotDua"
0793  6C53776F72644775+  "lSwordGu"
079B  6E41766174617200   "nAvatar\0"
                         const [26]: "/Lotus/Types/Enemies/Infested/SpecialEvents/ArloZealotDual/ArloZealotDualSwordGunAvatar"
07A3  04                 const type 4
07A4  42                 string size (66)
07A5  2F4C6F7475732F53+  "/Lotus/S"
07AD  746F72654974656D+  "toreItem"
07B5  732F54797065732F+  "s/Types/"
07BD  4974656D732F5379+  "Items/Sy"
07C5  6E64696361746544+  "ndicateD"
07CD  6F67546167732F4E+  "ogTags/N"
07D5  6F7261496E666573+  "oraInfes"
07DD  746564446F675461+  "tedDogTa"
07E5  6700               "g\0"
                         const [27]: "/Lotus/StoreItems/Types/Items/SyndicateDogTags/NoraInfestedDogTag"
07E7  04                 const type 4
07E8  49                 string size (73)
07E9  2F4C6F7475732F53+  "/Lotus/S"
07F1  6F756E64732F4469+  "ounds/Di"
07F9  616C6F672F4E6967+  "alog/Nig"
0801  6874776176652F4E+  "htwave/N"
0809  6F7261576F6C6653+  "oraWolfS"
0811  617475726E536978+  "aturnSix"
0819  2F4452616E64546F+  "/DRandTo"
0821  6B656E303233304E+  "ken0230N"
0829  6F72614E69676874+  "oraNight"
0831  00                 "\0"
                         const [28]: "/Lotus/Sounds/Dialog/Nightwave/NoraWolfSaturnSix/DRandToken0230NoraNight"
0832  04                 const type 4
0833  49                 string size (73)
0834  2F4C6F7475732F53+  "/Lotus/S"
083C  6F756E64732F4469+  "ounds/Di"
0844  616C6F672F426172+  "alog/Bar"
084C  6B732F426174746C+  "ks/Battl"
0854  652F4772696E6565+  "e/Grinee"
085C  72576F6C662F4772+  "rWolf/Gr"
0864  6E576F6C6653656E+  "nWolfSen"
086C  7469656E74417272+  "tientArr"
0874  697665486F776C73+  "iveHowls"
087C  00                 "\0"
                         const [29]: "/Lotus/Sounds/Dialog/Barks/Battle/GrineerWolf/GrnWolfSentientArriveHowls"
087D  04                 const type 4
087E  32                 string size (50)
087F  2F4C6F7475732F46+  "/Lotus/F"
0887  782F456E656D6965+  "x/Enemie"
088F  732F4772696E6565+  "s/Grinee"
0897  722F576F6C662F57+  "r/Wolf/W"
089F  6F6C665374616C6B+  "olfStalk"
08A7  6572537061776E49+  "erSpawnI"
08AF  6E00               "n\0"
                         const [30]: "/Lotus/Fx/Enemies/Grineer/Wolf/WolfStalkerSpawnIn"
08B1  04                 const type 4
08B2  3F                 string size (63)
08B3  2F4C6F7475732F54+  "/Lotus/T"
08BB  797065732F44726F+  "ypes/Dro"
08C3  705461626C65732F+  "pTables/"
08CB  576F6C6653656E74+  "WolfSent"
08D3  69656E745374616C+  "ientStal"
08DB  6B6572416C657274+  "kerAlert"
08E3  4167656E7444726F+  "AgentDro"
08EB  705461626C6500     "pTable\0"
                         const [31]: "/Lotus/Types/DropTables/WolfSentientStalkerAlertAgentDropTable"
08F2  04                 const type 4
08F3  2D                 string size (45)
08F4  2F4C6F7475732F54+  "/Lotus/T"
08FC  797065732F467269+  "ypes/Fri"
0904  656E646C792F4172+  "endly/Ar"
090C  6C6F4465766F7465+  "loDevote"
0914  644865616C657241+  "dHealerA"
091C  67656E7400         "gent\0"
                         const [32]: "/Lotus/Types/Friendly/ArloDevotedHealerAgent"
0921  04                 const type 4
0922  2E                 string size (46)
0923  2F4C6F7475732F54+  "/Lotus/T"
092B  797065732F467269+  "ypes/Fri"
0933  656E646C792F4172+  "endly/Ar"
093B  6C6F4465766F7465+  "loDevote"
0943  644865616C657241+  "dHealerA"
094B  766174617200       "vatar\0"
                         const [33]: "/Lotus/Types/Friendly/ArloDevotedHealerAvatar"
0951  04                 const type 4
0952  29                 string size (41)
0953  2F4C6F7475732F46+  "/Lotus/F"
095B  782F456E656D6965+  "x/Enemie"
0963  732F5374616C6B65+  "s/Stalke"
096B  722F5374616C6B65+  "r/Stalke"
0973  72537061776E496E+  "rSpawnIn"
097B  00                 "\0"
                         const [34]: "/Lotus/Fx/Enemies/Stalker/StalkerSpawnIn"
097C  04                 const type 4
097D  3B                 string size (59)
097E  2F4C6F7475732F41+  "/Lotus/A"
0986  6E696D6174696F6E+  "nimation"
098E  732F416D616C6761+  "s/Amalga"
0996  6D2F436F72707573+  "m/Corpus"
099E  50696C6F742F5265+  "Pilot/Re"
09A6  696E6361726E6174+  "incarnat"
09AE  655F616E696D2E66+  "e_anim.f"
09B6  627800             "bx\0"
                         const [35]: "/Lotus/Animations/Amalgam/CorpusPilot/Reincarnate_anim.fbx"
09B9  04                 const type 4
09BA  29                 string size (41)
09BB  2F4C6F7475732F57+  "/Lotus/W"
09C3  6561706F6E732F54+  "eapons/T"
09CB  656E6E6F2F526966+  "enno/Rif"
09D3  6C652F53656D6941+  "le/SemiA"
09DB  75746F5269666C65+  "utoRifle"
09E3  00                 "\0"
                         const [36]: "/Lotus/Weapons/Tenno/Rifle/SemiAutoRifle"
09E4  04                 const type 4
09E5  33                 string size (51)
09E6  2F4C6F7475732F54+  "/Lotus/T"
09EE  797065732F467269+  "ypes/Fri"
09F6  656E646C792F4465+  "endly/De"
09FE  766F746564486561+  "votedHea"
0A06  6C657253686F636B+  "lerShock"
0A0E  77617665456E7469+  "waveEnti"
0A16  747900             "ty\0"
                         const [37]: "/Lotus/Types/Friendly/DevotedHealerShockwaveEntity"
0A19  04                 const type 4
0A1A  36                 string size (54)
0A1B  2F4C6F7475732F54+  "/Lotus/T"
0A23  797065732F47616D+  "ypes/Gam"
0A2B  65706C61792F556E+  "eplay/Un"
0A33  6976657273616C4D+  "iversalM"
0A3B  697373696F6E4875+  "issionHu"
0A43  6253637269707448+  "bScriptH"
0A4B  656C70657200       "elper\0"
                         const [38]: "/Lotus/Types/Gameplay/UniversalMissionHubScriptHelper"
0A51  04                 const type 4
0A52  37                 string size (55)
0A53  2F4C6F7475732F54+  "/Lotus/T"
0A5B  797065732F47616D+  "ypes/Gam"
0A63  652F4D61726B6572+  "e/Marker"
0A6B  496E666F732F456E+  "Infos/En"
0A73  656D794F626A6563+  "emyObjec"
0A7B  746976654D61726B+  "tiveMark"
0A83  6572496E666F00     "erInfo\0"
                         const [39]: "/Lotus/Types/Game/MarkerInfos/EnemyObjectiveMarkerInfo"
0A8A  04                 const type 4
0A8B  12                 string size (18)
0A8C  436F6E7669637453+  "ConvictS"
0A94  7061776E4379636C+  "pawnCycl"
0A9C  6500               "e\0"
                         const [40]: "ConvictSpawnCycle"
0A9E  04                 const type 4
0A9F  19                 string size (25)
0AA0  5A65616C6F74456E+  "ZealotEn"
0AA8  636F756E7465724C+  "counterL"
0AB0  697665436F756E74+  "iveCount"
0AB8  00                 "\0"
                         const [41]: "ZealotEncounterLiveCount"
0AB9  04                 const type 4
0ABA  35                 string size (53)
0ABB  2F4C6F7475732F54+  "/Lotus/T"
0AC3  797065732F44726F+  "ypes/Dro"
0ACB  705461626C65732F+  "pTables/"
0AD3  4879656E6152617A+  "HyenaRaz"
0ADB  6F726261636B4167+  "orbackAg"
0AE3  656E7444726F7054+  "entDropT"
0AEB  61626C6500         "able\0"
                         const [42]: "/Lotus/Types/DropTables/HyenaRazorbackAgentDropTable"
0AF0  04                 const type 4
0AF1  0E                 string size (14)
0AF2  4F6E4C6576656C4C+  "OnLevelL"
0AFA  6F6164656400       "oaded\0"
                         const [43]: "OnLevelLoaded"
0B00  01                 const type 3
0B01  FF3B4058           const [44]: (1480604671)
0B05  04                 const type 4
0B06  03                 string size (3)
0B07  5F5400             "_T\0"
                         const [45]: "_T"
0B0A  04                 const type 4
0B0B  14                 string size (20)
0B0C  4F6E436F6E766963+  "OnConvic"
0B14  74456C696D696E61+  "tElimina"
0B1C  74656400           "ted\0"
                         const [46]: "OnConvictEliminated"
0B20  04                 const type 4
0B21  09                 string size (9)
0B22  4F6E557064617465+  "OnUpdate"
0B2A  00                 "\0"
                         const [47]: "OnUpdate"
0B2B  01                 const type 3
0B2C  4433FEA6           const [48]: (-1493290172)
0B30  04                 const type 4
0B31  12                 string size (18)
0B32  4F6E506C61796572+  "OnPlayer"
0B3A  436F6E6E65637465+  "Connecte"
0B42  6400               "d\0"
                         const [49]: "OnPlayerConnected"
0B44  01                 const type 3
0B45  94D9DDC9           const [50]: (-908207724)
0B49  04                 const type 4
0B4A  15                 string size (21)
0B4B  4F6E506C61796572+  "OnPlayer"
0B53  446973636F6E6E65+  "Disconne"
0B5B  6374656400         "cted\0"
                         const [51]: "OnPlayerDisconnected"
0B60  01                 const type 3
0B61  1E4E19DC           const [52]: (-602321378)
0B65  04                 const type 4
0B66  1A                 string size (26)
0B67  4E6F74696679506C+  "NotifyPl"
0B6F  61796572456E7465+  "ayerEnte"
0B77  72696E6753706163+  "ringSpac"
0B7F  6500               "e\0"
                         const [53]: "NotifyPlayerEnteringSpace"
0B81  01                 const type 3
0B82  DE2AD29E           const [54]: (-1630393634)
0B86  04                 const type 4
0B87  19                 string size (25)
0B88  4E6F74696679506C+  "NotifyPl"
0B90  617965724C656176+  "ayerLeav"
0B98  696E675370616365+  "ingSpace"
0BA0  00                 "\0"
                         const [55]: "NotifyPlayerLeavingSpace"
0BA1  01                 const type 3
0BA2  21E25265           const [56]: (1699930657)
0BA6  04                 const type 4
0BA7  10                 string size (16)
0BA8  4F6E417661746172+  "OnAvatar"
0BB0  4368616E67656400   "Changed\0"
                         const [57]: "OnAvatarChanged"
0BB8  01                 const type 3
0BB9  329F8EC8           const [58]: (-930177230)
0BBD  04                 const type 4
0BBE  10                 string size (16)
0BBF  4F6E506C61796572+  "OnPlayer"
0BC7  537061776E656400   "Spawned\0"
                         const [59]: "OnPlayerSpawned"
0BCF  01                 const type 3
0BD0  86153381           const [60]: (-2127358586)
0BD4  04                 const type 4
0BD5  15                 string size (21)
0BD6  4F6E4C6F63616C41+  "OnLocalA"
0BDE  7661746172437265+  "vatarCre"
0BE6  6174656400         "ated\0"
                         const [61]: "OnLocalAvatarCreated"
0BEB  01                 const type 3
0BEC  E5F614E8           const [62]: (-401279259)
0BF0  04                 const type 4
0BF1  0B                 string size (11)
0BF2  4F6E507265446561+  "OnPreDea"
0BFA  746800             "th\0"
                         const [63]: "OnPreDeath"
0BFD  01                 const type 3
0BFE  46E574B9           const [64]: (-1183521466)
0C02  04                 const type 4
0C03  16                 string size (22)
0C04  4F6E417373746572+  "OnAsster"
0C0C  6D696E6174696F6E+  "mination"
0C14  446561746800       "Death\0"
                         const [65]: "OnAssterminationDeath"
0C1A  01                 const type 3
0C1B  13EEAF09           const [66]: (162524691)
0C1F  04                 const type 4
0C20  08                 string size (8)
0C21  4F6E446561746800   "OnDeath\0"
                         const [67]: "OnDeath"
0C29  01                 const type 3
0C2A  CE1F1AC5           const [68]: (-988143666)
0C2E  04                 const type 4
0C2F  19                 string size (25)
0C30  436865636B4D6973+  "CheckMis"
0C38  73696F6E52657175+  "sionRequ"
0C40  6972656D656E7473+  "irements"
0C48  00                 "\0"
                         const [69]: "CheckMissionRequirements"
0C49  01                 const type 3
0C4A  5185113A           const [70]: (974226769)
0C4E  04                 const type 4
0C4F  17                 string size (23)
0C50  5265636569766564+  "Received"
0C58  437573746F6D5261+  "CustomRa"
0C60  69644461746100     "idData\0"
                         const [71]: "ReceivedCustomRaidData"
0C67  01                 const type 3
0C68  3D09E0E1           const [72]: (-505411267)
0C6C  04                 const type 4
0C6D  15                 string size (21)
0C6E  537061776E456C69+  "SpawnEli"
0C76  7465416C65727444+  "teAlertD"
0C7E  726F6E6500         "rone\0"
                         const [73]: "SpawnEliteAlertDrone"
0C83  01                 const type 3
0C84  8D1AB416           const [74]: (380902029)
0C88  04                 const type 4
0C89  1B                 string size (27)
0C8A  4F6E456C69746541+  "OnEliteA"
0C92  6C65727444726F6E+  "lertDron"
0C9A  6544657374726F79+  "eDestroy"
0CA2  656400             "ed\0"
                         const [75]: "OnEliteAlertDroneDestroyed"
0CA5  01                 const type 3
0CA6  F869539A           const [76]: (-1705809416)
0CAA  04                 const type 4
0CAB  0F                 string size (15)
0CAC  4F6E4167656E7443+  "OnAgentC"
0CB4  72656174656400     "reated\0"
                         const [77]: "OnAgentCreated"
0CBB  01                 const type 3
0CBC  A60AD941           const [78]: (1104743078)
0CC0  04                 const type 4
0CC1  12                 string size (18)
0CC2  5265736574456C65+  "ResetEle"
0CCA  6D656E74616C5649+  "mentalVI"
0CD2  5000               "P\0"
                         const [79]: "ResetElementalVIP"
0CD4  04                 const type 4
0CD5  14                 string size (20)
0CD6  4372656174655265+  "CreateRe"
0CDE  7669766553746174+  "viveStat"
0CE6  696F6E00           "ion\0"
                         const [80]: "CreateReviveStation"
0CEA  01                 const type 3
0CEB  BA42CFFE           const [81]: (-19971398)
0CEF  04                 const type 4
0CF0  1C                 string size (28)
0CF1  4F6E456C69746541+  "OnEliteA"
0CF9  6C65727447616D65+  "lertGame"
0D01  53746174654C6F61+  "StateLoa"
0D09  64656400           "ded\0"
                         const [82]: "OnEliteAlertGameStateLoaded"
0D0D  01                 const type 3
0D0E  E54824E3           const [83]: (-484161307)
0D12  04                 const type 4
0D13  21                 string size (33)
0D14  506F70756C617465+  "Populate"
0D1C  4173737465726D69+  "Asstermi"
0D24  6E6174696F6E416D+  "nationAm"
0D2C  62757368526F6F6D+  "bushRoom"
0D34  00                 "\0"
                         const [84]: "PopulateAssterminationAmbushRoom"
0D35  01                 const type 3
0D36  2169F0AF           const [85]: (-1343198943)
0D3A  04                 const type 4
0D3B  17                 string size (23)
0D3C  496E697441737374+  "InitAsst"
0D44  65726D696E617469+  "erminati"
0D4C  6F6E426F737300     "onBoss\0"
                         const [86]: "InitAssterminationBoss"
0D53  01                 const type 3
0D54  F61BEE3F           const [87]: (1072569334)
0D58  04                 const type 4
0D59  13                 string size (19)
0D5A  537061776E446576+  "SpawnDev"
0D62  6F7465644865616C+  "otedHeal"
0D6A  657200             "er\0"
                         const [88]: "SpawnDevotedHealer"
0D6D  01                 const type 3
0D6E  E3F87740           const [89]: (1081604323)
                         * functions:
0D72  25                 sizep (37)
                         
0D73                     ** function [0] definition (level 2)
                         ** start of function **
0D73  00                 string size (0)
                         source name: (none)
0D74  41                 line defined (65)
0D75  43                 last line defined (67)
0D76  01                 nups (1)
0D77  01                 numparams (1)
0D78  00                 is_vararg (0)
0D79  02                 maxstacksize (2)
                         * code:
0D7A  04                 sizecode (4)
0D7B  53000000           [1] getupval   1   0      
0D7F  4E00C000           [2] gettable   1   1   256  ; 604716203
0D83  62408000           [3] call       1   1   1  
0D87  1E008000           [4] return     0   1      
                         * constants:
0D8B  01                 sizek (1)
0D8C  01                 const type 3
0D8D  AB3C0B24           const [0]: (604716203)
                         * functions:
0D91  00                 sizep (0)
                         * lines:
0D92  04                 sizelineinfo (4)
                         [pc] (line)
0D93  42                 [1] (66)
0D94  00                 [2] (66)
0D95  00                 [3] (66)
0D96  00                 [4] (67)
                         * locals:
0DA3  00                 sizelocvars (0)
                         * upvalues:
0DA4  00                 sizeupvalues (0)
                         ** end of function **

                         
0DA5                     ** function [1] definition (level 2)
                         ** start of function **
0DA5  00                 string size (0)
                         source name: (none)
0DA6  45                 line defined (69)
0DA7  4E                 last line defined (78)
0DA8  02                 nups (2)
0DA9  00                 numparams (0)
0DAA  00                 is_vararg (0)
0DAB  05                 maxstacksize (5)
                         * code:
0DAC  22                 sizecode (34)
0DAD  1D000000           [01] getglobal  0   0        ; _T
0DB1  0E404000           [02] gettable   0   0   257  ; "EnvRadiationGlowActive"
0DB5  18000000           [03] test       0       0    ; to [5] if true
0DB9  1A000780           [04] jmp        29           ; to [34]
0DBD  1D800000           [05] getglobal  0   2        ; gRegion
0DC1  24C04000           [06] self       0   0   259  ; -1456226250
0DC5  22800001           [07] call       0   2   2  
0DC9  0E004100           [08] gettable   0   0   260  ; "postProcess"
0DCD  5D800100           [09] getglobal  1   6        ; math
0DD1  4EC0C100           [10] gettable   1   1   263  ; -113279800
0DD5  9D800100           [11] getglobal  2   6        ; math
0DD9  8E004201           [12] gettable   2   2   264  ; -1153493898
0DDD  DD400200           [13] getglobal  3   9        ; -1577254049
0DE1  1D810200           [14] getglobal  4   10       ; 1491452635
0DE5  22818000           [15] call       4   1   2  
0DE9  04C14202           [16] mul        4   4   267  ; -51
0DED  E2800001           [17] call       3   2   2  
0DF1  1D810100           [18] getglobal  4   6        ; math
0DF5  0E014302           [19] gettable   4   4   268  ; "pi"
0DF9  C4008101           [20] mul        3   3   4  
0DFD  C440C301           [21] mul        3   3   269  ; 0
0E01  A2000001           [22] call       2   2   0  
0E05  62800000           [23] call       1   0   2  
0E09  4480C300           [24] mul        1   1   270  ; 0
0E0D  43408087           [25] add        1   271 1    ; 0
0E11  0C408082           [26] settable   0   261 1    ; "saturation"
0E15  53000000           [27] getupval   1   0      
0E19  0C400088           [28] settable   0   272 1    ; "desaturateColor"
0E1D  53008000           [29] getupval   1   1      
0E21  0C408088           [30] settable   0   273 1    ; "fogColor"
0E25  0CC04389           [31] settable   0   274 271  ; "distanceFogDensity" 0
0E29  53008000           [32] getupval   1   1      
0E2D  0C408089           [33] settable   0   275 1    ; "lightMapTint"
0E31  1E008000           [34] return     0   1      
                         * constants:
0E35  14                 sizek (20)
0E36  04                 const type 4
0E37  03                 string size (3)
0E38  5F5400             "_T\0"
                         const [0]: "_T"
0E3B  04                 const type 4
0E3C  17                 string size (23)
0E3D  456E765261646961+  "EnvRadia"
0E45  74696F6E476C6F77+  "tionGlow"
0E4D  41637469766500     "Active\0"
                         const [1]: "EnvRadiationGlowActive"
0E54  04                 const type 4
0E55  08                 string size (8)
0E56  67526567696F6E00   "gRegion\0"
                         const [2]: "gRegion"
0E5E  01                 const type 3
0E5F  36C033A9           const [3]: (-1456226250)
0E63  04                 const type 4
0E64  0C                 string size (12)
0E65  706F737450726F63+  "postProc"
0E6D  65737300           "ess\0"
                         const [4]: "postProcess"
0E71  04                 const type 4
0E72  0B                 string size (11)
0E73  7361747572617469+  "saturati"
0E7B  6F6E00             "on\0"
                         const [5]: "saturation"
0E7E  04                 const type 4
0E7F  05                 string size (5)
0E80  6D61746800         "math\0"
                         const [6]: "math"
0E85  01                 const type 3
0E86  C87C3FF9           const [7]: (-113279800)
0E8A  01                 const type 3
0E8B  76143FBB           const [8]: (-1153493898)
0E8F  01                 const type 3
0E90  5F03FDA1           const [9]: (-1577254049)
0E94  01                 const type 3
0E95  DBC2E558           const [10]: (1491452635)
0E99  03                 const type 3
0E9A  CDCCCC3D           const [11]: (-51)
0E9E  04                 const type 4
0E9F  03                 string size (3)
0EA0  706900             "pi\0"
                         const [12]: "pi"
0EA3  03                 const type 3
0EA4  00000040           const [13]: (0)
0EA8  03                 const type 3
0EA9  0000403F           const [14]: (0)
0EAD  03                 const type 3
0EAE  0000803E           const [15]: (0)
0EB2  04                 const type 4
0EB3  10                 string size (16)
0EB4  6465736174757261+  "desatura"
0EBC  7465436F6C6F7200   "teColor\0"
                         const [16]: "desaturateColor"
0EC4  04                 const type 4
0EC5  09                 string size (9)
0EC6  666F67436F6C6F72+  "fogColor"
0ECE  00                 "\0"
                         const [17]: "fogColor"
0ECF  04                 const type 4
0ED0  13                 string size (19)
0ED1  64697374616E6365+  "distance"
0ED9  466F6744656E7369+  "FogDensi"
0EE1  747900             "ty\0"
                         const [18]: "distanceFogDensity"
0EE4  04                 const type 4
0EE5  0D                 string size (13)
0EE6  6C696768744D6170+  "lightMap"
0EEE  54696E7400         "Tint\0"
                         const [19]: "lightMapTint"
                         * functions:
0EF3  00                 sizep (0)
                         * lines:
0EF4  22                 sizelineinfo (34)
                         [pc] (line)
0EF5  46                 [01] (70)
0EF6  00                 [02] (70)
0EF7  00                 [03] (70)
0EF8  00                 [04] (70)
0EF9  46                 [05] (71)
0EFA  00                 [06] (71)
0EFB  00                 [07] (71)
0EFC  00                 [08] (71)
0EFD  46                 [09] (72)
0EFE  00                 [10] (72)
0EFF  00                 [11] (72)
0F00  00                 [12] (72)
0F01  46                 [13] (72)
0F02  00                 [14] (72)
0F03  00                 [15] (72)
0F04  00                 [16] (72)
0F05  47                 [17] (72)
0F06  00                 [18] (72)
0F07  00                 [19] (72)
0F08  00                 [20] (72)
0F09  47                 [21] (72)
0F0A  00                 [22] (72)
0F0B  00                 [23] (72)
0F0C  00                 [24] (72)
0F0D  47                 [25] (72)
0F0E  00                 [26] (72)
0F0F  00                 [27] (73)
0F10  00                 [28] (73)
0F11  47                 [29] (74)
0F12  00                 [30] (74)
0F13  00                 [31] (75)
0F14  00                 [32] (76)
0F15  48                 [33] (76)
0F16  00                 [34] (78)
                         * locals:
0F7D  00                 sizelocvars (0)
                         * upvalues:
0F7E  00                 sizeupvalues (0)
                         ** end of function **

                         
0F7F                     ** function [2] definition (level 2)
                         ** start of function **
0F7F  00                 string size (0)
                         source name: (none)
0F80  50                 line defined (80)
0F81  5B                 last line defined (91)
0F82  01                 nups (1)
0F83  01                 numparams (1)
0F84  00                 is_vararg (0)
0F85  06                 maxstacksize (6)
                         * code:
0F86  24                 sizecode (36)
0F87  5D000000           [01] getglobal  1   0        ; _T
0F8B  4E40C000           [02] gettable   1   1   257  ; "MissionTimeAttackTracker"
0F8F  58000000           [03] test       1       0    ; to [5] if true
0F93  1A800780           [04] jmp        31           ; to [36]
0F97  5D000000           [05] getglobal  1   0        ; _T
0F9B  4E80C000           [06] gettable   1   1   258  ; "MissionTimeAttackActive"
0F9F  58000000           [07] test       1       0    ; to [9] if true
0FA3  1A800680           [08] jmp        27           ; to [36]
0FA7  5D000000           [09] getglobal  1   0        ; _T
0FAB  9D000000           [10] getglobal  2   0        ; _T
0FAF  8EC04001           [11] gettable   2   2   259  ; "MissionTimeAttackValue"
0FB3  83000001           [12] add        2   2   0  
0FB7  4C808081           [13] settable   1   259 2    ; "MissionTimeAttackValue"
0FBB  5D000100           [14] getglobal  1   4        ; math
0FBF  4E40C100           [15] gettable   1   1   261  ; -150971781
0FC3  9D000000           [16] getglobal  2   0        ; _T
0FC7  8EC04001           [17] gettable   2   2   259  ; "MissionTimeAttackValue"
0FCB  62800001           [18] call       1   2   2  
0FCF  9D800100           [19] getglobal  2   6        ; gGameRules
0FD3  A4C04101           [20] self       2   2   263  ; -317790213
0FD7  13010000           [21] getupval   4   0      
0FDB  59010200           [22] loadk      5   8        ; 0
0FDF  A2800002           [23] call       2   4   2  
fail op	21
0FE3  15400001           [24] concat     0   2   1  
0FE7  1A400280           [25] jmp        10           ; to [36]
0FEB  9D800100           [26] getglobal  2   6        ; gGameRules
0FEF  A4404201           [27] self       2   2   265  ; -803877924
0FF3  13010000           [28] getupval   4   0      
0FF7  52018000           [29] move       5   1      
0FFB  A2400002           [30] call       2   4   1  
0FFF  9D000000           [31] getglobal  2   0        ; _T
1003  8E404001           [32] gettable   2   2   257  ; "MissionTimeAttackTracker"
1007  8E804201           [33] gettable   2   2   266  ; 1731445362
100B  D2008000           [34] move       3   1      
100F  A2400001           [35] call       2   2   1  
1013  1E008000           [36] return     0   1      
                         * constants:
1017  0B                 sizek (11)
1018  04                 const type 4
1019  03                 string size (3)
101A  5F5400             "_T\0"
                         const [0]: "_T"
101D  04                 const type 4
101E  19                 string size (25)
101F  4D697373696F6E54+  "MissionT"
1027  696D654174746163+  "imeAttac"
102F  6B547261636B6572+  "kTracker"
1037  00                 "\0"
                         const [1]: "MissionTimeAttackTracker"
1038  04                 const type 4
1039  18                 string size (24)
103A  4D697373696F6E54+  "MissionT"
1042  696D654174746163+  "imeAttac"
104A  6B41637469766500   "kActive\0"
                         const [2]: "MissionTimeAttackActive"
1052  04                 const type 4
1053  17                 string size (23)
1054  4D697373696F6E54+  "MissionT"
105C  696D654174746163+  "imeAttac"
1064  6B56616C756500     "kValue\0"
                         const [3]: "MissionTimeAttackValue"
106B  04                 const type 4
106C  05                 string size (5)
106D  6D61746800         "math\0"
                         const [4]: "math"
1072  01                 const type 3
1073  7B5A00F7           const [5]: (-150971781)
1077  04                 const type 4
1078  0B                 string size (11)
1079  6747616D6552756C+  "gGameRul"
1081  657300             "es\0"
                         const [6]: "gGameRules"
1084  01                 const type 3
1085  FBE70EED           const [7]: (-317790213)
1089  03                 const type 3
108A  00000000           const [8]: (0)
108E  01                 const type 3
108F  DCCB15D0           const [9]: (-803877924)
1093  01                 const type 3
1094  72C23367           const [10]: (1731445362)
                         * functions:
1098  00                 sizep (0)
                         * lines:
1099  24                 sizelineinfo (36)
                         [pc] (line)
109A  51                 [01] (81)
109B  00                 [02] (81)
109C  00                 [03] (81)
109D  00                 [04] (81)
109E  51                 [05] (81)
109F  00                 [06] (81)
10A0  00                 [07] (81)
10A1  00                 [08] (81)
10A2  51                 [09] (83)
10A3  00                 [10] (83)
10A4  00                 [11] (83)
10A5  00                 [12] (83)
10A6  51                 [13] (83)
10A7  00                 [14] (85)
10A8  00                 [15] (85)
10A9  00                 [16] (85)
10AA  51                 [17] (85)
10AB  00                 [18] (85)
10AC  00                 [19] (86)
10AD  00                 [20] (86)
10AE  51                 [21] (86)
10AF  00                 [22] (86)
10B0  00                 [23] (86)
10B1  00                 [24] (86)
10B2  51                 [25] (86)
10B3  00                 [26] (87)
10B4  00                 [27] (87)
10B5  00                 [28] (87)
10B6  51                 [29] (87)
10B7  00                 [30] (87)
10B8  00                 [31] (88)
10B9  00                 [32] (88)
10BA  53                 [33] (88)
10BB  00                 [34] (88)
10BC  00                 [35] (88)
10BD  00                 [36] (91)
                         * locals:
112A  00                 sizelocvars (0)
                         * upvalues:
112B  00                 sizeupvalues (0)
                         ** end of function **

                         
112C                     ** function [3] definition (level 2)
                         ** start of function **
112C  00                 string size (0)
                         source name: (none)
112D  5D                 line defined (93)
112E  7D                 last line defined (125)
112F  01                 nups (1)
1130  00                 numparams (0)
1131  00                 is_vararg (0)
1132  0C                 maxstacksize (12)
                         * code:
1133  48                 sizecode (72)
1134  1D000000           [01] getglobal  0   0        ; _T
1138  0C80C080           [02] settable   0   257 258  ; "RelayEventTimerActive" 0
113C  13000000           [03] getupval   0   0      
1140  0EC04000           [04] gettable   0   0   259  ; 1300753914
1144  5D000100           [05] getglobal  1   4        ; gGameRules
1148  6440C100           [06] self       1   1   261  ; -1201441975
114C  62000001           [07] call       1   2   0  
1150  22C00000           [08] call       0   0   3  
1154  18000000           [09] test       0       0    ; to [11] if true
1158  1A000F80           [10] jmp        61           ; to [72]
115C  9D800100           [11] getglobal  2   6        ; gGameConfig
1160  A4C04101           [12] self       2   2   263  ; 44834797
1164  A2800001           [13] call       2   2   2  
1168  DD000000           [14] getglobal  3   0        ; _T
116C  0B810100           [15] newtable   4   0   6    ; array=0, hash=6
1170  5D810200           [16] getglobal  5   10       ; -895206725
1174  8E414201           [17] gettable   6   2   265  ; "enhancement"
1178  62810001           [18] call       5   2   2  
117C  0C418184           [19] settable   4   265 5    ; "enhancement"
1180  5D010300           [20] getglobal  5   12       ; 2083004503
1184  8EC14201           [21] gettable   6   2   267  ; "item"
1188  62810001           [22] call       5   2   2  
118C  0C418185           [23] settable   4   267 5    ; "item"
1190  0C81C386           [24] settable   4   269 270  ; "itemAmount" 0
1194  5D810200           [25] getglobal  5   10       ; -895206725
1198  8E014401           [26] gettable   6   2   272  ; "enemyMarkerType"
119C  62810001           [27] call       5   2   2  
11A0  0C418187           [28] settable   4   271 5    ; "marker"
11A4  4E814401           [29] gettable   5   2   274  ; "enemySpawnTransmission"
11A8  0C418188           [30] settable   4   273 5    ; "transmission"
11AC  4B010001           [31] newtable   5   2   0    ; array=2, hash=0
11B0  8441008A           [32] mul        6   276 1    ; 0
11B4  C441808A           [33] mul        7   277 1    ; 0
11B8  5B410001           [34] setlist    5   2   1    ; index 1 to 2
11BC  0C418189           [35] settable   4   275 5    ; "spawnDelay"
11C0  CC000184           [36] settable   3   264 4    ; "RelayEventPhaseInfo"
11C4  D3000000           [37] getupval   3   0      
11C8  CE80C501           [38] gettable   3   3   278  ; -1153782542
11CC  E2808000           [39] call       3   1   2  
11D0  E4C0C501           [40] self       3   3   279  ; -551469855
11D4  5D010100           [41] getglobal  5   4        ; gGameRules
11D8  6441C102           [42] self       5   5   261  ; -1201441975
11DC  62810001           [43] call       5   2   2  
11E0  4E01C602           [44] gettable   5   5   280  ; "location"
11E4  E2808001           [45] call       3   3   2  
11E8  CE40C601           [46] gettable   3   3   281  ; "region"
11EC  0E814601           [47] gettable   4   2   282  ; "regions"
11F0  59810300           [48] loadk      5   14       ; 0
11F4  8A010002           [49] len        6   4      
11F8  D9810300           [50] loadk      7   14       ; 0
11FC  50810180           [51] forprep    5   7        ; to [59]
1200  4E020202           [52] gettable   9   4   8  
fail op	35
1204  23C08004           [53] close      0  
1208  1AC00080           [54] jmp        4            ; to [59]
120C  5D020000           [55] getglobal  9   0        ; _T
1210  4E02C204           [56] gettable   9   9   264  ; "RelayEventPhaseInfo"
1214  4C028286           [57] settable   9   269 8    ; "itemAmount"
1218  1A000080           [58] jmp        1            ; to [60]
121C  54C1FD7F           [59] forloop    5   -8       ; to [52] if loop
1220  5D020000           [60] getglobal  9   0        ; _T
1224  4EC2C604           [61] gettable   9   9   283  ; -560001059
1228  62428000           [62] call       9   1   1  
122C  5D020000           [63] getglobal  9   0        ; _T
1230  4E02C204           [64] gettable   9   9   264  ; "RelayEventPhaseInfo"
1234  4EC2C404           [65] gettable   9   9   275  ; "spawnDelay"
1238  9D020000           [66] getglobal  10  0        ; _T
123C  8E024205           [67] gettable   10  10  264  ; "RelayEventPhaseInfo"
1240  8EC24405           [68] gettable   10  10  275  ; "spawnDelay"
1244  D9420700           [69] loadk      11  29       ; 0
1248  8C82478E           [70] settable   10  284 286  ; 0 0
124C  4CC20287           [71] settable   9   270 11   ; 0
1250  1E008000           [72] return     0   1      
                         * constants:
1254  1F                 sizek (31)
1255  04                 const type 4
1256  03                 string size (3)
1257  5F5400             "_T\0"
                         const [0]: "_T"
125A  04                 const type 4
125B  16                 string size (22)
125C  52656C6179457665+  "RelayEve"
1264  6E7454696D657241+  "ntTimerA"
126C  637469766500       "ctive\0"
                         const [1]: "RelayEventTimerActive"
1272  01                 const type 3
1273  00000000           const [2]: (0)
1277  01                 const type 3
1278  FAED874D           const [3]: (1300753914)
127C  04                 const type 4
127D  0B                 string size (11)
127E  6747616D6552756C+  "gGameRul"
1286  657300             "es\0"
                         const [4]: "gGameRules"
1289  01                 const type 3
128A  497363B8           const [5]: (-1201441975)
128E  04                 const type 4
128F  0C                 string size (12)
1290  6747616D65436F6E+  "gGameCon"
1298  66696700           "fig\0"
                         const [6]: "gGameConfig"
129C  01                 const type 3
129D  ED1FAC02           const [7]: (44834797)
12A1  04                 const type 4
12A2  14                 string size (20)
12A3  52656C6179457665+  "RelayEve"
12AB  6E74506861736549+  "ntPhaseI"
12B3  6E666F00           "nfo\0"
                         const [8]: "RelayEventPhaseInfo"
12B7  04                 const type 4
12B8  0C                 string size (12)
12B9  656E68616E63656D+  "enhancem"
12C1  656E7400           "ent\0"
                         const [9]: "enhancement"
12C5  01                 const type 3
12C6  BB3AA4CA           const [10]: (-895206725)
12CA  04                 const type 4
12CB  05                 string size (5)
12CC  6974656D00         "item\0"
                         const [11]: "item"
12D1  01                 const type 3
12D2  5720287C           const [12]: (2083004503)
12D6  04                 const type 4
12D7  0B                 string size (11)
12D8  6974656D416D6F75+  "itemAmou"
12E0  6E7400             "nt\0"
                         const [13]: "itemAmount"
12E3  03                 const type 3
12E4  0000803F           const [14]: (0)
12E8  04                 const type 4
12E9  07                 string size (7)
12EA  6D61726B657200     "marker\0"
                         const [15]: "marker"
12F1  04                 const type 4
12F2  10                 string size (16)
12F3  656E656D794D6172+  "enemyMar"
12FB  6B65725479706500   "kerType\0"
                         const [16]: "enemyMarkerType"
1303  04                 const type 4
1304  0D                 string size (13)
1305  7472616E736D6973+  "transmis"
130D  73696F6E00         "sion\0"
                         const [17]: "transmission"
1312  04                 const type 4
1313  17                 string size (23)
1314  656E656D79537061+  "enemySpa"
131C  776E5472616E736D+  "wnTransm"
1324  697373696F6E00     "ission\0"
                         const [18]: "enemySpawnTransmission"
132B  04                 const type 4
132C  0B                 string size (11)
132D  737061776E44656C+  "spawnDel"
1335  617900             "ay\0"
                         const [19]: "spawnDelay"
1338  03                 const type 3
1339  0000B442           const [20]: (0)
133D  03                 const type 3
133E  0000F042           const [21]: (0)
1342  01                 const type 3
1343  F2AC3ABB           const [22]: (-1153782542)
1347  01                 const type 3
1348  E13C21DF           const [23]: (-551469855)
134C  04                 const type 4
134D  09                 string size (9)
134E  6C6F636174696F6E+  "location"
1356  00                 "\0"
                         const [24]: "location"
1357  04                 const type 4
1358  07                 string size (7)
1359  726567696F6E00     "region\0"
                         const [25]: "region"
1360  04                 const type 4
1361  08                 string size (8)
1362  726567696F6E7300   "regions\0"
                         const [26]: "regions"
136A  01                 const type 3
136B  DD0F9FDE           const [27]: (-560001059)
136F  03                 const type 3
1370  00000040           const [28]: (0)
1374  03                 const type 3
1375  00009643           const [29]: (0)
1379  03                 const type 3
137A  00001644           const [30]: (0)
                         * functions:
137E  00                 sizep (0)
                         * lines:
137F  48                 sizelineinfo (72)
                         [pc] (line)
1380  5F                 [01] (95)
1381  00                 [02] (95)
1382  00                 [03] (97)
1383  00                 [04] (97)
1384  5F                 [05] (97)
1385  00                 [06] (97)
1386  00                 [07] (97)
1387  00                 [08] (97)
1388  61                 [09] (99)
1389  00                 [10] (99)
138A  00                 [11] (101)
138B  00                 [12] (101)
138C  61                 [13] (101)
138D  00                 [14] (102)
138E  00                 [15] (102)
138F  00                 [16] (104)
1390  61                 [17] (104)
1391  00                 [18] (104)
1392  00                 [19] (104)
1393  00                 [20] (105)
1394  61                 [21] (105)
1395  00                 [22] (105)
1396  00                 [23] (105)
1397  00                 [24] (106)
1398  61                 [25] (107)
1399  00                 [26] (107)
139A  00                 [27] (107)
139B  00                 [28] (107)
139C  61                 [29] (108)
139D  00                 [30] (108)
139E  00                 [31] (109)
139F  00                 [32] (109)
13A0  63                 [33] (109)
13A1  00                 [34] (109)
13A2  00                 [35] (109)
13A3  00                 [36] (110)
13A4  63                 [37] (112)
13A5  00                 [38] (112)
13A6  00                 [39] (112)
13A7  00                 [40] (112)
13A8  65                 [41] (112)
13A9  00                 [42] (112)
13AA  00                 [43] (112)
13AB  00                 [44] (112)
13AC  65                 [45] (112)
13AD  00                 [46] (112)
13AE  00                 [47] (113)
13AF  00                 [48] (114)
13B0  65                 [49] (114)
13B1  00                 [50] (114)
13B2  00                 [51] (114)
13B3  00                 [52] (115)
13B4  66                 [53] (115)
13B5  00                 [54] (115)
13B6  00                 [55] (116)
13B7  00                 [56] (116)
13B8  66                 [57] (116)
13B9  00                 [58] (117)
13BA  00                 [59] (114)
13BB  00                 [60] (121)
13BC  68                 [61] (121)
13BD  00                 [62] (121)
13BE  00                 [63] (123)
13BF  00                 [64] (123)
13C0  68                 [65] (123)
13C1  00                 [66] (123)
13C2  00                 [67] (123)
13C3  00                 [68] (123)
13C4  68                 [69] (123)
13C5  00                 [70] (123)
13C6  00                 [71] (123)
13C7  00                 [72] (125)
                         * locals:
14A0  00                 sizelocvars (0)
                         * upvalues:
14A1  00                 sizeupvalues (0)
                         ** end of function **

                         
14A2                     ** function [4] definition (level 2)
                         ** start of function **
14A2  00                 string size (0)
                         source name: (none)
14A3  7F                 line defined (127)
14A4  8E                 last line defined (142)
14A5  01                 nups (6)
14A6  06                 numparams (1)
14A7  01                 is_vararg (0)
14A8  00                 maxstacksize (11)
                         * code:
14AA  4D                 sizecode (77)
14AB  5D000000           [01] getglobal  1   0        ; _T
14AF  4E40C000           [02] gettable   1   1   257  ; "IsEliteAlert"
fail op	35
14B3  2380C000           [03] close      0  
14B7  1A800F80           [04] jmp        63           ; to [68]
14BB  5DC00000           [05] getglobal  1   3        ; gGameRules
14BF  6400C100           [06] self       1   1   260  ; -1201441975
14C3  62800001           [07] call       1   2   2  
14C7  4E40C100           [08] gettable   1   1   261  ; "periodicMissionTag"
14CB  9D000000           [09] getglobal  2   0        ; _T
14CF  D3000000           [10] getupval   3   0      
14D3  CE80C101           [11] gettable   3   3   262  ; "ELITE_ALERT_PERIODIC_MISSION_TAG"
fail op	35
14D7  63C08000           [12] close      1  
14DB  1A000180           [13] jmp        5            ; to [19]
14DF  D3000000           [14] getupval   3   0      
14E3  CEC0C101           [15] gettable   3   3   263  ; "ELITE_ALERT_PERIODIC_MISSION_TAG_ALT"
fail op	35
14E7  63C08000           [16] close      1  
14EB  1A000080           [17] jmp        1            ; to [19]
14EF  D7400000           [18] loadbool   3   0   1    ; false, to [20]
14F3  D7008000           [19] loadbool   3   1   0    ; true
14F7  8CC08080           [20] settable   2   257 3    ; "IsEliteAlert"
14FB  9D000000           [21] getglobal  2   0        ; _T
14FF  8E404001           [22] gettable   2   2   257  ; "IsEliteAlert"
1503  98000000           [23] test       2       0    ; to [25] if true
1507  1AC00C80           [24] jmp        52           ; to [77]
150B  9D000000           [25] getglobal  2   0        ; _T
150F  8C404284           [26] settable   2   264 265  ; "EliteDroneSpawnTimer" 0
1513  9DC00000           [27] getglobal  2   3        ; gGameRules
1517  A4804201           [28] self       2   2   266  ; 127295906
151B  0B018001           [29] newtable   4   3   0    ; array=3, hash=0
151F  5DC10200           [30] getglobal  5   11       ; -1615931716
1523  93018000           [31] getupval   6   1      
1527  A4014303           [32] self       6   6   268  ; 455421500
152B  A2010001           [33] call       6   2   0  
152F  62810000           [34] call       5   0   2  
1533  9DC10200           [35] getglobal  6   11       ; -1615931716
1537  D3010001           [36] getupval   7   2      
153B  E401C303           [37] self       7   7   268  ; 455421500
153F  E2010001           [38] call       7   2   0  
1543  A2810000           [39] call       6   0   2  
1547  DDC10200           [40] getglobal  7   11       ; -1615931716
154B  13028001           [41] getupval   8   3      
154F  24024304           [42] self       8   8   268  ; 455421500
1553  22020001           [43] call       8   2   0  
1557  E2810000           [44] call       7   0   2  
155B  1DC20200           [45] getglobal  8   11       ; -1615931716
155F  53020002           [46] getupval   9   4      
1563  6402C304           [47] self       9   9   268  ; 455421500
1567  62020001           [48] call       9   2   0  
156B  22020000           [49] call       8   0   0  
156F  1B410000           [50] setlist    4   0   1    ; index 1 to top
1573  A2408001           [51] call       2   3   1  
1577  9D400300           [52] getglobal  2   13       ; gRegion
157B  A4804301           [53] self       2   2   270  ; -1520831144
157F  A2800001           [54] call       2   2   2  
1583  98000000           [55] test       2       0    ; to [57] if true
1587  1AC00480           [56] jmp        20           ; to [77]
158B  9DC00000           [57] getglobal  2   3        ; gGameRules
158F  A4C04301           [58] self       2   2   271  ; 1247278653
1593  1DC10200           [59] getglobal  4   11       ; -1615931716
1597  53018002           [60] getupval   5   5      
159B  6401C302           [61] self       5   5   268  ; 455421500
159F  62010001           [62] call       5   2   0  
15A3  22810000           [63] call       4   0   2  
15A7  59010400           [64] loadk      5   16       ; "OnEliteAlertGameStateLoaded"
15AB  97018000           [65] loadbool   6   1   0    ; true
15AF  A2408002           [66] call       2   5   1  
15B3  1A000280           [67] jmp        9            ; to [77]
15B7  9D000000           [68] getglobal  2   0        ; _T
15BB  8E404001           [69] gettable   2   2   257  ; "IsEliteAlert"
15BF  98000000           [70] test       2       0    ; to [72] if true
15C3  1A000180           [71] jmp        5            ; to [77]
15C7  9D000000           [72] getglobal  2   0        ; _T
15CB  DD000000           [73] getglobal  3   0        ; _T
15CF  CE00C201           [74] gettable   3   3   264  ; "EliteDroneSpawnTimer"
15D3  CD008001           [75] sub        3   3   0  
15D7  8CC00084           [76] settable   2   264 3    ; "EliteDroneSpawnTimer"
15DB  1E008000           [77] return     0   1      
                         * constants:
15DF  11                 sizek (17)
15E0  04                 const type 4
15E1  03                 string size (3)
15E2  5F5400             "_T\0"
                         const [0]: "_T"
15E5  04                 const type 4
15E6  0D                 string size (13)
15E7  4973456C69746541+  "IsEliteA"
15EF  6C65727400         "lert\0"
                         const [1]: "IsEliteAlert"
15F4  00                 const type 0
                         const [2]: nil
15F5  04                 const type 4
15F6  0B                 string size (11)
15F7  6747616D6552756C+  "gGameRul"
15FF  657300             "es\0"
                         const [3]: "gGameRules"
1602  01                 const type 3
1603  497363B8           const [4]: (-1201441975)
1607  04                 const type 4
1608  13                 string size (19)
1609  706572696F646963+  "periodic"
1611  4D697373696F6E54+  "MissionT"
1619  616700             "ag\0"
                         const [5]: "periodicMissionTag"
161C  04                 const type 4
161D  21                 string size (33)
161E  454C4954455F414C+  "ELITE_AL"
1626  4552545F50455249+  "ERT_PERI"
162E  4F4449435F4D4953+  "ODIC_MIS"
1636  53494F4E5F544147+  "SION_TAG"
163E  00                 "\0"
                         const [6]: "ELITE_ALERT_PERIODIC_MISSION_TAG"
163F  04                 const type 4
1640  25                 string size (37)
1641  454C4954455F414C+  "ELITE_AL"
1649  4552545F50455249+  "ERT_PERI"
1651  4F4449435F4D4953+  "ODIC_MIS"
1659  53494F4E5F544147+  "SION_TAG"
1661  5F414C5400         "_ALT\0"
                         const [7]: "ELITE_ALERT_PERIODIC_MISSION_TAG_ALT"
1666  04                 const type 4
1667  15                 string size (21)
1668  456C69746544726F+  "EliteDro"
1670  6E65537061776E54+  "neSpawnT"
1678  696D657200         "imer\0"
                         const [8]: "EliteDroneSpawnTimer"
167D  03                 const type 3
167E  00000000           const [9]: (0)
1682  01                 const type 3
1683  A2619607           const [10]: (127295906)
1687  01                 const type 3
1688  BCD6AE9F           const [11]: (-1615931716)
168C  01                 const type 3
168D  3C2E251B           const [12]: (455421500)
1691  04                 const type 4
1692  08                 string size (8)
1693  67526567696F6E00   "gRegion\0"
                         const [13]: "gRegion"
169B  01                 const type 3
169C  58F559A5           const [14]: (-1520831144)
16A0  01                 const type 3
16A1  3DF6574A           const [15]: (1247278653)
16A5  04                 const type 4
16A6  1C                 string size (28)
16A7  4F6E456C69746541+  "OnEliteA"
16AF  6C65727447616D65+  "lertGame"
16B7  53746174654C6F61+  "StateLoa"
16BF  64656400           "ded\0"
                         const [16]: "OnEliteAlertGameStateLoaded"
                         * functions:
16C3  00                 sizep (0)
                         * lines:
16C4  4D                 sizelineinfo (77)
                         [pc] (line)
16C5  80                 [01] (-128)
16C6  00                 [02] (-128)
16C7  00                 [03] (-128)
16C8  00                 [04] (-128)
16C9  80                 [05] (-127)
16CA  00                 [06] (-127)
16CB  00                 [07] (-127)
16CC  00                 [08] (-127)
16CD  80                 [09] (-126)
16CE  00                 [10] (-126)
16CF  00                 [11] (-126)
16D0  00                 [12] (-126)
16D1  80                 [13] (-126)
16D2  00                 [14] (-126)
16D3  00                 [15] (-126)
16D4  00                 [16] (-126)
16D5  81                 [17] (-126)
16D6  00                 [18] (-126)
16D7  00                 [19] (-126)
16D8  00                 [20] (-126)
16D9  81                 [21] (-125)
16DA  00                 [22] (-125)
16DB  00                 [23] (-125)
16DC  00                 [24] (-125)
16DD  81                 [25] (-124)
16DE  00                 [26] (-124)
16DF  00                 [27] (-123)
16E0  00                 [28] (-123)
16E1  81                 [29] (-123)
16E2  00                 [30] (-123)
16E3  00                 [31] (-123)
16E4  00                 [32] (-123)
16E5  82                 [33] (-123)
16E6  00                 [34] (-123)
16E7  00                 [35] (-123)
16E8  00                 [36] (-123)
16E9  82                 [37] (-123)
16EA  00                 [38] (-123)
16EB  00                 [39] (-123)
16EC  00                 [40] (-123)
16ED  82                 [41] (-123)
16EE  00                 [42] (-123)
16EF  00                 [43] (-123)
16F0  00                 [44] (-123)
16F1  82                 [45] (-123)
16F2  00                 [46] (-123)
16F3  00                 [47] (-123)
16F4  00                 [48] (-123)
16F5  82                 [49] (-123)
16F6  00                 [50] (-123)
16F7  00                 [51] (-123)
16F8  00                 [52] (-121)
16F9  82                 [53] (-121)
16FA  00                 [54] (-121)
16FB  00                 [55] (-121)
16FC  00                 [56] (-121)
16FD  82                 [57] (-120)
16FE  00                 [58] (-120)
16FF  00                 [59] (-120)
1700  00                 [60] (-120)
1701  82                 [61] (-120)
1702  00                 [62] (-120)
1703  00                 [63] (-120)
1704  00                 [64] (-120)
1705  82                 [65] (-120)
1706  00                 [66] (-120)
1707  00                 [67] (-118)
1708  00                 [68] (-117)
1709  82                 [69] (-117)
170A  00                 [70] (-117)
170B  00                 [71] (-117)
170C  00                 [72] (-116)
170D  82                 [73] (-116)
170E  00                 [74] (-116)
170F  00                 [75] (-116)
1710  00                 [76] (-116)
1711  82                 [77] (-114)
                         * locals:
17F9  00                 sizelocvars (0)
                         * upvalues:
17FA  00                 sizeupvalues (0)
                         ** end of function **

                         
17FB                     ** function [5] definition (level 2)
                         ** start of function **
17FB  00                 string size (0)
                         source name: (none)
17FD  01                 line defined (144)
17FE  AD                 last line defined (173)
17FF  01                 nups (1)
1800  01                 numparams (0)
1801  00                 is_vararg (0)
1802  00                 maxstacksize (11)
                         * code:
1804  3E                 sizecode (62)
1805  1D000000           [01] getglobal  0   0        ; math
1809  0E404000           [02] gettable   0   0   257  ; -113279800
180D  5D800000           [03] getglobal  1   2        ; Engine
1811  4EC0C000           [04] gettable   1   1   259  ; -794986224
1815  9D000100           [05] getglobal  2   4        ; gGameData
1819  A4404101           [06] self       2   2   261  ; 755731078
181D  A2800001           [07] call       2   2   2  
1821  8E804101           [08] gettable   2   2   262  ; "mSeasonInfo"
1825  8EC04101           [09] gettable   2   2   263  ; "mActivation"
1829  62000001           [10] call       1   2   0  
182D  22800000           [11] call       0   0   2  
1831  53000000           [12] getupval   1   0      
1835  4E00C200           [13] gettable   1   1   264  ; 762906652
1839  99400200           [14] loadk      2   9        ; "wgsi"
183D  D9800200           [15] loadk      3   10       ; 0
1841  62808001           [16] call       1   3   2  
1845  44C0C200           [17] mul        1   1   267  ; 0
1849  93000000           [18] getupval   2   0      
184D  8E004201           [19] gettable   2   2   264  ; 762906652
1851  D9000300           [20] loadk      3   12       ; "wgsb"
1855  19410300           [21] loadk      4   13       ; 0
1859  A2808001           [22] call       2   3   2  
185D  84C04201           [23] mul        2   2   267  ; 0
1861  DD000000           [24] getglobal  3   0        ; math
1865  CE80C301           [25] gettable   3   3   270  ; -150971781
1869  1C410000           [26] div        4   0   1  
186D  E2800001           [27] call       3   2   2  
1871  1DC10300           [28] getglobal  4   15       ; 2012104780
1875  22818000           [29] call       4   1   2  
1879  59010400           [30] loadk      5   16       ; 0
187D  84418001           [31] mul        6   3   1  
1881  DC414401           [32] div        7   2   273  ; 0
1885  83C10103           [33] add        6   6   7  
1889  C381C401           [34] add        7   3   274  ; 0
188D  C4418003           [35] mul        7   7   1  
1891  1C424401           [36] div        8   2   273  ; 0
1895  CD018203           [37] sub        7   7   8  
1899  1DC20400           [38] getglobal  8   19       ; -1692306532
189D  5D020500           [39] getglobal  9   20       ; -849773159
18A1  8442C501           [40] mul        10  3   277  ; 0
18A5  8382028B           [41] add        10  278 10   ; -128
18A9  62020001           [42] call       9   2   0  
18AD  22420000           [43] call       8   0   1  
18B1  1DC20500           [44] getglobal  8   23       ; 687937235
18B5  52020003           [45] move       9   6      
18B9  92028003           [46] move       10  7      
18BD  22828001           [47] call       8   3   2  
18C1  52010004           [48] move       5   8      
fail op	21
18C5  15008002           [49] concat     0   5   0  
18C9  1AC00080           [50] jmp        4            ; to [55]
18CD  C380C401           [51] add        3   3   274  ; 0
18D1  1A40FA7F           [52] jmp        -22          ; to [31]
18D5  1A000080           [53] jmp        1            ; to [55]
18D9  1AC0F97F           [54] jmp        -24          ; to [31]
18DD  1D020600           [55] getglobal  8   24       ; _T
18E1  0CC2808C           [56] settable   8   281 3    ; "ConvictSpawnCycle"
18E5  1DC20400           [57] getglobal  8   19       ; -1692306532
18E9  52020002           [58] move       9   4      
18ED  22420001           [59] call       8   2   1  
18F1  0D028002           [60] sub        8   5   0  
18F5  1E020001           [61] return     8   2      
18F9  1E008000           [62] return     0   1      
                         * constants:
18FD  1A                 sizek (26)
18FE  04                 const type 4
18FF  05                 string size (5)
1900  6D61746800         "math\0"
                         const [0]: "math"
1905  01                 const type 3
1906  C87C3FF9           const [1]: (-113279800)
190A  04                 const type 4
190B  07                 string size (7)
190C  456E67696E6500     "Engine\0"
                         const [2]: "Engine"
1913  01                 const type 3
1914  10799DD0           const [3]: (-794986224)
1918  04                 const type 4
1919  0A                 string size (10)
191A  6747616D65446174+  "gGameDat"
1922  6100               "a\0"
                         const [4]: "gGameData"
1924  01                 const type 3
1925  868A0B2D           const [5]: (755731078)
1929  04                 const type 4
192A  0C                 string size (12)
192B  6D536561736F6E49+  "mSeasonI"
1933  6E666F00           "nfo\0"
                         const [6]: "mSeasonInfo"
1937  04                 const type 4
1938  0C                 string size (12)
1939  6D41637469766174+  "mActivat"
1941  696F6E00           "ion\0"
                         const [7]: "mActivation"
1945  01                 const type 3
1946  1C08792D           const [8]: (762906652)
194A  04                 const type 4
194B  05                 string size (5)
194C  7767736900         "wgsi\0"
                         const [9]: "wgsi"
1951  03                 const type 3
1952  0000F041           const [10]: (0)
1956  03                 const type 3
1957  00007042           const [11]: (0)
195B  04                 const type 4
195C  05                 string size (5)
195D  7767736200         "wgsb\0"
                         const [12]: "wgsb"
1962  03                 const type 3
1963  0000A040           const [13]: (0)
1967  01                 const type 3
1968  7B5A00F7           const [14]: (-150971781)
196C  01                 const type 3
196D  4C48EE77           const [15]: (2012104780)
1971  03                 const type 3
1972  000080BF           const [16]: (0)
1976  03                 const type 3
1977  00000040           const [17]: (0)
197B  03                 const type 3
197C  0000803F           const [18]: (0)
1980  01                 const type 3
1981  9C73219B           const [19]: (-1692306532)
1985  01                 const type 3
1986  997D59CD           const [20]: (-849773159)
198A  03                 const type 3
198B  0000FE42           const [21]: (0)
198F  03                 const type 3
1990  80228B47           const [22]: (-128)
1994  01                 const type 3
1995  D3160129           const [23]: (687937235)
1999  04                 const type 4
199A  03                 string size (3)
199B  5F5400             "_T\0"
                         const [24]: "_T"
199E  04                 const type 4
199F  12                 string size (18)
19A0  436F6E7669637453+  "ConvictS"
19A8  7061776E4379636C+  "pawnCycl"
19B0  6500               "e\0"
                         const [25]: "ConvictSpawnCycle"
                         * functions:
19B2  00                 sizep (0)
                         * lines:
19B3  3E                 sizelineinfo (62)
                         [pc] (line)
19B4  91                 [01] (-111)
19B5  00                 [02] (-111)
19B6  00                 [03] (-111)
19B7  00                 [04] (-111)
19B8  91                 [05] (-111)
19B9  00                 [06] (-111)
19BA  00                 [07] (-111)
19BB  00                 [08] (-111)
19BC  91                 [09] (-111)
19BD  00                 [10] (-111)
19BE  00                 [11] (-111)
19BF  00                 [12] (-110)
19C0  91                 [13] (-110)
19C1  00                 [14] (-110)
19C2  00                 [15] (-110)
19C3  00                 [16] (-110)
19C4  91                 [17] (-110)
19C5  00                 [18] (-109)
19C6  00                 [19] (-109)
19C7  00                 [20] (-109)
19C8  91                 [21] (-109)
19C9  00                 [22] (-109)
19CA  00                 [23] (-109)
19CB  00                 [24] (-108)
19CC  91                 [25] (-108)
19CD  00                 [26] (-108)
19CE  00                 [27] (-108)
19CF  00                 [28] (-107)
19D0  91                 [29] (-107)
19D1  00                 [30] (-106)
19D2  00                 [31] (-103)
19D3  00                 [32] (-103)
19D4  91                 [33] (-103)
19D5  00                 [34] (-102)
19D6  00                 [35] (-102)
19D7  00                 [36] (-102)
19D8  91                 [37] (-102)
19D9  00                 [38] (-100)
19DA  00                 [39] (-100)
19DB  00                 [40] (-100)
19DC  91                 [41] (-100)
19DD  00                 [42] (-100)
19DE  00                 [43] (-100)
19DF  00                 [44] (-99)
19E0  92                 [45] (-99)
19E1  00                 [46] (-99)
19E2  00                 [47] (-99)
19E3  00                 [48] (-99)
19E4  92                 [49] (-97)
19E5  00                 [50] (-97)
19E6  00                 [51] (-95)
19E7  00                 [52] (-95)
19E8  92                 [53] (-93)
19E9  00                 [54] (-92)
19EA  00                 [55] (-89)
19EB  00                 [56] (-89)
19EC  92                 [57] (-87)
19ED  00                 [58] (-87)
19EE  00                 [59] (-87)
19EF  00                 [60] (-85)
19F0  92                 [61] (-84)
19F1  00                 [62] (-83)
                         * locals:
1AAC  00                 sizelocvars (0)
                         * upvalues:
1AAD  00                 sizeupvalues (0)
                         ** end of function **

                         
1AAE                     ** function [6] definition (level 2)
                         ** start of function **
1AAE  00                 string size (0)
                         source name: (none)
1AB0  01                 line defined (175)
1AB1  B9                 last line defined (185)
1AB2  01                 nups (1)
1AB3  01                 numparams (0)
1AB4  00                 is_vararg (0)
1AB5  00                 maxstacksize (15)
                         * code:
1AB7  18                 sizecode (24)
1AB8  0B000000           [01] newtable   0   0   0    ; array=0, hash=0
1ABC  5D000000           [02] getglobal  1   0        ; 248503575
1AC0  93000000           [03] getupval   2   0      
1AC4  62000101           [04] call       1   2   4  
1AC8  1A800380           [05] jmp        15           ; to [21]
1ACC  9D410000           [06] getglobal  6   1        ; gRegion
1AD0  A4814003           [07] self       6   6   258  ; 152279552
1AD4  12028002           [08] move       8   5      
1AD8  A2818001           [09] call       6   3   2  
1ADC  DD010000           [10] getglobal  7   0        ; 248503575
1AE0  12020003           [11] move       8   6      
1AE4  E2010101           [12] call       7   2   4  
1AE8  1A000180           [13] jmp        5            ; to [19]
1AEC  1DC30000           [14] getglobal  12  3        ; table
1AF0  0E034106           [15] gettable   12  12  260  ; -431682403
1AF4  52030000           [16] move       13  0      
1AF8  92038005           [17] move       14  11     
1AFC  22438001           [18] call       12  3   1  
1B00  D6810000           [19] tforloop   7       2    ; to [21] if exit
1B04  1A00FE7F           [20] jmp        -7           ; to [14]
1B08  56800000           [21] tforloop   1       2    ; to [23] if exit
1B0C  1A80FB7F           [22] jmp        -17          ; to [6]
1B10  1E000001           [23] return     0   2      
1B14  1E008000           [24] return     0   1      
                         * constants:
1B18  05                 sizek (5)
1B19  01                 const type 3
1B1A  17DDCF0E           const [0]: (248503575)
1B1E  04                 const type 4
1B1F  08                 string size (8)
1B20  67526567696F6E00   "gRegion\0"
                         const [1]: "gRegion"
1B28  01                 const type 3
1B29  009A1309           const [2]: (152279552)
1B2D  04                 const type 4
1B2E  06                 string size (6)
1B2F  7461626C6500       "table\0"
                         const [3]: "table"
1B35  01                 const type 3
1B36  9D0C45E6           const [4]: (-431682403)
                         * functions:
1B3A  00                 sizep (0)
                         * lines:
1B3B  18                 sizelineinfo (24)
                         [pc] (line)
1B3C  B0                 [01] (-80)
1B3D  00                 [02] (-79)
1B3E  00                 [03] (-79)
1B3F  00                 [04] (-79)
1B40  B1                 [05] (-79)
1B41  00                 [06] (-78)
1B42  00                 [07] (-78)
1B43  00                 [08] (-78)
1B44  B1                 [09] (-78)
1B45  00                 [10] (-77)
1B46  00                 [11] (-77)
1B47  00                 [12] (-77)
1B48  B1                 [13] (-77)
1B49  00                 [14] (-76)
1B4A  00                 [15] (-76)
1B4B  00                 [16] (-76)
1B4C  B1                 [17] (-76)
1B4D  00                 [18] (-76)
1B4E  00                 [19] (-77)
1B4F  00                 [20] (-76)
1B50  B2                 [21] (-79)
1B51  00                 [22] (-75)
1B52  00                 [23] (-72)
1B53  00                 [24] (-71)
                         * locals:
1B9C  00                 sizelocvars (0)
                         * upvalues:
1B9D  00                 sizeupvalues (0)
                         ** end of function **

                         
1B9E                     ** function [7] definition (level 2)
                         ** start of function **
1B9E  00                 string size (0)
                         source name: (none)
1BA0  01                 line defined (187)
1BA1  DC                 last line defined (220)
1BA2  01                 nups (2)
1BA3  02                 numparams (1)
1BA4  01                 is_vararg (0)
1BA5  00                 maxstacksize (15)
                         * code:
1BA7  5F                 sizecode (95)
1BA8  59000000           [01] loadk      1   0        ; 0
1BAC  93000000           [02] getupval   2   0      
1BB0  A2808000           [03] call       2   1   2  
1BB4  DD400000           [04] getglobal  3   1        ; 248503575
1BB8  12010001           [05] move       4   2      
1BBC  E2000101           [06] call       3   2   4  
1BC0  1A400280           [07] jmp        10           ; to [18]
1BC4  1D820000           [08] getglobal  8   2        ; 1074689893
1BC8  52028003           [09] move       9   7      
1BCC  22820001           [10] call       8   2   2  
1BD0  18420000           [11] test       8       1    ; to [13] if false
1BD4  1A000180           [12] jmp        5            ; to [18]
1BD8  24C2C003           [13] self       8   7   259  ; 1511086594
1BDC  22820001           [14] call       8   2   2  
1BE0  18420000           [15] test       8       1    ; to [17] if false
1BE4  1A000080           [16] jmp        1            ; to [18]
1BE8  4300C100           [17] add        1   1   260  ; 0
1BEC  D6800000           [18] tforloop   3       2    ; to [20] if exit
1BF0  1AC0FC7F           [19] jmp        -12          ; to [8]
1BF4  1D420100           [20] getglobal  8   5        ; _T
1BF8  0E824104           [21] gettable   8   8   262  ; "ConvictTotalSpawnCount"
fail op	35
1BFC  23C04104           [22] close      0  
1C00  1A000380           [23] jmp        13           ; to [37]
fail op	35
1C04  2300C000           [24] close      0  
1C08  1A400080           [25] jmp        2            ; to [28]
1C0C  17028000           [26] loadbool   8   1   0    ; true
1C10  1E020001           [27] return     8   2      
1C14  1D420100           [28] getglobal  8   5        ; _T
1C18  0C420083           [29] settable   8   262 1    ; "ConvictTotalSpawnCount"
1C1C  18000000           [30] test       0       0    ; to [32] if true
1C20  1A000180           [31] jmp        5            ; to [37]
1C24  1D420100           [32] getglobal  8   5        ; _T
1C28  5D420100           [33] getglobal  9   5        ; _T
1C2C  4E82C104           [34] gettable   9   9   262  ; "ConvictTotalSpawnCount"
1C30  4302C104           [35] add        9   9   260  ; 0
1C34  0C420283           [36] settable   8   262 9    ; "ConvictTotalSpawnCount"
1C38  1D420100           [37] getglobal  8   5        ; _T
1C3C  0E024204           [38] gettable   8   8   264  ; "ConvictProgressTracker"
fail op	35
1C40  23C04104           [39] close      0  
1C44  1AC00580           [40] jmp        24           ; to [65]
1C48  1D420100           [41] getglobal  8   5        ; _T
1C4C  0E424204           [42] gettable   8   8   265  ; "AddHudTracker"
1C50  18020000           [43] test       8       0    ; to [45] if true
1C54  1AC00480           [44] jmp        20           ; to [65]
1C58  17020000           [45] loadbool   8   0   0    ; false
1C5C  18020000           [46] test       8       0    ; to [48] if true
1C60  1A000480           [47] jmp        17           ; to [65]
1C64  1D420100           [48] getglobal  8   5        ; _T
1C68  5D420100           [49] getglobal  9   5        ; _T
1C6C  4E82C204           [50] gettable   9   9   266  ; 972116663
1C70  99C20200           [51] loadk      10  11       ; "ConvictProgress"
1C74  D3028000           [52] getupval   11  1      
1C78  CE02C305           [53] gettable   11  11  268  ; "HT_PROGRESS_BAR"
1C7C  19430300           [54] loadk      12  13       ; 0
1C80  59830300           [55] loadk      13  14       ; 0
1C84  97038000           [56] loadbool   14  1   0    ; true
1C88  62820003           [57] call       9   6   2  
1C8C  0C420284           [58] settable   8   264 9    ; "ConvictProgressTracker"
1C90  1D420100           [59] getglobal  8   5        ; _T
1C94  0E024204           [60] gettable   8   8   264  ; "ConvictProgressTracker"
1C98  0EC24304           [61] gettable   8   8   271  ; 934616952
1C9C  59020400           [62] loadk      9   16       ; "/Lotus/Language/Game/ConvictsCaptured"
1CA0  99020100           [63] loadk      10  4        ; 0
1CA4  22428001           [64] call       8   3   1  
1CA8  1D420100           [65] getglobal  8   5        ; _T
1CAC  0E024204           [66] gettable   8   8   264  ; "ConvictProgressTracker"
1CB0  18020000           [67] test       8       0    ; to [69] if true
1CB4  1A000580           [68] jmp        21           ; to [90]
1CB8  1D420100           [69] getglobal  8   5        ; _T
1CBC  0E024204           [70] gettable   8   8   264  ; "ConvictProgressTracker"
1CC0  0E424404           [71] gettable   8   8   273  ; -1455793363
1CC4  5D420100           [72] getglobal  9   5        ; _T
1CC8  4E82C104           [73] gettable   9   9   262  ; "ConvictTotalSpawnCount"
1CCC  4D428004           [74] sub        9   9   1  
1CD0  99820400           [75] loadk      10  18       ; " / "
1CD4  DD420100           [76] getglobal  11  5        ; _T
1CD8  CE82C105           [77] gettable   11  11  262  ; "ConvictTotalSpawnCount"
1CDC  42C28204           [78] concat     9   9   11 
1CE0  22420001           [79] call       8   2   1  
1CE4  1D420100           [80] getglobal  8   5        ; _T
1CE8  0E024204           [81] gettable   8   8   264  ; "ConvictProgressTracker"
1CEC  0EC24404           [82] gettable   8   8   275  ; 1731445362
1CF0  5D420100           [83] getglobal  9   5        ; _T
1CF4  4E82C104           [84] gettable   9   9   262  ; "ConvictTotalSpawnCount"
1CF8  4D428004           [85] sub        9   9   1  
1CFC  9D420100           [86] getglobal  10  5        ; _T
1D00  8E824105           [87] gettable   10  10  262  ; "ConvictTotalSpawnCount"
1D04  5C828204           [88] div        9   9   10 
1D08  22420001           [89] call       8   2   1  
fail op	35
1D0C  6300C000           [90] close      1  
1D10  1A000080           [91] jmp        1            ; to [93]
1D14  17420000           [92] loadbool   8   0   1    ; false, to [94]
1D18  17028000           [93] loadbool   8   1   0    ; true
1D1C  1E020001           [94] return     8   2      
1D20  1E008000           [95] return     0   1      
                         * constants:
1D24  14                 sizek (20)
1D25  03                 const type 3
1D26  00000000           const [0]: (0)
1D2A  01                 const type 3
1D2B  17DDCF0E           const [1]: (248503575)
1D2F  01                 const type 3
1D30  65770E40           const [2]: (1074689893)
1D34  01                 const type 3
1D35  025A115A           const [3]: (1511086594)
1D39  03                 const type 3
1D3A  0000803F           const [4]: (0)
1D3E  04                 const type 4
1D3F  03                 string size (3)
1D40  5F5400             "_T\0"
                         const [5]: "_T"
1D43  04                 const type 4
1D44  17                 string size (23)
1D45  436F6E7669637454+  "ConvictT"
1D4D  6F74616C53706177+  "otalSpaw"
1D55  6E436F756E7400     "nCount\0"
                         const [6]: "ConvictTotalSpawnCount"
1D5C  00                 const type 0
                         const [7]: nil
1D5D  04                 const type 4
1D5E  17                 string size (23)
1D5F  436F6E7669637450+  "ConvictP"
1D67  726F677265737354+  "rogressT"
1D6F  7261636B657200     "racker\0"
                         const [8]: "ConvictProgressTracker"
1D76  04                 const type 4
1D77  0E                 string size (14)
1D78  4164644875645472+  "AddHudTr"
1D80  61636B657200       "acker\0"
                         const [9]: "AddHudTracker"
1D86  01                 const type 3
1D87  B752F139           const [10]: (972116663)
1D8B  04                 const type 4
1D8C  10                 string size (16)
1D8D  436F6E7669637450+  "ConvictP"
1D95  726F677265737300   "rogress\0"
                         const [11]: "ConvictProgress"
1D9D  04                 const type 4
1D9E  10                 string size (16)
1D9F  48545F50524F4752+  "HT_PROGR"
1DA7  4553535F42415200   "ESS_BAR\0"
                         const [12]: "HT_PROGRESS_BAR"
1DAF  03                 const type 3
1DB0  0000003F           const [13]: (0)
1DB4  03                 const type 3
1DB5  0000C642           const [14]: (0)
1DB9  01                 const type 3
1DBA  781FB537           const [15]: (934616952)
1DBE  04                 const type 4
1DBF  26                 string size (38)
1DC0  2F4C6F7475732F4C+  "/Lotus/L"
1DC8  616E67756167652F+  "anguage/"
1DD0  47616D652F436F6E+  "Game/Con"
1DD8  7669637473436170+  "victsCap"
1DE0  747572656400       "tured\0"
                         const [16]: "/Lotus/Language/Game/ConvictsCaptured"
1DE6  01                 const type 3
1DE7  2D5B3AA9           const [17]: (-1455793363)
1DEB  04                 const type 4
1DEC  04                 string size (4)
1DED  202F2000           " / \0"
                         const [18]: " / "
1DF1  01                 const type 3
1DF2  72C23367           const [19]: (1731445362)
                         * functions:
1DF6  00                 sizep (0)
                         * lines:
1DF7  5F                 sizelineinfo (95)
                         [pc] (line)
1DF8  BD                 [01] (-67)
1DF9  00                 [02] (-66)
1DFA  00                 [03] (-66)
1DFB  00                 [04] (-65)
1DFC  BE                 [05] (-65)
1DFD  00                 [06] (-65)
1DFE  00                 [07] (-65)
1DFF  00                 [08] (-64)
1E00  BE                 [09] (-64)
1E01  00                 [10] (-64)
1E02  00                 [11] (-64)
1E03  00                 [12] (-64)
1E04  BF                 [13] (-64)
1E05  00                 [14] (-64)
1E06  00                 [15] (-64)
1E07  00                 [16] (-64)
1E08  BF                 [17] (-63)
1E09  00                 [18] (-65)
1E0A  00                 [19] (-62)
1E0B  00                 [20] (-58)
1E0C  BF                 [21] (-58)
1E0D  00                 [22] (-58)
1E0E  00                 [23] (-58)
1E0F  00                 [24] (-57)
1E10  BF                 [25] (-57)
1E11  00                 [26] (-55)
1E12  00                 [27] (-55)
1E13  00                 [28] (-53)
1E14  C0                 [29] (-53)
1E15  00                 [30] (-52)
1E16  00                 [31] (-52)
1E17  00                 [32] (-51)
1E18  C0                 [33] (-51)
1E19  00                 [34] (-51)
1E1A  00                 [35] (-51)
1E1B  00                 [36] (-51)
1E1C  C0                 [37] (-47)
1E1D  00                 [38] (-47)
1E1E  00                 [39] (-47)
1E1F  00                 [40] (-47)
1E20  C0                 [41] (-47)
1E21  00                 [42] (-47)
1E22  00                 [43] (-47)
1E23  00                 [44] (-47)
1E24  C0                 [45] (-47)
1E25  00                 [46] (-47)
1E26  00                 [47] (-47)
1E27  00                 [48] (-46)
1E28  C0                 [49] (-46)
1E29  00                 [50] (-46)
1E2A  00                 [51] (-46)
1E2B  00                 [52] (-46)
1E2C  C0                 [53] (-46)
1E2D  00                 [54] (-46)
1E2E  00                 [55] (-46)
1E2F  00                 [56] (-46)
1E30  C0                 [57] (-46)
1E31  00                 [58] (-46)
1E32  00                 [59] (-45)
1E33  00                 [60] (-45)
1E34  C0                 [61] (-45)
1E35  00                 [62] (-45)
1E36  00                 [63] (-45)
1E37  00                 [64] (-45)
1E38  C1                 [65] (-42)
1E39  00                 [66] (-42)
1E3A  00                 [67] (-42)
1E3B  00                 [68] (-42)
1E3C  BF                 [69] (-41)
1E3D  00                 [70] (-41)
1E3E  00                 [71] (-41)
1E3F  00                 [72] (-41)
1E40  C2                 [73] (-41)
1E41  00                 [74] (-41)
1E42  00                 [75] (-41)
1E43  00                 [76] (-41)
1E44  C6                 [77] (-41)
1E45  00                 [78] (-41)
1E46  00                 [79] (-41)
1E47  00                 [80] (-40)
1E48  C6                 [81] (-40)
1E49  00                 [82] (-40)
1E4A  00                 [83] (-40)
1E4B  00                 [84] (-40)
1E4C  C6                 [85] (-40)
1E4D  00                 [86] (-40)
1E4E  00                 [87] (-40)
1E4F  00                 [88] (-40)
1E50  C6                 [89] (-40)
1E51  00                 [90] (-37)
1E52  00                 [91] (-37)
1E53  00                 [92] (-37)
1E54  C7                 [93] (-37)
1E55  00                 [94] (-37)
1E56  00                 [95] (-36)
                         * locals:
1F74  00                 sizelocvars (0)
                         * upvalues:
1F75  00                 sizeupvalues (0)
                         ** end of function **

                         
1F76                     ** function [8] definition (level 2)
                         ** start of function **
1F76  00                 string size (0)
                         source name: (none)
1F78  01                 line defined (222)
1F79  8F                 last line defined (271)
1F7A  02                 nups (4)
1F7B  04                 numparams (1)
1F7C  01                 is_vararg (0)
1F7D  00                 maxstacksize (24)
                         * code:
1F7F  78                 sizecode (120)
1F80  5D000000           [001] getglobal  1   0        ; gRegion
1F84  6440C000           [002] self       1   1   257  ; -1520831144
1F88  62800001           [003] call       1   2   2  
1F8C  58400000           [004] test       1       1    ; to [6] if false
1F90  1A000080           [005] jmp        1            ; to [7]
1F94  1E008000           [006] return     0   1      
1F98  5D800000           [007] getglobal  1   2        ; gPromotedToHost
1F9C  58000000           [008] test       1       0    ; to [10] if true
1FA0  1A000180           [009] jmp        5            ; to [15]
1FA4  5DC00000           [010] getglobal  1   3        ; _T
1FA8  4E00C100           [011] gettable   1   1   260  ; "MigratedDuplicateConvicts"
1FAC  58000000           [012] test       1       0    ; to [14] if true
1FB0  1A000080           [013] jmp        1            ; to [15]
1FB4  17000000           [014] loadbool   0   0   0    ; false
1FB8  5D000000           [015] getglobal  1   0        ; gRegion
1FBC  6440C100           [016] self       1   1   261  ; 1224466847
1FC0  62800001           [017] call       1   2   2  
fail op	35
1FC4  23804100           [018] close      0  
1FC8  1A400B80           [019] jmp        46           ; to [66]
1FCC  9DC00100           [020] getglobal  2   7        ; 2083004503
1FD0  D3000000           [021] getupval   3   0      
1FD4  A2800001           [022] call       2   2   2  
1FD8  DDC00100           [023] getglobal  3   7        ; 2083004503
1FDC  24014201           [024] self       4   2   264  ; 813153904
1FE0  22010001           [025] call       4   2   0  
1FE4  E2800000           [026] call       3   0   2  
1FE8  13018000           [027] getupval   4   1      
1FEC  0E414202           [028] gettable   4   4   265  ; 762906652
1FF0  59810200           [029] loadk      5   10       ; "wgrm"
1FF4  99C10200           [030] loadk      6   11       ; 0
1FF8  22818001           [031] call       4   3   2  
1FFC  5D010300           [032] getglobal  5   12       ; math
2000  4E41C302           [033] gettable   5   5   269  ; -150971781
2004  A4814301           [034] self       6   2   270  ; -519628347
2008  A2810001           [035] call       6   2   2  
200C  84010103           [036] mul        6   6   4  
2010  62810001           [037] call       5   2   2  
2014  9DC10300           [038] getglobal  6   15       ; 248503575
2018  D2018000           [039] move       7   1      
201C  A2010101           [040] call       6   2   4  
2020  1A400580           [041] jmp        22           ; to [64]
2024  DD020400           [042] getglobal  11  16       ; 1074689893
2028  12030005           [043] move       12  10     
202C  E2820001           [044] call       11  2   2  
2030  D8420000           [045] test       11      1    ; to [47] if false
2034  1A000480           [046] jmp        17           ; to [64]
2038  E4424405           [047] self       11  10  273  ; 188678183
203C  E2820001           [048] call       11  2   2  
2040  D8020000           [049] test       11      0    ; to [51] if true
2044  1A000380           [050] jmp        13           ; to [64]
2048  E4824405           [051] self       11  10  274  ; -2135866365
204C  E2820001           [052] call       11  2   2  
2050  1D030400           [053] getglobal  12  16       ; 1074689893
2054  52038005           [054] move       13  11     
2058  22830001           [055] call       12  2   2  
205C  18430000           [056] test       12      1    ; to [58] if false
2060  1A400180           [057] jmp        6            ; to [64]
2064  24C3C405           [058] self       12  11  275  ; -1917464545
2068  22830001           [059] call       12  2   2  
206C  24034506           [060] self       12  12  276  ; 1401485941
2070  92038001           [061] move       14  3      
2074  D2038002           [062] move       15  5      
2078  22430002           [063] call       12  4   1  
207C  96810000           [064] tforloop   6       2    ; to [66] if exit
2080  1AC0F97F           [065] jmp        -24          ; to [42]
2084  13030001           [066] getupval   12  2      
2088  57038000           [067] loadbool   13  1   0    ; true
208C  22830001           [068] call       12  2   2  
2090  18030000           [069] test       12      0    ; to [71] if true
2094  1A000C80           [070] jmp        49           ; to [120]
2098  18000000           [071] test       0       0    ; to [73] if true
209C  1A400880           [072] jmp        34           ; to [107]
20A0  5D030300           [073] getglobal  13  12       ; math
20A4  4E43C506           [074] gettable   13  13  277  ; -2040962569
20A8  62838000           [075] call       13  1   2  
fail op	21
20AC  1580C506           [076] concat     0   13  278
20B0  1A000780           [077] jmp        29           ; to [107]
20B4  5DC30500           [078] getglobal  13  23       ; -895206725
20B8  93038001           [079] getupval   14  3      
20BC  62830001           [080] call       13  2   2  
20C0  9DC30300           [081] getglobal  14  15       ; 248503575
20C4  D2038000           [082] move       15  1      
20C8  A2030101           [083] call       14  2   4  
20CC  1AC00480           [084] jmp        20           ; to [105]
20D0  DD040400           [085] getglobal  19  16       ; 1074689893
20D4  12050009           [086] move       20  18     
20D8  E2840001           [087] call       19  2   2  
20DC  D8440000           [088] test       19      1    ; to [90] if false
20E0  1A800380           [089] jmp        15           ; to [105]
20E4  E4444409           [090] self       19  18  273  ; 188678183
20E8  E2840001           [091] call       19  2   2  
20EC  D8040000           [092] test       19      0    ; to [94] if true
20F0  1A800280           [093] jmp        11           ; to [105]
20F4  E4844409           [094] self       19  18  274  ; -2135866365
20F8  E2840001           [095] call       19  2   2  
20FC  1D050400           [096] getglobal  20  16       ; 1074689893
2100  52058009           [097] move       21  19     
2104  22850001           [098] call       20  2   2  
2108  18450000           [099] test       20      1    ; to [101] if false
210C  1AC00080           [100] jmp        4            ; to [105]
2110  2405C609           [101] self       20  19  280  ; 1479835399
2114  92058006           [102] move       22  13     
2118  D7050000           [103] loadbool   23  0   0    ; false
211C  22450002           [104] call       20  4   1  
2120  96830000           [105] tforloop   14      2    ; to [107] if exit
2124  1A40FA7F           [106] jmp        -22          ; to [85]
2128  1DC50000           [107] getglobal  20  3        ; _T
212C  0C85C68C           [108] settable   20  281 282  ; "ConvictTotalSpawnCount" nil
2130  1DC50000           [109] getglobal  20  3        ; _T
2134  0EC5460A           [110] gettable   20  20  283  ; "ConvictProgressTracker"
2138  18050000           [111] test       20      0    ; to [113] if true
213C  1A800180           [112] jmp        7            ; to [120]
2140  1DC50000           [113] getglobal  20  3        ; _T
2144  0E05470A           [114] gettable   20  20  284  ; 327577324
2148  5DC50000           [115] getglobal  21  3        ; _T
214C  4EC5C60A           [116] gettable   21  21  283  ; "ConvictProgressTracker"
2150  22450001           [117] call       20  2   1  
2154  1DC50000           [118] getglobal  20  3        ; _T
2158  0C85C68D           [119] settable   20  283 282  ; "ConvictProgressTracker" nil
215C  1E008000           [120] return     0   1      
                         * constants:
2160  1D                 sizek (29)
2161  04                 const type 4
2162  08                 string size (8)
2163  67526567696F6E00   "gRegion\0"
                         const [0]: "gRegion"
216B  01                 const type 3
216C  58F559A5           const [1]: (-1520831144)
2170  04                 const type 4
2171  10                 string size (16)
2172  6750726F6D6F7465+  "gPromote"
217A  64546F486F737400   "dToHost\0"
                         const [2]: "gPromotedToHost"
2182  04                 const type 4
2183  03                 string size (3)
2184  5F5400             "_T\0"
                         const [3]: "_T"
2187  04                 const type 4
2188  1A                 string size (26)
2189  4D69677261746564+  "Migrated"
2191  4475706C69636174+  "Duplicat"
2199  65436F6E76696374+  "eConvict"
21A1  7300               "s\0"
                         const [4]: "MigratedDuplicateConvicts"
21A3  01                 const type 3
21A4  9FE1FB48           const [5]: (1224466847)
21A8  01                 const type 3
21A9  01000000           const [6]: (1)
21AD  01                 const type 3
21AE  5720287C           const [7]: (2083004503)
21B2  01                 const type 3
21B3  70BE7730           const [8]: (813153904)
21B7  01                 const type 3
21B8  1C08792D           const [9]: (762906652)
21BC  04                 const type 4
21BD  05                 string size (5)
21BE  7767726D00         "wgrm\0"
                         const [10]: "wgrm"
21C3  03                 const type 3
21C4  0000803F           const [11]: (0)
21C8  04                 const type 4
21C9  05                 string size (5)
21CA  6D61746800         "math\0"
                         const [12]: "math"
21CF  01                 const type 3
21D0  7B5A00F7           const [13]: (-150971781)
21D4  01                 const type 3
21D5  C51907E1           const [14]: (-519628347)
21D9  01                 const type 3
21DA  17DDCF0E           const [15]: (248503575)
21DE  01                 const type 3
21DF  65770E40           const [16]: (1074689893)
21E3  01                 const type 3
21E4  27003F0B           const [17]: (188678183)
21E8  01                 const type 3
21E9  0344B180           const [18]: (-2135866365)
21ED  01                 const type 3
21EE  1FD0B58D           const [19]: (-1917464545)
21F2  01                 const type 3
21F3  75FA8853           const [20]: (1401485941)
21F7  01                 const type 3
21F8  F7615986           const [21]: (-2040962569)
21FC  03                 const type 3
21FD  0000803E           const [22]: (0)
2201  01                 const type 3
2202  BB3AA4CA           const [23]: (-895206725)
2206  01                 const type 3
2207  077F3458           const [24]: (1479835399)
220B  04                 const type 4
220C  17                 string size (23)
220D  436F6E7669637454+  "ConvictT"
2215  6F74616C53706177+  "otalSpaw"
221D  6E436F756E7400     "nCount\0"
                         const [25]: "ConvictTotalSpawnCount"
2224  00                 const type 0
                         const [26]: nil
2225  04                 const type 4
2226  17                 string size (23)
2227  436F6E7669637450+  "ConvictP"
222F  726F677265737354+  "rogressT"
2237  7261636B657200     "racker\0"
                         const [27]: "ConvictProgressTracker"
223E  01                 const type 3
223F  EC6E8613           const [28]: (327577324)
                         * functions:
2243  00                 sizep (0)
                         * lines:
2244  78                 sizelineinfo (120)
                         [pc] (line)
2245  DF                 [001] (-33)
2246  00                 [002] (-33)
2247  00                 [003] (-33)
2248  00                 [004] (-33)
2249  DF                 [005] (-33)
224A  00                 [006] (-32)
224B  00                 [007] (-29)
224C  00                 [008] (-29)
224D  DF                 [009] (-29)
224E  00                 [010] (-29)
224F  00                 [011] (-29)
2250  00                 [012] (-29)
2251  DF                 [013] (-29)
2252  00                 [014] (-27)
2253  00                 [015] (-24)
2254  00                 [016] (-24)
2255  DF                 [017] (-24)
2256  00                 [018] (-23)
2257  00                 [019] (-23)
2258  00                 [020] (-21)
2259  E0                 [021] (-21)
225A  00                 [022] (-21)
225B  00                 [023] (-20)
225C  00                 [024] (-20)
225D  E3                 [025] (-20)
225E  00                 [026] (-20)
225F  00                 [027] (-19)
2260  00                 [028] (-19)
2261  E3                 [029] (-19)
2262  00                 [030] (-19)
2263  00                 [031] (-19)
2264  00                 [032] (-18)
2265  E3                 [033] (-18)
2266  00                 [034] (-18)
2267  00                 [035] (-18)
2268  00                 [036] (-18)
2269  E3                 [037] (-18)
226A  00                 [038] (-17)
226B  00                 [039] (-17)
226C  00                 [040] (-17)
226D  E3                 [041] (-17)
226E  00                 [042] (-16)
226F  00                 [043] (-16)
2270  00                 [044] (-16)
2271  E3                 [045] (-16)
2272  00                 [046] (-16)
2273  00                 [047] (-16)
2274  00                 [048] (-16)
2275  E3                 [049] (-16)
2276  00                 [050] (-16)
2277  00                 [051] (-15)
2278  00                 [052] (-15)
2279  E5                 [053] (-14)
227A  00                 [054] (-14)
227B  00                 [055] (-14)
227C  00                 [056] (-14)
227D  E8                 [057] (-14)
227E  00                 [058] (-13)
227F  00                 [059] (-13)
2280  00                 [060] (-13)
2281  E8                 [061] (-13)
2282  00                 [062] (-13)
2283  00                 [063] (-13)
2284  00                 [064] (-17)
2285  E8                 [065] (-11)
2286  00                 [066] (-7)
2287  00                 [067] (-7)
2288  00                 [068] (-7)
2289  E9                 [069] (-6)
228A  00                 [070] (-6)
228B  00                 [071] (-5)
228C  00                 [072] (-5)
228D  E9                 [073] (-5)
228E  00                 [074] (-5)
228F  00                 [075] (-5)
2290  00                 [076] (-5)
2291  EB                 [077] (-5)
2292  00                 [078] (-3)
2293  00                 [079] (-3)
2294  00                 [080] (-3)
2295  EB                 [081] (-2)
2296  00                 [082] (-2)
2297  00                 [083] (-2)
2298  00                 [084] (-2)
2299  EB                 [085] (-1)
229A  00                 [086] (-1)
229B  00                 [087] (-1)
229C  00                 [088] (-1)
229D  EC                 [089] (-1)
229E  00                 [090] (-1)
229F  00                 [091] (-1)
22A0  00                 [092] (-1)
22A1  EC                 [093] (-1)
22A2  00                 [094] (0)
22A3  00                 [095] (0)
22A4  00                 [096] (1)
22A5  EC                 [097] (1)
22A6  00                 [098] (1)
22A7  00                 [099] (1)
22A8  00                 [100] (1)
22A9  EC                 [101] (2)
22AA  00                 [102] (2)
22AB  00                 [103] (2)
22AC  00                 [104] (2)
22AD  ED                 [105] (-2)
22AE  00                 [106] (4)
22AF  00                 [107] (9)
22B0  00                 [108] (9)
22B1  ED                 [109] (10)
22B2  00                 [110] (10)
22B3  00                 [111] (10)
22B4  00                 [112] (10)
22B5  ED                 [113] (11)
22B6  00                 [114] (11)
22B7  00                 [115] (11)
22B8  00                 [116] (11)
22B9  ED                 [117] (11)
22BA  00                 [118] (12)
22BB  00                 [119] (12)
22BC  00                 [120] (15)
                         * locals:
2425  00                 sizelocvars (0)
                         * upvalues:
2426  00                 sizeupvalues (0)
                         ** end of function **

                         
2427                     ** function [9] definition (level 2)
                         ** start of function **
2427  00                 string size (0)
                         source name: (none)
2429  02                 line defined (274)
242A  CC                 last line defined (332)
242B  02                 nups (8)
242C  08                 numparams (1)
242D  01                 is_vararg (0)
242E  00                 maxstacksize (9)
                         * code:
2431  01                 sizecode (182)
2432  5D000000           [001] getglobal  1   0        ; _T
2436  4E40C000           [002] gettable   1   1   257  ; "SeasonGameLoopActive"
fail op	35
243A  2380C000           [003] close      0  
243E  1A801A80           [004] jmp        107          ; to [112]
2442  5DC00000           [005] getglobal  1   3        ; gGameRules
2446  6400C100           [006] self       1   1   260  ; -163852551
244A  62800001           [007] call       1   2   2  
244E  58000000           [008] test       1       0    ; to [10] if true
2452  1A401980           [009] jmp        102          ; to [112]
2456  5DC00000           [010] getglobal  1   3        ; gGameRules
245A  6440C100           [011] self       1   1   261  ; -1201441975
245E  62800001           [012] call       1   2   2  
2462  9D000000           [013] getglobal  2   0        ; _T
2466  D3000000           [014] getupval   3   0      
246A  CE80C101           [015] gettable   3   3   262  ; 1536078401
246E  E2808000           [016] call       3   1   2  
2472  D8000000           [017] test       3       0    ; to [19] if true
2476  1A800A80           [018] jmp        43           ; to [62]
247A  DDC00100           [019] getglobal  3   7        ; gRegion
247E  E400C201           [020] self       3   3   264  ; -1520831144
2482  E2800001           [021] call       3   2   2  
2486  D8000000           [022] test       3       0    ; to [24] if true
248A  1A400980           [023] jmp        38           ; to [62]
248E  CE40C200           [024] gettable   3   1   265  ; "goalTag"
2492  1D810200           [025] getglobal  4   10       ; EMPTY_SYMBOL
fail op	35
2496  23008101           [026] close      0  
249A  1AC00780           [027] jmp        32           ; to [60]
249E  CEC0C200           [028] gettable   3   1   267  ; "archwingRequired"
24A2  D8400000           [029] test       3       1    ; to [31] if false
24A6  1A000780           [030] jmp        29           ; to [60]
24AA  CE00C300           [031] gettable   3   1   268  ; "isSharkwingMission"
24AE  D8400000           [032] test       3       1    ; to [34] if false
24B2  1A400680           [033] jmp        26           ; to [60]
24B6  DD000000           [034] getglobal  3   0        ; _T
24BA  CE40C301           [035] gettable   3   3   269  ; "gQuestMission"
24BE  D8400000           [036] test       3       1    ; to [38] if false
24C2  1A400580           [037] jmp        22           ; to [60]
24C6  DD800300           [038] getglobal  3   14       ; 1074689893
24CA  0EC1C300           [039] gettable   4   1   271  ; "keyChainName"
24CE  E2800001           [040] call       3   2   2  
24D2  D8400000           [041] test       3       1    ; to [43] if false
24D6  1A000180           [042] jmp        5            ; to [48]
24DA  CE00C400           [043] gettable   3   1   272  ; "missionType"
24DE  1D410400           [044] getglobal  4   17       ; Lotus_Game
24E2  0E814402           [045] gettable   4   4   274  ; "MT_GENERIC"
fail op	35
24E6  63008101           [046] close      1  
24EA  1AC00280           [047] jmp        12           ; to [60]
24EE  CE00C400           [048] gettable   3   1   272  ; "missionType"
24F2  1D410400           [049] getglobal  4   17       ; Lotus_Game
24F6  0EC14402           [050] gettable   4   4   275  ; "MT_MASTERY"
fail op	35
24FA  63008101           [051] close      1  
24FE  1A800180           [052] jmp        7            ; to [60]
2502  DD000000           [053] getglobal  3   0        ; _T
2506  CE00C501           [054] gettable   3   3   276  ; "SecretMiniGameActive"
250A  D8400000           [055] test       3       1    ; to [57] if false
250E  1A800080           [056] jmp        3            ; to [60]
2512  CE40C500           [057] gettable   3   1   277  ; "minEnemyLevel"
fail op	33
2516  61C0008B           [058] tforloop   1       3    ; to [60] if exit
251A  1A000080           [059] jmp        1            ; to [61]
251E  D7400000           [060] loadbool   3   0   1    ; false, to [62]
2522  D7008000           [061] loadbool   3   1   0    ; true
2526  8CC08080           [062] settable   2   257 3    ; "SeasonGameLoopActive"
252A  9D000000           [063] getglobal  2   0        ; _T
252E  8E404001           [064] gettable   2   2   257  ; "SeasonGameLoopActive"
2532  98000000           [065] test       2       0    ; to [67] if true
2536  1A000B80           [066] jmp        45           ; to [112]
253A  9DC00000           [067] getglobal  2   3        ; gGameRules
253E  A4C04501           [068] self       2   2   279  ; 127295906
2542  0B018000           [069] newtable   4   1   0    ; array=1, hash=0
2546  5D010600           [070] getglobal  5   24       ; -1615931716
254A  93018000           [071] getupval   6   1      
254E  A4414603           [072] self       6   6   281  ; 455421500
2552  A2010001           [073] call       6   2   0  
2556  62810000           [074] call       5   0   2  
255A  9D010600           [075] getglobal  6   24       ; -1615931716
255E  D3010001           [076] getupval   7   2      
2562  E441C603           [077] self       7   7   281  ; 455421500
2566  E2010001           [078] call       7   2   0  
256A  A2010000           [079] call       6   0   0  
256E  1B410000           [080] setlist    4   0   1    ; index 1 to top
2572  A2408001           [081] call       2   3   1  
2576  9D800600           [082] getglobal  2   26       ; gPromotedToHost
257A  98000000           [083] test       2       0    ; to [85] if true
257E  1A800680           [084] jmp        27           ; to [112]
2582  93008001           [085] getupval   2   3      
2586  A2408000           [086] call       2   1   1  
258A  9D000000           [087] getglobal  2   0        ; _T
258E  DDC00000           [088] getglobal  3   3        ; gGameRules
2592  E400C701           [089] self       3   3   284  ; -317790213
2596  53010002           [090] getupval   5   4      
259A  99410700           [091] loadk      6   29       ; 0
259E  E2800002           [092] call       3   4   2  
25A2  8CC0808D           [093] settable   2   283 3    ; "ConvictSpawnCycle"
25A6  9D000000           [094] getglobal  2   0        ; _T
25AA  DDC00700           [095] getglobal  3   31       ; _G
25AE  CE00C801           [096] gettable   3   3   288  ; "MigratedConvictSpawnCycle"
fail op	35
25B2  6380C001           [097] close      1  
25B6  1A400180           [098] jmp        6            ; to [105]
25BA  DDC00700           [099] getglobal  3   31       ; _G
25BE  CE00C801           [100] gettable   3   3   288  ; "MigratedConvictSpawnCycle"
25C2  1D010000           [101] getglobal  4   0        ; _T
25C6  0EC14602           [102] gettable   4   4   283  ; "ConvictSpawnCycle"
fail op	35
25CA  63008101           [103] close      1  
25CE  1A000080           [104] jmp        1            ; to [106]
25D2  D7400000           [105] loadbool   3   0   1    ; false, to [107]
25D6  D7008000           [106] loadbool   3   1   0    ; true
25DA  8CC0008F           [107] settable   2   286 3    ; "MigratedDuplicateConvicts"
25DE  9DC00700           [108] getglobal  2   31       ; _G
25E2  DD000000           [109] getglobal  3   0        ; _T
25E6  CEC0C601           [110] gettable   3   3   283  ; "ConvictSpawnCycle"
25EA  8CC00090           [111] settable   2   288 3    ; "MigratedConvictSpawnCycle"
25EE  9D000000           [112] getglobal  2   0        ; _T
25F2  8E404001           [113] gettable   2   2   257  ; "SeasonGameLoopActive"
25F6  98400000           [114] test       2       1    ; to [116] if false
25FA  1A000080           [115] jmp        1            ; to [117]
25FE  1E008000           [116] return     0   1      
2602  9D000000           [117] getglobal  2   0        ; _T
2606  8E404801           [118] gettable   2   2   289  ; "ConvictSpawnTimer"
fail op	35
260A  63804001           [119] close      1  
260E  1A000E80           [120] jmp        57           ; to [178]
2612  9D000000           [121] getglobal  2   0        ; _T
2616  8E404801           [122] gettable   2   2   289  ; "ConvictSpawnTimer"
fail op	21
261A  1580808E           [123] concat     0   285 2  
261E  1A000D80           [124] jmp        53           ; to [178]
2622  9D000000           [125] getglobal  2   0        ; _T
2626  DD000000           [126] getglobal  3   0        ; _T
262A  CE40C801           [127] gettable   3   3   289  ; "ConvictSpawnTimer"
262E  1D810800           [128] getglobal  4   34       ; 1661359502
2632  22818000           [129] call       4   1   2  
2636  CD008101           [130] sub        3   3   4  
263A  8CC08090           [131] settable   2   289 3    ; "ConvictSpawnTimer"
263E  9D000000           [132] getglobal  2   0        ; _T
2642  8E404801           [133] gettable   2   2   289  ; "ConvictSpawnTimer"
fail op	21
2646  15404701           [134] concat     0   2   285
264A  1A400B80           [135] jmp        46           ; to [182]
264E  9D000000           [136] getglobal  2   0        ; _T
2652  8E404801           [137] gettable   2   2   289  ; "ConvictSpawnTimer"
fail op	21
2656  15808091           [138] concat     0   291 2  
265A  1A400A80           [139] jmp        42           ; to [182]
265E  9D000000           [140] getglobal  2   0        ; _T
2662  D3008002           [141] getupval   3   5      
2666  E2808000           [142] call       3   1   2  
266A  8CC08090           [143] settable   2   289 3    ; "ConvictSpawnTimer"
266E  9D000000           [144] getglobal  2   0        ; _T
2672  8E004901           [145] gettable   2   2   292  ; "ConvictSpawnQueued"
2676  98400000           [146] test       2       1    ; to [148] if false
267A  1A400880           [147] jmp        34           ; to [182]
267E  9DC00000           [148] getglobal  2   3        ; gGameRules
2682  A4404901           [149] self       2   2   293  ; -2059104209
2686  A2800001           [150] call       2   2   2  
268A  98400000           [151] test       2       1    ; to [153] if false
268E  1A000780           [152] jmp        29           ; to [182]
2692  93000003           [153] getupval   2   6      
2696  A2808000           [154] call       2   1   2  
269A  8A000001           [155] len        2   2      
fail op	35
269E  23404701           [156] close      0  
26A2  1AC00580           [157] jmp        24           ; to [182]
26A6  9DC00000           [158] getglobal  2   3        ; gGameRules
26AA  A4004701           [159] self       2   2   284  ; -317790213
26AE  13018003           [160] getupval   4   7      
26B2  59410700           [161] loadk      5   29       ; 0
26B6  A2800002           [162] call       2   4   2  
fail op	35
26BA  23404701           [163] close      0  
26BE  1A000480           [164] jmp        17           ; to [182]
26C2  9D000000           [165] getglobal  2   0        ; _T
26C6  8C804992           [166] settable   2   292 294  ; "ConvictSpawnQueued" 1
26CA  9D000000           [167] getglobal  2   0        ; _T
26CE  8EC04601           [168] gettable   2   2   283  ; "ConvictSpawnCycle"
fail op	35
26D2  63804001           [169] close      1  
26D6  1A800280           [170] jmp        11           ; to [182]
26DA  9DC00000           [171] getglobal  2   3        ; gGameRules
26DE  A4C04901           [172] self       2   2   295  ; -803877924
26E2  13010002           [173] getupval   4   4      
26E6  5D010000           [174] getglobal  5   0        ; _T
26EA  4EC1C602           [175] gettable   5   5   283  ; "ConvictSpawnCycle"
26EE  A2400002           [176] call       2   4   1  
26F2  1AC00080           [177] jmp        4            ; to [182]
26F6  9D000000           [178] getglobal  2   0        ; _T
26FA  D3008002           [179] getupval   3   5      
26FE  E2808000           [180] call       3   1   2  
2702  8CC08090           [181] settable   2   289 3    ; "ConvictSpawnTimer"
2706  1E008000           [182] return     0   1      
                         * constants:
270A  28                 sizek (40)
270B  04                 const type 4
270C  03                 string size (3)
270D  5F5400             "_T\0"
                         const [0]: "_T"
2710  04                 const type 4
2711  15                 string size (21)
2712  536561736F6E4761+  "SeasonGa"
271A  6D654C6F6F704163+  "meLoopAc"
2722  7469766500         "tive\0"
                         const [1]: "SeasonGameLoopActive"
2727  00                 const type 0
                         const [2]: nil
2728  04                 const type 4
2729  0B                 string size (11)
272A  6747616D6552756C+  "gGameRul"
2732  657300             "es\0"
                         const [3]: "gGameRules"
2735  01                 const type 3
2736  F9CE3BF6           const [4]: (-163852551)
273A  01                 const type 3
273B  497363B8           const [5]: (-1201441975)
273F  01                 const type 3
2740  41B28E5B           const [6]: (1536078401)
2744  04                 const type 4
2745  08                 string size (8)
2746  67526567696F6E00   "gRegion\0"
                         const [7]: "gRegion"
274E  01                 const type 3
274F  58F559A5           const [8]: (-1520831144)
2753  04                 const type 4
2754  08                 string size (8)
2755  676F616C54616700   "goalTag\0"
                         const [9]: "goalTag"
275D  04                 const type 4
275E  0D                 string size (13)
275F  454D5054595F5359+  "EMPTY_SY"
2767  4D424F4C00         "MBOL\0"
                         const [10]: "EMPTY_SYMBOL"
276C  04                 const type 4
276D  11                 string size (17)
276E  6172636877696E67+  "archwing"
2776  5265717569726564+  "Required"
277E  00                 "\0"
                         const [11]: "archwingRequired"
277F  04                 const type 4
2780  13                 string size (19)
2781  6973536861726B77+  "isSharkw"
2789  696E674D69737369+  "ingMissi"
2791  6F6E00             "on\0"
                         const [12]: "isSharkwingMission"
2794  04                 const type 4
2795  0E                 string size (14)
2796  6751756573744D69+  "gQuestMi"
279E  7373696F6E00       "ssion\0"
                         const [13]: "gQuestMission"
27A4  01                 const type 3
27A5  65770E40           const [14]: (1074689893)
27A9  04                 const type 4
27AA  0D                 string size (13)
27AB  6B6579436861696E+  "keyChain"
27B3  4E616D6500         "Name\0"
                         const [15]: "keyChainName"
27B8  04                 const type 4
27B9  0C                 string size (12)
27BA  6D697373696F6E54+  "missionT"
27C2  79706500           "ype\0"
                         const [16]: "missionType"
27C6  04                 const type 4
27C7  0B                 string size (11)
27C8  4C6F7475735F4761+  "Lotus_Ga"
27D0  6D6500             "me\0"
                         const [17]: "Lotus_Game"
27D3  04                 const type 4
27D4  0B                 string size (11)
27D5  4D545F47454E4552+  "MT_GENER"
27DD  494300             "IC\0"
                         const [18]: "MT_GENERIC"
27E0  04                 const type 4
27E1  0B                 string size (11)
27E2  4D545F4D41535445+  "MT_MASTE"
27EA  525900             "RY\0"
                         const [19]: "MT_MASTERY"
27ED  04                 const type 4
27EE  15                 string size (21)
27EF  5365637265744D69+  "SecretMi"
27F7  6E6947616D654163+  "niGameAc"
27FF  7469766500         "tive\0"
                         const [20]: "SecretMiniGameActive"
2804  04                 const type 4
2805  0E                 string size (14)
2806  6D696E456E656D79+  "minEnemy"
280E  4C6576656C00       "Level\0"
                         const [21]: "minEnemyLevel"
2814  03                 const type 3
2815  00002041           const [22]: (0)
2819  01                 const type 3
281A  A2619607           const [23]: (127295906)
281E  01                 const type 3
281F  BCD6AE9F           const [24]: (-1615931716)
2823  01                 const type 3
2824  3C2E251B           const [25]: (455421500)
2828  04                 const type 4
2829  10                 string size (16)
282A  6750726F6D6F7465+  "gPromote"
2832  64546F486F737400   "dToHost\0"
                         const [26]: "gPromotedToHost"
283A  04                 const type 4
283B  12                 string size (18)
283C  436F6E7669637453+  "ConvictS"
2844  7061776E4379636C+  "pawnCycl"
284C  6500               "e\0"
                         const [27]: "ConvictSpawnCycle"
284E  01                 const type 3
284F  FBE70EED           const [28]: (-317790213)
2853  03                 const type 3
2854  00000000           const [29]: (0)
2858  04                 const type 4
2859  1A                 string size (26)
285A  4D69677261746564+  "Migrated"
2862  4475706C69636174+  "Duplicat"
286A  65436F6E76696374+  "eConvict"
2872  7300               "s\0"
                         const [30]: "MigratedDuplicateConvicts"
2874  04                 const type 4
2875  03                 string size (3)
2876  5F4700             "_G\0"
                         const [31]: "_G"
2879  04                 const type 4
287A  1A                 string size (26)
287B  4D69677261746564+  "Migrated"
2883  436F6E7669637453+  "ConvictS"
288B  7061776E4379636C+  "pawnCycl"
2893  6500               "e\0"
                         const [32]: "MigratedConvictSpawnCycle"
2895  04                 const type 4
2896  12                 string size (18)
2897  436F6E7669637453+  "ConvictS"
289F  7061776E54696D65+  "pawnTime"
28A7  7200               "r\0"
                         const [33]: "ConvictSpawnTimer"
28A9  01                 const type 3
28AA  8E550663           const [34]: (1661359502)
28AE  03                 const type 3
28AF  000070C2           const [35]: (0)
28B3  04                 const type 4
28B4  13                 string size (19)
28B5  436F6E7669637453+  "ConvictS"
28BD  7061776E51756575+  "pawnQueu"
28C5  656400             "ed\0"
                         const [36]: "ConvictSpawnQueued"
28C8  01                 const type 3
28C9  2F904485           const [37]: (-2059104209)
28CD  01                 const type 3
28CE  01000000           const [38]: (1)
28D2  01                 const type 3
28D3  DCCB15D0           const [39]: (-803877924)
                         * functions:
28D7  00                 sizep (0)
                         * lines:
28D9  01                 sizelineinfo (182)
                         [pc] (line)
28DA  13                 [001] (19)
28DB  01                 [002] (19)
28DC  00                 [003] (19)
28DD  00                 [004] (19)
28DE  13                 [005] (19)
28DF  01                 [006] (19)
28E0  00                 [007] (19)
28E1  00                 [008] (19)
28E2  13                 [009] (19)
28E3  01                 [010] (21)
28E4  00                 [011] (21)
28E5  00                 [012] (21)
28E6  13                 [013] (23)
28E7  01                 [014] (25)
28E8  00                 [015] (25)
28E9  00                 [016] (25)
28EA  13                 [017] (25)
28EB  01                 [018] (25)
28EC  00                 [019] (26)
28ED  00                 [020] (26)
28EE  13                 [021] (26)
28EF  01                 [022] (26)
28F0  00                 [023] (26)
28F1  00                 [024] (27)
28F2  13                 [025] (27)
28F3  01                 [026] (27)
28F4  00                 [027] (27)
28F5  00                 [028] (28)
28F6  13                 [029] (28)
28F7  01                 [030] (28)
28F8  00                 [031] (29)
28F9  00                 [032] (29)
28FA  13                 [033] (29)
28FB  01                 [034] (30)
28FC  00                 [035] (30)
28FD  00                 [036] (30)
28FE  15                 [037] (30)
28FF  01                 [038] (31)
2900  00                 [039] (31)
2901  00                 [040] (31)
2902  15                 [041] (31)
2903  01                 [042] (31)
2904  00                 [043] (31)
2905  00                 [044] (31)
2906  15                 [045] (31)
2907  01                 [046] (31)
2908  00                 [047] (31)
2909  00                 [048] (32)
290A  17                 [049] (32)
290B  01                 [050] (32)
290C  00                 [051] (32)
290D  00                 [052] (32)
290E  19                 [053] (33)
290F  01                 [054] (33)
2910  00                 [055] (33)
2911  00                 [056] (33)
2912  19                 [057] (34)
2913  01                 [058] (34)
2914  00                 [059] (34)
2915  00                 [060] (35)
2916  19                 [061] (35)
2917  01                 [062] (35)
2918  00                 [063] (37)
2919  00                 [064] (37)
291A  19                 [065] (37)
291B  01                 [066] (37)
291C  00                 [067] (39)
291D  00                 [068] (39)
291E  19                 [069] (39)
291F  01                 [070] (39)
2920  00                 [071] (39)
2921  00                 [072] (39)
2922  1A                 [073] (39)
2923  01                 [074] (39)
2924  00                 [075] (39)
2925  00                 [076] (39)
2926  1A                 [077] (39)
2927  01                 [078] (39)
2928  00                 [079] (39)
2929  00                 [080] (39)
292A  1A                 [081] (39)
292B  01                 [082] (41)
292C  00                 [083] (41)
292D  00                 [084] (41)
292E  1A                 [085] (43)
292F  01                 [086] (43)
2930  00                 [087] (46)
2931  00                 [088] (46)
2932  1A                 [089] (46)
2933  01                 [090] (46)
2934  00                 [091] (46)
2935  00                 [092] (46)
2936  1B                 [093] (46)
2937  01                 [094] (47)
2938  00                 [095] (47)
2939  00                 [096] (47)
293A  1B                 [097] (47)
293B  01                 [098] (47)
293C  00                 [099] (47)
293D  00                 [100] (47)
293E  1B                 [101] (47)
293F  01                 [102] (47)
2940  00                 [103] (47)
2941  00                 [104] (47)
2942  1B                 [105] (47)
2943  01                 [106] (47)
2944  00                 [107] (47)
2945  00                 [108] (48)
2946  1C                 [109] (48)
2947  01                 [110] (48)
2948  00                 [111] (48)
2949  00                 [112] (53)
294A  1C                 [113] (53)
294B  01                 [114] (53)
294C  00                 [115] (53)
294D  00                 [116] (54)
294E  1C                 [117] (57)
294F  01                 [118] (57)
2950  00                 [119] (57)
2951  00                 [120] (57)
2952  1D                 [121] (57)
2953  01                 [122] (57)
2954  00                 [123] (57)
2955  00                 [124] (57)
2956  1D                 [125] (58)
2957  01                 [126] (58)
2958  00                 [127] (58)
2959  00                 [128] (58)
295A  1D                 [129] (58)
295B  01                 [130] (58)
295C  00                 [131] (58)
295D  00                 [132] (61)
295E  1E                 [133] (61)
295F  01                 [134] (61)
2960  00                 [135] (61)
2961  00                 [136] (61)
2962  1E                 [137] (61)
2963  01                 [138] (61)
2964  00                 [139] (61)
2965  00                 [140] (62)
2966  1E                 [141] (62)
2967  01                 [142] (62)
2968  00                 [143] (62)
2969  00                 [144] (65)
296A  1E                 [145] (65)
296B  01                 [146] (65)
296C  00                 [147] (65)
296D  00                 [148] (65)
296E  1F                 [149] (65)
296F  01                 [150] (65)
2970  00                 [151] (65)
2971  00                 [152] (65)
2972  1F                 [153] (65)
2973  01                 [154] (65)
2974  00                 [155] (65)
2975  00                 [156] (65)
2976  1F                 [157] (65)
2977  01                 [158] (65)
2978  00                 [159] (65)
2979  00                 [160] (65)
297A  1F                 [161] (65)
297B  01                 [162] (65)
297C  00                 [163] (65)
297D  00                 [164] (65)
297E  1F                 [165] (66)
297F  01                 [166] (66)
2980  00                 [167] (68)
2981  00                 [168] (68)
2982  1F                 [169] (68)
2983  01                 [170] (68)
2984  00                 [171] (69)
2985  00                 [172] (69)
2986  1F                 [173] (69)
2987  01                 [174] (69)
2988  00                 [175] (69)
2989  00                 [176] (69)
298A  1F                 [177] (72)
298B  01                 [178] (74)
298C  00                 [179] (74)
298D  00                 [180] (74)
298E  1F                 [181] (74)
298F  01                 [182] (76)
                         * locals:
2BB2  00                 sizelocvars (0)
                         * upvalues:
2BB3  00                 sizeupvalues (0)
                         ** end of function **

                         
2BB4                     ** function [10] definition (level 2)
                         ** start of function **
2BB4  00                 string size (0)
                         source name: (none)
2BB6  02                 line defined (334)
2BB7  D3                 last line defined (339)
2BB8  02                 nups (0)
2BB9  00                 numparams (0)
2BBA  00                 is_vararg (0)
2BBB  00                 maxstacksize (5)
                         * code:
2BBD  18                 sizecode (24)
2BBE  1D000000           [01] getglobal  0   0        ; _T
2BC2  0E404000           [02] gettable   0   0   257  ; "cachedIsWolfAsstermination"
2BC6  18400000           [03] test       0       1    ; to [5] if false
2BCA  1AC00380           [04] jmp        16           ; to [21]
2BCE  1D000000           [05] getglobal  0   0        ; _T
2BD2  5D800000           [06] getglobal  1   2        ; string
2BD6  4EC0C000           [07] gettable   1   1   259  ; -565905820
2BDA  9D000100           [08] getglobal  2   4        ; -1615931716
2BDE  DD400100           [09] getglobal  3   5        ; gGameRules
2BE2  E480C101           [10] self       3   3   262  ; -1201441975
2BE6  E2800001           [11] call       3   2   2  
2BEA  CEC0C101           [12] gettable   3   3   263  ; "goalTag"
2BEE  A2800001           [13] call       2   2   2  
2BF2  D9000200           [14] loadk      3   8        ; "Wolf"
2BF6  62808001           [15] call       1   3   2  
fail op	35
2BFA  2340C200           [16] close      0  
2BFE  1A000080           [17] jmp        1            ; to [19]
2C02  57400000           [18] loadbool   1   0   1    ; false, to [20]
2C06  57008000           [19] loadbool   1   1   0    ; true
2C0A  0C408080           [20] settable   0   257 1    ; "cachedIsWolfAsstermination"
2C0E  1D000000           [21] getglobal  0   0        ; _T
2C12  0E404000           [22] gettable   0   0   257  ; "cachedIsWolfAsstermination"
2C16  1E000001           [23] return     0   2      
2C1A  1E008000           [24] return     0   1      
                         * constants:
2C1E  0A                 sizek (10)
2C1F  04                 const type 4
2C20  03                 string size (3)
2C21  5F5400             "_T\0"
                         const [0]: "_T"
2C24  04                 const type 4
2C25  1B                 string size (27)
2C26  6361636865644973+  "cachedIs"
2C2E  576F6C6641737374+  "WolfAsst"
2C36  65726D696E617469+  "erminati"
2C3E  6F6E00             "on\0"
                         const [1]: "cachedIsWolfAsstermination"
2C41  04                 const type 4
2C42  07                 string size (7)
2C43  737472696E6700     "string\0"
                         const [2]: "string"
2C4A  01                 const type 3
2C4B  64F644DE           const [3]: (-565905820)
2C4F  01                 const type 3
2C50  BCD6AE9F           const [4]: (-1615931716)
2C54  04                 const type 4
2C55  0B                 string size (11)
2C56  6747616D6552756C+  "gGameRul"
2C5E  657300             "es\0"
                         const [5]: "gGameRules"
2C61  01                 const type 3
2C62  497363B8           const [6]: (-1201441975)
2C66  04                 const type 4
2C67  08                 string size (8)
2C68  676F616C54616700   "goalTag\0"
                         const [7]: "goalTag"
2C70  04                 const type 4
2C71  05                 string size (5)
2C72  576F6C6600         "Wolf\0"
                         const [8]: "Wolf"
2C77  00                 const type 0
                         const [9]: nil
                         * functions:
2C78  00                 sizep (0)
                         * lines:
2C79  18                 sizelineinfo (24)
                         [pc] (line)
2C7A  4F                 [01] (79)
2C7B  01                 [02] (79)
2C7C  00                 [03] (79)
2C7D  00                 [04] (79)
2C7E  4F                 [05] (80)
2C7F  01                 [06] (80)
2C80  00                 [07] (80)
2C81  00                 [08] (80)
2C82  4F                 [09] (80)
2C83  01                 [10] (80)
2C84  00                 [11] (80)
2C85  00                 [12] (80)
2C86  4F                 [13] (80)
2C87  01                 [14] (80)
2C88  00                 [15] (80)
2C89  00                 [16] (80)
2C8A  50                 [17] (80)
2C8B  01                 [18] (80)
2C8C  00                 [19] (80)
2C8D  00                 [20] (80)
2C8E  50                 [21] (82)
2C8F  01                 [22] (82)
2C90  00                 [23] (82)
2C91  00                 [24] (83)
                         * locals:
2CDA  00                 sizelocvars (0)
                         * upvalues:
2CDB  00                 sizeupvalues (0)
                         ** end of function **

                         
2CDC                     ** function [11] definition (level 2)
                         ** start of function **
2CDC  00                 string size (0)
                         source name: (none)
2CDE  02                 line defined (341)
2CDF  91                 last line defined (529)
2CE0  04                 nups (7)
2CE1  07                 numparams (1)
2CE2  01                 is_vararg (0)
2CE3  00                 maxstacksize (84)
                         * code:
2CE6  04                 sizecode (627)
2CE7  5D000000           [001] getglobal  1   0        ; _T
2CEB  4E40C000           [002] gettable   1   1   257  ; "AssterminationActive"
fail op	35
2CEF  2380C000           [003] close      0  
2CF3  1A400080           [004] jmp        2            ; to [7]
2CF7  1E008000           [005] return     0   1      
2CFB  1A408C80           [006] jmp        562          ; to [569]
2CFF  5D000000           [007] getglobal  1   0        ; _T
2D03  4E40C000           [008] gettable   1   1   257  ; "AssterminationActive"
fail op	35
2D07  23C0C000           [009] close      0  
2D0B  1A002C80           [010] jmp        177          ; to [188]
2D0F  5D000000           [011] getglobal  1   0        ; _T
2D13  4E00C100           [012] gettable   1   1   260  ; "MissionInitReady"
2D17  58000000           [013] test       1       0    ; to [15] if true
2D1B  1A002B80           [014] jmp        173          ; to [188]
2D1F  5D000000           [015] getglobal  1   0        ; _T
2D23  9D400100           [016] getglobal  2   5        ; gRegion
2D27  A4804101           [017] self       2   2   262  ; -1520831144
2D2B  A2800001           [018] call       2   2   2  
2D2F  98000000           [019] test       2       0    ; to [21] if true
2D33  1AC00380           [020] jmp        16           ; to [37]
2D37  9DC00100           [021] getglobal  2   7        ; gGameRules
2D3B  A4004201           [022] self       2   2   264  ; -1201441975
2D3F  A2800001           [023] call       2   2   2  
2D43  8E404201           [024] gettable   2   2   265  ; "missionType"
2D47  DD800200           [025] getglobal  3   10       ; Lotus_Game
2D4B  CEC0C201           [026] gettable   3   3   267  ; "MT_ASSASSINATION"
fail op	35
2D4F  23C00001           [027] close      0  
2D53  1A400180           [028] jmp        6            ; to [35]
2D57  9DC00100           [029] getglobal  2   7        ; gGameRules
2D5B  A4004201           [030] self       2   2   264  ; -1201441975
2D5F  A2800001           [031] call       2   2   2  
2D63  8E004301           [032] gettable   2   2   268  ; "maxWaveNum"
fail op	21
2D67  55808086           [033] concat     1   269 2  
2D6B  1A000080           [034] jmp        1            ; to [36]
2D6F  97400000           [035] loadbool   2   0   1    ; false, to [37]
2D73  97008000           [036] loadbool   2   1   0    ; true
2D77  4C808080           [037] settable   1   257 2    ; "AssterminationActive"
2D7B  5D000000           [038] getglobal  1   0        ; _T
2D7F  4E40C000           [039] gettable   1   1   257  ; "AssterminationActive"
2D83  58400000           [040] test       1       1    ; to [42] if false
2D87  1A000080           [041] jmp        1            ; to [43]
2D8B  1E008000           [042] return     0   1      
2D8F  5D400100           [043] getglobal  1   5        ; gRegion
2D93  6480C300           [044] self       1   1   270  ; -774964848
2D97  62800001           [045] call       1   2   2  
2D9B  64C0C300           [046] self       1   1   271  ; 537471347
2D9F  62800001           [047] call       1   2   2  
2DA3  6400C400           [048] self       1   1   272  ; -880892935
2DA7  62800001           [049] call       1   2   2  
fail op	35
2DAB  2340C300           [050] close      0  
2DAF  1A400180           [051] jmp        6            ; to [58]
2DB3  9D400400           [052] getglobal  2   17       ; -1817107093
2DB7  D9800400           [053] loadk      3   18       ; "no choke points found in map"
2DBB  A2400001           [054] call       2   2   1  
2DBF  9D000000           [055] getglobal  2   0        ; _T
2DC3  8CC0C080           [056] settable   2   257 259  ; "AssterminationActive" nil
2DC7  1E008000           [057] return     0   1      
2DCB  9D000000           [058] getglobal  2   0        ; _T
2DCF  CB000000           [059] newtable   3   0   0    ; array=0, hash=0
2DD3  8CC08089           [060] settable   2   275 3    ; "AssterminationChokePoints"
2DD7  99000500           [061] loadk      2   20       ; 0
2DDB  CA008000           [062] len        3   1      
2DDF  19410500           [063] loadk      4   21       ; 0
2DE3  90800280           [064] forprep    2   11       ; to [76]
2DE7  9D810500           [065] getglobal  6   22       ; table
2DEB  8EC14503           [066] gettable   6   6   279  ; -431682403
2DEF  DD010000           [067] getglobal  7   0        ; _T
2DF3  CEC1C403           [068] gettable   7   7   275  ; "AssterminationChokePoints"
2DF7  0B820000           [069] newtable   8   0   2    ; array=0, hash=2
2DFB  4E428100           [070] gettable   9   1   5  
2DFF  0C42028C           [071] settable   8   280 9    ; "pos"
2E03  4302C502           [072] add        9   5   276  ; 0
2E07  4E428200           [073] gettable   9   1   9  
2E0B  0C42828C           [074] settable   8   281 9    ; "orient"
2E0F  A2418001           [075] call       6   3   1  
2E13  94C0FC7F           [076] forloop    2   -12      ; to [65] if loop
2E17  9D010000           [077] getglobal  6   0        ; _T
2E1B  CB010000           [078] newtable   7   0   0    ; array=0, hash=0
2E1F  8CC1018D           [079] settable   6   282 7    ; "AssterminationAmbushIndices"
2E23  99010500           [080] loadk      6   20       ; 0
2E27  DD010000           [081] getglobal  7   0        ; _T
2E2B  CEC1C403           [082] gettable   7   7   275  ; "AssterminationChokePoints"
2E2F  CA018003           [083] len        7   7      
2E33  19020500           [084] loadk      8   20       ; 0
2E37  90010580           [085] forprep    6   21       ; to [107]
2E3B  9D020000           [086] getglobal  10  0        ; _T
2E3F  8EC24405           [087] gettable   10  10  275  ; "AssterminationChokePoints"
2E43  8E420205           [088] gettable   10  10  9  
2E47  8E024605           [089] gettable   10  10  280  ; "pos"
2E4B  DD420100           [090] getglobal  11  5        ; gRegion
2E4F  E4C2C605           [091] self       11  11  283  ; -1084394954
2E53  5D030700           [092] getglobal  13  28       ; gNpcDoorHintType
2E57  92030005           [093] move       14  10     
2E5B  D9430700           [094] loadk      15  29       ; 0
2E5F  E2828002           [095] call       11  5   2  
2E63  1D830700           [096] getglobal  12  30       ; 1074689893
2E67  52038005           [097] move       13  11     
2E6B  22830001           [098] call       12  2   2  
2E6F  18430000           [099] test       12      1    ; to [101] if false
2E73  1A400180           [100] jmp        6            ; to [107]
2E77  1D830500           [101] getglobal  12  22       ; table
2E7B  0EC34506           [102] gettable   12  12  279  ; -431682403
2E7F  5D030000           [103] getglobal  13  0        ; _T
2E83  4E83C606           [104] gettable   13  13  282  ; "AssterminationAmbushIndices"
2E87  92038004           [105] move       14  9      
2E8B  22438001           [106] call       12  3   1  
2E8F  9441FA7F           [107] forloop    6   -22      ; to [86] if loop
2E93  0B030000           [108] newtable   12  0   0    ; array=0, hash=0
2E97  59430500           [109] loadk      13  21       ; 0
2E9B  9D030000           [110] getglobal  14  0        ; _T
2E9F  8E834607           [111] gettable   14  14  282  ; "AssterminationAmbushIndices"
2EA3  8A030007           [112] len        14  14     
2EA7  D9430500           [113] loadk      15  21       ; 0
2EAB  50030180           [114] forprep    13  5        ; to [120]
2EAF  5D840500           [115] getglobal  17  22       ; table
2EB3  4EC4C508           [116] gettable   17  17  279  ; -431682403
2EB7  92040006           [117] move       18  12     
2EBB  D2040008           [118] move       19  16     
2EBF  62448001           [119] call       17  3   1  
2EC3  5443FE7F           [120] forloop    13  -6       ; to [115] if loop
2EC7  53040000           [121] getupval   17  0      
2ECB  4EC4C708           [122] gettable   17  17  287  ; -2001492098
2ECF  92040006           [123] move       18  12     
2ED3  62440001           [124] call       17  2   1  
2ED7  5D040000           [125] getglobal  17  0        ; _T
2EDB  8B040000           [126] newtable   18  0   0    ; array=0, hash=0
2EDF  4C840490           [127] settable   17  288 18   ; "AssterminationAmbushMiniBossIndices"
2EE3  59040500           [128] loadk      17  20       ; 0
2EE7  9D440800           [129] getglobal  18  33       ; math
2EEB  8E844809           [130] gettable   18  18  290  ; 1710846250
2EEF  D9C40800           [131] loadk      19  35       ; 0
2EF3  0A050006           [132] len        20  12     
2EF7  A2848001           [133] call       18  3   2  
2EFB  D9040500           [134] loadk      19  20       ; 0
2EFF  50C40080           [135] forprep    17  4        ; to [140]
2F03  5D050000           [136] getglobal  21  0        ; _T
2F07  4E05C80A           [137] gettable   21  21  288  ; "AssterminationAmbushMiniBossIndices"
2F0B  8E050506           [138] gettable   22  12  20 
2F0F  4C05490B           [139] settable   21  22  292  ; 1
2F13  5484FE7F           [140] forloop    17  -5       ; to [136] if loop
2F17  5D050000           [141] getglobal  21  0        ; _T
2F1B  4C45C392           [142] settable   21  293 269  ; "AssterminationNextChokePoint" 0
2F1F  4B050000           [143] newtable   21  0   0    ; array=0, hash=0
2F23  9D850900           [144] getglobal  22  38       ; -1615931716
2F27  D3058000           [145] getupval   23  1      
2F2B  E4C5C90B           [146] self       23  23  295  ; 455421500
2F2F  E2050001           [147] call       23  2   0  
2F33  A2050000           [148] call       22  0   0  
2F37  5B450000           [149] setlist    21  0   1    ; index 1 to top
2F3B  93050001           [150] getupval   22  2      
2F3F  A2858000           [151] call       22  1   2  
2F43  98050000           [152] test       22      0    ; to [154] if true
2F47  1A000580           [153] jmp        21           ; to [175]
2F4B  9D850500           [154] getglobal  22  22       ; table
2F4F  8EC5450B           [155] gettable   22  22  279  ; -431682403
2F53  D205800A           [156] move       23  21     
2F57  13068001           [157] getupval   24  3      
2F5B  24C6490C           [158] self       24  24  295  ; 455421500
2F5F  22060001           [159] call       24  2   0  
2F63  A2450000           [160] call       22  0   1  
2F67  9D850500           [161] getglobal  22  22       ; table
2F6B  8EC5450B           [162] gettable   22  22  279  ; -431682403
2F6F  D205800A           [163] move       23  21     
2F73  13060002           [164] getupval   24  4      
2F77  24C6490C           [165] self       24  24  295  ; 455421500
2F7B  22060001           [166] call       24  2   0  
2F7F  A2450000           [167] call       22  0   1  
2F83  9D850500           [168] getglobal  22  22       ; table
2F87  8EC5450B           [169] gettable   22  22  279  ; -431682403
2F8B  D205800A           [170] move       23  21     
2F8F  13068002           [171] getupval   24  5      
2F93  24C6490C           [172] self       24  24  295  ; 455421500
2F97  22060001           [173] call       24  2   0  
2F9B  A2450000           [174] call       22  0   1  
2F9F  9DC50100           [175] getglobal  22  7        ; gGameRules
2FA3  A4054A0B           [176] self       22  22  296  ; 127295906
2FA7  1206800A           [177] move       24  21     
2FAB  A2458001           [178] call       22  3   1  
2FAF  9D450100           [179] getglobal  22  5        ; gRegion
2FB3  A485430B           [180] self       22  22  270  ; -774964848
2FB7  A2850001           [181] call       22  2   2  
2FBB  A4C5430B           [182] self       22  22  271  ; 537471347
2FBF  A2850001           [183] call       22  2   2  
2FC3  A4454A0B           [184] self       22  22  297  ; -110386376
2FC7  17060000           [185] loadbool   24  0   0    ; false
2FCB  A2458001           [186] call       22  3   1  
2FCF  1A005F80           [187] jmp        381          ; to [569]
2FD3  9D050000           [188] getglobal  22  0        ; _T
2FD7  8E45490B           [189] gettable   22  22  293  ; "AssterminationNextChokePoint"
fail op	35
2FDB  63C0400B           [190] close      1  
2FDF  1A402480           [191] jmp        146          ; to [338]
2FE3  9D050000           [192] getglobal  22  0        ; _T
2FE7  8E45490B           [193] gettable   22  22  293  ; "AssterminationNextChokePoint"
2FEB  DD050000           [194] getglobal  23  0        ; _T
2FEF  CE85C60B           [195] gettable   23  23  282  ; "AssterminationAmbushIndices"
2FF3  CA05800B           [196] len        23  23     
fail op	33
2FF7  21C0050B           [197] tforloop   0       23   ; to [199] if exit
2FFB  1A802280           [198] jmp        139          ; to [338]
2FFF  9D050000           [199] getglobal  22  0        ; _T
3003  8E854A0B           [200] gettable   22  22  298  ; "AssterminationAmbushSpawnRunning"
3007  98450000           [201] test       22      1    ; to [203] if false
300B  1A802180           [202] jmp        135          ; to [338]
300F  9D450100           [203] getglobal  22  5        ; gRegion
3013  A485430B           [204] self       22  22  270  ; -774964848
3017  A2850001           [205] call       22  2   2  
301B  A4C5430B           [206] self       22  22  271  ; 537471347
301F  A2850001           [207] call       22  2   2  
3023  A4C54A0B           [208] self       22  22  299  ; -1626084341
3027  A2850001           [209] call       22  2   2  
fail op	35
302B  2340430B           [210] close      0  
302F  1A401F80           [211] jmp        126          ; to [338]
3033  9D850700           [212] getglobal  22  30       ; 1074689893
3037  DD050000           [213] getglobal  23  0        ; _T
303B  CE05CB0B           [214] gettable   23  23  300  ; "AssterminationAmbushMiniBoss"
303F  A2850001           [215] call       22  2   2  
3043  98050000           [216] test       22      0    ; to [218] if true
3047  1AC01D80           [217] jmp        120          ; to [338]
304B  9D850700           [218] getglobal  22  30       ; 1074689893
304F  DD050000           [219] getglobal  23  0        ; _T
3053  CE45CB0B           [220] gettable   23  23  301  ; "AssterminationProgressTracker"
3057  A2850001           [221] call       22  2   2  
305B  98050000           [222] test       22      0    ; to [224] if true
305F  1A401C80           [223] jmp        114          ; to [338]
3063  9D450100           [224] getglobal  22  5        ; gRegion
3067  A485430B           [225] self       22  22  270  ; -774964848
306B  A2850001           [226] call       22  2   2  
306F  A4C5430B           [227] self       22  22  271  ; 537471347
3073  A2850001           [228] call       22  2   2  
3077  E4854B0B           [229] self       23  22  302  ; -1553799614
307B  E2850001           [230] call       23  2   2  
307F  1D060000           [231] getglobal  24  0        ; _T
3083  5D060000           [232] getglobal  25  0        ; _T
3087  4E46C90C           [233] gettable   25  25  293  ; "AssterminationNextChokePoint"
308B  4306C50C           [234] add        25  25  276  ; 0
308F  0C468692           [235] settable   24  293 25   ; "AssterminationNextChokePoint"
3093  1D060000           [236] getglobal  24  0        ; _T
3097  0E46490C           [237] gettable   24  24  293  ; "AssterminationNextChokePoint"
fail op	35
309B  2300450C           [238] close      0  
309F  1A400E80           [239] jmp        58           ; to [298]
30A3  1DC60B00           [240] getglobal  24  47       ; gPromotedToHost
30A7  18460000           [241] test       24      1    ; to [243] if false
30AB  1AC00580           [242] jmp        24           ; to [267]
30AF  1D060C00           [243] getglobal  24  48       ; 248503575
30B3  5D060000           [244] getglobal  25  0        ; _T
30B7  4EC6C40C           [245] gettable   25  25  275  ; "AssterminationChokePoints"
30BB  22060101           [246] call       24  2   4  
30BF  1A000480           [247] jmp        17           ; to [265]
30C3  5D470100           [248] getglobal  29  5        ; gRegion
30C7  64C7C60E           [249] self       29  29  283  ; -1084394954
30CB  DD070700           [250] getglobal  31  28       ; gNpcDoorHintType
30CF  0E08460E           [251] gettable   32  28  280  ; "pos"
30D3  59480700           [252] loadk      33  29       ; 0
30D7  62878002           [253] call       29  5   2  
30DB  9D870700           [254] getglobal  30  30       ; 1074689893
30DF  D207800E           [255] move       31  29     
30E3  A2870001           [256] call       30  2   2  
30E7  98470000           [257] test       30      1    ; to [259] if false
30EB  1A400180           [258] jmp        6            ; to [265]
30EF  A447CC0E           [259] self       30  29  305  ; -1923578185
30F3  19880C00           [260] loadk      32  50       ; "Close"
30F7  A2478001           [261] call       30  3   1  
30FB  A447CC0E           [262] self       30  29  305  ; -1923578185
30FF  19C80C00           [263] loadk      32  51       ; "Lock"
3103  A2478001           [264] call       30  3   1  
3107  16860000           [265] tforloop   24      2    ; to [267] if exit
310B  1A00FB7F           [266] jmp        -19          ; to [248]
310F  9D470100           [267] getglobal  30  5        ; gRegion
3113  A4074D0F           [268] self       30  30  308  ; -1485896174
3117  1D480D00           [269] getglobal  32  53       ; -332969190
311B  59880D00           [270] loadk      33  54       ; "PanicButton"
311F  22080001           [271] call       32  2   0  
3123  A2870000           [272] call       30  0   2  
3127  D9070500           [273] loadk      31  20       ; 0
312B  0A08000F           [274] len        32  30     
312F  59080500           [275] loadk      33  20       ; 0
3133  D0C70080           [276] forprep    31  4        ; to [281]
3137  DD480100           [277] getglobal  35  5        ; gRegion
313B  E4C8CD11           [278] self       35  35  311  ; -1693828985
313F  4E89080F           [279] gettable   37  30  34 
3143  E2488001           [280] call       35  3   1  
3147  D487FE7F           [281] forloop    31  -5       ; to [277] if loop
314B  DD480100           [282] getglobal  35  5        ; gRegion
314F  E408CD11           [283] self       35  35  308  ; -1485896174
3153  5D490D00           [284] getglobal  37  53       ; -332969190
3157  99090E00           [285] loadk      38  56       ; "DoorMessageTag"
315B  62090001           [286] call       37  2   0  
315F  E2880000           [287] call       35  0   2  
3163  19090500           [288] loadk      36  20       ; 0
3167  4A098011           [289] len        37  35     
316B  99090500           [290] loadk      38  20       ; 0
316F  10C90080           [291] forprep    36  4        ; to [296]
3173  0ECA8911           [292] gettable   40  35  39 
3177  244A4E14           [293] self       40  40  313  ; -1497096114
317B  970A0000           [294] loadbool   42  0   0    ; false
317F  224A8001           [295] call       40  3   1  
3183  1489FE7F           [296] forloop    36  -5       ; to [292] if loop
3187  1A800780           [297] jmp        31           ; to [329]
318B  1D0A0000           [298] getglobal  40  0        ; _T
318F  0E4A4914           [299] gettable   40  40  293  ; "AssterminationNextChokePoint"
3193  5D0A0000           [300] getglobal  41  0        ; _T
3197  4E8AC614           [301] gettable   41  41  282  ; "AssterminationAmbushIndices"
319B  4A0A8014           [302] len        41  41     
fail op	33
319F  21008A14           [303] tforloop   0       40   ; to [305] if exit
31A3  1AC00580           [304] jmp        24           ; to [329]
31A7  1D4A0100           [305] getglobal  40  5        ; gRegion
31AB  248A4E14           [306] self       40  40  314  ; 152279552
31AF  9D0A0700           [307] getglobal  42  28       ; gNpcDoorHintType
31B3  228A8001           [308] call       40  3   2  
31B7  5D0A0C00           [309] getglobal  41  48       ; 248503575
31BB  920A0014           [310] move       42  40     
31BF  620A0101           [311] call       41  2   4  
31C3  1A800080           [312] jmp        3            ; to [316]
31C7  A44BCC16           [313] self       46  45  305  ; -1923578185
31CB  19CC0E00           [314] loadk      48  59       ; "Unlock"
31CF  A24B8001           [315] call       46  3   1  
31D3  568A0000           [316] tforloop   41      2    ; to [318] if exit
31D7  1A80FE7F           [317] jmp        -5           ; to [313]
31DB  A40BCF0B           [318] self       46  23  316  ; 1927666530
31DF  A28B0001           [319] call       46  2   2  
31E3  A44B4F17           [320] self       46  46  317  ; -1302048094
31E7  1D4C0D00           [321] getglobal  48  53       ; -332969190
31EB  598C0F00           [322] loadk      49  62       ; "InitAssterminationBoss"
31EF  228C0001           [323] call       48  2   2  
31F3  570C0000           [324] loadbool   49  0   0    ; false
31F7  A24B0002           [325] call       46  4   1  
31FB  9D0B0000           [326] getglobal  46  0        ; _T
31FF  8C8BC080           [327] settable   46  257 258  ; "AssterminationActive" 0
3203  1E008000           [328] return     0   1      
3207  9D0B0000           [329] getglobal  46  0        ; _T
320B  8C0B4995           [330] settable   46  298 292  ; "AssterminationAmbushSpawnRunning" 1
320F  A44BCF0B           [331] self       46  23  317  ; -1302048094
3213  1D4C0D00           [332] getglobal  48  53       ; -332969190
3217  59CC0F00           [333] loadk      49  63       ; "PopulateAssterminationAmbushRoom"
321B  228C0001           [334] call       48  2   2  
321F  570C0000           [335] loadbool   49  0   0    ; false
3223  A24B0002           [336] call       46  4   1  
3227  1A803980           [337] jmp        231          ; to [569]
322B  9D0B0000           [338] getglobal  46  0        ; _T
322F  8E8B4A17           [339] gettable   46  46  298  ; "AssterminationAmbushSpawnRunning"
fail op	35
3233  23804017           [340] close      0  
3237  1A803880           [341] jmp        227          ; to [569]
323B  9D8B0700           [342] getglobal  46  30       ; 1074689893
323F  DD0B0000           [343] getglobal  47  0        ; _T
3243  CE4BCB17           [344] gettable   47  47  301  ; "AssterminationProgressTracker"
3247  A28B0001           [345] call       46  2   2  
324B  980B0000           [346] test       46      0    ; to [348] if true
324F  1A003780           [347] jmp        221          ; to [569]
3253  9D0B0000           [348] getglobal  46  0        ; _T
3257  8E0B5017           [349] gettable   46  46  320  ; "AssterminationNextRoomPending"
325B  984B0000           [350] test       46      1    ; to [352] if false
325F  1A003680           [351] jmp        217          ; to [569]
3263  9D4B0100           [352] getglobal  46  5        ; gRegion
3267  A44B5017           [353] self       46  46  321  ; 65205951
326B  A28B0001           [354] call       46  2   2  
326F  DD4B0100           [355] getglobal  47  5        ; gRegion
3273  E48BC317           [356] self       47  47  270  ; -774964848
3277  E28B0001           [357] call       47  2   2  
327B  E4CBC317           [358] self       47  47  271  ; 537471347
327F  E28B0001           [359] call       47  2   2  
3283  E48BD017           [360] self       47  47  322  ; -413067243
3287  E28B0001           [361] call       47  2   2  
328B  D84B0000           [362] test       47      1    ; to [364] if false
328F  1A801280           [363] jmp        75           ; to [439]
3293  0B0C0000           [364] newtable   48  0   0    ; array=0, hash=0
3297  5D4C0100           [365] getglobal  49  5        ; gRegion
329B  64CCD018           [366] self       49  49  323  ; 795506491
329F  DDCC0100           [367] getglobal  51  7        ; gGameRules
32A3  E40CC219           [368] self       51  51  264  ; -1201441975
32A7  E28C0001           [369] call       51  2   2  
32AB  E40CD119           [370] self       51  51  324  ; -272348948
32AF  E28C0001           [371] call       51  2   2  
32B3  170D8000           [372] loadbool   52  1   0    ; true
32B7  628C0002           [373] call       49  4   2  
32BB  9D0C0C00           [374] getglobal  50  48       ; 248503575
32BF  D20C8018           [375] move       51  49     
32C3  A20C0101           [376] call       50  2   4  
32C7  1A400280           [377] jmp        10           ; to [388]
32CB  E44D511B           [378] self       55  54  325  ; 1511086594
32CF  E28D0001           [379] call       55  2   2  
32D3  D84D0000           [380] test       55      1    ; to [382] if false
32D7  1A400180           [381] jmp        6            ; to [388]
32DB  DD8D0500           [382] getglobal  55  22       ; table
32DF  CECDC51B           [383] gettable   55  55  279  ; -431682403
32E3  120E0018           [384] move       56  48     
32E7  648E511B           [385] self       57  54  326  ; 1839670529
32EB  620E0001           [386] call       57  2   0  
32EF  E24D0000           [387] call       55  0   1  
32F3  968C0000           [388] tforloop   50      2    ; to [390] if exit
32F7  1AC0FC7F           [389] jmp        -12          ; to [378]
32FB  DD0D0000           [390] getglobal  55  0        ; _T
32FF  CECDC41B           [391] gettable   55  55  275  ; "AssterminationChokePoints"
3303  1D0E0000           [392] getglobal  56  0        ; _T
3307  0E8E461C           [393] gettable   56  56  282  ; "AssterminationAmbushIndices"
330B  5D0E0000           [394] getglobal  57  0        ; _T
330F  4E4EC91C           [395] gettable   57  57  293  ; "AssterminationNextChokePoint"
3313  0E4E0E1C           [396] gettable   56  56  57 
3317  CE0D8E1B           [397] gettable   55  55  56 
331B  CE0DC61B           [398] gettable   55  55  280  ; "pos"
331F  1D4E0100           [399] getglobal  56  5        ; gRegion
3323  24CE511C           [400] self       56  56  327  ; -2071158816
3327  228E0001           [401] call       56  2   2  
332B  5D0E0C00           [402] getglobal  57  48       ; 248503575
332F  920E001C           [403] move       58  56     
3333  620E0101           [404] call       57  2   4  
3337  1A800780           [405] jmp        31           ; to [437]
333B  9D8F0700           [406] getglobal  62  30       ; 1074689893
333F  D20F801E           [407] move       63  61     
3343  A28F0001           [408] call       62  2   2  
3347  984F0000           [409] test       62      1    ; to [411] if false
334B  1A400680           [410] jmp        26           ; to [437]
334F  A44FD11E           [411] self       62  61  325  ; 1511086594
3353  A28F0001           [412] call       62  2   2  
3357  984F0000           [413] test       62      1    ; to [415] if false
335B  1A400580           [414] jmp        22           ; to [437]
335F  A40FD21E           [415] self       62  61  328  ; 2096180245
3363  1210801B           [416] move       64  55     
3367  A28F8001           [417] call       62  3   2  
fail op	21
336B  1540521F           [418] concat     0   62  329
336F  1AC00080           [419] jmp        4            ; to [424]
3373  920B801E           [420] move       46  61     
3377  D70B8000           [421] loadbool   47  1   0    ; true
337B  1AC00380           [422] jmp        16           ; to [439]
337F  1A000380           [423] jmp        13           ; to [437]
3383  9D0F0C00           [424] getglobal  62  48       ; 248503575
3387  D20F0018           [425] move       63  48     
338B  A20F0101           [426] call       62  2   4  
338F  1A800180           [427] jmp        7            ; to [435]
3393  E410D21E           [428] self       67  61  328  ; 2096180245
3397  52110021           [429] move       69  66     
339B  E2908001           [430] call       67  3   2  
fail op	21
339F  1540D221           [431] concat     0   67  329
33A3  1A400080           [432] jmp        2            ; to [435]
33A7  920B801E           [433] move       46  61     
33AB  D70B8000           [434] loadbool   47  1   0    ; true
33AF  968F0000           [435] tforloop   62      2    ; to [437] if exit
33B3  1A80FD7F           [436] jmp        -9           ; to [428]
33B7  568E0000           [437] tforloop   57      2    ; to [439] if exit
33BB  1A80F77F           [438] jmp        -33          ; to [406]
33BF  D80B0000           [439] test       47      0    ; to [441] if true
33C3  1AC01F80           [440] jmp        128          ; to [569]
33C7  DD500100           [441] getglobal  67  5        ; gRegion
33CB  E490C321           [442] self       67  67  270  ; -774964848
33CF  E2900001           [443] call       67  2   2  
33D3  E4D0C321           [444] self       67  67  271  ; 537471347
33D7  E2900001           [445] call       67  2   2  
33DB  E4D0CA21           [446] self       67  67  299  ; -1626084341
33DF  E2900001           [447] call       67  2   2  
fail op	21
33E3  15C09086           [448] concat     0   269 67 
33E7  1A801D80           [449] jmp        119          ; to [569]
33EB  1D110000           [450] getglobal  68  0        ; _T
33EF  5D110000           [451] getglobal  69  0        ; _T
33F3  4E91D222           [452] gettable   69  69  330  ; 972116663
33F7  99D11200           [453] loadk      70  75       ; "AsssterminationProgress"
33FB  DD110000           [454] getglobal  71  0        ; _T
33FF  CE51C923           [455] gettable   71  71  293  ; "AssterminationNextChokePoint"
3403  82D11123           [456] concat     70  70  71 
3407  D3110003           [457] getupval   71  6      
340B  CE11D323           [458] gettable   71  71  332  ; "HT_PROGRESS_BAR"
340F  19521300           [459] loadk      72  77       ; 0
3413  59921300           [460] loadk      73  78       ; 0
3417  97128000           [461] loadbool   74  1   0    ; true
341B  62910003           [462] call       69  6   2  
341F  0C519196           [463] settable   68  301 69   ; "AssterminationProgressTracker"
3423  1D110000           [464] getglobal  68  0        ; _T
3427  0E514B22           [465] gettable   68  68  301  ; "AssterminationProgressTracker"
342B  0ED15322           [466] gettable   68  68  335  ; 934616952
342F  59111400           [467] loadk      69  80       ; "/Lotus/Language/RelayReconstruction/RelayFightExterminateCount"
3433  99110500           [468] loadk      70  20       ; 0
3437  22518001           [469] call       68  3   1  
343B  1D110000           [470] getglobal  68  0        ; _T
343F  0E514B22           [471] gettable   68  68  301  ; "AssterminationProgressTracker"
3443  0E515422           [472] gettable   68  68  337  ; -1455793363
3447  5D110000           [473] getglobal  69  0        ; _T
344B  4E91D422           [474] gettable   69  69  338  ; "AssterminationTotalEnemies"
344F  4DD19022           [475] sub        69  69  67 
3453  99D11400           [476] loadk      70  83       ; " / "
3457  DD110000           [477] getglobal  71  0        ; _T
345B  CE91D423           [478] gettable   71  71  338  ; "AssterminationTotalEnemies"
345F  42D19122           [479] concat     69  69  71 
3463  22510001           [480] call       68  2   1  
3467  1D110000           [481] getglobal  68  0        ; _T
346B  0E514B22           [482] gettable   68  68  301  ; "AssterminationProgressTracker"
346F  0E115522           [483] gettable   68  68  340  ; 1731445362
3473  5D110000           [484] getglobal  69  0        ; _T
3477  4E91D422           [485] gettable   69  69  338  ; "AssterminationTotalEnemies"
347B  4DD19022           [486] sub        69  69  67 
347F  9D110000           [487] getglobal  70  0        ; _T
3483  8E915423           [488] gettable   70  70  338  ; "AssterminationTotalEnemies"
3487  5C919122           [489] div        69  69  70 
348B  22510001           [490] call       68  2   1  
348F  1D510100           [491] getglobal  68  5        ; gRegion
3493  24914322           [492] self       68  68  270  ; -774964848
3497  22910001           [493] call       68  2   2  
349B  24D14322           [494] self       68  68  271  ; 537471347
349F  22910001           [495] call       68  2   2  
34A3  24515522           [496] self       68  68  341  ; 447196028
34A7  97118000           [497] loadbool   70  1   0    ; true
34AB  22518001           [498] call       68  3   1  
34AF  1D510100           [499] getglobal  68  5        ; gRegion
34B3  24914322           [500] self       68  68  270  ; -774964848
34B7  22910001           [501] call       68  2   2  
34BB  24D14322           [502] self       68  68  271  ; 537471347
34BF  22910001           [503] call       68  2   2  
34C3  24915522           [504] self       68  68  342  ; -1354842897
34C7  92110017           [505] move       70  46     
34CB  22518001           [506] call       68  3   1  
34CF  13110001           [507] getupval   68  2      
34D3  22918000           [508] call       68  1   2  
34D7  18110000           [509] test       68      0    ; to [511] if true
34DB  1A400E80           [510] jmp        58           ; to [569]
34DF  1D510100           [511] getglobal  68  5        ; gRegion
34E3  24914322           [512] self       68  68  270  ; -774964848
34E7  22910001           [513] call       68  2   2  
34EB  24D14322           [514] self       68  68  271  ; 537471347
34EF  22910001           [515] call       68  2   2  
34F3  24D15522           [516] self       68  68  343  ; 1929488477
34F7  86110023           [517] loadnil    70  70     
34FB  D9111600           [518] loadk      71  88       ; 0
34FF  17120000           [519] loadbool   72  0   0    ; false
3503  57120000           [520] loadbool   73  0   0    ; false
3507  9DD20100           [521] getglobal  74  7        ; gGameRules
350B  A4124225           [522] self       74  74  264  ; -1201441975
350F  A2920001           [523] call       74  2   2  
3513  8E525625           [524] gettable   74  74  345  ; "vipAgent"
3517  22918003           [525] call       68  7   2  
351B  5D910700           [526] getglobal  69  30       ; 1074689893
351F  92110022           [527] move       70  68     
3523  62910001           [528] call       69  2   2  
3527  58510000           [529] test       69      1    ; to [531] if false
352B  1A400980           [530] jmp        38           ; to [569]
352F  4A110022           [531] len        69  68     
fail op	21
3533  15409186           [532] concat     0   269 69 
3537  1A800880           [533] jmp        35           ; to [569]
353B  5D110000           [534] getglobal  69  0        ; _T
353F  8E114522           [535] gettable   70  68  276  ; 0
3543  4C911196           [536] settable   69  300 70   ; "AssterminationAmbushMiniBoss"
3547  5D911600           [537] getglobal  69  90       ; -895206725
354B  93118001           [538] getupval   70  3      
354F  62910001           [539] call       69  2   2  
3553  9D510100           [540] getglobal  70  5        ; gRegion
3557  A4D15623           [541] self       70  70  347  ; 1224466847
355B  A2910001           [542] call       70  2   2  
355F  DD110C00           [543] getglobal  71  48       ; 248503575
3563  12120023           [544] move       72  70     
3567  E2110101           [545] call       71  2   4  
356B  1AC00480           [546] jmp        20           ; to [567]
356F  1D930700           [547] getglobal  76  30       ; 1074689893
3573  52138025           [548] move       77  75     
3577  22930001           [549] call       76  2   2  
357B  18530000           [550] test       76      1    ; to [552] if false
357F  1A800380           [551] jmp        15           ; to [567]
3583  2413D725           [552] self       76  75  348  ; 188678183
3587  22930001           [553] call       76  2   2  
358B  18130000           [554] test       76      0    ; to [556] if true
358F  1A800280           [555] jmp        11           ; to [567]
3593  2453D725           [556] self       76  75  349  ; -2135866365
3597  22930001           [557] call       76  2   2  
359B  5D930700           [558] getglobal  77  30       ; 1074689893
359F  92130026           [559] move       78  76     
35A3  62930001           [560] call       77  2   2  
35A7  58530000           [561] test       77      1    ; to [563] if false
35AB  1AC00080           [562] jmp        4            ; to [567]
35AF  64935726           [563] self       77  76  350  ; 1479835399
35B3  D2138022           [564] move       79  69     
35B7  17140000           [565] loadbool   80  0   0    ; false
35BB  62530002           [566] call       77  4   1  
35BF  D6910000           [567] tforloop   71      2    ; to [569] if exit
35C3  1A40FA7F           [568] jmp        -22          ; to [547]
35C7  5D930700           [569] getglobal  77  30       ; 1074689893
35CB  9D130000           [570] getglobal  78  0        ; _T
35CF  8E134B27           [571] gettable   78  78  300  ; "AssterminationAmbushMiniBoss"
35D3  62930001           [572] call       77  2   2  
35D7  58530000           [573] test       77      1    ; to [575] if false
35DB  1AC00C80           [574] jmp        52           ; to [627]
35DF  5D130000           [575] getglobal  77  0        ; _T
35E3  4E13CB26           [576] gettable   77  77  300  ; "AssterminationAmbushMiniBoss"
35E7  6453D726           [577] self       77  77  349  ; -2135866365
35EB  62930001           [578] call       77  2   2  
35EF  9D930700           [579] getglobal  78  30       ; 1074689893
35F3  D2138026           [580] move       79  77     
35F7  A2930001           [581] call       78  2   2  
35FB  98130000           [582] test       78      0    ; to [584] if true
35FF  1A800080           [583] jmp        3            ; to [587]
3603  9D130000           [584] getglobal  78  0        ; _T
3607  8CD34096           [585] settable   78  300 259  ; "AssterminationAmbushMiniBoss" nil
360B  1A000580           [586] jmp        21           ; to [608]
360F  A4D3D726           [587] self       78  77  351  ; 796523475
3613  A2930001           [588] call       78  2   2  
3617  E413D826           [589] self       79  77  352  ; 945541886
361B  E2930001           [590] call       79  2   2  
361F  C453D827           [591] mul        79  79  353  ; -102
fail op	21
3623  15C01327           [592] concat     0   78  79 
3627  1A400380           [593] jmp        14           ; to [608]
362B  9D530100           [594] getglobal  78  5        ; gRegion
362F  A4935827           [595] self       78  78  354  ; -1110225722
3633  1D941600           [596] getglobal  80  90       ; -895206725
3637  53140002           [597] getupval   81  4      
363B  22940001           [598] call       80  2   2  
363F  64D4D826           [599] self       81  77  355  ; 196800914
3643  62940001           [600] call       81  2   2  
3647  A414D926           [601] self       82  77  356  ; -231049143
364B  A2140001           [602] call       82  2   0  
364F  A2530000           [603] call       78  0   1  
3653  A453D926           [604] self       78  77  357  ; -725453761
3657  A2530001           [605] call       78  2   1  
365B  9D130000           [606] getglobal  78  0        ; _T
365F  8CD34096           [607] settable   78  300 259  ; "AssterminationAmbushMiniBoss" nil
3663  9D930700           [608] getglobal  78  30       ; 1074689893
3667  DD130000           [609] getglobal  79  0        ; _T
366B  CE13CB27           [610] gettable   79  79  300  ; "AssterminationAmbushMiniBoss"
366F  A2930001           [611] call       78  2   2  
3673  98130000           [612] test       78      0    ; to [614] if true
3677  1A000380           [613] jmp        13           ; to [627]
367B  9D530100           [614] getglobal  78  5        ; gRegion
367F  A4934327           [615] self       78  78  270  ; -774964848
3683  A2930001           [616] call       78  2   2  
3687  A4D34327           [617] self       78  78  271  ; 537471347
368B  A2930001           [618] call       78  2   2  
368F  A4934B27           [619] self       78  78  302  ; -1553799614
3693  A2930001           [620] call       78  2   2  
3697  A4534F27           [621] self       78  78  317  ; -1302048094
369B  1D540D00           [622] getglobal  80  53       ; -332969190
369F  59941900           [623] loadk      81  102      ; "OnAssterminationDeath"
36A3  22940001           [624] call       80  2   2  
36A7  57140000           [625] loadbool   81  0   0    ; false
36AB  A2530002           [626] call       78  4   1  
36AF  1E008000           [627] return     0   1      
                         * constants:
36B3  67                 sizek (103)
36B4  04                 const type 4
36B5  03                 string size (3)
36B6  5F5400             "_T\0"
                         const [0]: "_T"
36B9  04                 const type 4
36BA  15                 string size (21)
36BB  4173737465726D69+  "Asstermi"
36C3  6E6174696F6E4163+  "nationAc"
36CB  7469766500         "tive\0"
                         const [1]: "AssterminationActive"
36D0  01                 const type 3
36D1  00000000           const [2]: (0)
36D5  00                 const type 0
                         const [3]: nil
36D6  04                 const type 4
36D7  11                 string size (17)
36D8  4D697373696F6E49+  "MissionI"
36E0  6E69745265616479+  "nitReady"
36E8  00                 "\0"
                         const [4]: "MissionInitReady"
36E9  04                 const type 4
36EA  08                 string size (8)
36EB  67526567696F6E00   "gRegion\0"
                         const [5]: "gRegion"
36F3  01                 const type 3
36F4  58F559A5           const [6]: (-1520831144)
36F8  04                 const type 4
36F9  0B                 string size (11)
36FA  6747616D6552756C+  "gGameRul"
3702  657300             "es\0"
                         const [7]: "gGameRules"
3705  01                 const type 3
3706  497363B8           const [8]: (-1201441975)
370A  04                 const type 4
370B  0C                 string size (12)
370C  6D697373696F6E54+  "missionT"
3714  79706500           "ype\0"
                         const [9]: "missionType"
3718  04                 const type 4
3719  0B                 string size (11)
371A  4C6F7475735F4761+  "Lotus_Ga"
3722  6D6500             "me\0"
                         const [10]: "Lotus_Game"
3725  04                 const type 4
3726  11                 string size (17)
3727  4D545F4153534153+  "MT_ASSAS"
372F  53494E4154494F4E+  "SINATION"
3737  00                 "\0"
                         const [11]: "MT_ASSASSINATION"
3738  04                 const type 4
3739  0B                 string size (11)
373A  6D6178576176654E+  "maxWaveN"
3742  756D00             "um\0"
                         const [12]: "maxWaveNum"
3745  03                 const type 3
3746  00000000           const [13]: (0)
374A  01                 const type 3
374B  90F9CED1           const [14]: (-774964848)
374F  01                 const type 3
3750  73290920           const [15]: (537471347)
3754  01                 const type 3
3755  F9A37ECB           const [16]: (-880892935)
3759  01                 const type 3
375A  6B25B193           const [17]: (-1817107093)
375E  04                 const type 4
375F  1D                 string size (29)
3760  6E6F2063686F6B65+  "no choke"
3768  20706F696E747320+  " points "
3770  666F756E6420696E+  "found in"
3778  206D617000         " map\0"
                         const [18]: "no choke points found in map"
377D  04                 const type 4
377E  1A                 string size (26)
377F  4173737465726D69+  "Asstermi"
3787  6E6174696F6E4368+  "nationCh"
378F  6F6B65506F696E74+  "okePoint"
3797  7300               "s\0"
                         const [19]: "AssterminationChokePoints"
3799  03                 const type 3
379A  0000803F           const [20]: (0)
379E  03                 const type 3
379F  00000040           const [21]: (0)
37A3  04                 const type 4
37A4  06                 string size (6)
37A5  7461626C6500       "table\0"
                         const [22]: "table"
37AB  01                 const type 3
37AC  9D0C45E6           const [23]: (-431682403)
37B0  04                 const type 4
37B1  04                 string size (4)
37B2  706F7300           "pos\0"
                         const [24]: "pos"
37B6  04                 const type 4
37B7  07                 string size (7)
37B8  6F7269656E7400     "orient\0"
                         const [25]: "orient"
37BF  04                 const type 4
37C0  1C                 string size (28)
37C1  4173737465726D69+  "Asstermi"
37C9  6E6174696F6E416D+  "nationAm"
37D1  62757368496E6469+  "bushIndi"
37D9  63657300           "ces\0"
                         const [26]: "AssterminationAmbushIndices"
37DD  01                 const type 3
37DE  36725DBF           const [27]: (-1084394954)
37E2  04                 const type 4
37E3  11                 string size (17)
37E4  674E7063446F6F72+  "gNpcDoor"
37EC  48696E7454797065+  "HintType"
37F4  00                 "\0"
                         const [28]: "gNpcDoorHintType"
37F5  03                 const type 3
37F6  00002041           const [29]: (0)
37FA  01                 const type 3
37FB  65770E40           const [30]: (1074689893)
37FF  01                 const type 3
3800  7EA7B388           const [31]: (-2001492098)
3804  04                 const type 4
3805  24                 string size (36)
3806  4173737465726D69+  "Asstermi"
380E  6E6174696F6E416D+  "nationAm"
3816  627573684D696E69+  "bushMini"
381E  426F7373496E6469+  "BossIndi"
3826  63657300           "ces\0"
                         const [32]: "AssterminationAmbushMiniBossIndices"
382A  04                 const type 4
382B  05                 string size (5)
382C  6D61746800         "math\0"
                         const [33]: "math"
3831  01                 const type 3
3832  2A71F965           const [34]: (1710846250)
3836  03                 const type 3
3837  00004040           const [35]: (0)
383B  01                 const type 3
383C  01000000           const [36]: (1)
3840  04                 const type 4
3841  1D                 string size (29)
3842  4173737465726D69+  "Asstermi"
384A  6E6174696F6E4E65+  "nationNe"
3852  787443686F6B6550+  "xtChokeP"
385A  6F696E7400         "oint\0"
                         const [37]: "AssterminationNextChokePoint"
385F  01                 const type 3
3860  BCD6AE9F           const [38]: (-1615931716)
3864  01                 const type 3
3865  3C2E251B           const [39]: (455421500)
3869  01                 const type 3
386A  A2619607           const [40]: (127295906)
386E  01                 const type 3
386F  38A36BF9           const [41]: (-110386376)
3873  04                 const type 4
3874  21                 string size (33)
3875  4173737465726D69+  "Asstermi"
387D  6E6174696F6E416D+  "nationAm"
3885  6275736853706177+  "bushSpaw"
388D  6E52756E6E696E67+  "nRunning"
3895  00                 "\0"
                         const [42]: "AssterminationAmbushSpawnRunning"
3896  01                 const type 3
3897  0BEC139F           const [43]: (-1626084341)
389B  04                 const type 4
389C  1D                 string size (29)
389D  4173737465726D69+  "Asstermi"
38A5  6E6174696F6E416D+  "nationAm"
38AD  627573684D696E69+  "bushMini"
38B5  426F737300         "Boss\0"
                         const [44]: "AssterminationAmbushMiniBoss"
38BA  04                 const type 4
38BB  1E                 string size (30)
38BC  4173737465726D69+  "Asstermi"
38C4  6E6174696F6E5072+  "nationPr"
38CC  6F67726573735472+  "ogressTr"
38D4  61636B657200       "acker\0"
                         const [45]: "AssterminationProgressTracker"
38DA  01                 const type 3
38DB  42E662A3           const [46]: (-1553799614)
38DF  04                 const type 4
38E0  10                 string size (16)
38E1  6750726F6D6F7465+  "gPromote"
38E9  64546F486F737400   "dToHost\0"
                         const [47]: "gPromotedToHost"
38F1  01                 const type 3
38F2  17DDCF0E           const [48]: (248503575)
38F6  01                 const type 3
38F7  B786588D           const [49]: (-1923578185)
38FB  04                 const type 4
38FC  06                 string size (6)
38FD  436C6F736500       "Close\0"
                         const [50]: "Close"
3903  04                 const type 4
3904  05                 string size (5)
3905  4C6F636B00         "Lock\0"
                         const [51]: "Lock"
390A  01                 const type 3
390B  12066FA7           const [52]: (-1485896174)
390F  01                 const type 3
3910  1A4B27EC           const [53]: (-332969190)
3914  04                 const type 4
3915  0C                 string size (12)
3916  50616E6963427574+  "PanicBut"
391E  746F6E00           "ton\0"
                         const [54]: "PanicButton"
3922  01                 const type 3
3923  87380A9B           const [55]: (-1693828985)
3927  04                 const type 4
3928  0F                 string size (15)
3929  446F6F724D657373+  "DoorMess"
3931  61676554616700     "ageTag\0"
                         const [56]: "DoorMessageTag"
3938  01                 const type 3
3939  4E20C4A6           const [57]: (-1497096114)
393D  01                 const type 3
393E  009A1309           const [58]: (152279552)
3942  04                 const type 4
3943  07                 string size (7)
3944  556E6C6F636B00     "Unlock\0"
                         const [59]: "Unlock"
394B  01                 const type 3
394C  62DBE572           const [60]: (1927666530)
3950  01                 const type 3
3951  A25264B2           const [61]: (-1302048094)
3955  04                 const type 4
3956  17                 string size (23)
3957  496E697441737374+  "InitAsst"
395F  65726D696E617469+  "erminati"
3967  6F6E426F737300     "onBoss\0"
                         const [62]: "InitAssterminationBoss"
396E  04                 const type 4
396F  21                 string size (33)
3970  506F70756C617465+  "Populate"
3978  4173737465726D69+  "Asstermi"
3980  6E6174696F6E416D+  "nationAm"
3988  62757368526F6F6D+  "bushRoom"
3990  00                 "\0"
                         const [63]: "PopulateAssterminationAmbushRoom"
3991  04                 const type 4
3992  1E                 string size (30)
3993  4173737465726D69+  "Asstermi"
399B  6E6174696F6E4E65+  "nationNe"
39A3  7874526F6F6D5065+  "xtRoomPe"
39AB  6E64696E6700       "nding\0"
                         const [64]: "AssterminationNextRoomPending"
39B1  01                 const type 3
39B2  BFF6E203           const [65]: (65205951)
39B6  01                 const type 3
39B7  151861E7           const [66]: (-413067243)
39BB  01                 const type 3
39BC  3B776A2F           const [67]: (795506491)
39C0  01                 const type 3
39C1  EC48C4EF           const [68]: (-272348948)
39C5  01                 const type 3
39C6  025A115A           const [69]: (1511086594)
39CA  01                 const type 3
39CB  0125A76D           const [70]: (1839670529)
39CF  01                 const type 3
39D0  E09F8C84           const [71]: (-2071158816)
39D4  01                 const type 3
39D5  152CF17C           const [72]: (2096180245)
39D9  03                 const type 3
39DA  0000F041           const [73]: (0)
39DE  01                 const type 3
39DF  B752F139           const [74]: (972116663)
39E3  04                 const type 4
39E4  18                 string size (24)
39E5  417373737465726D+  "Asssterm"
39ED  696E6174696F6E50+  "inationP"
39F5  726F677265737300   "rogress\0"
                         const [75]: "AsssterminationProgress"
39FD  04                 const type 4
39FE  10                 string size (16)
39FF  48545F50524F4752+  "HT_PROGR"
3A07  4553535F42415200   "ESS_BAR\0"
                         const [76]: "HT_PROGRESS_BAR"
3A0F  03                 const type 3
3A10  0000003F           const [77]: (0)
3A14  03                 const type 3
3A15  0000C642           const [78]: (0)
3A19  01                 const type 3
3A1A  781FB537           const [79]: (934616952)
3A1E  04                 const type 4
3A1F  3F                 string size (63)
3A20  2F4C6F7475732F4C+  "/Lotus/L"
3A28  616E67756167652F+  "anguage/"
3A30  52656C6179526563+  "RelayRec"
3A38  6F6E737472756374+  "onstruct"
3A40  696F6E2F52656C61+  "ion/Rela"
3A48  7946696768744578+  "yFightEx"
3A50  7465726D696E6174+  "terminat"
3A58  65436F756E7400     "eCount\0"
                         const [80]: "/Lotus/Language/RelayReconstruction/RelayFightExterminateCount"
3A5F  01                 const type 3
3A60  2D5B3AA9           const [81]: (-1455793363)
3A64  04                 const type 4
3A65  1B                 string size (27)
3A66  4173737465726D69+  "Asstermi"
3A6E  6E6174696F6E546F+  "nationTo"
3A76  74616C456E656D69+  "talEnemi"
3A7E  657300             "es\0"
                         const [82]: "AssterminationTotalEnemies"
3A81  04                 const type 4
3A82  04                 string size (4)
3A83  202F2000           " / \0"
                         const [83]: " / "
3A87  01                 const type 3
3A88  72C23367           const [84]: (1731445362)
3A8C  01                 const type 3
3A8D  7CABA71A           const [85]: (447196028)
3A91  01                 const type 3
3A92  EFBC3EAF           const [86]: (-1354842897)
3A96  01                 const type 3
3A97  5DA80173           const [87]: (1929488477)
3A9B  03                 const type 3
3A9C  00401C46           const [88]: (0)
3AA0  04                 const type 4
3AA1  09                 string size (9)
3AA2  7669704167656E74+  "vipAgent"
3AAA  00                 "\0"
                         const [89]: "vipAgent"
3AAB  01                 const type 3
3AAC  BB3AA4CA           const [90]: (-895206725)
3AB0  01                 const type 3
3AB1  9FE1FB48           const [91]: (1224466847)
3AB5  01                 const type 3
3AB6  27003F0B           const [92]: (188678183)
3ABA  01                 const type 3
3ABB  0344B180           const [93]: (-2135866365)
3ABF  01                 const type 3
3AC0  077F3458           const [94]: (1479835399)
3AC4  01                 const type 3
3AC5  D3FB792F           const [95]: (796523475)
3AC9  01                 const type 3
3ACA  FED25B38           const [96]: (945541886)
3ACE  03                 const type 3
3ACF  9A99193F           const [97]: (-102)
3AD3  01                 const type 3
3AD4  C64CD3BD           const [98]: (-1110225722)
3AD8  01                 const type 3
3AD9  92F1BA0B           const [99]: (196800914)
3ADD  01                 const type 3
3ADE  49783AF2           const [100]: (-231049143)
3AE2  01                 const type 3
3AE3  3F74C2D4           const [101]: (-725453761)
3AE7  04                 const type 4
3AE8  16                 string size (22)
3AE9  4F6E417373746572+  "OnAsster"
3AF1  6D696E6174696F6E+  "mination"
3AF9  446561746800       "Death\0"
                         const [102]: "OnAssterminationDeath"
                         * functions:
3AFF  00                 sizep (0)
                         * lines:
3B01  04                 sizelineinfo (627)
                         [pc] (line)
3B02  56                 [001] (86)
3B03  01                 [002] (86)
3B04  00                 [003] (86)
3B05  00                 [004] (86)
3B06  56                 [005] (87)
3B07  01                 [006] (87)
3B08  00                 [007] (89)
3B09  00                 [008] (89)
3B0A  56                 [009] (89)
3B0B  01                 [010] (89)
3B0C  00                 [011] (89)
3B0D  00                 [012] (89)
3B0E  56                 [013] (89)
3B0F  01                 [014] (89)
3B10  00                 [015] (90)
3B11  00                 [016] (90)
3B12  57                 [017] (90)
3B13  01                 [018] (90)
3B14  00                 [019] (90)
3B15  00                 [020] (90)
3B16  57                 [021] (90)
3B17  01                 [022] (90)
3B18  00                 [023] (90)
3B19  00                 [024] (90)
3B1A  59                 [025] (90)
3B1B  01                 [026] (90)
3B1C  00                 [027] (90)
3B1D  00                 [028] (90)
3B1E  59                 [029] (90)
3B1F  01                 [030] (90)
3B20  00                 [031] (90)
3B21  00                 [032] (90)
3B22  59                 [033] (90)
3B23  01                 [034] (90)
3B24  00                 [035] (90)
3B25  00                 [036] (90)
3B26  59                 [037] (90)
3B27  01                 [038] (91)
3B28  00                 [039] (91)
3B29  00                 [040] (91)
3B2A  59                 [041] (91)
3B2B  01                 [042] (92)
3B2C  00                 [043] (95)
3B2D  00                 [044] (95)
3B2E  59                 [045] (95)
3B2F  01                 [046] (95)
3B30  00                 [047] (95)
3B31  00                 [048] (95)
3B32  59                 [049] (95)
3B33  01                 [050] (96)
3B34  00                 [051] (96)
3B35  00                 [052] (98)
3B36  59                 [053] (98)
3B37  01                 [054] (98)
3B38  00                 [055] (99)
3B39  00                 [056] (99)
3B3A  5A                 [057] (100)
3B3B  01                 [058] (103)
3B3C  00                 [059] (103)
3B3D  00                 [060] (103)
3B3E  5A                 [061] (104)
3B3F  01                 [062] (104)
3B40  00                 [063] (104)
3B41  00                 [064] (104)
3B42  5A                 [065] (105)
3B43  01                 [066] (105)
3B44  00                 [067] (105)
3B45  00                 [068] (105)
3B46  5A                 [069] (105)
3B47  01                 [070] (105)
3B48  00                 [071] (105)
3B49  00                 [072] (105)
3B4A  5A                 [073] (105)
3B4B  01                 [074] (105)
3B4C  00                 [075] (105)
3B4D  00                 [076] (104)
3B4E  5A                 [077] (108)
3B4F  01                 [078] (108)
3B50  00                 [079] (108)
3B51  00                 [080] (111)
3B52  5A                 [081] (111)
3B53  01                 [082] (111)
3B54  00                 [083] (111)
3B55  00                 [084] (111)
3B56  5A                 [085] (111)
3B57  01                 [086] (112)
3B58  00                 [087] (112)
3B59  00                 [088] (112)
3B5A  5A                 [089] (112)
3B5B  01                 [090] (113)
3B5C  00                 [091] (113)
3B5D  00                 [092] (113)
3B5E  5A                 [093] (113)
3B5F  01                 [094] (113)
3B60  00                 [095] (113)
3B61  00                 [096] (114)
3B62  5A                 [097] (114)
3B63  01                 [098] (114)
3B64  00                 [099] (114)
3B65  00                 [100] (114)
3B66  5A                 [101] (115)
3B67  01                 [102] (115)
3B68  00                 [103] (115)
3B69  00                 [104] (115)
3B6A  5A                 [105] (115)
3B6B  01                 [106] (115)
3B6C  00                 [107] (111)
3B6D  00                 [108] (120)
3B6E  5A                 [109] (121)
3B6F  01                 [110] (121)
3B70  00                 [111] (121)
3B71  00                 [112] (121)
3B72  5A                 [113] (121)
3B73  01                 [114] (121)
3B74  00                 [115] (122)
3B75  00                 [116] (122)
3B76  5A                 [117] (122)
3B77  01                 [118] (122)
3B78  00                 [119] (122)
3B79  00                 [120] (121)
3B7A  5A                 [121] (125)
3B7B  01                 [122] (125)
3B7C  00                 [123] (125)
3B7D  00                 [124] (125)
3B7E  5A                 [125] (127)
3B7F  01                 [126] (127)
3B80  00                 [127] (127)
3B81  00                 [128] (-128)
3B82  5A                 [129] (-128)
3B83  01                 [130] (-128)
3B84  00                 [131] (-128)
3B85  00                 [132] (-128)
3B86  5A                 [133] (-128)
3B87  01                 [134] (-128)
3B88  00                 [135] (-128)
3B89  00                 [136] (-127)
3B8A  5A                 [137] (-127)
3B8B  01                 [138] (-127)
3B8C  00                 [139] (-127)
3B8D  00                 [140] (-128)
3B8E  5A                 [141] (-124)
3B8F  01                 [142] (-124)
3B90  00                 [143] (-122)
3B91  00                 [144] (-122)
3B92  5A                 [145] (-122)
3B93  01                 [146] (-122)
3B94  00                 [147] (-122)
3B95  00                 [148] (-122)
3B96  5B                 [149] (-122)
3B97  01                 [150] (-121)
3B98  00                 [151] (-121)
3B99  00                 [152] (-121)
3B9A  5B                 [153] (-121)
3B9B  01                 [154] (-120)
3B9C  00                 [155] (-120)
3B9D  00                 [156] (-120)
3B9E  5B                 [157] (-120)
3B9F  01                 [158] (-120)
3BA0  00                 [159] (-120)
3BA1  00                 [160] (-120)
3BA2  5B                 [161] (-119)
3BA3  01                 [162] (-119)
3BA4  00                 [163] (-119)
3BA5  00                 [164] (-119)
3BA6  5C                 [165] (-119)
3BA7  01                 [166] (-119)
3BA8  00                 [167] (-119)
3BA9  00                 [168] (-118)
3BAA  5F                 [169] (-118)
3BAB  01                 [170] (-118)
3BAC  00                 [171] (-118)
3BAD  00                 [172] (-118)
3BAE  5F                 [173] (-118)
3BAF  01                 [174] (-118)
3BB0  00                 [175] (-115)
3BB1  00                 [176] (-115)
3BB2  5F                 [177] (-115)
3BB3  01                 [178] (-115)
3BB4  00                 [179] (-114)
3BB5  00                 [180] (-114)
3BB6  5F                 [181] (-114)
3BB7  01                 [182] (-114)
3BB8  00                 [183] (-114)
3BB9  00                 [184] (-114)
3BBA  5F                 [185] (-114)
3BBB  01                 [186] (-114)
3BBC  00                 [187] (-114)
3BBD  00                 [188] (-112)
3BBE  5F                 [189] (-112)
3BBF  01                 [190] (-112)
3BC0  00                 [191] (-112)
3BC1  00                 [192] (-112)
3BC2  5F                 [193] (-112)
3BC3  01                 [194] (-112)
3BC4  00                 [195] (-112)
3BC5  00                 [196] (-112)
3BC6  60                 [197] (-112)
3BC7  01                 [198] (-112)
3BC8  00                 [199] (-112)
3BC9  00                 [200] (-112)
3BCA  60                 [201] (-112)
3BCB  01                 [202] (-112)
3BCC  00                 [203] (-112)
3BCD  00                 [204] (-112)
3BCE  62                 [205] (-112)
3BCF  01                 [206] (-112)
3BD0  00                 [207] (-112)
3BD1  00                 [208] (-112)
3BD2  62                 [209] (-112)
3BD3  01                 [210] (-112)
3BD4  00                 [211] (-112)
3BD5  00                 [212] (-112)
3BD6  62                 [213] (-112)
3BD7  01                 [214] (-112)
3BD8  00                 [215] (-112)
3BD9  00                 [216] (-112)
3BDA  63                 [217] (-112)
3BDB  01                 [218] (-112)
3BDC  00                 [219] (-112)
3BDD  00                 [220] (-112)
3BDE  63                 [221] (-112)
3BDF  01                 [222] (-112)
3BE0  00                 [223] (-112)
3BE1  00                 [224] (-110)
3BE2  64                 [225] (-110)
3BE3  01                 [226] (-110)
3BE4  00                 [227] (-110)
3BE5  00                 [228] (-110)
3BE6  67                 [229] (-109)
3BE7  01                 [230] (-109)
3BE8  00                 [231] (-107)
3BE9  00                 [232] (-107)
3BEA  67                 [233] (-107)
3BEB  01                 [234] (-107)
3BEC  00                 [235] (-107)
3BED  00                 [236] (-105)
3BEE  67                 [237] (-105)
3BEF  01                 [238] (-105)
3BF0  00                 [239] (-105)
3BF1  00                 [240] (-103)
3BF2  68                 [241] (-103)
3BF3  01                 [242] (-103)
3BF4  00                 [243] (-102)
3BF5  00                 [244] (-102)
3BF6  68                 [245] (-102)
3BF7  01                 [246] (-102)
3BF8  00                 [247] (-102)
3BF9  00                 [248] (-101)
3BFA  68                 [249] (-101)
3BFB  01                 [250] (-101)
3BFC  00                 [251] (-101)
3BFD  00                 [252] (-101)
3BFE  68                 [253] (-101)
3BFF  01                 [254] (-100)
3C00  00                 [255] (-100)
3C01  00                 [256] (-100)
3C02  69                 [257] (-100)
3C03  01                 [258] (-100)
3C04  00                 [259] (-99)
3C05  00                 [260] (-99)
3C06  69                 [261] (-99)
3C07  01                 [262] (-98)
3C08  00                 [263] (-98)
3C09  00                 [264] (-98)
3C0A  69                 [265] (-102)
3C0B  01                 [266] (-97)
3C0C  00                 [267] (-92)
3C0D  00                 [268] (-92)
3C0E  69                 [269] (-92)
3C0F  01                 [270] (-92)
3C10  00                 [271] (-92)
3C11  00                 [272] (-92)
3C12  69                 [273] (-91)
3C13  01                 [274] (-91)
3C14  00                 [275] (-91)
3C15  00                 [276] (-91)
3C16  69                 [277] (-90)
3C17  01                 [278] (-90)
3C18  00                 [279] (-90)
3C19  00                 [280] (-90)
3C1A  69                 [281] (-91)
3C1B  01                 [282] (-87)
3C1C  00                 [283] (-87)
3C1D  00                 [284] (-87)
3C1E  69                 [285] (-87)
3C1F  01                 [286] (-87)
3C20  00                 [287] (-87)
3C21  00                 [288] (-86)
3C22  69                 [289] (-86)
3C23  01                 [290] (-86)
3C24  00                 [291] (-86)
3C25  00                 [292] (-85)
3C26  69                 [293] (-85)
3C27  01                 [294] (-85)
3C28  00                 [295] (-85)
3C29  00                 [296] (-86)
3C2A  69                 [297] (-84)
3C2B  01                 [298] (-82)
3C2C  00                 [299] (-82)
3C2D  00                 [300] (-82)
3C2E  68                 [301] (-82)
3C2F  01                 [302] (-82)
3C30  00                 [303] (-82)
3C31  00                 [304] (-82)
3C32  6C                 [305] (-80)
3C33  01                 [306] (-80)
3C34  00                 [307] (-80)
3C35  00                 [308] (-80)
3C36  6C                 [309] (-79)
3C37  01                 [310] (-79)
3C38  00                 [311] (-79)
3C39  00                 [312] (-79)
3C3A  6C                 [313] (-78)
3C3B  01                 [314] (-78)
3C3C  00                 [315] (-78)
3C3D  00                 [316] (-79)
3C3E  6F                 [317] (-78)
3C3F  01                 [318] (-75)
3C40  00                 [319] (-75)
3C41  00                 [320] (-75)
3C42  6F                 [321] (-75)
3C43  01                 [322] (-75)
3C44  00                 [323] (-75)
3C45  00                 [324] (-75)
3C46  6F                 [325] (-75)
3C47  01                 [326] (-73)
3C48  00                 [327] (-73)
3C49  00                 [328] (-72)
3C4A  6F                 [329] (-67)
3C4B  01                 [330] (-67)
3C4C  00                 [331] (-66)
3C4D  00                 [332] (-66)
3C4E  6F                 [333] (-66)
3C4F  01                 [334] (-66)
3C50  00                 [335] (-66)
3C51  00                 [336] (-66)
3C52  6F                 [337] (-66)
3C53  01                 [338] (-64)
3C54  00                 [339] (-64)
3C55  00                 [340] (-64)
3C56  70                 [341] (-64)
3C57  01                 [342] (-64)
3C58  00                 [343] (-64)
3C59  00                 [344] (-64)
3C5A  70                 [345] (-64)
3C5B  01                 [346] (-64)
3C5C  00                 [347] (-64)
3C5D  00                 [348] (-64)
3C5E  70                 [349] (-64)
3C5F  01                 [350] (-64)
3C60  00                 [351] (-64)
3C61  00                 [352] (-63)
3C62  70                 [353] (-63)
3C63  01                 [354] (-63)
3C64  00                 [355] (-62)
3C65  00                 [356] (-62)
3C66  71                 [357] (-62)
3C67  01                 [358] (-62)
3C68  00                 [359] (-62)
3C69  00                 [360] (-62)
3C6A  71                 [361] (-62)
3C6B  01                 [362] (-60)
3C6C  00                 [363] (-60)
3C6D  00                 [364] (-59)
3C6E  71                 [365] (-58)
3C6F  01                 [366] (-58)
3C70  00                 [367] (-58)
3C71  00                 [368] (-58)
3C72  71                 [369] (-58)
3C73  01                 [370] (-58)
3C74  00                 [371] (-58)
3C75  00                 [372] (-58)
3C76  71                 [373] (-58)
3C77  01                 [374] (-57)
3C78  00                 [375] (-57)
3C79  00                 [376] (-57)
3C7A  71                 [377] (-57)
3C7B  01                 [378] (-56)
3C7C  00                 [379] (-56)
3C7D  00                 [380] (-56)
3C7E  72                 [381] (-56)
3C7F  01                 [382] (-55)
3C80  00                 [383] (-55)
3C81  00                 [384] (-55)
3C82  72                 [385] (-55)
3C83  01                 [386] (-55)
3C84  00                 [387] (-55)
3C85  00                 [388] (-57)
3C86  72                 [389] (-54)
3C87  01                 [390] (-50)
3C88  00                 [391] (-50)
3C89  00                 [392] (-50)
3C8A  72                 [393] (-50)
3C8B  01                 [394] (-50)
3C8C  00                 [395] (-50)
3C8D  00                 [396] (-50)
3C8E  72                 [397] (-50)
3C8F  01                 [398] (-50)
3C90  00                 [399] (-49)
3C91  00                 [400] (-49)
3C92  73                 [401] (-49)
3C93  01                 [402] (-48)
3C94  00                 [403] (-48)
3C95  00                 [404] (-48)
3C96  73                 [405] (-48)
3C97  01                 [406] (-47)
3C98  00                 [407] (-47)
3C99  00                 [408] (-47)
3C9A  73                 [409] (-47)
3C9B  01                 [410] (-47)
3C9C  00                 [411] (-47)
3C9D  00                 [412] (-47)
3C9E  73                 [413] (-47)
3C9F  01                 [414] (-47)
3CA0  00                 [415] (-46)
3CA1  00                 [416] (-46)
3CA2  73                 [417] (-46)
3CA3  01                 [418] (-46)
3CA4  00                 [419] (-46)
3CA5  00                 [420] (-45)
3CA6  73                 [421] (-44)
3CA7  01                 [422] (-43)
3CA8  00                 [423] (-43)
3CA9  00                 [424] (-41)
3CAA  6F                 [425] (-41)
3CAB  01                 [426] (-41)
3CAC  00                 [427] (-41)
3CAD  00                 [428] (-40)
3CAE  78                 [429] (-40)
3CAF  01                 [430] (-40)
3CB0  00                 [431] (-40)
3CB1  00                 [432] (-40)
3CB2  79                 [433] (-39)
3CB3  01                 [434] (-38)
3CB4  00                 [435] (-41)
3CB5  00                 [436] (-37)
3CB6  79                 [437] (-48)
3CB7  01                 [438] (-34)
3CB8  00                 [439] (-30)
3CB9  00                 [440] (-30)
3CBA  79                 [441] (-29)
3CBB  01                 [442] (-29)
3CBC  00                 [443] (-29)
3CBD  00                 [444] (-29)
3CBE  79                 [445] (-29)
3CBF  01                 [446] (-29)
3CC0  00                 [447] (-29)
3CC1  00                 [448] (-28)
3CC2  79                 [449] (-28)
3CC3  01                 [450] (-27)
3CC4  00                 [451] (-27)
3CC5  00                 [452] (-27)
3CC6  79                 [453] (-27)
3CC7  01                 [454] (-27)
3CC8  00                 [455] (-27)
3CC9  00                 [456] (-27)
3CCA  7A                 [457] (-27)
3CCB  01                 [458] (-27)
3CCC  00                 [459] (-27)
3CCD  00                 [460] (-27)
3CCE  7A                 [461] (-27)
3CCF  01                 [462] (-27)
3CD0  00                 [463] (-27)
3CD1  00                 [464] (-26)
3CD2  7A                 [465] (-26)
3CD3  01                 [466] (-26)
3CD4  00                 [467] (-26)
3CD5  00                 [468] (-26)
3CD6  7A                 [469] (-26)
3CD7  01                 [470] (-25)
3CD8  00                 [471] (-25)
3CD9  00                 [472] (-25)
3CDA  7A                 [473] (-25)
3CDB  01                 [474] (-25)
3CDC  00                 [475] (-25)
3CDD  00                 [476] (-25)
3CDE  79                 [477] (-25)
3CDF  01                 [478] (-25)
3CE0  00                 [479] (-25)
3CE1  00                 [480] (-25)
3CE2  7D                 [481] (-24)
3CE3  01                 [482] (-24)
3CE4  00                 [483] (-24)
3CE5  00                 [484] (-24)
3CE6  7D                 [485] (-24)
3CE7  01                 [486] (-24)
3CE8  00                 [487] (-24)
3CE9  00                 [488] (-24)
3CEA  7D                 [489] (-24)
3CEB  01                 [490] (-24)
3CEC  00                 [491] (-21)
3CED  00                 [492] (-21)
3CEE  7D                 [493] (-21)
3CEF  01                 [494] (-21)
3CF0  00                 [495] (-21)
3CF1  00                 [496] (-21)
3CF2  7F                 [497] (-21)
3CF3  01                 [498] (-21)
3CF4  00                 [499] (-20)
3CF5  00                 [500] (-20)
3CF6  7F                 [501] (-20)
3CF7  01                 [502] (-20)
3CF8  00                 [503] (-20)
3CF9  00                 [504] (-20)
3CFA  7F                 [505] (-20)
3CFB  01                 [506] (-20)
3CFC  00                 [507] (-18)
3CFD  00                 [508] (-18)
3CFE  80                 [509] (-18)
3CFF  01                 [510] (-18)
3D00  00                 [511] (-17)
3D01  00                 [512] (-17)
3D02  80                 [513] (-17)
3D03  01                 [514] (-17)
3D04  00                 [515] (-17)
3D05  00                 [516] (-17)
3D06  80                 [517] (-17)
3D07  01                 [518] (-17)
3D08  00                 [519] (-17)
3D09  00                 [520] (-17)
3D0A  80                 [521] (-17)
3D0B  01                 [522] (-17)
3D0C  00                 [523] (-17)
3D0D  00                 [524] (-17)
3D0E  80                 [525] (-17)
3D0F  01                 [526] (-16)
3D10  00                 [527] (-16)
3D11  00                 [528] (-16)
3D12  80                 [529] (-16)
3D13  01                 [530] (-16)
3D14  00                 [531] (-16)
3D15  00                 [532] (-16)
3D16  80                 [533] (-16)
3D17  01                 [534] (-15)
3D18  00                 [535] (-15)
3D19  00                 [536] (-15)
3D1A  80                 [537] (-13)
3D1B  01                 [538] (-13)
3D1C  00                 [539] (-13)
3D1D  00                 [540] (-12)
3D1E  81                 [541] (-12)
3D1F  01                 [542] (-12)
3D20  00                 [543] (-11)
3D21  00                 [544] (-11)
3D22  81                 [545] (-11)
3D23  01                 [546] (-11)
3D24  00                 [547] (-10)
3D25  00                 [548] (-10)
3D26  81                 [549] (-10)
3D27  01                 [550] (-10)
3D28  00                 [551] (-10)
3D29  00                 [552] (-10)
3D2A  81                 [553] (-10)
3D2B  01                 [554] (-10)
3D2C  00                 [555] (-10)
3D2D  00                 [556] (-9)
3D2E  80                 [557] (-9)
3D2F  01                 [558] (-8)
3D30  00                 [559] (-8)
3D31  00                 [560] (-8)
3D32  84                 [561] (-8)
3D33  01                 [562] (-8)
3D34  00                 [563] (-7)
3D35  00                 [564] (-7)
3D36  84                 [565] (-7)
3D37  01                 [566] (-7)
3D38  00                 [567] (-11)
3D39  00                 [568] (-5)
3D3A  86                 [569] (3)
3D3B  01                 [570] (3)
3D3C  00                 [571] (3)
3D3D  00                 [572] (3)
3D3E  86                 [573] (3)
3D3F  01                 [574] (3)
3D40  00                 [575] (4)
3D41  00                 [576] (4)
3D42  86                 [577] (4)
3D43  01                 [578] (4)
3D44  00                 [579] (5)
3D45  00                 [580] (5)
3D46  86                 [581] (5)
3D47  01                 [582] (5)
3D48  00                 [583] (5)
3D49  00                 [584] (6)
3D4A  86                 [585] (6)
3D4B  01                 [586] (6)
3D4C  00                 [587] (7)
3D4D  00                 [588] (7)
3D4E  86                 [589] (7)
3D4F  01                 [590] (7)
3D50  00                 [591] (7)
3D51  00                 [592] (7)
3D52  86                 [593] (7)
3D53  01                 [594] (8)
3D54  00                 [595] (8)
3D55  00                 [596] (8)
3D56  87                 [597] (8)
3D57  01                 [598] (8)
3D58  00                 [599] (8)
3D59  00                 [600] (8)
3D5A  87                 [601] (8)
3D5B  01                 [602] (8)
3D5C  00                 [603] (8)
3D5D  00                 [604] (9)
3D5E  87                 [605] (9)
3D5F  01                 [606] (10)
3D60  00                 [607] (10)
3D61  00                 [608] (13)
3D62  87                 [609] (13)
3D63  01                 [610] (13)
3D64  00                 [611] (13)
3D65  00                 [612] (13)
3D66  88                 [613] (13)
3D67  01                 [614] (14)
3D68  00                 [615] (14)
3D69  00                 [616] (14)
3D6A  88                 [617] (14)
3D6B  01                 [618] (14)
3D6C  00                 [619] (14)
3D6D  00                 [620] (14)
3D6E  88                 [621] (14)
3D6F  01                 [622] (14)
3D70  00                 [623] (14)
3D71  00                 [624] (14)
3D72  88                 [625] (14)
3D73  01                 [626] (14)
3D74  00                 [627] (17)
                         * locals:
44CE  00                 sizelocvars (0)
                         * upvalues:
44CF  00                 sizeupvalues (0)
                         ** end of function **

                         
44D0                     ** function [12] definition (level 2)
                         ** start of function **
44D0  00                 string size (0)
                         source name: (none)
44D2  04                 line defined (534)
44D3  A1                 last line defined (673)
44D4  05                 nups (11)
44D5  0B                 numparams (2)
44D6  02                 is_vararg (0)
44D7  00                 maxstacksize (47)
                         * code:
44DA  03                 sizecode (386)
44DB  93000000           [001] getupval   2   0      
44DF  A2408000           [002] call       2   1   1  
44E3  93008000           [003] getupval   2   1      
44E7  D2008000           [004] move       3   1      
44EB  A2400001           [005] call       2   2   1  
44EF  93000001           [006] getupval   2   2      
44F3  98000000           [007] test       2       0    ; to [9] if true
44F7  1A800480           [008] jmp        19           ; to [28]
44FB  9D000000           [009] getglobal  2   0        ; 1074689893
44FF  DD400000           [010] getglobal  3   1        ; _T
4503  CE80C001           [011] gettable   3   3   258  ; "BackgroundMovie"
4507  A2800001           [012] call       2   2   2  
450B  98400000           [013] test       2       1    ; to [15] if false
450F  1A000380           [014] jmp        13           ; to [28]
4513  9DC00000           [015] getglobal  2   3        ; gGameRules
4517  A4004101           [016] self       2   2   260  ; -163852551
451B  A2800001           [017] call       2   2   2  
451F  98000000           [018] test       2       0    ; to [20] if true
4523  1AC00180           [019] jmp        8            ; to [28]
4527  9D400000           [020] getglobal  2   1        ; _T
452B  8E804001           [021] gettable   2   2   258  ; "BackgroundMovie"
452F  A4404101           [022] self       2   2   261  ; 1167009705
4533  19810100           [023] loadk      4   6        ; "InitializeRegionChallenges"
4537  59C10100           [024] loadk      5   7        ; ""
453B  A2400002           [025] call       2   4   1  
453F  97000000           [026] loadbool   2   0   0    ; false
fail op	8
4543  88000001           [027] setupval   2   2      
4547  9D400000           [028] getglobal  2   1        ; _T
454B  8E004201           [029] gettable   2   2   264  ; "RelayEventTimerActive"
fail op	35
454F  23404201           [030] close      0  
4553  1A800080           [031] jmp        3            ; to [35]
4557  93008001           [032] getupval   2   3      
455B  A2408000           [033] call       2   1   1  
455F  1A800380           [034] jmp        15           ; to [50]
4563  9D400000           [035] getglobal  2   1        ; _T
4567  8E804201           [036] gettable   2   2   266  ; "RelayEventSpawnTimer"
fail op	35
456B  63404201           [037] close      1  
456F  1A800280           [038] jmp        11           ; to [50]
4573  9D400000           [039] getglobal  2   1        ; _T
4577  8E804201           [040] gettable   2   2   266  ; "RelayEventSpawnTimer"
fail op	21
457B  15808085           [041] concat     0   267 2  
457F  1A800180           [042] jmp        7            ; to [50]
4583  9D400000           [043] getglobal  2   1        ; _T
4587  DD400000           [044] getglobal  3   1        ; _T
458B  CE80C201           [045] gettable   3   3   266  ; "RelayEventSpawnTimer"
458F  1D010300           [046] getglobal  4   12       ; 1289681407
4593  22818000           [047] call       4   1   2  
4597  CD008101           [048] sub        3   3   4  
459B  8CC00085           [049] settable   2   266 3    ; "RelayEventSpawnTimer"
459F  9D400000           [050] getglobal  2   1        ; _T
45A3  8E404301           [051] gettable   2   2   269  ; "stripModsFromPlayer"
45A7  98000000           [052] test       2       0    ; to [54] if true
45AB  1AC00380           [053] jmp        16           ; to [70]
45AF  9D000000           [054] getglobal  2   0        ; 1074689893
45B3  DD800300           [055] getglobal  3   14       ; gRegion
45B7  E4C0C301           [056] self       3   3   271  ; 65205951
45BB  E2000001           [057] call       3   2   0  
45BF  A2800000           [058] call       2   0   2  
45C3  98400000           [059] test       2       1    ; to [61] if false
45C7  1A000280           [060] jmp        9            ; to [70]
45CB  93000002           [061] getupval   2   4      
45CF  8E004401           [062] gettable   2   2   272  ; -777819256
45D3  DD800300           [063] getglobal  3   14       ; gRegion
45D7  E4C0C301           [064] self       3   3   271  ; 65205951
45DB  E2800001           [065] call       3   2   2  
45DF  17010000           [066] loadbool   4   0   0    ; false
45E3  A2408001           [067] call       2   3   1  
45E7  9D400000           [068] getglobal  2   1        ; _T
45EB  8C40C486           [069] settable   2   269 273  ; "stripModsFromPlayer" 0
45EF  9D800300           [070] getglobal  2   14       ; gRegion
45F3  A4804401           [071] self       2   2   274  ; -1520831144
45F7  A2800001           [072] call       2   2   2  
45FB  98000000           [073] test       2       0    ; to [75] if true
45FF  1AC00E80           [074] jmp        60           ; to [135]
4603  9D000000           [075] getglobal  2   0        ; 1074689893
4607  DD400000           [076] getglobal  3   1        ; _T
460B  CEC0C401           [077] gettable   3   3   275  ; "noModsImpactMessage"
460F  A2800001           [078] call       2   2   2  
4613  98400000           [079] test       2       1    ; to [81] if false
4617  1A400D80           [080] jmp        54           ; to [135]
461B  9D800300           [081] getglobal  2   14       ; gRegion
461F  A4004501           [082] self       2   2   276  ; 1224466847
4623  A2800001           [083] call       2   2   2  
4627  D9400500           [084] loadk      3   21       ; 0
462B  0A010001           [085] len        4   2      
462F  59410500           [086] loadk      5   21       ; 0
4633  D0400B80           [087] forprep    3   46       ; to [134]
4637  CE810101           [088] gettable   7   2   6  
463B  E481C503           [089] self       7   7   278  ; 1808941484
463F  E2810001           [090] call       7   2   2  
4643  1D420000           [091] getglobal  8   1        ; _T
4647  0EC24404           [092] gettable   8   8   275  ; "noModsImpactMessage"
464B  0EC20104           [093] gettable   8   8   7  
fail op	35
464F  23C04504           [094] close      0  
4653  1A400980           [095] jmp        38           ; to [134]
4657  1D820300           [096] getglobal  8   14       ; gRegion
465B  24024604           [097] self       8   8   280  ; -1456226250
465F  22820001           [098] call       8   2   2  
4663  5D420000           [099] getglobal  9   1        ; _T
4667  4E42C604           [100] gettable   9   9   281  ; "ShowImpactMessage"
466B  58020000           [101] test       9       0    ; to [103] if true
466F  1A800780           [102] jmp        31           ; to [134]
4673  5D020000           [103] getglobal  9   0        ; 1074689893
4677  9D820300           [104] getglobal  10  14       ; gRegion
467B  A4824605           [105] self       10  10  282  ; 2066713391
467F  A2020001           [106] call       10  2   0  
4683  62820000           [107] call       9   0   2  
4687  58020000           [108] test       9       0    ; to [110] if true
468B  1AC00580           [109] jmp        24           ; to [134]
468F  64C24604           [110] self       9   8   283  ; 152824360
4693  62820001           [111] call       9   2   2  
fail op	9
4697  49028004           [112] settable   9   9   0  
fail op	35
469B  63C0C204           [113] close      1  
469F  1A800480           [114] jmp        19           ; to [134]
46A3  5D020700           [115] getglobal  9   28       ; gClient
46A7  6442C704           [116] self       9   9   285  ; 681706190
46AB  62820001           [117] call       9   2   2  
46AF  58420000           [118] test       9       1    ; to [120] if false
46B3  1A400380           [119] jmp        14           ; to [134]
46B7  5D420000           [120] getglobal  9   1        ; _T
46BB  4EC2C404           [121] gettable   9   9   275  ; "noModsImpactMessage"
46BF  4C42C403           [122] settable   9   7   273  ; 0
46C3  64824700           [123] self       9   0   286  ; 908734006
46C7  CE820101           [124] gettable   11  2   6  
46CB  1DC30700           [125] getglobal  12  31       ; -421772368
46CF  59030800           [126] loadk      13  32       ; "/Lotus/Language/Game/NightmareModeNoMods"
46D3  86030007           [127] loadnil    14  14     
46D7  22838001           [128] call       12  3   2  
46DB  59C30100           [129] loadk      13  7        ; ""
46DF  99430500           [130] loadk      14  21       ; 0
46E3  D9430800           [131] loadk      15  33       ; 0
46E7  17048000           [132] loadbool   16  1   0    ; true
46EB  62420004           [133] call       9   8   1  
46EF  D400F47F           [134] forloop    3   -47      ; to [88] if loop
46F3  53028002           [135] getupval   9   5      
46F7  92028000           [136] move       10  1      
46FB  62420001           [137] call       9   2   1  
46FF  53020003           [138] getupval   9   6      
4703  92028000           [139] move       10  1      
4707  62420001           [140] call       9   2   1  
470B  53028003           [141] getupval   9   7      
470F  92028000           [142] move       10  1      
4713  62420001           [143] call       9   2   1  
4717  5D420000           [144] getglobal  9   1        ; _T
471B  4E82C804           [145] gettable   9   9   290  ; "PendingScenarioHubName"
471F  58020000           [146] test       9       0    ; to [148] if true
4723  1A000A80           [147] jmp        41           ; to [189]
4727  5D420000           [148] getglobal  9   1        ; _T
472B  4EC2C804           [149] gettable   9   9   291  ; "ScenarioHubStarted"
472F  58420000           [150] test       9       1    ; to [152] if false
4733  1A000980           [151] jmp        37           ; to [189]
4737  5DC20000           [152] getglobal  9   3        ; gGameRules
473B  6402C104           [153] self       9   9   260  ; -163852551
473F  62820001           [154] call       9   2   2  
4743  58020000           [155] test       9       0    ; to [157] if true
4747  1AC00780           [156] jmp        32           ; to [189]
474B  5D820300           [157] getglobal  9   14       ; gRegion
474F  6482C404           [158] self       9   9   274  ; -1520831144
4753  62820001           [159] call       9   2   2  
4757  58020000           [160] test       9       0    ; to [162] if true
475B  1A000480           [161] jmp        17           ; to [179]
475F  5D420000           [162] getglobal  9   1        ; _T
4763  9D820300           [163] getglobal  10  14       ; gRegion
4767  A4424905           [164] self       10  10  293  ; -1110225722
476B  1D830900           [165] getglobal  12  38       ; -895206725
476F  53030004           [166] getupval   13  8      
4773  22830001           [167] call       12  2   2  
4777  5DC30900           [168] getglobal  13  39       ; ZERO_VECTOR
477B  9D030A00           [169] getglobal  14  40       ; ZERO_ROTATION
477F  A2828002           [170] call       10  5   2  
4783  4C820292           [171] settable   9   292 10   ; "ScenarioHubInstance"
4787  5D420000           [172] getglobal  9   1        ; _T
478B  9D020000           [173] getglobal  10  0        ; 1074689893
478F  DD420000           [174] getglobal  11  1        ; _T
4793  CE02C905           [175] gettable   11  11  292  ; "ScenarioHubInstance"
4797  A2820001           [176] call       10  2   2  
fail op	9
479B  89020005           [177] settable   10  10  0  
479F  4C828291           [178] settable   9   291 10   ; "ScenarioHubStarted"
47A3  5D420000           [179] getglobal  9   1        ; _T
47A7  4EC2C804           [180] gettable   9   9   291  ; "ScenarioHubStarted"
47AB  58420000           [181] test       9       1    ; to [183] if false
47AF  1A400880           [182] jmp        34           ; to [217]
47B3  5D420A00           [183] getglobal  9   41       ; -1817107093
47B7  99820A00           [184] loadk      10  42       ; "failed to create ScenarioHubScriptHelper"
47BB  62420001           [185] call       9   2   1  
47BF  5D420000           [186] getglobal  9   1        ; _T
47C3  4C424291           [187] settable   9   290 265  ; "PendingScenarioHubName" nil
47C7  1AC00680           [188] jmp        28           ; to [217]
47CB  5D420000           [189] getglobal  9   1        ; _T
47CF  4EC2CA04           [190] gettable   9   9   299  ; "PendingScenarioHubShutdown"
47D3  58020000           [191] test       9       0    ; to [193] if true
47D7  1AC00580           [192] jmp        24           ; to [217]
47DB  5D420000           [193] getglobal  9   1        ; _T
47DF  4C42C295           [194] settable   9   299 265  ; "PendingScenarioHubShutdown" nil
47E3  5D420000           [195] getglobal  9   1        ; _T
47E7  4C424291           [196] settable   9   290 265  ; "PendingScenarioHubName" nil
47EB  5D420000           [197] getglobal  9   1        ; _T
47EF  4E02CB04           [198] gettable   9   9   300  ; "ShutdownScenarioHub"
47F3  58020000           [199] test       9       0    ; to [201] if true
47F7  1A800080           [200] jmp        3            ; to [204]
47FB  5D420000           [201] getglobal  9   1        ; _T
47FF  4E42CB04           [202] gettable   9   9   301  ; -535213824
4803  62428000           [203] call       9   1   1  
4807  5D020000           [204] getglobal  9   0        ; 1074689893
480B  9D420000           [205] getglobal  10  1        ; _T
480F  8E024905           [206] gettable   10  10  292  ; "ScenarioHubInstance"
4813  62820001           [207] call       9   2   2  
4817  58420000           [208] test       9       1    ; to [210] if false
481B  1A000180           [209] jmp        5            ; to [215]
481F  5D820300           [210] getglobal  9   14       ; gRegion
4823  6482CB04           [211] self       9   9   302  ; -1693828985
4827  DD420000           [212] getglobal  11  1        ; _T
482B  CE02C905           [213] gettable   11  11  292  ; "ScenarioHubInstance"
482F  62428001           [214] call       9   3   1  
4833  5D420000           [215] getglobal  9   1        ; _T
4837  4C42C491           [216] settable   9   291 273  ; "ScenarioHubStarted" 0
483B  5D820300           [217] getglobal  9   14       ; gRegion
483F  6482C404           [218] self       9   9   274  ; -1520831144
4843  62820001           [219] call       9   2   2  
4847  58020000           [220] test       9       0    ; to [222] if true
484B  1AC00080           [221] jmp        4            ; to [226]
484F  53028004           [222] getupval   9   9      
4853  4A028004           [223] len        9   9      
fail op	35
4857  23C0C204           [224] close      0  
485B  1A000080           [225] jmp        1            ; to [227]
485F  1E008000           [226] return     0   1      
4863  53028004           [227] getupval   9   9      
4867  4A028004           [228] len        9   9      
486B  99420500           [229] loadk      10  21       ; 0
486F  D9C20B00           [230] loadk      11  47       ; 0
4873  50421980           [231] forprep    9   102      ; to [334]
4877  53038004           [232] getupval   13  9      
487B  4E038306           [233] gettable   13  13  12 
487F  9D030000           [234] getglobal  14  0        ; 1074689893
4883  D2038006           [235] move       15  13     
4887  A2830001           [236] call       14  2   2  
488B  98430000           [237] test       14      1    ; to [239] if false
488F  1AC00080           [238] jmp        4            ; to [243]
4893  A483C406           [239] self       14  13  274  ; -1520831144
4897  A2830001           [240] call       14  2   2  
489B  98030000           [241] test       14      0    ; to [243] if true
489F  1A400180           [242] jmp        6            ; to [249]
48A3  9D030C00           [243] getglobal  14  48       ; table
48A7  8E434C07           [244] gettable   14  14  305  ; -843973282
48AB  D3038004           [245] getupval   15  9      
48AF  12040006           [246] move       16  12     
48B3  A2438001           [247] call       14  3   1  
48B7  1A001580           [248] jmp        85           ; to [334]
48BB  A483CC06           [249] self       14  13  306  ; 1283871032
48BF  A2830001           [250] call       14  2   2  
48C3  98030000           [251] test       14      0    ; to [253] if true
48C7  1A001480           [252] jmp        81           ; to [334]
48CB  A4C3CC06           [253] self       14  13  307  ; 51109503
48CF  A2830001           [254] call       14  2   2  
48D3  CB030000           [255] newtable   15  0   0    ; array=0, hash=0
48D7  19440500           [256] loadk      16  21       ; 0
48DB  5D040D00           [257] getglobal  17  52       ; Lotus_Game
48DF  4E44CD08           [258] gettable   17  17  309  ; "MAX_LoadOutType"
48E3  99440500           [259] loadk      18  21       ; 0
48E7  10040A80           [260] forprep    16  41       ; to [302]
48EB  19450500           [261] loadk      20  21       ; 0
48EF  5D050D00           [262] getglobal  21  52       ; Lotus_Game
48F3  4E85CD0A           [263] gettable   21  21  310  ; "MAX_LoadOutSlot"
48F7  99450500           [264] loadk      22  21       ; 0
48FB  10850880           [265] forprep    20  35       ; to [301]
48FF  24C64D07           [266] self       24  14  311  ; 1644212373
4903  8D46C509           [267] sub        26  19  277  ; 0
4907  CD46C50B           [268] sub        27  23  277  ; 0
490B  22860002           [269] call       24  4   2  
490F  5D060000           [270] getglobal  25  0        ; 1074689893
4913  8E064E0C           [271] gettable   26  24  312  ; "mItemType"
4917  62860001           [272] call       25  2   2  
491B  58460000           [273] test       25      1    ; to [275] if false
491F  1A000180           [274] jmp        5            ; to [280]
4923  5D060C00           [275] getglobal  25  48       ; table
4927  4E46CE0C           [276] gettable   25  25  313  ; -431682403
492B  92068007           [277] move       26  15     
492F  CE064E0C           [278] gettable   27  24  312  ; "mItemType"
4933  62468001           [279] call       25  3   1  
4937  64864E0C           [280] self       25  24  314  ; -1348043987
493B  62860001           [281] call       25  2   2  
493F  99460500           [282] loadk      26  21       ; 0
4943  DD060D00           [283] getglobal  27  52       ; Lotus_Game
4947  CEC6CE0D           [284] gettable   27  27  315  ; "MAX_SlotName"
494B  19470500           [285] loadk      28  21       ; 0
494F  90060380           [286] forprep    26  13       ; to [300]
4953  A407CF0C           [287] self       30  25  316  ; -1592023674
4957  0D48C50E           [288] sub        32  29  277  ; 0
495B  A2878001           [289] call       30  3   2  
495F  DD070000           [290] getglobal  31  0        ; 1074689893
4963  1208000F           [291] move       32  30     
4967  E2870001           [292] call       31  2   2  
496B  D8470000           [293] test       31      1    ; to [295] if false
496F  1A000180           [294] jmp        5            ; to [300]
4973  DD070C00           [295] getglobal  31  48       ; table
4977  CE47CE0F           [296] gettable   31  31  313  ; -431682403
497B  12088007           [297] move       32  15     
497F  5208000F           [298] move       33  30     
4983  E2478001           [299] call       31  3   1  
4987  9446FC7F           [300] forloop    26  -14      ; to [287] if loop
498B  14C5F67F           [301] forloop    20  -36      ; to [266] if loop
498F  1444F57F           [302] forloop    16  -42      ; to [261] if loop
4993  DD870300           [303] getglobal  31  14       ; gRegion
4997  E447CF0F           [304] self       31  31  317  ; -771271018
499B  E2870001           [305] call       31  2   2  
499F  0E88CF0F           [306] gettable   32  31  318  ; "contextObjects"
49A3  59480500           [307] loadk      33  21       ; 0
49A7  8A088007           [308] len        34  15     
49AB  D9480500           [309] loadk      35  21       ; 0
49AF  50080480           [310] forprep    33  17       ; to [328]
49B3  57090000           [311] loadbool   37  0   0    ; false
49B7  99490500           [312] loadk      38  21       ; 0
49BB  CA090010           [313] len        39  32     
49BF  194A0500           [314] loadk      40  21       ; 0
49C3  90490180           [315] forprep    38  6        ; to [322]
49C7  8E4A0A10           [316] gettable   42  32  41 
49CB  CE0A8907           [317] gettable   43  15  36 
fail op	35
49CF  23C00A15           [318] close      0  
49D3  1A400080           [319] jmp        2            ; to [322]
49D7  57098000           [320] loadbool   37  1   0    ; true
49DB  1A000080           [321] jmp        1            ; to [323]
49DF  9409FE7F           [322] forloop    38  -7       ; to [316] if loop
49E3  58490000           [323] test       37      1    ; to [325] if false
49E7  1A800080           [324] jmp        3            ; to [328]
49EB  A4CACF0F           [325] self       42  31  319  ; -1926901631
49EF  0E0B8907           [326] gettable   44  15  36 
49F3  A24A8001           [327] call       42  3   1  
49F7  5448FB7F           [328] forloop    33  -18      ; to [311] if loop
49FB  9D0A0C00           [329] getglobal  42  48       ; table
49FF  8E4A4C15           [330] gettable   42  42  305  ; -843973282
4A03  D30A8004           [331] getupval   43  9      
4A07  120B0006           [332] move       44  12     
4A0B  A24A8001           [333] call       42  3   1  
4A0F  5402E67F           [334] forloop    9   -103     ; to [232] if loop
4A13  9D4A0000           [335] getglobal  42  1        ; _T
4A17  8E0A5015           [336] gettable   42  42  320  ; "AllowContinuousJobs"
fail op	35
4A1B  63404215           [337] close      1  
4A1F  1A800B80           [338] jmp        47           ; to [386]
4A23  9D4A0000           [339] getglobal  42  1        ; _T
4A27  8E0A5015           [340] gettable   42  42  320  ; "AllowContinuousJobs"
4A2B  980A0000           [341] test       42      0    ; to [343] if true
4A2F  1AC00080           [342] jmp        4            ; to [347]
4A33  9D4A0000           [343] getglobal  42  1        ; _T
4A37  8E4A5015           [344] gettable   42  42  321  ; "ActiveJob"
4A3B  980A0000           [345] test       42      0    ; to [347] if true
4A3F  1A800080           [346] jmp        3            ; to [350]
4A43  970A0000           [347] loadbool   42  0   0    ; false
fail op	8
4A47  880A0005           [348] setupval   42  10     
4A4B  1AC00880           [349] jmp        36           ; to [386]
4A4F  930A0005           [350] getupval   42  10     
4A53  980A0000           [351] test       42      0    ; to [353] if true
4A57  1A000880           [352] jmp        33           ; to [386]
4A5B  9D8A1000           [353] getglobal  42  66       ; gMatchingService
4A5F  A4CA5015           [354] self       42  42  323  ; 535483142
4A63  A28A0001           [355] call       42  2   2  
4A67  980A0000           [356] test       42      0    ; to [358] if true
4A6B  1AC00680           [357] jmp        28           ; to [386]
4A6F  9D8A1000           [358] getglobal  42  66       ; gMatchingService
4A73  A40A5115           [359] self       42  42  324  ; -1985412809
4A77  A28A0001           [360] call       42  2   2  
4A7B  8A0A0015           [361] len        42  42     
fail op	33
4A7F  21404515           [362] tforloop   0       277  ; to [364] if exit
4A83  1A800180           [363] jmp        7            ; to [371]
4A87  DD8A1000           [364] getglobal  43  66       ; gMatchingService
4A8B  E44AD115           [365] self       43  43  325  ; 1441583291
4A8F  570B0000           [366] loadbool   45  0   0    ; false
4A93  E24A8001           [367] call       43  3   1  
4A97  D70A0000           [368] loadbool   43  0   0    ; false
fail op	8
4A9B  C80A0005           [369] setupval   43  10     
4A9F  1A800380           [370] jmp        15           ; to [386]
4AA3  DD8A0300           [371] getglobal  43  14       ; gRegion
4AA7  E40AC515           [372] self       43  43  276  ; 1224466847
4AAB  E28A0001           [373] call       43  2   2  
4AAF  CA0A8015           [374] len        43  43     
fail op	35
4AB3  23808A15           [375] close      0  
4AB7  1A000280           [376] jmp        9            ; to [386]
4ABB  1D4B0A00           [377] getglobal  44  41       ; -1817107093
4ABF  598B1100           [378] loadk      45  70       ; "EVERYONE IS HERE!"
4AC3  224B0001           [379] call       44  2   1  
4AC7  1D8B1000           [380] getglobal  44  66       ; gMatchingService
4ACB  244B5116           [381] self       44  44  325  ; 1441583291
4ACF  970B0000           [382] loadbool   46  0   0    ; false
4AD3  224B8001           [383] call       44  3   1  
4AD7  170B0000           [384] loadbool   44  0   0    ; false
fail op	8
4ADB  080B0005           [385] setupval   44  10     
4ADF  1E008000           [386] return     0   1      
                         * constants:
4AE3  47                 sizek (71)
4AE4  01                 const type 3
4AE5  65770E40           const [0]: (1074689893)
4AE9  04                 const type 4
4AEA  03                 string size (3)
4AEB  5F5400             "_T\0"
                         const [1]: "_T"
4AEE  04                 const type 4
4AEF  10                 string size (16)
4AF0  4261636B67726F75+  "Backgrou"
4AF8  6E644D6F76696500   "ndMovie\0"
                         const [2]: "BackgroundMovie"
4B00  04                 const type 4
4B01  0B                 string size (11)
4B02  6747616D6552756C+  "gGameRul"
4B0A  657300             "es\0"
                         const [3]: "gGameRules"
4B0D  01                 const type 3
4B0E  F9CE3BF6           const [4]: (-163852551)
4B12  01                 const type 3
4B13  A9278F45           const [5]: (1167009705)
4B17  04                 const type 4
4B18  1B                 string size (27)
4B19  496E697469616C69+  "Initiali"
4B21  7A65526567696F6E+  "zeRegion"
4B29  4368616C6C656E67+  "Challeng"
4B31  657300             "es\0"
                         const [6]: "InitializeRegionChallenges"
4B34  04                 const type 4
4B35  01                 string size (0)
                         const [7]: ""
4B37  04                 const type 4
4B38  16                 string size (22)
4B39  52656C6179457665+  "RelayEve"
4B41  6E7454696D657241+  "ntTimerA"
4B49  637469766500       "ctive\0"
                         const [8]: "RelayEventTimerActive"
4B4F  00                 const type 0
                         const [9]: nil
4B50  04                 const type 4
4B51  15                 string size (21)
4B52  52656C6179457665+  "RelayEve"
4B5A  6E74537061776E54+  "ntSpawnT"
4B62  696D657200         "imer\0"
                         const [10]: "RelayEventSpawnTimer"
4B67  03                 const type 3
4B68  00000000           const [11]: (0)
4B6C  01                 const type 3
4B6D  FFF9DE4C           const [12]: (1289681407)
4B71  04                 const type 4
4B72  14                 string size (20)
4B73  73747269704D6F64+  "stripMod"
4B7B  7346726F6D506C61+  "sFromPla"
4B83  79657200           "yer\0"
                         const [13]: "stripModsFromPlayer"
4B87  04                 const type 4
4B88  08                 string size (8)
4B89  67526567696F6E00   "gRegion\0"
                         const [14]: "gRegion"
4B91  01                 const type 3
4B92  BFF6E203           const [15]: (65205951)
4B96  01                 const type 3
4B97  886BA3D1           const [16]: (-777819256)
4B9B  01                 const type 3
4B9C  00000000           const [17]: (0)
4BA0  01                 const type 3
4BA1  58F559A5           const [18]: (-1520831144)
4BA5  04                 const type 4
4BA6  14                 string size (20)
4BA7  6E6F4D6F6473496D+  "noModsIm"
4BAF  706163744D657373+  "pactMess"
4BB7  61676500           "age\0"
                         const [19]: "noModsImpactMessage"
4BBB  01                 const type 3
4BBC  9FE1FB48           const [20]: (1224466847)
4BC0  03                 const type 3
4BC1  0000803F           const [21]: (0)
4BC5  01                 const type 3
4BC6  AC41D26B           const [22]: (1808941484)
4BCA  01                 const type 3
4BCB  01000000           const [23]: (1)
4BCF  01                 const type 3
4BD0  36C033A9           const [24]: (-1456226250)
4BD4  04                 const type 4
4BD5  12                 string size (18)
4BD6  53686F77496D7061+  "ShowImpa"
4BDE  63744D6573736167+  "ctMessag"
4BE6  6500               "e\0"
                         const [25]: "ShowImpactMessage"
4BE8  01                 const type 3
4BE9  2F8B2F7B           const [26]: (2066713391)
4BED  01                 const type 3
4BEE  28EA1B09           const [27]: (152824360)
4BF2  04                 const type 4
4BF3  08                 string size (8)
4BF4  67436C69656E7400   "gClient\0"
                         const [28]: "gClient"
4BFC  01                 const type 3
4BFD  CE02A228           const [29]: (681706190)
4C01  01                 const type 3
4C02  362E2A36           const [30]: (908734006)
4C06  01                 const type 3
4C07  B043DCE6           const [31]: (-421772368)
4C0B  04                 const type 4
4C0C  29                 string size (41)
4C0D  2F4C6F7475732F4C+  "/Lotus/L"
4C15  616E67756167652F+  "anguage/"
4C1D  47616D652F4E6967+  "Game/Nig"
4C25  68746D6172654D6F+  "htmareMo"
4C2D  64654E6F4D6F6473+  "deNoMods"
4C35  00                 "\0"
                         const [32]: "/Lotus/Language/Game/NightmareModeNoMods"
4C36  03                 const type 3
4C37  0000A040           const [33]: (0)
4C3B  04                 const type 4
4C3C  17                 string size (23)
4C3D  50656E64696E6753+  "PendingS"
4C45  63656E6172696F48+  "cenarioH"
4C4D  75624E616D6500     "ubName\0"
                         const [34]: "PendingScenarioHubName"
4C54  04                 const type 4
4C55  13                 string size (19)
4C56  5363656E6172696F+  "Scenario"
4C5E  4875625374617274+  "HubStart"
4C66  656400             "ed\0"
                         const [35]: "ScenarioHubStarted"
4C69  04                 const type 4
4C6A  14                 string size (20)
4C6B  5363656E6172696F+  "Scenario"
4C73  487562496E737461+  "HubInsta"
4C7B  6E636500           "nce\0"
                         const [36]: "ScenarioHubInstance"
4C7F  01                 const type 3
4C80  C64CD3BD           const [37]: (-1110225722)
4C84  01                 const type 3
4C85  BB3AA4CA           const [38]: (-895206725)
4C89  04                 const type 4
4C8A  0C                 string size (12)
4C8B  5A45524F5F564543+  "ZERO_VEC"
4C93  544F5200           "TOR\0"
                         const [39]: "ZERO_VECTOR"
4C97  04                 const type 4
4C98  0E                 string size (14)
4C99  5A45524F5F524F54+  "ZERO_ROT"
4CA1  4154494F4E00       "ATION\0"
                         const [40]: "ZERO_ROTATION"
4CA7  01                 const type 3
4CA8  6B25B193           const [41]: (-1817107093)
4CAC  04                 const type 4
4CAD  29                 string size (41)
4CAE  6661696C65642074+  "failed t"
4CB6  6F20637265617465+  "o create"
4CBE  205363656E617269+  " Scenari"
4CC6  6F48756253637269+  "oHubScri"
4CCE  707448656C706572+  "ptHelper"
4CD6  00                 "\0"
                         const [42]: "failed to create ScenarioHubScriptHelper"
4CD7  04                 const type 4
4CD8  1B                 string size (27)
4CD9  50656E64696E6753+  "PendingS"
4CE1  63656E6172696F48+  "cenarioH"
4CE9  756253687574646F+  "ubShutdo"
4CF1  776E00             "wn\0"
                         const [43]: "PendingScenarioHubShutdown"
4CF4  04                 const type 4
4CF5  14                 string size (20)
4CF6  53687574646F776E+  "Shutdown"
4CFE  5363656E6172696F+  "Scenario"
4D06  48756200           "Hub\0"
                         const [44]: "ShutdownScenarioHub"
4D0A  01                 const type 3
4D0B  004919E0           const [45]: (-535213824)
4D0F  01                 const type 3
4D10  87380A9B           const [46]: (-1693828985)
4D14  03                 const type 3
4D15  000080BF           const [47]: (0)
4D19  04                 const type 4
4D1A  06                 string size (6)
4D1B  7461626C6500       "table\0"
                         const [48]: "table"
4D21  01                 const type 3
4D22  5EFDB1CD           const [49]: (-843973282)
4D26  01                 const type 3
4D27  3851864C           const [50]: (1283871032)
4D2B  01                 const type 3
4D2C  7FDE0B03           const [51]: (51109503)
4D30  04                 const type 4
4D31  0B                 string size (11)
4D32  4C6F7475735F4761+  "Lotus_Ga"
4D3A  6D6500             "me\0"
                         const [52]: "Lotus_Game"
4D3D  04                 const type 4
4D3E  10                 string size (16)
4D3F  4D41585F4C6F6164+  "MAX_Load"
4D47  4F75745479706500   "OutType\0"
                         const [53]: "MAX_LoadOutType"
4D4F  04                 const type 4
4D50  10                 string size (16)
4D51  4D41585F4C6F6164+  "MAX_Load"
4D59  4F7574536C6F7400   "OutSlot\0"
                         const [54]: "MAX_LoadOutSlot"
4D61  01                 const type 3
4D62  95B00062           const [55]: (1644212373)
4D66  04                 const type 4
4D67  0A                 string size (10)
4D68  6D4974656D547970+  "mItemTyp"
4D70  6500               "e\0"
                         const [56]: "mItemType"
4D72  01                 const type 3
4D73  9D0C45E6           const [57]: (-431682403)
4D77  01                 const type 3
4D78  2D7BA6AF           const [58]: (-1348043987)
4D7C  04                 const type 4
4D7D  0D                 string size (13)
4D7E  4D41585F536C6F74+  "MAX_Slot"
4D86  4E616D6500         "Name\0"
                         const [59]: "MAX_SlotName"
4D8B  01                 const type 3
4D8C  86A51BA1           const [60]: (-1592023674)
4D90  01                 const type 3
4D91  965607D2           const [61]: (-771271018)
4D95  04                 const type 4
4D96  0F                 string size (15)
4D97  636F6E746578744F+  "contextO"
4D9F  626A6563747300     "bjects\0"
                         const [62]: "contextObjects"
4DA6  01                 const type 3
4DA7  81D0258D           const [63]: (-1926901631)
4DAB  04                 const type 4
4DAC  14                 string size (20)
4DAD  416C6C6F77436F6E+  "AllowCon"
4DB5  74696E756F75734A+  "tinuousJ"
4DBD  6F627300           "obs\0"
                         const [64]: "AllowContinuousJobs"
4DC1  04                 const type 4
4DC2  0A                 string size (10)
4DC3  4163746976654A6F+  "ActiveJo"
4DCB  6200               "b\0"
                         const [65]: "ActiveJob"
4DCD  04                 const type 4
4DCE  11                 string size (17)
4DCF  674D61746368696E+  "gMatchin"
4DD7  6753657276696365+  "gService"
4DDF  00                 "\0"
                         const [66]: "gMatchingService"
4DE0  01                 const type 3
4DE1  06D3EA1F           const [67]: (535483142)
4DE5  01                 const type 3
4DE6  3701A989           const [68]: (-1985412809)
4DEA  01                 const type 3
4DEB  BBD0EC55           const [69]: (1441583291)
4DEF  04                 const type 4
4DF0  12                 string size (18)
4DF1  45564552594F4E45+  "EVERYONE"
4DF9  2049532048455245+  " IS HERE"
4E01  2100               "!\0"
                         const [70]: "EVERYONE IS HERE!"
                         * functions:
4E03  00                 sizep (0)
                         * lines:
4E05  03                 sizelineinfo (386)
                         [pc] (line)
4E06  18                 [001] (24)
4E07  02                 [002] (24)
4E08  00                 [003] (26)
4E09  00                 [004] (26)
4E0A  18                 [005] (26)
4E0B  02                 [006] (28)
4E0C  00                 [007] (28)
4E0D  00                 [008] (28)
4E0E  1A                 [009] (28)
4E0F  02                 [010] (28)
4E10  00                 [011] (28)
4E11  00                 [012] (28)
4E12  1A                 [013] (28)
4E13  02                 [014] (28)
4E14  00                 [015] (28)
4E15  00                 [016] (28)
4E16  1A                 [017] (28)
4E17  02                 [018] (28)
4E18  00                 [019] (28)
4E19  00                 [020] (29)
4E1A  1C                 [021] (29)
4E1B  02                 [022] (29)
4E1C  00                 [023] (29)
4E1D  00                 [024] (29)
4E1E  1C                 [025] (29)
4E1F  02                 [026] (30)
4E20  00                 [027] (30)
4E21  00                 [028] (33)
4E22  1C                 [029] (33)
4E23  02                 [030] (33)
4E24  00                 [031] (33)
4E25  00                 [032] (34)
4E26  1C                 [033] (34)
4E27  02                 [034] (34)
4E28  00                 [035] (35)
4E29  00                 [036] (35)
4E2A  1C                 [037] (35)
4E2B  02                 [038] (35)
4E2C  00                 [039] (35)
4E2D  00                 [040] (35)
4E2E  1C                 [041] (35)
4E2F  02                 [042] (35)
4E30  00                 [043] (36)
4E31  00                 [044] (36)
4E32  1C                 [045] (36)
4E33  02                 [046] (36)
4E34  00                 [047] (36)
4E35  00                 [048] (36)
4E36  1C                 [049] (36)
4E37  02                 [050] (39)
4E38  00                 [051] (39)
4E39  00                 [052] (39)
4E3A  1C                 [053] (39)
4E3B  02                 [054] (39)
4E3C  00                 [055] (39)
4E3D  00                 [056] (39)
4E3E  1C                 [057] (39)
4E3F  02                 [058] (39)
4E40  00                 [059] (39)
4E41  00                 [060] (39)
4E42  1C                 [061] (40)
4E43  02                 [062] (40)
4E44  00                 [063] (40)
4E45  00                 [064] (40)
4E46  1C                 [065] (40)
4E47  02                 [066] (40)
4E48  00                 [067] (40)
4E49  00                 [068] (41)
4E4A  1C                 [069] (41)
4E4B  02                 [070] (44)
4E4C  00                 [071] (44)
4E4D  00                 [072] (44)
4E4E  1C                 [073] (44)
4E4F  02                 [074] (44)
4E50  00                 [075] (44)
4E51  00                 [076] (44)
4E52  1D                 [077] (44)
4E53  02                 [078] (44)
4E54  00                 [079] (44)
4E55  00                 [080] (44)
4E56  1D                 [081] (45)
4E57  02                 [082] (45)
4E58  00                 [083] (45)
4E59  00                 [084] (46)
4E5A  1D                 [085] (46)
4E5B  02                 [086] (46)
4E5C  00                 [087] (46)
4E5D  00                 [088] (47)
4E5E  1D                 [089] (47)
4E5F  02                 [090] (47)
4E60  00                 [091] (48)
4E61  00                 [092] (48)
4E62  1D                 [093] (48)
4E63  02                 [094] (48)
4E64  00                 [095] (48)
4E65  00                 [096] (49)
4E66  1D                 [097] (49)
4E67  02                 [098] (49)
4E68  00                 [099] (50)
4E69  00                 [100] (50)
4E6A  1E                 [101] (50)
4E6B  02                 [102] (50)
4E6C  00                 [103] (50)
4E6D  00                 [104] (50)
4E6E  1E                 [105] (50)
4E6F  02                 [106] (50)
4E70  00                 [107] (50)
4E71  00                 [108] (50)
4E72  21                 [109] (50)
4E73  02                 [110] (50)
4E74  00                 [111] (50)
4E75  00                 [112] (50)
4E76  21                 [113] (50)
4E77  02                 [114] (50)
4E78  00                 [115] (50)
4E79  00                 [116] (50)
4E7A  21                 [117] (50)
4E7B  02                 [118] (50)
4E7C  00                 [119] (50)
4E7D  00                 [120] (51)
4E7E  21                 [121] (51)
4E7F  02                 [122] (51)
4E80  00                 [123] (52)
4E81  00                 [124] (52)
4E82  22                 [125] (52)
4E83  02                 [126] (52)
4E84  00                 [127] (52)
4E85  00                 [128] (52)
4E86  22                 [129] (52)
4E87  02                 [130] (52)
4E88  00                 [131] (52)
4E89  00                 [132] (52)
4E8A  22                 [133] (52)
4E8B  02                 [134] (46)
4E8C  00                 [135] (58)
4E8D  00                 [136] (58)
4E8E  23                 [137] (58)
4E8F  02                 [138] (60)
4E90  00                 [139] (60)
4E91  00                 [140] (60)
4E92  23                 [141] (62)
4E93  02                 [142] (62)
4E94  00                 [143] (62)
4E95  00                 [144] (64)
4E96  23                 [145] (64)
4E97  02                 [146] (64)
4E98  00                 [147] (64)
4E99  00                 [148] (64)
4E9A  23                 [149] (64)
4E9B  02                 [150] (64)
4E9C  00                 [151] (64)
4E9D  00                 [152] (64)
4E9E  23                 [153] (64)
4E9F  02                 [154] (64)
4EA0  00                 [155] (64)
4EA1  00                 [156] (64)
4EA2  23                 [157] (65)
4EA3  02                 [158] (65)
4EA4  00                 [159] (65)
4EA5  00                 [160] (65)
4EA6  23                 [161] (65)
4EA7  02                 [162] (66)
4EA8  00                 [163] (66)
4EA9  00                 [164] (66)
4EAA  23                 [165] (66)
4EAB  02                 [166] (66)
4EAC  00                 [167] (66)
4EAD  00                 [168] (66)
4EAE  24                 [169] (66)
4EAF  02                 [170] (66)
4EB0  00                 [171] (66)
4EB1  00                 [172] (67)
4EB2  24                 [173] (67)
4EB3  02                 [174] (67)
4EB4  00                 [175] (67)
4EB5  00                 [176] (67)
4EB6  24                 [177] (67)
4EB7  02                 [178] (67)
4EB8  00                 [179] (69)
4EB9  00                 [180] (69)
4EBA  24                 [181] (69)
4EBB  02                 [182] (69)
4EBC  00                 [183] (70)
4EBD  00                 [184] (70)
4EBE  24                 [185] (70)
4EBF  02                 [186] (71)
4EC0  00                 [187] (71)
4EC1  00                 [188] (72)
4EC2  24                 [189] (73)
4EC3  02                 [190] (73)
4EC4  00                 [191] (73)
4EC5  00                 [192] (73)
4EC6  24                 [193] (74)
4EC7  02                 [194] (74)
4EC8  00                 [195] (75)
4EC9  00                 [196] (75)
4ECA  27                 [197] (77)
4ECB  02                 [198] (77)
4ECC  00                 [199] (77)
4ECD  00                 [200] (77)
4ECE  27                 [201] (78)
4ECF  02                 [202] (78)
4ED0  00                 [203] (78)
4ED1  00                 [204] (81)
4ED2  27                 [205] (81)
4ED3  02                 [206] (81)
4ED4  00                 [207] (81)
4ED5  00                 [208] (81)
4ED6  27                 [209] (81)
4ED7  02                 [210] (82)
4ED8  00                 [211] (82)
4ED9  00                 [212] (82)
4EDA  27                 [213] (82)
4EDB  02                 [214] (82)
4EDC  00                 [215] (85)
4EDD  00                 [216] (85)
4EDE  27                 [217] (88)
4EDF  02                 [218] (88)
4EE0  00                 [219] (88)
4EE1  00                 [220] (88)
4EE2  27                 [221] (88)
4EE3  02                 [222] (88)
4EE4  00                 [223] (88)
4EE5  00                 [224] (88)
4EE6  27                 [225] (88)
4EE7  02                 [226] (89)
4EE8  00                 [227] (92)
4EE9  00                 [228] (92)
4EEA  27                 [229] (92)
4EEB  02                 [230] (92)
4EEC  00                 [231] (92)
4EED  00                 [232] (93)
4EEE  27                 [233] (93)
4EEF  02                 [234] (95)
4EF0  00                 [235] (95)
4EF1  00                 [236] (95)
4EF2  27                 [237] (95)
4EF3  02                 [238] (95)
4EF4  00                 [239] (95)
4EF5  00                 [240] (95)
4EF6  28                 [241] (95)
4EF7  02                 [242] (95)
4EF8  00                 [243] (96)
4EF9  00                 [244] (96)
4EFA  28                 [245] (96)
4EFB  02                 [246] (96)
4EFC  00                 [247] (96)
4EFD  00                 [248] (96)
4EFE  28                 [249] (98)
4EFF  02                 [250] (98)
4F00  00                 [251] (98)
4F01  00                 [252] (98)
4F02  28                 [253] (100)
4F03  02                 [254] (100)
4F04  00                 [255] (101)
4F05  00                 [256] (103)
4F06  28                 [257] (103)
4F07  02                 [258] (103)
4F08  00                 [259] (103)
4F09  00                 [260] (103)
4F0A  28                 [261] (104)
4F0B  02                 [262] (104)
4F0C  00                 [263] (104)
4F0D  00                 [264] (104)
4F0E  28                 [265] (104)
4F0F  02                 [266] (105)
4F10  00                 [267] (105)
4F11  00                 [268] (105)
4F12  29                 [269] (105)
4F13  02                 [270] (106)
4F14  00                 [271] (106)
4F15  00                 [272] (106)
4F16  29                 [273] (106)
4F17  02                 [274] (106)
4F18  00                 [275] (107)
4F19  00                 [276] (107)
4F1A  2C                 [277] (107)
4F1B  02                 [278] (107)
4F1C  00                 [279] (107)
4F1D  00                 [280] (110)
4F1E  2C                 [281] (110)
4F1F  02                 [282] (111)
4F20  00                 [283] (111)
4F21  00                 [284] (111)
4F22  2C                 [285] (111)
4F23  02                 [286] (111)
4F24  00                 [287] (112)
4F25  00                 [288] (112)
4F26  2C                 [289] (112)
4F27  02                 [290] (113)
4F28  00                 [291] (113)
4F29  00                 [292] (113)
4F2A  2C                 [293] (113)
4F2B  02                 [294] (113)
4F2C  00                 [295] (114)
4F2D  00                 [296] (114)
4F2E  2C                 [297] (114)
4F2F  02                 [298] (114)
4F30  00                 [299] (114)
4F31  00                 [300] (111)
4F32  2C                 [301] (104)
4F33  02                 [302] (103)
4F34  00                 [303] (121)
4F35  00                 [304] (121)
4F36  2C                 [305] (121)
4F37  02                 [306] (122)
4F38  00                 [307] (123)
4F39  00                 [308] (123)
4F3A  2C                 [309] (123)
4F3B  02                 [310] (123)
4F3C  00                 [311] (124)
4F3D  00                 [312] (125)
4F3E  2C                 [313] (125)
4F3F  02                 [314] (125)
4F40  00                 [315] (125)
4F41  00                 [316] (126)
4F42  2C                 [317] (126)
4F43  02                 [318] (126)
4F44  00                 [319] (126)
4F45  00                 [320] (127)
4F46  2D                 [321] (-128)
4F47  02                 [322] (125)
4F48  00                 [323] (-124)
4F49  00                 [324] (-124)
4F4A  2D                 [325] (-123)
4F4B  02                 [326] (-123)
4F4C  00                 [327] (-123)
4F4D  00                 [328] (123)
4F4E  2D                 [329] (-119)
4F4F  02                 [330] (-119)
4F50  00                 [331] (-119)
4F51  00                 [332] (-119)
4F52  2E                 [333] (-119)
4F53  02                 [334] (92)
4F54  00                 [335] (-115)
4F55  00                 [336] (-115)
4F56  2E                 [337] (-115)
4F57  02                 [338] (-115)
4F58  00                 [339] (-114)
4F59  00                 [340] (-114)
4F5A  2E                 [341] (-114)
4F5B  02                 [342] (-114)
4F5C  00                 [343] (-114)
4F5D  00                 [344] (-114)
4F5E  2E                 [345] (-114)
4F5F  02                 [346] (-114)
4F60  00                 [347] (-113)
4F61  00                 [348] (-113)
4F62  2F                 [349] (-113)
4F63  02                 [350] (-111)
4F64  00                 [351] (-111)
4F65  00                 [352] (-111)
4F66  2F                 [353] (-111)
4F67  02                 [354] (-111)
4F68  00                 [355] (-111)
4F69  00                 [356] (-111)
4F6A  2F                 [357] (-111)
4F6B  02                 [358] (-110)
4F6C  00                 [359] (-110)
4F6D  00                 [360] (-110)
4F6E  30                 [361] (-110)
4F6F  02                 [362] (-109)
4F70  00                 [363] (-109)
4F71  00                 [364] (-108)
4F72  30                 [365] (-108)
4F73  02                 [366] (-108)
4F74  00                 [367] (-108)
4F75  00                 [368] (-107)
4F76  30                 [369] (-107)
4F77  02                 [370] (-107)
4F78  00                 [371] (-105)
4F79  00                 [372] (-105)
4F7A  30                 [373] (-105)
4F7B  02                 [374] (-105)
4F7C  00                 [375] (-104)
4F7D  00                 [376] (-104)
4F7E  30                 [377] (-103)
4F7F  02                 [378] (-103)
4F80  00                 [379] (-103)
4F81  00                 [380] (-102)
4F82  31                 [381] (-102)
4F83  02                 [382] (-102)
4F84  00                 [383] (-102)
4F85  00                 [384] (-101)
4F86  31                 [385] (-101)
4F87  02                 [386] (-95)
                         * locals:
540E  00                 sizelocvars (0)
                         * upvalues:
540F  00                 sizeupvalues (0)
                         ** end of function **

                         
5410                     ** function [13] definition (level 2)
                         ** start of function **
5410  00                 string size (0)
                         source name: (none)
5412  05                 line defined (679)
5413  B7                 last line defined (695)
5414  05                 nups (1)
5415  01                 numparams (2)
5416  02                 is_vararg (0)
5417  00                 maxstacksize (5)
                         * code:
5419  2C                 sizecode (44)
541A  9D000000           [01] getglobal  2   0        ; gRegion
541E  A4404001           [02] self       2   2   257  ; -1520831144
5422  A2800001           [03] call       2   2   2  
5426  98000000           [04] test       2       0    ; to [6] if true
542A  1A000180           [05] jmp        5            ; to [11]
542E  9D800000           [06] getglobal  2   2        ; 1074689893
5432  D2008000           [07] move       3   1      
5436  A2800001           [08] call       2   2   2  
543A  98000000           [09] test       2       0    ; to [11] if true
543E  1A000080           [10] jmp        1            ; to [12]
5442  1E008000           [11] return     0   1      
5446  9DC00000           [12] getglobal  2   3        ; table
544A  8E004101           [13] gettable   2   2   260  ; -431682403
544E  D3000000           [14] getupval   3   0      
5452  12018000           [15] move       4   1      
5456  A2408001           [16] call       2   3   1  
545A  9D800000           [17] getglobal  2   2        ; 1074689893
545E  DD400100           [18] getglobal  3   5        ; _T
5462  CE80C101           [19] gettable   3   3   262  ; "RelayEventTargetEnemy"
5466  A2800001           [20] call       2   2   2  
546A  98400000           [21] test       2       1    ; to [23] if false
546E  1A000380           [22] jmp        13           ; to [36]
5472  9D400100           [23] getglobal  2   5        ; _T
5476  8EC04101           [24] gettable   2   2   263  ; "RelayEventCaptureTimer"
fail op	35
547A  63004201           [25] close      1  
547E  1AC00080           [26] jmp        4            ; to [31]
5482  9D400100           [27] getglobal  2   5        ; _T
5486  8EC04101           [28] gettable   2   2   263  ; "RelayEventCaptureTimer"
fail op	21
548A  15808084           [29] concat     0   265 2  
548E  1A000180           [30] jmp        5            ; to [36]
5492  9D400100           [31] getglobal  2   5        ; _T
5496  8E804101           [32] gettable   2   2   262  ; "RelayEventTargetEnemy"
549A  A4804201           [33] self       2   2   266  ; -419776588
549E  19C10200           [34] loadk      4   11       ; 0
54A2  A2408001           [35] call       2   3   1  
54A6  9D400100           [36] getglobal  2   5        ; _T
54AA  8E004301           [37] gettable   2   2   268  ; "DeductEidolonShardFromClientCallback"
54AE  98000000           [38] test       2       0    ; to [40] if true
54B2  1AC00080           [39] jmp        4            ; to [44]
54B6  9D400100           [40] getglobal  2   5        ; _T
54BA  8E404301           [41] gettable   2   2   269  ; -934293953
54BE  D2008000           [42] move       3   1      
54C2  A2400001           [43] call       2   2   1  
54C6  1E008000           [44] return     0   1      
                         * constants:
54CA  0E                 sizek (14)
54CB  04                 const type 4
54CC  08                 string size (8)
54CD  67526567696F6E00   "gRegion\0"
                         const [0]: "gRegion"
54D5  01                 const type 3
54D6  58F559A5           const [1]: (-1520831144)
54DA  01                 const type 3
54DB  65770E40           const [2]: (1074689893)
54DF  04                 const type 4
54E0  06                 string size (6)
54E1  7461626C6500       "table\0"
                         const [3]: "table"
54E7  01                 const type 3
54E8  9D0C45E6           const [4]: (-431682403)
54EC  04                 const type 4
54ED  03                 string size (3)
54EE  5F5400             "_T\0"
                         const [5]: "_T"
54F1  04                 const type 4
54F2  16                 string size (22)
54F3  52656C6179457665+  "RelayEve"
54FB  6E74546172676574+  "ntTarget"
5503  456E656D7900       "Enemy\0"
                         const [6]: "RelayEventTargetEnemy"
5509  04                 const type 4
550A  17                 string size (23)
550B  52656C6179457665+  "RelayEve"
5513  6E74436170747572+  "ntCaptur"
551B  6554696D657200     "eTimer\0"
                         const [7]: "RelayEventCaptureTimer"
5522  00                 const type 0
                         const [8]: nil
5523  03                 const type 3
5524  00000000           const [9]: (0)
5528  01                 const type 3
5529  B4B7FAE6           const [10]: (-419776588)
552D  03                 const type 3
552E  00000040           const [11]: (0)
5532  04                 const type 4
5533  25                 string size (37)
5534  4465647563744569+  "DeductEi"
553C  646F6C6F6E536861+  "dolonSha"
5544  726446726F6D436C+  "rdFromCl"
554C  69656E7443616C6C+  "ientCall"
5554  6261636B00         "back\0"
                         const [12]: "DeductEidolonShardFromClientCallback"
5559  01                 const type 3
555A  3FCE4FC8           const [13]: (-934293953)
                         * functions:
555E  00                 sizep (0)
                         * lines:
555F  2C                 sizelineinfo (44)
                         [pc] (line)
5560  A8                 [01] (-88)
5561  02                 [02] (-88)
5562  00                 [03] (-88)
5563  00                 [04] (-88)
5564  A8                 [05] (-88)
5565  02                 [06] (-88)
5566  00                 [07] (-88)
5567  00                 [08] (-88)
5568  A8                 [09] (-88)
5569  02                 [10] (-88)
556A  00                 [11] (-87)
556B  00                 [12] (-84)
556C  A8                 [13] (-84)
556D  02                 [14] (-84)
556E  00                 [15] (-84)
556F  00                 [16] (-84)
5570  A8                 [17] (-82)
5571  02                 [18] (-82)
5572  00                 [19] (-82)
5573  00                 [20] (-82)
5574  A8                 [21] (-82)
5575  02                 [22] (-82)
5576  00                 [23] (-82)
5577  00                 [24] (-82)
5578  A8                 [25] (-82)
5579  02                 [26] (-82)
557A  00                 [27] (-82)
557B  00                 [28] (-82)
557C  A8                 [29] (-82)
557D  02                 [30] (-82)
557E  00                 [31] (-81)
557F  00                 [32] (-81)
5580  A8                 [33] (-81)
5581  02                 [34] (-81)
5582  00                 [35] (-81)
5583  00                 [36] (-76)
5584  A8                 [37] (-76)
5585  02                 [38] (-76)
5586  00                 [39] (-76)
5587  00                 [40] (-75)
5588  A9                 [41] (-75)
5589  02                 [42] (-75)
558A  00                 [43] (-75)
558B  00                 [44] (-73)
                         * locals:
5610  00                 sizelocvars (0)
                         * upvalues:
5611  00                 sizeupvalues (0)
                         ** end of function **

                         
5612                     ** function [14] definition (level 2)
                         ** start of function **
5612  00                 string size (0)
                         source name: (none)
5614  05                 line defined (697)
5615  BD                 last line defined (701)
5616  05                 nups (0)
5617  00                 numparams (2)
5618  02                 is_vararg (0)
5619  00                 maxstacksize (3)
                         * code:
561B  07                 sizecode (7)
561C  9D000000           [1] getglobal  2   0        ; _T
5620  8E404001           [2] gettable   2   2   257  ; "IsEliteAlert"
5624  98000000           [3] test       2       0    ; to [5] if true
5628  1A400080           [4] jmp        2            ; to [7]
562C  9D000000           [5] getglobal  2   0        ; _T
5630  8C400081           [6] settable   2   258 1    ; "EliteAlertPlayerDisconnected"
5634  1E008000           [7] return     0   1      
                         * constants:
5638  03                 sizek (3)
5639  04                 const type 4
563A  03                 string size (3)
563B  5F5400             "_T\0"
                         const [0]: "_T"
563E  04                 const type 4
563F  0D                 string size (13)
5640  4973456C69746541+  "IsEliteA"
5648  6C65727400         "lert\0"
                         const [1]: "IsEliteAlert"
564D  04                 const type 4
564E  1D                 string size (29)
564F  456C697465416C65+  "EliteAle"
5657  7274506C61796572+  "rtPlayer"
565F  446973636F6E6E65+  "Disconne"
5667  6374656400         "cted\0"
                         const [2]: "EliteAlertPlayerDisconnected"
                         * functions:
566C  00                 sizep (0)
                         * lines:
566D  07                 sizelineinfo (7)
                         [pc] (line)
566E  BA                 [1] (-70)
566F  02                 [2] (-70)
5670  00                 [3] (-70)
5671  00                 [4] (-70)
5672  BA                 [5] (-69)
5673  02                 [6] (-69)
5674  00                 [7] (-67)
                         * locals:
568A  00                 sizelocvars (0)
                         * upvalues:
568B  00                 sizeupvalues (0)
                         ** end of function **

                         
568C                     ** function [15] definition (level 2)
                         ** start of function **
568C  00                 string size (0)
                         source name: (none)
568E  05                 line defined (703)
568F  CD                 last line defined (717)
5690  05                 nups (0)
5691  00                 numparams (1)
5692  01                 is_vararg (0)
5693  00                 maxstacksize (11)
                         * code:
5695  2C                 sizecode (44)
5696  5D000000           [01] getglobal  1   0        ; gRegion
569A  6440C000           [02] self       1   1   257  ; -1520831144
569E  62800001           [03] call       1   2   2  
56A2  58400000           [04] test       1       1    ; to [6] if false
56A6  1A000080           [05] jmp        1            ; to [7]
56AA  1E008000           [06] return     0   1      
56AE  5D800000           [07] getglobal  1   2        ; _T
56B2  4EC0C000           [08] gettable   1   1   259  ; "ExclusiveWeaponSlot"
fail op	35
56B6  6300C100           [09] close      1  
56BA  1A800280           [10] jmp        11           ; to [22]
56BE  5D400100           [11] getglobal  1   5        ; 1074689893
56C2  92000000           [12] move       2   0      
56C6  62800001           [13] call       1   2   2  
56CA  58400000           [14] test       1       1    ; to [16] if false
56CE  1A400180           [15] jmp        6            ; to [22]
56D2  5D400100           [16] getglobal  1   5        ; 1074689893
56D6  A4804100           [17] self       2   0   262  ; -2135866365
56DA  A2000001           [18] call       2   2   0  
56DE  62800000           [19] call       1   0   2  
56E2  58000000           [20] test       1       0    ; to [22] if true
56E6  1A000080           [21] jmp        1            ; to [23]
56EA  1E008000           [22] return     0   1      
56EE  64804100           [23] self       1   0   262  ; -2135866365
56F2  62800001           [24] call       1   2   2  
56F6  64C0C100           [25] self       1   1   263  ; -1917464545
56FA  62800001           [26] call       1   2   2  
56FE  8B008001           [27] newtable   2   3   0    ; array=3, hash=0
5702  DD000200           [28] getglobal  3   8        ; Engine
5706  CE40C201           [29] gettable   3   3   265  ; "SLOT_1"
570A  1D010200           [30] getglobal  4   8        ; Engine
570E  0E814202           [31] gettable   4   4   266  ; "SLOT_2"
5712  5D010200           [32] getglobal  5   8        ; Engine
5716  4EC1C202           [33] gettable   5   5   267  ; "SLOT_6"
571A  9B408001           [34] setlist    2   3   1    ; index 1 to 3
571E  DD000300           [35] getglobal  3   12       ; 248503575
5722  12010001           [36] move       4   2      
5726  E2000101           [37] call       3   2   4  
572A  1A800080           [38] jmp        3            ; to [42]
572E  2442C300           [39] self       8   1   269  ; -1895507148
5732  92028003           [40] move       10  7      
5736  22428001           [41] call       8   3   1  
573A  D6800000           [42] tforloop   3       2    ; to [44] if exit
573E  1A80FE7F           [43] jmp        -5           ; to [39]
5742  1E008000           [44] return     0   1      
                         * constants:
5746  0E                 sizek (14)
5747  04                 const type 4
5748  08                 string size (8)
5749  67526567696F6E00   "gRegion\0"
                         const [0]: "gRegion"
5751  01                 const type 3
5752  58F559A5           const [1]: (-1520831144)
5756  04                 const type 4
5757  03                 string size (3)
5758  5F5400             "_T\0"
                         const [2]: "_T"
575B  04                 const type 4
575C  14                 string size (20)
575D  4578636C75736976+  "Exclusiv"
5765  65576561706F6E53+  "eWeaponS"
576D  6C6F7400           "lot\0"
                         const [3]: "ExclusiveWeaponSlot"
5771  00                 const type 0
                         const [4]: nil
5772  01                 const type 3
5773  65770E40           const [5]: (1074689893)
5777  01                 const type 3
5778  0344B180           const [6]: (-2135866365)
577C  01                 const type 3
577D  1FD0B58D           const [7]: (-1917464545)
5781  04                 const type 4
5782  07                 string size (7)
5783  456E67696E6500     "Engine\0"
                         const [8]: "Engine"
578A  04                 const type 4
578B  07                 string size (7)
578C  534C4F545F3100     "SLOT_1\0"
                         const [9]: "SLOT_1"
5793  04                 const type 4
5794  07                 string size (7)
5795  534C4F545F3200     "SLOT_2\0"
                         const [10]: "SLOT_2"
579C  04                 const type 4
579D  07                 string size (7)
579E  534C4F545F3600     "SLOT_6\0"
                         const [11]: "SLOT_6"
57A5  01                 const type 3
57A6  17DDCF0E           const [12]: (248503575)
57AA  01                 const type 3
57AB  34DB048F           const [13]: (-1895507148)
                         * functions:
57AF  00                 sizep (0)
                         * lines:
57B0  2C                 sizelineinfo (44)
                         [pc] (line)
57B1  C0                 [01] (-64)
57B2  02                 [02] (-64)
57B3  00                 [03] (-64)
57B4  00                 [04] (-64)
57B5  C0                 [05] (-64)
57B6  02                 [06] (-63)
57B7  00                 [07] (-60)
57B8  00                 [08] (-60)
57B9  C0                 [09] (-60)
57BA  02                 [10] (-60)
57BB  00                 [11] (-60)
57BC  00                 [12] (-60)
57BD  C0                 [13] (-60)
57BE  02                 [14] (-60)
57BF  00                 [15] (-60)
57C0  00                 [16] (-60)
57C1  C0                 [17] (-60)
57C2  02                 [18] (-60)
57C3  00                 [19] (-60)
57C4  00                 [20] (-60)
57C5  C1                 [21] (-60)
57C6  02                 [22] (-59)
57C7  00                 [23] (-56)
57C8  00                 [24] (-56)
57C9  C4                 [25] (-56)
57CA  02                 [26] (-56)
57CB  00                 [27] (-55)
57CC  00                 [28] (-55)
57CD  C4                 [29] (-55)
57CE  02                 [30] (-55)
57CF  00                 [31] (-55)
57D0  00                 [32] (-55)
57D1  C4                 [33] (-55)
57D2  02                 [34] (-55)
57D3  00                 [35] (-54)
57D4  00                 [36] (-54)
57D5  C4                 [37] (-54)
57D6  02                 [38] (-54)
57D7  00                 [39] (-53)
57D8  00                 [40] (-53)
57D9  C4                 [41] (-53)
57DA  02                 [42] (-54)
57DB  00                 [43] (-53)
57DC  00                 [44] (-51)
                         * locals:
5861  00                 sizelocvars (0)
                         * upvalues:
5862  00                 sizeupvalues (0)
                         ** end of function **

                         
5863                     ** function [16] definition (level 2)
                         ** start of function **
5863  00                 string size (0)
                         source name: (none)
5865  05                 line defined (719)
5866  E2                 last line defined (738)
5867  05                 nups (0)
5868  00                 numparams (1)
5869  01                 is_vararg (0)
586A  00                 maxstacksize (11)
                         * code:
586C  38                 sizecode (56)
586D  5D000000           [01] getglobal  1   0        ; gRegion
5871  6440C000           [02] self       1   1   257  ; -1520831144
5875  62800001           [03] call       1   2   2  
5879  58400000           [04] test       1       1    ; to [6] if false
587D  1A000080           [05] jmp        1            ; to [7]
5881  1E008000           [06] return     0   1      
5885  5D800000           [07] getglobal  1   2        ; _T
5889  4EC0C000           [08] gettable   1   1   259  ; "ExclusiveWeaponSlot"
fail op	35
588D  6300C100           [09] close      1  
5891  1A800280           [10] jmp        11           ; to [22]
5895  5D400100           [11] getglobal  1   5        ; 1074689893
5899  92000000           [12] move       2   0      
589D  62800001           [13] call       1   2   2  
58A1  58400000           [14] test       1       1    ; to [16] if false
58A5  1A400180           [15] jmp        6            ; to [22]
58A9  5D400100           [16] getglobal  1   5        ; 1074689893
58AD  A4804100           [17] self       2   0   262  ; -2135866365
58B1  A2000001           [18] call       2   2   0  
58B5  62800000           [19] call       1   0   2  
58B9  58000000           [20] test       1       0    ; to [22] if true
58BD  1A000080           [21] jmp        1            ; to [23]
58C1  1E008000           [22] return     0   1      
58C5  64804100           [23] self       1   0   262  ; -2135866365
58C9  62800001           [24] call       1   2   2  
58CD  64C0C100           [25] self       1   1   263  ; -1917464545
58D1  62800001           [26] call       1   2   2  
58D5  8B008001           [27] newtable   2   3   0    ; array=3, hash=0
58D9  DD000200           [28] getglobal  3   8        ; Engine
58DD  CE40C201           [29] gettable   3   3   265  ; "SLOT_1"
58E1  1D010200           [30] getglobal  4   8        ; Engine
58E5  0E814202           [31] gettable   4   4   266  ; "SLOT_2"
58E9  5D010200           [32] getglobal  5   8        ; Engine
58ED  4EC1C202           [33] gettable   5   5   267  ; "SLOT_6"
58F1  9B408001           [34] setlist    2   3   1    ; index 1 to 3
58F5  DD000300           [35] getglobal  3   12       ; 248503575
58F9  12010001           [36] move       4   2      
58FD  E2000101           [37] call       3   2   4  
5901  1A800380           [38] jmp        15           ; to [54]
5905  1D820000           [39] getglobal  8   2        ; _T
5909  0EC24004           [40] gettable   8   8   259  ; "ExclusiveWeaponSlot"
fail op	35
590D  63008203           [41] close      1  
5911  1A800280           [42] jmp        11           ; to [54]
5915  2442C300           [43] self       8   1   269  ; -1572901801
5919  92028003           [44] move       10  7      
591D  22428001           [45] call       8   3   1  
5921  1D020200           [46] getglobal  8   8        ; Engine
5925  0EC24204           [47] gettable   8   8   267  ; "SLOT_6"
fail op	35
5929  23008203           [48] close      0  
592D  1AC00080           [49] jmp        4            ; to [54]
5931  2482C300           [50] self       8   1   270  ; -1895507148
5935  9D020200           [51] getglobal  10  8        ; Engine
5939  8EC24305           [52] gettable   10  10  271  ; "SLOT_8"
593D  22428001           [53] call       8   3   1  
5941  D6800000           [54] tforloop   3       2    ; to [56] if exit
5945  1A80FB7F           [55] jmp        -17          ; to [39]
5949  1E008000           [56] return     0   1      
                         * constants:
594D  10                 sizek (16)
594E  04                 const type 4
594F  08                 string size (8)
5950  67526567696F6E00   "gRegion\0"
                         const [0]: "gRegion"
5958  01                 const type 3
5959  58F559A5           const [1]: (-1520831144)
595D  04                 const type 4
595E  03                 string size (3)
595F  5F5400             "_T\0"
                         const [2]: "_T"
5962  04                 const type 4
5963  14                 string size (20)
5964  4578636C75736976+  "Exclusiv"
596C  65576561706F6E53+  "eWeaponS"
5974  6C6F7400           "lot\0"
                         const [3]: "ExclusiveWeaponSlot"
5978  00                 const type 0
                         const [4]: nil
5979  01                 const type 3
597A  65770E40           const [5]: (1074689893)
597E  01                 const type 3
597F  0344B180           const [6]: (-2135866365)
5983  01                 const type 3
5984  1FD0B58D           const [7]: (-1917464545)
5988  04                 const type 4
5989  07                 string size (7)
598A  456E67696E6500     "Engine\0"
                         const [8]: "Engine"
5991  04                 const type 4
5992  07                 string size (7)
5993  534C4F545F3100     "SLOT_1\0"
                         const [9]: "SLOT_1"
599A  04                 const type 4
599B  07                 string size (7)
599C  534C4F545F3200     "SLOT_2\0"
                         const [10]: "SLOT_2"
59A3  04                 const type 4
59A4  07                 string size (7)
59A5  534C4F545F3600     "SLOT_6\0"
                         const [11]: "SLOT_6"
59AC  01                 const type 3
59AD  17DDCF0E           const [12]: (248503575)
59B1  01                 const type 3
59B2  576C3FA2           const [13]: (-1572901801)
59B6  01                 const type 3
59B7  34DB048F           const [14]: (-1895507148)
59BB  04                 const type 4
59BC  07                 string size (7)
59BD  534C4F545F3800     "SLOT_8\0"
                         const [15]: "SLOT_8"
                         * functions:
59C4  00                 sizep (0)
                         * lines:
59C5  38                 sizelineinfo (56)
                         [pc] (line)
59C6  D0                 [01] (-48)
59C7  02                 [02] (-48)
59C8  00                 [03] (-48)
59C9  00                 [04] (-48)
59CA  D0                 [05] (-48)
59CB  02                 [06] (-47)
59CC  00                 [07] (-44)
59CD  00                 [08] (-44)
59CE  D0                 [09] (-44)
59CF  02                 [10] (-44)
59D0  00                 [11] (-44)
59D1  00                 [12] (-44)
59D2  D0                 [13] (-44)
59D3  02                 [14] (-44)
59D4  00                 [15] (-44)
59D5  00                 [16] (-44)
59D6  D0                 [17] (-44)
59D7  02                 [18] (-44)
59D8  00                 [19] (-44)
59D9  00                 [20] (-44)
59DA  D1                 [21] (-44)
59DB  02                 [22] (-43)
59DC  00                 [23] (-40)
59DD  00                 [24] (-40)
59DE  D4                 [25] (-40)
59DF  02                 [26] (-40)
59E0  00                 [27] (-39)
59E1  00                 [28] (-39)
59E2  D4                 [29] (-39)
59E3  02                 [30] (-39)
59E4  00                 [31] (-39)
59E5  00                 [32] (-39)
59E6  D4                 [33] (-39)
59E7  02                 [34] (-39)
59E8  00                 [35] (-38)
59E9  00                 [36] (-38)
59EA  D4                 [37] (-38)
59EB  02                 [38] (-38)
59EC  00                 [39] (-37)
59ED  00                 [40] (-37)
59EE  D4                 [41] (-37)
59EF  02                 [42] (-37)
59F0  00                 [43] (-36)
59F1  00                 [44] (-36)
59F2  D4                 [45] (-36)
59F3  02                 [46] (-35)
59F4  00                 [47] (-35)
59F5  00                 [48] (-35)
59F6  D4                 [49] (-35)
59F7  02                 [50] (-34)
59F8  00                 [51] (-34)
59F9  00                 [52] (-34)
59FA  D4                 [53] (-34)
59FB  02                 [54] (-38)
59FC  00                 [55] (-32)
59FD  00                 [56] (-30)
                         * locals:
5AA6  00                 sizelocvars (0)
                         * upvalues:
5AA7  00                 sizeupvalues (0)
                         ** end of function **

                         
5AA8                     ** function [17] definition (level 2)
                         ** start of function **
5AA8  00                 string size (0)
                         source name: (none)
5AAA  05                 line defined (740)
5AAB  EC                 last line defined (748)
5AAC  05                 nups (1)
5AAD  01                 numparams (2)
5AAE  02                 is_vararg (0)
5AAF  00                 maxstacksize (3)
                         * code:
5AB1  0E                 sizecode (14)
5AB2  9D000000           [01] getglobal  2   0        ; _T
5AB6  8E404001           [02] gettable   2   2   257  ; "IsEliteAlert"
5ABA  98000000           [03] test       2       0    ; to [5] if true
5ABE  1A400080           [04] jmp        2            ; to [7]
5AC2  9D000000           [05] getglobal  2   0        ; _T
5AC6  8C400081           [06] settable   2   258 1    ; "EliteAlertPlayerAvatarChanged"
5ACA  93000000           [07] getupval   2   0      
5ACE  8EC04001           [08] gettable   2   2   259  ; -1467086624
5AD2  A2808000           [09] call       2   1   2  
5AD6  98000000           [10] test       2       0    ; to [12] if true
5ADA  1A400080           [11] jmp        2            ; to [14]
5ADE  9D000000           [12] getglobal  2   0        ; _T
5AE2  8C404182           [13] settable   2   260 261  ; "stripModsFromPlayer" 1
5AE6  1E008000           [14] return     0   1      
                         * constants:
5AEA  06                 sizek (6)
5AEB  04                 const type 4
5AEC  03                 string size (3)
5AED  5F5400             "_T\0"
                         const [0]: "_T"
5AF0  04                 const type 4
5AF1  0D                 string size (13)
5AF2  4973456C69746541+  "IsEliteA"
5AFA  6C65727400         "lert\0"
                         const [1]: "IsEliteAlert"
5AFF  04                 const type 4
5B00  1E                 string size (30)
5B01  456C697465416C65+  "EliteAle"
5B09  7274506C61796572+  "rtPlayer"
5B11  4176617461724368+  "AvatarCh"
5B19  616E67656400       "anged\0"
                         const [2]: "EliteAlertPlayerAvatarChanged"
5B1F  01                 const type 3
5B20  E0088EA8           const [3]: (-1467086624)
5B24  04                 const type 4
5B25  14                 string size (20)
5B26  73747269704D6F64+  "stripMod"
5B2E  7346726F6D506C61+  "sFromPla"
5B36  79657200           "yer\0"
                         const [4]: "stripModsFromPlayer"
5B3A  01                 const type 3
5B3B  01000000           const [5]: (1)
                         * functions:
5B3F  00                 sizep (0)
                         * lines:
5B40  0E                 sizelineinfo (14)
                         [pc] (line)
5B41  E5                 [01] (-27)
5B42  02                 [02] (-27)
5B43  00                 [03] (-27)
5B44  00                 [04] (-27)
5B45  E5                 [05] (-26)
5B46  02                 [06] (-26)
5B47  00                 [07] (-23)
5B48  00                 [08] (-23)
5B49  E5                 [09] (-23)
5B4A  02                 [10] (-23)
5B4B  00                 [11] (-23)
5B4C  00                 [12] (-22)
5B4D  E5                 [13] (-22)
5B4E  02                 [14] (-20)
                         * locals:
5B79  00                 sizelocvars (0)
                         * upvalues:
5B7A  00                 sizeupvalues (0)
                         ** end of function **

                         
5B7B                     ** function [18] definition (level 2)
                         ** start of function **
5B7B  00                 string size (0)
                         source name: (none)
5B7D  05                 line defined (753)
5B7E  F4                 last line defined (884)
5B7F  06                 nups (3)
5B80  03                 numparams (2)
5B81  02                 is_vararg (0)
5B82  00                 maxstacksize (36)
                         * code:
5B85  02                 sizecode (344)
5B86  A4004000           [001] self       2   0   256  ; -317790213
5B8A  13010000           [002] getupval   4   0      
5B8E  59410000           [003] loadk      5   1        ; 0
5B92  A2800002           [004] call       2   4   2  
5B96  DD800000           [005] getglobal  3   2        ; Lotus_Game
5B9A  CEC0C001           [006] gettable   3   3   259  ; "FC_GRINEER"
fail op	35
5B9E  23C00001           [007] close      0  
5BA2  1A000180           [008] jmp        5            ; to [14]
5BA6  E400C100           [009] self       3   1   260  ; -2135866365
5BAA  E2800001           [010] call       3   2   2  
5BAE  E440C101           [011] self       3   3   261  ; 1701569421
5BB2  57018000           [012] loadbool   5   1   0    ; true
5BB6  E2408001           [013] call       3   3   1  
5BBA  DD800100           [014] getglobal  3   6        ; gGameRules
5BBE  E4C0C101           [015] self       3   3   263  ; -1201441975
5BC2  E2800001           [016] call       3   2   2  
5BC6  1D010200           [017] getglobal  4   8        ; 1074689893
5BCA  4E41C201           [018] gettable   5   3   265  ; "exclusiveWeapon"
5BCE  22810001           [019] call       4   2   2  
5BD2  18410000           [020] test       4       1    ; to [22] if false
5BD6  1AC00380           [021] jmp        16           ; to [38]
5BDA  1D010200           [022] getglobal  4   8        ; 1074689893
5BDE  6401C100           [023] self       5   1   260  ; -2135866365
5BE2  62010001           [024] call       5   2   0  
5BE6  22810000           [025] call       4   0   2  
5BEA  18010000           [026] test       4       0    ; to [28] if true
5BEE  1AC00080           [027] jmp        4            ; to [32]
5BF2  1D810200           [028] getglobal  4   10       ; 538022378
5BF6  59C10200           [029] loadk      5   11       ; 0
5BFA  22410001           [030] call       4   2   1  
5BFE  1A40FD7F           [031] jmp        -10          ; to [22]
5C02  13018000           [032] getupval   4   1      
5C06  0E014302           [033] gettable   4   4   268  ; 2002992533
5C0A  6401C100           [034] self       5   1   260  ; -2135866365
5C0E  62810001           [035] call       5   2   2  
5C12  8E41C201           [036] gettable   6   3   265  ; "exclusiveWeapon"
5C16  22418001           [037] call       4   3   1  
5C1A  13018000           [038] getupval   4   1      
5C1E  0E414302           [039] gettable   4   4   269  ; -1467086624
5C22  22818000           [040] call       4   1   2  
5C26  18010000           [041] test       4       0    ; to [43] if true
5C2A  1AC00980           [042] jmp        40           ; to [83]
5C2E  1D010200           [043] getglobal  4   8        ; 1074689893
5C32  6401C100           [044] self       5   1   260  ; -2135866365
5C36  62010001           [045] call       5   2   0  
5C3A  22810000           [046] call       4   0   2  
5C3E  18010000           [047] test       4       0    ; to [49] if true
5C42  1AC00080           [048] jmp        4            ; to [53]
5C46  1D810200           [049] getglobal  4   10       ; 538022378
5C4A  59C10200           [050] loadk      5   11       ; 0
5C4E  22410001           [051] call       4   2   1  
5C52  1A40FD7F           [052] jmp        -10          ; to [43]
5C56  13018000           [053] getupval   4   1      
5C5A  0E814302           [054] gettable   4   4   270  ; -777819256
5C5E  6401C100           [055] self       5   1   260  ; -2135866365
5C62  62010001           [056] call       5   2   0  
5C66  22410000           [057] call       4   0   1  
5C6A  1D010200           [058] getglobal  4   8        ; 1074689893
5C6E  5DC10300           [059] getglobal  5   15       ; _T
5C72  4E01C402           [060] gettable   5   5   272  ; "noModsImpactMessage"
5C76  22810001           [061] call       4   2   2  
5C7A  18010000           [062] test       4       0    ; to [64] if true
5C7E  1A800080           [063] jmp        3            ; to [67]
5C82  1DC10300           [064] getglobal  4   15       ; _T
5C86  4B010000           [065] newtable   5   0   0    ; array=0, hash=0
5C8A  0C410188           [066] settable   4   272 5    ; "noModsImpactMessage"
5C8E  2441C400           [067] self       4   1   273  ; 1808941484
5C92  22810001           [068] call       4   2   2  
5C96  5D010200           [069] getglobal  5   8        ; 1074689893
5C9A  9DC10300           [070] getglobal  6   15       ; _T
5C9E  8E014403           [071] gettable   6   6   272  ; "noModsImpactMessage"
5CA2  E441C400           [072] self       7   1   273  ; 1808941484
5CA6  E2810001           [073] call       7   2   2  
5CAA  8EC10103           [074] gettable   6   6   7  
5CAE  62810001           [075] call       5   2   2  
5CB2  58010000           [076] test       5       0    ; to [78] if true
5CB6  1A000180           [077] jmp        5            ; to [83]
5CBA  5DC10300           [078] getglobal  5   15       ; _T
5CBE  4E01C402           [079] gettable   5   5   272  ; "noModsImpactMessage"
5CC2  A441C400           [080] self       6   1   273  ; 1808941484
5CC6  A2810001           [081] call       6   2   2  
5CCA  4C814403           [082] settable   5   6   274  ; 1
5CCE  64C1C400           [083] self       5   1   275  ; 51109503
5CD2  62810001           [084] call       5   2   2  
5CD6  9D010200           [085] getglobal  6   8        ; 1074689893
5CDA  D2018002           [086] move       7   5      
5CDE  A2810001           [087] call       6   2   2  
5CE2  98410000           [088] test       6       1    ; to [90] if false
5CE6  1AC01480           [089] jmp        84           ; to [174]
5CEA  8E01C502           [090] gettable   6   5   276  ; "mIsPartnerParticipatingInTwitchPromo"
5CEE  98010000           [091] test       6       0    ; to [93] if true
5CF2  1A001480           [092] jmp        81           ; to [174]
5CF6  9D410500           [093] getglobal  6   21       ; gPlayerProfileMgr
5CFA  A4814503           [094] self       6   6   278  ; 569342746
5CFE  19C20200           [095] loadk      8   11       ; 0
5D02  A2818001           [096] call       6   3   2  
5D06  DD010200           [097] getglobal  7   8        ; 1074689893
5D0A  12020003           [098] move       8   6      
5D0E  E2810001           [099] call       7   2   2  
5D12  D8010000           [100] test       7       0    ; to [102] if true
5D16  1A000080           [101] jmp        1            ; to [103]
5D1A  1E008000           [102] return     0   1      
5D1E  E4C14503           [103] self       7   6   279  ; 1699680402
5D22  E2810001           [104] call       7   2   2  
5D26  1D020200           [105] getglobal  8   8        ; 1074689893
5D2A  52028003           [106] move       9   7      
5D2E  22820001           [107] call       8   2   2  
5D32  18020000           [108] test       8       0    ; to [110] if true
5D36  1A000080           [109] jmp        1            ; to [111]
5D3A  1E008000           [110] return     0   1      
5D3E  1DC20300           [111] getglobal  8   15       ; _T
5D42  0C82448C           [112] settable   8   280 274  ; "TwitchMarkedEnemyActive" 1
5D46  1DC20300           [113] getglobal  8   15       ; _T
5D4A  5D820600           [114] getglobal  9   26       ; gGameConfig
5D4E  64C2C604           [115] self       9   9   283  ; 2111902396
5D52  62820001           [116] call       9   2   2  
5D56  0C42828C           [117] settable   8   281 9    ; "TwitchMarkedEnemyInfo"
5D5A  1DC20300           [118] getglobal  8   15       ; _T
5D5E  0C42008E           [119] settable   8   284 1    ; "PartnerPlayer"
5D62  2442C703           [120] self       8   7   285  ; 755731078
5D66  22820001           [121] call       8   2   2  
5D6A  24824704           [122] self       8   8   286  ; -653657020
5D6E  22820001           [123] call       8   2   2  
fail op	35
5D72  63C04704           [124] close      1  
5D76  1AC00B80           [125] jmp        48           ; to [174]
5D7A  5DC20300           [126] getglobal  9   15       ; _T
5D7E  4E42C604           [127] gettable   9   9   281  ; "TwitchMarkedEnemyInfo"
5D82  8E424804           [128] gettable   10  8   289  ; "mSpawnChance"
5D86  4C820290           [129] settable   9   288 10   ; "spawnChance"
5D8A  5DC20300           [130] getglobal  9   15       ; _T
5D8E  4E42C604           [131] gettable   9   9   281  ; "TwitchMarkedEnemyInfo"
5D92  8EC24804           [132] gettable   10  8   291  ; "mCooldown"
5D96  4C820291           [133] settable   9   290 10   ; "coolDown"
5D9A  4E024904           [134] gettable   9   8   292  ; "mAgentTypes"
5D9E  4A028004           [135] len        9   9      
fail op	21
5DA2  15408285           [136] concat     0   267 9  
5DA6  1A400580           [137] jmp        22           ; to [160]
5DAA  5DC20300           [138] getglobal  9   15       ; _T
5DAE  4E42C604           [139] gettable   9   9   281  ; "TwitchMarkedEnemyInfo"
5DB2  8B020000           [140] newtable   10  0   0    ; array=0, hash=0
5DB6  4C828292           [141] settable   9   293 10   ; "acceptedAgentTypes"
5DBA  4B020000           [142] newtable   9   0   0    ; array=0, hash=0
5DBE  9D820900           [143] getglobal  10  38       ; 248503575
5DC2  CE024904           [144] gettable   11  8   292  ; "mAgentTypes"
5DC6  A2020101           [145] call       10  2   4  
5DCA  1AC00180           [146] jmp        8            ; to [155]
5DCE  DDC30900           [147] getglobal  15  39       ; 738251817
5DD2  12040007           [148] move       16  14     
5DD6  E2830001           [149] call       15  2   2  
5DDA  1D040A00           [150] getglobal  16  40       ; table
5DDE  0E444A08           [151] gettable   16  16  297  ; -431682403
5DE2  52048004           [152] move       17  9      
5DE6  92048007           [153] move       18  15     
5DEA  22448001           [154] call       16  3   1  
5DEE  96820000           [155] tforloop   10      2    ; to [157] if exit
5DF2  1A40FD7F           [156] jmp        -10          ; to [147]
5DF6  1DC40300           [157] getglobal  16  15       ; _T
5DFA  0E444608           [158] gettable   16  16  281  ; "TwitchMarkedEnemyInfo"
5DFE  0C448292           [159] settable   16  293 9    ; "acceptedAgentTypes"
5E02  1D040200           [160] getglobal  16  8        ; 1074689893
5E06  5DC40300           [161] getglobal  17  15       ; _T
5E0A  4E84CA08           [162] gettable   17  17  298  ; "TwitchMarkedEnemy"
5E0E  22840001           [163] call       16  2   2  
5E12  18440000           [164] test       16      1    ; to [166] if false
5E16  1AC00180           [165] jmp        8            ; to [174]
5E1A  1DC40300           [166] getglobal  16  15       ; _T
5E1E  0E844A08           [167] gettable   16  16  298  ; "TwitchMarkedEnemy"
5E22  24C44A08           [168] self       16  16  299  ; -1544157541
5E26  22840001           [169] call       16  2   2  
5E2A  24044B08           [170] self       16  16  300  ; -993749122
5E2E  A404C100           [171] self       18  1   260  ; -2135866365
5E32  A2040001           [172] call       18  2   0  
5E36  22440000           [173] call       16  0   1  
5E3A  1DC40300           [174] getglobal  16  15       ; _T
5E3E  0E444B08           [175] gettable   16  16  301  ; "IsEliteAlert"
5E42  18040000           [176] test       16      0    ; to [178] if true
5E46  1A401480           [177] jmp        82           ; to [260]
5E4A  1D040200           [178] getglobal  16  8        ; 1074689893
5E4E  5DC40300           [179] getglobal  17  15       ; _T
5E52  4E84CB08           [180] gettable   17  17  302  ; "EliteAlertPlayerSpawned"
5E56  22840001           [181] call       16  2   2  
5E5A  18040000           [182] test       16      0    ; to [184] if true
5E5E  1A800080           [183] jmp        3            ; to [187]
5E62  1DC40300           [184] getglobal  16  15       ; _T
5E66  4B040000           [185] newtable   17  0   0    ; array=0, hash=0
5E6A  0C440497           [186] settable   16  302 17   ; "EliteAlertPlayerSpawned"
5E6E  1D040A00           [187] getglobal  16  40       ; table
5E72  0E444A08           [188] gettable   16  16  297  ; -431682403
5E76  5DC40300           [189] getglobal  17  15       ; _T
5E7A  4E84CB08           [190] gettable   17  17  302  ; "EliteAlertPlayerSpawned"
5E7E  92048000           [191] move       18  1      
5E82  22448001           [192] call       16  3   1  
5E86  1DC40B00           [193] getglobal  16  47       ; -332969190
5E8A  59040C00           [194] loadk      17  48       ; "EliteAlertCycle"
5E8E  22840001           [195] call       16  2   2  
5E92  5D840100           [196] getglobal  17  6        ; gGameRules
5E96  6404C008           [197] self       17  17  256  ; -317790213
5E9A  D2040008           [198] move       19  16     
5E9E  19C50200           [199] loadk      20  11       ; 0
5EA2  62840002           [200] call       17  4   2  
fail op	35
5EA6  23C0C208           [201] close      0  
5EAA  1A000080           [202] jmp        1            ; to [204]
5EAE  46048008           [203] loadnil    17  17     
5EB2  93048000           [204] getupval   18  1      
5EB6  8E444C09           [205] gettable   18  18  305  ; -1121322969
5EBA  E484CC00           [206] self       19  1   306  ; 340404473
5EBE  E2840001           [207] call       19  2   2  
5EC2  1D850100           [208] getglobal  20  6        ; gGameRules
5EC6  24C5410A           [209] self       20  20  263  ; -1201441975
5ECA  22850001           [210] call       20  2   2  
5ECE  52058008           [211] move       21  17     
5ED2  A2840202           [212] call       18  4   10 
5ED6  E406C100           [213] self       27  1   260  ; -2135866365
5EDA  E2860001           [214] call       27  2   2  
5EDE  E4C6CC0D           [215] self       27  27  307  ; -1917464545
5EE2  E2860001           [216] call       27  2   2  
5EE6  1D070200           [217] getglobal  28  8        ; 1074689893
5EEA  5207000A           [218] move       29  20     
5EEE  22870001           [219] call       28  2   2  
5EF2  18470000           [220] test       28      1    ; to [222] if false
5EF6  1A800280           [221] jmp        11           ; to [233]
5EFA  2407CD0D           [222] self       28  27  308  ; 991629753
5EFE  8E47CD0A           [223] gettable   30  21  309  ; "value"
5F02  DD870D00           [224] getglobal  31  54       ; Game
5F06  CEC7CD0F           [225] gettable   31  31  311  ; "STACKING_MULTIPLY"
5F0A  19080E00           [226] loadk      32  56       ; 0
5F0E  5208000A           [227] move       33  20     
5F12  86080011           [228] loadnil    34  34     
5F16  DD480E00           [229] getglobal  35  57       ; Engine
5F1A  CE88CE11           [230] gettable   35  35  314  ; "DT_ANY"
5F1E  22470004           [231] call       28  8   1  
5F22  1A400280           [232] jmp        10           ; to [243]
5F26  2407CD0D           [233] self       28  27  308  ; 991629753
5F2A  8E47CD0A           [234] gettable   30  21  309  ; "value"
5F2E  DD870D00           [235] getglobal  31  54       ; Game
5F32  CEC7CD0F           [236] gettable   31  31  311  ; "STACKING_MULTIPLY"
5F36  19080E00           [237] loadk      32  56       ; 0
5F3A  52088009           [238] move       33  19     
5F3E  86080011           [239] loadnil    34  34     
5F42  DD480E00           [240] getglobal  35  57       ; Engine
5F46  CE88CE11           [241] gettable   35  35  314  ; "DT_ANY"
5F4A  22470004           [242] call       28  8   1  
5F4E  2407CD0D           [243] self       28  27  308  ; 991629753
5F52  8E47CD0C           [244] gettable   30  25  309  ; "value"
5F56  DD870D00           [245] getglobal  31  54       ; Game
5F5A  CEC7CD0F           [246] gettable   31  31  311  ; "STACKING_MULTIPLY"
5F5E  19080E00           [247] loadk      32  56       ; 0
5F62  5208800B           [248] move       33  23     
5F66  86080011           [249] loadnil    34  34     
5F6A  DD480E00           [250] getglobal  35  57       ; Engine
5F6E  CE88CE11           [251] gettable   35  35  314  ; "DT_ANY"
5F72  22470004           [252] call       28  8   1  
fail op	35
5F76  23C0C708           [253] close      0  
5F7A  1A000180           [254] jmp        5            ; to [260]
5F7E  1D870100           [255] getglobal  28  6        ; gGameRules
5F82  24C74E0E           [256] self       28  28  315  ; -803877924
5F86  92070008           [257] move       30  16     
5F8A  D207000D           [258] move       31  26     
5F8E  22470002           [259] call       28  4   1  
5F92  1D070200           [260] getglobal  28  8        ; 1074689893
5F96  5D070F00           [261] getglobal  29  60       ; gGameData
5F9A  22870001           [262] call       28  2   2  
5F9E  18470000           [263] test       28      1    ; to [265] if false
5FA2  1A801380           [264] jmp        79           ; to [344]
5FA6  1D070F00           [265] getglobal  28  60       ; gGameData
5FAA  2447470E           [266] self       28  28  285  ; 755731078
5FAE  22870001           [267] call       28  2   2  
5FB2  0E474F0E           [268] gettable   28  28  317  ; "mSeasonInfo"
5FB6  5D870100           [269] getglobal  29  6        ; gGameRules
5FBA  64C7C10E           [270] self       29  29  263  ; -1201441975
5FBE  62870001           [271] call       29  2   2  
5FC2  8E874F0E           [272] gettable   30  28  318  ; "mSeason"
fail op	35
5FC6  23C04F0F           [273] close      0  
5FCA  1A001180           [274] jmp        69           ; to [344]
5FCE  8E07500E           [275] gettable   30  28  320  ; "mPhase"
fail op	33
5FD2  2140500F           [276] tforloop   0       321  ; to [278] if exit
5FD6  1A401080           [277] jmp        66           ; to [344]
5FDA  8E87D00E           [278] gettable   30  29  322  ; "archwingRequired"
5FDE  98470000           [279] test       30      1    ; to [281] if false
5FE2  1A800F80           [280] jmp        63           ; to [344]
5FE6  8EC7D00E           [281] gettable   30  29  323  ; "isSharkwingMission"
5FEA  98470000           [282] test       30      1    ; to [284] if false
5FEE  1AC00E80           [283] jmp        60           ; to [344]
5FF2  9DC70300           [284] getglobal  30  15       ; _T
5FF6  8E07510F           [285] gettable   30  30  324  ; "gQuestMission"
5FFA  98470000           [286] test       30      1    ; to [288] if false
5FFE  1AC00D80           [287] jmp        56           ; to [344]
6002  9D070200           [288] getglobal  30  8        ; 1074689893
6006  CE47D10E           [289] gettable   31  29  325  ; "keyChainName"
600A  A2870001           [290] call       30  2   2  
600E  98470000           [291] test       30      1    ; to [293] if false
6012  1A000180           [292] jmp        5            ; to [298]
6016  8E87D10E           [293] gettable   30  29  326  ; "missionType"
601A  DD870000           [294] getglobal  31  2        ; Lotus_Game
601E  CEC7D10F           [295] gettable   31  31  327  ; "MT_GENERIC"
fail op	35
6022  63C0070F           [296] close      1  
6026  1A400B80           [297] jmp        46           ; to [344]
602A  8E87D10E           [298] gettable   30  29  326  ; "missionType"
602E  DD870000           [299] getglobal  31  2        ; Lotus_Game
6032  CE07D20F           [300] gettable   31  31  328  ; "MT_MASTERY"
fail op	35
6036  63C0070F           [301] close      1  
603A  1A000A80           [302] jmp        41           ; to [344]
603E  9DC70300           [303] getglobal  30  15       ; _T
6042  8E47520F           [304] gettable   30  30  329  ; "SecretMiniGameActive"
6046  98470000           [305] test       30      1    ; to [307] if false
604A  1A000980           [306] jmp        37           ; to [344]
604E  9D871200           [307] getglobal  30  74       ; gRegion
6052  A4C7520F           [308] self       30  30  331  ; -2071158816
6056  A2870001           [309] call       30  2   2  
605A  D3070001           [310] getupval   31  2      
605E  CE07D30F           [311] gettable   31  31  332  ; 762906652
6062  19481300           [312] loadk      32  77       ; "hsr"
6066  59881300           [313] loadk      33  78       ; -51
606A  E2878001           [314] call       31  3   2  
606E  1DC81300           [315] getglobal  32  79       ; -1941280958
6072  59C80200           [316] loadk      33  11       ; 0
6076  99481000           [317] loadk      34  65       ; 0
607A  22888001           [318] call       32  3   2  
fail op	21
607E  15C00710           [319] concat     0   32  31 
6082  1A800580           [320] jmp        23           ; to [344]
6086  1D080200           [321] getglobal  32  8        ; 1074689893
608A  5DC80300           [322] getglobal  33  15       ; _T
608E  4E08D410           [323] gettable   33  33  336  ; "SpawnDevotedHealer"
6092  22880001           [324] call       32  2   2  
6096  18080000           [325] test       32      0    ; to [327] if true
609A  1A800080           [326] jmp        3            ; to [330]
609E  1DC80300           [327] getglobal  32  15       ; _T
60A2  4B080000           [328] newtable   33  0   0    ; array=0, hash=0
60A6  0C4808A8           [329] settable   32  336 33   ; "SpawnDevotedHealer"
60AA  1D080A00           [330] getglobal  32  40       ; table
60AE  0E484A10           [331] gettable   32  32  297  ; -431682403
60B2  5DC80300           [332] getglobal  33  15       ; _T
60B6  4E08D410           [333] gettable   33  33  336  ; "SpawnDevotedHealer"
60BA  A408C100           [334] self       34  1   260  ; -2135866365
60BE  A2080001           [335] call       34  2   0  
60C2  22480000           [336] call       32  0   1  
60C6  2408C100           [337] self       32  1   260  ; -2135866365
60CA  22880001           [338] call       32  2   2  
60CE  24C84A10           [339] self       32  32  299  ; -1544157541
60D2  22880001           [340] call       32  2   2  
60D6  24485410           [341] self       32  32  337  ; -176073220
60DA  97088000           [342] loadbool   34  1   0    ; true
60DE  22488001           [343] call       32  3   1  
60E2  1E008000           [344] return     0   1      
                         * constants:
60E6  52                 sizek (82)
60E7  01                 const type 3
60E8  FBE70EED           const [0]: (-317790213)
60EC  03                 const type 3
60ED  00C07944           const [1]: (0)
60F1  04                 const type 4
60F2  0B                 string size (11)
60F3  4C6F7475735F4761+  "Lotus_Ga"
60FB  6D6500             "me\0"
                         const [2]: "Lotus_Game"
60FE  04                 const type 4
60FF  0B                 string size (11)
6100  46435F4752494E45+  "FC_GRINE"
6108  455200             "ER\0"
                         const [3]: "FC_GRINEER"
610B  01                 const type 3
610C  0344B180           const [4]: (-2135866365)
6110  01                 const type 3
6111  8DE36B65           const [5]: (1701569421)
6115  04                 const type 4
6116  0B                 string size (11)
6117  6747616D6552756C+  "gGameRul"
611F  657300             "es\0"
                         const [6]: "gGameRules"
6122  01                 const type 3
6123  497363B8           const [7]: (-1201441975)
6127  01                 const type 3
6128  65770E40           const [8]: (1074689893)
612C  04                 const type 4
612D  10                 string size (16)
612E  6578636C75736976+  "exclusiv"
6136  65576561706F6E00   "eWeapon\0"
                         const [9]: "exclusiveWeapon"
613E  01                 const type 3
613F  EA911120           const [10]: (538022378)
6143  03                 const type 3
6144  00000000           const [11]: (0)
6148  01                 const type 3
6149  953D6377           const [12]: (2002992533)
614D  01                 const type 3
614E  E0088EA8           const [13]: (-1467086624)
6152  01                 const type 3
6153  886BA3D1           const [14]: (-777819256)
6157  04                 const type 4
6158  03                 string size (3)
6159  5F5400             "_T\0"
                         const [15]: "_T"
615C  04                 const type 4
615D  14                 string size (20)
615E  6E6F4D6F6473496D+  "noModsIm"
6166  706163744D657373+  "pactMess"
616E  61676500           "age\0"
                         const [16]: "noModsImpactMessage"
6172  01                 const type 3
6173  AC41D26B           const [17]: (1808941484)
6177  01                 const type 3
6178  01000000           const [18]: (1)
617C  01                 const type 3
617D  7FDE0B03           const [19]: (51109503)
6181  04                 const type 4
6182  25                 string size (37)
6183  6D4973506172746E+  "mIsPartn"
618B  6572506172746963+  "erPartic"
6193  69706174696E6749+  "ipatingI"
619B  6E54776974636850+  "nTwitchP"
61A3  726F6D6F00         "romo\0"
                         const [20]: "mIsPartnerParticipatingInTwitchPromo"
61A8  04                 const type 4
61A9  12                 string size (18)
61AA  67506C6179657250+  "gPlayerP"
61B2  726F66696C654D67+  "rofileMg"
61BA  7200               "r\0"
                         const [21]: "gPlayerProfileMgr"
61BC  01                 const type 3
61BD  1A7BEF21           const [22]: (569342746)
61C1  01                 const type 3
61C2  92104F65           const [23]: (1699680402)
61C6  04                 const type 4
61C7  18                 string size (24)
61C8  5477697463684D61+  "TwitchMa"
61D0  726B6564456E656D+  "rkedEnem"
61D8  7941637469766500   "yActive\0"
                         const [24]: "TwitchMarkedEnemyActive"
61E0  04                 const type 4
61E1  16                 string size (22)
61E2  5477697463684D61+  "TwitchMa"
61EA  726B6564456E656D+  "rkedEnem"
61F2  79496E666F00       "yInfo\0"
                         const [25]: "TwitchMarkedEnemyInfo"
61F8  04                 const type 4
61F9  0C                 string size (12)
61FA  6747616D65436F6E+  "gGameCon"
6202  66696700           "fig\0"
                         const [26]: "gGameConfig"
6206  01                 const type 3
6207  BC12E17D           const [27]: (2111902396)
620B  04                 const type 4
620C  0E                 string size (14)
620D  506172746E657250+  "PartnerP"
6215  6C6179657200       "layer\0"
                         const [28]: "PartnerPlayer"
621B  01                 const type 3
621C  868A0B2D           const [29]: (755731078)
6220  01                 const type 3
6221  44FC09D9           const [30]: (-653657020)
6225  00                 const type 0
                         const [31]: nil
6226  04                 const type 4
6227  0C                 string size (12)
6228  737061776E436861+  "spawnCha"
6230  6E636500           "nce\0"
                         const [32]: "spawnChance"
6234  04                 const type 4
6235  0D                 string size (13)
6236  6D537061776E4368+  "mSpawnCh"
623E  616E636500         "ance\0"
                         const [33]: "mSpawnChance"
6243  04                 const type 4
6244  09                 string size (9)
6245  636F6F6C446F776E+  "coolDown"
624D  00                 "\0"
                         const [34]: "coolDown"
624E  04                 const type 4
624F  0A                 string size (10)
6250  6D436F6F6C646F77+  "mCooldow"
6258  6E00               "n\0"
                         const [35]: "mCooldown"
625A  04                 const type 4
625B  0C                 string size (12)
625C  6D4167656E745479+  "mAgentTy"
6264  70657300           "pes\0"
                         const [36]: "mAgentTypes"
6268  04                 const type 4
6269  13                 string size (19)
626A  6163636570746564+  "accepted"
6272  4167656E74547970+  "AgentTyp"
627A  657300             "es\0"
                         const [37]: "acceptedAgentTypes"
627D  01                 const type 3
627E  17DDCF0E           const [38]: (248503575)
6282  01                 const type 3
6283  29D4002C           const [39]: (738251817)
6287  04                 const type 4
6288  06                 string size (6)
6289  7461626C6500       "table\0"
                         const [40]: "table"
628F  01                 const type 3
6290  9D0C45E6           const [41]: (-431682403)
6294  04                 const type 4
6295  12                 string size (18)
6296  5477697463684D61+  "TwitchMa"
629E  726B6564456E656D+  "rkedEnem"
62A6  7900               "y\0"
                         const [42]: "TwitchMarkedEnemy"
62A8  01                 const type 3
62A9  9B06F6A3           const [43]: (-1544157541)
62AD  01                 const type 3
62AE  7E97C4C4           const [44]: (-993749122)
62B2  04                 const type 4
62B3  0D                 string size (13)
62B4  4973456C69746541+  "IsEliteA"
62BC  6C65727400         "lert\0"
                         const [45]: "IsEliteAlert"
62C1  04                 const type 4
62C2  18                 string size (24)
62C3  456C697465416C65+  "EliteAle"
62CB  7274506C61796572+  "rtPlayer"
62D3  537061776E656400   "Spawned\0"
                         const [46]: "EliteAlertPlayerSpawned"
62DB  01                 const type 3
62DC  1A4B27EC           const [47]: (-332969190)
62E0  04                 const type 4
62E1  10                 string size (16)
62E2  456C697465416C65+  "EliteAle"
62EA  72744379636C6500   "rtCycle\0"
                         const [48]: "EliteAlertCycle"
62F2  01                 const type 3
62F3  27F829BD           const [49]: (-1121322969)
62F7  01                 const type 3
62F8  F9284A14           const [50]: (340404473)
62FC  01                 const type 3
62FD  1FD0B58D           const [51]: (-1917464545)
6301  01                 const type 3
6302  B9111B3B           const [52]: (991629753)
6306  04                 const type 4
6307  06                 string size (6)
6308  76616C756500       "value\0"
                         const [53]: "value"
630E  04                 const type 4
630F  05                 string size (5)
6310  47616D6500         "Game\0"
                         const [54]: "Game"
6315  04                 const type 4
6316  12                 string size (18)
6317  535441434B494E47+  "STACKING"
631F  5F4D554C5449504C+  "_MULTIPL"
6327  5900               "Y\0"
                         const [55]: "STACKING_MULTIPLY"
6329  03                 const type 3
632A  00004040           const [56]: (0)
632E  04                 const type 4
632F  07                 string size (7)
6330  456E67696E6500     "Engine\0"
                         const [57]: "Engine"
6337  04                 const type 4
6338  07                 string size (7)
6339  44545F414E5900     "DT_ANY\0"
                         const [58]: "DT_ANY"
6340  01                 const type 3
6341  DCCB15D0           const [59]: (-803877924)
6345  04                 const type 4
6346  0A                 string size (10)
6347  6747616D65446174+  "gGameDat"
634F  6100               "a\0"
                         const [60]: "gGameData"
6351  04                 const type 4
6352  0C                 string size (12)
6353  6D536561736F6E49+  "mSeasonI"
635B  6E666F00           "nfo\0"
                         const [61]: "mSeasonInfo"
635F  04                 const type 4
6360  08                 string size (8)
6361  6D536561736F6E00   "mSeason\0"
                         const [62]: "mSeason"
6369  03                 const type 3
636A  00000040           const [63]: (0)
636E  04                 const type 4
636F  07                 string size (7)
6370  6D506861736500     "mPhase\0"
                         const [64]: "mPhase"
6377  03                 const type 3
6378  0000803F           const [65]: (0)
637C  04                 const type 4
637D  11                 string size (17)
637E  6172636877696E67+  "archwing"
6386  5265717569726564+  "Required"
638E  00                 "\0"
                         const [66]: "archwingRequired"
638F  04                 const type 4
6390  13                 string size (19)
6391  6973536861726B77+  "isSharkw"
6399  696E674D69737369+  "ingMissi"
63A1  6F6E00             "on\0"
                         const [67]: "isSharkwingMission"
63A4  04                 const type 4
63A5  0E                 string size (14)
63A6  6751756573744D69+  "gQuestMi"
63AE  7373696F6E00       "ssion\0"
                         const [68]: "gQuestMission"
63B4  04                 const type 4
63B5  0D                 string size (13)
63B6  6B6579436861696E+  "keyChain"
63BE  4E616D6500         "Name\0"
                         const [69]: "keyChainName"
63C3  04                 const type 4
63C4  0C                 string size (12)
63C5  6D697373696F6E54+  "missionT"
63CD  79706500           "ype\0"
                         const [70]: "missionType"
63D1  04                 const type 4
63D2  0B                 string size (11)
63D3  4D545F47454E4552+  "MT_GENER"
63DB  494300             "IC\0"
                         const [71]: "MT_GENERIC"
63DE  04                 const type 4
63DF  0B                 string size (11)
63E0  4D545F4D41535445+  "MT_MASTE"
63E8  525900             "RY\0"
                         const [72]: "MT_MASTERY"
63EB  04                 const type 4
63EC  15                 string size (21)
63ED  5365637265744D69+  "SecretMi"
63F5  6E6947616D654163+  "niGameAc"
63FD  7469766500         "tive\0"
                         const [73]: "SecretMiniGameActive"
6402  04                 const type 4
6403  08                 string size (8)
6404  67526567696F6E00   "gRegion\0"
                         const [74]: "gRegion"
640C  01                 const type 3
640D  E09F8C84           const [75]: (-2071158816)
6411  01                 const type 3
6412  1C08792D           const [76]: (762906652)
6416  04                 const type 4
6417  04                 string size (4)
6418  68737200           "hsr\0"
                         const [77]: "hsr"
641C  03                 const type 3
641D  CDCC4C3D           const [78]: (-51)
6421  01                 const type 3
6422  42674A8C           const [79]: (-1941280958)
6426  04                 const type 4
6427  13                 string size (19)
6428  537061776E446576+  "SpawnDev"
6430  6F7465644865616C+  "otedHeal"
6438  657200             "er\0"
                         const [80]: "SpawnDevotedHealer"
643B  01                 const type 3
643C  FC5581F5           const [81]: (-176073220)
                         * functions:
6440  00                 sizep (0)
                         * lines:
6442  02                 sizelineinfo (344)
                         [pc] (line)
6443  F2                 [001] (-14)
6444  02                 [002] (-14)
6445  00                 [003] (-14)
6446  00                 [004] (-14)
6447  F2                 [005] (-13)
6448  02                 [006] (-13)
6449  00                 [007] (-13)
644A  00                 [008] (-13)
644B  F2                 [009] (-12)
644C  02                 [010] (-12)
644D  00                 [011] (-12)
644E  00                 [012] (-12)
644F  F2                 [013] (-12)
6450  02                 [014] (-9)
6451  00                 [015] (-9)
6452  00                 [016] (-9)
6453  F3                 [017] (-8)
6454  02                 [018] (-8)
6455  00                 [019] (-8)
6456  00                 [020] (-8)
6457  F3                 [021] (-8)
6458  02                 [022] (-7)
6459  00                 [023] (-7)
645A  00                 [024] (-7)
645B  F3                 [025] (-7)
645C  02                 [026] (-7)
645D  00                 [027] (-7)
645E  00                 [028] (-6)
645F  F3                 [029] (-6)
6460  02                 [030] (-6)
6461  00                 [031] (-6)
6462  00                 [032] (-4)
6463  F4                 [033] (-4)
6464  02                 [034] (-4)
6465  00                 [035] (-4)
6466  00                 [036] (-4)
6467  F4                 [037] (-4)
6468  02                 [038] (-1)
6469  00                 [039] (-1)
646A  00                 [040] (-1)
646B  F4                 [041] (-1)
646C  02                 [042] (-1)
646D  00                 [043] (0)
646E  00                 [044] (0)
646F  F4                 [045] (0)
6470  02                 [046] (0)
6471  00                 [047] (0)
6472  00                 [048] (0)
6473  F4                 [049] (1)
6474  02                 [050] (1)
6475  00                 [051] (1)
6476  00                 [052] (1)
6477  F7                 [053] (3)
6478  02                 [054] (3)
6479  00                 [055] (3)
647A  00                 [056] (3)
647B  F7                 [057] (3)
647C  02                 [058] (5)
647D  00                 [059] (5)
647E  00                 [060] (5)
647F  F7                 [061] (5)
6480  02                 [062] (5)
6481  00                 [063] (5)
6482  00                 [064] (6)
6483  F8                 [065] (6)
6484  02                 [066] (6)
6485  00                 [067] (8)
6486  00                 [068] (8)
6487  F8                 [069] (9)
6488  02                 [070] (9)
6489  00                 [071] (9)
648A  00                 [072] (9)
648B  F8                 [073] (9)
648C  02                 [074] (9)
648D  00                 [075] (9)
648E  00                 [076] (9)
648F  F8                 [077] (9)
6490  02                 [078] (11)
6491  00                 [079] (11)
6492  00                 [080] (11)
6493  F8                 [081] (11)
6494  02                 [082] (11)
6495  00                 [083] (15)
6496  00                 [084] (15)
6497  F9                 [085] (17)
6498  02                 [086] (17)
6499  00                 [087] (17)
649A  00                 [088] (17)
649B  F9                 [089] (17)
649C  02                 [090] (18)
649D  00                 [091] (18)
649E  00                 [092] (18)
649F  F9                 [093] (20)
64A0  02                 [094] (20)
64A1  00                 [095] (20)
64A2  00                 [096] (20)
64A3  F9                 [097] (21)
64A4  02                 [098] (21)
64A5  00                 [099] (21)
64A6  00                 [100] (21)
64A7  F9                 [101] (21)
64A8  02                 [102] (22)
64A9  00                 [103] (25)
64AA  00                 [104] (25)
64AB  F9                 [105] (26)
64AC  02                 [106] (26)
64AD  00                 [107] (26)
64AE  00                 [108] (26)
64AF  FA                 [109] (26)
64B0  02                 [110] (27)
64B1  00                 [111] (30)
64B2  00                 [112] (30)
64B3  FA                 [113] (31)
64B4  02                 [114] (31)
64B5  00                 [115] (31)
64B6  00                 [116] (31)
64B7  FA                 [117] (31)
64B8  02                 [118] (32)
64B9  00                 [119] (32)
64BA  00                 [120] (34)
64BB  FA                 [121] (34)
64BC  02                 [122] (34)
64BD  00                 [123] (34)
64BE  00                 [124] (36)
64BF  FC                 [125] (36)
64C0  02                 [126] (37)
64C1  00                 [127] (37)
64C2  00                 [128] (37)
64C3  FC                 [129] (37)
64C4  02                 [130] (38)
64C5  00                 [131] (38)
64C6  00                 [132] (38)
64C7  FC                 [133] (38)
64C8  02                 [134] (40)
64C9  00                 [135] (40)
64CA  00                 [136] (40)
64CB  FC                 [137] (40)
64CC  02                 [138] (41)
64CD  00                 [139] (41)
64CE  00                 [140] (41)
64CF  FC                 [141] (41)
64D0  02                 [142] (43)
64D1  00                 [143] (44)
64D2  00                 [144] (44)
64D3  FC                 [145] (44)
64D4  02                 [146] (44)
64D5  00                 [147] (45)
64D6  00                 [148] (45)
64D7  FF                 [149] (45)
64D8  02                 [150] (46)
64D9  00                 [151] (46)
64DA  00                 [152] (46)
64DB  FF                 [153] (46)
64DC  02                 [154] (46)
64DD  00                 [155] (44)
64DE  00                 [156] (46)
64DF  FF                 [157] (48)
64E0  02                 [158] (48)
64E1  00                 [159] (48)
64E2  00                 [160] (51)
64E3  FF                 [161] (51)
64E4  02                 [162] (51)
64E5  00                 [163] (51)
64E6  00                 [164] (51)
64E7  FF                 [165] (51)
64E8  02                 [166] (52)
64E9  00                 [167] (52)
64EA  00                 [168] (52)
64EB  00                 [169] (52)
64EC  03                 [170] (52)
64ED  00                 [171] (52)
64EE  00                 [172] (52)
64EF  00                 [173] (52)
64F0  03                 [174] (58)
64F1  00                 [175] (58)
64F2  00                 [176] (58)
64F3  00                 [177] (58)
64F4  03                 [178] (59)
64F5  00                 [179] (59)
64F6  00                 [180] (59)
64F7  00                 [181] (59)
64F8  03                 [182] (59)
64F9  00                 [183] (59)
64FA  00                 [184] (60)
64FB  00                 [185] (60)
64FC  03                 [186] (60)
64FD  00                 [187] (62)
64FE  00                 [188] (62)
64FF  00                 [189] (62)
6500  03                 [190] (62)
6501  00                 [191] (62)
6502  00                 [192] (62)
6503  01                 [193] (65)
6504  03                 [194] (65)
6505  00                 [195] (65)
6506  00                 [196] (66)
6507  01                 [197] (66)
6508  03                 [198] (66)
6509  00                 [199] (66)
650A  00                 [200] (66)
650B  01                 [201] (67)
650C  03                 [202] (67)
650D  00                 [203] (68)
650E  00                 [204] (71)
650F  01                 [205] (71)
6510  03                 [206] (71)
6511  00                 [207] (71)
6512  00                 [208] (71)
6513  03                 [209] (71)
6514  03                 [210] (71)
6515  00                 [211] (71)
6516  00                 [212] (71)
6517  03                 [213] (73)
6518  03                 [214] (73)
6519  00                 [215] (73)
651A  00                 [216] (73)
651B  03                 [217] (74)
651C  03                 [218] (74)
651D  00                 [219] (74)
651E  00                 [220] (74)
651F  03                 [221] (74)
6520  03                 [222] (75)
6521  00                 [223] (75)
6522  00                 [224] (75)
6523  03                 [225] (75)
6524  03                 [226] (75)
6525  00                 [227] (75)
6526  00                 [228] (75)
6527  05                 [229] (75)
6528  03                 [230] (75)
6529  00                 [231] (75)
652A  00                 [232] (75)
652B  05                 [233] (77)
652C  03                 [234] (77)
652D  00                 [235] (77)
652E  00                 [236] (77)
652F  05                 [237] (77)
6530  03                 [238] (77)
6531  00                 [239] (77)
6532  00                 [240] (77)
6533  05                 [241] (77)
6534  03                 [242] (77)
6535  00                 [243] (79)
6536  00                 [244] (79)
6537  05                 [245] (79)
6538  03                 [246] (79)
6539  00                 [247] (79)
653A  00                 [248] (79)
653B  05                 [249] (79)
653C  03                 [250] (79)
653D  00                 [251] (79)
653E  00                 [252] (79)
653F  06                 [253] (81)
6540  03                 [254] (81)
6541  00                 [255] (82)
6542  00                 [256] (82)
6543  06                 [257] (82)
6544  03                 [258] (82)
6545  00                 [259] (82)
6546  00                 [260] (86)
6547  06                 [261] (86)
6548  03                 [262] (86)
6549  00                 [263] (86)
654A  00                 [264] (86)
654B  08                 [265] (87)
654C  03                 [266] (87)
654D  00                 [267] (87)
654E  00                 [268] (87)
654F  08                 [269] (88)
6550  03                 [270] (88)
6551  00                 [271] (88)
6552  00                 [272] (91)
6553  09                 [273] (91)
6554  03                 [274] (91)
6555  00                 [275] (92)
6556  00                 [276] (92)
6557  09                 [277] (92)
6558  03                 [278] (93)
6559  00                 [279] (93)
655A  00                 [280] (93)
655B  09                 [281] (94)
655C  03                 [282] (94)
655D  00                 [283] (94)
655E  00                 [284] (95)
655F  09                 [285] (95)
6560  03                 [286] (95)
6561  00                 [287] (95)
6562  00                 [288] (96)
6563  09                 [289] (96)
6564  03                 [290] (96)
6565  00                 [291] (96)
6566  00                 [292] (96)
6567  09                 [293] (96)
6568  03                 [294] (96)
6569  00                 [295] (96)
656A  00                 [296] (96)
656B  09                 [297] (96)
656C  03                 [298] (97)
656D  00                 [299] (97)
656E  00                 [300] (97)
656F  09                 [301] (97)
6570  03                 [302] (97)
6571  00                 [303] (98)
6572  00                 [304] (98)
6573  09                 [305] (98)
6574  03                 [306] (98)
6575  00                 [307] (100)
6576  00                 [308] (100)
6577  0B                 [309] (100)
6578  03                 [310] (101)
6579  00                 [311] (101)
657A  00                 [312] (101)
657B  0B                 [313] (101)
657C  03                 [314] (101)
657D  00                 [315] (103)
657E  00                 [316] (103)
657F  0B                 [317] (103)
6580  03                 [318] (103)
6581  00                 [319] (103)
6582  00                 [320] (103)
6583  0B                 [321] (104)
6584  03                 [322] (104)
6585  00                 [323] (104)
6586  00                 [324] (104)
6587  0B                 [325] (104)
6588  03                 [326] (104)
6589  00                 [327] (105)
658A  00                 [328] (105)
658B  0F                 [329] (105)
658C  03                 [330] (108)
658D  00                 [331] (108)
658E  00                 [332] (108)
658F  0F                 [333] (108)
6590  03                 [334] (108)
6591  00                 [335] (108)
6592  00                 [336] (108)
6593  11                 [337] (111)
6594  03                 [338] (111)
6595  00                 [339] (111)
6596  00                 [340] (111)
6597  11                 [341] (111)
6598  03                 [342] (111)
6599  00                 [343] (111)
659A  00                 [344] (116)
                         * locals:
69A3  00                 sizelocvars (0)
                         * upvalues:
69A4  00                 sizeupvalues (0)
                         ** end of function **

                         
69A5                     ** function [19] definition (level 2)
                         ** start of function **
69A5  00                 string size (0)
                         source name: (none)
69A7  06                 line defined (889)
69A8  89                 last line defined (905)
69A9  07                 nups (2)
69AA  02                 numparams (2)
69AB  02                 is_vararg (0)
69AC  00                 maxstacksize (6)
                         * code:
69AE  2B                 sizecode (43)
69AF  9D000000           [01] getglobal  2   0        ; 1074689893
69B3  DD400000           [02] getglobal  3   1        ; _T
69B7  CE80C001           [03] gettable   3   3   258  ; "BackgroundMovie"
69BB  A2800001           [04] call       2   2   2  
69BF  98400000           [05] test       2       1    ; to [7] if false
69C3  1AC00280           [06] jmp        12           ; to [19]
69C7  9DC00000           [07] getglobal  2   3        ; gGameRules
69CB  A4004101           [08] self       2   2   260  ; -163852551
69CF  A2800001           [09] call       2   2   2  
69D3  98000000           [10] test       2       0    ; to [12] if true
69D7  1A800180           [11] jmp        7            ; to [19]
69DB  9D400000           [12] getglobal  2   1        ; _T
69DF  8E804001           [13] gettable   2   2   258  ; "BackgroundMovie"
69E3  A4404101           [14] self       2   2   261  ; 1167009705
69E7  19810100           [15] loadk      4   6        ; "InitializeRegionChallenges"
69EB  59C10100           [16] loadk      5   7        ; ""
69EF  A2400002           [17] call       2   4   1  
69F3  1A400080           [18] jmp        2            ; to [21]
69F7  97008000           [19] loadbool   2   1   0    ; true
fail op	8
69FB  88000000           [20] setupval   2   0      
69FF  9DC00000           [21] getglobal  2   3        ; gGameRules
6A03  A4004201           [22] self       2   2   264  ; -1201441975
6A07  A2800001           [23] call       2   2   2  
6A0B  DD000000           [24] getglobal  3   0        ; 1074689893
6A0F  0E414201           [25] gettable   4   2   265  ; "exclusiveWeapon"
6A13  E2800001           [26] call       3   2   2  
6A17  D8400000           [27] test       3       1    ; to [29] if false
6A1B  1A000180           [28] jmp        5            ; to [34]
6A1F  D3008000           [29] getupval   3   1      
6A23  CE80C201           [30] gettable   3   3   266  ; 2002992533
6A27  12018000           [31] move       4   1      
6A2B  4E414201           [32] gettable   5   2   265  ; "exclusiveWeapon"
6A2F  E2408001           [33] call       3   3   1  
6A33  D3008000           [34] getupval   3   1      
6A37  CEC0C201           [35] gettable   3   3   267  ; -1467086624
6A3B  E2808000           [36] call       3   1   2  
6A3F  D8000000           [37] test       3       0    ; to [39] if true
6A43  1AC00080           [38] jmp        4            ; to [43]
6A47  D3008000           [39] getupval   3   1      
6A4B  CE00C301           [40] gettable   3   3   268  ; -777819256
6A4F  12018000           [41] move       4   1      
6A53  E2400001           [42] call       3   2   1  
6A57  1E008000           [43] return     0   1      
                         * constants:
6A5B  0D                 sizek (13)
6A5C  01                 const type 3
6A5D  65770E40           const [0]: (1074689893)
6A61  04                 const type 4
6A62  03                 string size (3)
6A63  5F5400             "_T\0"
                         const [1]: "_T"
6A66  04                 const type 4
6A67  10                 string size (16)
6A68  4261636B67726F75+  "Backgrou"
6A70  6E644D6F76696500   "ndMovie\0"
                         const [2]: "BackgroundMovie"
6A78  04                 const type 4
6A79  0B                 string size (11)
6A7A  6747616D6552756C+  "gGameRul"
6A82  657300             "es\0"
                         const [3]: "gGameRules"
6A85  01                 const type 3
6A86  F9CE3BF6           const [4]: (-163852551)
6A8A  01                 const type 3
6A8B  A9278F45           const [5]: (1167009705)
6A8F  04                 const type 4
6A90  1B                 string size (27)
6A91  496E697469616C69+  "Initiali"
6A99  7A65526567696F6E+  "zeRegion"
6AA1  4368616C6C656E67+  "Challeng"
6AA9  657300             "es\0"
                         const [6]: "InitializeRegionChallenges"
6AAC  04                 const type 4
6AAD  01                 string size (0)
                         const [7]: ""
6AAF  01                 const type 3
6AB0  497363B8           const [8]: (-1201441975)
6AB4  04                 const type 4
6AB5  10                 string size (16)
6AB6  6578636C75736976+  "exclusiv"
6ABE  65576561706F6E00   "eWeapon\0"
                         const [9]: "exclusiveWeapon"
6AC6  01                 const type 3
6AC7  953D6377           const [10]: (2002992533)
6ACB  01                 const type 3
6ACC  E0088EA8           const [11]: (-1467086624)
6AD0  01                 const type 3
6AD1  886BA3D1           const [12]: (-777819256)
                         * functions:
6AD5  00                 sizep (0)
                         * lines:
6AD6  2B                 sizelineinfo (43)
                         [pc] (line)
6AD7  7B                 [01] (123)
6AD8  03                 [02] (123)
6AD9  00                 [03] (123)
6ADA  00                 [04] (123)
6ADB  7B                 [05] (123)
6ADC  03                 [06] (123)
6ADD  00                 [07] (123)
6ADE  00                 [08] (123)
6ADF  7B                 [09] (123)
6AE0  03                 [10] (123)
6AE1  00                 [11] (123)
6AE2  00                 [12] (124)
6AE3  7B                 [13] (124)
6AE4  03                 [14] (124)
6AE5  00                 [15] (124)
6AE6  00                 [16] (124)
6AE7  7B                 [17] (124)
6AE8  03                 [18] (124)
6AE9  00                 [19] (126)
6AEA  00                 [20] (126)
6AEB  7B                 [21] (-127)
6AEC  03                 [22] (-127)
6AED  00                 [23] (-127)
6AEE  00                 [24] (-126)
6AEF  7B                 [25] (-126)
6AF0  03                 [26] (-126)
6AF1  00                 [27] (-126)
6AF2  00                 [28] (-126)
6AF3  7B                 [29] (-125)
6AF4  03                 [30] (-125)
6AF5  00                 [31] (-125)
6AF6  00                 [32] (-125)
6AF7  7B                 [33] (-125)
6AF8  03                 [34] (-122)
6AF9  00                 [35] (-122)
6AFA  00                 [36] (-122)
6AFB  7B                 [37] (-122)
6AFC  03                 [38] (-122)
6AFD  00                 [39] (-121)
6AFE  00                 [40] (-121)
6AFF  7B                 [41] (-121)
6B00  03                 [42] (-121)
6B01  00                 [43] (-119)
                         * locals:
6B83  00                 sizelocvars (0)
                         * upvalues:
6B84  00                 sizeupvalues (0)
                         ** end of function **

                         
6B85                     ** function [20] definition (level 2)
                         ** start of function **
6B85  00                 string size (0)
                         source name: (none)
6B87  07                 line defined (910)
6B88  9A                 last line defined (922)
6B89  07                 nups (0)
6B8A  00                 numparams (2)
6B8B  02                 is_vararg (0)
6B8C  00                 maxstacksize (10)
                         * code:
6B8E  2A                 sizecode (42)
6B8F  9D000000           [01] getglobal  2   0        ; 1074689893
6B93  E440C000           [02] self       3   1   257  ; -564624675
6B97  E2000001           [03] call       3   2   0  
6B9B  A2800000           [04] call       2   0   2  
6B9F  98400000           [05] test       2       1    ; to [7] if false
6BA3  1A800880           [06] jmp        35           ; to [42]
6BA7  9D000000           [07] getglobal  2   0        ; 1074689893
6BAB  DD800000           [08] getglobal  3   2        ; _T
6BAF  CEC0C001           [09] gettable   3   3   259  ; "SpawnDevotedHealer"
6BB3  A2800001           [10] call       2   2   2  
6BB7  98400000           [11] test       2       1    ; to [13] if false
6BBB  1A000780           [12] jmp        29           ; to [42]
6BBF  99000100           [13] loadk      2   4        ; 0
6BC3  DD800000           [14] getglobal  3   2        ; _T
6BC7  CEC0C001           [15] gettable   3   3   259  ; "SpawnDevotedHealer"
6BCB  CA008001           [16] len        3   3      
6BCF  19010100           [17] loadk      4   4        ; 0
6BD3  90400580           [18] forprep    2   22       ; to [41]
6BD7  A441C000           [19] self       6   1   257  ; -564624675
6BDB  A2810001           [20] call       6   2   2  
6BDF  A4414103           [21] self       6   6   261  ; -2135866365
6BE3  A2810001           [22] call       6   2   2  
6BE7  DD810000           [23] getglobal  7   2        ; _T
6BEB  CEC1C003           [24] gettable   7   7   259  ; "SpawnDevotedHealer"
6BEF  CE418103           [25] gettable   7   7   5  
fail op	35
6BF3  23C00103           [26] close      0  
6BF7  1A000380           [27] jmp        13           ; to [41]
6BFB  A481C100           [28] self       6   1   262  ; -1302048094
6BFF  1DC20100           [29] getglobal  8   7        ; -332969190
6C03  59C20000           [30] loadk      9   3        ; "SpawnDevotedHealer"
6C07  22820001           [31] call       8   2   2  
6C0B  57020000           [32] loadbool   9   0   0    ; false
6C0F  A2410002           [33] call       6   4   1  
6C13  9D010200           [34] getglobal  6   8        ; table
6C17  8E414203           [35] gettable   6   6   265  ; -843973282
6C1B  DD810000           [36] getglobal  7   2        ; _T
6C1F  CEC1C003           [37] gettable   7   7   259  ; "SpawnDevotedHealer"
6C23  12028002           [38] move       8   5      
6C27  A2418001           [39] call       6   3   1  
6C2B  1A000080           [40] jmp        1            ; to [42]
6C2F  9400FA7F           [41] forloop    2   -23      ; to [19] if loop
6C33  1E008000           [42] return     0   1      
                         * constants:
6C37  0A                 sizek (10)
6C38  01                 const type 3
6C39  65770E40           const [0]: (1074689893)
6C3D  01                 const type 3
6C3E  DD8258DE           const [1]: (-564624675)
6C42  04                 const type 4
6C43  03                 string size (3)
6C44  5F5400             "_T\0"
                         const [2]: "_T"
6C47  04                 const type 4
6C48  13                 string size (19)
6C49  537061776E446576+  "SpawnDev"
6C51  6F7465644865616C+  "otedHeal"
6C59  657200             "er\0"
                         const [3]: "SpawnDevotedHealer"
6C5C  03                 const type 3
6C5D  0000803F           const [4]: (0)
6C61  01                 const type 3
6C62  0344B180           const [5]: (-2135866365)
6C66  01                 const type 3
6C67  A25264B2           const [6]: (-1302048094)
6C6B  01                 const type 3
6C6C  1A4B27EC           const [7]: (-332969190)
6C70  04                 const type 4
6C71  06                 string size (6)
6C72  7461626C6500       "table\0"
                         const [8]: "table"
6C78  01                 const type 3
6C79  5EFDB1CD           const [9]: (-843973282)
                         * functions:
6C7D  00                 sizep (0)
                         * lines:
6C7E  2A                 sizelineinfo (42)
                         [pc] (line)
6C7F  8F                 [01] (-113)
6C80  03                 [02] (-113)
6C81  00                 [03] (-113)
6C82  00                 [04] (-113)
6C83  8F                 [05] (-113)
6C84  03                 [06] (-113)
6C85  00                 [07] (-112)
6C86  00                 [08] (-112)
6C87  8F                 [09] (-112)
6C88  03                 [10] (-112)
6C89  00                 [11] (-112)
6C8A  00                 [12] (-112)
6C8B  8F                 [13] (-111)
6C8C  03                 [14] (-111)
6C8D  00                 [15] (-111)
6C8E  00                 [16] (-111)
6C8F  8F                 [17] (-111)
6C90  03                 [18] (-111)
6C91  00                 [19] (-110)
6C92  00                 [20] (-110)
6C93  8F                 [21] (-110)
6C94  03                 [22] (-110)
6C95  00                 [23] (-110)
6C96  00                 [24] (-110)
6C97  90                 [25] (-110)
6C98  03                 [26] (-110)
6C99  00                 [27] (-110)
6C9A  00                 [28] (-109)
6C9B  90                 [29] (-109)
6C9C  03                 [30] (-109)
6C9D  00                 [31] (-109)
6C9E  00                 [32] (-109)
6C9F  90                 [33] (-109)
6CA0  03                 [34] (-108)
6CA1  00                 [35] (-108)
6CA2  00                 [36] (-108)
6CA3  90                 [37] (-108)
6CA4  03                 [38] (-108)
6CA5  00                 [39] (-108)
6CA6  00                 [40] (-107)
6CA7  90                 [41] (-111)
6CA8  03                 [42] (-102)
                         * locals:
6D27  00                 sizelocvars (0)
                         * upvalues:
6D28  00                 sizeupvalues (0)
                         ** end of function **

                         
6D29                     ** function [21] definition (level 2)
                         ** start of function **
6D29  00                 string size (0)
                         source name: (none)
6D2B  07                 line defined (926)
6D2C  BB                 last line defined (955)
6D2D  07                 nups (1)
6D2E  01                 numparams (0)
6D2F  00                 is_vararg (0)
6D30  00                 maxstacksize (15)
                         * code:
6D32  6A                 sizecode (106)
6D33  1D000000           [001] getglobal  0   0        ; 538022378
6D37  59400000           [002] loadk      1   1        ; 0
6D3B  22400001           [003] call       0   2   1  
6D3F  1D800000           [004] getglobal  0   2        ; gRegion
6D43  24C04000           [005] self       0   0   259  ; -774964848
6D47  22800001           [006] call       0   2   2  
6D4B  24004100           [007] self       0   0   260  ; 537471347
6D4F  22800001           [008] call       0   2   2  
6D53  24404100           [009] self       0   0   261  ; -1626084341
6D57  22800001           [010] call       0   2   2  
6D5B  5D800100           [011] getglobal  1   6        ; _T
6D5F  4EC0C100           [012] gettable   1   1   263  ; "AssterminationProgressTracker"
6D63  4E00C200           [013] gettable   1   1   264  ; -1455793363
6D67  9D800100           [014] getglobal  2   6        ; _T
6D6B  8E404201           [015] gettable   2   2   265  ; "AssterminationTotalEnemies"
6D6F  8D000001           [016] sub        2   2   0  
6D73  D9800200           [017] loadk      3   10       ; " / "
6D77  1D810100           [018] getglobal  4   6        ; _T
6D7B  0E414202           [019] gettable   4   4   265  ; "AssterminationTotalEnemies"
6D7F  82000101           [020] concat     2   2   4  
6D83  62400001           [021] call       1   2   1  
6D87  5D800100           [022] getglobal  1   6        ; _T
6D8B  4EC0C100           [023] gettable   1   1   263  ; "AssterminationProgressTracker"
6D8F  4EC0C200           [024] gettable   1   1   267  ; 1731445362
6D93  9D800100           [025] getglobal  2   6        ; _T
6D97  8E404201           [026] gettable   2   2   265  ; "AssterminationTotalEnemies"
6D9B  8D000001           [027] sub        2   2   0  
6D9F  DD800100           [028] getglobal  3   6        ; _T
6DA3  CE40C201           [029] gettable   3   3   265  ; "AssterminationTotalEnemies"
6DA7  9CC00001           [030] div        2   2   3  
6DAB  62400001           [031] call       1   2   1  
fail op	35
6DAF  23404000           [032] close      0  
6DB3  1A000780           [033] jmp        29           ; to [63]
6DB7  5D800100           [034] getglobal  1   6        ; _T
6DBB  4C404386           [035] settable   1   268 269  ; "AssterminationNextRoomPending" 1
6DBF  5D800000           [036] getglobal  1   2        ; gRegion
6DC3  64C0C000           [037] self       1   1   259  ; -774964848
6DC7  62800001           [038] call       1   2   2  
6DCB  6400C100           [039] self       1   1   260  ; 537471347
6DCF  62800001           [040] call       1   2   2  
6DD3  6480C300           [041] self       1   1   270  ; -1354842897
6DD7  C6008001           [042] loadnil    3   3      
6DDB  62408001           [043] call       1   3   1  
6DDF  5D800000           [044] getglobal  1   2        ; gRegion
6DE3  64C0C000           [045] self       1   1   259  ; -774964848
6DE7  62800001           [046] call       1   2   2  
6DEB  6400C100           [047] self       1   1   260  ; 537471347
6DEF  62800001           [048] call       1   2   2  
6DF3  64C0C300           [049] self       1   1   271  ; 447196028
6DF7  D7000000           [050] loadbool   3   0   0    ; false
6DFB  62408001           [051] call       1   3   1  
6DFF  5D000000           [052] getglobal  1   0        ; 538022378
6E03  99000400           [053] loadk      2   16       ; 0
6E07  62400001           [054] call       1   2   1  
6E0B  5D800100           [055] getglobal  1   6        ; _T
6E0F  4E40C400           [056] gettable   1   1   273  ; 327577324
6E13  9D800100           [057] getglobal  2   6        ; _T
6E17  8EC04101           [058] gettable   2   2   263  ; "AssterminationProgressTracker"
6E1B  62400001           [059] call       1   2   1  
6E1F  5D800100           [060] getglobal  1   6        ; _T
6E23  4C80C483           [061] settable   1   263 274  ; "AssterminationProgressTracker" nil
6E27  1A800A80           [062] jmp        43           ; to [106]
fail op	35
6E2B  23C04400           [063] close      0  
6E2F  1A000A80           [064] jmp        41           ; to [106]
6E33  5D000500           [065] getglobal  1   20       ; -895206725
6E37  93000000           [066] getupval   2   0      
6E3B  62800001           [067] call       1   2   2  
6E3F  9D400500           [068] getglobal  2   21       ; -332969190
6E43  D9800500           [069] loadk      3   22       ; "GAME_C1_SPINE2"
6E47  A2800001           [070] call       2   2   2  
6E4B  DDC00500           [071] getglobal  3   23       ; 572299008
6E4F  19410000           [072] loadk      4   1        ; 0
6E53  59010600           [073] loadk      5   24       ; 0
6E57  99410000           [074] loadk      6   1        ; 0
6E5B  E2800002           [075] call       3   4   2  
6E5F  1D810000           [076] getglobal  4   2        ; gRegion
6E63  24414602           [077] self       4   4   281  ; 795506491
6E67  9D810600           [078] getglobal  6   26       ; gGameRules
6E6B  A4C14603           [079] self       6   6   283  ; -1201441975
6E6F  A2810001           [080] call       6   2   2  
6E73  A4014703           [081] self       6   6   284  ; -272348948
6E77  A2810001           [082] call       6   2   2  
6E7B  D7018000           [083] loadbool   7   1   0    ; true
6E7F  22810002           [084] call       4   4   2  
6E83  5D410700           [085] getglobal  5   29       ; 248503575
6E87  92010002           [086] move       6   4      
6E8B  62010101           [087] call       5   2   4  
6E8F  1A800380           [088] jmp        15           ; to [104]
6E93  9D820700           [089] getglobal  10  30       ; 1074689893
6E97  E4C2C704           [090] self       11  9   287  ; -1411785325
6E9B  E2020001           [091] call       11  2   0  
6E9F  A2820000           [092] call       10  0   2  
6EA3  98420000           [093] test       10      1    ; to [95] if false
6EA7  1A000280           [094] jmp        9            ; to [104]
6EAB  A402C804           [095] self       10  9   288  ; 1511086594
6EAF  A2820001           [096] call       10  2   2  
6EB3  98420000           [097] test       10      1    ; to [99] if false
6EB7  1A000180           [098] jmp        5            ; to [104]
6EBB  A442C804           [099] self       10  9   289  ; -1421644046
6EBF  12038000           [100] move       12  1      
6EC3  52030001           [101] move       13  2      
6EC7  92038001           [102] move       14  3      
6ECB  A2428002           [103] call       10  5   1  
6ECF  56810000           [104] tforloop   5       2    ; to [106] if exit
6ED3  1A80FB7F           [105] jmp        -17          ; to [89]
6ED7  1E008000           [106] return     0   1      
                         * constants:
6EDB  22                 sizek (34)
6EDC  01                 const type 3
6EDD  EA911120           const [0]: (538022378)
6EE1  03                 const type 3
6EE2  00000000           const [1]: (0)
6EE6  04                 const type 4
6EE7  08                 string size (8)
6EE8  67526567696F6E00   "gRegion\0"
                         const [2]: "gRegion"
6EF0  01                 const type 3
6EF1  90F9CED1           const [3]: (-774964848)
6EF5  01                 const type 3
6EF6  73290920           const [4]: (537471347)
6EFA  01                 const type 3
6EFB  0BEC139F           const [5]: (-1626084341)
6EFF  04                 const type 4
6F00  03                 string size (3)
6F01  5F5400             "_T\0"
                         const [6]: "_T"
6F04  04                 const type 4
6F05  1E                 string size (30)
6F06  4173737465726D69+  "Asstermi"
6F0E  6E6174696F6E5072+  "nationPr"
6F16  6F67726573735472+  "ogressTr"
6F1E  61636B657200       "acker\0"
                         const [7]: "AssterminationProgressTracker"
6F24  01                 const type 3
6F25  2D5B3AA9           const [8]: (-1455793363)
6F29  04                 const type 4
6F2A  1B                 string size (27)
6F2B  4173737465726D69+  "Asstermi"
6F33  6E6174696F6E546F+  "nationTo"
6F3B  74616C456E656D69+  "talEnemi"
6F43  657300             "es\0"
                         const [9]: "AssterminationTotalEnemies"
6F46  04                 const type 4
6F47  04                 string size (4)
6F48  202F2000           " / \0"
                         const [10]: " / "
6F4C  01                 const type 3
6F4D  72C23367           const [11]: (1731445362)
6F51  04                 const type 4
6F52  1E                 string size (30)
6F53  4173737465726D69+  "Asstermi"
6F5B  6E6174696F6E4E65+  "nationNe"
6F63  7874526F6F6D5065+  "xtRoomPe"
6F6B  6E64696E6700       "nding\0"
                         const [12]: "AssterminationNextRoomPending"
6F71  01                 const type 3
6F72  01000000           const [13]: (1)
6F76  01                 const type 3
6F77  EFBC3EAF           const [14]: (-1354842897)
6F7B  01                 const type 3
6F7C  7CABA71A           const [15]: (447196028)
6F80  03                 const type 3
6F81  0000803F           const [16]: (0)
6F85  01                 const type 3
6F86  EC6E8613           const [17]: (327577324)
6F8A  00                 const type 0
                         const [18]: nil
6F8B  03                 const type 3
6F8C  00004040           const [19]: (0)
6F90  01                 const type 3
6F91  BB3AA4CA           const [20]: (-895206725)
6F95  01                 const type 3
6F96  1A4B27EC           const [21]: (-332969190)
6F9A  04                 const type 4
6F9B  0F                 string size (15)
6F9C  47414D455F43315F+  "GAME_C1_"
6FA4  5350494E453200     "SPINE2\0"
                         const [22]: "GAME_C1_SPINE2"
6FAB  01                 const type 3
6FAC  00971C22           const [23]: (572299008)
6FB0  03                 const type 3
6FB1  0000003F           const [24]: (0)
6FB5  01                 const type 3
6FB6  3B776A2F           const [25]: (795506491)
6FBA  04                 const type 4
6FBB  0B                 string size (11)
6FBC  6747616D6552756C+  "gGameRul"
6FC4  657300             "es\0"
                         const [26]: "gGameRules"
6FC7  01                 const type 3
6FC8  497363B8           const [27]: (-1201441975)
6FCC  01                 const type 3
6FCD  EC48C4EF           const [28]: (-272348948)
6FD1  01                 const type 3
6FD2  17DDCF0E           const [29]: (248503575)
6FD6  01                 const type 3
6FD7  65770E40           const [30]: (1074689893)
6FDB  01                 const type 3
6FDC  93DDD9AB           const [31]: (-1411785325)
6FE0  01                 const type 3
6FE1  025A115A           const [32]: (1511086594)
6FE5  01                 const type 3
6FE6  F26E43AB           const [33]: (-1421644046)
                         * functions:
6FEA  00                 sizep (0)
                         * lines:
6FEB  6A                 sizelineinfo (106)
                         [pc] (line)
6FEC  9F                 [001] (-97)
6FED  03                 [002] (-97)
6FEE  00                 [003] (-97)
6FEF  00                 [004] (-95)
6FF0  9F                 [005] (-95)
6FF1  03                 [006] (-95)
6FF2  00                 [007] (-95)
6FF3  00                 [008] (-95)
6FF4  9F                 [009] (-95)
6FF5  03                 [010] (-95)
6FF6  00                 [011] (-94)
6FF7  00                 [012] (-94)
6FF8  A1                 [013] (-94)
6FF9  03                 [014] (-94)
6FFA  00                 [015] (-94)
6FFB  00                 [016] (-94)
6FFC  A1                 [017] (-94)
6FFD  03                 [018] (-94)
6FFE  00                 [019] (-94)
6FFF  00                 [020] (-94)
7000  A1                 [021] (-94)
7001  03                 [022] (-93)
7002  00                 [023] (-93)
7003  00                 [024] (-93)
7004  A1                 [025] (-93)
7005  03                 [026] (-93)
7006  00                 [027] (-93)
7007  00                 [028] (-93)
7008  A1                 [029] (-93)
7009  03                 [030] (-93)
700A  00                 [031] (-93)
700B  00                 [032] (-91)
700C  A1                 [033] (-91)
700D  03                 [034] (-90)
700E  00                 [035] (-90)
700F  00                 [036] (-89)
7010  A1                 [037] (-89)
7011  03                 [038] (-89)
7012  00                 [039] (-89)
7013  00                 [040] (-89)
7014  A2                 [041] (-89)
7015  03                 [042] (-89)
7016  00                 [043] (-89)
7017  00                 [044] (-88)
7018  A2                 [045] (-88)
7019  03                 [046] (-88)
701A  00                 [047] (-88)
701B  00                 [048] (-88)
701C  A2                 [049] (-88)
701D  03                 [050] (-88)
701E  00                 [051] (-88)
701F  00                 [052] (-86)
7020  A2                 [053] (-86)
7021  03                 [054] (-86)
7022  00                 [055] (-84)
7023  00                 [056] (-84)
7024  A2                 [057] (-84)
7025  03                 [058] (-84)
7026  00                 [059] (-84)
7027  00                 [060] (-83)
7028  A2                 [061] (-83)
7029  03                 [062] (-83)
702A  00                 [063] (-81)
702B  00                 [064] (-81)
702C  A2                 [065] (-80)
702D  03                 [066] (-80)
702E  00                 [067] (-80)
702F  00                 [068] (-79)
7030  A2                 [069] (-79)
7031  03                 [070] (-79)
7032  00                 [071] (-78)
7033  00                 [072] (-78)
7034  A2                 [073] (-78)
7035  03                 [074] (-78)
7036  00                 [075] (-78)
7037  00                 [076] (-77)
7038  A2                 [077] (-77)
7039  03                 [078] (-77)
703A  00                 [079] (-77)
703B  00                 [080] (-77)
703C  A2                 [081] (-77)
703D  03                 [082] (-77)
703E  00                 [083] (-77)
703F  00                 [084] (-77)
7040  A3                 [085] (-75)
7041  03                 [086] (-75)
7042  00                 [087] (-75)
7043  00                 [088] (-75)
7044  A3                 [089] (-74)
7045  03                 [090] (-74)
7046  00                 [091] (-74)
7047  00                 [092] (-74)
7048  A3                 [093] (-74)
7049  03                 [094] (-74)
704A  00                 [095] (-74)
704B  00                 [096] (-74)
704C  A3                 [097] (-74)
704D  03                 [098] (-74)
704E  00                 [099] (-73)
704F  00                 [100] (-73)
7050  A3                 [101] (-73)
7051  03                 [102] (-73)
7052  00                 [103] (-73)
7053  00                 [104] (-75)
7054  A3                 [105] (-72)
7055  03                 [106] (-69)
                         * locals:
7194  00                 sizelocvars (0)
                         * upvalues:
7195  00                 sizeupvalues (0)
                         ** end of function **

                         
7196                     ** function [22] definition (level 2)
                         ** start of function **
7196  00                 string size (0)
                         source name: (none)
7198  07                 line defined (957)
7199  BF                 last line defined (959)
719A  07                 nups (1)
719B  01                 numparams (0)
719C  00                 is_vararg (0)
719D  00                 maxstacksize (2)
                         * code:
719F  03                 sizecode (3)
71A0  13000000           [1] getupval   0   0      
71A4  22408000           [2] call       0   1   1  
71A8  1E008000           [3] return     0   1      
                         * constants:
71AC  00                 sizek (0)
                         * functions:
71AD  00                 sizep (0)
                         * lines:
71AE  03                 sizelineinfo (3)
                         [pc] (line)
71AF  BE                 [1] (-66)
71B0  03                 [2] (-66)
71B1  00                 [3] (-65)
                         * locals:
71BB  00                 sizelocvars (0)
                         * upvalues:
71BC  00                 sizeupvalues (0)
                         ** end of function **

                         
71BD                     ** function [23] definition (level 2)
                         ** start of function **
71BD  00                 string size (0)
                         source name: (none)
71BF  07                 line defined (964)
71C0  E5                 last line defined (997)
71C1  07                 nups (3)
71C2  03                 numparams (5)
71C3  05                 is_vararg (0)
71C4  00                 maxstacksize (16)
                         * code:
71C6  7D                 sizecode (125)
71C7  5D010000           [001] getglobal  5   0        ; 1074689893
71CB  92018001           [002] move       6   3      
71CF  62810001           [003] call       5   2   2  
71D3  58410000           [004] test       5       1    ; to [6] if false
71D7  1A800980           [005] jmp        39           ; to [45]
71DB  5D010000           [006] getglobal  5   0        ; 1074689893
71DF  9D410000           [007] getglobal  6   1        ; _T
71E3  8E814003           [008] gettable   6   6   258  ; "AmbientMissionTransmissionSet"
71E7  62810001           [009] call       5   2   2  
71EB  58410000           [010] test       5       1    ; to [12] if false
71EF  1A000880           [011] jmp        33           ; to [45]
71F3  5DC10000           [012] getglobal  5   3        ; gGameRules
71F7  6401C102           [013] self       5   5   260  ; -317790213
71FB  DD410100           [014] getglobal  7   5        ; -332969190
71FF  19820100           [015] loadk      8   6        ; "StopNormalTransmissions"
7203  E2010001           [016] call       7   2   0  
7207  62810000           [017] call       5   0   2  
fail op	35
720B  63C0C102           [018] close      1  
720F  1A000680           [019] jmp        25           ; to [45]
7213  6401C200           [020] self       5   1   264  ; -1519595333
7217  62810001           [021] call       5   2   2  
721B  58010000           [022] test       5       0    ; to [24] if true
721F  1A000580           [023] jmp        21           ; to [45]
7223  5D410200           [024] getglobal  5   9        ; gRegion
7227  6481C202           [025] self       5   5   266  ; -2071158816
722B  62810001           [026] call       5   2   2  
722F  9DC10200           [027] getglobal  6   11       ; 1672515847
7233  D2018002           [028] move       7   5      
7237  A2010101           [029] call       6   2   4  
723B  1AC00280           [030] jmp        12           ; to [43]
fail op	35
723F  63400005           [031] close      1  
7243  1A400280           [032] jmp        10           ; to [43]
7247  D3020000           [033] getupval   11  0      
724B  CE02C305           [034] gettable   11  11  268  ; 1151150014
724F  1D430000           [035] getglobal  12  1        ; _T
7253  0E834006           [036] gettable   12  12  258  ; "AmbientMissionTransmissionSet"
7257  5D430100           [037] getglobal  13  5        ; -332969190
725B  99430300           [038] loadk      14  13       ; "TennoDown"
725F  62830001           [039] call       13  2   2  
7263  99C30100           [040] loadk      14  7        ; 0
7267  D2030005           [041] move       15  10     
726B  E2428002           [042] call       11  5   1  
726F  96810000           [043] tforloop   6       2    ; to [45] if exit
7273  1A40FC7F           [044] jmp        -14          ; to [31]
7277  DD420000           [045] getglobal  11  1        ; _T
727B  CE82C305           [046] gettable   11  11  270  ; "TwitchMarkedEnemy"
fail op	35
727F  63C0C305           [047] close      1  
7283  1A000480           [048] jmp        17           ; to [66]
7287  DD420000           [049] getglobal  11  1        ; _T
728B  CE82C305           [050] gettable   11  11  270  ; "TwitchMarkedEnemy"
fail op	35
728F  23408005           [051] close      0  
7293  1A000380           [052] jmp        13           ; to [66]
7297  DD420000           [053] getglobal  11  1        ; _T
729B  CE02C405           [054] gettable   11  11  272  ; "PartnerPlayer"
fail op	35
729F  23008105           [055] close      0  
72A3  1A000280           [056] jmp        9            ; to [66]
72A7  DD420400           [057] getglobal  11  17       ; gChallengeMgr
72AB  E482C405           [058] self       11  11  274  ; -611634118
72AF  59C30400           [059] loadk      13  19       ; "MarkedEnemyDown"
72B3  9D430100           [060] getglobal  14  5        ; -332969190
72B7  A2838000           [061] call       14  1   2  
72BB  D7038000           [062] loadbool   15  1   0    ; true
72BF  E2428002           [063] call       11  5   1  
72C3  DD420000           [064] getglobal  11  1        ; _T
72C7  CC42458A           [065] settable   11  276 277  ; "TwitchMarkedEnemyActive" 0
72CB  DD420000           [066] getglobal  11  1        ; _T
72CF  CE82C505           [067] gettable   11  11  278  ; "IsEliteAlert"
72D3  D8020000           [068] test       11      0    ; to [70] if true
72D7  1A400880           [069] jmp        34           ; to [104]
72DB  DD020000           [070] getglobal  11  0        ; 1074689893
72DF  24C3C500           [071] self       12  1   279  ; -1411785325
72E3  22030001           [072] call       12  2   0  
72E7  E2820000           [073] call       11  0   2  
72EB  D8420000           [074] test       11      1    ; to [76] if false
72EF  1AC00380           [075] jmp        16           ; to [92]
72F3  E4C2C500           [076] self       11  1   279  ; -1411785325
72F7  E2820001           [077] call       11  2   2  
72FB  E402C605           [078] self       11  11  280  ; -1957065004
72FF  53038000           [079] getupval   13  1      
7303  E2828001           [080] call       11  3   2  
7307  D8020000           [081] test       11      0    ; to [83] if true
730B  1A000280           [082] jmp        9            ; to [92]
730F  DD420000           [083] getglobal  11  1        ; _T
7313  CC82808C           [084] settable   11  281 2    ; "EliteAlertDroneKiller"
7317  E482C600           [085] self       11  1   282  ; -1302048094
731B  5D430100           [086] getglobal  13  5        ; -332969190
731F  99C30600           [087] loadk      14  27       ; "OnEliteAlertDroneDestroyed"
7323  62830001           [088] call       13  2   2  
7327  97030000           [089] loadbool   14  0   0    ; false
732B  E2420002           [090] call       11  4   1  
732F  1AC00280           [091] jmp        12           ; to [104]
7333  DD020000           [092] getglobal  11  0        ; 1074689893
7337  2403C700           [093] self       12  1   284  ; -564624675
733B  22030001           [094] call       12  2   0  
733F  E2820000           [095] call       11  0   2  
7343  D8420000           [096] test       11      1    ; to [98] if false
7347  1A400180           [097] jmp        6            ; to [104]
734B  E482C600           [098] self       11  1   282  ; -1302048094
734F  5D430100           [099] getglobal  13  5        ; -332969190
7353  99430700           [100] loadk      14  29       ; "CreateReviveStation"
7357  62830001           [101] call       13  2   2  
735B  97030000           [102] loadbool   14  0   0    ; false
735F  E2420002           [103] call       11  4   1  
7363  DD420000           [104] getglobal  11  1        ; _T
7367  CE82C705           [105] gettable   11  11  286  ; "ScenarioHubStarted"
736B  D8020000           [106] test       11      0    ; to [108] if true
736F  1A800280           [107] jmp        11           ; to [119]
7373  DD420000           [108] getglobal  11  1        ; _T
7377  CEC2C705           [109] gettable   11  11  287  ; "ScenarioOnDeath"
737B  D8020000           [110] test       11      0    ; to [112] if true
737F  1A800180           [111] jmp        7            ; to [119]
7383  DD420000           [112] getglobal  11  1        ; _T
7387  CE02C805           [113] gettable   11  11  288  ; 810799923
738B  12038000           [114] move       12  1      
738F  52030001           [115] move       13  2      
7393  92038001           [116] move       14  3      
7397  D2030002           [117] move       15  4      
739B  E2428002           [118] call       11  5   1  
739F  DD420000           [119] getglobal  11  1        ; _T
73A3  CE42C805           [120] gettable   11  11  289  ; "AssterminationProgressTracker"
73A7  D8020000           [121] test       11      0    ; to [123] if true
73AB  1A400080           [122] jmp        2            ; to [125]
73AF  D3020001           [123] getupval   11  2      
73B3  E2428000           [124] call       11  1   1  
73B7  1E008000           [125] return     0   1      
                         * constants:
73BB  22                 sizek (34)
73BC  01                 const type 3
73BD  65770E40           const [0]: (1074689893)
73C1  04                 const type 4
73C2  03                 string size (3)
73C3  5F5400             "_T\0"
                         const [1]: "_T"
73C6  04                 const type 4
73C7  1E                 string size (30)
73C8  416D6269656E744D+  "AmbientM"
73D0  697373696F6E5472+  "issionTr"
73D8  616E736D69737369+  "ansmissi"
73E0  6F6E53657400       "onSet\0"
                         const [2]: "AmbientMissionTransmissionSet"
73E6  04                 const type 4
73E7  0B                 string size (11)
73E8  6747616D6552756C+  "gGameRul"
73F0  657300             "es\0"
                         const [3]: "gGameRules"
73F3  01                 const type 3
73F4  FBE70EED           const [4]: (-317790213)
73F8  01                 const type 3
73F9  1A4B27EC           const [5]: (-332969190)
73FD  04                 const type 4
73FE  18                 string size (24)
73FF  53746F704E6F726D+  "StopNorm"
7407  616C5472616E736D+  "alTransm"
740F  697373696F6E7300   "issions\0"
                         const [6]: "StopNormalTransmissions"
7417  03                 const type 3
7418  00000000           const [7]: (0)
741C  01                 const type 3
741D  BBD06CA5           const [8]: (-1519595333)
7421  04                 const type 4
7422  08                 string size (8)
7423  67526567696F6E00   "gRegion\0"
                         const [9]: "gRegion"
742B  01                 const type 3
742C  E09F8C84           const [10]: (-2071158816)
7430  01                 const type 3
7431  0791B063           const [11]: (1672515847)
7435  01                 const type 3
7436  BE279D44           const [12]: (1151150014)
743A  04                 const type 4
743B  0A                 string size (10)
743C  54656E6E6F446F77+  "TennoDow"
7444  6E00               "n\0"
                         const [13]: "TennoDown"
7446  04                 const type 4
7447  12                 string size (18)
7448  5477697463684D61+  "TwitchMa"
7450  726B6564456E656D+  "rkedEnem"
7458  7900               "y\0"
                         const [14]: "TwitchMarkedEnemy"
745A  00                 const type 0
                         const [15]: nil
745B  04                 const type 4
745C  0E                 string size (14)
745D  506172746E657250+  "PartnerP"
7465  6C6179657200       "layer\0"
                         const [16]: "PartnerPlayer"
746B  04                 const type 4
746C  0E                 string size (14)
746D  674368616C6C656E+  "gChallen"
7475  67654D677200       "geMgr\0"
                         const [17]: "gChallengeMgr"
747B  01                 const type 3
747C  3A348BDB           const [18]: (-611634118)
7480  04                 const type 4
7481  10                 string size (16)
7482  4D61726B6564456E+  "MarkedEn"
748A  656D79446F776E00   "emyDown\0"
                         const [19]: "MarkedEnemyDown"
7492  04                 const type 4
7493  18                 string size (24)
7494  5477697463684D61+  "TwitchMa"
749C  726B6564456E656D+  "rkedEnem"
74A4  7941637469766500   "yActive\0"
                         const [20]: "TwitchMarkedEnemyActive"
74AC  01                 const type 3
74AD  00000000           const [21]: (0)
74B1  04                 const type 4
74B2  0D                 string size (13)
74B3  4973456C69746541+  "IsEliteA"
74BB  6C65727400         "lert\0"
                         const [22]: "IsEliteAlert"
74C0  01                 const type 3
74C1  93DDD9AB           const [23]: (-1411785325)
74C5  01                 const type 3
74C6  D48E598B           const [24]: (-1957065004)
74CA  04                 const type 4
74CB  16                 string size (22)
74CC  456C697465416C65+  "EliteAle"
74D4  727444726F6E654B+  "rtDroneK"
74DC  696C6C657200       "iller\0"
                         const [25]: "EliteAlertDroneKiller"
74E2  01                 const type 3
74E3  A25264B2           const [26]: (-1302048094)
74E7  04                 const type 4
74E8  1B                 string size (27)
74E9  4F6E456C69746541+  "OnEliteA"
74F1  6C65727444726F6E+  "lertDron"
74F9  6544657374726F79+  "eDestroy"
7501  656400             "ed\0"
                         const [27]: "OnEliteAlertDroneDestroyed"
7504  01                 const type 3
7505  DD8258DE           const [28]: (-564624675)
7509  04                 const type 4
750A  14                 string size (20)
750B  4372656174655265+  "CreateRe"
7513  7669766553746174+  "viveStat"
751B  696F6E00           "ion\0"
                         const [29]: "CreateReviveStation"
751F  04                 const type 4
7520  13                 string size (19)
7521  5363656E6172696F+  "Scenario"
7529  4875625374617274+  "HubStart"
7531  656400             "ed\0"
                         const [30]: "ScenarioHubStarted"
7534  04                 const type 4
7535  10                 string size (16)
7536  5363656E6172696F+  "Scenario"
753E  4F6E446561746800   "OnDeath\0"
                         const [31]: "ScenarioOnDeath"
7546  01                 const type 3
7547  33D35330           const [32]: (810799923)
754B  04                 const type 4
754C  1E                 string size (30)
754D  4173737465726D69+  "Asstermi"
7555  6E6174696F6E5072+  "nationPr"
755D  6F67726573735472+  "ogressTr"
7565  61636B657200       "acker\0"
                         const [33]: "AssterminationProgressTracker"
                         * functions:
756B  00                 sizep (0)
                         * lines:
756C  7D                 sizelineinfo (125)
                         [pc] (line)
756D  C5                 [001] (-59)
756E  03                 [002] (-59)
756F  00                 [003] (-59)
7570  00                 [004] (-59)
7571  C5                 [005] (-59)
7572  03                 [006] (-59)
7573  00                 [007] (-59)
7574  00                 [008] (-59)
7575  C5                 [009] (-59)
7576  03                 [010] (-59)
7577  00                 [011] (-59)
7578  00                 [012] (-59)
7579  C5                 [013] (-59)
757A  03                 [014] (-59)
757B  00                 [015] (-59)
757C  00                 [016] (-59)
757D  C5                 [017] (-59)
757E  03                 [018] (-59)
757F  00                 [019] (-59)
7580  00                 [020] (-58)
7581  C5                 [021] (-58)
7582  03                 [022] (-58)
7583  00                 [023] (-58)
7584  00                 [024] (-57)
7585  C5                 [025] (-57)
7586  03                 [026] (-57)
7587  00                 [027] (-56)
7588  00                 [028] (-56)
7589  C5                 [029] (-56)
758A  03                 [030] (-56)
758B  00                 [031] (-55)
758C  00                 [032] (-55)
758D  C5                 [033] (-54)
758E  03                 [034] (-54)
758F  00                 [035] (-54)
7590  00                 [036] (-54)
7591  C5                 [037] (-54)
7592  03                 [038] (-54)
7593  00                 [039] (-54)
7594  00                 [040] (-54)
7595  C5                 [041] (-54)
7596  03                 [042] (-54)
7597  00                 [043] (-56)
7598  00                 [044] (-53)
7599  C5                 [045] (-48)
759A  03                 [046] (-48)
759B  00                 [047] (-48)
759C  00                 [048] (-48)
759D  C5                 [049] (-48)
759E  03                 [050] (-48)
759F  00                 [051] (-48)
75A0  00                 [052] (-48)
75A1  C5                 [053] (-48)
75A2  03                 [054] (-48)
75A3  00                 [055] (-48)
75A4  00                 [056] (-48)
75A5  C5                 [057] (-47)
75A6  03                 [058] (-47)
75A7  00                 [059] (-47)
75A8  00                 [060] (-47)
75A9  C5                 [061] (-47)
75AA  03                 [062] (-47)
75AB  00                 [063] (-47)
75AC  00                 [064] (-46)
75AD  C5                 [065] (-46)
75AE  03                 [066] (-43)
75AF  00                 [067] (-43)
75B0  00                 [068] (-43)
75B1  C5                 [069] (-43)
75B2  03                 [070] (-42)
75B3  00                 [071] (-42)
75B4  00                 [072] (-42)
75B5  C5                 [073] (-42)
75B6  03                 [074] (-42)
75B7  00                 [075] (-42)
75B8  00                 [076] (-42)
75B9  C6                 [077] (-42)
75BA  03                 [078] (-42)
75BB  00                 [079] (-42)
75BC  00                 [080] (-42)
75BD  C6                 [081] (-42)
75BE  03                 [082] (-42)
75BF  00                 [083] (-41)
75C0  00                 [084] (-41)
75C1  C6                 [085] (-40)
75C2  03                 [086] (-40)
75C3  00                 [087] (-40)
75C4  00                 [088] (-40)
75C5  C6                 [089] (-40)
75C6  03                 [090] (-40)
75C7  00                 [091] (-40)
75C8  00                 [092] (-39)
75C9  C7                 [093] (-39)
75CA  03                 [094] (-39)
75CB  00                 [095] (-39)
75CC  00                 [096] (-39)
75CD  C7                 [097] (-39)
75CE  03                 [098] (-38)
75CF  00                 [099] (-38)
75D0  00                 [100] (-38)
75D1  C7                 [101] (-38)
75D2  03                 [102] (-38)
75D3  00                 [103] (-38)
75D4  00                 [104] (-34)
75D5  C8                 [105] (-34)
75D6  03                 [106] (-34)
75D7  00                 [107] (-34)
75D8  00                 [108] (-34)
75D9  C8                 [109] (-34)
75DA  03                 [110] (-34)
75DB  00                 [111] (-34)
75DC  00                 [112] (-33)
75DD  C8                 [113] (-33)
75DE  03                 [114] (-33)
75DF  00                 [115] (-33)
75E0  00                 [116] (-33)
75E1  C8                 [117] (-33)
75E2  03                 [118] (-33)
75E3  00                 [119] (-30)
75E4  00                 [120] (-30)
75E5  C9                 [121] (-30)
75E6  03                 [122] (-30)
75E7  00                 [123] (-29)
75E8  00                 [124] (-29)
75E9  C9                 [125] (-27)
                         * locals:
7761  00                 sizelocvars (0)
                         * upvalues:
7762  00                 sizeupvalues (0)
                         ** end of function **

                         
7763                     ** function [24] definition (level 2)
                         ** start of function **
7763  00                 string size (0)
                         source name: (none)
7765  07                 line defined (1012)
7766  FE                 last line defined (1022)
7767  07                 nups (1)
7768  01                 numparams (1)
7769  01                 is_vararg (0)
776A  00                 maxstacksize (7)
                         * code:
776C  1D                 sizecode (29)
776D  5D000000           [01] getglobal  1   0        ; gGameRules
7771  6440C000           [02] self       1   1   257  ; -1201441975
7775  62800001           [03] call       1   2   2  
7779  93000000           [04] getupval   2   0      
777D  8E804001           [05] gettable   2   2   258  ; -1899142750
7781  D2000000           [06] move       3   0      
7785  17018000           [07] loadbool   4   1   0    ; true
7789  52018000           [08] move       5   1      
778D  A2800002           [09] call       2   4   2  
7791  98000000           [10] test       2       0    ; to [12] if true
7795  1A800380           [11] jmp        15           ; to [27]
7799  DDC00000           [12] getglobal  3   3        ; -421772368
779D  0E014101           [13] gettable   4   2   260  ; "text"
77A1  4B410100           [14] newtable   5   0   5    ; array=0, hash=5
77A5  8E814101           [15] gettable   6   2   262  ; "player"
77A9  4C818182           [16] settable   5   261 6    ; "PLAYER_NAME"
77AD  8E014201           [17] gettable   6   2   264  ; "value"
77B1  4C818183           [18] settable   5   263 6    ; "VALUE"
77B5  8E414201           [19] gettable   6   2   265  ; "MIN"
77B9  4C818184           [20] settable   5   265 6    ; "MIN"
77BD  8E814201           [21] gettable   6   2   266  ; "MAX"
77C1  4C810185           [22] settable   5   266 6    ; "MAX"
77C5  8EC14201           [23] gettable   6   2   267  ; "ITEM"
77C9  4C818185           [24] settable   5   267 6    ; "ITEM"
77CD  C7008001           [25] tailcall   3   3   0  
77D1  DE000000           [26] return     3   0      
77D5  D9000300           [27] loadk      3   12       ; ""
77D9  DE000001           [28] return     3   2      
77DD  1E008000           [29] return     0   1      
                         * constants:
77E1  0D                 sizek (13)
77E2  04                 const type 4
77E3  0B                 string size (11)
77E4  6747616D6552756C+  "gGameRul"
77EC  657300             "es\0"
                         const [0]: "gGameRules"
77EF  01                 const type 3
77F0  497363B8           const [1]: (-1201441975)
77F4  01                 const type 3
77F5  A261CD8E           const [2]: (-1899142750)
77F9  01                 const type 3
77FA  B043DCE6           const [3]: (-421772368)
77FE  04                 const type 4
77FF  05                 string size (5)
7800  7465787400         "text\0"
                         const [4]: "text"
7805  04                 const type 4
7806  0C                 string size (12)
7807  504C415945525F4E+  "PLAYER_N"
780F  414D4500           "AME\0"
                         const [5]: "PLAYER_NAME"
7813  04                 const type 4
7814  07                 string size (7)
7815  706C6179657200     "player\0"
                         const [6]: "player"
781C  04                 const type 4
781D  06                 string size (6)
781E  56414C554500       "VALUE\0"
                         const [7]: "VALUE"
7824  04                 const type 4
7825  06                 string size (6)
7826  76616C756500       "value\0"
                         const [8]: "value"
782C  04                 const type 4
782D  04                 string size (4)
782E  4D494E00           "MIN\0"
                         const [9]: "MIN"
7832  04                 const type 4
7833  04                 string size (4)
7834  4D415800           "MAX\0"
                         const [10]: "MAX"
7838  04                 const type 4
7839  05                 string size (5)
783A  4954454D00         "ITEM\0"
                         const [11]: "ITEM"
783F  04                 const type 4
7840  01                 string size (0)
                         const [12]: ""
                         * functions:
7842  00                 sizep (0)
                         * lines:
7843  1D                 sizelineinfo (29)
                         [pc] (line)
7844  F6                 [01] (-10)
7845  03                 [02] (-10)
7846  00                 [03] (-10)
7847  00                 [04] (-9)
7848  F6                 [05] (-9)
7849  03                 [06] (-9)
784A  00                 [07] (-9)
784B  00                 [08] (-9)
784C  F6                 [09] (-9)
784D  03                 [10] (-7)
784E  00                 [11] (-7)
784F  00                 [12] (-6)
7850  F7                 [13] (-6)
7851  03                 [14] (-6)
7852  00                 [15] (-6)
7853  00                 [16] (-6)
7854  F7                 [17] (-6)
7855  03                 [18] (-6)
7856  00                 [19] (-6)
7857  00                 [20] (-6)
7858  F7                 [21] (-6)
7859  03                 [22] (-6)
785A  00                 [23] (-6)
785B  00                 [24] (-6)
785C  F7                 [25] (-6)
785D  03                 [26] (-6)
785E  00                 [27] (-3)
785F  00                 [28] (-3)
7860  F7                 [29] (-2)
                         * locals:
78B8  00                 sizelocvars (0)
                         * upvalues:
78B9  00                 sizeupvalues (0)
                         ** end of function **

                         
78BA                     ** function [25] definition (level 2)
                         ** start of function **
78BA  00                 string size (0)
                         source name: (none)
78BC  08                 line defined (1024)
78BD  86                 last line defined (1030)
78BE  08                 nups (0)
78BF  00                 numparams (3)
78C0  03                 is_vararg (0)
78C1  00                 maxstacksize (6)
                         * code:
78C3  10                 sizecode (16)
78C4  DD000000           [01] getglobal  3   0        ; 1074689893
78C8  1D410000           [02] getglobal  4   1        ; _T
78CC  0E814002           [03] gettable   4   4   258  ; "RaidCustomData"
78D0  E2800001           [04] call       3   2   2  
78D4  D8400000           [05] test       3       1    ; to [7] if false
78D8  1A400180           [06] jmp        6            ; to [13]
78DC  DD400000           [07] getglobal  3   1        ; _T
78E0  CEC0C001           [08] gettable   3   3   259  ; -1875099968
78E4  12018000           [09] move       4   1      
78E8  52010001           [10] move       5   2      
78EC  E2408001           [11] call       3   3   1  
78F0  1A800080           [12] jmp        3            ; to [16]
78F4  DD000100           [13] getglobal  3   4        ; -1817107093
78F8  19410100           [14] loadk      4   5        ; "LotusGameRules.lua::ReceivedCustomRaidData - no global function defined"
78FC  E2400001           [15] call       3   2   1  
7900  1E008000           [16] return     0   1      
                         * constants:
7904  06                 sizek (6)
7905  01                 const type 3
7906  65770E40           const [0]: (1074689893)
790A  04                 const type 4
790B  03                 string size (3)
790C  5F5400             "_T\0"
                         const [1]: "_T"
790F  04                 const type 4
7910  0F                 string size (15)
7911  5261696443757374+  "RaidCust"
7919  6F6D4461746100     "omData\0"
                         const [2]: "RaidCustomData"
7920  01                 const type 3
7921  C03E3C90           const [3]: (-1875099968)
7925  01                 const type 3
7926  6B25B193           const [4]: (-1817107093)
792A  04                 const type 4
792B  48                 string size (72)
792C  4C6F74757347616D+  "LotusGam"
7934  6552756C65732E6C+  "eRules.l"
793C  75613A3A52656365+  "ua::Rece"
7944  6976656443757374+  "ivedCust"
794C  6F6D526169644461+  "omRaidDa"
7954  7461202D206E6F20+  "ta - no "
795C  676C6F62616C2066+  "global f"
7964  756E6374696F6E20+  "unction "
796C  646566696E656400   "defined\0"
                         const [5]: "LotusGameRules.lua::ReceivedCustomRaidData - no global function defined"
                         * functions:
7974  00                 sizep (0)
                         * lines:
7975  10                 sizelineinfo (16)
                         [pc] (line)
7976  01                 [01] (1)
7977  04                 [02] (1)
7978  00                 [03] (1)
7979  00                 [04] (1)
797A  01                 [05] (1)
797B  04                 [06] (1)
797C  00                 [07] (2)
797D  00                 [08] (2)
797E  01                 [09] (2)
797F  04                 [10] (2)
7980  00                 [11] (2)
7981  00                 [12] (2)
7982  01                 [13] (4)
7983  04                 [14] (4)
7984  00                 [15] (4)
7985  00                 [16] (6)
                         * locals:
79B6  00                 sizelocvars (0)
                         * upvalues:
79B7  00                 sizeupvalues (0)
                         ** end of function **

                         
79B8                     ** function [26] definition (level 2)
                         ** start of function **
79B8  00                 string size (0)
                         source name: (none)
79BA  08                 line defined (1032)
79BB  BB                 last line defined (1083)
79BC  08                 nups (1)
79BD  01                 numparams (1)
79BE  01                 is_vararg (0)
79BF  00                 maxstacksize (11)
                         * code:
79C2  01                 sizecode (134)
79C3  5D000000           [001] getglobal  1   0        ; _T
79C7  4E40C000           [002] gettable   1   1   257  ; "RELAY_EVENT_INJURY_IMMUNITY_TAG"
fail op	35
79CB  2380C000           [003] close      0  
79CF  1A000180           [004] jmp        5            ; to [10]
79D3  5D000000           [005] getglobal  1   0        ; _T
79D7  9DC00000           [006] getglobal  2   3        ; -332969190
79DB  D9000100           [007] loadk      3   4        ; "RelayEventVIPImmunity"
79DF  A2800001           [008] call       2   2   2  
79E3  4C808080           [009] settable   1   257 2    ; "RELAY_EVENT_INJURY_IMMUNITY_TAG"
79E7  5D000000           [010] getglobal  1   0        ; _T
79EB  4E40C100           [011] gettable   1   1   261  ; "DebugElementalCarrier"
fail op	35
79EF  6380C100           [012] close      1  
79F3  1A800380           [013] jmp        15           ; to [29]
79F7  5DC00100           [014] getglobal  1   7        ; string
79FB  4E00C200           [015] gettable   1   1   264  ; -1110387163
79FF  9D400200           [016] getglobal  2   9        ; gFlashMgr
7A03  A4804201           [017] self       2   2   266  ; 1677915031
7A07  19C10200           [018] loadk      4   11       ; "LotusGameRules.ForceElementalCarrier"
7A0B  A2008001           [019] call       2   3   0  
7A0F  62800000           [020] call       1   0   2  
7A13  9D000000           [021] getglobal  2   0        ; _T
7A17  8E404101           [022] gettable   2   2   261  ; "DebugElementalCarrier"
fail op	35
7A1B  63400001           [023] close      1  
7A1F  1AC00080           [024] jmp        4            ; to [29]
7A23  9D000000           [025] getglobal  2   0        ; _T
7A27  8C408082           [026] settable   2   261 1    ; "DebugElementalCarrier"
7A2B  93000000           [027] getupval   2   0      
7A2F  A2408000           [028] call       2   1   1  
7A33  9D000000           [029] getglobal  2   0        ; _T
7A37  8E004301           [030] gettable   2   2   268  ; "RelayEventPhaseInfo"
7A3B  98000000           [031] test       2       0    ; to [33] if true
7A3F  1A800980           [032] jmp        39           ; to [72]
7A43  9D400300           [033] getglobal  2   13       ; gGameRules
7A47  A4804301           [034] self       2   2   270  ; -1464939954
7A4B  1D010000           [035] getglobal  4   0        ; _T
7A4F  0E014302           [036] gettable   4   4   268  ; "RelayEventPhaseInfo"
7A53  0EC14302           [037] gettable   4   4   271  ; "transmission"
7A57  A2408001           [038] call       2   3   1  
7A5B  9D000400           [039] getglobal  2   16       ; -1615931716
7A5F  DD000000           [040] getglobal  3   0        ; _T
7A63  CE00C301           [041] gettable   3   3   268  ; "RelayEventPhaseInfo"
7A67  CE40C401           [042] gettable   3   3   273  ; "item"
7A6B  E480C401           [043] self       3   3   274  ; 1634497718
7A6F  E2000001           [044] call       3   2   0  
7A73  A2800000           [045] call       2   0   2  
7A77  E4C04400           [046] self       3   0   275  ; 1888920740
7A7B  5DC10000           [047] getglobal  5   3        ; -332969190
7A7F  99010500           [048] loadk      6   20       ; "/Lotus/Language/RelayReconstruction/EnemyItemCarrierName"
7A83  62810001           [049] call       5   2   2  
7A87  99410500           [050] loadk      6   21       ; "ITEM"
7A8B  D2010001           [051] move       7   2      
7A8F  E2408002           [052] call       3   5   1  
7A93  E4804500           [053] self       3   0   278  ; -372871396
7A97  5D010000           [054] getglobal  5   0        ; _T
7A9B  4E01C302           [055] gettable   5   5   268  ; "RelayEventPhaseInfo"
7A9F  4EC1C502           [056] gettable   5   5   279  ; "enhancement"
7AA3  97010000           [057] loadbool   6   0   0    ; false
7AA7  E2400002           [058] call       3   4   1  
7AAB  E4004600           [059] self       3   0   280  ; -1421644046
7AAF  5D010000           [060] getglobal  5   0        ; _T
7AB3  4E01C302           [061] gettable   5   5   268  ; "RelayEventPhaseInfo"
7AB7  4E41C602           [062] gettable   5   5   281  ; "marker"
7ABB  9DC10000           [063] getglobal  6   3        ; -332969190
7ABF  D9810600           [064] loadk      7   26       ; "GAME_C1_SPINE2"
7AC3  A2810001           [065] call       6   2   2  
7AC7  DDC10600           [066] getglobal  7   27       ; 572299008
7ACB  19020700           [067] loadk      8   28       ; 0
7ACF  59420700           [068] loadk      9   29       ; 0
7AD3  99020700           [069] loadk      10  28       ; 0
7AD7  E2010002           [070] call       7   4   0  
7ADB  E2400000           [071] call       3   0   1  
7ADF  E4804700           [072] self       3   0   286  ; -419776588
7AE3  59C10700           [073] loadk      5   31       ; 0
7AE7  E2408001           [074] call       3   3   1  
7AEB  E4004800           [075] self       3   0   288  ; -1266465662
7AEF  5D410800           [076] getglobal  5   33       ; Lotus_Game
7AF3  4E81C802           [077] gettable   5   5   290  ; "AR_RESIST_ALL"
7AF7  9D010000           [078] getglobal  6   0        ; _T
7AFB  8E414003           [079] gettable   6   6   257  ; "RELAY_EVENT_INJURY_IMMUNITY_TAG"
7AFF  E2400002           [080] call       3   4   1  
7B03  E4C04800           [081] self       3   0   291  ; -1544157541
7B07  E2800001           [082] call       3   2   2  
7B0B  2401C901           [083] self       4   3   292  ; 1685228074
7B0F  9D410900           [084] getglobal  6   37       ; Engine
7B13  8E814903           [085] gettable   6   6   294  ; "STUN"
7B17  DD010000           [086] getglobal  7   0        ; _T
7B1B  CE41C003           [087] gettable   7   7   257  ; "RELAY_EVENT_INJURY_IMMUNITY_TAG"
7B1F  22410002           [088] call       4   4   1  
7B23  2401C901           [089] self       4   3   292  ; 1685228074
7B27  9D410900           [090] getglobal  6   37       ; Engine
7B2B  8EC14903           [091] gettable   6   6   295  ; "KNOCKDOWN"
7B2F  DD010000           [092] getglobal  7   0        ; _T
7B33  CE41C003           [093] gettable   7   7   257  ; "RELAY_EVENT_INJURY_IMMUNITY_TAG"
7B37  22410002           [094] call       4   4   1  
7B3B  2401C901           [095] self       4   3   292  ; 1685228074
7B3F  9D410900           [096] getglobal  6   37       ; Engine
7B43  8E014A03           [097] gettable   6   6   296  ; "RAGDOLL"
7B47  DD010000           [098] getglobal  7   0        ; _T
7B4B  CE41C003           [099] gettable   7   7   257  ; "RELAY_EVENT_INJURY_IMMUNITY_TAG"
7B4F  22410002           [100] call       4   4   1  
7B53  2441CA01           [101] self       4   3   297  ; 17344149
7B57  9D010000           [102] getglobal  6   0        ; _T
7B5B  8E414003           [103] gettable   6   6   257  ; "RELAY_EVENT_INJURY_IMMUNITY_TAG"
7B5F  22418001           [104] call       4   3   1  
7B63  2481CA01           [105] self       4   3   298  ; -1992773175
7B67  A4C1CA01           [106] self       6   3   299  ; -227502409
7B6B  A2010001           [107] call       6   2   0  
7B6F  22410000           [108] call       4   0   1  
7B73  24014B00           [109] self       4   0   300  ; 1992436207
7B77  A4414B00           [110] self       6   0   301  ; 945541886
7B7B  A2010001           [111] call       6   2   0  
7B7F  22410000           [112] call       4   0   1  
7B83  24814B00           [113] self       4   0   302  ; 2080276352
7B87  86010003           [114] loadnil    6   6      
7B8B  22418001           [115] call       4   3   1  
7B8F  24C14B00           [116] self       4   0   303  ; -1411785325
7B93  22810001           [117] call       4   2   2  
7B97  24014C02           [118] self       4   4   304  ; -1850937571
7B9B  22410001           [119] call       4   2   1  
7B9F  1D410900           [120] getglobal  4   37       ; Engine
7BA3  0E414C02           [121] gettable   4   4   305  ; -1762979278
7BA7  22818000           [122] call       4   1   2  
7BAB  5DC10C00           [123] getglobal  5   51       ; -895206725
7BAF  99010D00           [124] loadk      6   52       ; "/Lotus/Types/Enemies/RelayEvent/RelayEventCaptureEnemyAction"
7BB3  62810001           [125] call       5   2   2  
7BB7  0C410199           [126] settable   4   306 5    ; "mType"
7BBB  64414D00           [127] self       5   0   309  ; -1802508524
7BBF  D2010002           [128] move       7   4      
7BC3  62418001           [129] call       5   3   1  
7BC7  5D010000           [130] getglobal  5   0        ; _T
7BCB  4C01009B           [131] settable   5   310 0    ; "RelayEventTargetEnemy"
7BCF  5D010000           [132] getglobal  5   0        ; _T
7BD3  4C01CE9B           [133] settable   5   311 312  ; "RelayEventTimerActive" 0
7BD7  1E008000           [134] return     0   1      
                         * constants:
7BDB  39                 sizek (57)
7BDC  04                 const type 4
7BDD  03                 string size (3)
7BDE  5F5400             "_T\0"
                         const [0]: "_T"
7BE1  04                 const type 4
7BE2  20                 string size (32)
7BE3  52454C41595F4556+  "RELAY_EV"
7BEB  454E545F494E4A55+  "ENT_INJU"
7BF3  52595F494D4D554E+  "RY_IMMUN"
7BFB  4954595F54414700   "ITY_TAG\0"
                         const [1]: "RELAY_EVENT_INJURY_IMMUNITY_TAG"
7C03  00                 const type 0
                         const [2]: nil
7C04  01                 const type 3
7C05  1A4B27EC           const [3]: (-332969190)
7C09  04                 const type 4
7C0A  16                 string size (22)
7C0B  52656C6179457665+  "RelayEve"
7C13  6E74564950496D6D+  "ntVIPImm"
7C1B  756E69747900       "unity\0"
                         const [4]: "RelayEventVIPImmunity"
7C21  04                 const type 4
7C22  16                 string size (22)
7C23  4465627567456C65+  "DebugEle"
7C2B  6D656E74616C4361+  "mentalCa"
7C33  727269657200       "rrier\0"
                         const [5]: "DebugElementalCarrier"
7C39  04                 const type 4
7C3A  01                 string size (0)
                         const [6]: ""
7C3C  04                 const type 4
7C3D  07                 string size (7)
7C3E  737472696E6700     "string\0"
                         const [7]: "string"
7C45  01                 const type 3
7C46  25D6D0BD           const [8]: (-1110387163)
7C4A  04                 const type 4
7C4B  0A                 string size (10)
7C4C  67466C6173684D67+  "gFlashMg"
7C54  7200               "r\0"
                         const [9]: "gFlashMgr"
7C56  01                 const type 3
7C57  97F30264           const [10]: (1677915031)
7C5B  04                 const type 4
7C5C  25                 string size (37)
7C5D  4C6F74757347616D+  "LotusGam"
7C65  6552756C65732E46+  "eRules.F"
7C6D  6F726365456C656D+  "orceElem"
7C75  656E74616C436172+  "entalCar"
7C7D  7269657200         "rier\0"
                         const [11]: "LotusGameRules.ForceElementalCarrier"
7C82  04                 const type 4
7C83  14                 string size (20)
7C84  52656C6179457665+  "RelayEve"
7C8C  6E74506861736549+  "ntPhaseI"
7C94  6E666F00           "nfo\0"
                         const [12]: "RelayEventPhaseInfo"
7C98  04                 const type 4
7C99  0B                 string size (11)
7C9A  6747616D6552756C+  "gGameRul"
7CA2  657300             "es\0"
                         const [13]: "gGameRules"
7CA5  01                 const type 3
7CA6  4ECAAEA8           const [14]: (-1464939954)
7CAA  04                 const type 4
7CAB  0D                 string size (13)
7CAC  7472616E736D6973+  "transmis"
7CB4  73696F6E00         "sion\0"
                         const [15]: "transmission"
7CB9  01                 const type 3
7CBA  BCD6AE9F           const [16]: (-1615931716)
7CBE  04                 const type 4
7CBF  05                 string size (5)
7CC0  6974656D00         "item\0"
                         const [17]: "item"
7CC5  01                 const type 3
7CC6  B6746C61           const [18]: (1634497718)
7CCA  01                 const type 3
7CCB  A4A49670           const [19]: (1888920740)
7CCF  04                 const type 4
7CD0  39                 string size (57)
7CD1  2F4C6F7475732F4C+  "/Lotus/L"
7CD9  616E67756167652F+  "anguage/"
7CE1  52656C6179526563+  "RelayRec"
7CE9  6F6E737472756374+  "onstruct"
7CF1  696F6E2F456E656D+  "ion/Enem"
7CF9  794974656D436172+  "yItemCar"
7D01  726965724E616D65+  "rierName"
7D09  00                 "\0"
                         const [20]: "/Lotus/Language/RelayReconstruction/EnemyItemCarrierName"
7D0A  04                 const type 4
7D0B  05                 string size (5)
7D0C  4954454D00         "ITEM\0"
                         const [21]: "ITEM"
7D11  01                 const type 3
7D12  1C6FC6E9           const [22]: (-372871396)
7D16  04                 const type 4
7D17  0C                 string size (12)
7D18  656E68616E63656D+  "enhancem"
7D20  656E7400           "ent\0"
                         const [23]: "enhancement"
7D24  01                 const type 3
7D25  F26E43AB           const [24]: (-1421644046)
7D29  04                 const type 4
7D2A  07                 string size (7)
7D2B  6D61726B657200     "marker\0"
                         const [25]: "marker"
7D32  04                 const type 4
7D33  0F                 string size (15)
7D34  47414D455F43315F+  "GAME_C1_"
7D3C  5350494E453200     "SPINE2\0"
                         const [26]: "GAME_C1_SPINE2"
7D43  01                 const type 3
7D44  00971C22           const [27]: (572299008)
7D48  03                 const type 3
7D49  00000000           const [28]: (0)
7D4D  03                 const type 3
7D4E  0000003F           const [29]: (0)
7D52  01                 const type 3
7D53  B4B7FAE6           const [30]: (-419776588)
7D57  03                 const type 3
7D58  00000040           const [31]: (0)
7D5C  01                 const type 3
7D5D  824483B4           const [32]: (-1266465662)
7D61  04                 const type 4
7D62  0B                 string size (11)
7D63  4C6F7475735F4761+  "Lotus_Ga"
7D6B  6D6500             "me\0"
                         const [33]: "Lotus_Game"
7D6E  04                 const type 4
7D6F  0E                 string size (14)
7D70  41525F5245534953+  "AR_RESIS"
7D78  545F414C4C00       "T_ALL\0"
                         const [34]: "AR_RESIST_ALL"
7D7E  01                 const type 3
7D7F  9B06F6A3           const [35]: (-1544157541)
7D83  01                 const type 3
7D84  2A8A7264           const [36]: (1685228074)
7D88  04                 const type 4
7D89  07                 string size (7)
7D8A  456E67696E6500     "Engine\0"
                         const [37]: "Engine"
7D91  04                 const type 4
7D92  05                 string size (5)
7D93  5354554E00         "STUN\0"
                         const [38]: "STUN"
7D98  04                 const type 4
7D99  0A                 string size (10)
7D9A  4B4E4F434B444F57+  "KNOCKDOW"
7DA2  4E00               "N\0"
                         const [39]: "KNOCKDOWN"
7DA4  04                 const type 4
7DA5  08                 string size (8)
7DA6  524147444F4C4C00   "RAGDOLL\0"
                         const [40]: "RAGDOLL"
7DAE  01                 const type 3
7DAF  95A60801           const [41]: (17344149)
7DB3  01                 const type 3
7DB4  C9B13889           const [42]: (-1992773175)
7DB8  01                 const type 3
7DB9  B79670F2           const [43]: (-227502409)
7DBD  01                 const type 3
7DBE  EF29C276           const [44]: (1992436207)
7DC2  01                 const type 3
7DC3  FED25B38           const [45]: (945541886)
7DC7  01                 const type 3
7DC8  807FFE7B           const [46]: (2080276352)
7DCC  01                 const type 3
7DCD  93DDD9AB           const [47]: (-1411785325)
7DD1  01                 const type 3
7DD2  1DEFAC91           const [48]: (-1850937571)
7DD6  01                 const type 3
7DD7  3212EB96           const [49]: (-1762979278)
7DDB  04                 const type 4
7DDC  06                 string size (6)
7DDD  6D5479706500       "mType\0"
                         const [50]: "mType"
7DE3  01                 const type 3
7DE4  BB3AA4CA           const [51]: (-895206725)
7DE8  04                 const type 4
7DE9  3D                 string size (61)
7DEA  2F4C6F7475732F54+  "/Lotus/T"
7DF2  797065732F456E65+  "ypes/Ene"
7DFA  6D6965732F52656C+  "mies/Rel"
7E02  61794576656E742F+  "ayEvent/"
7E0A  52656C6179457665+  "RelayEve"
7E12  6E74436170747572+  "ntCaptur"
7E1A  65456E656D794163+  "eEnemyAc"
7E22  74696F6E00         "tion\0"
                         const [52]: "/Lotus/Types/Enemies/RelayEvent/RelayEventCaptureEnemyAction"
7E27  01                 const type 3
7E28  14E78F94           const [53]: (-1802508524)
7E2C  04                 const type 4
7E2D  16                 string size (22)
7E2E  52656C6179457665+  "RelayEve"
7E36  6E74546172676574+  "ntTarget"
7E3E  456E656D7900       "Enemy\0"
                         const [54]: "RelayEventTargetEnemy"
7E44  04                 const type 4
7E45  16                 string size (22)
7E46  52656C6179457665+  "RelayEve"
7E4E  6E7454696D657241+  "ntTimerA"
7E56  637469766500       "ctive\0"
                         const [55]: "RelayEventTimerActive"
7E5C  01                 const type 3
7E5D  00000000           const [56]: (0)
                         * functions:
7E61  00                 sizep (0)
                         * lines:
7E63  01                 sizelineinfo (134)
                         [pc] (line)
7E64  0A                 [001] (10)
7E65  04                 [002] (10)
7E66  00                 [003] (10)
7E67  00                 [004] (10)
7E68  0A                 [005] (11)
7E69  04                 [006] (11)
7E6A  00                 [007] (11)
7E6B  00                 [008] (11)
7E6C  0A                 [009] (11)
7E6D  04                 [010] (14)
7E6E  00                 [011] (14)
7E6F  00                 [012] (14)
7E70  0A                 [013] (14)
7E71  04                 [014] (15)
7E72  00                 [015] (15)
7E73  00                 [016] (15)
7E74  0B                 [017] (15)
7E75  04                 [018] (15)
7E76  00                 [019] (15)
7E77  00                 [020] (15)
7E78  0B                 [021] (16)
7E79  04                 [022] (16)
7E7A  00                 [023] (16)
7E7B  00                 [024] (16)
7E7C  0B                 [025] (17)
7E7D  04                 [026] (17)
7E7E  00                 [027] (18)
7E7F  00                 [028] (18)
7E80  0B                 [029] (22)
7E81  04                 [030] (22)
7E82  00                 [031] (22)
7E83  00                 [032] (22)
7E84  0B                 [033] (23)
7E85  04                 [034] (23)
7E86  00                 [035] (23)
7E87  00                 [036] (23)
7E88  0E                 [037] (23)
7E89  04                 [038] (23)
7E8A  00                 [039] (24)
7E8B  00                 [040] (24)
7E8C  0E                 [041] (24)
7E8D  04                 [042] (24)
7E8E  00                 [043] (24)
7E8F  00                 [044] (24)
7E90  0E                 [045] (24)
7E91  04                 [046] (25)
7E92  00                 [047] (25)
7E93  00                 [048] (25)
7E94  0E                 [049] (25)
7E95  04                 [050] (25)
7E96  00                 [051] (25)
7E97  00                 [052] (25)
7E98  0F                 [053] (27)
7E99  04                 [054] (27)
7E9A  00                 [055] (27)
7E9B  00                 [056] (27)
7E9C  0F                 [057] (27)
7E9D  04                 [058] (27)
7E9E  00                 [059] (28)
7E9F  00                 [060] (28)
7EA0  0F                 [061] (28)
7EA1  04                 [062] (28)
7EA2  00                 [063] (28)
7EA3  00                 [064] (28)
7EA4  0F                 [065] (28)
7EA5  04                 [066] (28)
7EA6  00                 [067] (28)
7EA7  00                 [068] (28)
7EA8  0F                 [069] (28)
7EA9  04                 [070] (28)
7EAA  00                 [071] (28)
7EAB  00                 [072] (31)
7EAC  0F                 [073] (31)
7EAD  04                 [074] (31)
7EAE  00                 [075] (33)
7EAF  00                 [076] (33)
7EB0  0F                 [077] (33)
7EB1  04                 [078] (33)
7EB2  00                 [079] (33)
7EB3  00                 [080] (33)
7EB4  10                 [081] (35)
7EB5  04                 [082] (35)
7EB6  00                 [083] (37)
7EB7  00                 [084] (37)
7EB8  10                 [085] (37)
7EB9  04                 [086] (37)
7EBA  00                 [087] (37)
7EBB  00                 [088] (37)
7EBC  10                 [089] (38)
7EBD  04                 [090] (38)
7EBE  00                 [091] (38)
7EBF  00                 [092] (38)
7EC0  10                 [093] (38)
7EC1  04                 [094] (38)
7EC2  00                 [095] (39)
7EC3  00                 [096] (39)
7EC4  11                 [097] (39)
7EC5  04                 [098] (39)
7EC6  00                 [099] (39)
7EC7  00                 [100] (39)
7EC8  11                 [101] (41)
7EC9  04                 [102] (41)
7ECA  00                 [103] (41)
7ECB  00                 [104] (41)
7ECC  12                 [105] (43)
7ECD  04                 [106] (43)
7ECE  00                 [107] (43)
7ECF  00                 [108] (43)
7ED0  12                 [109] (45)
7ED1  04                 [110] (45)
7ED2  00                 [111] (45)
7ED3  00                 [112] (45)
7ED4  16                 [113] (46)
7ED5  04                 [114] (46)
7ED6  00                 [115] (46)
7ED7  00                 [116] (47)
7ED8  16                 [117] (47)
7ED9  04                 [118] (47)
7EDA  00                 [119] (47)
7EDB  00                 [120] (49)
7EDC  16                 [121] (49)
7EDD  04                 [122] (49)
7EDE  00                 [123] (50)
7EDF  00                 [124] (50)
7EE0  16                 [125] (50)
7EE1  04                 [126] (50)
7EE2  00                 [127] (52)
7EE3  00                 [128] (52)
7EE4  17                 [129] (52)
7EE5  04                 [130] (54)
7EE6  00                 [131] (54)
7EE7  00                 [132] (56)
7EE8  17                 [133] (56)
7EE9  04                 [134] (59)
                         * locals:
807C  00                 sizelocvars (0)
                         * upvalues:
807D  00                 sizeupvalues (0)
                         ** end of function **

                         
807E                     ** function [27] definition (level 2)
                         ** start of function **
807E  00                 string size (0)
                         source name: (none)
8080  08                 line defined (1085)
8081  CB                 last line defined (1099)
8082  08                 nups (0)
8083  00                 numparams (1)
8084  01                 is_vararg (0)
8085  00                 maxstacksize (10)
                         * code:
8087  2F                 sizecode (47)
8088  5D000000           [01] getglobal  1   0        ; _T
808C  4E40C000           [02] gettable   1   1   257  ; "TwitchMarkedEnemyInfo"
fail op	35
8090  6380C000           [03] close      1  
8094  1A400A80           [04] jmp        42           ; to [47]
8098  5DC00000           [05] getglobal  1   3        ; gGameRules
809C  6400C100           [06] self       1   1   260  ; -1464939954
80A0  DD000000           [07] getglobal  3   0        ; _T
80A4  CE40C001           [08] gettable   3   3   257  ; "TwitchMarkedEnemyInfo"
80A8  CE40C101           [09] gettable   3   3   261  ; "enemySpawnTransmission"
80AC  62408001           [10] call       1   3   1  
80B0  5D800100           [11] getglobal  1   6        ; -895206725
80B4  9D000000           [12] getglobal  2   0        ; _T
80B8  8E404001           [13] gettable   2   2   257  ; "TwitchMarkedEnemyInfo"
80BC  8EC04101           [14] gettable   2   2   263  ; "enemyMarkerType"
80C0  62800001           [15] call       1   2   2  
80C4  A4004200           [16] self       2   0   264  ; -1421644046
80C8  12018000           [17] move       4   1      
80CC  5D410200           [18] getglobal  5   9        ; -332969190
80D0  99810200           [19] loadk      6   10       ; "GAME_C1_SPINE2"
80D4  62810001           [20] call       5   2   2  
80D8  9DC10200           [21] getglobal  6   11       ; 572299008
80DC  D9010300           [22] loadk      7   12       ; 0
80E0  19420300           [23] loadk      8   13       ; 0
80E4  59020300           [24] loadk      9   12       ; 0
80E8  A2010002           [25] call       6   4   0  
80EC  A2400000           [26] call       2   0   1  
80F0  A4004200           [27] self       2   0   264  ; -1421644046
80F4  1D010000           [28] getglobal  4   0        ; _T
80F8  0E414002           [29] gettable   4   4   257  ; "TwitchMarkedEnemyInfo"
80FC  0E814302           [30] gettable   4   4   270  ; "fxAura"
8100  5DC10300           [31] getglobal  5   15       ; EMPTY_SYMBOL
8104  A2400002           [32] call       2   4   1  
8108  9D000000           [33] getglobal  2   0        ; _T
810C  8E004401           [34] gettable   2   2   272  ; "PartnerPlayer"
fail op	35
8110  63804001           [35] close      1  
8114  1AC00180           [36] jmp        8            ; to [45]
8118  A4404400           [37] self       2   0   273  ; -1544157541
811C  A2800001           [38] call       2   2   2  
8120  A4804401           [39] self       2   2   274  ; -993749122
8124  1D010000           [40] getglobal  4   0        ; _T
8128  0E014402           [41] gettable   4   4   272  ; "PartnerPlayer"
812C  24C14402           [42] self       4   4   275  ; -2135866365
8130  22010001           [43] call       4   2   0  
8134  A2400000           [44] call       2   0   1  
8138  9D000000           [45] getglobal  2   0        ; _T
813C  8C00008A           [46] settable   2   276 0    ; "TwitchMarkedEnemy"
8140  1E008000           [47] return     0   1      
                         * constants:
8144  15                 sizek (21)
8145  04                 const type 4
8146  03                 string size (3)
8147  5F5400             "_T\0"
                         const [0]: "_T"
814A  04                 const type 4
814B  16                 string size (22)
814C  5477697463684D61+  "TwitchMa"
8154  726B6564456E656D+  "rkedEnem"
815C  79496E666F00       "yInfo\0"
                         const [1]: "TwitchMarkedEnemyInfo"
8162  00                 const type 0
                         const [2]: nil
8163  04                 const type 4
8164  0B                 string size (11)
8165  6747616D6552756C+  "gGameRul"
816D  657300             "es\0"
                         const [3]: "gGameRules"
8170  01                 const type 3
8171  4ECAAEA8           const [4]: (-1464939954)
8175  04                 const type 4
8176  17                 string size (23)
8177  656E656D79537061+  "enemySpa"
817F  776E5472616E736D+  "wnTransm"
8187  697373696F6E00     "ission\0"
                         const [5]: "enemySpawnTransmission"
818E  01                 const type 3
818F  BB3AA4CA           const [6]: (-895206725)
8193  04                 const type 4
8194  10                 string size (16)
8195  656E656D794D6172+  "enemyMar"
819D  6B65725479706500   "kerType\0"
                         const [7]: "enemyMarkerType"
81A5  01                 const type 3
81A6  F26E43AB           const [8]: (-1421644046)
81AA  01                 const type 3
81AB  1A4B27EC           const [9]: (-332969190)
81AF  04                 const type 4
81B0  0F                 string size (15)
81B1  47414D455F43315F+  "GAME_C1_"
81B9  5350494E453200     "SPINE2\0"
                         const [10]: "GAME_C1_SPINE2"
81C0  01                 const type 3
81C1  00971C22           const [11]: (572299008)
81C5  03                 const type 3
81C6  00000000           const [12]: (0)
81CA  03                 const type 3
81CB  0000003F           const [13]: (0)
81CF  04                 const type 4
81D0  07                 string size (7)
81D1  66784175726100     "fxAura\0"
                         const [14]: "fxAura"
81D8  04                 const type 4
81D9  0D                 string size (13)
81DA  454D5054595F5359+  "EMPTY_SY"
81E2  4D424F4C00         "MBOL\0"
                         const [15]: "EMPTY_SYMBOL"
81E7  04                 const type 4
81E8  0E                 string size (14)
81E9  506172746E657250+  "PartnerP"
81F1  6C6179657200       "layer\0"
                         const [16]: "PartnerPlayer"
81F7  01                 const type 3
81F8  9B06F6A3           const [17]: (-1544157541)
81FC  01                 const type 3
81FD  7E97C4C4           const [18]: (-993749122)
8201  01                 const type 3
8202  0344B180           const [19]: (-2135866365)
8206  04                 const type 4
8207  12                 string size (18)
8208  5477697463684D61+  "TwitchMa"
8210  726B6564456E656D+  "rkedEnem"
8218  7900               "y\0"
                         const [20]: "TwitchMarkedEnemy"
                         * functions:
821A  00                 sizep (0)
                         * lines:
821B  2F                 sizelineinfo (47)
                         [pc] (line)
821C  3E                 [01] (62)
821D  04                 [02] (62)
821E  00                 [03] (62)
821F  00                 [04] (62)
8220  3E                 [05] (63)
8221  04                 [06] (63)
8222  00                 [07] (63)
8223  00                 [08] (63)
8224  3E                 [09] (63)
8225  04                 [10] (63)
8226  00                 [11] (65)
8227  00                 [12] (65)
8228  3E                 [13] (65)
8229  04                 [14] (65)
822A  00                 [15] (65)
822B  00                 [16] (66)
822C  3F                 [17] (66)
822D  04                 [18] (66)
822E  00                 [19] (66)
822F  00                 [20] (66)
8230  3F                 [21] (66)
8231  04                 [22] (66)
8232  00                 [23] (66)
8233  00                 [24] (66)
8234  3F                 [25] (66)
8235  04                 [26] (66)
8236  00                 [27] (67)
8237  00                 [28] (67)
8238  3F                 [29] (67)
8239  04                 [30] (67)
823A  00                 [31] (67)
823B  00                 [32] (67)
823C  3F                 [33] (69)
823D  04                 [34] (69)
823E  00                 [35] (69)
823F  00                 [36] (69)
8240  3F                 [37] (70)
8241  04                 [38] (70)
8242  00                 [39] (70)
8243  00                 [40] (70)
8244  41                 [41] (70)
8245  04                 [42] (70)
8246  00                 [43] (70)
8247  00                 [44] (70)
8248  41                 [45] (73)
8249  04                 [46] (73)
824A  00                 [47] (75)
                         * locals:
82D8  00                 sizelocvars (0)
                         * upvalues:
82D9  00                 sizeupvalues (0)
                         ** end of function **

                         
82DA                     ** function [28] definition (level 2)
                         ** start of function **
82DA  00                 string size (0)
                         source name: (none)
82DC  08                 line defined (1101)
82DD  F4                 last line defined (1140)
82DE  08                 nups (1)
82DF  01                 numparams (1)
82E0  01                 is_vararg (0)
82E1  00                 maxstacksize (26)
                         * code:
82E3  79                 sizecode (121)
82E4  5D000000           [001] getglobal  1   0        ; 538022378
82E8  99400000           [002] loadk      2   1        ; 0
82EC  62400001           [003] call       1   2   1  
82F0  5D800000           [004] getglobal  1   2        ; 1074689893
82F4  92000000           [005] move       2   0      
82F8  62800001           [006] call       1   2   2  
82FC  58000000           [007] test       1       0    ; to [9] if true
8300  1A000080           [008] jmp        1            ; to [10]
8304  1E008000           [009] return     0   1      
8308  59400000           [010] loadk      1   1        ; 0
830C  9DC00000           [011] getglobal  2   3        ; gRegion
8310  A4004101           [012] self       2   2   260  ; 152279552
8314  1D410100           [013] getglobal  4   5        ; gLotusNpcAvatarType
8318  A2808001           [014] call       2   3   2  
831C  DD800100           [015] getglobal  3   6        ; 248503575
8320  12010001           [016] move       4   2      
8324  E2000101           [017] call       3   2   4  
8328  1A400480           [018] jmp        18           ; to [37]
832C  1D820000           [019] getglobal  8   2        ; 1074689893
8330  64C2C103           [020] self       9   7   263  ; -1411785325
8334  62020001           [021] call       9   2   0  
8338  22820000           [022] call       8   0   2  
833C  18420000           [023] test       8       1    ; to [25] if false
8340  1AC00280           [024] jmp        12           ; to [37]
8344  24C2C103           [025] self       8   7   263  ; -1411785325
8348  22820001           [026] call       8   2   2  
834C  24024204           [027] self       8   8   264  ; -1957065004
8350  93020000           [028] getupval   10  0      
8354  22828001           [029] call       8   3   2  
8358  18020000           [030] test       8       0    ; to [32] if true
835C  1A000180           [031] jmp        5            ; to [37]
8360  2442C203           [032] self       8   7   265  ; 1511086594
8364  22820001           [033] call       8   2   2  
8368  18420000           [034] test       8       1    ; to [36] if false
836C  1A000080           [035] jmp        1            ; to [37]
8370  4380C200           [036] add        1   1   266  ; 0
8374  D6800000           [037] tforloop   3       2    ; to [39] if exit
8378  1AC0FA7F           [038] jmp        -20          ; to [19]
837C  1DC20200           [039] getglobal  8   11       ; math
8380  0E024304           [040] gettable   8   8   268  ; -1124579617
8384  5DC20000           [041] getglobal  9   3        ; gRegion
8388  6442C304           [042] self       9   9   269  ; 1395335411
838C  62820001           [043] call       9   2   2  
8390  5C82C304           [044] div        9   9   270  ; 0
8394  22820001           [045] call       8   2   2  
fail op	33
8398  21400004           [046] tforloop   0       1    ; to [48] if exit
839C  1A000080           [047] jmp        1            ; to [49]
83A0  1E008000           [048] return     0   1      
83A4  19820200           [049] loadk      8   10       ; 0
83A8  5DC20000           [050] getglobal  9   3        ; gRegion
83AC  64C2C304           [051] self       9   9   271  ; -774964848
83B0  62820001           [052] call       9   2   2  
83B4  6402C404           [053] self       9   9   272  ; 537471347
83B8  62820001           [054] call       9   2   2  
83BC  99820200           [055] loadk      10  10       ; 0
83C0  D2020004           [056] move       11  8      
83C4  19830200           [057] loadk      12  10       ; 0
83C8  90020F80           [058] forprep    10  61       ; to [120]
83CC  A443C404           [059] self       14  9   273  ; -2120903900
83D0  1D840400           [060] getglobal  16  18       ; -895206725
83D4  53040000           [061] getupval   17  0      
83D8  22840001           [062] call       16  2   2  
83DC  52040000           [063] move       17  0      
83E0  99840200           [064] loadk      18  10       ; 0
83E4  E4C44100           [065] self       19  0   263  ; -1411785325
83E8  E2840001           [066] call       19  2   2  
83EC  E4C4C409           [067] self       19  19  275  ; 1653689631
83F0  E2840001           [068] call       19  2   2  
83F4  24C54100           [069] self       20  0   263  ; -1411785325
83F8  22850001           [070] call       20  2   2  
83FC  2405450A           [071] self       20  20  276  ; 1983029550
8400  22850001           [072] call       20  2   2  
8404  4605800A           [073] loadnil    21  21     
8408  9D450500           [074] getglobal  22  21       ; Engine
840C  8E85450B           [075] gettable   22  22  278  ; "STANDARD"
8410  D9450000           [076] loadk      23  1        ; 0
8414  17060000           [077] loadbool   24  0   0    ; false
8418  59C60500           [078] loadk      25  23       ; 102
841C  A2830006           [079] call       14  12  2  
8420  DD830000           [080] getglobal  15  2        ; 1074689893
8424  12040007           [081] move       16  14     
8428  E2830001           [082] call       15  2   2  
842C  D8430000           [083] test       15      1    ; to [85] if false
8430  1A800880           [084] jmp        35           ; to [120]
8434  E4034607           [085] self       15  14  280  ; -2135866365
8438  E2830001           [086] call       15  2   2  
843C  2444C607           [087] self       16  15  281  ; -1917464545
8440  22840001           [088] call       16  2   2  
8444  64844608           [089] self       17  16  282  ; 991629753
8448  DDC40600           [090] getglobal  19  27       ; Game
844C  CE04C709           [091] gettable   19  19  284  ; "AVATAR_HEALTH_MAX"
8450  1DC50600           [092] getglobal  20  27       ; Game
8454  0E45470A           [093] gettable   20  20  285  ; "STACKING_MULTIPLY"
8458  59850700           [094] loadk      21  30       ; 0
845C  62448002           [095] call       17  5   1  
8460  64844608           [096] self       17  16  282  ; 991629753
8464  DDC40600           [097] getglobal  19  27       ; Game
8468  CEC4C709           [098] gettable   19  19  287  ; "AVATAR_INJURY_BLOCK_CHANCE"
846C  1DC50600           [099] getglobal  20  27       ; Game
8470  0E05480A           [100] gettable   20  20  288  ; "SET"
8474  59850200           [101] loadk      21  10       ; 0
8478  62448002           [102] call       17  5   1  
847C  6444C807           [103] self       17  15  289  ; -1338608417
8480  E4844800           [104] self       19  0   290  ; -2031737093
8484  E2040001           [105] call       19  2   0  
8488  62440000           [106] call       17  0   1  
848C  64C4C807           [107] self       17  15  291  ; 1009327987
8490  62440001           [108] call       17  2   1  
8494  6404C907           [109] self       17  15  292  ; 1992436207
8498  E444C907           [110] self       19  15  293  ; 945541886
849C  E2040001           [111] call       19  2   0  
84A0  62440000           [112] call       17  0   1  
84A4  6444C807           [113] self       17  15  289  ; -1338608417
84A8  E484C804           [114] self       19  9   290  ; -2031737093
84AC  59450000           [115] loadk      21  1        ; 0
84B0  E2048001           [116] call       19  3   0  
84B4  62440000           [117] call       17  0   1  
84B8  5D840900           [118] getglobal  17  38       ; _T
84BC  4C04CA93           [119] settable   17  295 296  ; "EliteDroneSpawnTimer" 0
84C0  9442F07F           [120] forloop    10  -62      ; to [59] if loop
84C4  1E008000           [121] return     0   1      
                         * constants:
84C8  29                 sizek (41)
84C9  01                 const type 3
84CA  EA911120           const [0]: (538022378)
84CE  03                 const type 3
84CF  00000000           const [1]: (0)
84D3  01                 const type 3
84D4  65770E40           const [2]: (1074689893)
84D8  04                 const type 4
84D9  08                 string size (8)
84DA  67526567696F6E00   "gRegion\0"
                         const [3]: "gRegion"
84E2  01                 const type 3
84E3  009A1309           const [4]: (152279552)
84E7  04                 const type 4
84E8  14                 string size (20)
84E9  674C6F7475734E70+  "gLotusNp"
84F1  6341766174617254+  "cAvatarT"
84F9  79706500           "ype\0"
                         const [5]: "gLotusNpcAvatarType"
84FD  01                 const type 3
84FE  17DDCF0E           const [6]: (248503575)
8502  01                 const type 3
8503  93DDD9AB           const [7]: (-1411785325)
8507  01                 const type 3
8508  D48E598B           const [8]: (-1957065004)
850C  01                 const type 3
850D  025A115A           const [9]: (1511086594)
8511  03                 const type 3
8512  0000803F           const [10]: (0)
8516  04                 const type 4
8517  05                 string size (5)
8518  6D61746800         "math\0"
                         const [11]: "math"
851D  01                 const type 3
851E  DF46F8BC           const [12]: (-1124579617)
8522  01                 const type 3
8523  F3202B53           const [13]: (1395335411)
8527  03                 const type 3
8528  0000C03F           const [14]: (0)
852C  01                 const type 3
852D  90F9CED1           const [15]: (-774964848)
8531  01                 const type 3
8532  73290920           const [16]: (537471347)
8536  01                 const type 3
8537  24939581           const [17]: (-2120903900)
853B  01                 const type 3
853C  BB3AA4CA           const [18]: (-895206725)
8540  01                 const type 3
8541  1F4D9162           const [19]: (1653689631)
8545  01                 const type 3
8546  2EA13276           const [20]: (1983029550)
854A  04                 const type 4
854B  07                 string size (7)
854C  456E67696E6500     "Engine\0"
                         const [21]: "Engine"
8553  04                 const type 4
8554  09                 string size (9)
8555  5354414E44415244+  "STANDARD"
855D  00                 "\0"
                         const [22]: "STANDARD"
855E  03                 const type 3
855F  6666E63F           const [23]: (102)
8563  01                 const type 3
8564  0344B180           const [24]: (-2135866365)
8568  01                 const type 3
8569  1FD0B58D           const [25]: (-1917464545)
856D  01                 const type 3
856E  B9111B3B           const [26]: (991629753)
8572  04                 const type 4
8573  05                 string size (5)
8574  47616D6500         "Game\0"
                         const [27]: "Game"
8579  04                 const type 4
857A  12                 string size (18)
857B  4156415441525F48+  "AVATAR_H"
8583  45414C54485F4D41+  "EALTH_MA"
858B  5800               "X\0"
                         const [28]: "AVATAR_HEALTH_MAX"
858D  04                 const type 4
858E  12                 string size (18)
858F  535441434B494E47+  "STACKING"
8597  5F4D554C5449504C+  "_MULTIPL"
859F  5900               "Y\0"
                         const [29]: "STACKING_MULTIPLY"
85A1  03                 const type 3
85A2  00008040           const [30]: (0)
85A6  04                 const type 4
85A7  1B                 string size (27)
85A8  4156415441525F49+  "AVATAR_I"
85B0  4E4A5552595F424C+  "NJURY_BL"
85B8  4F434B5F4348414E+  "OCK_CHAN"
85C0  434500             "CE\0"
                         const [31]: "AVATAR_INJURY_BLOCK_CHANCE"
85C3  04                 const type 4
85C4  04                 string size (4)
85C5  53455400           "SET\0"
                         const [32]: "SET"
85C9  01                 const type 3
85CA  DF7436B0           const [33]: (-1338608417)
85CE  01                 const type 3
85CF  FB26E686           const [34]: (-2031737093)
85D3  01                 const type 3
85D4  731F293C           const [35]: (1009327987)
85D8  01                 const type 3
85D9  EF29C276           const [36]: (1992436207)
85DD  01                 const type 3
85DE  FED25B38           const [37]: (945541886)
85E2  04                 const type 4
85E3  03                 string size (3)
85E4  5F5400             "_T\0"
                         const [38]: "_T"
85E7  04                 const type 4
85E8  15                 string size (21)
85E9  456C69746544726F+  "EliteDro"
85F1  6E65537061776E54+  "neSpawnT"
85F9  696D657200         "imer\0"
                         const [39]: "EliteDroneSpawnTimer"
85FE  03                 const type 3
85FF  0000F041           const [40]: (0)
                         * functions:
8603  00                 sizep (0)
                         * lines:
8604  79                 sizelineinfo (121)
                         [pc] (line)
8605  4E                 [001] (78)
8606  04                 [002] (78)
8607  00                 [003] (78)
8608  00                 [004] (80)
8609  4E                 [005] (80)
860A  04                 [006] (80)
860B  00                 [007] (80)
860C  00                 [008] (80)
860D  4E                 [009] (81)
860E  04                 [010] (84)
860F  00                 [011] (85)
8610  00                 [012] (85)
8611  50                 [013] (85)
8612  04                 [014] (85)
8613  00                 [015] (86)
8614  00                 [016] (86)
8615  50                 [017] (86)
8616  04                 [018] (86)
8617  00                 [019] (87)
8618  00                 [020] (87)
8619  50                 [021] (87)
861A  04                 [022] (87)
861B  00                 [023] (87)
861C  00                 [024] (87)
861D  50                 [025] (87)
861E  04                 [026] (87)
861F  00                 [027] (87)
8620  00                 [028] (87)
8621  50                 [029] (87)
8622  04                 [030] (87)
8623  00                 [031] (87)
8624  00                 [032] (87)
8625  51                 [033] (87)
8626  04                 [034] (87)
8627  00                 [035] (87)
8628  00                 [036] (88)
8629  54                 [037] (86)
862A  04                 [038] (89)
862B  00                 [039] (92)
862C  00                 [040] (92)
862D  55                 [041] (92)
862E  04                 [042] (92)
862F  00                 [043] (92)
8630  00                 [044] (92)
8631  55                 [045] (92)
8632  04                 [046] (92)
8633  00                 [047] (92)
8634  00                 [048] (93)
8635  55                 [049] (96)
8636  04                 [050] (98)
8637  00                 [051] (98)
8638  00                 [052] (98)
8639  55                 [053] (98)
863A  04                 [054] (98)
863B  00                 [055] (99)
863C  00                 [056] (99)
863D  56                 [057] (99)
863E  04                 [058] (99)
863F  00                 [059] (100)
8640  00                 [060] (100)
8641  56                 [061] (100)
8642  04                 [062] (100)
8643  00                 [063] (100)
8644  00                 [064] (100)
8645  56                 [065] (100)
8646  04                 [066] (100)
8647  00                 [067] (100)
8648  00                 [068] (100)
8649  56                 [069] (100)
864A  04                 [070] (100)
864B  00                 [071] (100)
864C  00                 [072] (100)
864D  57                 [073] (100)
864E  04                 [074] (100)
864F  00                 [075] (100)
8650  00                 [076] (100)
8651  57                 [077] (100)
8652  04                 [078] (100)
8653  00                 [079] (100)
8654  00                 [080] (101)
8655  57                 [081] (101)
8656  04                 [082] (101)
8657  00                 [083] (101)
8658  00                 [084] (101)
8659  57                 [085] (102)
865A  04                 [086] (102)
865B  00                 [087] (103)
865C  00                 [088] (103)
865D  57                 [089] (105)
865E  04                 [090] (105)
865F  00                 [091] (105)
8660  00                 [092] (105)
8661  57                 [093] (105)
8662  04                 [094] (105)
8663  00                 [095] (105)
8664  00                 [096] (106)
8665  57                 [097] (106)
8666  04                 [098] (106)
8667  00                 [099] (106)
8668  00                 [100] (106)
8669  57                 [101] (106)
866A  04                 [102] (106)
866B  00                 [103] (108)
866C  00                 [104] (108)
866D  57                 [105] (108)
866E  04                 [106] (108)
866F  00                 [107] (109)
8670  00                 [108] (109)
8671  57                 [109] (110)
8672  04                 [110] (110)
8673  00                 [111] (110)
8674  00                 [112] (110)
8675  57                 [113] (111)
8676  04                 [114] (111)
8677  00                 [115] (111)
8678  00                 [116] (111)
8679  57                 [117] (111)
867A  04                 [118] (113)
867B  00                 [119] (113)
867C  00                 [120] (99)
867D  57                 [121] (116)
                         * locals:
87E9  00                 sizelocvars (0)
                         * upvalues:
87EA  00                 sizeupvalues (0)
                         ** end of function **

                         
87EB                     ** function [29] definition (level 2)
                         ** start of function **
87EB  00                 string size (0)
                         source name: (none)
87ED  08                 line defined (1142)
87EE  93                 last line defined (1171)
87EF  09                 nups (1)
87F0  01                 numparams (1)
87F1  01                 is_vararg (0)
87F2  00                 maxstacksize (8)
                         * code:
87F4  3D                 sizecode (61)
87F5  5D000000           [01] getglobal  1   0        ; 1074689893
87F9  92000000           [02] move       2   0      
87FD  62800001           [03] call       1   2   2  
8801  58000000           [04] test       1       0    ; to [6] if true
8805  1A000080           [05] jmp        1            ; to [7]
8809  1E008000           [06] return     0   1      
880D  64404000           [07] self       1   0   257  ; 1839670529
8811  62800001           [08] call       1   2   2  
8815  A4804000           [09] self       2   0   258  ; 945541886
8819  A2800001           [10] call       2   2   2  
881D  DDC00000           [11] getglobal  3   3        ; 538022378
8821  19010100           [12] loadk      4   4        ; 0
8825  E2400001           [13] call       3   2   1  
8829  DD400100           [14] getglobal  3   5        ; gRegion
882D  E480C101           [15] self       3   3   262  ; -1110225722
8831  5DC10100           [16] getglobal  5   7        ; -895206725
8835  93010000           [17] getupval   6   0      
8839  62810001           [18] call       5   2   2  
883D  92018000           [19] move       6   1      
8841  DD010200           [20] getglobal  7   8        ; ZERO_ROTATION
8845  E2408002           [21] call       3   5   1  
8849  DDC00000           [22] getglobal  3   3        ; 538022378
884D  19010100           [23] loadk      4   4        ; 0
8851  E2400001           [24] call       3   2   1  
8855  DD400200           [25] getglobal  3   9        ; Engine
8859  CE80C201           [26] gettable   3   3   266  ; 697389864
885D  E2808000           [27] call       3   1   2  
8861  CC808085           [28] settable   3   267 2    ; "baseAmount"
8865  CC404386           [29] settable   3   268 269  ; "radius" 0
8869  CCC04387           [30] settable   3   270 271  ; "baseProcChance" 0
886D  CC404488           [31] settable   3   272 273  ; "hostAuthoritative" 1
8871  1DC10400           [32] getglobal  4   19       ; _T
8875  0E014502           [33] gettable   4   4   276  ; "EliteAlertDroneKiller"
8879  CC000189           [34] settable   3   274 4    ; "ignoreEntity"
887D  CC80C58A           [35] settable   3   277 278  ; "checkForCover" 0
8881  CC40C48B           [36] settable   3   279 273  ; "hitAirborneTargets" 1
8885  2401C601           [37] self       4   3   280  ; -420630141
8889  9DC10400           [38] getglobal  6   19       ; _T
888D  8E014503           [39] gettable   6   6   276  ; "EliteAlertDroneKiller"
8891  22418001           [40] call       4   3   1  
8895  2441C601           [41] self       4   3   281  ; 1784265504
8899  92018000           [42] move       6   1      
889D  22418001           [43] call       4   3   1  
88A1  2481C601           [44] self       4   3   282  ; -995861768
88A5  9D410200           [45] getglobal  6   9        ; Engine
88A9  8EC14603           [46] gettable   6   6   283  ; "DT_EXPLOSION"
88AD  D9C10300           [47] loadk      7   15       ; 0
88B1  22410002           [48] call       4   4   1  
88B5  2401C701           [49] self       4   3   284  ; 862075383
88B9  99410700           [50] loadk      6   29       ; 0
88BD  22418001           [51] call       4   3   1  
88C1  2481C701           [52] self       4   3   286  ; 1398603399
88C5  9DC10700           [53] getglobal  6   31       ; Game
88C9  8E014803           [54] gettable   6   6   288  ; "PT_KNOCKED_DOWN"
88CD  D7018000           [55] loadbool   7   1   0    ; true
88D1  22410002           [56] call       4   4   1  
88D5  1D410100           [57] getglobal  4   5        ; gRegion
88D9  24414802           [58] self       4   4   289  ; 1271047331
88DD  92018001           [59] move       6   3      
88E1  22418001           [60] call       4   3   1  
88E5  1E008000           [61] return     0   1      
                         * constants:
88E9  22                 sizek (34)
88EA  01                 const type 3
88EB  65770E40           const [0]: (1074689893)
88EF  01                 const type 3
88F0  0125A76D           const [1]: (1839670529)
88F4  01                 const type 3
88F5  FED25B38           const [2]: (945541886)
88F9  01                 const type 3
88FA  EA911120           const [3]: (538022378)
88FE  03                 const type 3
88FF  00000000           const [4]: (0)
8903  04                 const type 4
8904  08                 string size (8)
8905  67526567696F6E00   "gRegion\0"
                         const [5]: "gRegion"
890D  01                 const type 3
890E  C64CD3BD           const [6]: (-1110225722)
8912  01                 const type 3
8913  BB3AA4CA           const [7]: (-895206725)
8917  04                 const type 4
8918  0E                 string size (14)
8919  5A45524F5F524F54+  "ZERO_ROT"
8921  4154494F4E00       "ATION\0"
                         const [8]: "ZERO_ROTATION"
8927  04                 const type 4
8928  07                 string size (7)
8929  456E67696E6500     "Engine\0"
                         const [9]: "Engine"
8930  01                 const type 3
8931  28539129           const [10]: (697389864)
8935  04                 const type 4
8936  0B                 string size (11)
8937  62617365416D6F75+  "baseAmou"
893F  6E7400             "nt\0"
                         const [11]: "baseAmount"
8942  04                 const type 4
8943  07                 string size (7)
8944  72616469757300     "radius\0"
                         const [12]: "radius"
894B  03                 const type 3
894C  0000A041           const [13]: (0)
8950  04                 const type 4
8951  0F                 string size (15)
8952  6261736550726F63+  "baseProc"
895A  4368616E636500     "Chance\0"
                         const [14]: "baseProcChance"
8961  03                 const type 3
8962  0000803F           const [15]: (0)
8966  04                 const type 4
8967  12                 string size (18)
8968  686F737441757468+  "hostAuth"
8970  6F72697461746976+  "oritativ"
8978  6500               "e\0"
                         const [16]: "hostAuthoritative"
897A  01                 const type 3
897B  01000000           const [17]: (1)
897F  04                 const type 4
8980  0D                 string size (13)
8981  69676E6F7265456E+  "ignoreEn"
8989  7469747900         "tity\0"
                         const [18]: "ignoreEntity"
898E  04                 const type 4
898F  03                 string size (3)
8990  5F5400             "_T\0"
                         const [19]: "_T"
8993  04                 const type 4
8994  16                 string size (22)
8995  456C697465416C65+  "EliteAle"
899D  727444726F6E654B+  "rtDroneK"
89A5  696C6C657200       "iller\0"
                         const [20]: "EliteAlertDroneKiller"
89AB  04                 const type 4
89AC  0E                 string size (14)
89AD  636865636B466F72+  "checkFor"
89B5  436F76657200       "Cover\0"
                         const [21]: "checkForCover"
89BB  01                 const type 3
89BC  00000000           const [22]: (0)
89C0  04                 const type 4
89C1  13                 string size (19)
89C2  686974416972626F+  "hitAirbo"
89CA  726E655461726765+  "rneTarge"
89D2  747300             "ts\0"
                         const [23]: "hitAirborneTargets"
89D5  01                 const type 3
89D6  83B1EDE6           const [24]: (-420630141)
89DA  01                 const type 3
89DB  20BB596A           const [25]: (1784265504)
89DF  01                 const type 3
89E0  F85AA4C4           const [26]: (-995861768)
89E4  04                 const type 4
89E5  0D                 string size (13)
89E6  44545F4558504C4F+  "DT_EXPLO"
89EE  53494F4E00         "SION\0"
                         const [27]: "DT_EXPLOSION"
89F3  01                 const type 3
89F4  F7396233           const [28]: (862075383)
89F8  03                 const type 3
89F9  0000C842           const [29]: (0)
89FD  01                 const type 3
89FE  87FE5C53           const [30]: (1398603399)
8A02  04                 const type 4
8A03  05                 string size (5)
8A04  47616D6500         "Game\0"
                         const [31]: "Game"
8A09  04                 const type 4
8A0A  10                 string size (16)
8A0B  50545F4B4E4F434B+  "PT_KNOCK"
8A13  45445F444F574E00   "ED_DOWN\0"
                         const [32]: "PT_KNOCKED_DOWN"
8A1B  01                 const type 3
8A1C  A3A4C24B           const [33]: (1271047331)
                         * functions:
8A20  00                 sizep (0)
                         * lines:
8A21  3D                 sizelineinfo (61)
                         [pc] (line)
8A22  77                 [01] (119)
8A23  04                 [02] (119)
8A24  00                 [03] (119)
8A25  00                 [04] (119)
8A26  77                 [05] (119)
8A27  04                 [06] (120)
8A28  00                 [07] (123)
8A29  00                 [08] (123)
8A2A  77                 [09] (124)
8A2B  04                 [10] (124)
8A2C  00                 [11] (126)
8A2D  00                 [12] (126)
8A2E  77                 [13] (126)
8A2F  04                 [14] (-128)
8A30  00                 [15] (-128)
8A31  00                 [16] (-128)
8A32  77                 [17] (-128)
8A33  04                 [18] (-128)
8A34  00                 [19] (-128)
8A35  00                 [20] (-128)
8A36  78                 [21] (-128)
8A37  04                 [22] (-126)
8A38  00                 [23] (-126)
8A39  00                 [24] (-126)
8A3A  7B                 [25] (-124)
8A3B  04                 [26] (-124)
8A3C  00                 [27] (-124)
8A3D  00                 [28] (-123)
8A3E  7B                 [29] (-122)
8A3F  04                 [30] (-121)
8A40  00                 [31] (-120)
8A41  00                 [32] (-119)
8A42  7C                 [33] (-119)
8A43  04                 [34] (-119)
8A44  00                 [35] (-118)
8A45  00                 [36] (-117)
8A46  7C                 [37] (-116)
8A47  04                 [38] (-116)
8A48  00                 [39] (-116)
8A49  00                 [40] (-116)
8A4A  7E                 [41] (-115)
8A4B  04                 [42] (-115)
8A4C  00                 [43] (-115)
8A4D  00                 [44] (-114)
8A4E  7E                 [45] (-114)
8A4F  04                 [46] (-114)
8A50  00                 [47] (-114)
8A51  00                 [48] (-114)
8A52  7E                 [49] (-113)
8A53  04                 [50] (-113)
8A54  00                 [51] (-113)
8A55  00                 [52] (-112)
8A56  80                 [53] (-112)
8A57  04                 [54] (-112)
8A58  00                 [55] (-112)
8A59  00                 [56] (-112)
8A5A  80                 [57] (-110)
8A5B  04                 [58] (-110)
8A5C  00                 [59] (-110)
8A5D  00                 [60] (-110)
8A5E  80                 [61] (-109)
                         * locals:
8B16  00                 sizelocvars (0)
                         * upvalues:
8B17  00                 sizeupvalues (0)
                         ** end of function **

                         
8B18                     ** function [30] definition (level 2)
                         ** start of function **
8B18  00                 string size (0)
                         source name: (none)
8B1A  09                 line defined (1173)
8B1B  FC                 last line defined (1276)
8B1C  09                 nups (6)
8B1D  06                 numparams (2)
8B1E  02                 is_vararg (0)
8B1F  00                 maxstacksize (24)
                         * code:
8B22  03                 sizecode (399)
8B23  9D000000           [001] getglobal  2   0        ; _T
8B27  8E404001           [002] gettable   2   2   257  ; "IsCorpusSortieMission"
fail op	35
8B2B  23804001           [003] close      0  
8B2F  1AC00380           [004] jmp        16           ; to [21]
8B33  9D000000           [005] getglobal  2   0        ; _T
8B37  DDC00000           [006] getglobal  3   3        ; gGameRules
8B3B  E400C101           [007] self       3   3   260  ; 1280353250
8B3F  E2800001           [008] call       3   2   2  
8B43  D8000000           [009] test       3       0    ; to [11] if true
8B47  1A000280           [010] jmp        9            ; to [20]
8B4B  DDC00000           [011] getglobal  3   3        ; gGameRules
8B4F  E440C101           [012] self       3   3   261  ; -1342647479
8B53  E2800001           [013] call       3   2   2  
8B57  1D810100           [014] getglobal  4   6        ; Lotus_Game
8B5B  0EC14102           [015] gettable   4   4   263  ; "FC_CORPUS"
fail op	35
8B5F  63008101           [016] close      1  
8B63  1A000080           [017] jmp        1            ; to [19]
8B67  D7400000           [018] loadbool   3   0   1    ; false, to [20]
8B6B  D7008000           [019] loadbool   3   1   0    ; true
8B6F  8CC08080           [020] settable   2   257 3    ; "IsCorpusSortieMission"
8B73  9D000000           [021] getglobal  2   0        ; _T
8B77  8E004201           [022] gettable   2   2   264  ; "IsMissionBuilderMission"
fail op	35
8B7B  23804001           [023] close      0  
8B7F  1A800280           [024] jmp        11           ; to [36]
8B83  9D000000           [025] getglobal  2   0        ; _T
8B87  DDC00000           [026] getglobal  3   3        ; gGameRules
8B8B  E440C201           [027] self       3   3   265  ; -1201441975
8B8F  E2800001           [028] call       3   2   2  
8B93  CE80C201           [029] gettable   3   3   266  ; "goalTag"
8B97  13010000           [030] getupval   4   0      
fail op	35
8B9B  63008101           [031] close      1  
8B9F  1A000080           [032] jmp        1            ; to [34]
8BA3  D7400000           [033] loadbool   3   0   1    ; false, to [35]
8BA7  D7008000           [034] loadbool   3   1   0    ; true
8BAB  8CC00084           [035] settable   2   264 3    ; "IsMissionBuilderMission"
8BAF  9D000000           [036] getglobal  2   0        ; _T
8BB3  8E404001           [037] gettable   2   2   257  ; "IsCorpusSortieMission"
8BB7  98000000           [038] test       2       0    ; to [40] if true
8BBB  1A000780           [039] jmp        29           ; to [69]
8BBF  A4C0C200           [040] self       2   1   267  ; -2135866365
8BC3  A2800001           [041] call       2   2   2  
8BC7  A4004301           [042] self       2   2   268  ; -1544157541
8BCB  A2800001           [043] call       2   2   2  
8BCF  A4404301           [044] self       2   2   269  ; 179043667
8BD3  1D810300           [045] getglobal  4   14       ; Game
8BD7  0EC14302           [046] gettable   4   4   271  ; "AVATAR_DAMAGE_RESISTANCE"
8BDB  5D810300           [047] getglobal  5   14       ; Game
8BDF  4E01C402           [048] gettable   5   5   272  ; "ADD"
8BE3  99410400           [049] loadk      6   17       ; 0
8BE7  C6010004           [050] loadnil    7   8      
8BEB  5D820400           [051] getglobal  9   18       ; Engine
8BEF  4EC2C404           [052] gettable   9   9   275  ; "DT_BASE_ELEMENTAL"
8BF3  A2400004           [053] call       2   8   1  
8BF7  A4C0C200           [054] self       2   1   267  ; -2135866365
8BFB  A2800001           [055] call       2   2   2  
8BFF  A4004301           [056] self       2   2   268  ; -1544157541
8C03  A2800001           [057] call       2   2   2  
8C07  A4404301           [058] self       2   2   269  ; 179043667
8C0B  1D810300           [059] getglobal  4   14       ; Game
8C0F  0EC14302           [060] gettable   4   4   271  ; "AVATAR_DAMAGE_RESISTANCE"
8C13  5D810300           [061] getglobal  5   14       ; Game
8C17  4E01C402           [062] gettable   5   5   272  ; "ADD"
8C1B  99410400           [063] loadk      6   17       ; 0
8C1F  C6010004           [064] loadnil    7   8      
8C23  5D820400           [065] getglobal  9   18       ; Engine
8C27  4E02C504           [066] gettable   9   9   276  ; "DT_COMPOUND_ELEMENTAL"
8C2B  A2400004           [067] call       2   8   1  
8C2F  1A800480           [068] jmp        19           ; to [88]
8C33  9D000000           [069] getglobal  2   0        ; _T
8C37  8E004201           [070] gettable   2   2   264  ; "IsMissionBuilderMission"
8C3B  98000000           [071] test       2       0    ; to [73] if true
8C3F  1A800380           [072] jmp        15           ; to [88]
8C43  A4C0C200           [073] self       2   1   267  ; -2135866365
8C47  A2800001           [074] call       2   2   2  
8C4B  A4404501           [075] self       2   2   277  ; -2031737093
8C4F  A2800001           [076] call       2   2   2  
8C53  D3008000           [077] getupval   3   1      
fail op	35
8C57  63C00001           [078] close      1  
8C5B  1AC00180           [079] jmp        8            ; to [88]
8C5F  A4C0C200           [080] self       2   1   267  ; -2135866365
8C63  A2800001           [081] call       2   2   2  
8C67  A4804501           [082] self       2   2   278  ; -1338608417
8C6B  24414200           [083] self       4   0   265  ; -1201441975
8C6F  22810001           [084] call       4   2   2  
8C73  24C14502           [085] self       4   4   279  ; -272348948
8C77  22010001           [086] call       4   2   0  
8C7B  A2400000           [087] call       2   0   1  
8C7F  A4004600           [088] self       2   0   280  ; -502414055
8C83  A2800001           [089] call       2   2   2  
8C87  DD800100           [090] getglobal  3   6        ; Lotus_Game
8C8B  CE40C601           [091] gettable   3   3   281  ; "MT_LANDSCAPE"
fail op	35
8C8F  63C00001           [092] close      1  
8C93  1A401080           [093] jmp        66           ; to [160]
8C97  DD800100           [094] getglobal  3   6        ; Lotus_Game
8C9B  CE80C601           [095] gettable   3   3   282  ; "MT_MASTERY"
fail op	35
8C9F  63C00001           [096] close      1  
8CA3  1A400F80           [097] jmp        62           ; to [160]
8CA7  DD800100           [098] getglobal  3   6        ; Lotus_Game
8CAB  CEC0C601           [099] gettable   3   3   283  ; "MT_RAID"
fail op	35
8CAF  63C00001           [100] close      1  
8CB3  1A400E80           [101] jmp        58           ; to [160]
8CB7  DD800100           [102] getglobal  3   6        ; Lotus_Game
8CBB  CE00C701           [103] gettable   3   3   284  ; "MT_RECOVERY"
fail op	35
8CBF  63C00001           [104] close      1  
8CC3  1A400D80           [105] jmp        54           ; to [160]
8CC7  DD000000           [106] getglobal  3   0        ; _T
8CCB  CE40C701           [107] gettable   3   3   285  ; "RelayEventTimerActive"
8CCF  D8000000           [108] test       3       0    ; to [110] if true
8CD3  1A400C80           [109] jmp        50           ; to [160]
8CD7  DD000000           [110] getglobal  3   0        ; _T
8CDB  CE80C701           [111] gettable   3   3   286  ; "RelayEventSpawnTimer"
fail op	33
8CDF  21C0C701           [112] tforloop   0       287  ; to [114] if exit
8CE3  1A400B80           [113] jmp        46           ; to [160]
8CE7  DD000800           [114] getglobal  3   32       ; 1074689893
8CEB  1D010000           [115] getglobal  4   0        ; _T
8CEF  0E414802           [116] gettable   4   4   289  ; "RelayEventTargetEnemy"
8CF3  E2800001           [117] call       3   2   2  
8CF7  D8000000           [118] test       3       0    ; to [120] if true
8CFB  1AC00980           [119] jmp        40           ; to [160]
8CFF  DD000000           [120] getglobal  3   0        ; _T
8D03  CE80C801           [121] gettable   3   3   290  ; "SecretMiniGameActive"
8D07  D8400000           [122] test       3       1    ; to [124] if false
8D0B  1AC00880           [123] jmp        36           ; to [160]
8D0F  E4C0C200           [124] self       3   1   267  ; -2135866365
8D13  E2800001           [125] call       3   2   2  
8D17  24414200           [126] self       4   0   265  ; -1201441975
8D1B  22810001           [127] call       4   2   2  
8D1F  64C1C801           [128] self       5   3   291  ; -1238811972
8D23  62810001           [129] call       5   2   2  
8D27  58410000           [130] test       5       1    ; to [132] if false
8D2B  1AC00680           [131] jmp        28           ; to [160]
8D2F  6441C501           [132] self       5   3   277  ; -2031737093
8D33  62810001           [133] call       5   2   2  
8D37  A4C14502           [134] self       6   4   279  ; -272348948
8D3B  A2810001           [135] call       6   2   2  
fail op	35
8D3F  23808102           [136] close      0  
8D43  1A400580           [137] jmp        22           ; to [160]
8D47  6401C900           [138] self       5   1   292  ; -1957065004
8D4B  CE414902           [139] gettable   7   4   293  ; "vipAgent"
8D4F  62818001           [140] call       5   3   2  
8D53  58410000           [141] test       5       1    ; to [143] if false
8D57  1A000480           [142] jmp        17           ; to [160]
8D5B  6481C900           [143] self       5   1   294  ; 1298798293
8D5F  62810001           [144] call       5   2   2  
8D63  58410000           [145] test       5       1    ; to [147] if false
8D67  1A000380           [146] jmp        13           ; to [160]
8D6B  5D010000           [147] getglobal  5   0        ; _T
8D6F  4EC1C902           [148] gettable   5   5   295  ; "InSimulacrum"
8D73  58410000           [149] test       5       1    ; to [151] if false
8D77  1A000280           [150] jmp        9            ; to [160]
8D7B  5DC10000           [151] getglobal  5   3        ; gGameRules
8D7F  6401C902           [152] self       5   5   292  ; -1957065004
8D83  DD010A00           [153] getglobal  7   40       ; gLotusPhotoBoothGameRulesType
8D87  62818001           [154] call       5   3   2  
8D8B  58410000           [155] test       5       1    ; to [157] if false
8D8F  1A800080           [156] jmp        3            ; to [160]
8D93  53010001           [157] getupval   5   2      
8D97  92018001           [158] move       6   3      
8D9B  62410001           [159] call       5   2   1  
8D9F  5DC10000           [160] getglobal  5   3        ; gGameRules
8DA3  6441C202           [161] self       5   5   265  ; -1201441975
8DA7  62810001           [162] call       5   2   2  
8DAB  4E41CA02           [163] gettable   5   5   297  ; "location"
8DAF  9D010800           [164] getglobal  6   32       ; 1074689893
8DB3  DD010000           [165] getglobal  7   0        ; _T
8DB7  CE81CA03           [166] gettable   7   7   298  ; "TwitchMarkedEnemy"
8DBB  A2810001           [167] call       6   2   2  
8DBF  98010000           [168] test       6       0    ; to [170] if true
8DC3  1A400A80           [169] jmp        42           ; to [212]
8DC7  9D010000           [170] getglobal  6   0        ; _T
8DCB  8EC14A03           [171] gettable   6   6   299  ; "TwitchMarkedEnemyActive"
8DCF  98010000           [172] test       6       0    ; to [174] if true
8DD3  1A400980           [173] jmp        38           ; to [212]
8DD7  9D010000           [174] getglobal  6   0        ; _T
8DDB  8E014B03           [175] gettable   6   6   300  ; "TwitchMarkedEnemyInfo"
8DDF  8E414B03           [176] gettable   6   6   301  ; "spawnChance"
8DE3  DD810B00           [177] getglobal  7   46       ; -1941280958
8DE7  19C20700           [178] loadk      8   31       ; 0
8DEB  59C20B00           [179] loadk      9   47       ; 0
8DEF  E2818001           [180] call       7   3   2  
fail op	21
8DF3  15808103           [181] concat     0   7   6  
8DF7  1A000780           [182] jmp        29           ; to [212]
8DFB  24C2C200           [183] self       8   1   267  ; -2135866365
8DFF  22820001           [184] call       8   2   2  
8E03  5D020000           [185] getglobal  9   0        ; _T
8E07  4EC2C904           [186] gettable   9   9   295  ; "InSimulacrum"
8E0B  58420000           [187] test       9       1    ; to [189] if false
8E0F  1A800580           [188] jmp        23           ; to [212]
8E13  5DC20000           [189] getglobal  9   3        ; gGameRules
8E17  6402C904           [190] self       9   9   292  ; -1957065004
8E1B  DD020A00           [191] getglobal  11  40       ; gLotusPhotoBoothGameRulesType
8E1F  62828001           [192] call       9   3   2  
8E23  58420000           [193] test       9       1    ; to [195] if false
8E27  1A000480           [194] jmp        17           ; to [212]
8E2B  5D020000           [195] getglobal  9   0        ; _T
8E2F  4E02CB04           [196] gettable   9   9   300  ; "TwitchMarkedEnemyInfo"
8E33  4E02CC04           [197] gettable   9   9   304  ; "acceptedAgentTypes"
8E37  99420C00           [198] loadk      10  49       ; 0
8E3B  CA028004           [199] len        11  9      
8E3F  19430C00           [200] loadk      12  49       ; 0
8E43  90020280           [201] forprep    10  9        ; to [211]
8E47  A403C900           [202] self       14  1   292  ; -1957065004
8E4B  0E448304           [203] gettable   16  9   13 
8E4F  A2838001           [204] call       14  3   2  
8E53  98030000           [205] test       14      0    ; to [207] if true
8E57  1AC00080           [206] jmp        4            ; to [211]
8E5B  93038001           [207] getupval   14  3      
8E5F  D2030004           [208] move       15  8      
8E63  A2430001           [209] call       14  2   1  
8E67  1A000080           [210] jmp        1            ; to [212]
8E6B  9442FD7F           [211] forloop    10  -10      ; to [202] if loop
8E6F  9D030000           [212] getglobal  14  0        ; _T
8E73  8E834C07           [213] gettable   14  14  306  ; "IsEliteAlert"
8E77  98030000           [214] test       14      0    ; to [216] if true
8E7B  1A800F80           [215] jmp        63           ; to [279]
8E7F  A4C3C200           [216] self       14  1   267  ; -2135866365
8E83  A2830001           [217] call       14  2   2  
8E87  E403C900           [218] self       15  1   292  ; -1957065004
8E8B  53040002           [219] getupval   17  4      
8E8F  E2838001           [220] call       15  3   2  
8E93  D8030000           [221] test       15      0    ; to [223] if true
8E97  1AC00480           [222] jmp        20           ; to [243]
8E9B  DD030800           [223] getglobal  15  32       ; 1074689893
8E9F  1D040000           [224] getglobal  16  0        ; _T
8EA3  0EC44C08           [225] gettable   16  16  307  ; "EliteAlertDroneList"
8EA7  E2830001           [226] call       15  2   2  
8EAB  D8030000           [227] test       15      0    ; to [229] if true
8EAF  1A800080           [228] jmp        3            ; to [232]
8EB3  DD030000           [229] getglobal  15  0        ; _T
8EB7  0B040000           [230] newtable   16  0   0    ; array=0, hash=0
8EBB  CC038499           [231] settable   15  307 16   ; "EliteAlertDroneList"
8EBF  DD030D00           [232] getglobal  15  52       ; table
8EC3  CE43CD07           [233] gettable   15  15  309  ; -431682403
8EC7  1D040000           [234] getglobal  16  0        ; _T
8ECB  0EC44C08           [235] gettable   16  16  307  ; "EliteAlertDroneList"
8ECF  4B840000           [236] newtable   17  0   2    ; array=0, hash=2
8ED3  4C44009B           [237] settable   17  310 1    ; "droneAgent"
8ED7  9D040E00           [238] getglobal  18  56       ; 1491452635
8EDB  A2848000           [239] call       18  1   2  
8EDF  4C84849B           [240] settable   17  311 18   ; "creationTime"
8EE3  E2438001           [241] call       15  3   1  
8EE7  1AC00880           [242] jmp        36           ; to [279]
8EEB  E4C34807           [243] self       15  14  291  ; -1238811972
8EEF  E2830001           [244] call       15  2   2  
8EF3  D8430000           [245] test       15      1    ; to [247] if false
8EF7  1AC00780           [246] jmp        32           ; to [279]
8EFB  E483C900           [247] self       15  1   294  ; 1298798293
8EFF  E2830001           [248] call       15  2   2  
8F03  D8430000           [249] test       15      1    ; to [251] if false
8F07  1AC00680           [250] jmp        28           ; to [279]
8F0B  DD030800           [251] getglobal  15  32       ; 1074689893
8F0F  2444CE00           [252] self       16  1   313  ; -574547703
8F13  22040001           [253] call       16  2   0  
8F17  E2830000           [254] call       15  0   2  
8F1B  D8030000           [255] test       15      0    ; to [257] if true
8F1F  1A400580           [256] jmp        22           ; to [279]
8F23  DD030000           [257] getglobal  15  0        ; _T
8F27  CE83CE07           [258] gettable   15  15  314  ; "EliteDroneSpawnTimer"
fail op	21
8F2B  55C0C707           [259] concat     1   15  287
8F2F  1A400280           [260] jmp        10           ; to [271]
8F33  DD830B00           [261] getglobal  15  46       ; -1941280958
8F37  19C40700           [262] loadk      16  31       ; 0
8F3B  59440C00           [263] loadk      17  49       ; 0
8F3F  E2838001           [264] call       15  3   2  
fail op	21
8F43  55C0CE07           [265] concat     1   15  315
8F47  1AC00080           [266] jmp        4            ; to [271]
8F4B  DD030000           [267] getglobal  15  0        ; _T
8F4F  CE03CF07           [268] gettable   15  15  316  ; "EliteDroneForceSpawn"
8F53  D8030000           [269] test       15      0    ; to [271] if true
8F57  1AC00180           [270] jmp        8            ; to [279]
8F5B  DD030000           [271] getglobal  15  0        ; _T
8F5F  CC434F9E           [272] settable   15  316 317  ; "EliteDroneForceSpawn" 0
8F63  E4834F07           [273] self       15  14  318  ; -1302048094
8F67  5DC40F00           [274] getglobal  17  63       ; -332969190
8F6B  99041000           [275] loadk      18  64       ; "SpawnEliteAlertDrone"
8F6F  62840001           [276] call       17  2   2  
8F73  97040000           [277] loadbool   18  0   0    ; false
8F77  E2430002           [278] call       15  4   1  
8F7B  DD030000           [279] getglobal  15  0        ; _T
8F7F  CE43D007           [280] gettable   15  15  321  ; "AssterminationActive"
8F83  D8030000           [281] test       15      0    ; to [283] if true
8F87  1A800480           [282] jmp        19           ; to [302]
8F8B  E403C900           [283] self       15  1   292  ; -1957065004
8F8F  5DC40000           [284] getglobal  17  3        ; gGameRules
8F93  6444C208           [285] self       17  17  265  ; -1201441975
8F97  62840001           [286] call       17  2   2  
8F9B  4E44C908           [287] gettable   17  17  293  ; "vipAgent"
8F9F  E2838001           [288] call       15  3   2  
8FA3  D8430000           [289] test       15      1    ; to [291] if false
8FA7  1A800280           [290] jmp        11           ; to [302]
8FAB  E4C3C200           [291] self       15  1   267  ; -2135866365
8FAF  E2830001           [292] call       15  2   2  
8FB3  E483D007           [293] self       15  15  322  ; -1917464545
8FB7  E2830001           [294] call       15  2   2  
8FBB  E4C3D007           [295] self       15  15  323  ; 991629753
8FBF  5D840300           [296] getglobal  17  14       ; Game
8FC3  4E04D108           [297] gettable   17  17  324  ; "AVATAR_DROP_CHANCE_MODIFIER"
8FC7  9D840300           [298] getglobal  18  14       ; Game
8FCB  8E445109           [299] gettable   18  18  325  ; "MULTIPLY"
8FCF  D9841100           [300] loadk      19  70       ; -51
8FD3  E2438002           [301] call       15  5   1  
8FD7  DD030000           [302] getglobal  15  0        ; _T
8FDB  CEC3D107           [303] gettable   15  15  327  ; "IsRazorbackMission"
fail op	35
8FDF  2380C007           [304] close      0  
8FE3  1A000380           [305] jmp        13           ; to [319]
8FE7  DD030000           [306] getglobal  15  0        ; _T
8FEB  1DC40000           [307] getglobal  16  3        ; gGameRules
8FEF  24444208           [308] self       16  16  265  ; -1201441975
8FF3  22840001           [309] call       16  2   2  
8FF7  0E844208           [310] gettable   16  16  266  ; "goalTag"
8FFB  5DC40F00           [311] getglobal  17  63       ; -332969190
8FFF  99041200           [312] loadk      18  72       ; "FriendlyFireTacAlert"
9003  62840001           [313] call       17  2   2  
fail op	35
9007  63400408           [314] close      1  
900B  1A000080           [315] jmp        1            ; to [317]
900F  17440000           [316] loadbool   16  0   1    ; false, to [318]
9013  17048000           [317] loadbool   16  1   0    ; true
9017  CC0384A3           [318] settable   15  327 16   ; "IsRazorbackMission"
901B  DD030000           [319] getglobal  15  0        ; _T
901F  CEC3D107           [320] gettable   15  15  327  ; "IsRazorbackMission"
9023  D8030000           [321] test       15      0    ; to [323] if true
9027  1A000B80           [322] jmp        45           ; to [368]
902B  E4C3C200           [323] self       15  1   267  ; -2135866365
902F  E2830001           [324] call       15  2   2  
9033  2404C907           [325] self       16  15  292  ; -1957065004
9037  9D441200           [326] getglobal  18  73       ; 738251817
903B  D9841200           [327] loadk      19  74       ; "/Lotus/Types/Enemies/Corpus/Vip/Hyena/HyenaGunAvatar"
903F  A2040001           [328] call       18  2   0  
9043  22840000           [329] call       16  0   2  
9047  18040000           [330] test       16      0    ; to [332] if true
904B  1AC00880           [331] jmp        36           ; to [368]
904F  1DC40F00           [332] getglobal  16  63       ; -332969190
9053  59C41200           [333] loadk      17  75       ; "HyCount"
9057  22840001           [334] call       16  2   2  
905B  5DC40000           [335] getglobal  17  3        ; gGameRules
905F  6404D308           [336] self       17  17  332  ; -317790213
9063  D2040008           [337] move       19  16     
9067  19C50700           [338] loadk      20  31       ; 0
906B  62840002           [339] call       17  4   2  
fail op	33
906F  214084A6           [340] tforloop   0       17   ; to [342] if exit
9073  1A000580           [341] jmp        21           ; to [363]
9077  A484D307           [342] self       18  15  334  ; 2080276352
907B  1DC51300           [343] getglobal  20  79       ; 2083004503
907F  53058002           [344] getupval   21  5      
9083  22050001           [345] call       20  2   0  
9087  A2440000           [346] call       18  0   1  
908B  9D041400           [347] getglobal  18  80       ; 1668611480
908F  CD44D308           [348] sub        19  17  333  ; 0
9093  C444D409           [349] mul        19  19  337  ; 0
9097  CDC48498           [350] sub        19  305 19   ; 0
909B  19851400           [351] loadk      20  82       ; -51
909F  59C51400           [352] loadk      21  83       ; 102
90A3  A2840002           [353] call       18  4   2  
90A7  E484D007           [354] self       19  15  322  ; -1917464545
90AB  E2840001           [355] call       19  2   2  
90AF  E4C4D009           [356] self       19  19  323  ; 991629753
90B3  5D850300           [357] getglobal  21  14       ; Game
90B7  4E05D10A           [358] gettable   21  21  324  ; "AVATAR_DROP_CHANCE_MODIFIER"
90BB  9D850300           [359] getglobal  22  14       ; Game
90BF  8E05550B           [360] gettable   22  22  340  ; "SET"
90C3  D2050009           [361] move       23  18     
90C7  E2448002           [362] call       19  5   1  
90CB  DDC40000           [363] getglobal  19  3        ; gGameRules
90CF  E444D509           [364] self       19  19  341  ; -803877924
90D3  52050008           [365] move       21  16     
90D7  8345CC08           [366] add        22  17  305  ; 0
90DB  E2440002           [367] call       19  4   1  
90DF  DD040000           [368] getglobal  19  0        ; _T
90E3  CE84D509           [369] gettable   19  19  342  ; "OnAgentSpawnedCallback"
90E7  D8040000           [370] test       19      0    ; to [372] if true
90EB  1A000180           [371] jmp        5            ; to [377]
90EF  DD040000           [372] getglobal  19  0        ; _T
90F3  CEC4D509           [373] gettable   19  19  343  ; -1077246373
90F7  12050000           [374] move       20  0      
90FB  52058000           [375] move       21  1      
90FF  E2448001           [376] call       19  3   1  
9103  DD040000           [377] getglobal  19  0        ; _T
9107  CE04D609           [378] gettable   19  19  344  ; "ScenarioHubStarted"
910B  D8040000           [379] test       19      0    ; to [381] if true
910F  1A000280           [380] jmp        9            ; to [390]
9113  DD040000           [381] getglobal  19  0        ; _T
9117  CE44D609           [382] gettable   19  19  345  ; "ScenarioOnAgentCreated"
911B  D8040000           [383] test       19      0    ; to [385] if true
911F  1A000180           [384] jmp        5            ; to [390]
9123  DD040000           [385] getglobal  19  0        ; _T
9127  CE84D609           [386] gettable   19  19  346  ; -1315600692
912B  12050000           [387] move       20  0      
912F  52058000           [388] move       21  1      
9133  E2448001           [389] call       19  3   1  
9137  DD040000           [390] getglobal  19  0        ; _T
913B  CEC4D609           [391] gettable   19  19  347  ; "OnAgentSpawnedNemesisCallback"
913F  D8040000           [392] test       19      0    ; to [394] if true
9143  1A000180           [393] jmp        5            ; to [399]
9147  DD040000           [394] getglobal  19  0        ; _T
914B  CE04D709           [395] gettable   19  19  348  ; -1751447522
914F  12050000           [396] move       20  0      
9153  52058000           [397] move       21  1      
9157  E2448001           [398] call       19  3   1  
915B  1E008000           [399] return     0   1      
                         * constants:
915F  5D                 sizek (93)
9160  04                 const type 4
9161  03                 string size (3)
9162  5F5400             "_T\0"
                         const [0]: "_T"
9165  04                 const type 4
9166  16                 string size (22)
9167  4973436F72707573+  "IsCorpus"
916F  536F727469654D69+  "SortieMi"
9177  7373696F6E00       "ssion\0"
                         const [1]: "IsCorpusSortieMission"
917D  00                 const type 0
                         const [2]: nil
917E  04                 const type 4
917F  0B                 string size (11)
9180  6747616D6552756C+  "gGameRul"
9188  657300             "es\0"
                         const [3]: "gGameRules"
918B  01                 const type 3
918C  E2A3504C           const [4]: (1280353250)
9190  01                 const type 3
9191  49D3F8AF           const [5]: (-1342647479)
9195  04                 const type 4
9196  0B                 string size (11)
9197  4C6F7475735F4761+  "Lotus_Ga"
919F  6D6500             "me\0"
                         const [6]: "Lotus_Game"
91A2  04                 const type 4
91A3  0A                 string size (10)
91A4  46435F434F525055+  "FC_CORPU"
91AC  5300               "S\0"
                         const [7]: "FC_CORPUS"
91AE  04                 const type 4
91AF  18                 string size (24)
91B0  49734D697373696F+  "IsMissio"
91B8  6E4275696C646572+  "nBuilder"
91C0  4D697373696F6E00   "Mission\0"
                         const [8]: "IsMissionBuilderMission"
91C8  01                 const type 3
91C9  497363B8           const [9]: (-1201441975)
91CD  04                 const type 4
91CE  08                 string size (8)
91CF  676F616C54616700   "goalTag\0"
                         const [10]: "goalTag"
91D7  01                 const type 3
91D8  0344B180           const [11]: (-2135866365)
91DC  01                 const type 3
91DD  9B06F6A3           const [12]: (-1544157541)
91E1  01                 const type 3
91E2  53FDAB0A           const [13]: (179043667)
91E6  04                 const type 4
91E7  05                 string size (5)
91E8  47616D6500         "Game\0"
                         const [14]: "Game"
91ED  04                 const type 4
91EE  19                 string size (25)
91EF  4156415441525F44+  "AVATAR_D"
91F7  414D4147455F5245+  "AMAGE_RE"
91FF  53495354414E4345+  "SISTANCE"
9207  00                 "\0"
                         const [15]: "AVATAR_DAMAGE_RESISTANCE"
9208  04                 const type 4
9209  04                 string size (4)
920A  41444400           "ADD\0"
                         const [16]: "ADD"
920E  03                 const type 3
920F  0000003F           const [17]: (0)
9213  04                 const type 4
9214  07                 string size (7)
9215  456E67696E6500     "Engine\0"
                         const [18]: "Engine"
921C  04                 const type 4
921D  12                 string size (18)
921E  44545F424153455F+  "DT_BASE_"
9226  454C454D454E5441+  "ELEMENTA"
922E  4C00               "L\0"
                         const [19]: "DT_BASE_ELEMENTAL"
9230  04                 const type 4
9231  16                 string size (22)
9232  44545F434F4D504F+  "DT_COMPO"
923A  554E445F454C454D+  "UND_ELEM"
9242  454E54414C00       "ENTAL\0"
                         const [20]: "DT_COMPOUND_ELEMENTAL"
9248  01                 const type 3
9249  FB26E686           const [21]: (-2031737093)
924D  01                 const type 3
924E  DF7436B0           const [22]: (-1338608417)
9252  01                 const type 3
9253  EC48C4EF           const [23]: (-272348948)
9257  01                 const type 3
9258  19C50DE2           const [24]: (-502414055)
925C  04                 const type 4
925D  0D                 string size (13)
925E  4D545F4C414E4453+  "MT_LANDS"
9266  4341504500         "CAPE\0"
                         const [25]: "MT_LANDSCAPE"
926B  04                 const type 4
926C  0B                 string size (11)
926D  4D545F4D41535445+  "MT_MASTE"
9275  525900             "RY\0"
                         const [26]: "MT_MASTERY"
9278  04                 const type 4
9279  08                 string size (8)
927A  4D545F5241494400   "MT_RAID\0"
                         const [27]: "MT_RAID"
9282  04                 const type 4
9283  0C                 string size (12)
9284  4D545F5245434F56+  "MT_RECOV"
928C  45525900           "ERY\0"
                         const [28]: "MT_RECOVERY"
9290  04                 const type 4
9291  16                 string size (22)
9292  52656C6179457665+  "RelayEve"
929A  6E7454696D657241+  "ntTimerA"
92A2  637469766500       "ctive\0"
                         const [29]: "RelayEventTimerActive"
92A8  04                 const type 4
92A9  15                 string size (21)
92AA  52656C6179457665+  "RelayEve"
92B2  6E74537061776E54+  "ntSpawnT"
92BA  696D657200         "imer\0"
                         const [30]: "RelayEventSpawnTimer"
92BF  03                 const type 3
92C0  00000000           const [31]: (0)
92C4  01                 const type 3
92C5  65770E40           const [32]: (1074689893)
92C9  04                 const type 4
92CA  16                 string size (22)
92CB  52656C6179457665+  "RelayEve"
92D3  6E74546172676574+  "ntTarget"
92DB  456E656D7900       "Enemy\0"
                         const [33]: "RelayEventTargetEnemy"
92E1  04                 const type 4
92E2  15                 string size (21)
92E3  5365637265744D69+  "SecretMi"
92EB  6E6947616D654163+  "niGameAc"
92F3  7469766500         "tive\0"
                         const [34]: "SecretMiniGameActive"
92F8  01                 const type 3
92F9  BC3A29B6           const [35]: (-1238811972)
92FD  01                 const type 3
92FE  D48E598B           const [36]: (-1957065004)
9302  04                 const type 4
9303  09                 string size (9)
9304  7669704167656E74+  "vipAgent"
930C  00                 "\0"
                         const [37]: "vipAgent"
930D  01                 const type 3
930E  D5166A4D           const [38]: (1298798293)
9312  04                 const type 4
9313  0D                 string size (13)
9314  496E53696D756C61+  "InSimula"
931C  6372756D00         "crum\0"
                         const [39]: "InSimulacrum"
9321  04                 const type 4
9322  1E                 string size (30)
9323  674C6F7475735068+  "gLotusPh"
932B  6F746F426F6F7468+  "otoBooth"
9333  47616D6552756C65+  "GameRule"
933B  735479706500       "sType\0"
                         const [40]: "gLotusPhotoBoothGameRulesType"
9341  04                 const type 4
9342  09                 string size (9)
9343  6C6F636174696F6E+  "location"
934B  00                 "\0"
                         const [41]: "location"
934C  04                 const type 4
934D  12                 string size (18)
934E  5477697463684D61+  "TwitchMa"
9356  726B6564456E656D+  "rkedEnem"
935E  7900               "y\0"
                         const [42]: "TwitchMarkedEnemy"
9360  04                 const type 4
9361  18                 string size (24)
9362  5477697463684D61+  "TwitchMa"
936A  726B6564456E656D+  "rkedEnem"
9372  7941637469766500   "yActive\0"
                         const [43]: "TwitchMarkedEnemyActive"
937A  04                 const type 4
937B  16                 string size (22)
937C  5477697463684D61+  "TwitchMa"
9384  726B6564456E656D+  "rkedEnem"
938C  79496E666F00       "yInfo\0"
                         const [44]: "TwitchMarkedEnemyInfo"
9392  04                 const type 4
9393  0C                 string size (12)
9394  737061776E436861+  "spawnCha"
939C  6E636500           "nce\0"
                         const [45]: "spawnChance"
93A0  01                 const type 3
93A1  42674A8C           const [46]: (-1941280958)
93A5  03                 const type 3
93A6  0000C842           const [47]: (0)
93AA  04                 const type 4
93AB  13                 string size (19)
93AC  6163636570746564+  "accepted"
93B4  4167656E74547970+  "AgentTyp"
93BC  657300             "es\0"
                         const [48]: "acceptedAgentTypes"
93BF  03                 const type 3
93C0  0000803F           const [49]: (0)
93C4  04                 const type 4
93C5  0D                 string size (13)
93C6  4973456C69746541+  "IsEliteA"
93CE  6C65727400         "lert\0"
                         const [50]: "IsEliteAlert"
93D3  04                 const type 4
93D4  14                 string size (20)
93D5  456C697465416C65+  "EliteAle"
93DD  727444726F6E654C+  "rtDroneL"
93E5  69737400           "ist\0"
                         const [51]: "EliteAlertDroneList"
93E9  04                 const type 4
93EA  06                 string size (6)
93EB  7461626C6500       "table\0"
                         const [52]: "table"
93F1  01                 const type 3
93F2  9D0C45E6           const [53]: (-431682403)
93F6  04                 const type 4
93F7  0B                 string size (11)
93F8  64726F6E65416765+  "droneAge"
9400  6E7400             "nt\0"
                         const [54]: "droneAgent"
9403  04                 const type 4
9404  0D                 string size (13)
9405  6372656174696F6E+  "creation"
940D  54696D6500         "Time\0"
                         const [55]: "creationTime"
9412  01                 const type 3
9413  DBC2E558           const [56]: (1491452635)
9417  01                 const type 3
9418  0919C1DD           const [57]: (-574547703)
941C  04                 const type 4
941D  15                 string size (21)
941E  456C69746544726F+  "EliteDro"
9426  6E65537061776E54+  "neSpawnT"
942E  696D657200         "imer\0"
                         const [58]: "EliteDroneSpawnTimer"
9433  03                 const type 3
9434  CDCC4C3E           const [59]: (-51)
9438  04                 const type 4
9439  15                 string size (21)
943A  456C69746544726F+  "EliteDro"
9442  6E65466F72636553+  "neForceS"
944A  7061776E00         "pawn\0"
                         const [60]: "EliteDroneForceSpawn"
944F  01                 const type 3
9450  00000000           const [61]: (0)
9454  01                 const type 3
9455  A25264B2           const [62]: (-1302048094)
9459  01                 const type 3
945A  1A4B27EC           const [63]: (-332969190)
945E  04                 const type 4
945F  15                 string size (21)
9460  537061776E456C69+  "SpawnEli"
9468  7465416C65727444+  "teAlertD"
9470  726F6E6500         "rone\0"
                         const [64]: "SpawnEliteAlertDrone"
9475  04                 const type 4
9476  15                 string size (21)
9477  4173737465726D69+  "Asstermi"
947F  6E6174696F6E4163+  "nationAc"
9487  7469766500         "tive\0"
                         const [65]: "AssterminationActive"
948C  01                 const type 3
948D  1FD0B58D           const [66]: (-1917464545)
9491  01                 const type 3
9492  B9111B3B           const [67]: (991629753)
9496  04                 const type 4
9497  1C                 string size (28)
9498  4156415441525F44+  "AVATAR_D"
94A0  524F505F4348414E+  "ROP_CHAN"
94A8  43455F4D4F444946+  "CE_MODIF"
94B0  49455200           "IER\0"
                         const [68]: "AVATAR_DROP_CHANCE_MODIFIER"
94B4  04                 const type 4
94B5  09                 string size (9)
94B6  4D554C5449504C59+  "MULTIPLY"
94BE  00                 "\0"
                         const [69]: "MULTIPLY"
94BF  03                 const type 3
94C0  CDCCCC3D           const [70]: (-51)
94C4  04                 const type 4
94C5  13                 string size (19)
94C6  497352617A6F7262+  "IsRazorb"
94CE  61636B4D69737369+  "ackMissi"
94D6  6F6E00             "on\0"
                         const [71]: "IsRazorbackMission"
94D9  04                 const type 4
94DA  15                 string size (21)
94DB  467269656E646C79+  "Friendly"
94E3  4669726554616341+  "FireTacA"
94EB  6C65727400         "lert\0"
                         const [72]: "FriendlyFireTacAlert"
94F0  01                 const type 3
94F1  29D4002C           const [73]: (738251817)
94F5  04                 const type 4
94F6  35                 string size (53)
94F7  2F4C6F7475732F54+  "/Lotus/T"
94FF  797065732F456E65+  "ypes/Ene"
9507  6D6965732F436F72+  "mies/Cor"
950F  7075732F5669702F+  "pus/Vip/"
9517  4879656E612F4879+  "Hyena/Hy"
951F  656E6147756E4176+  "enaGunAv"
9527  6174617200         "atar\0"
                         const [74]: "/Lotus/Types/Enemies/Corpus/Vip/Hyena/HyenaGunAvatar"
952C  04                 const type 4
952D  08                 string size (8)
952E  4879436F756E7400   "HyCount\0"
                         const [75]: "HyCount"
9536  01                 const type 3
9537  FBE70EED           const [76]: (-317790213)
953B  03                 const type 3
953C  00008040           const [77]: (0)
9540  01                 const type 3
9541  807FFE7B           const [78]: (2080276352)
9545  01                 const type 3
9546  5720287C           const [79]: (2083004503)
954A  01                 const type 3
954B  98FD7463           const [80]: (1668611480)
954F  03                 const type 3
9550  0000803E           const [81]: (0)
9554  03                 const type 3
9555  CDCC4C3D           const [82]: (-51)
9559  03                 const type 3
955A  6666663F           const [83]: (102)
955E  04                 const type 4
955F  04                 string size (4)
9560  53455400           "SET\0"
                         const [84]: "SET"
9564  01                 const type 3
9565  DCCB15D0           const [85]: (-803877924)
9569  04                 const type 4
956A  17                 string size (23)
956B  4F6E4167656E7453+  "OnAgentS"
9573  7061776E65644361+  "pawnedCa"
957B  6C6C6261636B00     "llback\0"
                         const [86]: "OnAgentSpawnedCallback"
9582  01                 const type 3
9583  5B86CABF           const [87]: (-1077246373)
9587  04                 const type 4
9588  13                 string size (19)
9589  5363656E6172696F+  "Scenario"
9591  4875625374617274+  "HubStart"
9599  656400             "ed\0"
                         const [88]: "ScenarioHubStarted"
959C  04                 const type 4
959D  17                 string size (23)
959E  5363656E6172696F+  "Scenario"
95A6  4F6E4167656E7443+  "OnAgentC"
95AE  72656174656400     "reated\0"
                         const [89]: "ScenarioOnAgentCreated"
95B5  01                 const type 3
95B6  CC8695B1           const [90]: (-1315600692)
95BA  04                 const type 4
95BB  1E                 string size (30)
95BC  4F6E4167656E7453+  "OnAgentS"
95C4  7061776E65644E65+  "pawnedNe"
95CC  6D6573697343616C+  "mesisCal"
95D4  6C6261636B00       "lback\0"
                         const [91]: "OnAgentSpawnedNemesisCallback"
95DA  01                 const type 3
95DB  1E089B97           const [92]: (-1751447522)
                         * functions:
95DF  00                 sizep (0)
                         * lines:
95E1  03                 sizelineinfo (399)
                         [pc] (line)
95E2  97                 [001] (-105)
95E3  04                 [002] (-105)
95E4  00                 [003] (-105)
95E5  00                 [004] (-105)
95E6  97                 [005] (-104)
95E7  04                 [006] (-104)
95E8  00                 [007] (-104)
95E9  00                 [008] (-104)
95EA  97                 [009] (-104)
95EB  04                 [010] (-104)
95EC  00                 [011] (-104)
95ED  00                 [012] (-104)
95EE  97                 [013] (-104)
95EF  04                 [014] (-104)
95F0  00                 [015] (-104)
95F1  00                 [016] (-104)
95F2  98                 [017] (-104)
95F3  04                 [018] (-104)
95F4  00                 [019] (-104)
95F5  00                 [020] (-104)
95F6  98                 [021] (-102)
95F7  04                 [022] (-102)
95F8  00                 [023] (-102)
95F9  00                 [024] (-102)
95FA  98                 [025] (-101)
95FB  04                 [026] (-101)
95FC  00                 [027] (-101)
95FD  00                 [028] (-101)
95FE  98                 [029] (-101)
95FF  04                 [030] (-101)
9600  00                 [031] (-101)
9601  00                 [032] (-101)
9602  98                 [033] (-101)
9603  04                 [034] (-101)
9604  00                 [035] (-101)
9605  00                 [036] (-98)
9606  98                 [037] (-98)
9607  04                 [038] (-98)
9608  00                 [039] (-98)
9609  00                 [040] (-96)
960A  98                 [041] (-96)
960B  04                 [042] (-96)
960C  00                 [043] (-96)
960D  00                 [044] (-96)
960E  98                 [045] (-96)
960F  04                 [046] (-96)
9610  00                 [047] (-96)
9611  00                 [048] (-96)
9612  98                 [049] (-96)
9613  04                 [050] (-96)
9614  00                 [051] (-96)
9615  00                 [052] (-96)
9616  98                 [053] (-96)
9617  04                 [054] (-95)
9618  00                 [055] (-95)
9619  00                 [056] (-95)
961A  98                 [057] (-95)
961B  04                 [058] (-95)
961C  00                 [059] (-95)
961D  00                 [060] (-95)
961E  98                 [061] (-95)
961F  04                 [062] (-95)
9620  00                 [063] (-95)
9621  00                 [064] (-95)
9622  98                 [065] (-95)
9623  04                 [066] (-95)
9624  00                 [067] (-95)
9625  00                 [068] (-95)
9626  98                 [069] (-94)
9627  04                 [070] (-94)
9628  00                 [071] (-94)
9629  00                 [072] (-94)
962A  98                 [073] (-93)
962B  04                 [074] (-93)
962C  00                 [075] (-93)
962D  00                 [076] (-93)
962E  98                 [077] (-93)
962F  04                 [078] (-93)
9630  00                 [079] (-93)
9631  00                 [080] (-92)
9632  9A                 [081] (-92)
9633  04                 [082] (-92)
9634  00                 [083] (-92)
9635  00                 [084] (-92)
9636  9A                 [085] (-92)
9637  04                 [086] (-92)
9638  00                 [087] (-92)
9639  00                 [088] (-88)
963A  9A                 [089] (-88)
963B  04                 [090] (-87)
963C  00                 [091] (-87)
963D  00                 [092] (-87)
963E  9A                 [093] (-87)
963F  04                 [094] (-87)
9640  00                 [095] (-87)
9641  00                 [096] (-87)
9642  9B                 [097] (-87)
9643  04                 [098] (-87)
9644  00                 [099] (-87)
9645  00                 [100] (-87)
9646  9B                 [101] (-87)
9647  04                 [102] (-87)
9648  00                 [103] (-87)
9649  00                 [104] (-87)
964A  9B                 [105] (-87)
964B  04                 [106] (-87)
964C  00                 [107] (-87)
964D  00                 [108] (-87)
964E  9B                 [109] (-87)
964F  04                 [110] (-87)
9650  00                 [111] (-87)
9651  00                 [112] (-87)
9652  9B                 [113] (-87)
9653  04                 [114] (-87)
9654  00                 [115] (-87)
9655  00                 [116] (-87)
9656  9B                 [117] (-87)
9657  04                 [118] (-87)
9658  00                 [119] (-87)
9659  00                 [120] (-87)
965A  9B                 [121] (-87)
965B  04                 [122] (-87)
965C  00                 [123] (-87)
965D  00                 [124] (-86)
965E  9B                 [125] (-86)
965F  04                 [126] (-85)
9660  00                 [127] (-85)
9661  00                 [128] (-84)
9662  9B                 [129] (-84)
9663  04                 [130] (-84)
9664  00                 [131] (-84)
9665  00                 [132] (-84)
9666  9B                 [133] (-84)
9667  04                 [134] (-84)
9668  00                 [135] (-84)
9669  00                 [136] (-84)
966A  9B                 [137] (-84)
966B  04                 [138] (-84)
966C  00                 [139] (-84)
966D  00                 [140] (-84)
966E  9E                 [141] (-84)
966F  04                 [142] (-84)
9670  00                 [143] (-84)
9671  00                 [144] (-84)
9672  9E                 [145] (-84)
9673  04                 [146] (-84)
9674  00                 [147] (-84)
9675  00                 [148] (-84)
9676  9E                 [149] (-84)
9677  04                 [150] (-84)
9678  00                 [151] (-84)
9679  00                 [152] (-84)
967A  9E                 [153] (-84)
967B  04                 [154] (-84)
967C  00                 [155] (-84)
967D  00                 [156] (-84)
967E  A0                 [157] (-82)
967F  04                 [158] (-82)
9680  00                 [159] (-82)
9681  00                 [160] (-77)
9682  A0                 [161] (-77)
9683  04                 [162] (-77)
9684  00                 [163] (-77)
9685  00                 [164] (-75)
9686  A0                 [165] (-75)
9687  04                 [166] (-75)
9688  00                 [167] (-75)
9689  00                 [168] (-75)
968A  A0                 [169] (-75)
968B  04                 [170] (-75)
968C  00                 [171] (-75)
968D  00                 [172] (-75)
968E  A0                 [173] (-75)
968F  04                 [174] (-74)
9690  00                 [175] (-74)
9691  00                 [176] (-74)
9692  A0                 [177] (-73)
9693  04                 [178] (-73)
9694  00                 [179] (-73)
9695  00                 [180] (-73)
9696  A0                 [181] (-72)
9697  04                 [182] (-72)
9698  00                 [183] (-71)
9699  00                 [184] (-71)
969A  A0                 [185] (-70)
969B  04                 [186] (-70)
969C  00                 [187] (-70)
969D  00                 [188] (-70)
969E  A0                 [189] (-70)
969F  04                 [190] (-70)
96A0  00                 [191] (-70)
96A1  00                 [192] (-70)
96A2  A0                 [193] (-70)
96A3  04                 [194] (-70)
96A4  00                 [195] (-69)
96A5  00                 [196] (-69)
96A6  A0                 [197] (-69)
96A7  04                 [198] (-68)
96A8  00                 [199] (-68)
96A9  00                 [200] (-68)
96AA  A0                 [201] (-68)
96AB  04                 [202] (-67)
96AC  00                 [203] (-67)
96AD  00                 [204] (-67)
96AE  A0                 [205] (-67)
96AF  04                 [206] (-67)
96B0  00                 [207] (-66)
96B1  00                 [208] (-66)
96B2  A0                 [209] (-66)
96B3  04                 [210] (-65)
96B4  00                 [211] (-68)
96B5  00                 [212] (-58)
96B6  A1                 [213] (-58)
96B7  04                 [214] (-58)
96B8  00                 [215] (-58)
96B9  00                 [216] (-57)
96BA  A1                 [217] (-57)
96BB  04                 [218] (-56)
96BC  00                 [219] (-56)
96BD  00                 [220] (-56)
96BE  A1                 [221] (-56)
96BF  04                 [222] (-56)
96C0  00                 [223] (-55)
96C1  00                 [224] (-55)
96C2  A1                 [225] (-55)
96C3  04                 [226] (-55)
96C4  00                 [227] (-55)
96C5  00                 [228] (-55)
96C6  A1                 [229] (-54)
96C7  04                 [230] (-54)
96C8  00                 [231] (-54)
96C9  00                 [232] (-52)
96CA  A1                 [233] (-52)
96CB  04                 [234] (-52)
96CC  00                 [235] (-52)
96CD  00                 [236] (-52)
96CE  A1                 [237] (-52)
96CF  04                 [238] (-52)
96D0  00                 [239] (-52)
96D1  00                 [240] (-52)
96D2  A1                 [241] (-52)
96D3  04                 [242] (-52)
96D4  00                 [243] (-51)
96D5  00                 [244] (-51)
96D6  A1                 [245] (-51)
96D7  04                 [246] (-51)
96D8  00                 [247] (-51)
96D9  00                 [248] (-51)
96DA  A1                 [249] (-51)
96DB  04                 [250] (-51)
96DC  00                 [251] (-51)
96DD  00                 [252] (-51)
96DE  A1                 [253] (-51)
96DF  04                 [254] (-51)
96E0  00                 [255] (-51)
96E1  00                 [256] (-51)
96E2  A1                 [257] (-50)
96E3  04                 [258] (-50)
96E4  00                 [259] (-50)
96E5  00                 [260] (-50)
96E6  A1                 [261] (-50)
96E7  04                 [262] (-50)
96E8  00                 [263] (-50)
96E9  00                 [264] (-50)
96EA  A1                 [265] (-50)
96EB  04                 [266] (-50)
96EC  00                 [267] (-50)
96ED  00                 [268] (-50)
96EE  A1                 [269] (-50)
96EF  04                 [270] (-50)
96F0  00                 [271] (-49)
96F1  00                 [272] (-49)
96F2  A2                 [273] (-48)
96F3  04                 [274] (-48)
96F4  00                 [275] (-48)
96F5  00                 [276] (-48)
96F6  A2                 [277] (-48)
96F7  04                 [278] (-48)
96F8  00                 [279] (-43)
96F9  00                 [280] (-43)
96FA  A2                 [281] (-43)
96FB  04                 [282] (-43)
96FC  00                 [283] (-42)
96FD  00                 [284] (-42)
96FE  A2                 [285] (-42)
96FF  04                 [286] (-42)
9700  00                 [287] (-42)
9701  00                 [288] (-42)
9702  A3                 [289] (-42)
9703  04                 [290] (-42)
9704  00                 [291] (-41)
9705  00                 [292] (-41)
9706  A3                 [293] (-41)
9707  04                 [294] (-41)
9708  00                 [295] (-41)
9709  00                 [296] (-41)
970A  A3                 [297] (-41)
970B  04                 [298] (-41)
970C  00                 [299] (-41)
970D  00                 [300] (-41)
970E  A3                 [301] (-41)
970F  04                 [302] (-36)
9710  00                 [303] (-36)
9711  00                 [304] (-36)
9712  A3                 [305] (-36)
9713  04                 [306] (-35)
9714  00                 [307] (-35)
9715  00                 [308] (-35)
9716  A3                 [309] (-35)
9717  04                 [310] (-35)
9718  00                 [311] (-35)
9719  00                 [312] (-35)
971A  A3                 [313] (-35)
971B  04                 [314] (-35)
971C  00                 [315] (-35)
971D  00                 [316] (-35)
971E  A4                 [317] (-35)
971F  04                 [318] (-35)
9720  00                 [319] (-33)
9721  00                 [320] (-33)
9722  A4                 [321] (-33)
9723  04                 [322] (-33)
9724  00                 [323] (-32)
9725  00                 [324] (-32)
9726  A4                 [325] (-31)
9727  04                 [326] (-31)
9728  00                 [327] (-31)
9729  00                 [328] (-31)
972A  A4                 [329] (-31)
972B  04                 [330] (-31)
972C  00                 [331] (-31)
972D  00                 [332] (-30)
972E  A4                 [333] (-30)
972F  04                 [334] (-30)
9730  00                 [335] (-29)
9731  00                 [336] (-29)
9732  A4                 [337] (-29)
9733  04                 [338] (-29)
9734  00                 [339] (-29)
9735  00                 [340] (-26)
9736  A4                 [341] (-26)
9737  04                 [342] (-25)
9738  00                 [343] (-25)
9739  00                 [344] (-25)
973A  A4                 [345] (-25)
973B  04                 [346] (-25)
973C  00                 [347] (-23)
973D  00                 [348] (-23)
973E  A8                 [349] (-23)
973F  04                 [350] (-23)
9740  00                 [351] (-23)
9741  00                 [352] (-23)
9742  A8                 [353] (-23)
9743  04                 [354] (-22)
9744  00                 [355] (-22)
9745  00                 [356] (-22)
9746  A9                 [357] (-22)
9747  04                 [358] (-22)
9748  00                 [359] (-22)
9749  00                 [360] (-22)
974A  A9                 [361] (-22)
974B  04                 [362] (-22)
974C  00                 [363] (-19)
974D  00                 [364] (-19)
974E  A9                 [365] (-19)
974F  04                 [366] (-19)
9750  00                 [367] (-19)
9751  00                 [368] (-15)
9752  A9                 [369] (-15)
9753  04                 [370] (-15)
9754  00                 [371] (-15)
9755  00                 [372] (-14)
9756  A9                 [373] (-14)
9757  04                 [374] (-14)
9758  00                 [375] (-14)
9759  00                 [376] (-14)
975A  A9                 [377] (-11)
975B  04                 [378] (-11)
975C  00                 [379] (-11)
975D  00                 [380] (-11)
975E  A9                 [381] (-11)
975F  04                 [382] (-11)
9760  00                 [383] (-11)
9761  00                 [384] (-11)
9762  A9                 [385] (-10)
9763  04                 [386] (-10)
9764  00                 [387] (-10)
9765  00                 [388] (-10)
9766  A9                 [389] (-10)
9767  04                 [390] (-7)
9768  00                 [391] (-7)
9769  00                 [392] (-7)
976A  A9                 [393] (-7)
976B  04                 [394] (-6)
976C  00                 [395] (-6)
976D  00                 [396] (-6)
976E  A9                 [397] (-6)
976F  04                 [398] (-6)
9770  00                 [399] (-4)
                         * locals:
9C1E  00                 sizelocvars (0)
                         * upvalues:
9C1F  00                 sizeupvalues (0)
                         ** end of function **

                         
9C20                     ** function [31] definition (level 2)
                         ** start of function **
9C20  00                 string size (0)
                         source name: (none)
9C22  09                 line defined (1278)
9C23  8B                 last line defined (1291)
9C24  0A                 nups (0)
9C25  00                 numparams (0)
9C26  00                 is_vararg (0)
9C27  00                 maxstacksize (4)
                         * code:
9C29  1A                 sizecode (26)
9C2A  1D000000           [01] getglobal  0   0        ; _T
9C2E  5D800000           [02] getglobal  1   2        ; gRegion
9C32  64C0C000           [03] self       1   1   259  ; -1520831144
9C36  62800001           [04] call       1   2   2  
9C3A  0C408080           [05] settable   0   257 1    ; "RelayEventTimerActive"
9C3E  1D000000           [06] getglobal  0   0        ; _T
9C42  5D400100           [07] getglobal  1   5        ; 2144646525
9C46  9D000000           [08] getglobal  2   0        ; _T
9C4A  8E804101           [09] gettable   2   2   262  ; "RelayEventPhaseInfo"
9C4E  8EC04101           [10] gettable   2   2   263  ; "spawnDelay"
9C52  8E004201           [11] gettable   2   2   264  ; 0
9C56  DD000000           [12] getglobal  3   0        ; _T
9C5A  CE80C101           [13] gettable   3   3   262  ; "RelayEventPhaseInfo"
9C5E  CEC0C101           [14] gettable   3   3   263  ; "spawnDelay"
9C62  CE40C201           [15] gettable   3   3   265  ; 0
9C66  62808001           [16] call       1   3   2  
9C6A  0C400082           [17] settable   0   260 1    ; "RelayEventSpawnTimer"
9C6E  1D000000           [18] getglobal  0   0        ; _T
9C72  0CC04285           [19] settable   0   266 267  ; "RelayEventTargetEnemy" nil
9C76  1D000000           [20] getglobal  0   0        ; _T
9C7A  0CC04286           [21] settable   0   268 267  ; "RelayEventCaptureTimer" nil
9C7E  1D000000           [22] getglobal  0   0        ; _T
9C82  0CC0C286           [23] settable   0   269 267  ; "RelayEventCapturedEnemy" nil
9C86  1D000000           [24] getglobal  0   0        ; _T
9C8A  0CC04287           [25] settable   0   270 267  ; "RelayEventCaptures" nil
9C8E  1E008000           [26] return     0   1      
                         * constants:
9C92  0F                 sizek (15)
9C93  04                 const type 4
9C94  03                 string size (3)
9C95  5F5400             "_T\0"
                         const [0]: "_T"
9C98  04                 const type 4
9C99  16                 string size (22)
9C9A  52656C6179457665+  "RelayEve"
9CA2  6E7454696D657241+  "ntTimerA"
9CAA  637469766500       "ctive\0"
                         const [1]: "RelayEventTimerActive"
9CB0  04                 const type 4
9CB1  08                 string size (8)
9CB2  67526567696F6E00   "gRegion\0"
                         const [2]: "gRegion"
9CBA  01                 const type 3
9CBB  58F559A5           const [3]: (-1520831144)
9CBF  04                 const type 4
9CC0  15                 string size (21)
9CC1  52656C6179457665+  "RelayEve"
9CC9  6E74537061776E54+  "ntSpawnT"
9CD1  696D657200         "imer\0"
                         const [4]: "RelayEventSpawnTimer"
9CD6  01                 const type 3
9CD7  7DB5D47F           const [5]: (2144646525)
9CDB  04                 const type 4
9CDC  14                 string size (20)
9CDD  52656C6179457665+  "RelayEve"
9CE5  6E74506861736549+  "ntPhaseI"
9CED  6E666F00           "nfo\0"
                         const [6]: "RelayEventPhaseInfo"
9CF1  04                 const type 4
9CF2  0B                 string size (11)
9CF3  737061776E44656C+  "spawnDel"
9CFB  617900             "ay\0"
                         const [7]: "spawnDelay"
9CFE  03                 const type 3
9CFF  0000803F           const [8]: (0)
9D03  03                 const type 3
9D04  00000040           const [9]: (0)
9D08  04                 const type 4
9D09  16                 string size (22)
9D0A  52656C6179457665+  "RelayEve"
9D12  6E74546172676574+  "ntTarget"
9D1A  456E656D7900       "Enemy\0"
                         const [10]: "RelayEventTargetEnemy"
9D20  00                 const type 0
                         const [11]: nil
9D21  04                 const type 4
9D22  17                 string size (23)
9D23  52656C6179457665+  "RelayEve"
9D2B  6E74436170747572+  "ntCaptur"
9D33  6554696D657200     "eTimer\0"
                         const [12]: "RelayEventCaptureTimer"
9D3A  04                 const type 4
9D3B  18                 string size (24)
9D3C  52656C6179457665+  "RelayEve"
9D44  6E74436170747572+  "ntCaptur"
9D4C  6564456E656D7900   "edEnemy\0"
                         const [13]: "RelayEventCapturedEnemy"
9D54  04                 const type 4
9D55  13                 string size (19)
9D56  52656C6179457665+  "RelayEve"
9D5E  6E74436170747572+  "ntCaptur"
9D66  657300             "es\0"
                         const [14]: "RelayEventCaptures"
                         * functions:
9D69  00                 sizep (0)
                         * lines:
9D6A  1A                 sizelineinfo (26)
                         [pc] (line)
9D6B  05                 [01] (5)
9D6C  05                 [02] (5)
9D6D  00                 [03] (5)
9D6E  00                 [04] (5)
9D6F  05                 [05] (5)
9D70  05                 [06] (6)
9D71  00                 [07] (6)
9D72  00                 [08] (6)
9D73  05                 [09] (6)
9D74  05                 [10] (6)
9D75  00                 [11] (6)
9D76  00                 [12] (6)
9D77  05                 [13] (6)
9D78  05                 [14] (6)
9D79  00                 [15] (6)
9D7A  00                 [16] (6)
9D7B  05                 [17] (6)
9D7C  05                 [18] (7)
9D7D  00                 [19] (7)
9D7E  00                 [20] (8)
9D7F  06                 [21] (8)
9D80  05                 [22] (9)
9D81  00                 [23] (9)
9D82  00                 [24] (10)
9D83  06                 [25] (10)
9D84  05                 [26] (11)
                         * locals:
9DD3  00                 sizelocvars (0)
                         * upvalues:
9DD4  00                 sizeupvalues (0)
                         ** end of function **

                         
9DD5                     ** function [32] definition (level 2)
                         ** start of function **
9DD5  00                 string size (0)
                         source name: (none)
9DD7  0A                 line defined (1293)
9DD8  91                 last line defined (1297)
9DD9  0A                 nups (0)
9DDA  00                 numparams (1)
9DDB  01                 is_vararg (0)
9DDC  00                 maxstacksize (3)
                         * code:
9DDE  07                 sizecode (7)
9DDF  5D000000           [1] getglobal  1   0        ; gRegion
9DE3  6440C000           [2] self       1   1   257  ; -1520831144
9DE7  62800001           [3] call       1   2   2  
9DEB  58400000           [4] test       1       1    ; to [6] if false
9DEF  1A000080           [5] jmp        1            ; to [7]
9DF3  1E008000           [6] return     0   1      
9DF7  1E008000           [7] return     0   1      
                         * constants:
9DFB  02                 sizek (2)
9DFC  04                 const type 4
9DFD  08                 string size (8)
9DFE  67526567696F6E00   "gRegion\0"
                         const [0]: "gRegion"
9E06  01                 const type 3
9E07  58F559A5           const [1]: (-1520831144)
                         * functions:
9E0B  00                 sizep (0)
                         * lines:
9E0C  07                 sizelineinfo (7)
                         [pc] (line)
9E0D  0E                 [1] (14)
9E0E  05                 [2] (14)
9E0F  00                 [3] (14)
9E10  00                 [4] (14)
9E11  0E                 [5] (14)
9E12  05                 [6] (15)
9E13  00                 [7] (17)
                         * locals:
9E29  00                 sizelocvars (0)
                         * upvalues:
9E2A  00                 sizeupvalues (0)
                         ** end of function **

                         
9E2B                     ** function [33] definition (level 2)
                         ** start of function **
9E2B  00                 string size (0)
                         source name: (none)
9E2D  0A                 line defined (1299)
9E2E  97                 last line defined (1303)
9E2F  0A                 nups (1)
9E30  01                 numparams (2)
9E31  02                 is_vararg (0)
9E32  00                 maxstacksize (7)
                         * code:
9E34  14                 sizecode (20)
9E35  18000000           [01] test       0       0    ; to [3] if true
9E39  1A000480           [02] jmp        17           ; to [20]
9E3D  9D000000           [03] getglobal  2   0        ; gRegion
9E41  A4404001           [04] self       2   2   257  ; -1520831144
9E45  A2800001           [05] call       2   2   2  
9E49  98000000           [06] test       2       0    ; to [8] if true
9E4D  1AC00280           [07] jmp        12           ; to [20]
9E51  9D800000           [08] getglobal  2   2        ; _T
9E55  8EC04001           [09] gettable   2   2   259  ; "IsEliteAlert"
9E59  98000000           [10] test       2       0    ; to [12] if true
9E5D  1AC00180           [11] jmp        8            ; to [20]
9E61  9D000000           [12] getglobal  2   0        ; gRegion
9E65  A4004101           [13] self       2   2   260  ; -1110225722
9E69  1D410100           [14] getglobal  4   5        ; -895206725
9E6D  53010000           [15] getupval   5   0      
9E71  22810001           [16] call       4   2   2  
9E75  5D810100           [17] getglobal  5   6        ; ZERO_VECTOR
9E79  9DC10100           [18] getglobal  6   7        ; ZERO_ROTATION
9E7D  A2408002           [19] call       2   5   1  
9E81  1E008000           [20] return     0   1      
                         * constants:
9E85  08                 sizek (8)
9E86  04                 const type 4
9E87  08                 string size (8)
9E88  67526567696F6E00   "gRegion\0"
                         const [0]: "gRegion"
9E90  01                 const type 3
9E91  58F559A5           const [1]: (-1520831144)
9E95  04                 const type 4
9E96  03                 string size (3)
9E97  5F5400             "_T\0"
                         const [2]: "_T"
9E9A  04                 const type 4
9E9B  0D                 string size (13)
9E9C  4973456C69746541+  "IsEliteA"
9EA4  6C65727400         "lert\0"
                         const [3]: "IsEliteAlert"
9EA9  01                 const type 3
9EAA  C64CD3BD           const [4]: (-1110225722)
9EAE  01                 const type 3
9EAF  BB3AA4CA           const [5]: (-895206725)
9EB3  04                 const type 4
9EB4  0C                 string size (12)
9EB5  5A45524F5F564543+  "ZERO_VEC"
9EBD  544F5200           "TOR\0"
                         const [6]: "ZERO_VECTOR"
9EC1  04                 const type 4
9EC2  0E                 string size (14)
9EC3  5A45524F5F524F54+  "ZERO_ROT"
9ECB  4154494F4E00       "ATION\0"
                         const [7]: "ZERO_ROTATION"
                         * functions:
9ED1  00                 sizep (0)
                         * lines:
9ED2  14                 sizelineinfo (20)
                         [pc] (line)
9ED3  14                 [01] (20)
9ED4  05                 [02] (20)
9ED5  00                 [03] (20)
9ED6  00                 [04] (20)
9ED7  14                 [05] (20)
9ED8  05                 [06] (20)
9ED9  00                 [07] (20)
9EDA  00                 [08] (20)
9EDB  14                 [09] (20)
9EDC  05                 [10] (20)
9EDD  00                 [11] (20)
9EDE  00                 [12] (21)
9EDF  14                 [13] (21)
9EE0  05                 [14] (21)
9EE1  00                 [15] (21)
9EE2  00                 [16] (21)
9EE3  14                 [17] (21)
9EE4  05                 [18] (21)
9EE5  00                 [19] (21)
9EE6  00                 [20] (23)
                         * locals:
9F23  00                 sizelocvars (0)
                         * upvalues:
9F24  00                 sizeupvalues (0)
                         ** end of function **

                         
9F25                     ** function [34] definition (level 2)
                         ** start of function **
9F25  00                 string size (0)
                         source name: (none)
9F27  0A                 line defined (1305)
9F28  AB                 last line defined (1451)
9F29  0B                 nups (1)
9F2A  01                 numparams (1)
9F2B  01                 is_vararg (0)
9F2C  00                 maxstacksize (62)
                         * code:
9F2F  02                 sizecode (357)
9F30  5D000000           [001] getglobal  1   0        ; 538022378
9F34  99400000           [002] loadk      2   1        ; 0
9F38  62400001           [003] call       1   2   1  
9F3C  4B000002           [004] newtable   1   4   0    ; array=4, hash=0
9F40  99800000           [005] loadk      2   2        ; 0
9F44  D9C00000           [006] loadk      3   3        ; 0
9F48  19010100           [007] loadk      4   4        ; 0
9F4C  59410100           [008] loadk      5   5        ; 0
9F50  5B400002           [009] setlist    1   4   1    ; index 1 to 4
9F54  9D800100           [010] getglobal  2   6        ; gRegion
9F58  A4C04101           [011] self       2   2   263  ; 1224466847
9F5C  A2800001           [012] call       2   2   2  
9F60  8A000001           [013] len        2   2      
9F64  8E808000           [014] gettable   2   1   2  
9F68  DD000200           [015] getglobal  3   8        ; gGameRules
9F6C  E440C201           [016] self       3   3   265  ; -1201441975
9F70  E2800001           [017] call       3   2   2  
9F74  E480C201           [018] self       3   3   266  ; -272348948
9F78  E2800001           [019] call       3   2   2  
9F7C  1D010200           [020] getglobal  4   8        ; gGameRules
9F80  24414202           [021] self       4   4   265  ; -1201441975
9F84  22810001           [022] call       4   2   2  
9F88  0EC14202           [023] gettable   4   4   267  ; "minEnemyLevel"
9F8C  5D010200           [024] getglobal  5   8        ; gGameRules
9F90  6441C202           [025] self       5   5   265  ; -1201441975
9F94  62810001           [026] call       5   2   2  
9F98  4E01C302           [027] gettable   5   5   268  ; "maxEnemyLevel"
9F9C  9D810100           [028] getglobal  6   6        ; gRegion
9FA0  A4414303           [029] self       6   6   269  ; -774964848
9FA4  A2810001           [030] call       6   2   2  
9FA8  A4814303           [031] self       6   6   270  ; 537471347
9FAC  A2810001           [032] call       6   2   2  
9FB0  DDC10300           [033] getglobal  7   15       ; 2144646525
9FB4  0D024401           [034] sub        8   2   272  ; 0
9FB8  43424401           [035] add        9   2   273  ; 0
9FBC  E2818001           [036] call       7   3   2  
9FC0  1D820400           [037] getglobal  8   18       ; _T
9FC4  0EC24404           [038] gettable   8   8   275  ; "AssterminationAmbushIndices"
9FC8  5D820400           [039] getglobal  9   18       ; _T
9FCC  4E02C504           [040] gettable   9   9   276  ; "AssterminationNextChokePoint"
9FD0  0E420204           [041] gettable   8   8   9  
9FD4  5D820400           [042] getglobal  9   18       ; _T
9FD8  4E42C504           [043] gettable   9   9   277  ; "AssterminationChokePoints"
9FDC  4E028204           [044] gettable   9   9   8  
9FE0  4E82C504           [045] gettable   9   9   278  ; "pos"
9FE4  9D820400           [046] getglobal  10  18       ; _T
9FE8  8E424505           [047] gettable   10  10  277  ; "AssterminationChokePoints"
9FEC  8E020205           [048] gettable   10  10  8  
9FF0  8EC24505           [049] gettable   10  10  279  ; "orient"
9FF4  D7020000           [050] loadbool   11  0   0    ; false
9FF8  1DC30300           [051] getglobal  12  15       ; 2144646525
9FFC  52030002           [052] move       13  4      
A000  92038002           [053] move       14  5      
A004  22838001           [054] call       12  3   2  
A008  46038006           [055] loadnil    13  13     
A00C  93030000           [056] getupval   14  0      
A010  A2838000           [057] call       14  1   2  
A014  98030000           [058] test       14      0    ; to [60] if true
A018  1A000480           [059] jmp        17           ; to [77]
A01C  9D830400           [060] getglobal  14  18       ; _T
A020  8E034607           [061] gettable   14  14  280  ; "AssterminationAmbushMiniBossIndices"
A024  DD830400           [062] getglobal  15  18       ; _T
A028  CE03C507           [063] gettable   15  15  276  ; "AssterminationNextChokePoint"
A02C  8EC30307           [064] gettable   14  14  15 
fail op	35
A030  23404607           [065] close      0  
A034  1A400280           [066] jmp        10           ; to [77]
A038  9D830600           [067] getglobal  14  26       ; -895206725
A03C  DD030200           [068] getglobal  15  8        ; gGameRules
A040  E443C207           [069] self       15  15  265  ; -1201441975
A044  E2830001           [070] call       15  2   2  
A048  CEC3C607           [071] gettable   15  15  283  ; "vipAgent"
A04C  A2830001           [072] call       14  2   2  
A050  52030007           [073] move       13  14     
A054  12038002           [074] move       12  5      
A058  D7028000           [075] loadbool   11  1   0    ; true
A05C  1A000180           [076] jmp        5            ; to [82]
A060  A4034703           [077] self       14  6   284  ; 1842573415
A064  12048001           [078] move       16  3      
A068  52040006           [079] move       17  12     
A06C  A2830002           [080] call       14  4   2  
A070  52030007           [081] move       13  14     
A074  9D830100           [082] getglobal  14  6        ; gRegion
A078  A4434707           [083] self       14  14  285  ; -1084394954
A07C  1D840700           [084] getglobal  16  30       ; gNpcDoorHintType
A080  52048004           [085] move       17  9      
A084  A2830002           [086] call       14  4   2  
A088  DDC30700           [087] getglobal  15  31       ; 1074689893
A08C  12040007           [088] move       16  14     
A090  E2830001           [089] call       15  2   2  
A094  D8430000           [090] test       15      1    ; to [92] if false
A098  1A000480           [091] jmp        17           ; to [109]
A09C  E4034807           [092] self       15  14  288  ; -1458195772
A0A0  59440000           [093] loadk      17  1        ; 0
A0A4  E2838001           [094] call       15  3   2  
A0A8  24044807           [095] self       16  14  288  ; -1458195772
A0AC  99440800           [096] loadk      18  33       ; 0
A0B0  22848001           [097] call       16  3   2  
A0B4  64844803           [098] self       17  6   290  ; 2028361752
A0B8  D2048007           [099] move       19  15     
A0BC  62848001           [100] call       17  3   2  
A0C0  A4844803           [101] self       18  6   290  ; 2028361752
A0C4  12050008           [102] move       20  16     
A0C8  A2848001           [103] call       18  3   2  
fail op	21
A0CC  15400409           [104] concat     0   18  17 
A0D0  1A400080           [105] jmp        2            ; to [108]
A0D4  52028007           [106] move       9   15     
A0D8  1A000080           [107] jmp        1            ; to [109]
A0DC  52020008           [108] move       9   16     
A0E0  CB040000           [109] newtable   19  0   0    ; array=0, hash=0
A0E4  24C54803           [110] self       20  6   291  ; -617004740
A0E8  92058006           [111] move       22  13     
A0EC  D2058004           [112] move       23  9      
A0F0  12060005           [113] move       24  10     
A0F4  59460000           [114] loadk      25  1        ; 0
A0F8  9D060900           [115] getglobal  26  36       ; EMPTY_SYMBOL
A0FC  D2060006           [116] move       27  12     
A100  22850004           [117] call       20  8   2  
A104  6445490A           [118] self       21  20  293  ; -2135866365
A108  62850001           [119] call       21  2   2  
A10C  9D850900           [120] getglobal  22  38       ; table
A110  8EC5490B           [121] gettable   22  22  295  ; -431682403
A114  D2058009           [122] move       23  19     
A118  1206800A           [123] move       24  21     
A11C  A2458001           [124] call       22  3   1  
A120  A405CA0A           [125] self       22  21  296  ; 1870469124
A124  17068000           [126] loadbool   24  1   0    ; true
A128  A2458001           [127] call       22  3   1  
A12C  A445CA0A           [128] self       22  21  297  ; 155743781
A130  19860A00           [129] loadk      24  42       ; 0
A134  A2458001           [130] call       22  3   1  
A138  A4C5CA0A           [131] self       22  21  299  ; -1338608417
A13C  12068001           [132] move       24  3      
A140  A2458001           [133] call       22  3   1  
A144  A405CB0A           [134] self       22  21  300  ; 2080276352
A148  0606000C           [135] loadnil    24  24     
A14C  A2458001           [136] call       22  3   1  
A150  D8020000           [137] test       11      0    ; to [139] if true
A154  1A000380           [138] jmp        13           ; to [152]
A158  A445CB0A           [139] self       22  21  301  ; -1917464545
A15C  A2850001           [140] call       22  2   2  
A160  A4854B0B           [141] self       22  22  302  ; 991629753
A164  1DC60B00           [142] getglobal  24  47       ; Game
A168  0E064C0C           [143] gettable   24  24  304  ; "AVATAR_HEALTH_MAX"
A16C  5DC60B00           [144] getglobal  25  47       ; Game
A170  4E46CC0C           [145] gettable   25  25  305  ; "STACKING_MULTIPLY"
A174  99060400           [146] loadk      26  16       ; 0
A178  A2458002           [147] call       22  5   1  
A17C  A485CC0A           [148] self       22  21  306  ; 1992436207
A180  24C6CC0A           [149] self       24  21  307  ; 945541886
A184  22060001           [150] call       24  2   0  
A188  A2450000           [151] call       22  0   1  
A18C  9D050000           [152] getglobal  22  0        ; 538022378
A190  D9450000           [153] loadk      23  1        ; 0
A194  A2450001           [154] call       22  2   1  
A198  A405CD0A           [155] self       22  21  308  ; 1927666530
A19C  A2850001           [156] call       22  2   2  
A1A0  D9450000           [157] loadk      23  1        ; 0
A1A4  19460D00           [158] loadk      24  53       ; 0
A1A8  52068004           [159] move       25  9      
A1AC  99460400           [160] loadk      26  17       ; 0
A1B0  D7060000           [161] loadbool   27  0   0    ; false
fail op	21
A1B4  15008680           [162] concat     0   257 24 
A1B8  1A001580           [163] jmp        85           ; to [249]
A1BC  24874D03           [164] self       28  6   310  ; -898367557
A1C0  9207800C           [165] move       30  25     
A1C4  D9C70D00           [166] loadk      31  55       ; 0
A1C8  19080100           [167] loadk      32  4        ; 0
A1CC  57088000           [168] loadbool   33  1   0    ; true
A1D0  99480800           [169] loadk      34  33       ; 0
A1D4  22878003           [170] call       28  7   2  
A1D8  5DC70700           [171] getglobal  29  31       ; 1074689893
A1DC  9207000E           [172] move       30  28     
A1E0  62870001           [173] call       29  2   2  
A1E4  58470000           [174] test       29      1    ; to [176] if false
A1E8  1A000E80           [175] jmp        57           ; to [233]
A1EC  5D870100           [176] getglobal  29  6        ; gRegion
A1F0  6407CE0E           [177] self       29  29  312  ; 1438803589
A1F4  D207000E           [178] move       31  28     
A1F8  62878001           [179] call       29  3   2  
fail op	35
A1FC  2380850E           [180] close      0  
A200  1A800C80           [181] jmp        51           ; to [233]
A204  5D870100           [182] getglobal  29  6        ; gRegion
A208  6447CE0E           [183] self       29  29  313  ; 65205951
A20C  62870001           [184] call       29  2   2  
A210  9D870E00           [185] getglobal  30  58       ; 572299008
A214  A2878000           [186] call       30  1   2  
A218  DD870E00           [187] getglobal  31  58       ; 572299008
A21C  E2878000           [188] call       31  1   2  
A220  24C8CE0E           [189] self       32  29  315  ; 33935672
A224  9208000F           [190] move       34  30     
A228  D208800F           [191] move       35  31     
A22C  22880002           [192] call       32  4   2  
A230  6408CF0E           [193] self       33  29  316  ; 1839670529
A234  62880001           [194] call       33  2   2  
A238  8D47080F           [195] sub        30  30  33 
A23C  CD47880F           [196] sub        31  31  33 
A240  A448CF0E           [197] self       34  29  317  ; -1990644265
A244  0389070E           [198] add        36  28  30 
A248  43C9070E           [199] add        37  28  31 
A24C  92090010           [200] move       38  32     
A250  C6098013           [201] loadnil    39  39     
A254  A2880003           [202] call       34  6   2  
A258  98080000           [203] test       34      0    ; to [205] if true
A25C  1AC00680           [204] jmp        28           ; to [233]
A260  9DC80300           [205] getglobal  34  15       ; 2144646525
A264  D2080002           [206] move       35  4      
A268  12098002           [207] move       36  5      
A26C  A2888001           [208] call       34  3   2  
A270  E4084703           [209] self       35  6   284  ; 1842573415
A274  52098001           [210] move       37  3      
A278  92090011           [211] move       38  34     
A27C  E2880002           [212] call       35  4   2  
A280  24894F03           [213] self       36  6   318  ; -1766734455
A284  92098011           [214] move       38  35     
A288  D209000E           [215] move       39  28     
A28C  1DCA0F00           [216] getglobal  40  63       ; ZERO_ROTATION
A290  5D0A0900           [217] getglobal  41  36       ; EMPTY_SYMBOL
A294  920A0011           [218] move       42  34     
A298  22898003           [219] call       36  7   2  
A29C  64494912           [220] self       37  36  293  ; -2135866365
A2A0  62890001           [221] call       37  2   2  
A2A4  9D890900           [222] getglobal  38  38       ; table
A2A8  8EC94913           [223] gettable   38  38  295  ; -431682403
A2AC  D2098009           [224] move       39  19     
A2B0  120A8012           [225] move       40  37     
A2B4  A2498001           [226] call       38  3   1  
A2B8  A409CA12           [227] self       38  37  296  ; 1870469124
A2BC  170A8000           [228] loadbool   40  1   0    ; true
A2C0  A2498001           [229] call       38  3   1  
A2C4  5206000E           [230] move       25  28     
A2C8  C345C80B           [231] add        23  23  289  ; 0
A2CC  D7068000           [232] loadbool   27  1   0    ; true
A2D0  0D46480C           [233] sub        24  24  289  ; 0
fail op	35
A2D4  23C0810B           [234] close      0  
A2D8  1A000080           [235] jmp        1            ; to [237]
A2DC  1AC00280           [236] jmp        12           ; to [249]
fail op	35
A2E0  6340400D           [237] close      1  
A2E4  1A400080           [238] jmp        2            ; to [241]
A2E8  D8060000           [239] test       27      0    ; to [241] if true
A2EC  1A400180           [240] jmp        6            ; to [247]
A2F0  9D090000           [241] getglobal  38  0        ; 538022378
A2F4  D9490000           [242] loadk      39  1        ; 0
A2F8  A2490001           [243] call       38  2   1  
A2FC  99460400           [244] loadk      26  17       ; 0
A300  D7060000           [245] loadbool   27  0   0    ; false
A304  1A80EA7F           [246] jmp        -85          ; to [162]
A308  8D46480D           [247] sub        26  26  289  ; 0
A30C  1A00EA7F           [248] jmp        -87          ; to [162]
fail op	33
A310  2140400C           [249] tforloop   0       257  ; to [251] if exit
A314  1A800080           [250] jmp        3            ; to [254]
A318  9D091000           [251] getglobal  38  64       ; -1817107093
A31C  D9491000           [252] loadk      39  65       ; "ASSTERMINATION: Ran out of tries to find points to spawn enemies"
A320  A2490001           [253] call       38  2   1  
A324  9D890400           [254] getglobal  38  18       ; _T
A328  8E094513           [255] gettable   38  38  276  ; "AssterminationNextChokePoint"
fail op	21
A32C  15808990           [256] concat     0   289 38 
A330  1A800680           [257] jmp        27           ; to [285]
A334  99490800           [258] loadk      38  33       ; 0
A338  DD890400           [259] getglobal  39  18       ; _T
A33C  CEC9C413           [260] gettable   39  39  275  ; "AssterminationAmbushIndices"
A340  1D8A0400           [261] getglobal  40  18       ; _T
A344  0E0A4514           [262] gettable   40  40  276  ; "AssterminationNextChokePoint"
A348  0D4A4814           [263] sub        40  40  289  ; 0
A34C  CE098A13           [264] gettable   39  39  40 
A350  194A0800           [265] loadk      40  33       ; 0
A354  90090480           [266] forprep    38  17       ; to [284]
A358  9D8A0100           [267] getglobal  42  6        ; gRegion
A35C  A44A4715           [268] self       42  42  285  ; -1084394954
A360  1D8B0700           [269] getglobal  44  30       ; gNpcDoorHintType
A364  5D8B0400           [270] getglobal  45  18       ; _T
A368  4E4BC516           [271] gettable   45  45  277  ; "AssterminationChokePoints"
A36C  4E4B8A16           [272] gettable   45  45  41 
A370  4E8BC516           [273] gettable   45  45  278  ; "pos"
A374  99CB0D00           [274] loadk      46  55       ; 0
A378  A28A8002           [275] call       42  5   2  
A37C  DDCA0700           [276] getglobal  43  31       ; 1074689893
A380  120B0015           [277] move       44  42     
A384  E28A0001           [278] call       43  2   2  
A388  D84A0000           [279] test       43      1    ; to [281] if false
A38C  1A800080           [280] jmp        3            ; to [284]
A390  E48A5015           [281] self       43  42  322  ; -1923578185
A394  59CB1000           [282] loadk      45  67       ; "Unlock"
A398  E24A8001           [283] call       43  3   1  
A39C  9449FB7F           [284] forloop    38  -18      ; to [267] if loop
A3A0  DD8A0400           [285] getglobal  43  18       ; _T
A3A4  1D8B0100           [286] getglobal  44  6        ; gRegion
A3A8  244B4316           [287] self       44  44  269  ; -774964848
A3AC  228B0001           [288] call       44  2   2  
A3B0  248B4316           [289] self       44  44  270  ; 537471347
A3B4  228B0001           [290] call       44  2   2  
A3B8  244B5116           [291] self       44  44  325  ; -1626084341
A3BC  228B0001           [292] call       44  2   2  
A3C0  CC0A0BA2           [293] settable   43  324 44   ; "AssterminationTotalEnemies"
A3C4  DD8A0400           [294] getglobal  43  18       ; _T
A3C8  CCCA51A3           [295] settable   43  326 327  ; "AssterminationAmbushSpawnRunning" 0
A3CC  DD8A0400           [296] getglobal  43  18       ; _T
A3D0  CCCA51A4           [297] settable   43  328 327  ; "AssterminationNextRoomPending" 0
A3D4  D70A0000           [298] loadbool   43  0   0    ; false
A3D8  1D8B0400           [299] getglobal  44  18       ; _T
A3DC  0E4B4516           [300] gettable   44  44  277  ; "AssterminationChokePoints"
A3E0  5D8B0400           [301] getglobal  45  18       ; _T
A3E4  4E0BC516           [302] gettable   45  45  276  ; "AssterminationNextChokePoint"
A3E8  0E4B0B16           [303] gettable   44  44  45 
A3EC  0E8B4516           [304] gettable   44  44  278  ; "pos"
A3F0  59CB0D00           [305] loadk      45  55       ; 0
A3F4  D84A0000           [306] test       43      1    ; to [308] if false
A3F8  1A400680           [307] jmp        26           ; to [334]
A3FC  9D8B0100           [308] getglobal  46  6        ; gRegion
A400  A44B5217           [309] self       46  46  329  ; -2071158816
A404  A28B0001           [310] call       46  2   2  
A408  DD8B1200           [311] getglobal  47  74       ; 248503575
A40C  120C0017           [312] move       48  46     
A410  E20B0101           [313] call       47  2   4  
A414  1A800280           [314] jmp        11           ; to [326]
A418  24CDD219           [315] self       52  51  331  ; 2096180245
A41C  920D0016           [316] move       54  44     
A420  228D8001           [317] call       52  3   2  
A424  444D8B16           [318] mul        53  45  45 
fail op	21
A428  55400D1A           [319] concat     1   52  53 
A42C  1A000080           [320] jmp        1            ; to [322]
A430  D74A0000           [321] loadbool   43  0   1    ; false, to [323]
A434  D70A8000           [322] loadbool   43  1   0    ; true
A438  D80A0000           [323] test       43      0    ; to [325] if true
A43C  1A000080           [324] jmp        1            ; to [326]
A440  1A400080           [325] jmp        2            ; to [328]
A444  D68B0000           [326] tforloop   47      2    ; to [328] if exit
A448  1A80FC7F           [327] jmp        -13          ; to [315]
A44C  D84A0000           [328] test       43      1    ; to [330] if false
A450  1AC0F97F           [329] jmp        -24          ; to [306]
A454  1D0D0000           [330] getglobal  52  0        ; 538022378
A458  594D0000           [331] loadk      53  1        ; 0
A45C  224D0001           [332] call       52  2   1  
A460  1AC0F87F           [333] jmp        -28          ; to [306]
A464  1D8D1200           [334] getglobal  52  74       ; 248503575
A468  520D8009           [335] move       53  19     
A46C  220D0101           [336] call       52  2   4  
A470  1A800080           [337] jmp        3            ; to [341]
A474  640E4A1C           [338] self       57  56  296  ; 1870469124
A478  D70E0000           [339] loadbool   59  0   0    ; false
A47C  624E8001           [340] call       57  3   1  
A480  168D0000           [341] tforloop   52      2    ; to [343] if exit
A484  1A80FE7F           [342] jmp        -5           ; to [338]
A488  5D8E0100           [343] getglobal  57  6        ; gRegion
A48C  644EC71C           [344] self       57  57  285  ; -1084394954
A490  DD8E0700           [345] getglobal  59  30       ; gNpcDoorHintType
A494  120F0016           [346] move       60  44     
A498  59CF0D00           [347] loadk      61  55       ; 0
A49C  628E8002           [348] call       57  5   2  
A4A0  9DCE0700           [349] getglobal  58  31       ; 1074689893
A4A4  D20E801C           [350] move       59  57     
A4A8  A28E0001           [351] call       58  2   2  
A4AC  984E0000           [352] test       58      1    ; to [354] if false
A4B0  1A800080           [353] jmp        3            ; to [357]
A4B4  A48ED01C           [354] self       58  57  322  ; -1923578185
A4B8  19CF1000           [355] loadk      60  67       ; "Unlock"
A4BC  A24E8001           [356] call       58  3   1  
A4C0  1E008000           [357] return     0   1      
                         * constants:
A4C4  4C                 sizek (76)
A4C5  01                 const type 3
A4C6  EA911120           const [0]: (538022378)
A4CA  03                 const type 3
A4CB  00000000           const [1]: (0)
A4CF  03                 const type 3
A4D0  00001041           const [2]: (0)
A4D4  03                 const type 3
A4D5  00004041           const [3]: (0)
A4D9  03                 const type 3
A4DA  00007041           const [4]: (0)
A4DE  03                 const type 3
A4DF  00009041           const [5]: (0)
A4E3  04                 const type 4
A4E4  08                 string size (8)
A4E5  67526567696F6E00   "gRegion\0"
                         const [6]: "gRegion"
A4ED  01                 const type 3
A4EE  9FE1FB48           const [7]: (1224466847)
A4F2  04                 const type 4
A4F3  0B                 string size (11)
A4F4  6747616D6552756C+  "gGameRul"
A4FC  657300             "es\0"
                         const [8]: "gGameRules"
A4FF  01                 const type 3
A500  497363B8           const [9]: (-1201441975)
A504  01                 const type 3
A505  EC48C4EF           const [10]: (-272348948)
A509  04                 const type 4
A50A  0E                 string size (14)
A50B  6D696E456E656D79+  "minEnemy"
A513  4C6576656C00       "Level\0"
                         const [11]: "minEnemyLevel"
A519  04                 const type 4
A51A  0E                 string size (14)
A51B  6D6178456E656D79+  "maxEnemy"
A523  4C6576656C00       "Level\0"
                         const [12]: "maxEnemyLevel"
A529  01                 const type 3
A52A  90F9CED1           const [13]: (-774964848)
A52E  01                 const type 3
A52F  73290920           const [14]: (537471347)
A533  01                 const type 3
A534  7DB5D47F           const [15]: (2144646525)
A538  03                 const type 3
A539  00000040           const [16]: (0)
A53D  03                 const type 3
A53E  00004040           const [17]: (0)
A542  04                 const type 4
A543  03                 string size (3)
A544  5F5400             "_T\0"
                         const [18]: "_T"
A547  04                 const type 4
A548  1C                 string size (28)
A549  4173737465726D69+  "Asstermi"
A551  6E6174696F6E416D+  "nationAm"
A559  62757368496E6469+  "bushIndi"
A561  63657300           "ces\0"
                         const [19]: "AssterminationAmbushIndices"
A565  04                 const type 4
A566  1D                 string size (29)
A567  4173737465726D69+  "Asstermi"
A56F  6E6174696F6E4E65+  "nationNe"
A577  787443686F6B6550+  "xtChokeP"
A57F  6F696E7400         "oint\0"
                         const [20]: "AssterminationNextChokePoint"
A584  04                 const type 4
A585  1A                 string size (26)
A586  4173737465726D69+  "Asstermi"
A58E  6E6174696F6E4368+  "nationCh"
A596  6F6B65506F696E74+  "okePoint"
A59E  7300               "s\0"
                         const [21]: "AssterminationChokePoints"
A5A0  04                 const type 4
A5A1  04                 string size (4)
A5A2  706F7300           "pos\0"
                         const [22]: "pos"
A5A6  04                 const type 4
A5A7  07                 string size (7)
A5A8  6F7269656E7400     "orient\0"
                         const [23]: "orient"
A5AF  04                 const type 4
A5B0  24                 string size (36)
A5B1  4173737465726D69+  "Asstermi"
A5B9  6E6174696F6E416D+  "nationAm"
A5C1  627573684D696E69+  "bushMini"
A5C9  426F7373496E6469+  "BossIndi"
A5D1  63657300           "ces\0"
                         const [24]: "AssterminationAmbushMiniBossIndices"
A5D5  01                 const type 3
A5D6  01000000           const [25]: (1)
A5DA  01                 const type 3
A5DB  BB3AA4CA           const [26]: (-895206725)
A5DF  04                 const type 4
A5E0  09                 string size (9)
A5E1  7669704167656E74+  "vipAgent"
A5E9  00                 "\0"
                         const [27]: "vipAgent"
A5EA  01                 const type 3
A5EB  6770D36D           const [28]: (1842573415)
A5EF  01                 const type 3
A5F0  36725DBF           const [29]: (-1084394954)
A5F4  04                 const type 4
A5F5  11                 string size (17)
A5F6  674E7063446F6F72+  "gNpcDoor"
A5FE  48696E7454797065+  "HintType"
A606  00                 "\0"
                         const [30]: "gNpcDoorHintType"
A607  01                 const type 3
A608  65770E40           const [31]: (1074689893)
A60C  01                 const type 3
A60D  C4B215A9           const [32]: (-1458195772)
A611  03                 const type 3
A612  0000803F           const [33]: (0)
A616  01                 const type 3
A617  1858E678           const [34]: (2028361752)
A61B  01                 const type 3
A61C  3C4139DB           const [35]: (-617004740)
A620  04                 const type 4
A621  0D                 string size (13)
A622  454D5054595F5359+  "EMPTY_SY"
A62A  4D424F4C00         "MBOL\0"
                         const [36]: "EMPTY_SYMBOL"
A62F  01                 const type 3
A630  0344B180           const [37]: (-2135866365)
A634  04                 const type 4
A635  06                 string size (6)
A636  7461626C6500       "table\0"
                         const [38]: "table"
A63C  01                 const type 3
A63D  9D0C45E6           const [39]: (-431682403)
A641  01                 const type 3
A642  04187D6F           const [40]: (1870469124)
A646  01                 const type 3
A647  25764809           const [41]: (155743781)
A64B  03                 const type 3
A64C  0000A0C0           const [42]: (0)
A650  01                 const type 3
A651  DF7436B0           const [43]: (-1338608417)
A655  01                 const type 3
A656  807FFE7B           const [44]: (2080276352)
A65A  01                 const type 3
A65B  1FD0B58D           const [45]: (-1917464545)
A65F  01                 const type 3
A660  B9111B3B           const [46]: (991629753)
A664  04                 const type 4
A665  05                 string size (5)
A666  47616D6500         "Game\0"
                         const [47]: "Game"
A66B  04                 const type 4
A66C  12                 string size (18)
A66D  4156415441525F48+  "AVATAR_H"
A675  45414C54485F4D41+  "EALTH_MA"
A67D  5800               "X\0"
                         const [48]: "AVATAR_HEALTH_MAX"
A67F  04                 const type 4
A680  12                 string size (18)
A681  535441434B494E47+  "STACKING"
A689  5F4D554C5449504C+  "_MULTIPL"
A691  5900               "Y\0"
                         const [49]: "STACKING_MULTIPLY"
A693  01                 const type 3
A694  EF29C276           const [50]: (1992436207)
A698  01                 const type 3
A699  FED25B38           const [51]: (945541886)
A69D  01                 const type 3
A69E  62DBE572           const [52]: (1927666530)
A6A2  03                 const type 3
A6A3  0000C842           const [53]: (0)
A6A7  01                 const type 3
A6A8  BBFF73CA           const [54]: (-898367557)
A6AC  03                 const type 3
A6AD  00002041           const [55]: (0)
A6B1  01                 const type 3
A6B2  8566C255           const [56]: (1438803589)
A6B6  01                 const type 3
A6B7  BFF6E203           const [57]: (65205951)
A6BB  01                 const type 3
A6BC  00971C22           const [58]: (572299008)
A6C0  01                 const type 3
A6C1  38D10502           const [59]: (33935672)
A6C5  01                 const type 3
A6C6  0125A76D           const [60]: (1839670529)
A6CA  01                 const type 3
A6CB  D72D5989           const [61]: (-1990644265)
A6CF  01                 const type 3
A6D0  89C5B196           const [62]: (-1766734455)
A6D4  04                 const type 4
A6D5  0E                 string size (14)
A6D6  5A45524F5F524F54+  "ZERO_ROT"
A6DE  4154494F4E00       "ATION\0"
                         const [63]: "ZERO_ROTATION"
A6E4  01                 const type 3
A6E5  6B25B193           const [64]: (-1817107093)
A6E9  04                 const type 4
A6EA  41                 string size (65)
A6EB  4153535445524D49+  "ASSTERMI"
A6F3  4E4154494F4E3A20+  "NATION: "
A6FB  52616E206F757420+  "Ran out "
A703  6F66207472696573+  "of tries"
A70B  20746F2066696E64+  " to find"
A713  20706F696E747320+  " points "
A71B  746F20737061776E+  "to spawn"
A723  20656E656D696573+  " enemies"
A72B  00                 "\0"
                         const [65]: "ASSTERMINATION: Ran out of tries to find points to spawn enemies"
A72C  01                 const type 3
A72D  B786588D           const [66]: (-1923578185)
A731  04                 const type 4
A732  07                 string size (7)
A733  556E6C6F636B00     "Unlock\0"
                         const [67]: "Unlock"
A73A  04                 const type 4
A73B  1B                 string size (27)
A73C  4173737465726D69+  "Asstermi"
A744  6E6174696F6E546F+  "nationTo"
A74C  74616C456E656D69+  "talEnemi"
A754  657300             "es\0"
                         const [68]: "AssterminationTotalEnemies"
A757  01                 const type 3
A758  0BEC139F           const [69]: (-1626084341)
A75C  04                 const type 4
A75D  21                 string size (33)
A75E  4173737465726D69+  "Asstermi"
A766  6E6174696F6E416D+  "nationAm"
A76E  6275736853706177+  "bushSpaw"
A776  6E52756E6E696E67+  "nRunning"
A77E  00                 "\0"
                         const [70]: "AssterminationAmbushSpawnRunning"
A77F  01                 const type 3
A780  00000000           const [71]: (0)
A784  04                 const type 4
A785  1E                 string size (30)
A786  4173737465726D69+  "Asstermi"
A78E  6E6174696F6E4E65+  "nationNe"
A796  7874526F6F6D5065+  "xtRoomPe"
A79E  6E64696E6700       "nding\0"
                         const [72]: "AssterminationNextRoomPending"
A7A4  01                 const type 3
A7A5  E09F8C84           const [73]: (-2071158816)
A7A9  01                 const type 3
A7AA  17DDCF0E           const [74]: (248503575)
A7AE  01                 const type 3
A7AF  152CF17C           const [75]: (2096180245)
                         * functions:
A7B3  00                 sizep (0)
                         * lines:
A7B5  02                 sizelineinfo (357)
                         [pc] (line)
A7B6  1A                 [001] (26)
A7B7  05                 [002] (26)
A7B8  00                 [003] (26)
A7B9  00                 [004] (29)
A7BA  1A                 [005] (29)
A7BB  05                 [006] (29)
A7BC  00                 [007] (29)
A7BD  00                 [008] (29)
A7BE  1A                 [009] (29)
A7BF  05                 [010] (30)
A7C0  00                 [011] (30)
A7C1  00                 [012] (30)
A7C2  1D                 [013] (30)
A7C3  05                 [014] (30)
A7C4  00                 [015] (33)
A7C5  00                 [016] (33)
A7C6  1D                 [017] (33)
A7C7  05                 [018] (33)
A7C8  00                 [019] (33)
A7C9  00                 [020] (34)
A7CA  1D                 [021] (34)
A7CB  05                 [022] (34)
A7CC  00                 [023] (34)
A7CD  00                 [024] (35)
A7CE  1D                 [025] (35)
A7CF  05                 [026] (35)
A7D0  00                 [027] (35)
A7D1  00                 [028] (36)
A7D2  1D                 [029] (36)
A7D3  05                 [030] (36)
A7D4  00                 [031] (36)
A7D5  00                 [032] (36)
A7D6  1D                 [033] (37)
A7D7  05                 [034] (37)
A7D8  00                 [035] (37)
A7D9  00                 [036] (37)
A7DA  1E                 [037] (38)
A7DB  05                 [038] (38)
A7DC  00                 [039] (38)
A7DD  00                 [040] (38)
A7DE  1E                 [041] (38)
A7DF  05                 [042] (39)
A7E0  00                 [043] (39)
A7E1  00                 [044] (39)
A7E2  1E                 [045] (39)
A7E3  05                 [046] (40)
A7E4  00                 [047] (40)
A7E5  00                 [048] (40)
A7E6  1E                 [049] (40)
A7E7  05                 [050] (43)
A7E8  00                 [051] (44)
A7E9  00                 [052] (44)
A7EA  1E                 [053] (44)
A7EB  05                 [054] (44)
A7EC  00                 [055] (45)
A7ED  00                 [056] (46)
A7EE  21                 [057] (46)
A7EF  05                 [058] (46)
A7F0  00                 [059] (46)
A7F1  00                 [060] (46)
A7F2  21                 [061] (46)
A7F3  05                 [062] (46)
A7F4  00                 [063] (46)
A7F5  00                 [064] (46)
A7F6  21                 [065] (46)
A7F7  05                 [066] (46)
A7F8  00                 [067] (47)
A7F9  00                 [068] (47)
A7FA  21                 [069] (47)
A7FB  05                 [070] (47)
A7FC  00                 [071] (47)
A7FD  00                 [072] (47)
A7FE  21                 [073] (47)
A7FF  05                 [074] (48)
A800  00                 [075] (49)
A801  00                 [076] (49)
A802  22                 [077] (51)
A803  05                 [078] (51)
A804  00                 [079] (51)
A805  00                 [080] (51)
A806  22                 [081] (51)
A807  05                 [082] (54)
A808  00                 [083] (54)
A809  00                 [084] (54)
A80A  22                 [085] (54)
A80B  05                 [086] (54)
A80C  00                 [087] (55)
A80D  00                 [088] (55)
A80E  22                 [089] (55)
A80F  05                 [090] (55)
A810  00                 [091] (55)
A811  00                 [092] (56)
A812  23                 [093] (56)
A813  05                 [094] (56)
A814  00                 [095] (57)
A815  00                 [096] (57)
A816  23                 [097] (57)
A817  05                 [098] (58)
A818  00                 [099] (58)
A819  00                 [100] (58)
A81A  23                 [101] (59)
A81B  05                 [102] (59)
A81C  00                 [103] (59)
A81D  00                 [104] (61)
A81E  23                 [105] (61)
A81F  05                 [106] (62)
A820  00                 [107] (62)
A821  00                 [108] (64)
A822  24                 [109] (68)
A823  05                 [110] (69)
A824  00                 [111] (69)
A825  00                 [112] (69)
A826  24                 [113] (69)
A827  05                 [114] (69)
A828  00                 [115] (69)
A829  00                 [116] (69)
A82A  24                 [117] (69)
A82B  05                 [118] (70)
A82C  00                 [119] (70)
A82D  00                 [120] (71)
A82E  24                 [121] (71)
A82F  05                 [122] (71)
A830  00                 [123] (71)
A831  00                 [124] (71)
A832  24                 [125] (72)
A833  05                 [126] (72)
A834  00                 [127] (72)
A835  00                 [128] (74)
A836  25                 [129] (74)
A837  05                 [130] (74)
A838  00                 [131] (75)
A839  00                 [132] (75)
A83A  25                 [133] (75)
A83B  05                 [134] (76)
A83C  00                 [135] (76)
A83D  00                 [136] (76)
A83E  25                 [137] (78)
A83F  05                 [138] (78)
A840  00                 [139] (79)
A841  00                 [140] (79)
A842  25                 [141] (79)
A843  05                 [142] (79)
A844  00                 [143] (79)
A845  00                 [144] (79)
A846  26                 [145] (79)
A847  05                 [146] (79)
A848  00                 [147] (79)
A849  00                 [148] (80)
A84A  26                 [149] (80)
A84B  05                 [150] (80)
A84C  00                 [151] (80)
A84D  00                 [152] (83)
A84E  26                 [153] (83)
A84F  05                 [154] (83)
A850  00                 [155] (86)
A851  00                 [156] (86)
A852  26                 [157] (87)
A853  05                 [158] (88)
A854  00                 [159] (89)
A855  00                 [160] (90)
A856  26                 [161] (91)
A857  05                 [162] (92)
A858  00                 [163] (92)
A859  00                 [164] (93)
A85A  27                 [165] (93)
A85B  05                 [166] (93)
A85C  00                 [167] (93)
A85D  00                 [168] (93)
A85E  27                 [169] (93)
A85F  05                 [170] (93)
A860  00                 [171] (94)
A861  00                 [172] (94)
A862  27                 [173] (94)
A863  05                 [174] (94)
A864  00                 [175] (94)
A865  00                 [176] (94)
A866  27                 [177] (94)
A867  05                 [178] (94)
A868  00                 [179] (94)
A869  00                 [180] (94)
A86A  28                 [181] (94)
A86B  05                 [182] (95)
A86C  00                 [183] (95)
A86D  00                 [184] (95)
A86E  28                 [185] (96)
A86F  05                 [186] (96)
A870  00                 [187] (96)
A871  00                 [188] (96)
A872  28                 [189] (97)
A873  05                 [190] (97)
A874  00                 [191] (97)
A875  00                 [192] (97)
A876  28                 [193] (98)
A877  05                 [194] (98)
A878  00                 [195] (99)
A879  00                 [196] (100)
A87A  2B                 [197] (102)
A87B  05                 [198] (102)
A87C  00                 [199] (102)
A87D  00                 [200] (102)
A87E  2C                 [201] (102)
A87F  05                 [202] (102)
A880  00                 [203] (102)
A881  00                 [204] (102)
A882  2C                 [205] (103)
A883  05                 [206] (103)
A884  00                 [207] (103)
A885  00                 [208] (103)
A886  2C                 [209] (104)
A887  05                 [210] (104)
A888  00                 [211] (104)
A889  00                 [212] (104)
A88A  2C                 [213] (105)
A88B  05                 [214] (105)
A88C  00                 [215] (105)
A88D  00                 [216] (105)
A88E  2D                 [217] (105)
A88F  05                 [218] (105)
A890  00                 [219] (105)
A891  00                 [220] (106)
A892  2E                 [221] (106)
A893  05                 [222] (107)
A894  00                 [223] (107)
A895  00                 [224] (107)
A896  2E                 [225] (107)
A897  05                 [226] (107)
A898  00                 [227] (108)
A899  00                 [228] (108)
A89A  2E                 [229] (108)
A89B  05                 [230] (109)
A89C  00                 [231] (110)
A89D  00                 [232] (111)
A89E  2E                 [233] (115)
A89F  05                 [234] (116)
A8A0  00                 [235] (116)
A8A1  00                 [236] (117)
A8A2  2E                 [237] (119)
A8A3  05                 [238] (119)
A8A4  00                 [239] (119)
A8A5  00                 [240] (119)
A8A6  2E                 [241] (120)
A8A7  05                 [242] (120)
A8A8  00                 [243] (120)
A8A9  00                 [244] (121)
A8AA  2E                 [245] (122)
A8AB  05                 [246] (122)
A8AC  00                 [247] (124)
A8AD  00                 [248] (125)
A8AE  2E                 [249] (-128)
A8AF  05                 [250] (-128)
A8B0  00                 [251] (-127)
A8B1  00                 [252] (-127)
A8B2  2E                 [253] (-127)
A8B3  05                 [254] (-123)
A8B4  00                 [255] (-123)
A8B5  00                 [256] (-123)
A8B6  2E                 [257] (-123)
A8B7  05                 [258] (-122)
A8B8  00                 [259] (-122)
A8B9  00                 [260] (-122)
A8BA  2E                 [261] (-122)
A8BB  05                 [262] (-122)
A8BC  00                 [263] (-122)
A8BD  00                 [264] (-122)
A8BE  2F                 [265] (-122)
A8BF  05                 [266] (-122)
A8C0  00                 [267] (-121)
A8C1  00                 [268] (-121)
A8C2  2F                 [269] (-121)
A8C3  05                 [270] (-121)
A8C4  00                 [271] (-121)
A8C5  00                 [272] (-121)
A8C6  2F                 [273] (-121)
A8C7  05                 [274] (-121)
A8C8  00                 [275] (-121)
A8C9  00                 [276] (-120)
A8CA  2F                 [277] (-120)
A8CB  05                 [278] (-120)
A8CC  00                 [279] (-120)
A8CD  00                 [280] (-120)
A8CE  2F                 [281] (-119)
A8CF  05                 [282] (-119)
A8D0  00                 [283] (-119)
A8D1  00                 [284] (-122)
A8D2  2F                 [285] (-114)
A8D3  05                 [286] (-114)
A8D4  00                 [287] (-114)
A8D5  00                 [288] (-114)
A8D6  2F                 [289] (-114)
A8D7  05                 [290] (-114)
A8D8  00                 [291] (-114)
A8D9  00                 [292] (-114)
A8DA  30                 [293] (-114)
A8DB  05                 [294] (-113)
A8DC  00                 [295] (-113)
A8DD  00                 [296] (-112)
A8DE  31                 [297] (-112)
A8DF  05                 [298] (-110)
A8E0  00                 [299] (-109)
A8E1  00                 [300] (-109)
A8E2  31                 [301] (-109)
A8E3  05                 [302] (-109)
A8E4  00                 [303] (-109)
A8E5  00                 [304] (-109)
A8E6  33                 [305] (-108)
A8E7  05                 [306] (-107)
A8E8  00                 [307] (-107)
A8E9  00                 [308] (-106)
A8EA  33                 [309] (-106)
A8EB  05                 [310] (-106)
A8EC  00                 [311] (-105)
A8ED  00                 [312] (-105)
A8EE  33                 [313] (-105)
A8EF  05                 [314] (-105)
A8F0  00                 [315] (-104)
A8F1  00                 [316] (-104)
A8F2  33                 [317] (-104)
A8F3  05                 [318] (-104)
A8F4  00                 [319] (-104)
A8F5  00                 [320] (-104)
A8F6  33                 [321] (-104)
A8F7  05                 [322] (-104)
A8F8  00                 [323] (-103)
A8F9  00                 [324] (-103)
A8FA  36                 [325] (-102)
A8FB  05                 [326] (-105)
A8FC  00                 [327] (-101)
A8FD  00                 [328] (-98)
A8FE  36                 [329] (-98)
A8FF  05                 [330] (-97)
A900  00                 [331] (-97)
A901  00                 [332] (-97)
A902  36                 [333] (-96)
A903  05                 [334] (-93)
A904  00                 [335] (-93)
A905  00                 [336] (-93)
A906  36                 [337] (-93)
A907  05                 [338] (-92)
A908  00                 [339] (-92)
A909  00                 [340] (-92)
A90A  36                 [341] (-93)
A90B  05                 [342] (-92)
A90C  00                 [343] (-89)
A90D  00                 [344] (-89)
A90E  37                 [345] (-89)
A90F  05                 [346] (-89)
A910  00                 [347] (-89)
A911  00                 [348] (-89)
A912  37                 [349] (-88)
A913  05                 [350] (-88)
A914  00                 [351] (-88)
A915  00                 [352] (-88)
A916  37                 [353] (-88)
A917  05                 [354] (-87)
A918  00                 [355] (-87)
A919  00                 [356] (-87)
A91A  37                 [357] (-85)
                         * locals:
AD4A  00                 sizelocvars (0)
                         * upvalues:
AD4B  00                 sizeupvalues (0)
                         ** end of function **

                         
AD4C                     ** function [35] definition (level 2)
                         ** start of function **
AD4C  00                 string size (0)
                         source name: (none)
AD4E  0B                 line defined (1453)
AD4F  E7                 last line defined (1511)
AD50  0B                 nups (3)
AD51  03                 numparams (1)
AD52  01                 is_vararg (0)
AD53  00                 maxstacksize (26)
                         * code:
AD56  01                 sizecode (144)
AD57  5D000000           [001] getglobal  1   0        ; 538022378
AD5B  99400000           [002] loadk      2   1        ; 0
AD5F  62400001           [003] call       1   2   1  
AD63  5D800000           [004] getglobal  1   2        ; gRegion
AD67  64C0C000           [005] self       1   1   259  ; -774964848
AD6B  62800001           [006] call       1   2   2  
AD6F  6400C100           [007] self       1   1   260  ; 537471347
AD73  62800001           [008] call       1   2   2  
AD77  9D400100           [009] getglobal  2   5        ; gGameRules
AD7B  A4804101           [010] self       2   2   262  ; -1201441975
AD7F  A2800001           [011] call       2   2   2  
AD83  E4C04101           [012] self       3   2   263  ; -272348948
AD87  E2800001           [013] call       3   2   2  
AD8B  0E014201           [014] gettable   4   2   264  ; "maxEnemyLevel"
AD8F  59410200           [015] loadk      5   9        ; 0
AD93  99810200           [016] loadk      6   10       ; 0
AD97  D9410200           [017] loadk      7   9        ; 0
AD9B  50410280           [018] forprep    5   10       ; to [29]
AD9F  64C2C200           [019] self       9   1   267  ; 1842573415
ADA3  D2028001           [020] move       11  3      
ADA7  12030002           [021] move       12  4      
ADAB  62820002           [022] call       9   4   2  
ADAF  A402C300           [023] self       10  1   268  ; -2120903900
ADB3  12038004           [024] move       12  9      
ADB7  52030000           [025] move       13  0      
ADBB  99430300           [026] loadk      14  13       ; 0
ADBF  DD830300           [027] getglobal  15  14       ; EMPTY_SYMBOL
ADC3  A2420003           [028] call       10  6   1  
ADC7  5401FD7F           [029] forloop    5   -11      ; to [19] if loop
ADCB  8EC24301           [030] gettable   10  2   271  ; "vipAgent"
ADCF  CB020000           [031] newtable   11  0   0    ; array=0, hash=0
ADD3  0A038005           [032] len        12  11     
fail op	35
ADD7  23404006           [033] close      0  
ADDB  1AC00280           [034] jmp        12           ; to [47]
ADDF  1D030000           [035] getglobal  12  0        ; 538022378
ADE3  59030400           [036] loadk      13  16       ; -51
ADE7  22430001           [037] call       12  2   1  
ADEB  2443C400           [038] self       12  1   273  ; 1929488477
ADEF  92030000           [039] move       14  0      
ADF3  D9830400           [040] loadk      15  18       ; 0
ADF7  17040000           [041] loadbool   16  0   0    ; false
ADFB  57040000           [042] loadbool   17  0   0    ; false
ADFF  92040005           [043] move       18  10     
AE03  22838003           [044] call       12  7   2  
AE07  D2020006           [045] move       11  12     
AE0B  1A00FC7F           [046] jmp        -15          ; to [32]
AE0F  0E43C205           [047] gettable   12  11  265  ; 0
AE13  64C34406           [048] self       13  12  275  ; -2135866365
AE17  62830001           [049] call       13  2   2  
AE1B  A4034506           [050] self       14  12  276  ; -1272115292
AE1F  12048001           [051] move       16  3      
AE23  A2438001           [052] call       14  3   1  
AE27  A443C506           [053] self       14  13  277  ; -1338608417
AE2B  12048001           [054] move       16  3      
AE2F  A2438001           [055] call       14  3   1  
AE33  8E034201           [056] gettable   14  2   264  ; "maxEnemyLevel"
fail op	21
AE37  1580038B           [057] concat     0   278 14 
AE3B  1A000180           [058] jmp        5            ; to [64]
AE3F  A4C3C506           [059] self       14  13  279  ; 2080276352
AE43  1D040600           [060] getglobal  16  24       ; 2083004503
AE47  53040000           [061] getupval   17  0      
AE4B  22040001           [062] call       16  2   0  
AE4F  A2430000           [063] call       14  0   1  
AE53  A443C600           [064] self       14  1   281  ; -1354842897
AE57  12048006           [065] move       16  13     
AE5B  A2438001           [066] call       14  3   1  
AE5F  A483C600           [067] self       14  1   282  ; -110386376
AE63  17048000           [068] loadbool   16  1   0    ; true
AE67  A2438001           [069] call       14  3   1  
AE6B  A4C3C600           [070] self       14  1   283  ; 447196028
AE6F  17048000           [071] loadbool   16  1   0    ; true
AE73  A2438001           [072] call       14  3   1  
AE77  93038000           [073] getupval   14  1      
AE7B  A2838000           [074] call       14  1   2  
AE7F  98030000           [075] test       14      0    ; to [77] if true
AE83  1A000B80           [076] jmp        45           ; to [122]
AE87  A403C706           [077] self       14  13  284  ; -1917464545
AE8B  A2830001           [078] call       14  2   2  
AE8F  A4434707           [079] self       14  14  285  ; 991629753
AE93  1D840700           [080] getglobal  16  30       ; Game
AE97  0EC44708           [081] gettable   16  16  287  ; "AVATAR_HEALTH_MAX"
AE9B  5D840700           [082] getglobal  17  30       ; Game
AE9F  4E04C808           [083] gettable   17  17  288  ; "STACKING_MULTIPLY"
AEA3  99440800           [084] loadk      18  33       ; 0
AEA7  A2438002           [085] call       14  5   1  
AEAB  A483C806           [086] self       14  13  290  ; 1992436207
AEAF  24C4C806           [087] self       16  13  291  ; 945541886
AEB3  22040001           [088] call       16  2   0  
AEB7  A2430000           [089] call       14  0   1  
AEBB  9D030900           [090] getglobal  14  36       ; -895206725
AEBF  D3030001           [091] getupval   15  2      
AEC3  A2830001           [092] call       14  2   2  
AEC7  DD830000           [093] getglobal  15  2        ; gRegion
AECB  E443C907           [094] self       15  15  293  ; 1224466847
AECF  E2830001           [095] call       15  2   2  
AED3  1D840900           [096] getglobal  16  38       ; 248503575
AED7  52048007           [097] move       17  15     
AEDB  22040101           [098] call       16  2   4  
AEDF  1AC00480           [099] jmp        20           ; to [120]
AEE3  5DC50900           [100] getglobal  21  39       ; 1074689893
AEE7  9205000A           [101] move       22  20     
AEEB  62850001           [102] call       21  2   2  
AEEF  58450000           [103] test       21      1    ; to [105] if false
AEF3  1A800380           [104] jmp        15           ; to [120]
AEF7  64054A0A           [105] self       21  20  296  ; 188678183
AEFB  62850001           [106] call       21  2   2  
AEFF  58050000           [107] test       21      0    ; to [109] if true
AF03  1A800280           [108] jmp        11           ; to [120]
AF07  64C5440A           [109] self       21  20  275  ; -2135866365
AF0B  62850001           [110] call       21  2   2  
AF0F  9DC50900           [111] getglobal  22  39       ; 1074689893
AF13  D205800A           [112] move       23  21     
AF17  A2850001           [113] call       22  2   2  
AF1B  98450000           [114] test       22      1    ; to [116] if false
AF1F  1AC00080           [115] jmp        4            ; to [120]
AF23  A445CA0A           [116] self       22  21  297  ; 1479835399
AF27  12060007           [117] move       24  14     
AF2B  57060000           [118] loadbool   25  0   0    ; false
AF2F  A2450002           [119] call       22  4   1  
AF33  16840000           [120] tforloop   16      2    ; to [122] if exit
AF37  1A40FA7F           [121] jmp        -22          ; to [100]
AF3B  99450000           [122] loadk      22  1        ; 0
AF3F  DDC50900           [123] getglobal  23  39       ; 1074689893
AF43  12068006           [124] move       24  13     
AF47  E2850001           [125] call       23  2   2  
AF4B  D8450000           [126] test       23      1    ; to [128] if false
AF4F  1A000380           [127] jmp        13           ; to [141]
AF53  E485CA06           [128] self       23  13  298  ; 1511086594
AF57  E2850001           [129] call       23  2   2  
AF5B  D8450000           [130] test       23      1    ; to [132] if false
AF5F  1A000280           [131] jmp        9            ; to [141]
fail op	21
AF63  15C04A0B           [132] concat     0   22  299
AF67  1A800180           [133] jmp        7            ; to [141]
AF6B  DD050000           [134] getglobal  23  0        ; 538022378
AF6F  19460200           [135] loadk      24  9        ; 0
AF73  E2450001           [136] call       23  2   1  
AF77  DD050B00           [137] getglobal  23  44       ; 1289681407
AF7B  E2858000           [138] call       23  1   2  
AF7F  8DC5050B           [139] sub        22  22  23 
AF83  1A40FB7F           [140] jmp        -18          ; to [123]
AF87  E485C600           [141] self       23  1   282  ; -110386376
AF8B  57060000           [142] loadbool   25  0   0    ; false
AF8F  E2458001           [143] call       23  3   1  
AF93  1E008000           [144] return     0   1      
                         * constants:
AF97  2D                 sizek (45)
AF98  01                 const type 3
AF99  EA911120           const [0]: (538022378)
AF9D  03                 const type 3
AF9E  00000000           const [1]: (0)
AFA2  04                 const type 4
AFA3  08                 string size (8)
AFA4  67526567696F6E00   "gRegion\0"
                         const [2]: "gRegion"
AFAC  01                 const type 3
AFAD  90F9CED1           const [3]: (-774964848)
AFB1  01                 const type 3
AFB2  73290920           const [4]: (537471347)
AFB6  04                 const type 4
AFB7  0B                 string size (11)
AFB8  6747616D6552756C+  "gGameRul"
AFC0  657300             "es\0"
                         const [5]: "gGameRules"
AFC3  01                 const type 3
AFC4  497363B8           const [6]: (-1201441975)
AFC8  01                 const type 3
AFC9  EC48C4EF           const [7]: (-272348948)
AFCD  04                 const type 4
AFCE  0E                 string size (14)
AFCF  6D6178456E656D79+  "maxEnemy"
AFD7  4C6576656C00       "Level\0"
                         const [8]: "maxEnemyLevel"
AFDD  03                 const type 3
AFDE  0000803F           const [9]: (0)
AFE2  03                 const type 3
AFE3  0000C040           const [10]: (0)
AFE7  01                 const type 3
AFE8  6770D36D           const [11]: (1842573415)
AFEC  01                 const type 3
AFED  24939581           const [12]: (-2120903900)
AFF1  03                 const type 3
AFF2  0000A041           const [13]: (0)
AFF6  04                 const type 4
AFF7  0D                 string size (13)
AFF8  454D5054595F5359+  "EMPTY_SY"
B000  4D424F4C00         "MBOL\0"
                         const [14]: "EMPTY_SYMBOL"
B005  04                 const type 4
B006  09                 string size (9)
B007  7669704167656E74+  "vipAgent"
B00F  00                 "\0"
                         const [15]: "vipAgent"
B010  03                 const type 3
B011  CDCC4C3E           const [16]: (-51)
B015  01                 const type 3
B016  5DA80173           const [17]: (1929488477)
B01A  03                 const type 3
B01B  00001643           const [18]: (0)
B01F  01                 const type 3
B020  0344B180           const [19]: (-2135866365)
B024  01                 const type 3
B025  A40F2DB4           const [20]: (-1272115292)
B029  01                 const type 3
B02A  DF7436B0           const [21]: (-1338608417)
B02E  03                 const type 3
B02F  00004842           const [22]: (0)
B033  01                 const type 3
B034  807FFE7B           const [23]: (2080276352)
B038  01                 const type 3
B039  5720287C           const [24]: (2083004503)
B03D  01                 const type 3
B03E  EFBC3EAF           const [25]: (-1354842897)
B042  01                 const type 3
B043  38A36BF9           const [26]: (-110386376)
B047  01                 const type 3
B048  7CABA71A           const [27]: (447196028)
B04C  01                 const type 3
B04D  1FD0B58D           const [28]: (-1917464545)
B051  01                 const type 3
B052  B9111B3B           const [29]: (991629753)
B056  04                 const type 4
B057  05                 string size (5)
B058  47616D6500         "Game\0"
                         const [30]: "Game"
B05D  04                 const type 4
B05E  12                 string size (18)
B05F  4156415441525F48+  "AVATAR_H"
B067  45414C54485F4D41+  "EALTH_MA"
B06F  5800               "X\0"
                         const [31]: "AVATAR_HEALTH_MAX"
B071  04                 const type 4
B072  12                 string size (18)
B073  535441434B494E47+  "STACKING"
B07B  5F4D554C5449504C+  "_MULTIPL"
B083  5900               "Y\0"
                         const [32]: "STACKING_MULTIPLY"
B085  03                 const type 3
B086  00000040           const [33]: (0)
B08A  01                 const type 3
B08B  EF29C276           const [34]: (1992436207)
B08F  01                 const type 3
B090  FED25B38           const [35]: (945541886)
B094  01                 const type 3
B095  BB3AA4CA           const [36]: (-895206725)
B099  01                 const type 3
B09A  9FE1FB48           const [37]: (1224466847)
B09E  01                 const type 3
B09F  17DDCF0E           const [38]: (248503575)
B0A3  01                 const type 3
B0A4  65770E40           const [39]: (1074689893)
B0A8  01                 const type 3
B0A9  27003F0B           const [40]: (188678183)
B0AD  01                 const type 3
B0AE  077F3458           const [41]: (1479835399)
B0B2  01                 const type 3
B0B3  025A115A           const [42]: (1511086594)
B0B7  03                 const type 3
B0B8  00009643           const [43]: (0)
B0BC  01                 const type 3
B0BD  FFF9DE4C           const [44]: (1289681407)
                         * functions:
B0C1  00                 sizep (0)
                         * lines:
B0C3  01                 sizelineinfo (144)
                         [pc] (line)
B0C4  AE                 [001] (-82)
B0C5  05                 [002] (-82)
B0C6  00                 [003] (-82)
B0C7  00                 [004] (-79)
B0C8  AE                 [005] (-79)
B0C9  05                 [006] (-79)
B0CA  00                 [007] (-79)
B0CB  00                 [008] (-79)
B0CC  AE                 [009] (-78)
B0CD  05                 [010] (-78)
B0CE  00                 [011] (-78)
B0CF  00                 [012] (-77)
B0D0  B1                 [013] (-77)
B0D1  05                 [014] (-76)
B0D2  00                 [015] (-75)
B0D3  00                 [016] (-75)
B0D4  B1                 [017] (-75)
B0D5  05                 [018] (-75)
B0D6  00                 [019] (-74)
B0D7  00                 [020] (-74)
B0D8  B1                 [021] (-74)
B0D9  05                 [022] (-74)
B0DA  00                 [023] (-73)
B0DB  00                 [024] (-73)
B0DC  B1                 [025] (-73)
B0DD  05                 [026] (-73)
B0DE  00                 [027] (-73)
B0DF  00                 [028] (-73)
B0E0  B1                 [029] (-75)
B0E1  05                 [030] (-69)
B0E2  00                 [031] (-68)
B0E3  00                 [032] (-67)
B0E4  B2                 [033] (-67)
B0E5  05                 [034] (-67)
B0E6  00                 [035] (-66)
B0E7  00                 [036] (-66)
B0E8  B2                 [037] (-66)
B0E9  05                 [038] (-65)
B0EA  00                 [039] (-65)
B0EB  00                 [040] (-65)
B0EC  B2                 [041] (-65)
B0ED  05                 [042] (-65)
B0EE  00                 [043] (-65)
B0EF  00                 [044] (-65)
B0F0  B3                 [045] (-65)
B0F1  05                 [046] (-65)
B0F2  00                 [047] (-61)
B0F3  00                 [048] (-60)
B0F4  B3                 [049] (-60)
B0F5  05                 [050] (-59)
B0F6  00                 [051] (-59)
B0F7  00                 [052] (-59)
B0F8  B4                 [053] (-58)
B0F9  05                 [054] (-58)
B0FA  00                 [055] (-58)
B0FB  00                 [056] (-57)
B0FC  B5                 [057] (-57)
B0FD  05                 [058] (-57)
B0FE  00                 [059] (-56)
B0FF  00                 [060] (-56)
B100  B5                 [061] (-56)
B101  05                 [062] (-56)
B102  00                 [063] (-56)
B103  00                 [064] (-53)
B104  B5                 [065] (-53)
B105  05                 [066] (-53)
B106  00                 [067] (-52)
B107  00                 [068] (-52)
B108  B5                 [069] (-52)
B109  05                 [070] (-51)
B10A  00                 [071] (-51)
B10B  00                 [072] (-51)
B10C  B6                 [073] (-49)
B10D  05                 [074] (-49)
B10E  00                 [075] (-49)
B10F  00                 [076] (-49)
B110  B6                 [077] (-48)
B111  05                 [078] (-48)
B112  00                 [079] (-48)
B113  00                 [080] (-48)
B114  B6                 [081] (-48)
B115  05                 [082] (-48)
B116  00                 [083] (-48)
B117  00                 [084] (-48)
B118  B6                 [085] (-48)
B119  05                 [086] (-47)
B11A  00                 [087] (-47)
B11B  00                 [088] (-47)
B11C  B7                 [089] (-47)
B11D  05                 [090] (-45)
B11E  00                 [091] (-45)
B11F  00                 [092] (-45)
B120  B7                 [093] (-44)
B121  05                 [094] (-44)
B122  00                 [095] (-44)
B123  00                 [096] (-43)
B124  B7                 [097] (-43)
B125  05                 [098] (-43)
B126  00                 [099] (-43)
B127  00                 [100] (-42)
B128  B7                 [101] (-42)
B129  05                 [102] (-42)
B12A  00                 [103] (-42)
B12B  00                 [104] (-42)
B12C  B7                 [105] (-42)
B12D  05                 [106] (-42)
B12E  00                 [107] (-42)
B12F  00                 [108] (-42)
B130  B7                 [109] (-41)
B131  05                 [110] (-41)
B132  00                 [111] (-40)
B133  00                 [112] (-40)
B134  B5                 [113] (-40)
B135  05                 [114] (-40)
B136  00                 [115] (-40)
B137  00                 [116] (-39)
B138  BB                 [117] (-39)
B139  05                 [118] (-39)
B13A  00                 [119] (-39)
B13B  00                 [120] (-43)
B13C  BC                 [121] (-37)
B13D  05                 [122] (-32)
B13E  00                 [123] (-31)
B13F  00                 [124] (-31)
B140  BD                 [125] (-31)
B141  05                 [126] (-31)
B142  00                 [127] (-31)
B143  00                 [128] (-31)
B144  BD                 [129] (-31)
B145  05                 [130] (-31)
B146  00                 [131] (-31)
B147  00                 [132] (-31)
B148  BD                 [133] (-31)
B149  05                 [134] (-30)
B14A  00                 [135] (-30)
B14B  00                 [136] (-30)
B14C  BE                 [137] (-29)
B14D  05                 [138] (-29)
B14E  00                 [139] (-29)
B14F  00                 [140] (-29)
B150  BE                 [141] (-26)
B151  05                 [142] (-26)
B152  00                 [143] (-26)
B153  00                 [144] (-25)
                         * locals:
B304  00                 sizelocvars (0)
                         * upvalues:
B305  00                 sizeupvalues (0)
                         ** end of function **

                         
B306                     ** function [36] definition (level 2)
                         ** start of function **
B306  00                 string size (0)
                         source name: (none)
B308  0B                 line defined (1513)
B309  9D                 last line defined (1565)
B30A  0C                 nups (6)
B30B  06                 numparams (1)
B30C  01                 is_vararg (0)
B30D  00                 maxstacksize (18)
                         * code:
B310  01                 sizecode (131)
B311  5D000000           [001] getglobal  1   0        ; _T
B315  4E40C000           [002] gettable   1   1   257  ; "gQuestMission"
B319  58000000           [003] test       1       0    ; to [5] if true
B31D  1AC00080           [004] jmp        4            ; to [9]
B321  5D800000           [005] getglobal  1   2        ; -1817107093
B325  99C00000           [006] loadk      2   3        ; "In a quest, so not creating Devoted Healer"
B329  62400001           [007] call       1   2   1  
B32D  1E008000           [008] return     0   1      
B331  4B000002           [009] newtable   1   4   0    ; array=4, hash=0
B335  93000000           [010] getupval   2   0      
B339  A4004101           [011] self       2   2   260  ; 455421500
B33D  A2800001           [012] call       2   2   2  
B341  D3008000           [013] getupval   3   1      
B345  E400C101           [014] self       3   3   260  ; 455421500
B349  E2800001           [015] call       3   2   2  
B34D  13010001           [016] getupval   4   2      
B351  24014102           [017] self       4   4   260  ; 455421500
B355  22810001           [018] call       4   2   2  
B359  53018001           [019] getupval   5   3      
B35D  6401C102           [020] self       5   5   260  ; 455421500
B361  62810001           [021] call       5   2   2  
B365  93010002           [022] getupval   6   4      
B369  A4014103           [023] self       6   6   260  ; 455421500
B36D  A2010001           [024] call       6   2   0  
B371  5B400000           [025] setlist    1   0   1    ; index 1 to top
B375  9D400100           [026] getglobal  2   5        ; gGameRules
B379  A4804101           [027] self       2   2   262  ; 127295906
B37D  12018000           [028] move       4   1      
B381  A2408001           [029] call       2   3   1  
B385  9DC00100           [030] getglobal  2   7        ; 538022378
B389  D9000200           [031] loadk      3   8        ; 0
B38D  A2400001           [032] call       2   2   1  
B391  9D400200           [033] getglobal  2   9        ; gRegion
B395  A4804201           [034] self       2   2   266  ; -1084394954
B399  13018002           [035] getupval   4   5      
B39D  64C14200           [036] self       5   0   267  ; 1839670529
B3A1  62810001           [037] call       5   2   2  
B3A5  99010300           [038] loadk      6   12       ; 0
B3A9  A2808002           [039] call       2   5   2  
B3AD  DD400300           [040] getglobal  3   13       ; 1074689893
B3B1  12010001           [041] move       4   2      
B3B5  E2800001           [042] call       3   2   2  
B3B9  D8400000           [043] test       3       1    ; to [45] if false
B3BD  1AC00080           [044] jmp        4            ; to [49]
B3C1  DD800000           [045] getglobal  3   2        ; -1817107093
B3C5  19810300           [046] loadk      4   14       ; "Already a Devoted Avatar present. Will not spawn another"
B3C9  E2400001           [047] call       3   2   1  
B3CD  1E008000           [048] return     0   1      
B3D1  DD400200           [049] getglobal  3   9        ; gRegion
B3D5  E4C0C301           [050] self       3   3   271  ; -774964848
B3D9  E2800001           [051] call       3   2   2  
B3DD  E400C401           [052] self       3   3   272  ; 537471347
B3E1  E2800001           [053] call       3   2   2  
B3E5  1D410400           [054] getglobal  4   17       ; -895206725
B3E9  53010000           [055] getupval   5   0      
B3ED  22810001           [056] call       4   2   2  
B3F1  64C14200           [057] self       5   0   267  ; 1839670529
B3F5  62810001           [058] call       5   2   2  
B3F9  A4814400           [059] self       6   0   274  ; -1917464545
B3FD  A2810001           [060] call       6   2   2  
B401  A4C14403           [061] self       6   6   275  ; -2079759465
B405  A2810001           [062] call       6   2   2  
B409  CE01C502           [063] gettable   7   5   276  ; "y"
B40D  8CC1018A           [064] settable   6   276 7    ; "y"
B411  CD410103           [065] sub        7   6   5  
B415  1D420500           [066] getglobal  8   21       ; 1166235580
B419  52028003           [067] move       9   7      
B41D  22420001           [068] call       8   2   1  
B421  0482C503           [069] mul        8   7   278  ; 0
B425  83018202           [070] add        6   5   8  
B429  24C2C501           [071] self       8   3   279  ; -898367557
B42D  92020003           [072] move       10  6      
B431  D9020600           [073] loadk      11  24       ; 0
B435  19430600           [074] loadk      12  25       ; 0
B439  57030000           [075] loadbool   13  0   0    ; false
B43D  99830600           [076] loadk      14  26       ; 0
B441  22828003           [077] call       8   7   2  
B445  5DC20600           [078] getglobal  9   27       ; 2083004503
B449  93020001           [079] getupval   10  2      
B44D  62820001           [080] call       9   2   2  
B451  A402C701           [081] self       10  3   284  ; 436282865
B455  12030002           [082] move       12  4      
B459  52030004           [083] move       13  8      
B45D  9D430700           [084] getglobal  14  29       ; -304944129
B461  D2030004           [085] move       15  8      
B465  12048002           [086] move       16  5      
B469  A2838001           [087] call       14  3   2  
B46D  DD830700           [088] getglobal  15  30       ; -332969190
B471  19C40700           [089] loadk      16  31       ; "Healer"
B475  E2830001           [090] call       15  2   2  
B479  2404C801           [091] self       16  3   288  ; -354168336
B47D  22840001           [092] call       16  2   2  
B481  52048004           [093] move       17  9      
B485  A2820004           [094] call       10  8   2  
B489  E4424805           [095] self       11  10  289  ; -2135866365
B48D  E2820001           [096] call       11  2   2  
B491  19030600           [097] loadk      12  24       ; 0
B495  5D430300           [098] getglobal  13  13       ; 1074689893
B499  92038005           [099] move       14  11     
B49D  62830001           [100] call       13  2   2  
B4A1  58030000           [101] test       13      0    ; to [103] if true
B4A5  1AC00280           [102] jmp        12           ; to [115]
fail op	21
B4A9  15404606           [103] concat     0   12  281
B4AD  1A400280           [104] jmp        10           ; to [115]
B4B1  64434805           [105] self       13  10  289  ; -2135866365
B4B5  62830001           [106] call       13  2   2  
B4B9  D2028006           [107] move       11  13     
B4BD  5D830800           [108] getglobal  13  34       ; 1289681407
B4C1  62838000           [109] call       13  1   2  
B4C5  03430306           [110] add        12  12  13 
B4C9  5DC30100           [111] getglobal  13  7        ; 538022378
B4CD  99030600           [112] loadk      14  24       ; 0
B4D1  62430001           [113] call       13  2   1  
B4D5  1A80FB7F           [114] jmp        -17          ; to [98]
B4D9  5D430300           [115] getglobal  13  13       ; 1074689893
B4DD  92038005           [116] move       14  11     
B4E1  62830001           [117] call       13  2   2  
B4E5  58430000           [118] test       13      1    ; to [120] if false
B4E9  1A800280           [119] jmp        11           ; to [131]
B4ED  64C34800           [120] self       13  0   291  ; -564624675
B4F1  62830001           [121] call       13  2   2  
B4F5  6443C806           [122] self       13  13  289  ; -2135866365
B4F9  62830001           [123] call       13  2   2  
B4FD  6403C906           [124] self       13  13  292  ; -93925502
B501  62830001           [125] call       13  2   2  
B505  A443C905           [126] self       14  11  293  ; -971287385
B509  1D840700           [127] getglobal  16  30       ; -332969190
B50D  52048006           [128] move       17  13     
B511  22040001           [129] call       16  2   0  
B515  A2430000           [130] call       14  0   1  
B519  1E008000           [131] return     0   1      
                         * constants:
B51D  26                 sizek (38)
B51E  04                 const type 4
B51F  03                 string size (3)
B520  5F5400             "_T\0"
                         const [0]: "_T"
B523  04                 const type 4
B524  0E                 string size (14)
B525  6751756573744D69+  "gQuestMi"
B52D  7373696F6E00       "ssion\0"
                         const [1]: "gQuestMission"
B533  01                 const type 3
B534  6B25B193           const [2]: (-1817107093)
B538  04                 const type 4
B539  2B                 string size (43)
B53A  496E206120717565+  "In a que"
B542  73742C20736F206E+  "st, so n"
B54A  6F74206372656174+  "ot creat"
B552  696E67204465766F+  "ing Devo"
B55A  746564204865616C+  "ted Heal"
B562  657200             "er\0"
                         const [3]: "In a quest, so not creating Devoted Healer"
B565  01                 const type 3
B566  3C2E251B           const [4]: (455421500)
B56A  04                 const type 4
B56B  0B                 string size (11)
B56C  6747616D6552756C+  "gGameRul"
B574  657300             "es\0"
                         const [5]: "gGameRules"
B577  01                 const type 3
B578  A2619607           const [6]: (127295906)
B57C  01                 const type 3
B57D  EA911120           const [7]: (538022378)
B581  03                 const type 3
B582  00004040           const [8]: (0)
B586  04                 const type 4
B587  08                 string size (8)
B588  67526567696F6E00   "gRegion\0"
                         const [9]: "gRegion"
B590  01                 const type 3
B591  36725DBF           const [10]: (-1084394954)
B595  01                 const type 3
B596  0125A76D           const [11]: (1839670529)
B59A  03                 const type 3
B59B  00009643           const [12]: (0)
B59F  01                 const type 3
B5A0  65770E40           const [13]: (1074689893)
B5A4  04                 const type 4
B5A5  39                 string size (57)
B5A6  416C726561647920+  "Already "
B5AE  61204465766F7465+  "a Devote"
B5B6  6420417661746172+  "d Avatar"
B5BE  2070726573656E74+  " present"
B5C6  2E2057696C6C206E+  ". Will n"
B5CE  6F7420737061776E+  "ot spawn"
B5D6  20616E6F74686572+  " another"
B5DE  00                 "\0"
                         const [14]: "Already a Devoted Avatar present. Will not spawn another"
B5DF  01                 const type 3
B5E0  90F9CED1           const [15]: (-774964848)
B5E4  01                 const type 3
B5E5  73290920           const [16]: (537471347)
B5E9  01                 const type 3
B5EA  BB3AA4CA           const [17]: (-895206725)
B5EE  01                 const type 3
B5EF  1FD0B58D           const [18]: (-1917464545)
B5F3  01                 const type 3
B5F4  97630984           const [19]: (-2079759465)
B5F8  04                 const type 4
B5F9  02                 string size (2)
B5FA  7900               "y\0"
                         const [20]: "y"
B5FC  01                 const type 3
B5FD  BC578345           const [21]: (1166235580)
B601  03                 const type 3
B602  00002041           const [22]: (0)
B606  01                 const type 3
B607  BBFF73CA           const [23]: (-898367557)
B60B  03                 const type 3
B60C  00000000           const [24]: (0)
B610  03                 const type 3
B611  0000A040           const [25]: (0)
B615  03                 const type 3
B616  0000803F           const [26]: (0)
B61A  01                 const type 3
B61B  5720287C           const [27]: (2083004503)
B61F  01                 const type 3
B620  F125011A           const [28]: (436282865)
B624  01                 const type 3
B625  FFEBD2ED           const [29]: (-304944129)
B629  01                 const type 3
B62A  1A4B27EC           const [30]: (-332969190)
B62E  04                 const type 4
B62F  07                 string size (7)
B630  4865616C657200     "Healer\0"
                         const [31]: "Healer"
B637  01                 const type 3
B638  F0D1E3EA           const [32]: (-354168336)
B63C  01                 const type 3
B63D  0344B180           const [33]: (-2135866365)
B641  01                 const type 3
B642  FFF9DE4C           const [34]: (1289681407)
B646  01                 const type 3
B647  DD8258DE           const [35]: (-564624675)
B64B  01                 const type 3
B64C  82CF66FA           const [36]: (-93925502)
B650  01                 const type 3
B651  A7541BC6           const [37]: (-971287385)
                         * functions:
B655  00                 sizep (0)
                         * lines:
B657  01                 sizelineinfo (131)
                         [pc] (line)
B658  EB                 [001] (-21)
B659  05                 [002] (-21)
B65A  00                 [003] (-21)
B65B  00                 [004] (-21)
B65C  EB                 [005] (-20)
B65D  05                 [006] (-20)
B65E  00                 [007] (-20)
B65F  00                 [008] (-19)
B660  EB                 [009] (-16)
B661  05                 [010] (-16)
B662  00                 [011] (-16)
B663  00                 [012] (-16)
B664  EB                 [013] (-15)
B665  05                 [014] (-15)
B666  00                 [015] (-15)
B667  00                 [016] (-14)
B668  EC                 [017] (-14)
B669  05                 [018] (-14)
B66A  00                 [019] (-13)
B66B  00                 [020] (-13)
B66C  EC                 [021] (-13)
B66D  05                 [022] (-12)
B66E  00                 [023] (-12)
B66F  00                 [024] (-12)
B670  EC                 [025] (-11)
B671  05                 [026] (-9)
B672  00                 [027] (-9)
B673  00                 [028] (-9)
B674  ED                 [029] (-9)
B675  05                 [030] (-7)
B676  00                 [031] (-7)
B677  00                 [032] (-7)
B678  F0                 [033] (-5)
B679  05                 [034] (-5)
B67A  00                 [035] (-5)
B67B  00                 [036] (-5)
B67C  F0                 [037] (-5)
B67D  05                 [038] (-5)
B67E  00                 [039] (-5)
B67F  00                 [040] (-3)
B680  F0                 [041] (-3)
B681  05                 [042] (-3)
B682  00                 [043] (-3)
B683  00                 [044] (-3)
B684  F0                 [045] (-2)
B685  05                 [046] (-2)
B686  00                 [047] (-2)
B687  00                 [048] (-1)
B688  F1                 [049] (2)
B689  05                 [050] (2)
B68A  00                 [051] (2)
B68B  00                 [052] (2)
B68C  F1                 [053] (2)
B68D  05                 [054] (3)
B68E  00                 [055] (3)
B68F  00                 [056] (3)
B690  F1                 [057] (4)
B691  05                 [058] (4)
B692  00                 [059] (5)
B693  00                 [060] (5)
B694  F2                 [061] (5)
B695  05                 [062] (5)
B696  00                 [063] (6)
B697  00                 [064] (6)
B698  F2                 [065] (7)
B699  05                 [066] (8)
B69A  00                 [067] (8)
B69B  00                 [068] (8)
B69C  F2                 [069] (9)
B69D  05                 [070] (9)
B69E  00                 [071] (11)
B69F  00                 [072] (11)
B6A0  F3                 [073] (11)
B6A1  05                 [074] (11)
B6A2  00                 [075] (11)
B6A3  00                 [076] (11)
B6A4  F3                 [077] (11)
B6A5  05                 [078] (13)
B6A6  00                 [079] (13)
B6A7  00                 [080] (13)
B6A8  F3                 [081] (15)
B6A9  05                 [082] (15)
B6AA  00                 [083] (15)
B6AB  00                 [084] (15)
B6AC  F4                 [085] (15)
B6AD  05                 [086] (15)
B6AE  00                 [087] (15)
B6AF  00                 [088] (15)
B6B0  F4                 [089] (15)
B6B1  05                 [090] (15)
B6B2  00                 [091] (15)
B6B3  00                 [092] (15)
B6B4  F4                 [093] (15)
B6B5  05                 [094] (15)
B6B6  00                 [095] (16)
B6B7  00                 [096] (16)
B6B8  F5                 [097] (17)
B6B9  05                 [098] (18)
B6BA  00                 [099] (18)
B6BB  00                 [100] (18)
B6BC  F7                 [101] (18)
B6BD  05                 [102] (18)
B6BE  00                 [103] (18)
B6BF  00                 [104] (18)
B6C0  F7                 [105] (19)
B6C1  05                 [106] (19)
B6C2  00                 [107] (19)
B6C3  00                 [108] (20)
B6C4  F7                 [109] (20)
B6C5  05                 [110] (20)
B6C6  00                 [111] (21)
B6C7  00                 [112] (21)
B6C8  F7                 [113] (21)
B6C9  05                 [114] (21)
B6CA  00                 [115] (24)
B6CB  00                 [116] (24)
B6CC  F9                 [117] (24)
B6CD  05                 [118] (24)
B6CE  00                 [119] (24)
B6CF  00                 [120] (25)
B6D0  F9                 [121] (25)
B6D1  05                 [122] (25)
B6D2  00                 [123] (25)
B6D3  00                 [124] (25)
B6D4  F9                 [125] (25)
B6D5  05                 [126] (26)
B6D6  00                 [127] (26)
B6D7  00                 [128] (26)
B6D8  FB                 [129] (26)
B6D9  05                 [130] (26)
B6DA  00                 [131] (29)
                         * locals:
B864  00                 sizelocvars (0)
                         * upvalues:
B865  00                 sizeupvalues (0)
                         ** end of function **

                         * lines:
B867  02                 sizelineinfo (281)
                         [pc] (line)
B868  02                 [001] (2)
B869  00                 [002] (2)
B86A  00                 [003] (2)
B86B  00                 [004] (3)
B86C  02                 [005] (3)
B86D  00                 [006] (3)
B86E  00                 [007] (4)
B86F  00                 [008] (4)
B870  02                 [009] (4)
B871  00                 [010] (5)
B872  00                 [011] (5)
B873  00                 [012] (5)
B874  03                 [013] (6)
B875  00                 [014] (6)
B876  00                 [015] (6)
B877  00                 [016] (7)
B878  03                 [017] (7)
B879  00                 [018] (7)
B87A  00                 [019] (10)
B87B  00                 [020] (10)
B87C  03                 [021] (10)
B87D  00                 [022] (11)
B87E  00                 [023] (11)
B87F  00                 [024] (11)
B880  04                 [025] (12)
B881  00                 [026] (12)
B882  00                 [027] (12)
B883  00                 [028] (13)
B884  04                 [029] (13)
B885  00                 [030] (13)
B886  00                 [031] (15)
B887  00                 [032] (16)
B888  04                 [033] (16)
B889  00                 [034] (16)
B88A  00                 [035] (16)
B88B  00                 [036] (16)
B88C  05                 [037] (17)
B88D  00                 [038] (17)
B88E  00                 [039] (17)
B88F  00                 [040] (17)
B890  05                 [041] (17)
B891  00                 [042] (19)
B892  00                 [043] (21)
B893  00                 [044] (23)
B894  05                 [045] (23)
B895  00                 [046] (23)
B896  00                 [047] (24)
B897  00                 [048] (24)
B898  06                 [049] (24)
B899  00                 [050] (25)
B89A  00                 [051] (25)
B89B  00                 [052] (25)
B89C  06                 [053] (26)
B89D  00                 [054] (26)
B89E  00                 [055] (26)
B89F  00                 [056] (27)
B8A0  06                 [057] (27)
B8A1  00                 [058] (27)
B8A2  00                 [059] (29)
B8A3  00                 [060] (29)
B8A4  07                 [061] (29)
B8A5  00                 [062] (29)
B8A6  00                 [063] (29)
B8A7  00                 [064] (29)
B8A8  07                 [065] (29)
B8A9  00                 [066] (29)
B8AA  00                 [067] (29)
B8AB  00                 [068] (29)
B8AC  07                 [069] (29)
B8AD  00                 [070] (30)
B8AE  00                 [071] (30)
B8AF  00                 [072] (30)
B8B0  0A                 [073] (31)
B8B1  00                 [074] (31)
B8B2  00                 [075] (31)
B8B3  00                 [076] (33)
B8B4  0A                 [077] (33)
B8B5  00                 [078] (33)
B8B6  00                 [079] (34)
B8B7  00                 [080] (34)
B8B8  0A                 [081] (34)
B8B9  00                 [082] (35)
B8BA  00                 [083] (35)
B8BB  00                 [084] (35)
B8BC  0B                 [085] (37)
B8BD  00                 [086] (37)
B8BE  00                 [087] (37)
B8BF  00                 [088] (38)
B8C0  0B                 [089] (38)
B8C1  00                 [090] (38)
B8C2  00                 [091] (39)
B8C3  00                 [092] (39)
B8C4  0B                 [093] (39)
B8C5  00                 [094] (40)
B8C6  00                 [095] (40)
B8C7  00                 [096] (40)
B8C8  0C                 [097] (41)
B8C9  00                 [098] (41)
B8CA  00                 [099] (41)
B8CB  00                 [100] (42)
B8CC  0C                 [101] (42)
B8CD  00                 [102] (42)
B8CE  00                 [103] (45)
B8CF  00                 [104] (45)
B8D0  0C                 [105] (45)
B8D1  00                 [106] (47)
B8D2  00                 [107] (47)
B8D3  00                 [108] (47)
B8D4  0D                 [109] (49)
B8D5  00                 [110] (49)
B8D6  00                 [111] (49)
B8D7  00                 [112] (50)
B8D8  0D                 [113] (50)
B8D9  00                 [114] (50)
B8DA  00                 [115] (52)
B8DB  00                 [116] (52)
B8DC  0D                 [117] (52)
B8DD  00                 [118] (67)
B8DE  00                 [119] (67)
B8DF  00                 [120] (67)
B8E0  0F                 [121] (65)
B8E1  00                 [122] (78)
B8E2  00                 [123] (78)
B8E3  00                 [124] (78)
B8E4  10                 [125] (91)
B8E5  00                 [126] (91)
B8E6  00                 [127] (125)
B8E7  00                 [128] (125)
B8E8  10                 [129] (-114)
B8E9  00                 [130] (-114)
B8EA  00                 [131] (-114)
B8EB  00                 [132] (-114)
B8EC  10                 [133] (-114)
B8ED  00                 [134] (-114)
B8EE  00                 [135] (-114)
B8EF  00                 [136] (-83)
B8F0  10                 [137] (-83)
B8F1  00                 [138] (-71)
B8F2  00                 [139] (-71)
B8F3  00                 [140] (-36)
B8F4  10                 [141] (-36)
B8F5  00                 [142] (-36)
B8F6  00                 [143] (15)
B8F7  00                 [144] (15)
B8F8  11                 [145] (15)
B8F9  00                 [146] (15)
B8FA  00                 [147] (15)
B8FB  00                 [148] (16)
B8FC  11                 [149] (16)
B8FD  00                 [150] (76)
B8FE  00                 [151] (76)
B8FF  00                 [152] (76)
B900  11                 [153] (76)
B901  00                 [154] (76)
B902  00                 [155] (76)
B903  00                 [156] (76)
B904  11                 [157] (76)
B905  00                 [158] (76)
B906  00                 [159] (83)
B907  00                 [160] (17)
B908  11                 [161] (17)
B909  00                 [162] (17)
B90A  00                 [163] (17)
B90B  00                 [164] (17)
B90C  13                 [165] (17)
B90D  00                 [166] (17)
B90E  00                 [167] (17)
B90F  00                 [168] (-95)
B910  15                 [169] (-95)
B911  00                 [170] (-95)
B912  00                 [171] (-95)
B913  00                 [172] (-95)
B914  17                 [173] (-95)
B915  00                 [174] (-95)
B916  00                 [175] (-95)
B917  00                 [176] (-95)
B918  17                 [177] (-95)
B919  00                 [178] (-95)
B91A  00                 [179] (-95)
B91B  00                 [180] (-95)
B91C  17                 [181] (22)
B91D  00                 [182] (-73)
B91E  00                 [183] (-73)
B91F  00                 [184] (-73)
B920  18                 [185] (-89)
B921  00                 [186] (-67)
B922  00                 [187] (-67)
B923  00                 [188] (-71)
B924  18                 [189] (-51)
B925  00                 [190] (-51)
B926  00                 [191] (-65)
B927  00                 [192] (-30)
B928  18                 [193] (-30)
B929  00                 [194] (-49)
B92A  00                 [195] (-20)
B92B  00                 [196] (-20)
B92C  19                 [197] (-20)
B92D  00                 [198] (-28)
B92E  00                 [199] (116)
B92F  00                 [200] (116)
B930  19                 [201] (116)
B931  00                 [202] (116)
B932  00                 [203] (116)
B933  00                 [204] (-15)
B934  19                 [205] (-119)
B935  00                 [206] (-119)
B936  00                 [207] (-119)
B937  00                 [208] (-119)
B938  1A                 [209] (121)
B939  00                 [210] (-102)
B93A  00                 [211] (-102)
B93B  00                 [212] (-114)
B93C  1A                 [213] (-69)
B93D  00                 [214] (-69)
B93E  00                 [215] (-65)
B93F  00                 [216] (-65)
B940  1A                 [217] (-65)
B941  00                 [218] (-67)
B942  00                 [219] (-27)
B943  00                 [220] (-27)
B944  1B                 [221] (-27)
B945  00                 [222] (-27)
B946  00                 [223] (-27)
B947  00                 [224] (-60)
B948  1B                 [225] (-2)
B949  00                 [226] (-2)
B94A  00                 [227] (-2)
B94B  00                 [228] (-12)
B94C  1B                 [229] (6)
B94D  00                 [230] (6)
B94E  00                 [231] (0)
B94F  00                 [232] (59)
B950  1D                 [233] (59)
B951  00                 [234] (75)
B952  00                 [235] (116)
B953  00                 [236] (116)
B954  1D                 [237] (116)
B955  00                 [238] (77)
B956  00                 [239] (-109)
B957  00                 [240] (-109)
B958  1D                 [241] (-109)
B959  00                 [242] (118)
B95A  00                 [243] (-4)
B95B  00                 [244] (-4)
B95C  1D                 [245] (-4)
B95D  00                 [246] (-4)
B95E  00                 [247] (-4)
B95F  00                 [248] (-4)
B960  1D                 [249] (-4)
B961  00                 [250] (-4)
B962  00                 [251] (-107)
B963  00                 [252] (-2)
B964  1D                 [253] (11)
B965  00                 [254] (11)
B966  00                 [255] (17)
B967  00                 [256] (17)
B968  1D                 [257] (13)
B969  00                 [258] (23)
B96A  00                 [259] (23)
B96B  00                 [260] (23)
B96C  1D                 [261] (19)
B96D  00                 [262] (-85)
B96E  00                 [263] (-85)
B96F  00                 [264] (-85)
B970  1D                 [265] (25)
B971  00                 [266] (-25)
B972  00                 [267] (-25)
B973  00                 [268] (-25)
B974  1D                 [269] (-25)
B975  00                 [270] (-25)
B976  00                 [271] (-83)
B977  00                 [272] (29)
B978  1D                 [273] (29)
B979  00                 [274] (29)
B97A  00                 [275] (29)
B97B  00                 [276] (29)
B97C  1E                 [277] (29)
B97D  00                 [278] (29)
B97E  00                 [279] (29)
B97F  00                 [280] (-23)
B980  1E                 [281] (29)
                         * locals:
BCCC  00                 sizelocvars (0)
                         * upvalues:
BCCD  00                 sizeupvalues (0)
                         ** end of function **

BCCE                     ** end of chunk **
