1	C:\wlua_dump\path\Lotus\ScriptsProceduralLevel.lua
Pos   Hex Data           Description or Code
------------------------------------------------------------------------
0000                     ** source chunk: C:\wlua_dump\path\Lotus\ScriptsProceduralLevel.lua
                         ** global header start **
0000  7F                 header signature: ""
0001  00                 version (major:minor hex digits)
0002  00                 format (0=official)
0003  00                 endianness (1=little endian)
0004  00                 size of int (bytes)
0005  00                 size of size_t (bytes)
0006  02                 size of Instruction (bytes)
0007  47                 size of number (bytes)
0008  A0                 integral (1=integral)
4160
                         * number type: single
                         * x86 standard (32-bit, little endian, doubles)
                         ** global header end **
Legendary
Rare
Uncommon
/Lotus/Types/PickUps/SteelMeridianDogTagPickup
/Lotus/Types/PickUps/SteelMeridianDogTagUncommonPickup
/Lotus/Types/PickUps/SteelMeridianDogTagRarePickup
/Lotus/Types/PickUps/ArbitersDogTagPickup
/Lotus/Types/PickUps/ArbitersDogTagUncommonPickup
/Lotus/Types/PickUps/ArbitersDogTagRarePickup
/Lotus/Types/PickUps/CephalonDogTagPickup
/Lotus/Types/PickUps/CephalonDogTagUncommonPickup
/Lotus/Types/PickUps/CephalonDogTagRarePickup
/Lotus/Types/PickUps/PerrinDogTagPickup
/Lotus/Types/PickUps/PerrinDogTagUncommonPickup
/Lotus/Types/PickUps/PerrinDogTagRarePickup
/Lotus/Types/PickUps/RedVeilDogTagPickup
/Lotus/Types/PickUps/RedVeilDogTagUncommonPickup
/Lotus/Types/PickUps/RedVeilDogTagRarePickup
/Lotus/Types/PickUps/NewLokaDogTagPickup
/Lotus/Types/PickUps/NewLokaDogTagUncommonPickup
/Lotus/Types/PickUps/NewLokaDogTagRarePickup
SteelMeridianSyndicate
ArbitersSyndicate
CephalonSudaSyndicate
PerrinSyndicate
RedVeilSyndicate
NewLokaSyndicate
/Lotus/Types/DropTables/FusionTreasuresDropTable
/Lotus/Types/Lore/LoreFragmentScanDeco
/Lotus/Types/Lore/SongFragmentScanDeco
/Lotus/Types/Lore/FighterFragmentScanDeco
IdleFailTimer
DayNight
Lotus.Interface.LotusUtilities
Lotus.Scripts.Libs.TransmissionSet
Lotus.Interface.SyndicateUtilities
Lotus.Scripts.Libs.LootCrateLib
VaultsCracked
/Lotus/Types/Game/ScriptTriggers/VoidTearScriptTrigger
/Lotus/Types/Game/GhostTower/GhostTowerScriptTrigger
RespawnRandomPlayer
TestLockerSetup
OnVoidTearReady
OnGhostTowerReady
InitializeMusic
InitializeWithAIXpPool
gGameRules
math
gRegion
Key
IntelStations
HackStations
Bomb
gRegion
OpenCin
PlayerSpawn
Grate
table
Enable
_T
OpeningCin
Hide
Spawn zones:
/Lotus/Types/LevelObjects/LockerAttachments/ThiefScriptTrigger
/Lotus/Types/LevelObjects/LockerAttachments/LockerReplicatedHitSwitch
/Lotus/Types/LevelObjects/LockerAttachments/LockerOpenIconDeco
Enable
Show
MaterialSwitch
gRegion
ExitMarker
Exit
gRegion
gZoneAttribsType
FlyIn
gPromotedToHost
gRegion
Locker
OpenLocker
/Lotus/Types/Gameplay/SecretAreaVolume
tileType
lockers
secretVolumes
table
Dead-End
Intermediate
Boss
Objective
Lockers: 
math
[
/
 in 
] 
gGameRules
transmissionOverrides
_T
MissionTransmissionSet
EndOfMissionVoiceOverride
gGameRules
_T
gDisableCamerasAndTurrets
disableCorpusCamerasAndTurrets
gRandomEnvSetupColorCorrection
doRandomEnvSetupColorCorrection
gRegion
EnvSetup
SandstormMaster
LevelStartScript
hasDayNightCycle
alwaysDay
alwaysNight
DayNightMaster
Execute
ProceduralLevel.lua::EnvSetup - nil zone found for "
"!
gRegion
gRegion
table
gRegion
HostMigrationInit
Execute
_T
AmbientMissionTransmissionSet
ambientMissionTransSet
gGameRules
gLotusGameRulesType
ExtractionTrigger
_T
EndCin
gGameRules
StopNormalTransmissions
gQuestMission
gRegion
Grineer
IncomingGrineer
Corpus
IncomingCorpus
Infestation
IncomingInfested
EnemiesUnaware
EnemyWarningCount
AmbientMissionTransmissionSet
gClient
userName
HIDDEN_PLAYER_NAME
_G
StalkerMode
gFlashMgr
Server.FastLoad
gRegion
ObjectiveMarker
AssassinMarker
ObjectiveTrigger
AssassinateObjective
AssassinRestate
ObjectiveRestate
FlyIn
gGameRules
spawnAsOperator
gPromotedToHost
StartPlaying
_T
HideTransferenceFx
gLotusOperatorAvatarType
OpeningCin
goalTag
RelayReconstructionTwo
OpenCin
Apostasy
GrateB
OpenCinDone
Objective
SecondObjective
objRestate
Boss
gBaseMarkerInfoType
table
Enable
ExterminateMid
reactorDestroyed
reactorVisible
PayloadDelivered
DataStolen
TargetSpawned
SAB_DONE
Lotus_Game
MT_RECOVERY
isArchwingMission
ExterminateMode
MT_TERRITORY
TerritoryMode
MT_SABOTAGE
SabotageMode
MT_DEFENSE
DefenseMode
MT_MOBILE_DEFENSE
ObjectiveTriggerMobileDefense
MT_PURSUIT
PursuitMode
MT_RAID
RaidMode
AllowWrinkles
MT_RACE
RaceMission
Execute
RaidTest
MT_LANDSCAPE
InitLandscape
levelOverride
MT_ASSASSINATION
VayHekSetup
MT_PURIFY
PurifyMode
MT_ARENA
ArenaMode
MT_GENERIC
ObjectiveExterminateMain
eventTrigger
gGameRules
StopNormalTransmissions
_T
MissionTransmissionSet
ObjectiveRestateTag
ObjectiveRestate
objRestate
Execute
table
rareLootWaypointType
Bailing on CopyWayPoints (rareLootWaypointType is NULL)
gRegion
table
ultraRareLootWaypointType
dynamicCoverTypes
gRegion
emplacementMinLevel
/Lotus/Types/LevelObjects/EmplacementNavVolume
gRegion
numRandomEmplacements
emplacementTypes
emplacementProbabilities
Disable
Legendary
LegendaryTypes
Rare
RareTypes
Uncommon
UncommonTypes
CommonTypes
gRegion
barrelTypes
barrelMinLevel
table
barrelProbability
itemTypes
itemProbability
randomRotation
itemTypesSecondary
itemProbabilitySecondary
randomRotationSecondary
corpseTypes
corpseProbability
isArchwingMission
moonFissureType
gRegion
MoonFissureSpawn
math
table
table
gGameRules
syndicateTag
rareLootWaypointType
Not enough valid spawn points for dogtags.
syndicate dog tag type not found
table
wayPoint
originalIndex
math
gRegion
Created lootable 
 dogtag at 
x
 
y
z
gRegion
ZERO_VECTOR
ZERO_ROTATION
Execute
gFlashMgr
LotusGameRules.DebugVoidTear
gGameRules
activeMissionTag
VoidT1
VoidT2
VoidT3
VoidT4
VoidT5
Active mission not setup for void tear
OnVoidTearReady
gRegion
ZERO_ROTATION
gGameRules
goalTag
GhostTower
gRegion
GhostTowerWaypoint
Dead-End
OnGhostTowerReady
gGameRules
goalTag
Lotus_Game
MT_DEFENSE
MT_TERRITORY
isArchwingMission
_T
gTutorialMission
VorsPrizeMission
goalId

gPlayerProfileMgr
songFragments
songFragmentOverride
SF_PERSONAL_QUARTERS
MT_LANDSCAPE
loreFragments
math
table
frameFighterFragments
gRegion
y
LoreFragmentDeco
Created LORE FRAGMENT at 
x
 
z
Created SONG FRAGMENT at 
Created FRAME FIGHTER FRAGMENT at 
gGameRules
goalTag
TreasureHunt
Lotus_Game
MT_DEFENSE
MT_TERRITORY
MT_LANDSCAPE
isArchwingMission
_T
gTutorialMission
VorsPrizeMission
table
Created FUSION TREASURE at 
x
 
y
z
gGameRules
rareLootWaypointType
rareCrateType
Lotus_Game
MT_DEFENSE
MT_TERRITORY
MT_LANDSCAPE
MT_ENDLESS_EXTERMINATION
rareLootChance
gRegion
altRareCrateType
table
gGameRules
Lotus_Game
MT_DEFENSE
MT_TERRITORY
ultraRareLootChance
ultraRareCrateType
gRegion
altUltraRareCrateType
floatingCrateWaypointType
floatingCrateTypes
gRegion
math
numFloatingCrates
table
gRegion
_T
difficulty
math
MaxAI
gRegion
/Lotus/Types/Game/DirTriggers/DirTriggerXpPool
_T
AvgXp
MaxXp
gRegion
gLightType
EMPTY_SYMBOL
Light
gGameRules
Lotus_Game
MT_SURVIVAL
MT_DEFENSE
MT_EXCAVATE
MT_TERRITORY
MT_ARTIFACT
gGameRules
Lotus_Game
MT_EXTERMINATION
MT_ENDLESS_EXTERMINATION
gRegion
FactionConflictScriptTrigger
Execute
gGameRules
_T
missionAIReady
probability
faction
tag
resource
factionA
factionB
minEnemyLevel
maxEnemyLevel
testAiSpec
leadersAlwaysAllowed
sortieId

alertId
goalId
archwingRequired
isSharkwingMission
agent
maxSimultaneous
tier
mergeSymbol
NULL agent type!
/Lotus/Types/Enemies/Corpus/BipedRobot/BipedRobotAgent
BipedSpecialSpawn
/Lotus/Types/NeutralCreatures/SandRayCreature
SandSpawn
/Lotus/Types/NeutralCreatures/Kubrow/KubrowAgent
KubrowSpawn
Lotus_Game
MT_LANDSCAPE
gRegion
/Lotus/Types/Enemies/Corpus/Venus/VenusBipedBaseAgent
VenusBipedSpecialSpawn
/Lotus/Types/Enemies/Corpus/Venus/VenusDroneBaseAgent
VenusDroneSpecialSpawn
SmallTurretSpawn
TowerTurretSpawn
CameraSpawn
TurretSpawn
customEnemyScaling
DistanceEnemyScalingReference
_T
ActiveJob
minEnemyLevel
maxEnemyLevel
gGameRules
ProceduralLevel.lua - Couldn't find entityNearGate to setup distance based enemy scaling
eidolonGroupCoordinatorAgentType
StopNormalTransmissions
MusicSequencerType
_T
EndlessExtermination
gGameRules
RandomMusicSequencerType
gRegion
ZERO_ROTATION
ZERO_VECTOR
gGameRules
_T
WareframeChallenge
SpawnSameZone
SameZone
AvgXp
XpAddCount
XpReserve
XpPool
BaseXPPool
faction
Grineer
EndCin
AllowWrinkles
EnemyWarningCount
MissionInitReady
gLotusPvpGameRulesType
difficulty
gRegion
ObjectiveMarker
Objective
DoNotUse
BipedSpecialSpawn
TurretSpawn
FixedTurretSpawn
CameraSpawn
FixedCameraSpawn
FixedNarrowCameraSpawn
SandSpawn
KubrowSpawn
AllySpecterSpawn
DefenseAgentSpawn
WaterSpawn
AirSpawn
HekSpawn
G3Spawn
/Lotus/Types/Enemies/Corpus/Turrets/AutoTurretAgent
Lotus_Game
Got Mission: 
descText
 difficulty: 
missionType
gravityAtten
y
gMatchingService
isSharkwingMission
Infestation
invasionId

forceAllyFaction
MT_SURVIVAL
MT_DEFENSE
goalId
sortieId
syndicateId
alertId
keyChainName
nightmare
ObjectiveDoor
Execute
gPromotedToHost
currentAiCount
isOpenSpace
OpenSpace
SpacePathVolume
gLotusSandBoxGameRulesType
disableSpawnedLoot
UseAiDirectorPopulationSpawnCount
MaxEnemyCount
ExterminateMid
MaxAI
MT_TERRITORY
MT_EXCAVATE
MT_PURSUIT
MT_RAID
MT_PURIFY
MT_ARENA
MT_LANDSCAPE
MT_ARTIFACT
MT_RAILJACK
enableAutoSpawns
FactionSwapped
MaxCombatTime
MinCombatTime
MaxDownTime
MinDownTime
SpawnDelay
musicTimer
center
dir
StormTarget
AmbientMissionTransmissionSet
ambientMissionTransSet
syndicateTag
AssassinsSyndicate
timeoutDuration
MT_CAPTURE
idleTimoutReset
isArchwingMission
gLotusHubGameRulesType
gLotusDojoGameRulesType
MT_MASTERY
FC_CORPUS
tutorialActive
gGameConfig
idelTimeoutLoc
                         
0001                     ** function [0] definition (level 1)
                         ** start of function **
0001  00                 string size (0)
                         source name: (none)
0002  00                 line defined (0)
0003  00                 last line defined (0)
0004  00                 nups (0)
0005  00                 numparams (0)
0006  02                 is_vararg (2)
0007  47                 maxstacksize (71)
                         * code:
0009  02                 sizecode (288)
000A  0BC00000           [001] newtable   0   0   3    ; array=0, hash=3
000E  0C404080           [002] settable   0   256 257  ; "Legendary" 0
0012  0CC04081           [003] settable   0   258 259  ; "Rare" 0
0016  0C404182           [004] settable   0   260 261  ; "Uncommon" 0
001A  4B000003           [005] newtable   1   6   0    ; array=6, hash=0
001E  8B000001           [006] newtable   2   2   0    ; array=2, hash=0
0022  DD800100           [007] getglobal  3   6        ; 738251817
0026  19C10100           [008] loadk      4   7        ; "/Lotus/Types/PickUps/SteelMeridianDogTagPickup"
002A  E2800001           [009] call       3   2   2  
002E  1D810100           [010] getglobal  4   6        ; 738251817
0032  59010200           [011] loadk      5   8        ; "/Lotus/Types/PickUps/SteelMeridianDogTagUncommonPickup"
0036  22810001           [012] call       4   2   2  
003A  5D810100           [013] getglobal  5   6        ; 738251817
003E  99410200           [014] loadk      6   9        ; "/Lotus/Types/PickUps/SteelMeridianDogTagRarePickup"
0042  62010001           [015] call       5   2   0  
0046  9B400000           [016] setlist    2   0   1    ; index 1 to top
004A  CB000001           [017] newtable   3   2   0    ; array=2, hash=0
004E  1D810100           [018] getglobal  4   6        ; 738251817
0052  59810200           [019] loadk      5   10       ; "/Lotus/Types/PickUps/ArbitersDogTagPickup"
0056  22810001           [020] call       4   2   2  
005A  5D810100           [021] getglobal  5   6        ; 738251817
005E  99C10200           [022] loadk      6   11       ; "/Lotus/Types/PickUps/ArbitersDogTagUncommonPickup"
0062  62810001           [023] call       5   2   2  
0066  9D810100           [024] getglobal  6   6        ; 738251817
006A  D9010300           [025] loadk      7   12       ; "/Lotus/Types/PickUps/ArbitersDogTagRarePickup"
006E  A2010001           [026] call       6   2   0  
0072  DB400000           [027] setlist    3   0   1    ; index 1 to top
0076  0B010001           [028] newtable   4   2   0    ; array=2, hash=0
007A  5D810100           [029] getglobal  5   6        ; 738251817
007E  99410300           [030] loadk      6   13       ; "/Lotus/Types/PickUps/CephalonDogTagPickup"
0082  62810001           [031] call       5   2   2  
0086  9D810100           [032] getglobal  6   6        ; 738251817
008A  D9810300           [033] loadk      7   14       ; "/Lotus/Types/PickUps/CephalonDogTagUncommonPickup"
008E  A2810001           [034] call       6   2   2  
0092  DD810100           [035] getglobal  7   6        ; 738251817
0096  19C20300           [036] loadk      8   15       ; "/Lotus/Types/PickUps/CephalonDogTagRarePickup"
009A  E2010001           [037] call       7   2   0  
009E  1B410000           [038] setlist    4   0   1    ; index 1 to top
00A2  4B010001           [039] newtable   5   2   0    ; array=2, hash=0
00A6  9D810100           [040] getglobal  6   6        ; 738251817
00AA  D9010400           [041] loadk      7   16       ; "/Lotus/Types/PickUps/PerrinDogTagPickup"
00AE  A2810001           [042] call       6   2   2  
00B2  DD810100           [043] getglobal  7   6        ; 738251817
00B6  19420400           [044] loadk      8   17       ; "/Lotus/Types/PickUps/PerrinDogTagUncommonPickup"
00BA  E2810001           [045] call       7   2   2  
00BE  1D820100           [046] getglobal  8   6        ; 738251817
00C2  59820400           [047] loadk      9   18       ; "/Lotus/Types/PickUps/PerrinDogTagRarePickup"
00C6  22020001           [048] call       8   2   0  
00CA  5B410000           [049] setlist    5   0   1    ; index 1 to top
00CE  8B010001           [050] newtable   6   2   0    ; array=2, hash=0
00D2  DD810100           [051] getglobal  7   6        ; 738251817
00D6  19C20400           [052] loadk      8   19       ; "/Lotus/Types/PickUps/RedVeilDogTagPickup"
00DA  E2810001           [053] call       7   2   2  
00DE  1D820100           [054] getglobal  8   6        ; 738251817
00E2  59020500           [055] loadk      9   20       ; "/Lotus/Types/PickUps/RedVeilDogTagUncommonPickup"
00E6  22820001           [056] call       8   2   2  
00EA  5D820100           [057] getglobal  9   6        ; 738251817
00EE  99420500           [058] loadk      10  21       ; "/Lotus/Types/PickUps/RedVeilDogTagRarePickup"
00F2  62020001           [059] call       9   2   0  
00F6  9B410000           [060] setlist    6   0   1    ; index 1 to top
00FA  CB010001           [061] newtable   7   2   0    ; array=2, hash=0
00FE  1D820100           [062] getglobal  8   6        ; 738251817
0102  59820500           [063] loadk      9   22       ; "/Lotus/Types/PickUps/NewLokaDogTagPickup"
0106  22820001           [064] call       8   2   2  
010A  5D820100           [065] getglobal  9   6        ; 738251817
010E  99C20500           [066] loadk      10  23       ; "/Lotus/Types/PickUps/NewLokaDogTagUncommonPickup"
0112  62820001           [067] call       9   2   2  
0116  9D820100           [068] getglobal  10  6        ; 738251817
011A  D9020600           [069] loadk      11  24       ; "/Lotus/Types/PickUps/NewLokaDogTagRarePickup"
011E  A2020001           [070] call       10  2   0  
0122  DB410000           [071] setlist    7   0   1    ; index 1 to top
0126  5B400003           [072] setlist    1   6   1    ; index 1 to 6
012A  8B008002           [073] newtable   2   5   0    ; array=5, hash=0
012E  DD400600           [074] getglobal  3   25       ; -332969190
0132  19810600           [075] loadk      4   26       ; "SteelMeridianSyndicate"
0136  E2800001           [076] call       3   2   2  
013A  1D410600           [077] getglobal  4   25       ; -332969190
013E  59C10600           [078] loadk      5   27       ; "ArbitersSyndicate"
0142  22810001           [079] call       4   2   2  
0146  5D410600           [080] getglobal  5   25       ; -332969190
014A  99010700           [081] loadk      6   28       ; "CephalonSudaSyndicate"
014E  62810001           [082] call       5   2   2  
0152  9D410600           [083] getglobal  6   25       ; -332969190
0156  D9410700           [084] loadk      7   29       ; "PerrinSyndicate"
015A  A2810001           [085] call       6   2   2  
015E  DD410600           [086] getglobal  7   25       ; -332969190
0162  19820700           [087] loadk      8   30       ; "RedVeilSyndicate"
0166  E2810001           [088] call       7   2   2  
016A  1D420600           [089] getglobal  8   25       ; -332969190
016E  59C20700           [090] loadk      9   31       ; "NewLokaSyndicate"
0172  22020001           [091] call       8   2   0  
0176  9B400000           [092] setlist    2   0   1    ; index 1 to top
017A  D9000800           [093] loadk      3   32       ; 0
017E  1D410800           [094] getglobal  4   33       ; 2083004503
0182  59810800           [095] loadk      5   34       ; "/Lotus/Types/DropTables/FusionTreasuresDropTable"
0186  22810001           [096] call       4   2   2  
018A  59C10800           [097] loadk      5   35       ; -102
018E  8B010000           [098] newtable   6   0   0    ; array=0, hash=0
0192  CB010000           [099] newtable   7   0   0    ; array=0, hash=0
0196  0B020001           [100] newtable   8   2   0    ; array=2, hash=0
019A  5D020900           [101] getglobal  9   36       ; -895206725
019E  99420900           [102] loadk      10  37       ; "/Lotus/Types/Lore/LoreFragmentScanDeco"
01A2  62820001           [103] call       9   2   2  
01A6  9D020900           [104] getglobal  10  36       ; -895206725
01AA  D9820900           [105] loadk      11  38       ; "/Lotus/Types/Lore/SongFragmentScanDeco"
01AE  A2820001           [106] call       10  2   2  
01B2  DD020900           [107] getglobal  11  36       ; -895206725
01B6  19C30900           [108] loadk      12  39       ; "/Lotus/Types/Lore/FighterFragmentScanDeco"
01BA  E2020001           [109] call       11  2   0  
01BE  1B420000           [110] setlist    8   0   1    ; index 1 to top
01C2  57020000           [111] loadbool   9   0   0    ; false
01C6  9D420600           [112] getglobal  10  25       ; -332969190
01CA  D9020A00           [113] loadk      11  40       ; "IdleFailTimer"
01CE  A2820001           [114] call       10  2   2  
01D2  DD420600           [115] getglobal  11  25       ; -332969190
01D6  19430A00           [116] loadk      12  41       ; "DayNight"
01DA  E2820001           [117] call       11  2   2  
01DE  1D830A00           [118] getglobal  12  42       ; 849075268
01E2  59C30A00           [119] loadk      13  43       ; "Lotus.Interface.LotusUtilities"
01E6  22830001           [120] call       12  2   2  
01EA  5D830A00           [121] getglobal  13  42       ; 849075268
01EE  99030B00           [122] loadk      14  44       ; "Lotus.Scripts.Libs.TransmissionSet"
01F2  62830001           [123] call       13  2   2  
01F6  9D830A00           [124] getglobal  14  42       ; 849075268
01FA  D9430B00           [125] loadk      15  45       ; "Lotus.Interface.SyndicateUtilities"
01FE  A2830001           [126] call       14  2   2  
0202  DD830A00           [127] getglobal  15  42       ; 849075268
0206  19840B00           [128] loadk      16  46       ; "Lotus.Scripts.Libs.LootCrateLib"
020A  E2830001           [129] call       15  2   2  
020E  1D440600           [130] getglobal  16  25       ; -332969190
0212  59C40B00           [131] loadk      17  47       ; "VaultsCracked"
0216  22840001           [132] call       16  2   2  
021A  59040C00           [133] loadk      17  48       ; 0
021E  99440000           [134] loadk      18  1        ; 0
0222  D9440C00           [135] loadk      19  49       ; 0
0226  19850C00           [136] loadk      20  50       ; -102
022A  5D850100           [137] getglobal  21  6        ; 738251817
022E  99C50C00           [138] loadk      22  51       ; "/Lotus/Types/Game/ScriptTriggers/VoidTearScriptTrigger"
0232  62850001           [139] call       21  2   2  
0236  8605000B           [140] loadnil    22  22     
023A  DD850100           [141] getglobal  23  6        ; 738251817
023E  19060D00           [142] loadk      24  52       ; "/Lotus/Types/Game/GhostTower/GhostTowerScriptTrigger"
0242  E2850001           [143] call       23  2   2  
0246  0606000C           [144] loadnil    24  24     
024A  65060000           [145] closure    25  0      
024E  60460D00           [146] setglobal  25  53       ; RespawnRandomPlayer
0252  60860D00           [147] setglobal  25  54       ; -213376608
0256  65460000           [148] closure    25  1      
025A  A5860000           [149] closure    26  2      
025E  E5C60000           [150] closure    27  3      
0262  25070100           [151] closure    28  4      
0266  65470100           [152] closure    29  5      
026A  A5870100           [153] closure    30  6      
026E  1200800E           [154] move       0   29     
0272  E5C70100           [155] closure    31  7      
0276  25080200           [156] closure    32  8      
027A  1200000E           [157] move       0   28     
027E  1200000F           [158] move       0   30     
0282  1200800F           [159] move       0   31     
0286  65480200           [160] closure    33  9      
028A  12000010           [161] move       0   32     
028E  60C80D00           [162] setglobal  33  55       ; TestLockerSetup
0292  60080E00           [163] setglobal  33  56       ; 1439542736
0296  65880200           [164] closure    33  10     
029A  A5C80200           [165] closure    34  11     
029E  1200800C           [166] move       0   25     
02A2  12008005           [167] move       0   11     
02A6  12000010           [168] move       0   32     
02AA  12008010           [169] move       0   33     
02AE  E5080300           [170] closure    35  12     
02B2  25490300           [171] closure    36  13     
02B6  65890300           [172] closure    37  14     
02BA  A5C90300           [173] closure    38  15     
02BE  12008006           [174] move       0   13     
02C2  E5090400           [175] closure    39  16     
02C6  12000006           [176] move       0   12     
02CA  254A0400           [177] closure    40  17     
02CE  12008013           [178] move       0   39     
02D2  594A0E00           [179] loadk      41  57       ; 0
02D6  A58A0400           [180] closure    42  18     
02DA  12008014           [181] move       0   41     
02DE  12000014           [182] move       0   40     
02E2  12008011           [183] move       0   35     
02E6  12000012           [184] move       0   36     
02EA  E5CA0400           [185] closure    43  19     
02EE  12008006           [186] move       0   13     
02F2  250B0500           [187] closure    44  20     
02F6  654B0500           [188] closure    45  21     
02FA  A58B0500           [189] closure    46  22     
02FE  12000003           [190] move       0   6      
0302  12008003           [191] move       0   7      
0306  E5CB0500           [192] closure    47  23     
030A  250C0600           [193] closure    48  24     
030E  12008016           [194] move       0   45     
0312  12000016           [195] move       0   44     
0316  654C0600           [196] closure    49  25     
031A  A58C0600           [197] closure    50  26     
031E  12008007           [198] move       0   15     
0322  E5CC0600           [199] closure    51  27     
0326  250D0700           [200] closure    52  28     
032A  12000001           [201] move       0   2      
032E  654D0700           [202] closure    53  29     
0332  A58D0700           [203] closure    54  30     
0336  E5CD0700           [204] closure    55  31     
033A  12000003           [205] move       0   6      
033E  1200001A           [206] move       0   52     
0342  12008001           [207] move       0   3      
0346  1200001B           [208] move       0   54     
034A  1200801A           [209] move       0   53     
034E  12008000           [210] move       0   1      
0352  250E0800           [211] closure    56  32     
0356  1200000B           [212] move       0   22     
035A  208E0E00           [213] setglobal  56  58       ; OnVoidTearReady
035E  20CE0E00           [214] setglobal  56  59       ; 1179874732
0362  254E0800           [215] closure    56  33     
0366  1200800A           [216] move       0   21     
036A  658E0800           [217] closure    57  34     
036E  1200000C           [218] move       0   24     
0372  600E0F00           [219] setglobal  57  60       ; OnGhostTowerReady
0376  604E0F00           [220] setglobal  57  61       ; -421264308
037A  65CE0800           [221] closure    57  35     
037E  1200000C           [222] move       0   24     
0382  1200800B           [223] move       0   23     
0386  A50E0900           [224] closure    58  36     
038A  12000003           [225] move       0   6      
038E  12000006           [226] move       0   12     
0392  12008008           [227] move       0   17     
0396  12000009           [228] move       0   18     
039A  12008009           [229] move       0   19     
039E  1200000A           [230] move       0   20     
03A2  12000004           [231] move       0   8      
03A6  E54E0900           [232] closure    59  37     
03AA  12000003           [233] move       0   6      
03AE  12008003           [234] move       0   7      
03B2  12008002           [235] move       0   5      
03B6  12000002           [236] move       0   4      
03BA  258F0900           [237] closure    60  38     
03BE  12000003           [238] move       0   6      
03C2  65CF0900           [239] closure    61  39     
03C6  12008003           [240] move       0   7      
03CA  A50F0A00           [241] closure    62  40     
03CE  E54F0A00           [242] closure    63  41     
03D2  25900A00           [243] closure    64  42     
03D6  65D00A00           [244] closure    65  43     
03DA  A5100B00           [245] closure    66  44     
03DE  E5500B00           [246] closure    67  45     
03E2  25910B00           [247] closure    68  46     
03E6  12008021           [248] move       0   67     
03EA  12008004           [249] move       0   9      
03EE  65D10B00           [250] closure    69  47     
03F2  A5110C00           [251] closure    70  48     
03F6  A0910F00           [252] setglobal  70  62       ; InitializeMusic
03FA  A0D10F00           [253] setglobal  70  63       ; 232589405
03FE  A5510C00           [254] closure    70  49     
0402  12000020           [255] move       0   64     
0406  1200800D           [256] move       0   27     
040A  1200800E           [257] move       0   29     
040E  12008011           [258] move       0   35     
0412  12008021           [259] move       0   67     
0416  12008012           [260] move       0   37     
041A  12008020           [261] move       0   65     
041E  1200000D           [262] move       0   26     
0422  12000022           [263] move       0   68     
0426  12000011           [264] move       0   34     
042A  12000017           [265] move       0   46     
042E  12008017           [266] move       0   47     
0432  12000018           [267] move       0   48     
0436  12000019           [268] move       0   50     
043A  1200001E           [269] move       0   60     
043E  1200801B           [270] move       0   55     
0442  1200001D           [271] move       0   58     
0446  1200801E           [272] move       0   61     
044A  1200801D           [273] move       0   59     
044E  1200001F           [274] move       0   62     
0452  12008019           [275] move       0   51     
0456  1200001C           [276] move       0   56     
045A  1200801C           [277] move       0   57     
045E  12000015           [278] move       0   42     
0462  12008022           [279] move       0   69     
0466  12000007           [280] move       0   14     
046A  12000021           [281] move       0   66     
046E  12000008           [282] move       0   16     
0472  12000013           [283] move       0   38     
0476  12008015           [284] move       0   43     
047A  12000005           [285] move       0   10     
047E  A0111000           [286] setglobal  70  64       ; InitializeWithAIXpPool
0482  A0511000           [287] setglobal  70  65       ; 1379513428
0486  1E008000           [288] return     0   1      
                         * constants:
048A  42                 sizek (66)
048B  04                 const type 4
048C  0A                 string size (10)
048D  4C6567656E646172+  "Legendar"
0495  7900               "y\0"
                         const [0]: "Legendary"
0497  03                 const type 3
0498  00000040           const [1]: (0)
049C  04                 const type 4
049D  05                 string size (5)
049E  5261726500         "Rare\0"
                         const [2]: "Rare"
04A3  03                 const type 3
04A4  0000C040           const [3]: (0)
04A8  04                 const type 4
04A9  09                 string size (9)
04AA  556E636F6D6D6F6E+  "Uncommon"
04B2  00                 "\0"
                         const [4]: "Uncommon"
04B3  03                 const type 3
04B4  00001442           const [5]: (0)
04B8  01                 const type 3
04B9  29D4002C           const [6]: (738251817)
04BD  04                 const type 4
04BE  2F                 string size (47)
04BF  2F4C6F7475732F54+  "/Lotus/T"
04C7  797065732F506963+  "ypes/Pic"
04CF  6B5570732F537465+  "kUps/Ste"
04D7  656C4D6572696469+  "elMeridi"
04DF  616E446F67546167+  "anDogTag"
04E7  5069636B757000     "Pickup\0"
                         const [7]: "/Lotus/Types/PickUps/SteelMeridianDogTagPickup"
04EE  04                 const type 4
04EF  37                 string size (55)
04F0  2F4C6F7475732F54+  "/Lotus/T"
04F8  797065732F506963+  "ypes/Pic"
0500  6B5570732F537465+  "kUps/Ste"
0508  656C4D6572696469+  "elMeridi"
0510  616E446F67546167+  "anDogTag"
0518  556E636F6D6D6F6E+  "Uncommon"
0520  5069636B757000     "Pickup\0"
                         const [8]: "/Lotus/Types/PickUps/SteelMeridianDogTagUncommonPickup"
0527  04                 const type 4
0528  33                 string size (51)
0529  2F4C6F7475732F54+  "/Lotus/T"
0531  797065732F506963+  "ypes/Pic"
0539  6B5570732F537465+  "kUps/Ste"
0541  656C4D6572696469+  "elMeridi"
0549  616E446F67546167+  "anDogTag"
0551  526172655069636B+  "RarePick"
0559  757000             "up\0"
                         const [9]: "/Lotus/Types/PickUps/SteelMeridianDogTagRarePickup"
055C  04                 const type 4
055D  2A                 string size (42)
055E  2F4C6F7475732F54+  "/Lotus/T"
0566  797065732F506963+  "ypes/Pic"
056E  6B5570732F417262+  "kUps/Arb"
0576  6974657273446F67+  "itersDog"
057E  5461675069636B75+  "TagPicku"
0586  7000               "p\0"
                         const [10]: "/Lotus/Types/PickUps/ArbitersDogTagPickup"
0588  04                 const type 4
0589  32                 string size (50)
058A  2F4C6F7475732F54+  "/Lotus/T"
0592  797065732F506963+  "ypes/Pic"
059A  6B5570732F417262+  "kUps/Arb"
05A2  6974657273446F67+  "itersDog"
05AA  546167556E636F6D+  "TagUncom"
05B2  6D6F6E5069636B75+  "monPicku"
05BA  7000               "p\0"
                         const [11]: "/Lotus/Types/PickUps/ArbitersDogTagUncommonPickup"
05BC  04                 const type 4
05BD  2E                 string size (46)
05BE  2F4C6F7475732F54+  "/Lotus/T"
05C6  797065732F506963+  "ypes/Pic"
05CE  6B5570732F417262+  "kUps/Arb"
05D6  6974657273446F67+  "itersDog"
05DE  5461675261726550+  "TagRareP"
05E6  69636B757000       "ickup\0"
                         const [12]: "/Lotus/Types/PickUps/ArbitersDogTagRarePickup"
05EC  04                 const type 4
05ED  2A                 string size (42)
05EE  2F4C6F7475732F54+  "/Lotus/T"
05F6  797065732F506963+  "ypes/Pic"
05FE  6B5570732F436570+  "kUps/Cep"
0606  68616C6F6E446F67+  "halonDog"
060E  5461675069636B75+  "TagPicku"
0616  7000               "p\0"
                         const [13]: "/Lotus/Types/PickUps/CephalonDogTagPickup"
0618  04                 const type 4
0619  32                 string size (50)
061A  2F4C6F7475732F54+  "/Lotus/T"
0622  797065732F506963+  "ypes/Pic"
062A  6B5570732F436570+  "kUps/Cep"
0632  68616C6F6E446F67+  "halonDog"
063A  546167556E636F6D+  "TagUncom"
0642  6D6F6E5069636B75+  "monPicku"
064A  7000               "p\0"
                         const [14]: "/Lotus/Types/PickUps/CephalonDogTagUncommonPickup"
064C  04                 const type 4
064D  2E                 string size (46)
064E  2F4C6F7475732F54+  "/Lotus/T"
0656  797065732F506963+  "ypes/Pic"
065E  6B5570732F436570+  "kUps/Cep"
0666  68616C6F6E446F67+  "halonDog"
066E  5461675261726550+  "TagRareP"
0676  69636B757000       "ickup\0"
                         const [15]: "/Lotus/Types/PickUps/CephalonDogTagRarePickup"
067C  04                 const type 4
067D  28                 string size (40)
067E  2F4C6F7475732F54+  "/Lotus/T"
0686  797065732F506963+  "ypes/Pic"
068E  6B5570732F506572+  "kUps/Per"
0696  72696E446F675461+  "rinDogTa"
069E  675069636B757000   "gPickup\0"
                         const [16]: "/Lotus/Types/PickUps/PerrinDogTagPickup"
06A6  04                 const type 4
06A7  30                 string size (48)
06A8  2F4C6F7475732F54+  "/Lotus/T"
06B0  797065732F506963+  "ypes/Pic"
06B8  6B5570732F506572+  "kUps/Per"
06C0  72696E446F675461+  "rinDogTa"
06C8  67556E636F6D6D6F+  "gUncommo"
06D0  6E5069636B757000   "nPickup\0"
                         const [17]: "/Lotus/Types/PickUps/PerrinDogTagUncommonPickup"
06D8  04                 const type 4
06D9  2C                 string size (44)
06DA  2F4C6F7475732F54+  "/Lotus/T"
06E2  797065732F506963+  "ypes/Pic"
06EA  6B5570732F506572+  "kUps/Per"
06F2  72696E446F675461+  "rinDogTa"
06FA  6752617265506963+  "gRarePic"
0702  6B757000           "kup\0"
                         const [18]: "/Lotus/Types/PickUps/PerrinDogTagRarePickup"
0706  04                 const type 4
0707  29                 string size (41)
0708  2F4C6F7475732F54+  "/Lotus/T"
0710  797065732F506963+  "ypes/Pic"
0718  6B5570732F526564+  "kUps/Red"
0720  5665696C446F6754+  "VeilDogT"
0728  61675069636B7570+  "agPickup"
0730  00                 "\0"
                         const [19]: "/Lotus/Types/PickUps/RedVeilDogTagPickup"
0731  04                 const type 4
0732  31                 string size (49)
0733  2F4C6F7475732F54+  "/Lotus/T"
073B  797065732F506963+  "ypes/Pic"
0743  6B5570732F526564+  "kUps/Red"
074B  5665696C446F6754+  "VeilDogT"
0753  6167556E636F6D6D+  "agUncomm"
075B  6F6E5069636B7570+  "onPickup"
0763  00                 "\0"
                         const [20]: "/Lotus/Types/PickUps/RedVeilDogTagUncommonPickup"
0764  04                 const type 4
0765  2D                 string size (45)
0766  2F4C6F7475732F54+  "/Lotus/T"
076E  797065732F506963+  "ypes/Pic"
0776  6B5570732F526564+  "kUps/Red"
077E  5665696C446F6754+  "VeilDogT"
0786  6167526172655069+  "agRarePi"
078E  636B757000         "ckup\0"
                         const [21]: "/Lotus/Types/PickUps/RedVeilDogTagRarePickup"
0793  04                 const type 4
0794  29                 string size (41)
0795  2F4C6F7475732F54+  "/Lotus/T"
079D  797065732F506963+  "ypes/Pic"
07A5  6B5570732F4E6577+  "kUps/New"
07AD  4C6F6B61446F6754+  "LokaDogT"
07B5  61675069636B7570+  "agPickup"
07BD  00                 "\0"
                         const [22]: "/Lotus/Types/PickUps/NewLokaDogTagPickup"
07BE  04                 const type 4
07BF  31                 string size (49)
07C0  2F4C6F7475732F54+  "/Lotus/T"
07C8  797065732F506963+  "ypes/Pic"
07D0  6B5570732F4E6577+  "kUps/New"
07D8  4C6F6B61446F6754+  "LokaDogT"
07E0  6167556E636F6D6D+  "agUncomm"
07E8  6F6E5069636B7570+  "onPickup"
07F0  00                 "\0"
                         const [23]: "/Lotus/Types/PickUps/NewLokaDogTagUncommonPickup"
07F1  04                 const type 4
07F2  2D                 string size (45)
07F3  2F4C6F7475732F54+  "/Lotus/T"
07FB  797065732F506963+  "ypes/Pic"
0803  6B5570732F4E6577+  "kUps/New"
080B  4C6F6B61446F6754+  "LokaDogT"
0813  6167526172655069+  "agRarePi"
081B  636B757000         "ckup\0"
                         const [24]: "/Lotus/Types/PickUps/NewLokaDogTagRarePickup"
0820  01                 const type 3
0821  1A4B27EC           const [25]: (-332969190)
0825  04                 const type 4
0826  17                 string size (23)
0827  537465656C4D6572+  "SteelMer"
082F  696469616E53796E+  "idianSyn"
0837  64696361746500     "dicate\0"
                         const [26]: "SteelMeridianSyndicate"
083E  04                 const type 4
083F  12                 string size (18)
0840  4172626974657273+  "Arbiters"
0848  53796E6469636174+  "Syndicat"
0850  6500               "e\0"
                         const [27]: "ArbitersSyndicate"
0852  04                 const type 4
0853  16                 string size (22)
0854  43657068616C6F6E+  "Cephalon"
085C  5375646153796E64+  "SudaSynd"
0864  696361746500       "icate\0"
                         const [28]: "CephalonSudaSyndicate"
086A  04                 const type 4
086B  10                 string size (16)
086C  50657272696E5379+  "PerrinSy"
0874  6E64696361746500   "ndicate\0"
                         const [29]: "PerrinSyndicate"
087C  04                 const type 4
087D  11                 string size (17)
087E  5265645665696C53+  "RedVeilS"
0886  796E646963617465+  "yndicate"
088E  00                 "\0"
                         const [30]: "RedVeilSyndicate"
088F  04                 const type 4
0890  11                 string size (17)
0891  4E65774C6F6B6153+  "NewLokaS"
0899  796E646963617465+  "yndicate"
08A1  00                 "\0"
                         const [31]: "NewLokaSyndicate"
08A2  03                 const type 3
08A3  00000041           const [32]: (0)
08A7  01                 const type 3
08A8  5720287C           const [33]: (2083004503)
08AC  04                 const type 4
08AD  31                 string size (49)
08AE  2F4C6F7475732F54+  "/Lotus/T"
08B6  797065732F44726F+  "ypes/Dro"
08BE  705461626C65732F+  "pTables/"
08C6  467573696F6E5472+  "FusionTr"
08CE  6561737572657344+  "easuresD"
08D6  726F705461626C65+  "ropTable"
08DE  00                 "\0"
                         const [34]: "/Lotus/Types/DropTables/FusionTreasuresDropTable"
08DF  03                 const type 3
08E0  9A99193E           const [35]: (-102)
08E4  01                 const type 3
08E5  BB3AA4CA           const [36]: (-895206725)
08E9  04                 const type 4
08EA  27                 string size (39)
08EB  2F4C6F7475732F54+  "/Lotus/T"
08F3  797065732F4C6F72+  "ypes/Lor"
08FB  652F4C6F72654672+  "e/LoreFr"
0903  61676D656E745363+  "agmentSc"
090B  616E4465636F00     "anDeco\0"
                         const [37]: "/Lotus/Types/Lore/LoreFragmentScanDeco"
0912  04                 const type 4
0913  27                 string size (39)
0914  2F4C6F7475732F54+  "/Lotus/T"
091C  797065732F4C6F72+  "ypes/Lor"
0924  652F536F6E674672+  "e/SongFr"
092C  61676D656E745363+  "agmentSc"
0934  616E4465636F00     "anDeco\0"
                         const [38]: "/Lotus/Types/Lore/SongFragmentScanDeco"
093B  04                 const type 4
093C  2A                 string size (42)
093D  2F4C6F7475732F54+  "/Lotus/T"
0945  797065732F4C6F72+  "ypes/Lor"
094D  652F466967687465+  "e/Fighte"
0955  72467261676D656E+  "rFragmen"
095D  745363616E446563+  "tScanDec"
0965  6F00               "o\0"
                         const [39]: "/Lotus/Types/Lore/FighterFragmentScanDeco"
0967  04                 const type 4
0968  0E                 string size (14)
0969  49646C654661696C+  "IdleFail"
0971  54696D657200       "Timer\0"
                         const [40]: "IdleFailTimer"
0977  04                 const type 4
0978  09                 string size (9)
0979  4461794E69676874+  "DayNight"
0981  00                 "\0"
                         const [41]: "DayNight"
0982  01                 const type 3
0983  44DC9B32           const [42]: (849075268)
0987  04                 const type 4
0988  1F                 string size (31)
0989  4C6F7475732E496E+  "Lotus.In"
0991  746572666163652E+  "terface."
0999  4C6F747573557469+  "LotusUti"
09A1  6C697469657300     "lities\0"
                         const [43]: "Lotus.Interface.LotusUtilities"
09A8  04                 const type 4
09A9  23                 string size (35)
09AA  4C6F7475732E5363+  "Lotus.Sc"
09B2  72697074732E4C69+  "ripts.Li"
09BA  62732E5472616E73+  "bs.Trans"
09C2  6D697373696F6E53+  "missionS"
09CA  657400             "et\0"
                         const [44]: "Lotus.Scripts.Libs.TransmissionSet"
09CD  04                 const type 4
09CE  23                 string size (35)
09CF  4C6F7475732E496E+  "Lotus.In"
09D7  746572666163652E+  "terface."
09DF  53796E6469636174+  "Syndicat"
09E7  655574696C697469+  "eUtiliti"
09EF  657300             "es\0"
                         const [45]: "Lotus.Interface.SyndicateUtilities"
09F2  04                 const type 4
09F3  20                 string size (32)
09F4  4C6F7475732E5363+  "Lotus.Sc"
09FC  72697074732E4C69+  "ripts.Li"
0A04  62732E4C6F6F7443+  "bs.LootC"
0A0C  726174654C696200   "rateLib\0"
                         const [46]: "Lotus.Scripts.Libs.LootCrateLib"
0A14  04                 const type 4
0A15  0E                 string size (14)
0A16  5661756C74734372+  "VaultsCr"
0A1E  61636B656400       "acked\0"
                         const [47]: "VaultsCracked"
0A24  03                 const type 3
0A25  0000803F           const [48]: (0)
0A29  03                 const type 3
0A2A  00004040           const [49]: (0)
0A2E  03                 const type 3
0A2F  9A99993E           const [50]: (-102)
0A33  04                 const type 4
0A34  37                 string size (55)
0A35  2F4C6F7475732F54+  "/Lotus/T"
0A3D  797065732F47616D+  "ypes/Gam"
0A45  652F536372697074+  "e/Script"
0A4D  5472696767657273+  "Triggers"
0A55  2F566F6964546561+  "/VoidTea"
0A5D  7253637269707454+  "rScriptT"
0A65  72696767657200     "rigger\0"
                         const [51]: "/Lotus/Types/Game/ScriptTriggers/VoidTearScriptTrigger"
0A6C  04                 const type 4
0A6D  35                 string size (53)
0A6E  2F4C6F7475732F54+  "/Lotus/T"
0A76  797065732F47616D+  "ypes/Gam"
0A7E  652F47686F737454+  "e/GhostT"
0A86  6F7765722F47686F+  "ower/Gho"
0A8E  7374546F77657253+  "stTowerS"
0A96  6372697074547269+  "criptTri"
0A9E  6767657200         "gger\0"
                         const [52]: "/Lotus/Types/Game/GhostTower/GhostTowerScriptTrigger"
0AA3  04                 const type 4
0AA4  14                 string size (20)
0AA5  5265737061776E52+  "RespawnR"
0AAD  616E646F6D506C61+  "andomPla"
0AB5  79657200           "yer\0"
                         const [53]: "RespawnRandomPlayer"
0AB9  01                 const type 3
0ABA  A02148F3           const [54]: (-213376608)
0ABE  04                 const type 4
0ABF  10                 string size (16)
0AC0  546573744C6F636B+  "TestLock"
0AC8  6572536574757000   "erSetup\0"
                         const [55]: "TestLockerSetup"
0AD0  01                 const type 3
0AD1  D0ADCD55           const [56]: (1439542736)
0AD5  03                 const type 3
0AD6  00008040           const [57]: (0)
0ADA  04                 const type 4
0ADB  10                 string size (16)
0ADC  4F6E566F69645465+  "OnVoidTe"
0AE4  6172526561647900   "arReady\0"
                         const [58]: "OnVoidTearReady"
0AEC  01                 const type 3
0AED  AC755346           const [59]: (1179874732)
0AF1  04                 const type 4
0AF2  12                 string size (18)
0AF3  4F6E47686F737454+  "OnGhostT"
0AFB  6F77657252656164+  "owerRead"
0B03  7900               "y\0"
                         const [60]: "OnGhostTowerReady"
0B05  01                 const type 3
0B06  4C04E4E6           const [61]: (-421264308)
0B0A  04                 const type 4
0B0B  10                 string size (16)
0B0C  496E697469616C69+  "Initiali"
0B14  7A654D7573696300   "zeMusic\0"
                         const [62]: "InitializeMusic"
0B1C  01                 const type 3
0B1D  5D08DD0D           const [63]: (232589405)
0B21  04                 const type 4
0B22  17                 string size (23)
0B23  496E697469616C69+  "Initiali"
0B2B  7A65576974684149+  "zeWithAI"
0B33  5870506F6F6C00     "XpPool\0"
                         const [64]: "InitializeWithAIXpPool"
0B3A  01                 const type 3
0B3B  54B43952           const [65]: (1379513428)
                         * functions:
0B3F  32                 sizep (50)
                         
0B40                     ** function [0] definition (level 2)
                         ** start of function **
0B40  00                 string size (0)
                         source name: (none)
0B42  01                 line defined (130)
0B43  84                 last line defined (132)
0B44  01                 nups (0)
0B45  00                 numparams (0)
0B46  00                 is_vararg (0)
0B47  00                 maxstacksize (2)
                         * code:
0B49  04                 sizecode (4)
0B4A  1D000000           [1] getglobal  0   0        ; gGameRules
0B4E  24404000           [2] self       0   0   257  ; -213376608
0B52  22400001           [3] call       0   2   1  
0B56  1E008000           [4] return     0   1      
                         * constants:
0B5A  02                 sizek (2)
0B5B  04                 const type 4
0B5C  0B                 string size (11)
0B5D  6747616D6552756C+  "gGameRul"
0B65  657300             "es\0"
                         const [0]: "gGameRules"
0B68  01                 const type 3
0B69  A02148F3           const [1]: (-213376608)
                         * functions:
0B6D  00                 sizep (0)
                         * lines:
0B6E  04                 sizelineinfo (4)
                         [pc] (line)
0B6F  83                 [1] (-125)
0B70  00                 [2] (-125)
0B71  00                 [3] (-125)
0B72  00                 [4] (-124)
                         * locals:
0B7F  00                 sizelocvars (0)
                         * upvalues:
0B80  00                 sizeupvalues (0)
                         ** end of function **

                         
0B81                     ** function [1] definition (level 2)
                         ** start of function **
0B81  00                 string size (0)
                         source name: (none)
0B83  01                 line defined (134)
0B84  97                 last line defined (151)
0B85  01                 nups (0)
0B86  00                 numparams (1)
0B87  01                 is_vararg (0)
0B88  00                 maxstacksize (6)
                         * code:
0B8A  16                 sizecode (22)
0B8B  5D000000           [01] getglobal  1   0        ; math
0B8F  4E40C000           [02] gettable   1   1   257  ; -150971781
0B93  9C804000           [03] div        2   0   258  ; -97
0B97  62800001           [04] call       1   2   2  
0B9B  43408081           [05] add        1   259 1    ; 0
0B9F  9D000000           [06] getglobal  2   0        ; math
0BA3  8E404001           [07] gettable   2   2   257  ; -150971781
0BA7  DC004100           [08] div        3   0   260  ; 0
0BAB  A2800001           [09] call       2   2   2  
0BAF  9F404101           [10] mod        2   2   261  ; 0
0BB3  DD000000           [11] getglobal  3   0        ; math
0BB7  CE40C001           [12] gettable   3   3   257  ; -150971781
0BBB  1C814100           [13] div        4   0   262  ; 0
0BBF  E2800001           [14] call       3   2   2  
0BC3  DFC0C101           [15] mod        3   3   263  ; 0
0BC7  1D010000           [16] getglobal  4   0        ; math
0BCB  0E414002           [17] gettable   4   4   257  ; -150971781
0BCF  5C014200           [18] div        5   0   264  ; 0
0BD3  22810001           [19] call       4   2   2  
0BD7  1F014202           [20] mod        4   4   264  ; 0
0BDB  DE000001           [21] return     3   2      
0BDF  1E008000           [22] return     0   1      
                         * constants:
0BE3  09                 sizek (9)
0BE4  04                 const type 4
0BE5  05                 string size (5)
0BE6  6D61746800         "math\0"
                         const [0]: "math"
0BEB  01                 const type 3
0BEC  7B5A00F7           const [1]: (-150971781)
0BF0  03                 const type 3
0BF1  9FC2F04B           const [2]: (-97)
0BF5  03                 const type 3
0BF6  0040F644           const [3]: (0)
0BFA  03                 const type 3
0BFB  00C0A847           const [4]: (0)
0BFF  03                 const type 3
0C00  0080B643           const [5]: (0)
0C04  03                 const type 3
0C05  00006145           const [6]: (0)
0C09  03                 const type 3
0C0A  0000C041           const [7]: (0)
0C0E  03                 const type 3
0C0F  00007042           const [8]: (0)
                         * functions:
0C13  00                 sizep (0)
                         * lines:
0C14  16                 sizelineinfo (22)
                         [pc] (line)
0C15  91                 [01] (-111)
0C16  00                 [02] (-111)
0C17  00                 [03] (-111)
0C18  00                 [04] (-111)
0C19  91                 [05] (-111)
0C1A  00                 [06] (-110)
0C1B  00                 [07] (-110)
0C1C  00                 [08] (-110)
0C1D  91                 [09] (-110)
0C1E  00                 [10] (-110)
0C1F  00                 [11] (-109)
0C20  00                 [12] (-109)
0C21  91                 [13] (-109)
0C22  00                 [14] (-109)
0C23  00                 [15] (-109)
0C24  00                 [16] (-108)
0C25  91                 [17] (-108)
0C26  00                 [18] (-108)
0C27  00                 [19] (-108)
0C28  00                 [20] (-108)
0C29  92                 [21] (-106)
0C2A  00                 [22] (-105)
                         * locals:
0C6D  00                 sizelocvars (0)
                         * upvalues:
0C6E  00                 sizeupvalues (0)
                         ** end of function **

                         
0C6F                     ** function [2] definition (level 2)
                         ** start of function **
0C6F  00                 string size (0)
                         source name: (none)
0C71  01                 line defined (153)
0C72  A2                 last line defined (162)
0C73  01                 nups (0)
0C74  00                 numparams (0)
0C75  00                 is_vararg (0)
0C76  00                 maxstacksize (6)
                         * code:
0C78  1F                 sizecode (31)
0C79  1D000000           [01] getglobal  0   0        ; gRegion
0C7D  24404000           [02] self       0   0   257  ; -774964848
0C81  22800001           [03] call       0   2   2  
0C85  64804000           [04] self       1   0   258  ; 537471347
0C89  62800001           [05] call       1   2   2  
0C8D  9DC00000           [06] getglobal  2   3        ; 1074689893
0C91  D2008000           [07] move       3   1      
0C95  A2800001           [08] call       2   2   2  
0C99  98400000           [09] test       2       1    ; to [11] if false
0C9D  1AC00480           [10] jmp        20           ; to [31]
0CA1  A400C100           [11] self       2   1   260  ; -1438294039
0CA5  1D410100           [12] getglobal  4   5        ; -332969190
0CA9  59810100           [13] loadk      5   6        ; "Key"
0CAD  22010001           [14] call       4   2   0  
0CB1  A2400000           [15] call       2   0   1  
0CB5  A400C100           [16] self       2   1   260  ; -1438294039
0CB9  1D410100           [17] getglobal  4   5        ; -332969190
0CBD  59C10100           [18] loadk      5   7        ; "IntelStations"
0CC1  22010001           [19] call       4   2   0  
0CC5  A2400000           [20] call       2   0   1  
0CC9  A400C100           [21] self       2   1   260  ; -1438294039
0CCD  1D410100           [22] getglobal  4   5        ; -332969190
0CD1  59010200           [23] loadk      5   8        ; "HackStations"
0CD5  22010001           [24] call       4   2   0  
0CD9  A2400000           [25] call       2   0   1  
0CDD  A400C100           [26] self       2   1   260  ; -1438294039
0CE1  1D410100           [27] getglobal  4   5        ; -332969190
0CE5  59410200           [28] loadk      5   9        ; "Bomb"
0CE9  22010001           [29] call       4   2   0  
0CED  A2400000           [30] call       2   0   1  
0CF1  1E008000           [31] return     0   1      
                         * constants:
0CF5  0A                 sizek (10)
0CF6  04                 const type 4
0CF7  08                 string size (8)
0CF8  67526567696F6E00   "gRegion\0"
                         const [0]: "gRegion"
0D00  01                 const type 3
0D01  90F9CED1           const [1]: (-774964848)
0D05  01                 const type 3
0D06  73290920           const [2]: (537471347)
0D0A  01                 const type 3
0D0B  65770E40           const [3]: (1074689893)
0D0F  01                 const type 3
0D10  E95F45AA           const [4]: (-1438294039)
0D14  01                 const type 3
0D15  1A4B27EC           const [5]: (-332969190)
0D19  04                 const type 4
0D1A  04                 string size (4)
0D1B  4B657900           "Key\0"
                         const [6]: "Key"
0D1F  04                 const type 4
0D20  0E                 string size (14)
0D21  496E74656C537461+  "IntelSta"
0D29  74696F6E7300       "tions\0"
                         const [7]: "IntelStations"
0D2F  04                 const type 4
0D30  0D                 string size (13)
0D31  4861636B53746174+  "HackStat"
0D39  696F6E7300         "ions\0"
                         const [8]: "HackStations"
0D3E  04                 const type 4
0D3F  05                 string size (5)
0D40  426F6D6200         "Bomb\0"
                         const [9]: "Bomb"
                         * functions:
0D45  00                 sizep (0)
                         * lines:
0D46  1F                 sizelineinfo (31)
                         [pc] (line)
0D47  9A                 [01] (-102)
0D48  00                 [02] (-102)
0D49  00                 [03] (-102)
0D4A  00                 [04] (-101)
0D4B  9A                 [05] (-101)
0D4C  00                 [06] (-100)
0D4D  00                 [07] (-100)
0D4E  00                 [08] (-100)
0D4F  9A                 [09] (-100)
0D50  00                 [10] (-100)
0D51  00                 [11] (-99)
0D52  00                 [12] (-99)
0D53  9B                 [13] (-99)
0D54  00                 [14] (-99)
0D55  00                 [15] (-99)
0D56  00                 [16] (-98)
0D57  9B                 [17] (-98)
0D58  00                 [18] (-98)
0D59  00                 [19] (-98)
0D5A  00                 [20] (-98)
0D5B  9C                 [21] (-97)
0D5C  00                 [22] (-97)
0D5D  00                 [23] (-97)
0D5E  00                 [24] (-97)
0D5F  9C                 [25] (-97)
0D60  00                 [26] (-96)
0D61  00                 [27] (-96)
0D62  00                 [28] (-96)
0D63  9C                 [29] (-96)
0D64  00                 [30] (-96)
0D65  00                 [31] (-94)
                         * locals:
0DC3  00                 sizelocvars (0)
                         * upvalues:
0DC4  00                 sizeupvalues (0)
                         ** end of function **

                         
0DC5                     ** function [3] definition (level 2)
                         ** start of function **
0DC5  00                 string size (0)
                         source name: (none)
0DC7  01                 line defined (164)
0DC8  CB                 last line defined (203)
0DC9  01                 nups (0)
0DCA  00                 numparams (0)
0DCB  00                 is_vararg (0)
0DCC  00                 maxstacksize (29)
                         * code:
0DCE  57                 sizecode (87)
0DCF  1D000000           [01] getglobal  0   0        ; gRegion
0DD3  24404000           [02] self       0   0   257  ; -1485896174
0DD7  9D800000           [03] getglobal  2   2        ; -332969190
0DDB  D9C00000           [04] loadk      3   3        ; "OpenCin"
0DDF  A2000001           [05] call       2   2   0  
0DE3  22800000           [06] call       0   0   2  
0DE7  5D000000           [07] getglobal  1   0        ; gRegion
0DEB  6440C000           [08] self       1   1   257  ; -1485896174
0DEF  DD800000           [09] getglobal  3   2        ; -332969190
0DF3  19010100           [10] loadk      4   4        ; "PlayerSpawn"
0DF7  E2000001           [11] call       3   2   0  
0DFB  62800000           [12] call       1   0   2  
0DFF  9D000000           [13] getglobal  2   0        ; gRegion
0E03  A4404001           [14] self       2   2   257  ; -1485896174
0E07  1D810000           [15] getglobal  4   2        ; -332969190
0E0B  59410100           [16] loadk      5   5        ; "Grate"
0E0F  22010001           [17] call       4   2   0  
0E13  A2800000           [18] call       2   0   2  
0E17  CB000000           [19] newtable   3   0   0    ; array=0, hash=0
0E1B  19810100           [20] loadk      4   6        ; 0
0E1F  4A018000           [21] len        5   1      
0E23  99810100           [22] loadk      6   6        ; 0
0E27  10810380           [23] forprep    4   15       ; to [39]
0E2B  0EC28100           [24] gettable   8   1   7  
0E2F  64C24104           [25] self       9   8   263  ; 1927666530
0E33  62820001           [26] call       9   2   2  
0E37  A402C204           [27] self       10  9   264  ; -2104556066
0E3B  A2820001           [28] call       10  2   2  
0E3F  DD420200           [29] getglobal  11  9        ; table
0E43  CE82C205           [30] gettable   11  11  266  ; -431682403
0E47  12038001           [31] move       12  3      
0E4B  52030005           [32] move       13  10     
0E4F  E2428001           [33] call       11  3   1  
fail op	35
0E53  23804105           [34] close      0  
0E57  1A800080           [35] jmp        3            ; to [39]
0E5B  E4C24204           [36] self       11  8   267  ; -1923578185
0E5F  59030300           [37] loadk      13  12       ; "Enable"
0E63  E2428001           [38] call       11  3   1  
0E67  14C1FB7F           [39] forloop    4   -16      ; to [24] if loop
0E6B  D9820100           [40] loadk      11  6        ; 0
0E6F  0A030000           [41] len        12  0      
0E73  59830100           [42] loadk      13  6        ; 0
0E77  D0420380           [43] forprep    11  14       ; to [58]
0E7B  CE830300           [44] gettable   15  0   14 
0E7F  24C4C107           [45] self       16  15  263  ; 1927666530
0E83  22840001           [46] call       16  2   2  
0E87  5D440300           [47] getglobal  17  13       ; 1074689893
0E8B  92040008           [48] move       18  16     
0E8F  62840001           [49] call       17  2   2  
0E93  58440000           [50] test       17      1    ; to [52] if false
0E97  1A400180           [51] jmp        6            ; to [58]
0E9B  64044208           [52] self       17  16  264  ; -2104556066
0E9F  62840001           [53] call       17  2   2  
fail op	35
0EA3  2380C108           [54] close      0  
0EA7  1A400080           [55] jmp        2            ; to [58]
0EAB  9D840300           [56] getglobal  18  14       ; _T
0EAF  8CC48387           [57] settable   18  271 15   ; "OpeningCin"
0EB3  D402FC7F           [58] forloop    11  -15      ; to [44] if loop
0EB7  99840100           [59] loadk      18  6        ; 0
0EBB  CA040001           [60] len        19  2      
0EBF  19850100           [61] loadk      20  6        ; 0
0EC3  90040480           [62] forprep    18  17       ; to [80]
0EC7  8E450501           [63] gettable   22  2   21 
0ECB  E4C5410B           [64] self       23  22  263  ; 1927666530
0ECF  E2850001           [65] call       23  2   2  
0ED3  1D460300           [66] getglobal  24  13       ; 1074689893
0ED7  5206800B           [67] move       25  23     
0EDB  22860001           [68] call       24  2   2  
0EDF  18460000           [69] test       24      1    ; to [71] if false
0EE3  1A000280           [70] jmp        9            ; to [80]
0EE7  2406C20B           [71] self       24  23  264  ; -2104556066
0EEB  22860001           [72] call       24  2   2  
fail op	35
0EEF  6380410C           [73] close      1  
0EF3  1A000180           [74] jmp        5            ; to [80]
0EF7  64C6420B           [75] self       25  22  267  ; -1923578185
0EFB  D9060400           [76] loadk      27  16       ; "Hide"
0EFF  62468001           [77] call       25  3   1  
0F03  6446440B           [78] self       25  22  273  ; -725453761
0F07  62460001           [79] call       25  2   1  
0F0B  9444FB7F           [80] forloop    18  -18      ; to [63] if loop
0F0F  5D860400           [81] getglobal  25  18       ; -1817107093
0F13  99C60400           [82] loadk      26  19       ; "Spawn zones:"
0F17  DD060500           [83] getglobal  27  20       ; -1244955230
0F1B  12078001           [84] move       28  3      
0F1F  E2060001           [85] call       27  2   0  
0F23  62460000           [86] call       25  0   1  
0F27  1E008000           [87] return     0   1      
                         * constants:
0F2B  15                 sizek (21)
0F2C  04                 const type 4
0F2D  08                 string size (8)
0F2E  67526567696F6E00   "gRegion\0"
                         const [0]: "gRegion"
0F36  01                 const type 3
0F37  12066FA7           const [1]: (-1485896174)
0F3B  01                 const type 3
0F3C  1A4B27EC           const [2]: (-332969190)
0F40  04                 const type 4
0F41  08                 string size (8)
0F42  4F70656E43696E00   "OpenCin\0"
                         const [3]: "OpenCin"
0F4A  04                 const type 4
0F4B  0C                 string size (12)
0F4C  506C617965725370+  "PlayerSp"
0F54  61776E00           "awn\0"
                         const [4]: "PlayerSpawn"
0F58  04                 const type 4
0F59  06                 string size (6)
0F5A  477261746500       "Grate\0"
                         const [5]: "Grate"
0F60  03                 const type 3
0F61  0000803F           const [6]: (0)
0F65  01                 const type 3
0F66  62DBE572           const [7]: (1927666530)
0F6A  01                 const type 3
0F6B  DE058F82           const [8]: (-2104556066)
0F6F  04                 const type 4
0F70  06                 string size (6)
0F71  7461626C6500       "table\0"
                         const [9]: "table"
0F77  01                 const type 3
0F78  9D0C45E6           const [10]: (-431682403)
0F7C  01                 const type 3
0F7D  B786588D           const [11]: (-1923578185)
0F81  04                 const type 4
0F82  07                 string size (7)
0F83  456E61626C6500     "Enable\0"
                         const [12]: "Enable"
0F8A  01                 const type 3
0F8B  65770E40           const [13]: (1074689893)
0F8F  04                 const type 4
0F90  03                 string size (3)
0F91  5F5400             "_T\0"
                         const [14]: "_T"
0F94  04                 const type 4
0F95  0B                 string size (11)
0F96  4F70656E696E6743+  "OpeningC"
0F9E  696E00             "in\0"
                         const [15]: "OpeningCin"
0FA1  04                 const type 4
0FA2  05                 string size (5)
0FA3  4869646500         "Hide\0"
                         const [16]: "Hide"
0FA8  01                 const type 3
0FA9  3F74C2D4           const [17]: (-725453761)
0FAD  01                 const type 3
0FAE  6B25B193           const [18]: (-1817107093)
0FB2  04                 const type 4
0FB3  0D                 string size (13)
0FB4  537061776E207A6F+  "Spawn zo"
0FBC  6E65733A00         "nes:\0"
                         const [19]: "Spawn zones:"
0FC1  01                 const type 3
0FC2  A27DCBB5           const [20]: (-1244955230)
                         * functions:
0FC6  00                 sizep (0)
                         * lines:
0FC7  57                 sizelineinfo (87)
                         [pc] (line)
0FC8  A5                 [01] (-91)
0FC9  00                 [02] (-91)
0FCA  00                 [03] (-91)
0FCB  00                 [04] (-91)
0FCC  A5                 [05] (-91)
0FCD  00                 [06] (-91)
0FCE  00                 [07] (-90)
0FCF  00                 [08] (-90)
0FD0  A5                 [09] (-90)
0FD1  00                 [10] (-90)
0FD2  00                 [11] (-90)
0FD3  00                 [12] (-90)
0FD4  A5                 [13] (-89)
0FD5  00                 [14] (-89)
0FD6  00                 [15] (-89)
0FD7  00                 [16] (-89)
0FD8  A5                 [17] (-89)
0FD9  00                 [18] (-89)
0FDA  00                 [19] (-88)
0FDB  00                 [20] (-87)
0FDC  A5                 [21] (-87)
0FDD  00                 [22] (-87)
0FDE  00                 [23] (-87)
0FDF  00                 [24] (-86)
0FE0  A6                 [25] (-85)
0FE1  00                 [26] (-85)
0FE2  00                 [27] (-84)
0FE3  00                 [28] (-84)
0FE4  A6                 [29] (-83)
0FE5  00                 [30] (-83)
0FE6  00                 [31] (-83)
0FE7  00                 [32] (-83)
0FE8  A6                 [33] (-83)
0FE9  00                 [34] (-82)
0FEA  00                 [35] (-82)
0FEB  00                 [36] (-81)
0FEC  A6                 [37] (-81)
0FED  00                 [38] (-81)
0FEE  00                 [39] (-87)
0FEF  00                 [40] (-77)
0FF0  A6                 [41] (-77)
0FF1  00                 [42] (-77)
0FF2  00                 [43] (-77)
0FF3  00                 [44] (-76)
0FF4  A6                 [45] (-75)
0FF5  00                 [46] (-75)
0FF6  00                 [47] (-74)
0FF7  00                 [48] (-74)
0FF8  A7                 [49] (-74)
0FF9  00                 [50] (-74)
0FFA  00                 [51] (-74)
0FFB  00                 [52] (-73)
0FFC  A7                 [53] (-73)
0FFD  00                 [54] (-72)
0FFE  00                 [55] (-72)
0FFF  00                 [56] (-71)
1000  A7                 [57] (-71)
1001  00                 [58] (-77)
1002  00                 [59] (-67)
1003  00                 [60] (-67)
1004  A7                 [61] (-67)
1005  00                 [62] (-67)
1006  00                 [63] (-66)
1007  00                 [64] (-65)
1008  A7                 [65] (-65)
1009  00                 [66] (-64)
100A  00                 [67] (-64)
100B  00                 [68] (-64)
100C  A7                 [69] (-64)
100D  00                 [70] (-64)
100E  00                 [71] (-63)
100F  00                 [72] (-63)
1010  A8                 [73] (-62)
1011  00                 [74] (-62)
1012  00                 [75] (-61)
1013  00                 [76] (-61)
1014  A9                 [77] (-61)
1015  00                 [78] (-60)
1016  00                 [79] (-60)
1017  00                 [80] (-67)
1018  A9                 [81] (-54)
1019  00                 [82] (-54)
101A  00                 [83] (-54)
101B  00                 [84] (-54)
101C  A9                 [85] (-54)
101D  00                 [86] (-54)
101E  00                 [87] (-53)
                         * locals:
1124  00                 sizelocvars (0)
                         * upvalues:
1125  00                 sizeupvalues (0)
                         ** end of function **

                         
1126                     ** function [4] definition (level 2)
                         ** start of function **
1126  00                 string size (0)
                         source name: (none)
1128  01                 line defined (205)
1129  E6                 last line defined (230)
112A  01                 nups (0)
112B  00                 numparams (1)
112C  01                 is_vararg (0)
112D  00                 maxstacksize (12)
                         * code:
112F  35                 sizecode (53)
1130  5D000000           [01] getglobal  1   0        ; 738251817
1134  99400000           [02] loadk      2   1        ; "/Lotus/Types/LevelObjects/LockerAttachments/ThiefScriptTrigger"
1138  62800001           [03] call       1   2   2  
113C  9D000000           [04] getglobal  2   0        ; 738251817
1140  D9800000           [05] loadk      3   2        ; "/Lotus/Types/LevelObjects/LockerAttachments/LockerReplicatedHitSwitch"
1144  A2800001           [06] call       2   2   2  
1148  DD000000           [07] getglobal  3   0        ; 738251817
114C  19C10000           [08] loadk      4   3        ; "/Lotus/Types/LevelObjects/LockerAttachments/LockerOpenIconDeco"
1150  E2800001           [09] call       3   2   2  
1154  24014100           [10] self       4   0   260  ; 366271214
1158  92018000           [11] move       6   1      
115C  22818001           [12] call       4   3   2  
1160  4A010002           [13] len        5   4      
fail op	21
1164  15408182           [14] concat     0   261 5  
1168  1AC00180           [15] jmp        8            ; to [24]
116C  4E814102           [16] gettable   5   4   262  ; 0
1170  9DC10100           [17] getglobal  6   7        ; 1074689893
1174  D2018002           [18] move       7   5      
1178  A2810001           [19] call       6   2   2  
117C  98410000           [20] test       6       1    ; to [22] if false
1180  1A400080           [21] jmp        2            ; to [24]
1184  A401C202           [22] self       6   5   264  ; -725453761
1188  A2410001           [23] call       6   2   1  
118C  A4014100           [24] self       6   0   260  ; 366271214
1190  12020001           [25] move       8   2      
1194  A2818001           [26] call       6   3   2  
1198  CA010003           [27] len        7   6      
fail op	21
119C  15C08182           [28] concat     0   261 7  
11A0  1A000280           [29] jmp        9            ; to [39]
11A4  CE814103           [30] gettable   7   6   262  ; 0
11A8  1DC20100           [31] getglobal  8   7        ; 1074689893
11AC  52028003           [32] move       9   7      
11B0  22820001           [33] call       8   2   2  
11B4  18420000           [34] test       8       1    ; to [36] if false
11B8  1A800080           [35] jmp        3            ; to [39]
11BC  2442C203           [36] self       8   7   265  ; -1923578185
11C0  99820200           [37] loadk      10  10       ; "Enable"
11C4  22428001           [38] call       8   3   1  
11C8  24C24200           [39] self       8   0   267  ; -1625438872
11CC  92028001           [40] move       10  3      
11D0  22828001           [41] call       8   3   2  
11D4  5DC20100           [42] getglobal  9   7        ; 1074689893
11D8  92020004           [43] move       10  8      
11DC  62820001           [44] call       9   2   2  
11E0  58420000           [45] test       9       1    ; to [47] if false
11E4  1A800080           [46] jmp        3            ; to [50]
11E8  64424204           [47] self       9   8   265  ; -1923578185
11EC  D9020300           [48] loadk      11  12       ; "Show"
11F0  62428001           [49] call       9   3   1  
11F4  64424200           [50] self       9   0   265  ; -1923578185
11F8  D9420300           [51] loadk      11  13       ; "MaterialSwitch"
11FC  62428001           [52] call       9   3   1  
1200  1E008000           [53] return     0   1      
                         * constants:
1204  0E                 sizek (14)
1205  01                 const type 3
1206  29D4002C           const [0]: (738251817)
120A  04                 const type 4
120B  3F                 string size (63)
120C  2F4C6F7475732F54+  "/Lotus/T"
1214  797065732F4C6576+  "ypes/Lev"
121C  656C4F626A656374+  "elObject"
1224  732F4C6F636B6572+  "s/Locker"
122C  4174746163686D65+  "Attachme"
1234  6E74732F54686965+  "nts/Thie"
123C  6653637269707454+  "fScriptT"
1244  72696767657200     "rigger\0"
                         const [1]: "/Lotus/Types/LevelObjects/LockerAttachments/ThiefScriptTrigger"
124B  04                 const type 4
124C  46                 string size (70)
124D  2F4C6F7475732F54+  "/Lotus/T"
1255  797065732F4C6576+  "ypes/Lev"
125D  656C4F626A656374+  "elObject"
1265  732F4C6F636B6572+  "s/Locker"
126D  4174746163686D65+  "Attachme"
1275  6E74732F4C6F636B+  "nts/Lock"
127D  65725265706C6963+  "erReplic"
1285  6174656448697453+  "atedHitS"
128D  776974636800       "witch\0"
                         const [2]: "/Lotus/Types/LevelObjects/LockerAttachments/LockerReplicatedHitSwitch"
1293  04                 const type 4
1294  3F                 string size (63)
1295  2F4C6F7475732F54+  "/Lotus/T"
129D  797065732F4C6576+  "ypes/Lev"
12A5  656C4F626A656374+  "elObject"
12AD  732F4C6F636B6572+  "s/Locker"
12B5  4174746163686D65+  "Attachme"
12BD  6E74732F4C6F636B+  "nts/Lock"
12C5  65724F70656E4963+  "erOpenIc"
12CD  6F6E4465636F00     "onDeco\0"
                         const [3]: "/Lotus/Types/LevelObjects/LockerAttachments/LockerOpenIconDeco"
12D4  01                 const type 3
12D5  EEDAD415           const [4]: (366271214)
12D9  03                 const type 3
12DA  00000000           const [5]: (0)
12DE  03                 const type 3
12DF  0000803F           const [6]: (0)
12E3  01                 const type 3
12E4  65770E40           const [7]: (1074689893)
12E8  01                 const type 3
12E9  3F74C2D4           const [8]: (-725453761)
12ED  01                 const type 3
12EE  B786588D           const [9]: (-1923578185)
12F2  04                 const type 4
12F3  07                 string size (7)
12F4  456E61626C6500     "Enable\0"
                         const [10]: "Enable"
12FB  01                 const type 3
12FC  68C51D9F           const [11]: (-1625438872)
1300  04                 const type 4
1301  05                 string size (5)
1302  53686F7700         "Show\0"
                         const [12]: "Show"
1307  04                 const type 4
1308  0F                 string size (15)
1309  4D6174657269616C+  "Material"
1311  53776974636800     "Switch\0"
                         const [13]: "MaterialSwitch"
                         * functions:
1318  00                 sizep (0)
                         * lines:
1319  35                 sizelineinfo (53)
                         [pc] (line)
131A  CE                 [01] (-50)
131B  00                 [02] (-50)
131C  00                 [03] (-50)
131D  00                 [04] (-49)
131E  CE                 [05] (-49)
131F  00                 [06] (-49)
1320  00                 [07] (-48)
1321  00                 [08] (-48)
1322  CE                 [09] (-48)
1323  00                 [10] (-47)
1324  00                 [11] (-47)
1325  00                 [12] (-47)
1326  CF                 [13] (-46)
1327  00                 [14] (-46)
1328  00                 [15] (-46)
1329  00                 [16] (-45)
132A  CF                 [17] (-44)
132B  00                 [18] (-44)
132C  00                 [19] (-44)
132D  00                 [20] (-44)
132E  CF                 [21] (-44)
132F  00                 [22] (-43)
1330  00                 [23] (-43)
1331  00                 [24] (-39)
1332  D0                 [25] (-39)
1333  00                 [26] (-39)
1334  00                 [27] (-38)
1335  00                 [28] (-38)
1336  D0                 [29] (-38)
1337  00                 [30] (-37)
1338  00                 [31] (-36)
1339  00                 [32] (-36)
133A  D0                 [33] (-36)
133B  00                 [34] (-36)
133C  00                 [35] (-36)
133D  00                 [36] (-35)
133E  D1                 [37] (-35)
133F  00                 [38] (-35)
1340  00                 [39] (-31)
1341  00                 [40] (-31)
1342  D1                 [41] (-31)
1343  00                 [42] (-30)
1344  00                 [43] (-30)
1345  00                 [44] (-30)
1346  D1                 [45] (-30)
1347  00                 [46] (-30)
1348  00                 [47] (-29)
1349  00                 [48] (-29)
134A  D2                 [49] (-29)
134B  00                 [50] (-27)
134C  00                 [51] (-27)
134D  00                 [52] (-27)
134E  D2                 [53] (-26)
                         * locals:
13EE  00                 sizelocvars (0)
                         * upvalues:
13EF  00                 sizeupvalues (0)
                         ** end of function **

                         
13F0                     ** function [5] definition (level 2)
                         ** start of function **
13F0  00                 string size (0)
                         source name: (none)
13F2  01                 line defined (232)
13F3  F5                 last line defined (245)
13F4  01                 nups (0)
13F5  00                 numparams (0)
13F6  00                 is_vararg (0)
13F7  00                 maxstacksize (10)
                         * code:
13F9  26                 sizecode (38)
13FA  1D000000           [01] getglobal  0   0        ; gRegion
13FE  24404000           [02] self       0   0   257  ; -1485896174
1402  9D800000           [03] getglobal  2   2        ; -332969190
1406  D9C00000           [04] loadk      3   3        ; "ExitMarker"
140A  A2000001           [05] call       2   2   0  
140E  22800000           [06] call       0   0   2  
1412  5D000100           [07] getglobal  1   4        ; 1672515847
1416  92000000           [08] move       2   0      
141A  62000101           [09] call       1   2   4  
141E  1A800380           [10] jmp        15           ; to [26]
1422  A441C102           [11] self       6   5   261  ; 1927666530
1426  A2810001           [12] call       6   2   2  
142A  DD810100           [13] getglobal  7   6        ; 1074689893
142E  12020003           [14] move       8   6      
1432  E2810001           [15] call       7   2   2  
1436  D8410000           [16] test       7       1    ; to [18] if false
143A  1AC00180           [17] jmp        8            ; to [26]
143E  E4C14103           [18] self       7   6   263  ; -830264577
1442  E2810001           [19] call       7   2   2  
1446  1D820000           [20] getglobal  8   2        ; -332969190
144A  59020200           [21] loadk      9   8        ; "Exit"
144E  22820001           [22] call       8   2   2  
fail op	35
1452  23008203           [23] close      0  
1456  1A000080           [24] jmp        1            ; to [26]
145A  5E010001           [25] return     5   2      
145E  56800000           [26] tforloop   1       2    ; to [28] if exit
1462  1A80FB7F           [27] jmp        -17          ; to [11]
1466  DD810100           [28] getglobal  7   6        ; 1074689893
146A  12020000           [29] move       8   0      
146E  E2810001           [30] call       7   2   2  
1472  D8410000           [31] test       7       1    ; to [33] if false
1476  1A000180           [32] jmp        5            ; to [38]
147A  CA010000           [33] len        7   0      
fail op	21
147E  15C08184           [34] concat     0   265 7  
1482  1A400080           [35] jmp        2            ; to [38]
1486  CE814200           [36] gettable   7   0   266  ; 0
148A  DE010001           [37] return     7   2      
148E  1E008000           [38] return     0   1      
                         * constants:
1492  0B                 sizek (11)
1493  04                 const type 4
1494  08                 string size (8)
1495  67526567696F6E00   "gRegion\0"
                         const [0]: "gRegion"
149D  01                 const type 3
149E  12066FA7           const [1]: (-1485896174)
14A2  01                 const type 3
14A3  1A4B27EC           const [2]: (-332969190)
14A7  04                 const type 4
14A8  0B                 string size (11)
14A9  457869744D61726B+  "ExitMark"
14B1  657200             "er\0"
                         const [3]: "ExitMarker"
14B4  01                 const type 3
14B5  0791B063           const [4]: (1672515847)
14B9  01                 const type 3
14BA  62DBE572           const [5]: (1927666530)
14BE  01                 const type 3
14BF  65770E40           const [6]: (1074689893)
14C3  01                 const type 3
14C4  FF2A83CE           const [7]: (-830264577)
14C8  04                 const type 4
14C9  05                 string size (5)
14CA  4578697400         "Exit\0"
                         const [8]: "Exit"
14CF  03                 const type 3
14D0  00000000           const [9]: (0)
14D4  03                 const type 3
14D5  0000803F           const [10]: (0)
                         * functions:
14D9  00                 sizep (0)
                         * lines:
14DA  26                 sizelineinfo (38)
                         [pc] (line)
14DB  E9                 [01] (-23)
14DC  00                 [02] (-23)
14DD  00                 [03] (-23)
14DE  00                 [04] (-23)
14DF  E9                 [05] (-23)
14E0  00                 [06] (-23)
14E1  00                 [07] (-22)
14E2  00                 [08] (-22)
14E3  E9                 [09] (-22)
14E4  00                 [10] (-22)
14E5  00                 [11] (-21)
14E6  00                 [12] (-21)
14E7  E9                 [13] (-20)
14E8  00                 [14] (-20)
14E9  00                 [15] (-20)
14EA  00                 [16] (-20)
14EB  E9                 [17] (-20)
14EC  00                 [18] (-19)
14ED  00                 [19] (-19)
14EE  00                 [20] (-19)
14EF  E9                 [21] (-19)
14F0  00                 [22] (-19)
14F1  00                 [23] (-19)
14F2  00                 [24] (-19)
14F3  EA                 [25] (-18)
14F4  00                 [26] (-22)
14F5  00                 [27] (-16)
14F6  00                 [28] (-14)
14F7  EA                 [29] (-14)
14F8  00                 [30] (-14)
14F9  00                 [31] (-14)
14FA  00                 [32] (-14)
14FB  EA                 [33] (-14)
14FC  00                 [34] (-14)
14FD  00                 [35] (-14)
14FE  00                 [36] (-13)
14FF  EA                 [37] (-13)
1500  00                 [38] (-11)
                         * locals:
1573  00                 sizelocvars (0)
                         * upvalues:
1574  00                 sizeupvalues (0)
                         ** end of function **

                         
1575                     ** function [6] definition (level 2)
                         ** start of function **
1575  00                 string size (0)
                         source name: (none)
1577  01                 line defined (247)
1578  81                 last line defined (257)
1579  02                 nups (1)
157A  01                 numparams (0)
157B  00                 is_vararg (0)
157C  00                 maxstacksize (4)
                         * code:
157E  14                 sizecode (20)
157F  13000000           [01] getupval   0   0      
1583  22808000           [02] call       0   1   2  
1587  5D000000           [03] getglobal  1   0        ; 1074689893
158B  92000000           [04] move       2   0      
158F  62800001           [05] call       1   2   2  
1593  58400000           [06] test       1       1    ; to [8] if false
1597  1A400280           [07] jmp        10           ; to [18]
159B  64404000           [08] self       1   0   257  ; 1927666530
159F  62800001           [09] call       1   2   2  
15A3  9D000000           [10] getglobal  2   0        ; 1074689893
15A7  D2008000           [11] move       3   1      
15AB  A2800001           [12] call       2   2   2  
15AF  98400000           [13] test       2       1    ; to [15] if false
15B3  1A800080           [14] jmp        3            ; to [18]
15B7  A480C000           [15] self       2   1   258  ; -2104556066
15BB  A2800001           [16] call       2   2   2  
15BF  9E000001           [17] return     2   2      
15C3  D9C00000           [18] loadk      3   3        ; 0
15C7  DE000001           [19] return     3   2      
15CB  1E008000           [20] return     0   1      
                         * constants:
15CF  04                 sizek (4)
15D0  01                 const type 3
15D1  65770E40           const [0]: (1074689893)
15D5  01                 const type 3
15D6  62DBE572           const [1]: (1927666530)
15DA  01                 const type 3
15DB  DE058F82           const [2]: (-2104556066)
15DF  03                 const type 3
15E0  003C1C46           const [3]: (0)
                         * functions:
15E4  00                 sizep (0)
                         * lines:
15E5  14                 sizelineinfo (20)
                         [pc] (line)
15E6  F8                 [01] (-8)
15E7  00                 [02] (-8)
15E8  00                 [03] (-7)
15E9  00                 [04] (-7)
15EA  F8                 [05] (-7)
15EB  00                 [06] (-7)
15EC  00                 [07] (-7)
15ED  00                 [08] (-6)
15EE  F9                 [09] (-6)
15EF  00                 [10] (-5)
15F0  00                 [11] (-5)
15F1  00                 [12] (-5)
15F2  F9                 [13] (-5)
15F3  00                 [14] (-5)
15F4  00                 [15] (-4)
15F5  00                 [16] (-4)
15F6  F9                 [17] (-3)
15F7  00                 [18] (0)
15F8  00                 [19] (0)
15F9  00                 [20] (1)
                         * locals:
1636  00                 sizelocvars (0)
                         * upvalues:
1637  00                 sizeupvalues (0)
                         ** end of function **

                         
1638                     ** function [7] definition (level 2)
                         ** start of function **
1638  00                 string size (0)
                         source name: (none)
163A  02                 line defined (259)
163B  93                 last line defined (275)
163C  02                 nups (0)
163D  00                 numparams (1)
163E  01                 is_vararg (0)
163F  00                 maxstacksize (12)
                         * code:
1641  2C                 sizecode (44)
1642  59000000           [01] loadk      1   0        ; 0
1646  9D400000           [02] getglobal  2   1        ; gRegion
164A  A4804001           [03] self       2   2   258  ; 152279552
164E  1DC10000           [04] getglobal  4   3        ; gZoneAttribsType
1652  A2808001           [05] call       2   3   2  
1656  DD000100           [06] getglobal  3   4        ; 1672515847
165A  12010001           [07] move       4   2      
165E  E2000101           [08] call       3   2   4  
1662  1A800780           [09] jmp        31           ; to [41]
1666  2442C103           [10] self       8   7   261  ; 1927666530
166A  22820001           [11] call       8   2   2  
166E  5D820100           [12] getglobal  9   6        ; 1074689893
1672  92020004           [13] move       10  8      
1676  62820001           [14] call       9   2   2  
167A  58420000           [15] test       9       1    ; to [17] if false
167E  1AC00580           [16] jmp        24           ; to [41]
1682  64C24104           [17] self       9   8   263  ; -830264577
1686  62820001           [18] call       9   2   2  
168A  9D820100           [19] getglobal  10  6        ; 1074689893
168E  D2020000           [20] move       11  0      
1692  A2820001           [21] call       10  2   2  
1696  98420000           [22] test       10      1    ; to [24] if false
169A  1A400080           [23] jmp        2            ; to [26]
fail op	35
169E  23008004           [24] close      0  
16A2  1A800380           [25] jmp        15           ; to [41]
16A6  A402C203           [26] self       10  7   264  ; 387413239
16AA  A2820001           [27] call       10  2   2  
16AE  98420000           [28] test       10      1    ; to [30] if false
16B2  1A800280           [29] jmp        11           ; to [41]
16B6  A442C203           [30] self       10  7   265  ; -164607448
16BA  A2820001           [31] call       10  2   2  
16BE  A4824205           [32] self       10  10  266  ; 1590141906
16C2  A2820001           [33] call       10  2   2  
fail op	35
16C6  63C04205           [34] close      1  
16CA  1A000180           [35] jmp        5            ; to [41]
16CE  A4024304           [36] self       10  8   268  ; -2104556066
16D2  A2820001           [37] call       10  2   2  
fail op	21
16D6  15808200           [38] concat     0   1   10 
16DA  1A000080           [39] jmp        1            ; to [41]
16DE  52000005           [40] move       1   10     
16E2  D6800000           [41] tforloop   3       2    ; to [43] if exit
16E6  1A80F77F           [42] jmp        -33          ; to [10]
16EA  5E000001           [43] return     1   2      
16EE  1E008000           [44] return     0   1      
                         * constants:
16F2  0D                 sizek (13)
16F3  03                 const type 3
16F4  00000000           const [0]: (0)
16F8  04                 const type 4
16F9  08                 string size (8)
16FA  67526567696F6E00   "gRegion\0"
                         const [1]: "gRegion"
1702  01                 const type 3
1703  009A1309           const [2]: (152279552)
1707  04                 const type 4
1708  11                 string size (17)
1709  675A6F6E65417474+  "gZoneAtt"
1711  7269627354797065+  "ribsType"
1719  00                 "\0"
                         const [3]: "gZoneAttribsType"
171A  01                 const type 3
171B  0791B063           const [4]: (1672515847)
171F  01                 const type 3
1720  62DBE572           const [5]: (1927666530)
1724  01                 const type 3
1725  65770E40           const [6]: (1074689893)
1729  01                 const type 3
172A  FF2A83CE           const [7]: (-830264577)
172E  01                 const type 3
172F  F7741717           const [8]: (387413239)
1733  01                 const type 3
1734  284A30F6           const [9]: (-164607448)
1738  01                 const type 3
1739  D2A3C75E           const [10]: (1590141906)
173D  04                 const type 4
173E  06                 string size (6)
173F  466C79496E00       "FlyIn\0"
                         const [11]: "FlyIn"
1745  01                 const type 3
1746  DE058F82           const [12]: (-2104556066)
                         * functions:
174A  00                 sizep (0)
                         * lines:
174B  2C                 sizelineinfo (44)
                         [pc] (line)
174C  04                 [01] (4)
174D  01                 [02] (5)
174E  00                 [03] (5)
174F  00                 [04] (5)
1750  05                 [05] (5)
1751  01                 [06] (6)
1752  00                 [07] (6)
1753  00                 [08] (6)
1754  05                 [09] (6)
1755  01                 [10] (7)
1756  00                 [11] (7)
1757  00                 [12] (8)
1758  05                 [13] (8)
1759  01                 [14] (8)
175A  00                 [15] (8)
175B  00                 [16] (8)
175C  05                 [17] (9)
175D  01                 [18] (9)
175E  00                 [19] (10)
175F  00                 [20] (10)
1760  06                 [21] (10)
1761  01                 [22] (10)
1762  00                 [23] (10)
1763  00                 [24] (10)
1764  06                 [25] (10)
1765  01                 [26] (10)
1766  00                 [27] (10)
1767  00                 [28] (10)
1768  06                 [29] (10)
1769  01                 [30] (10)
176A  00                 [31] (10)
176B  00                 [32] (10)
176C  06                 [33] (10)
176D  01                 [34] (10)
176E  00                 [35] (10)
176F  00                 [36] (11)
1770  07                 [37] (11)
1771  01                 [38] (12)
1772  00                 [39] (12)
1773  00                 [40] (13)
1774  07                 [41] (6)
1775  01                 [42] (16)
1776  00                 [43] (18)
1777  00                 [44] (19)
                         * locals:
17FC  00                 sizelocvars (0)
                         * upvalues:
17FD  00                 sizeupvalues (0)
                         ** end of function **

                         
17FE                     ** function [8] definition (level 2)
                         ** start of function **
17FE  00                 string size (0)
                         source name: (none)
1800  02                 line defined (277)
1801  A0                 last line defined (416)
1802  03                 nups (3)
1803  03                 numparams (0)
1804  00                 is_vararg (0)
1805  00                 maxstacksize (71)
                         * code:
1808  02                 sizecode (313)
1809  1D000000           [001] getglobal  0   0        ; gPromotedToHost
180D  18400000           [002] test       0       1    ; to [4] if false
1811  1A004D80           [003] jmp        309          ; to [313]
1815  1D400000           [004] getglobal  0   1        ; gRegion
1819  24804000           [005] self       0   0   258  ; -1485896174
181D  9DC00000           [006] getglobal  2   3        ; -332969190
1821  D9000100           [007] loadk      3   4        ; "Locker"
1825  A2000001           [008] call       2   2   0  
1829  22800000           [009] call       0   0   2  
182D  5D400000           [010] getglobal  1   1        ; gRegion
1831  6480C000           [011] self       1   1   258  ; -1485896174
1835  DDC00000           [012] getglobal  3   3        ; -332969190
1839  19410100           [013] loadk      4   5        ; "OpenLocker"
183D  E2000001           [014] call       3   2   0  
1841  62800000           [015] call       1   0   2  
1845  9D800100           [016] getglobal  2   6        ; 1672515847
1849  D2008000           [017] move       3   1      
184D  A2000101           [018] call       2   2   4  
1851  1A800080           [019] jmp        3            ; to [23]
1855  D3010000           [020] getupval   7   0      
1859  12020003           [021] move       8   6      
185D  E2410001           [022] call       7   2   1  
1861  96800000           [023] tforloop   2       2    ; to [25] if exit
1865  1A80FE7F           [024] jmp        -5           ; to [20]
1869  DDC10100           [025] getglobal  7   7        ; 1074689893
186D  12020000           [026] move       8   0      
1871  E2810001           [027] call       7   2   2  
1875  D8410000           [028] test       7       1    ; to [30] if false
1879  1A800080           [029] jmp        3            ; to [33]
187D  CA010000           [030] len        7   0      
fail op	35
1881  2300C203           [031] close      0  
1885  1A000080           [032] jmp        1            ; to [34]
1889  1E008000           [033] return     0   1      
188D  D9410200           [034] loadk      7   9        ; 0
1891  19820200           [035] loadk      8   10       ; -102
1895  59C20200           [036] loadk      9   11       ; -51
1899  99020300           [037] loadk      10  12       ; -102
189D  D9420300           [038] loadk      11  13       ; 102
18A1  0B038002           [039] newtable   12  5   0    ; array=5, hash=0
18A5  52038003           [040] move       13  7      
18A9  92030004           [041] move       14  8      
18AD  D2038004           [042] move       15  9      
18B1  12040005           [043] move       16  10     
18B5  52048005           [044] move       17  11     
18B9  1B438002           [045] setlist    12  5   1    ; index 1 to 5
18BD  53038000           [046] getupval   13  1      
18C1  62838000           [047] call       13  1   2  
18C5  93030001           [048] getupval   14  2      
18C9  A2838000           [049] call       14  1   2  
18CD  D7030000           [050] loadbool   15  0   0    ; false
18D1  19840300           [051] loadk      16  14       ; 0
18D5  4B040000           [052] newtable   17  0   0    ; array=0, hash=0
18D9  9D440000           [053] getglobal  18  1        ; gRegion
18DD  A4C44309           [054] self       18  18  271  ; 152279552
18E1  1D050400           [055] getglobal  20  16       ; 738251817
18E5  59450400           [056] loadk      21  17       ; "/Lotus/Types/Gameplay/SecretAreaVolume"
18E9  22050001           [057] call       20  2   0  
18ED  A2840000           [058] call       18  0   2  
18F1  DD840100           [059] getglobal  19  6        ; 1672515847
18F5  12050009           [060] move       20  18     
18F9  E2040101           [061] call       19  2   4  
18FD  1A800680           [062] jmp        27           ; to [90]
1901  2486C40B           [063] self       24  23  274  ; 1927666530
1905  22860001           [064] call       24  2   2  
1909  5DC60100           [065] getglobal  25  7        ; 1074689893
190D  9206000C           [066] move       26  24     
1911  62860001           [067] call       25  2   2  
1915  58460000           [068] test       25      1    ; to [70] if false
1919  1AC00480           [069] jmp        20           ; to [90]
191D  64C6440C           [070] self       25  24  275  ; -2104556066
1921  62860001           [071] call       25  2   2  
1925  9DC60100           [072] getglobal  26  7        ; 1074689893
1929  CE468608           [073] gettable   27  17  25 
192D  A2860001           [074] call       26  2   2  
1931  98060000           [075] test       26      0    ; to [77] if true
1935  1A800180           [076] jmp        7            ; to [84]
1939  8BC60000           [077] newtable   26  0   3    ; array=0, hash=3
193D  8C06428A           [078] settable   26  276 264  ; "tileType" 0
1941  CB060000           [079] newtable   27  0   0    ; array=0, hash=0
1945  8CC6868A           [080] settable   26  277 27   ; "lockers"
1949  CB060000           [081] newtable   27  0   0    ; array=0, hash=0
194D  8CC6068B           [082] settable   26  278 27   ; "secretVolumes"
1951  4C84860C           [083] settable   17  25  26 
1955  9DC60500           [084] getglobal  26  23       ; table
1959  8E06460D           [085] gettable   26  26  280  ; -431682403
195D  CE468608           [086] gettable   27  17  25 
1961  CE86C50D           [087] gettable   27  27  278  ; "secretVolumes"
1965  1207800B           [088] move       28  23     
1969  A2468001           [089] call       26  3   1  
196D  D6840000           [090] tforloop   19      2    ; to [92] if exit
1971  1A80F87F           [091] jmp        -29          ; to [63]
1975  8B060002           [092] newtable   26  4   0    ; array=4, hash=0
1979  D9060200           [093] loadk      27  8        ; 0
197D  19070200           [094] loadk      28  8        ; 0
1981  59070200           [095] loadk      29  8        ; 0
1985  99070200           [096] loadk      30  8        ; 0
1989  9B460002           [097] setlist    26  4   1    ; index 1 to 4
198D  DD860100           [098] getglobal  27  6        ; 1672515847
1991  12070000           [099] move       28  0      
1995  E2060101           [100] call       27  2   4  
1999  1A001A80           [101] jmp        105          ; to [207]
199D  2488C40F           [102] self       32  31  274  ; 1927666530
19A1  22880001           [103] call       32  2   2  
19A5  5DC80100           [104] getglobal  33  7        ; 1074689893
19A9  92080010           [105] move       34  32     
19AD  62880001           [106] call       33  2   2  
19B1  58480000           [107] test       33      1    ; to [109] if false
19B5  1A401880           [108] jmp        98           ; to [207]
19B9  64C84410           [109] self       33  32  275  ; -2104556066
19BD  62880001           [110] call       33  2   2  
19C1  9DC80100           [111] getglobal  34  7        ; 1074689893
19C5  CE488808           [112] gettable   35  17  33 
19C9  A2880001           [113] call       34  2   2  
19CD  98080000           [114] test       34      0    ; to [116] if true
19D1  1A800180           [115] jmp        7            ; to [123]
19D5  8BC80000           [116] newtable   34  0   3    ; array=0, hash=3
19D9  8C08428A           [117] settable   34  276 264  ; "tileType" 0
19DD  CB080000           [118] newtable   35  0   0    ; array=0, hash=0
19E1  8CC8888A           [119] settable   34  277 35   ; "lockers"
19E5  CB080000           [120] newtable   35  0   0    ; array=0, hash=0
19E9  8CC8088B           [121] settable   34  278 35   ; "secretVolumes"
19ED  4C848810           [122] settable   17  33  34 
19F1  97080000           [123] loadbool   34  0   0    ; false
19F5  DD880100           [124] getglobal  35  6        ; 1672515847
19F9  0E498808           [125] gettable   36  17  33 
19FD  0E894512           [126] gettable   36  36  278  ; "secretVolumes"
1A01  E2080101           [127] call       35  2   4  
1A05  1AC00180           [128] jmp        8            ; to [137]
1A09  244AC613           [129] self       40  39  281  ; -1240989920
1A0D  A48AC60F           [130] self       42  31  282  ; 1839670529
1A11  A20A0001           [131] call       42  2   0  
1A15  228A0000           [132] call       40  0   2  
1A19  180A0000           [133] test       40      0    ; to [135] if true
1A1D  1A400080           [134] jmp        2            ; to [137]
1A21  97088000           [135] loadbool   34  1   0    ; true
1A25  1A400080           [136] jmp        2            ; to [139]
1A29  D6880000           [137] tforloop   35      2    ; to [139] if exit
1A2D  1A40FD7F           [138] jmp        -10          ; to [129]
1A31  98080000           [139] test       34      0    ; to [141] if true
1A35  1A400480           [140] jmp        18           ; to [159]
1A39  034A0808           [141] add        40  16  33 
1A3D  5DCA0100           [142] getglobal  41  7        ; 1074689893
1A41  8E0A8A08           [143] gettable   42  17  40 
1A45  628A0001           [144] call       41  2   2  
1A49  580A0000           [145] test       41      0    ; to [147] if true
1A4D  1A000180           [146] jmp        5            ; to [152]
1A51  4B8A0000           [147] newtable   41  0   2    ; array=0, hash=2
1A55  4CCA468A           [148] settable   41  276 283  ; "tileType" 0
1A59  8B0A0000           [149] newtable   42  0   0    ; array=0, hash=0
1A5D  4C8A8A8A           [150] settable   41  277 42   ; "lockers"
1A61  4C440A14           [151] settable   17  40  41 
1A65  5DCA0500           [152] getglobal  41  23       ; table
1A69  4E0AC614           [153] gettable   41  41  280  ; -431682403
1A6D  8E0A8A08           [154] gettable   42  17  40 
1A71  8E4A4515           [155] gettable   42  42  277  ; "lockers"
1A75  D20A800F           [156] move       43  31     
1A79  624A8001           [157] call       41  3   1  
1A7D  1A400180           [158] jmp        6            ; to [165]
1A81  5DCA0500           [159] getglobal  41  23       ; table
1A85  4E0AC614           [160] gettable   41  41  280  ; -431682403
1A89  8E4A8808           [161] gettable   42  17  33 
1A8D  8E4A4515           [162] gettable   42  42  277  ; "lockers"
1A91  D20A800F           [163] move       43  31     
1A95  624A8001           [164] call       41  3   1  
1A99  4E4A8808           [165] gettable   41  17  33 
1A9D  4E0AC514           [166] gettable   41  41  276  ; "tileType"
fail op	35
1AA1  2300C214           [167] close      0  
1AA5  1A400980           [168] jmp        38           ; to [207]
1AA9  A40A4710           [169] self       42  32  284  ; -830264577
1AAD  A28A0001           [170] call       42  2   2  
1AB1  DDCA0000           [171] getglobal  43  3        ; -332969190
1AB5  194B0700           [172] loadk      44  29       ; "Dead-End"
1AB9  E28A0001           [173] call       43  2   2  
fail op	35
1ABD  23C00A15           [174] close      0  
1AC1  1A400080           [175] jmp        2            ; to [178]
1AC5  598A0700           [176] loadk      41  30       ; 0
1AC9  1AC00580           [177] jmp        24           ; to [202]
fail op	21
1ACD  15408806           [178] concat     0   13  33 
1AD1  1A400080           [179] jmp        2            ; to [182]
1AD5  59CA0700           [180] loadk      41  31       ; 0
1AD9  1AC00480           [181] jmp        20           ; to [202]
1ADD  DDCA0000           [182] getglobal  43  3        ; -332969190
1AE1  190B0800           [183] loadk      44  32       ; "Intermediate"
1AE5  E28A0001           [184] call       43  2   2  
fail op	35
1AE9  63C00A15           [185] close      1  
1AED  1A400280           [186] jmp        10           ; to [197]
1AF1  DDCA0000           [187] getglobal  43  3        ; -332969190
1AF5  194B0800           [188] loadk      44  33       ; "Boss"
1AF9  E28A0001           [189] call       43  2   2  
fail op	35
1AFD  63C00A15           [190] close      1  
1B01  1A000180           [191] jmp        5            ; to [197]
1B05  DDCA0000           [192] getglobal  43  3        ; -332969190
1B09  198B0800           [193] loadk      44  34       ; "Objective"
1B0D  E28A0001           [194] call       43  2   2  
fail op	35
1B11  23C00A15           [195] close      0  
1B15  1A400080           [196] jmp        2            ; to [199]
1B19  59CA0800           [197] loadk      41  35       ; 0
1B1D  1A800080           [198] jmp        3            ; to [202]
fail op	33
1B21  21408310           [199] tforloop   0       13   ; to [201] if exit
1B25  1A000080           [200] jmp        1            ; to [202]
1B29  590A0900           [201] loadk      41  36       ; 0
1B2D  CE4A8808           [202] gettable   43  17  33 
1B31  CC4A0A8A           [203] settable   43  276 41   ; "tileType"
1B35  CE4A0A0D           [204] gettable   43  26  41 
1B39  C30AC915           [205] add        43  43  292  ; 0
1B3D  8CC68A14           [206] settable   26  41  43 
1B41  D6860000           [207] tforloop   27      2    ; to [209] if exit
1B45  1A00E57F           [208] jmp        -107         ; to [102]
1B49  D20A8008           [209] move       43  17     
1B4D  0B0B0000           [210] newtable   44  0   0    ; array=0, hash=0
1B51  52040016           [211] move       17  44     
1B55  190B0900           [212] loadk      44  36       ; 0
1B59  430B0407           [213] add        45  14  16 
1B5D  990B0900           [214] loadk      46  36       ; 0
1B61  104B0280           [215] forprep    44  10       ; to [226]
1B65  1DCC0100           [216] getglobal  48  7        ; 1074689893
1B69  4ECC8B15           [217] gettable   49  43  47 
1B6D  228C0001           [218] call       48  2   2  
1B71  184C0000           [219] test       48      1    ; to [221] if false
1B75  1A000180           [220] jmp        5            ; to [226]
1B79  1DCC0500           [221] getglobal  48  23       ; table
1B7D  0E0C4618           [222] gettable   48  48  280  ; -431682403
1B81  520C8008           [223] move       49  17     
1B85  8ECC8B15           [224] gettable   50  43  47 
1B89  224C8001           [225] call       48  3   1  
1B8D  140BFD7F           [226] forloop    44  -11      ; to [216] if loop
1B91  194C0900           [227] loadk      48  37       ; "Lockers: "
1B95  4B0C0000           [228] newtable   49  0   0    ; array=0, hash=0
1B99  8A0C8008           [229] len        50  17     
1B9D  D90C0900           [230] loadk      51  36       ; 0
1BA1  198D0900           [231] loadk      52  38       ; 0
1BA5  900C1080           [232] forprep    50  65       ; to [298]
1BA9  990D0200           [233] loadk      54  8        ; 0
1BAD  CE4D8D08           [234] gettable   55  17  53 
1BB1  CE4DC51B           [235] gettable   55  55  277  ; "lockers"
1BB5  CA0D801B           [236] len        55  55     
1BB9  0E4E8D08           [237] gettable   56  17  53 
1BBD  0E0E451C           [238] gettable   56  56  276  ; "tileType"
1BC1  5DCE0100           [239] getglobal  57  7        ; 1074689893
1BC5  8E4E8D08           [240] gettable   58  17  53 
1BC9  628E0001           [241] call       57  2   2  
1BCD  584E0000           [242] test       57      1    ; to [244] if false
1BD1  1A000B80           [243] jmp        45           ; to [289]
1BD5  4E4E8D08           [244] gettable   57  17  53 
1BD9  4E4EC51C           [245] gettable   57  57  277  ; "lockers"
1BDD  4A0E801C           [246] len        57  57     
fail op	21
1BE1  15400E84           [247] concat     0   264 57 
1BE5  1AC00980           [248] jmp        40           ; to [289]
fail op	21
1BE9  15000E84           [249] concat     0   264 56 
1BED  1A000880           [250] jmp        33           ; to [284]
1BF1  5DCE0900           [251] getglobal  57  39       ; math
1BF5  4E0ECA1C           [252] gettable   57  57  296  ; -1124579617
1BF9  8E4E8D08           [253] gettable   58  17  53 
1BFD  8E4E451D           [254] gettable   58  58  277  ; "lockers"
1C01  8A0E001D           [255] len        58  58     
1C05  CE0E0E06           [256] gettable   59  12  56 
1C09  84CE0E1D           [257] mul        58  58  59 
1C0D  628E0001           [258] call       57  2   2  
1C11  990E0900           [259] loadk      58  36       ; 0
1C15  D20E801C           [260] move       59  57     
1C19  190F0900           [261] loadk      60  36       ; 0
1C1D  90CE0480           [262] forprep    58  20       ; to [283]
1C21  9D4F0A00           [263] getglobal  62  41       ; 2144646525
1C25  D90F0900           [264] loadk      63  36       ; 0
1C29  0E508D08           [265] gettable   64  17  53 
1C2D  0E504520           [266] gettable   64  64  277  ; "lockers"
1C31  0A100020           [267] len        64  64     
1C35  A28F8001           [268] call       62  3   2  
1C39  DDCF0500           [269] getglobal  63  23       ; table
1C3D  CE0FC61F           [270] gettable   63  63  280  ; -431682403
1C41  12108018           [271] move       64  49     
1C45  4E508D08           [272] gettable   65  17  53 
1C49  4E50C520           [273] gettable   65  65  277  ; "lockers"
1C4D  4E908F20           [274] gettable   65  65  62 
1C51  E24F8001           [275] call       63  3   1  
1C55  DDCF0500           [276] getglobal  63  23       ; table
1C59  CE8FCA1F           [277] gettable   63  63  298  ; -843973282
1C5D  0E508D08           [278] gettable   64  17  53 
1C61  0E504520           [279] gettable   64  64  277  ; "lockers"
1C65  5210001F           [280] move       65  62     
1C69  E24F8001           [281] call       63  3   1  
1C6D  830D491B           [282] add        54  54  292  ; 0
1C71  948EFA7F           [283] forloop    58  -21      ; to [263] if loop
1C75  DDCF0500           [284] getglobal  63  23       ; table
1C79  CE8FCA1F           [285] gettable   63  63  298  ; -843973282
1C7D  12108008           [286] move       64  17     
1C81  5210801A           [287] move       65  53     
1C85  E24F8001           [288] call       63  3   1  
1C89  D20F0018           [289] move       63  48     
1C8D  19D00A00           [290] loadk      64  43       ; "["
1C91  5210001B           [291] move       65  54     
1C95  99100B00           [292] loadk      66  44       ; "/"
1C99  D210801B           [293] move       67  55     
1C9D  19510B00           [294] loadk      68  45       ; " in "
1CA1  5211001C           [295] move       69  56     
1CA5  99910B00           [296] loadk      70  46       ; "] "
1CA9  028C911F           [297] concat     48  63  70 
1CAD  944CEF7F           [298] forloop    50  -66      ; to [233] if loop
1CB1  D8030000           [299] test       15      0    ; to [301] if true
1CB5  1A800080           [300] jmp        3            ; to [304]
1CB9  DDCF0B00           [301] getglobal  63  47       ; -1817107093
1CBD  12100018           [302] move       64  48     
1CC1  E24F0001           [303] call       63  2   1  
1CC5  DD8F0100           [304] getglobal  63  6        ; 1672515847
1CC9  12108018           [305] move       64  49     
1CCD  E20F0101           [306] call       63  2   4  
1CD1  1A800080           [307] jmp        3            ; to [311]
1CD5  13110000           [308] getupval   68  0      
1CD9  52118021           [309] move       69  67     
1CDD  22510001           [310] call       68  2   1  
1CE1  D68F0000           [311] tforloop   63      2    ; to [313] if exit
1CE5  1A80FE7F           [312] jmp        -5           ; to [308]
1CE9  1E008000           [313] return     0   1      
                         * constants:
1CED  30                 sizek (48)
1CEE  04                 const type 4
1CEF  10                 string size (16)
1CF0  6750726F6D6F7465+  "gPromote"
1CF8  64546F486F737400   "dToHost\0"
                         const [0]: "gPromotedToHost"
1D00  04                 const type 4
1D01  08                 string size (8)
1D02  67526567696F6E00   "gRegion\0"
                         const [1]: "gRegion"
1D0A  01                 const type 3
1D0B  12066FA7           const [2]: (-1485896174)
1D0F  01                 const type 3
1D10  1A4B27EC           const [3]: (-332969190)
1D14  04                 const type 4
1D15  07                 string size (7)
1D16  4C6F636B657200     "Locker\0"
                         const [4]: "Locker"
1D1D  04                 const type 4
1D1E  0B                 string size (11)
1D1F  4F70656E4C6F636B+  "OpenLock"
1D27  657200             "er\0"
                         const [5]: "OpenLocker"
1D2A  01                 const type 3
1D2B  0791B063           const [6]: (1672515847)
1D2F  01                 const type 3
1D30  65770E40           const [7]: (1074689893)
1D34  03                 const type 3
1D35  00000000           const [8]: (0)
1D39  03                 const type 3
1D3A  0000803E           const [9]: (0)
1D3E  03                 const type 3
1D3F  9A99993E           const [10]: (-102)
1D43  03                 const type 3
1D44  CDCCCC3E           const [11]: (-51)
1D48  03                 const type 3
1D49  9A99193F           const [12]: (-102)
1D4D  03                 const type 3
1D4E  6666E63E           const [13]: (102)
1D52  03                 const type 3
1D53  0000C842           const [14]: (0)
1D57  01                 const type 3
1D58  009A1309           const [15]: (152279552)
1D5C  01                 const type 3
1D5D  29D4002C           const [16]: (738251817)
1D61  04                 const type 4
1D62  27                 string size (39)
1D63  2F4C6F7475732F54+  "/Lotus/T"
1D6B  797065732F47616D+  "ypes/Gam"
1D73  65706C61792F5365+  "eplay/Se"
1D7B  6372657441726561+  "cretArea"
1D83  566F6C756D6500     "Volume\0"
                         const [17]: "/Lotus/Types/Gameplay/SecretAreaVolume"
1D8A  01                 const type 3
1D8B  62DBE572           const [18]: (1927666530)
1D8F  01                 const type 3
1D90  DE058F82           const [19]: (-2104556066)
1D94  04                 const type 4
1D95  09                 string size (9)
1D96  74696C6554797065+  "tileType"
1D9E  00                 "\0"
                         const [20]: "tileType"
1D9F  04                 const type 4
1DA0  08                 string size (8)
1DA1  6C6F636B65727300   "lockers\0"
                         const [21]: "lockers"
1DA9  04                 const type 4
1DAA  0E                 string size (14)
1DAB  736563726574566F+  "secretVo"
1DB3  6C756D657300       "lumes\0"
                         const [22]: "secretVolumes"
1DB9  04                 const type 4
1DBA  06                 string size (6)
1DBB  7461626C6500       "table\0"
                         const [23]: "table"
1DC1  01                 const type 3
1DC2  9D0C45E6           const [24]: (-431682403)
1DC6  01                 const type 3
1DC7  20FF07B6           const [25]: (-1240989920)
1DCB  01                 const type 3
1DCC  0125A76D           const [26]: (1839670529)
1DD0  03                 const type 3
1DD1  0000A040           const [27]: (0)
1DD5  01                 const type 3
1DD6  FF2A83CE           const [28]: (-830264577)
1DDA  04                 const type 4
1DDB  09                 string size (9)
1DDC  446561642D456E64+  "Dead-End"
1DE4  00                 "\0"
                         const [29]: "Dead-End"
1DE5  03                 const type 3
1DE6  00008040           const [30]: (0)
1DEA  03                 const type 3
1DEB  00004040           const [31]: (0)
1DEF  04                 const type 4
1DF0  0D                 string size (13)
1DF1  496E7465726D6564+  "Intermed"
1DF9  6961746500         "iate\0"
                         const [32]: "Intermediate"
1DFE  04                 const type 4
1DFF  05                 string size (5)
1E00  426F737300         "Boss\0"
                         const [33]: "Boss"
1E05  04                 const type 4
1E06  0A                 string size (10)
1E07  4F626A6563746976+  "Objectiv"
1E0F  6500               "e\0"
                         const [34]: "Objective"
1E11  03                 const type 3
1E12  00000040           const [35]: (0)
1E16  03                 const type 3
1E17  0000803F           const [36]: (0)
1E1B  04                 const type 4
1E1C  0A                 string size (10)
1E1D  4C6F636B6572733A+  "Lockers:"
1E25  2000               " \0"
                         const [37]: "Lockers: "
1E27  03                 const type 3
1E28  000080BF           const [38]: (0)
1E2C  04                 const type 4
1E2D  05                 string size (5)
1E2E  6D61746800         "math\0"
                         const [39]: "math"
1E33  01                 const type 3
1E34  DF46F8BC           const [40]: (-1124579617)
1E38  01                 const type 3
1E39  7DB5D47F           const [41]: (2144646525)
1E3D  01                 const type 3
1E3E  5EFDB1CD           const [42]: (-843973282)
1E42  04                 const type 4
1E43  02                 string size (2)
1E44  5B00               "[\0"
                         const [43]: "["
1E46  04                 const type 4
1E47  02                 string size (2)
1E48  2F00               "/\0"
                         const [44]: "/"
1E4A  04                 const type 4
1E4B  05                 string size (5)
1E4C  20696E2000         " in \0"
                         const [45]: " in "
1E51  04                 const type 4
1E52  03                 string size (3)
1E53  5D2000             "] \0"
                         const [46]: "] "
1E56  01                 const type 3
1E57  6B25B193           const [47]: (-1817107093)
                         * functions:
1E5B  00                 sizep (0)
                         * lines:
1E5D  02                 sizelineinfo (313)
                         [pc] (line)
1E5E  16                 [001] (22)
1E5F  01                 [002] (22)
1E60  00                 [003] (22)
1E61  00                 [004] (23)
1E62  16                 [005] (23)
1E63  01                 [006] (23)
1E64  00                 [007] (23)
1E65  00                 [008] (23)
1E66  16                 [009] (23)
1E67  01                 [010] (26)
1E68  00                 [011] (26)
1E69  00                 [012] (26)
1E6A  17                 [013] (26)
1E6B  01                 [014] (26)
1E6C  00                 [015] (26)
1E6D  00                 [016] (27)
1E6E  17                 [017] (27)
1E6F  01                 [018] (27)
1E70  00                 [019] (27)
1E71  00                 [020] (28)
1E72  17                 [021] (28)
1E73  01                 [022] (28)
1E74  00                 [023] (27)
1E75  00                 [024] (28)
1E76  17                 [025] (31)
1E77  01                 [026] (31)
1E78  00                 [027] (31)
1E79  00                 [028] (31)
1E7A  17                 [029] (31)
1E7B  01                 [030] (31)
1E7C  00                 [031] (31)
1E7D  00                 [032] (31)
1E7E  17                 [033] (32)
1E7F  01                 [034] (36)
1E80  00                 [035] (37)
1E81  00                 [036] (38)
1E82  1A                 [037] (39)
1E83  01                 [038] (40)
1E84  00                 [039] (41)
1E85  00                 [040] (41)
1E86  1A                 [041] (41)
1E87  01                 [042] (41)
1E88  00                 [043] (41)
1E89  00                 [044] (41)
1E8A  1A                 [045] (41)
1E8B  01                 [046] (48)
1E8C  00                 [047] (48)
1E8D  00                 [048] (49)
1E8E  1A                 [049] (49)
1E8F  01                 [050] (50)
1E90  00                 [051] (51)
1E91  00                 [052] (52)
1E92  1A                 [053] (58)
1E93  01                 [054] (58)
1E94  00                 [055] (58)
1E95  00                 [056] (58)
1E96  1A                 [057] (58)
1E97  01                 [058] (58)
1E98  00                 [059] (59)
1E99  00                 [060] (59)
1E9A  1B                 [061] (59)
1E9B  01                 [062] (59)
1E9C  00                 [063] (60)
1E9D  00                 [064] (60)
1E9E  1B                 [065] (61)
1E9F  01                 [066] (61)
1EA0  00                 [067] (61)
1EA1  00                 [068] (61)
1EA2  1B                 [069] (61)
1EA3  01                 [070] (62)
1EA4  00                 [071] (62)
1EA5  00                 [072] (63)
1EA6  1B                 [073] (63)
1EA7  01                 [074] (63)
1EA8  00                 [075] (63)
1EA9  00                 [076] (63)
1EAA  1C                 [077] (64)
1EAB  01                 [078] (64)
1EAC  00                 [079] (64)
1EAD  00                 [080] (64)
1EAE  1C                 [081] (64)
1EAF  01                 [082] (64)
1EB0  00                 [083] (64)
1EB1  00                 [084] (66)
1EB2  1C                 [085] (66)
1EB3  01                 [086] (66)
1EB4  00                 [087] (66)
1EB5  00                 [088] (66)
1EB6  1B                 [089] (66)
1EB7  01                 [090] (59)
1EB8  00                 [091] (67)
1EB9  00                 [092] (71)
1EBA  1C                 [093] (71)
1EBB  01                 [094] (71)
1EBC  00                 [095] (71)
1EBD  00                 [096] (71)
1EBE  1F                 [097] (71)
1EBF  01                 [098] (72)
1EC0  00                 [099] (72)
1EC1  00                 [100] (72)
1EC2  1F                 [101] (72)
1EC3  01                 [102] (73)
1EC4  00                 [103] (73)
1EC5  00                 [104] (74)
1EC6  1F                 [105] (74)
1EC7  01                 [106] (74)
1EC8  00                 [107] (74)
1EC9  00                 [108] (74)
1ECA  1F                 [109] (76)
1ECB  01                 [110] (76)
1ECC  00                 [111] (77)
1ECD  00                 [112] (77)
1ECE  1F                 [113] (77)
1ECF  01                 [114] (77)
1ED0  00                 [115] (77)
1ED1  00                 [116] (78)
1ED2  1F                 [117] (78)
1ED3  01                 [118] (78)
1ED4  00                 [119] (78)
1ED5  00                 [120] (78)
1ED6  1F                 [121] (78)
1ED7  01                 [122] (78)
1ED8  00                 [123] (82)
1ED9  00                 [124] (83)
1EDA  1F                 [125] (83)
1EDB  01                 [126] (83)
1EDC  00                 [127] (83)
1EDD  00                 [128] (83)
1EDE  20                 [129] (84)
1EDF  01                 [130] (84)
1EE0  00                 [131] (84)
1EE1  00                 [132] (84)
1EE2  24                 [133] (84)
1EE3  01                 [134] (84)
1EE4  00                 [135] (85)
1EE5  00                 [136] (86)
1EE6  25                 [137] (83)
1EE7  01                 [138] (87)
1EE8  00                 [139] (90)
1EE9  00                 [140] (90)
1EEA  26                 [141] (91)
1EEB  01                 [142] (92)
1EEC  00                 [143] (92)
1EED  00                 [144] (92)
1EEE  27                 [145] (92)
1EEF  01                 [146] (92)
1EF0  00                 [147] (93)
1EF1  00                 [148] (93)
1EF2  28                 [149] (93)
1EF3  01                 [150] (93)
1EF4  00                 [151] (93)
1EF5  00                 [152] (95)
1EF6  29                 [153] (95)
1EF7  01                 [154] (95)
1EF8  00                 [155] (95)
1EF9  00                 [156] (95)
1EFA  29                 [157] (95)
1EFB  01                 [158] (95)
1EFC  00                 [159] (97)
1EFD  00                 [160] (97)
1EFE  29                 [161] (97)
1EFF  01                 [162] (97)
1F00  00                 [163] (97)
1F01  00                 [164] (97)
1F02  29                 [165] (101)
1F03  01                 [166] (101)
1F04  00                 [167] (102)
1F05  00                 [168] (102)
1F06  29                 [169] (103)
1F07  01                 [170] (103)
1F08  00                 [171] (104)
1F09  00                 [172] (104)
1F0A  29                 [173] (104)
1F0B  01                 [174] (104)
1F0C  00                 [175] (104)
1F0D  00                 [176] (105)
1F0E  29                 [177] (105)
1F0F  01                 [178] (106)
1F10  00                 [179] (106)
1F11  00                 [180] (107)
1F12  30                 [181] (107)
1F13  01                 [182] (108)
1F14  00                 [183] (108)
1F15  00                 [184] (108)
1F16  30                 [185] (108)
1F17  01                 [186] (108)
1F18  00                 [187] (108)
1F19  00                 [188] (108)
1F1A  31                 [189] (108)
1F1B  01                 [190] (108)
1F1C  00                 [191] (108)
1F1D  00                 [192] (108)
1F1E  31                 [193] (108)
1F1F  01                 [194] (108)
1F20  00                 [195] (108)
1F21  00                 [196] (108)
1F22  32                 [197] (109)
1F23  01                 [198] (109)
1F24  00                 [199] (110)
1F25  00                 [200] (110)
1F26  33                 [201] (111)
1F27  01                 [202] (113)
1F28  00                 [203] (113)
1F29  00                 [204] (114)
1F2A  34                 [205] (114)
1F2B  01                 [206] (114)
1F2C  00                 [207] (72)
1F2D  00                 [208] (116)
1F2E  3A                 [209] (120)
1F2F  01                 [210] (121)
1F30  00                 [211] (121)
1F31  00                 [212] (122)
1F32  3A                 [213] (122)
1F33  01                 [214] (122)
1F34  00                 [215] (122)
1F35  00                 [216] (123)
1F36  3A                 [217] (123)
1F37  01                 [218] (123)
1F38  00                 [219] (123)
1F39  00                 [220] (123)
1F3A  3A                 [221] (124)
1F3B  01                 [222] (124)
1F3C  00                 [223] (124)
1F3D  00                 [224] (124)
1F3E  3A                 [225] (124)
1F3F  01                 [226] (122)
1F40  00                 [227] (-127)
1F41  00                 [228] (-126)
1F42  3A                 [229] (-125)
1F43  01                 [230] (-125)
1F44  00                 [231] (-125)
1F45  00                 [232] (-125)
1F46  3B                 [233] (-124)
1F47  01                 [234] (-123)
1F48  00                 [235] (-123)
1F49  00                 [236] (-123)
1F4A  3B                 [237] (-122)
1F4B  01                 [238] (-122)
1F4C  00                 [239] (-121)
1F4D  00                 [240] (-121)
1F4E  3B                 [241] (-121)
1F4F  01                 [242] (-121)
1F50  00                 [243] (-121)
1F51  00                 [244] (-121)
1F52  3B                 [245] (-121)
1F53  01                 [246] (-121)
1F54  00                 [247] (-121)
1F55  00                 [248] (-121)
1F56  3C                 [249] (-120)
1F57  01                 [250] (-120)
1F58  00                 [251] (-119)
1F59  00                 [252] (-119)
1F5A  3C                 [253] (-119)
1F5B  01                 [254] (-119)
1F5C  00                 [255] (-119)
1F5D  00                 [256] (-119)
1F5E  3D                 [257] (-119)
1F5F  01                 [258] (-119)
1F60  00                 [259] (-118)
1F61  00                 [260] (-118)
1F62  3D                 [261] (-118)
1F63  01                 [262] (-118)
1F64  00                 [263] (-117)
1F65  00                 [264] (-117)
1F66  3D                 [265] (-117)
1F67  01                 [266] (-117)
1F68  00                 [267] (-117)
1F69  00                 [268] (-117)
1F6A  3D                 [269] (-116)
1F6B  01                 [270] (-116)
1F6C  00                 [271] (-116)
1F6D  00                 [272] (-116)
1F6E  3D                 [273] (-116)
1F6F  01                 [274] (-116)
1F70  00                 [275] (-116)
1F71  00                 [276] (-115)
1F72  3E                 [277] (-115)
1F73  01                 [278] (-115)
1F74  00                 [279] (-115)
1F75  00                 [280] (-115)
1F76  3E                 [281] (-115)
1F77  01                 [282] (-114)
1F78  00                 [283] (-118)
1F79  00                 [284] (-111)
1F7A  3F                 [285] (-111)
1F7B  01                 [286] (-111)
1F7C  00                 [287] (-111)
1F7D  00                 [288] (-111)
1F7E  3F                 [289] (-109)
1F7F  01                 [290] (-109)
1F80  00                 [291] (-109)
1F81  00                 [292] (-109)
1F82  3F                 [293] (-109)
1F83  01                 [294] (-109)
1F84  00                 [295] (-109)
1F85  00                 [296] (-109)
1F86  3F                 [297] (-109)
1F87  01                 [298] (-125)
1F88  00                 [299] (-106)
1F89  00                 [300] (-106)
1F8A  3F                 [301] (-105)
1F8B  01                 [302] (-105)
1F8C  00                 [303] (-105)
1F8D  00                 [304] (-101)
1F8E  40                 [305] (-101)
1F8F  01                 [306] (-101)
1F90  00                 [307] (-101)
1F91  00                 [308] (-100)
1F92  40                 [309] (-100)
1F93  01                 [310] (-100)
1F94  00                 [311] (-101)
1F95  00                 [312] (-100)
1F96  40                 [313] (-96)
                         * locals:
2342  00                 sizelocvars (0)
                         * upvalues:
2343  00                 sizeupvalues (0)
                         ** end of function **

                         
2344                     ** function [9] definition (level 2)
                         ** start of function **
2344  00                 string size (0)
                         source name: (none)
2346  03                 line defined (418)
2347  A4                 last line defined (420)
2348  03                 nups (1)
2349  01                 numparams (0)
234A  00                 is_vararg (0)
234B  00                 maxstacksize (2)
                         * code:
234D  03                 sizecode (3)
234E  13000000           [1] getupval   0   0      
2352  22408000           [2] call       0   1   1  
2356  1E008000           [3] return     0   1      
                         * constants:
235A  00                 sizek (0)
                         * functions:
235B  00                 sizep (0)
                         * lines:
235C  03                 sizelineinfo (3)
                         [pc] (line)
235D  A3                 [1] (-93)
235E  01                 [2] (-93)
235F  00                 [3] (-92)
                         * locals:
2369  00                 sizelocvars (0)
                         * upvalues:
236A  00                 sizeupvalues (0)
                         ** end of function **

                         
236B                     ** function [10] definition (level 2)
                         ** start of function **
236B  00                 string size (0)
                         source name: (none)
236D  03                 line defined (422)
236E  B3                 last line defined (435)
236F  03                 nups (0)
2370  00                 numparams (0)
2371  00                 is_vararg (0)
2372  00                 maxstacksize (6)
                         * code:
2374  17                 sizecode (23)
2375  1D000000           [01] getglobal  0   0        ; gGameRules
2379  64404000           [02] self       1   0   257  ; -1201441975
237D  62800001           [03] call       1   2   2  
2381  9D800000           [04] getglobal  2   2        ; 1074689893
2385  CEC0C000           [05] gettable   3   1   259  ; "transmissionOverrides"
2389  A2800001           [06] call       2   2   2  
238D  98400000           [07] test       2       1    ; to [9] if false
2391  1A400380           [08] jmp        14           ; to [23]
2395  9D000100           [09] getglobal  2   4        ; 2083004503
2399  CEC0C000           [10] gettable   3   1   259  ; "transmissionOverrides"
239D  A2800001           [11] call       2   2   2  
23A1  DD400100           [12] getglobal  3   5        ; _T
23A5  CC800083           [13] settable   3   262 2    ; "MissionTransmissionSet"
23A9  E4C04101           [14] self       3   2   263  ; 1188096909
23AD  E2800001           [15] call       3   2   2  
23B1  1D810000           [16] getglobal  4   2        ; 1074689893
23B5  52018001           [17] move       5   3      
23B9  22810001           [18] call       4   2   2  
23BD  18410000           [19] test       4       1    ; to [21] if false
23C1  1A400080           [20] jmp        2            ; to [23]
23C5  1D410100           [21] getglobal  4   5        ; _T
23C9  0CC10084           [22] settable   4   264 3    ; "EndOfMissionVoiceOverride"
23CD  1E008000           [23] return     0   1      
                         * constants:
23D1  09                 sizek (9)
23D2  04                 const type 4
23D3  0B                 string size (11)
23D4  6747616D6552756C+  "gGameRul"
23DC  657300             "es\0"
                         const [0]: "gGameRules"
23DF  01                 const type 3
23E0  497363B8           const [1]: (-1201441975)
23E4  01                 const type 3
23E5  65770E40           const [2]: (1074689893)
23E9  04                 const type 4
23EA  16                 string size (22)
23EB  7472616E736D6973+  "transmis"
23F3  73696F6E4F766572+  "sionOver"
23FB  726964657300       "rides\0"
                         const [3]: "transmissionOverrides"
2401  01                 const type 3
2402  5720287C           const [4]: (2083004503)
2406  04                 const type 4
2407  03                 string size (3)
2408  5F5400             "_T\0"
                         const [5]: "_T"
240B  04                 const type 4
240C  17                 string size (23)
240D  4D697373696F6E54+  "MissionT"
2415  72616E736D697373+  "ransmiss"
241D  696F6E53657400     "ionSet\0"
                         const [6]: "MissionTransmissionSet"
2424  01                 const type 3
2425  8DEBD046           const [7]: (1188096909)
2429  04                 const type 4
242A  1A                 string size (26)
242B  456E644F664D6973+  "EndOfMis"
2433  73696F6E566F6963+  "sionVoic"
243B  654F766572726964+  "eOverrid"
2443  6500               "e\0"
                         const [8]: "EndOfMissionVoiceOverride"
                         * functions:
2445  00                 sizep (0)
                         * lines:
2446  17                 sizelineinfo (23)
                         [pc] (line)
2447  A7                 [01] (-89)
2448  01                 [02] (-88)
2449  00                 [03] (-88)
244A  00                 [04] (-86)
244B  A8                 [05] (-86)
244C  01                 [06] (-86)
244D  00                 [07] (-86)
244E  00                 [08] (-86)
244F  A8                 [09] (-85)
2450  01                 [10] (-85)
2451  00                 [11] (-85)
2452  00                 [12] (-84)
2453  AA                 [13] (-84)
2454  01                 [14] (-82)
2455  00                 [15] (-82)
2456  00                 [16] (-81)
2457  AA                 [17] (-81)
2458  01                 [18] (-81)
2459  00                 [19] (-81)
245A  00                 [20] (-81)
245B  AA                 [21] (-80)
245C  01                 [22] (-80)
245D  00                 [23] (-77)
                         * locals:
24A3  00                 sizelocvars (0)
                         * upvalues:
24A4  00                 sizeupvalues (0)
                         ** end of function **

                         
24A5                     ** function [11] definition (level 2)
                         ** start of function **
24A5  00                 string size (0)
                         source name: (none)
24A7  03                 line defined (437)
24A8  F3                 last line defined (499)
24A9  03                 nups (4)
24AA  04                 numparams (0)
24AB  00                 is_vararg (0)
24AC  00                 maxstacksize (26)
                         * code:
24AF  01                 sizecode (140)
24B0  1D000000           [001] getglobal  0   0        ; gGameRules
24B4  64404000           [002] self       1   0   257  ; 52111380
24B8  62800001           [003] call       1   2   2  
24BC  9D800000           [004] getglobal  2   2        ; _T
24C0  DD000100           [005] getglobal  3   4        ; disableCorpusCamerasAndTurrets
24C4  8CC08081           [006] settable   2   259 3    ; "gDisableCamerasAndTurrets"
24C8  9D800000           [007] getglobal  2   2        ; _T
24CC  DD800100           [008] getglobal  3   6        ; doRandomEnvSetupColorCorrection
24D0  8CC08082           [009] settable   2   261 3    ; "gRandomEnvSetupColorCorrection"
24D4  9DC00100           [010] getglobal  2   7        ; gRegion
24D8  A4004201           [011] self       2   2   264  ; -1485896174
24DC  1D410200           [012] getglobal  4   9        ; -332969190
24E0  59810200           [013] loadk      5   10       ; "EnvSetup"
24E4  22010001           [014] call       4   2   0  
24E8  A2800000           [015] call       2   0   2  
24EC  DDC00100           [016] getglobal  3   7        ; gRegion
24F0  E400C201           [017] self       3   3   264  ; -1485896174
24F4  5D410200           [018] getglobal  5   9        ; -332969190
24F8  99C10200           [019] loadk      6   11       ; "SandstormMaster"
24FC  62010001           [020] call       5   2   0  
2500  E2800000           [021] call       3   0   2  
2504  1DC10100           [022] getglobal  4   7        ; gRegion
2508  24014202           [023] self       4   4   264  ; -1485896174
250C  9D410200           [024] getglobal  6   9        ; -332969190
2510  D9010300           [025] loadk      7   12       ; "LevelStartScript"
2514  A2010001           [026] call       6   2   0  
2518  22810000           [027] call       4   0   2  
251C  5D410300           [028] getglobal  5   13       ; hasDayNightCycle
2520  58010000           [029] test       5       0    ; to [31] if true
2524  1A400D80           [030] jmp        54           ; to [85]
2528  5DC10100           [031] getglobal  5   7        ; gRegion
252C  6481C302           [032] self       5   5   270  ; -1520831144
2530  62810001           [033] call       5   2   2  
2534  58010000           [034] test       5       0    ; to [36] if true
2538  1A800780           [035] jmp        31           ; to [67]
253C  59C10300           [036] loadk      5   15       ; 0
2540  9D010400           [037] getglobal  6   16       ; alwaysDay
2544  98010000           [038] test       6       0    ; to [40] if true
2548  1A400080           [039] jmp        2            ; to [42]
254C  59410400           [040] loadk      5   17       ; 0
2550  1A000580           [041] jmp        21           ; to [63]
2554  9D810400           [042] getglobal  6   18       ; alwaysNight
2558  98010000           [043] test       6       0    ; to [45] if true
255C  1A400080           [044] jmp        2            ; to [47]
2560  59C10300           [045] loadk      5   15       ; 0
2564  1AC00380           [046] jmp        16           ; to [63]
2568  93010000           [047] getupval   6   0      
256C  D2018000           [048] move       7   1      
2570  A2810001           [049] call       6   2   2  
fail op	33
2574  21808187           [050] tforloop   0       6    ; to [52] if exit
2578  1A400080           [051] jmp        2            ; to [54]
fail op	21
257C  55C04403           [052] concat     1   6   275
2580  1AC00180           [053] jmp        8            ; to [62]
fail op	33
2584  2180018A           [054] tforloop   0       6    ; to [56] if exit
2588  1A400080           [055] jmp        2            ; to [58]
fail op	21
258C  55404503           [056] concat     1   6   277
2590  1AC00080           [057] jmp        4            ; to [62]
fail op	33
2594  2180018B           [058] tforloop   0       6    ; to [60] if exit
2598  1A800080           [059] jmp        3            ; to [63]
fail op	21
259C  15C04503           [060] concat     0   6   279
25A0  1A000080           [061] jmp        1            ; to [63]
25A4  59410400           [062] loadk      5   17       ; 0
25A8  E4014600           [063] self       7   0   280  ; -803877924
25AC  53028000           [064] getupval   9   1      
25B0  92028002           [065] move       10  5      
25B4  E2410002           [066] call       7   4   1  
25B8  DDC10100           [067] getglobal  7   7        ; gRegion
25BC  E401C203           [068] self       7   7   264  ; -1485896174
25C0  5D420200           [069] getglobal  9   9        ; -332969190
25C4  99420600           [070] loadk      10  25       ; "DayNightMaster"
25C8  62020001           [071] call       9   2   0  
25CC  E2810000           [072] call       7   0   2  
25D0  1D820600           [073] getglobal  8   26       ; 1074689893
25D4  52028003           [074] move       9   7      
25D8  22820001           [075] call       8   2   2  
25DC  18420000           [076] test       8       1    ; to [78] if false
25E0  1A800180           [077] jmp        7            ; to [85]
25E4  0A028003           [078] len        8   7      
fail op	21
25E8  15008287           [079] concat     0   271 8  
25EC  1AC00080           [080] jmp        4            ; to [85]
25F0  0E42C403           [081] gettable   8   7   273  ; 0
25F4  24C24604           [082] self       8   8   283  ; -1923578185
25F8  99020700           [083] loadk      10  28       ; "Execute"
25FC  22428001           [084] call       8   3   1  
2600  19420400           [085] loadk      8   17       ; 0
2604  4A020001           [086] len        9   2      
2608  99420400           [087] loadk      10  17       ; 0
260C  10820580           [088] forprep    8   23       ; to [112]
2610  0EC30201           [089] gettable   12  2   11 
2614  64434706           [090] self       13  12  285  ; 1927666530
2618  62830001           [091] call       13  2   2  
261C  9D830600           [092] getglobal  14  26       ; 1074689893
2620  D2038006           [093] move       15  13     
2624  A2830001           [094] call       14  2   2  
2628  98030000           [095] test       14      0    ; to [97] if true
262C  1AC00180           [096] jmp        8            ; to [105]
2630  9D830700           [097] getglobal  14  30       ; -1817107093
2634  D9C30700           [098] loadk      15  31       ; "ProceduralLevel.lua::EnvSetup - nil zone found for \""
2638  24044806           [099] self       16  12  288  ; 455421500
263C  22840001           [100] call       16  2   2  
2640  59440800           [101] loadk      17  33       ; "\"!"
2644  C2438407           [102] concat     15  15  17 
2648  A2430001           [103] call       14  2   1  
264C  1A800180           [104] jmp        7            ; to [112]
2650  A483C806           [105] self       14  13  290  ; -2104556066
2654  A2830001           [106] call       14  2   2  
fail op	35
2658  23404407           [107] close      0  
265C  1A800080           [108] jmp        3            ; to [112]
2660  E4C34606           [109] self       15  12  283  ; -1923578185
2664  59040700           [110] loadk      17  28       ; "Execute"
2668  E2438001           [111] call       15  3   1  
266C  14C2F97F           [112] forloop    8   -24      ; to [89] if loop
2670  D9430400           [113] loadk      15  17       ; 0
2674  0A048001           [114] len        16  3      
2678  59440400           [115] loadk      17  17       ; 0
267C  D0030280           [116] forprep    15  9        ; to [126]
2680  DD840600           [117] getglobal  19  26       ; 1074689893
2684  0E858401           [118] gettable   20  3   18 
2688  E2840001           [119] call       19  2   2  
268C  D8440000           [120] test       19      1    ; to [122] if false
2690  1AC00080           [121] jmp        4            ; to [126]
2694  CE848401           [122] gettable   19  3   18 
2698  E4C4C609           [123] self       19  19  283  ; -1923578185
269C  59050700           [124] loadk      21  28       ; "Execute"
26A0  E2448001           [125] call       19  3   1  
26A4  D443FD7F           [126] forloop    15  -10      ; to [117] if loop
26A8  D9440400           [127] loadk      19  17       ; 0
26AC  0A050002           [128] len        20  4      
26B0  59450400           [129] loadk      21  17       ; 0
26B4  D0C40080           [130] forprep    19  4        ; to [135]
26B8  CE850502           [131] gettable   23  4   22 
26BC  E4C5C60B           [132] self       23  23  283  ; -1923578185
26C0  59060700           [133] loadk      25  28       ; "Execute"
26C4  E2458001           [134] call       23  3   1  
26C8  D484FE7F           [135] forloop    19  -5       ; to [131] if loop
26CC  D3050001           [136] getupval   23  2      
26D0  E2458000           [137] call       23  1   1  
26D4  D3058001           [138] getupval   23  3      
26D8  E2458000           [139] call       23  1   1  
26DC  1E008000           [140] return     0   1      
                         * constants:
26E0  23                 sizek (35)
26E1  04                 const type 4
26E2  0B                 string size (11)
26E3  6747616D6552756C+  "gGameRul"
26EB  657300             "es\0"
                         const [0]: "gGameRules"
26EE  01                 const type 3
26EF  14281B03           const [1]: (52111380)
26F3  04                 const type 4
26F4  03                 string size (3)
26F5  5F5400             "_T\0"
                         const [2]: "_T"
26F8  04                 const type 4
26F9  1A                 string size (26)
26FA  6744697361626C65+  "gDisable"
2702  43616D6572617341+  "CamerasA"
270A  6E64547572726574+  "ndTurret"
2712  7300               "s\0"
                         const [3]: "gDisableCamerasAndTurrets"
2714  04                 const type 4
2715  1F                 string size (31)
2716  64697361626C6543+  "disableC"
271E  6F7270757343616D+  "orpusCam"
2726  65726173416E6454+  "erasAndT"
272E  75727265747300     "urrets\0"
                         const [4]: "disableCorpusCamerasAndTurrets"
2735  04                 const type 4
2736  1F                 string size (31)
2737  6752616E646F6D45+  "gRandomE"
273F  6E76536574757043+  "nvSetupC"
2747  6F6C6F72436F7272+  "olorCorr"
274F  656374696F6E00     "ection\0"
                         const [5]: "gRandomEnvSetupColorCorrection"
2756  04                 const type 4
2757  20                 string size (32)
2758  646F52616E646F6D+  "doRandom"
2760  456E765365747570+  "EnvSetup"
2768  436F6C6F72436F72+  "ColorCor"
2770  72656374696F6E00   "rection\0"
                         const [6]: "doRandomEnvSetupColorCorrection"
2778  04                 const type 4
2779  08                 string size (8)
277A  67526567696F6E00   "gRegion\0"
                         const [7]: "gRegion"
2782  01                 const type 3
2783  12066FA7           const [8]: (-1485896174)
2787  01                 const type 3
2788  1A4B27EC           const [9]: (-332969190)
278C  04                 const type 4
278D  09                 string size (9)
278E  456E765365747570+  "EnvSetup"
2796  00                 "\0"
                         const [10]: "EnvSetup"
2797  04                 const type 4
2798  10                 string size (16)
2799  53616E6473746F72+  "Sandstor"
27A1  6D4D617374657200   "mMaster\0"
                         const [11]: "SandstormMaster"
27A9  04                 const type 4
27AA  11                 string size (17)
27AB  4C6576656C537461+  "LevelSta"
27B3  7274536372697074+  "rtScript"
27BB  00                 "\0"
                         const [12]: "LevelStartScript"
27BC  04                 const type 4
27BD  11                 string size (17)
27BE  6861734461794E69+  "hasDayNi"
27C6  6768744379636C65+  "ghtCycle"
27CE  00                 "\0"
                         const [13]: "hasDayNightCycle"
27CF  01                 const type 3
27D0  58F559A5           const [14]: (-1520831144)
27D4  03                 const type 3
27D5  00000000           const [15]: (0)
27D9  04                 const type 4
27DA  0A                 string size (10)
27DB  616C776179734461+  "alwaysDa"
27E3  7900               "y\0"
                         const [16]: "alwaysDay"
27E5  03                 const type 3
27E6  0000803F           const [17]: (0)
27EA  04                 const type 4
27EB  0C                 string size (12)
27EC  616C776179734E69+  "alwaysNi"
27F4  67687400           "ght\0"
                         const [18]: "alwaysNight"
27F8  03                 const type 3
27F9  00008040           const [19]: (0)
27FD  03                 const type 3
27FE  00000041           const [20]: (0)
2802  03                 const type 3
2803  00004041           const [21]: (0)
2807  03                 const type 3
2808  00008041           const [22]: (0)
280C  03                 const type 3
280D  0000A041           const [23]: (0)
2811  01                 const type 3
2812  DCCB15D0           const [24]: (-803877924)
2816  04                 const type 4
2817  0F                 string size (15)
2818  4461794E69676874+  "DayNight"
2820  4D617374657200     "Master\0"
                         const [25]: "DayNightMaster"
2827  01                 const type 3
2828  65770E40           const [26]: (1074689893)
282C  01                 const type 3
282D  B786588D           const [27]: (-1923578185)
2831  04                 const type 4
2832  08                 string size (8)
2833  4578656375746500   "Execute\0"
                         const [28]: "Execute"
283B  01                 const type 3
283C  62DBE572           const [29]: (1927666530)
2840  01                 const type 3
2841  6B25B193           const [30]: (-1817107093)
2845  04                 const type 4
2846  35                 string size (53)
2847  50726F6365647572+  "Procedur"
284F  616C4C6576656C2E+  "alLevel."
2857  6C75613A3A456E76+  "lua::Env"
285F  5365747570202D20+  "Setup - "
2867  6E696C207A6F6E65+  "nil zone"
286F  20666F756E642066+  " found f"
2877  6F72202200         "or \"\0"
                         const [31]: "ProceduralLevel.lua::EnvSetup - nil zone found for \""
287C  01                 const type 3
287D  3C2E251B           const [32]: (455421500)
2881  04                 const type 4
2882  03                 string size (3)
2883  222100             "\"!\0"
                         const [33]: "\"!"
2886  01                 const type 3
2887  DE058F82           const [34]: (-2104556066)
                         * functions:
288B  00                 sizep (0)
                         * lines:
288D  01                 sizelineinfo (140)
                         [pc] (line)
288E  B7                 [001] (-73)
288F  01                 [002] (-72)
2890  00                 [003] (-72)
2891  00                 [004] (-70)
2892  B8                 [005] (-70)
2893  01                 [006] (-70)
2894  00                 [007] (-69)
2895  00                 [008] (-69)
2896  B8                 [009] (-69)
2897  01                 [010] (-67)
2898  00                 [011] (-67)
2899  00                 [012] (-67)
289A  BA                 [013] (-67)
289B  01                 [014] (-67)
289C  00                 [015] (-67)
289D  00                 [016] (-66)
289E  BA                 [017] (-66)
289F  01                 [018] (-66)
28A0  00                 [019] (-66)
28A1  00                 [020] (-66)
28A2  BA                 [021] (-66)
28A3  01                 [022] (-65)
28A4  00                 [023] (-65)
28A5  00                 [024] (-65)
28A6  BB                 [025] (-65)
28A7  01                 [026] (-65)
28A8  00                 [027] (-65)
28A9  00                 [028] (-63)
28AA  BB                 [029] (-63)
28AB  01                 [030] (-63)
28AC  00                 [031] (-61)
28AD  00                 [032] (-61)
28AE  BB                 [033] (-61)
28AF  01                 [034] (-61)
28B0  00                 [035] (-61)
28B1  00                 [036] (-60)
28B2  BD                 [037] (-59)
28B3  01                 [038] (-59)
28B4  00                 [039] (-59)
28B5  00                 [040] (-58)
28B6  BD                 [041] (-58)
28B7  01                 [042] (-57)
28B8  00                 [043] (-57)
28B9  00                 [044] (-57)
28BA  BD                 [045] (-56)
28BB  01                 [046] (-56)
28BC  00                 [047] (-54)
28BD  00                 [048] (-54)
28BE  BD                 [049] (-54)
28BF  01                 [050] (-53)
28C0  00                 [051] (-53)
28C1  00                 [052] (-53)
28C2  BD                 [053] (-53)
28C3  01                 [054] (-53)
28C4  00                 [055] (-53)
28C5  00                 [056] (-53)
28C6  BD                 [057] (-53)
28C7  01                 [058] (-53)
28C8  00                 [059] (-53)
28C9  00                 [060] (-53)
28CA  BE                 [061] (-53)
28CB  01                 [062] (-52)
28CC  00                 [063] (-49)
28CD  00                 [064] (-49)
28CE  BE                 [065] (-49)
28CF  01                 [066] (-49)
28D0  00                 [067] (-46)
28D1  00                 [068] (-46)
28D2  BE                 [069] (-46)
28D3  01                 [070] (-46)
28D4  00                 [071] (-46)
28D5  00                 [072] (-46)
28D6  BE                 [073] (-45)
28D7  01                 [074] (-45)
28D8  00                 [075] (-45)
28D9  00                 [076] (-45)
28DA  BE                 [077] (-45)
28DB  01                 [078] (-45)
28DC  00                 [079] (-45)
28DD  00                 [080] (-45)
28DE  BE                 [081] (-44)
28DF  01                 [082] (-44)
28E0  00                 [083] (-44)
28E1  00                 [084] (-44)
28E2  BF                 [085] (-40)
28E3  01                 [086] (-40)
28E4  00                 [087] (-40)
28E5  00                 [088] (-40)
28E6  BF                 [089] (-39)
28E7  01                 [090] (-38)
28E8  00                 [091] (-38)
28E9  00                 [092] (-37)
28EA  BF                 [093] (-37)
28EB  01                 [094] (-37)
28EC  00                 [095] (-37)
28ED  00                 [096] (-37)
28EE  BF                 [097] (-36)
28EF  01                 [098] (-36)
28F0  00                 [099] (-36)
28F1  00                 [100] (-36)
28F2  BF                 [101] (-36)
28F3  01                 [102] (-36)
28F4  00                 [103] (-36)
28F5  00                 [104] (-36)
28F6  BF                 [105] (-34)
28F7  01                 [106] (-34)
28F8  00                 [107] (-33)
28F9  00                 [108] (-33)
28FA  C1                 [109] (-32)
28FB  01                 [110] (-32)
28FC  00                 [111] (-32)
28FD  00                 [112] (-40)
28FE  C1                 [113] (-27)
28FF  01                 [114] (-27)
2900  00                 [115] (-27)
2901  00                 [116] (-27)
2902  C1                 [117] (-26)
2903  01                 [118] (-26)
2904  00                 [119] (-26)
2905  00                 [120] (-26)
2906  C3                 [121] (-26)
2907  01                 [122] (-25)
2908  00                 [123] (-25)
2909  00                 [124] (-25)
290A  C3                 [125] (-25)
290B  01                 [126] (-27)
290C  00                 [127] (-21)
290D  00                 [128] (-21)
290E  C3                 [129] (-21)
290F  01                 [130] (-21)
2910  00                 [131] (-20)
2911  00                 [132] (-20)
2912  C3                 [133] (-20)
2913  01                 [134] (-20)
2914  00                 [135] (-21)
2915  00                 [136] (-17)
2916  C3                 [137] (-17)
2917  01                 [138] (-15)
2918  00                 [139] (-15)
2919  00                 [140] (-13)
                         * locals:
2ABE  00                 sizelocvars (0)
                         * upvalues:
2ABF  00                 sizeupvalues (0)
                         ** end of function **

                         
2AC0                     ** function [12] definition (level 2)
                         ** start of function **
2AC0  00                 string size (0)
                         source name: (none)
2AC2  03                 line defined (501)
2AC3  82                 last line defined (514)
2AC4  04                 nups (0)
2AC5  00                 numparams (2)
2AC6  02                 is_vararg (0)
2AC7  00                 maxstacksize (15)
                         * code:
2AC9  19                 sizecode (25)
2ACA  DD000000           [01] getglobal  3   0        ; gRegion
2ACE  E440C001           [02] self       3   3   257  ; -1485896174
2AD2  52010000           [03] move       5   0      
2AD6  E2808001           [04] call       3   3   2  
2ADA  19810000           [05] loadk      4   2        ; 0
2ADE  4A018000           [06] len        5   1      
2AE2  99810000           [07] loadk      6   2        ; 0
2AE6  10410380           [08] forprep    4   14       ; to [23]
2AEA  0EC28100           [09] gettable   8   1   7  
2AEE  24C24004           [10] self       8   8   259  ; 1927666530
2AF2  22820001           [11] call       8   2   2  
2AF6  59820000           [12] loadk      9   2        ; 0
2AFA  8A028001           [13] len        10  3      
2AFE  D9820000           [14] loadk      11  2        ; 0
2B02  50420180           [15] forprep    9   6        ; to [22]
2B06  4E038301           [16] gettable   13  3   12 
2B0A  64C3C006           [17] self       13  13  259  ; 1927666530
2B0E  62830001           [18] call       13  2   2  
fail op	35
2B12  23400304           [19] close      0  
2B16  1A000080           [20] jmp        1            ; to [22]
2B1A  8EC08100           [21] gettable   2   1   7  
2B1E  5402FE7F           [22] forloop    9   -7       ; to [16] if loop
2B22  1401FC7F           [23] forloop    4   -15      ; to [9] if loop
2B26  9E000001           [24] return     2   2      
2B2A  1E008000           [25] return     0   1      
                         * constants:
2B2E  04                 sizek (4)
2B2F  04                 const type 4
2B30  08                 string size (8)
2B31  67526567696F6E00   "gRegion\0"
                         const [0]: "gRegion"
2B39  01                 const type 3
2B3A  12066FA7           const [1]: (-1485896174)
2B3E  03                 const type 3
2B3F  0000803F           const [2]: (0)
2B43  01                 const type 3
2B44  62DBE572           const [3]: (1927666530)
                         * functions:
2B48  00                 sizep (0)
                         * lines:
2B49  19                 sizelineinfo (25)
                         [pc] (line)
2B4A  F7                 [01] (-9)
2B4B  01                 [02] (-9)
2B4C  00                 [03] (-9)
2B4D  00                 [04] (-9)
2B4E  F7                 [05] (-8)
2B4F  01                 [06] (-8)
2B50  00                 [07] (-8)
2B51  00                 [08] (-8)
2B52  F7                 [09] (-7)
2B53  01                 [10] (-7)
2B54  00                 [11] (-7)
2B55  00                 [12] (-6)
2B56  F7                 [13] (-6)
2B57  01                 [14] (-6)
2B58  00                 [15] (-6)
2B59  00                 [16] (-5)
2B5A  F8                 [17] (-5)
2B5B  01                 [18] (-5)
2B5C  00                 [19] (-4)
2B5D  00                 [20] (-4)
2B5E  F8                 [21] (-3)
2B5F  01                 [22] (-6)
2B60  00                 [23] (-8)
2B61  00                 [24] (1)
2B62  F8                 [25] (2)
                         * locals:
2BAE  00                 sizelocvars (0)
                         * upvalues:
2BAF  00                 sizeupvalues (0)
                         ** end of function **

                         
2BB0                     ** function [13] definition (level 2)
                         ** start of function **
2BB0  00                 string size (0)
                         source name: (none)
2BB2  04                 line defined (516)
2BB3  92                 last line defined (530)
2BB4  04                 nups (0)
2BB5  00                 numparams (2)
2BB6  02                 is_vararg (0)
2BB7  00                 maxstacksize (17)
                         * code:
2BB9  1F                 sizecode (31)
2BBA  8B000000           [01] newtable   2   0   0    ; array=0, hash=0
2BBE  DD000000           [02] getglobal  3   0        ; gRegion
2BC2  E440C001           [03] self       3   3   257  ; -1485896174
2BC6  52010000           [04] move       5   0      
2BCA  E2808001           [05] call       3   3   2  
2BCE  19810000           [06] loadk      4   2        ; 0
2BD2  4A018000           [07] len        5   1      
2BD6  99810000           [08] loadk      6   2        ; 0
2BDA  10810480           [09] forprep    4   19       ; to [29]
2BDE  0EC28100           [10] gettable   8   1   7  
2BE2  24C24004           [11] self       8   8   259  ; 1927666530
2BE6  22820001           [12] call       8   2   2  
2BEA  59820000           [13] loadk      9   2        ; 0
2BEE  8A028001           [14] len        10  3      
2BF2  D9820000           [15] loadk      11  2        ; 0
2BF6  50820280           [16] forprep    9   11       ; to [28]
2BFA  4E038301           [17] gettable   13  3   12 
2BFE  64C3C006           [18] self       13  13  259  ; 1927666530
2C02  62830001           [19] call       13  2   2  
fail op	35
2C06  23400304           [20] close      0  
2C0A  1A400180           [21] jmp        6            ; to [28]
2C0E  9D030100           [22] getglobal  14  4        ; table
2C12  8E434107           [23] gettable   14  14  261  ; -431682403
2C16  D2030001           [24] move       15  2      
2C1A  0EC48100           [25] gettable   16  1   7  
2C1E  A2438001           [26] call       14  3   1  
2C22  1A000080           [27] jmp        1            ; to [29]
2C26  54C2FC7F           [28] forloop    9   -12      ; to [17] if loop
2C2A  14C1FA7F           [29] forloop    4   -20      ; to [10] if loop
2C2E  9E000001           [30] return     2   2      
2C32  1E008000           [31] return     0   1      
                         * constants:
2C36  06                 sizek (6)
2C37  04                 const type 4
2C38  08                 string size (8)
2C39  67526567696F6E00   "gRegion\0"
                         const [0]: "gRegion"
2C41  01                 const type 3
2C42  12066FA7           const [1]: (-1485896174)
2C46  03                 const type 3
2C47  0000803F           const [2]: (0)
2C4B  01                 const type 3
2C4C  62DBE572           const [3]: (1927666530)
2C50  04                 const type 4
2C51  06                 string size (6)
2C52  7461626C6500       "table\0"
                         const [4]: "table"
2C58  01                 const type 3
2C59  9D0C45E6           const [5]: (-431682403)
                         * functions:
2C5D  00                 sizep (0)
                         * lines:
2C5E  1F                 sizelineinfo (31)
                         [pc] (line)
2C5F  05                 [01] (5)
2C60  02                 [02] (6)
2C61  00                 [03] (6)
2C62  00                 [04] (6)
2C63  06                 [05] (6)
2C64  02                 [06] (7)
2C65  00                 [07] (7)
2C66  00                 [08] (7)
2C67  06                 [09] (7)
2C68  02                 [10] (8)
2C69  00                 [11] (8)
2C6A  00                 [12] (8)
2C6B  06                 [13] (9)
2C6C  02                 [14] (9)
2C6D  00                 [15] (9)
2C6E  00                 [16] (9)
2C6F  06                 [17] (10)
2C70  02                 [18] (10)
2C71  00                 [19] (10)
2C72  00                 [20] (11)
2C73  07                 [21] (11)
2C74  02                 [22] (12)
2C75  00                 [23] (12)
2C76  00                 [24] (12)
2C77  07                 [25] (12)
2C78  02                 [26] (12)
2C79  00                 [27] (13)
2C7A  00                 [28] (9)
2C7B  07                 [29] (7)
2C7C  02                 [30] (17)
2C7D  00                 [31] (18)
                         * locals:
2CDB  00                 sizelocvars (0)
                         * upvalues:
2CDC  00                 sizeupvalues (0)
                         ** end of function **

                         
2CDD                     ** function [14] definition (level 2)
                         ** start of function **
2CDD  00                 string size (0)
                         source name: (none)
2CDF  04                 line defined (532)
2CE0  AB                 last line defined (555)
2CE1  04                 nups (0)
2CE2  00                 numparams (0)
2CE3  00                 is_vararg (0)
2CE4  00                 maxstacksize (11)
                         * code:
2CE6  37                 sizecode (55)
2CE7  1D000000           [01] getglobal  0   0        ; gRegion
2CEB  24404000           [02] self       0   0   257  ; -1485896174
2CEF  9D800000           [03] getglobal  2   2        ; -332969190
2CF3  D9C00000           [04] loadk      3   3        ; "HostMigrationInit"
2CF7  A2000001           [05] call       2   2   0  
2CFB  22800000           [06] call       0   0   2  
2CFF  59000100           [07] loadk      1   4        ; 0
2D03  8A000000           [08] len        2   0      
2D07  D9000100           [09] loadk      3   4        ; 0
2D0B  50000280           [10] forprep    1   9        ; to [20]
2D0F  4E010100           [11] gettable   5   0   4  
2D13  9D410100           [12] getglobal  6   5        ; 1074689893
2D17  D2018002           [13] move       7   5      
2D1B  A2810001           [14] call       6   2   2  
2D1F  98410000           [15] test       6       1    ; to [17] if false
2D23  1A800080           [16] jmp        3            ; to [20]
2D27  A481C102           [17] self       6   5   262  ; -1923578185
2D2B  19C20100           [18] loadk      8   7        ; "Execute"
2D2F  A2418001           [19] call       6   3   1  
2D33  5440FD7F           [20] forloop    1   -10      ; to [11] if loop
2D37  9D410100           [21] getglobal  6   5        ; 1074689893
2D3B  DD010200           [22] getglobal  7   8        ; _T
2D3F  CE41C203           [23] gettable   7   7   265  ; "AmbientMissionTransmissionSet"
2D43  A2810001           [24] call       6   2   2  
2D47  98010000           [25] test       6       0    ; to [27] if true
2D4B  1A800080           [26] jmp        3            ; to [30]
2D4F  9D010200           [27] getglobal  6   8        ; _T
2D53  DD810200           [28] getglobal  7   10       ; ambientMissionTransSet
2D57  8CC18184           [29] settable   6   265 7    ; "AmbientMissionTransmissionSet"
2D5B  9DC10200           [30] getglobal  6   11       ; gGameRules
2D5F  A4014303           [31] self       6   6   268  ; -1957065004
2D63  1D420300           [32] getglobal  8   13       ; gLotusGameRulesType
2D67  A2818001           [33] call       6   3   2  
2D6B  98010000           [34] test       6       0    ; to [36] if true
2D6F  1A800480           [35] jmp        19           ; to [55]
2D73  9DC10200           [36] getglobal  6   11       ; gGameRules
2D77  A4814303           [37] self       6   6   270  ; 1796315221
2D7B  A2810001           [38] call       6   2   2  
2D7F  CA010003           [39] len        7   6      
fail op	21
2D83  15C08187           [40] concat     0   271 7  
2D87  1A000380           [41] jmp        13           ; to [55]
2D8B  DD010000           [42] getglobal  7   0        ; gRegion
2D8F  E401C403           [43] self       7   7   272  ; -1875307917
2D93  5D820000           [44] getglobal  9   2        ; -332969190
2D97  99420400           [45] loadk      10  17       ; "ExtractionTrigger"
2D9B  62020001           [46] call       9   2   0  
2D9F  E2810000           [47] call       7   0   2  
2DA3  1D420100           [48] getglobal  8   5        ; 1074689893
2DA7  52028003           [49] move       9   7      
2DAB  22820001           [50] call       8   2   2  
2DAF  18420000           [51] test       8       1    ; to [53] if false
2DB3  1A400080           [52] jmp        2            ; to [55]
2DB7  2482C403           [53] self       8   7   274  ; -974578778
2DBB  22420001           [54] call       8   2   1  
2DBF  1E008000           [55] return     0   1      
                         * constants:
2DC3  13                 sizek (19)
2DC4  04                 const type 4
2DC5  08                 string size (8)
2DC6  67526567696F6E00   "gRegion\0"
                         const [0]: "gRegion"
2DCE  01                 const type 3
2DCF  12066FA7           const [1]: (-1485896174)
2DD3  01                 const type 3
2DD4  1A4B27EC           const [2]: (-332969190)
2DD8  04                 const type 4
2DD9  12                 string size (18)
2DDA  486F73744D696772+  "HostMigr"
2DE2  6174696F6E496E69+  "ationIni"
2DEA  7400               "t\0"
                         const [3]: "HostMigrationInit"
2DEC  03                 const type 3
2DED  0000803F           const [4]: (0)
2DF1  01                 const type 3
2DF2  65770E40           const [5]: (1074689893)
2DF6  01                 const type 3
2DF7  B786588D           const [6]: (-1923578185)
2DFB  04                 const type 4
2DFC  08                 string size (8)
2DFD  4578656375746500   "Execute\0"
                         const [7]: "Execute"
2E05  04                 const type 4
2E06  03                 string size (3)
2E07  5F5400             "_T\0"
                         const [8]: "_T"
2E0A  04                 const type 4
2E0B  1E                 string size (30)
2E0C  416D6269656E744D+  "AmbientM"
2E14  697373696F6E5472+  "issionTr"
2E1C  616E736D69737369+  "ansmissi"
2E24  6F6E53657400       "onSet\0"
                         const [9]: "AmbientMissionTransmissionSet"
2E2A  04                 const type 4
2E2B  17                 string size (23)
2E2C  616D6269656E744D+  "ambientM"
2E34  697373696F6E5472+  "issionTr"
2E3C  616E7353657400     "ansSet\0"
                         const [10]: "ambientMissionTransSet"
2E43  04                 const type 4
2E44  0B                 string size (11)
2E45  6747616D6552756C+  "gGameRul"
2E4D  657300             "es\0"
                         const [11]: "gGameRules"
2E50  01                 const type 3
2E51  D48E598B           const [12]: (-1957065004)
2E55  04                 const type 4
2E56  14                 string size (20)
2E57  674C6F7475734761+  "gLotusGa"
2E5F  6D6552756C657354+  "meRulesT"
2E67  79706500           "ype\0"
                         const [13]: "gLotusGameRulesType"
2E6B  01                 const type 3
2E6C  5598116B           const [14]: (1796315221)
2E70  03                 const type 3
2E71  00000000           const [15]: (0)
2E75  01                 const type 3
2E76  73123990           const [16]: (-1875307917)
2E7A  04                 const type 4
2E7B  12                 string size (18)
2E7C  4578747261637469+  "Extracti"
2E84  6F6E547269676765+  "onTrigge"
2E8C  7200               "r\0"
                         const [17]: "ExtractionTrigger"
2E8E  01                 const type 3
2E8F  A61BE9C5           const [18]: (-974578778)
                         * functions:
2E93  00                 sizep (0)
                         * lines:
2E94  37                 sizelineinfo (55)
                         [pc] (line)
2E95  15                 [01] (21)
2E96  02                 [02] (21)
2E97  00                 [03] (21)
2E98  00                 [04] (21)
2E99  15                 [05] (21)
2E9A  02                 [06] (21)
2E9B  00                 [07] (22)
2E9C  00                 [08] (22)
2E9D  15                 [09] (22)
2E9E  02                 [10] (22)
2E9F  00                 [11] (23)
2EA0  00                 [12] (24)
2EA1  15                 [13] (24)
2EA2  02                 [14] (24)
2EA3  00                 [15] (24)
2EA4  00                 [16] (24)
2EA5  15                 [17] (25)
2EA6  02                 [18] (25)
2EA7  00                 [19] (25)
2EA8  00                 [20] (22)
2EA9  15                 [21] (29)
2EAA  02                 [22] (29)
2EAB  00                 [23] (29)
2EAC  00                 [24] (29)
2EAD  16                 [25] (29)
2EAE  02                 [26] (29)
2EAF  00                 [27] (30)
2EB0  00                 [28] (30)
2EB1  16                 [29] (30)
2EB2  02                 [30] (34)
2EB3  00                 [31] (34)
2EB4  00                 [32] (34)
2EB5  16                 [33] (34)
2EB6  02                 [34] (34)
2EB7  00                 [35] (34)
2EB8  00                 [36] (35)
2EB9  16                 [37] (35)
2EBA  02                 [38] (35)
2EBB  00                 [39] (36)
2EBC  00                 [40] (36)
2EBD  17                 [41] (36)
2EBE  02                 [42] (37)
2EBF  00                 [43] (37)
2EC0  00                 [44] (37)
2EC1  18                 [45] (37)
2EC2  02                 [46] (37)
2EC3  00                 [47] (37)
2EC4  00                 [48] (38)
2EC5  18                 [49] (38)
2EC6  02                 [50] (38)
2EC7  00                 [51] (38)
2EC8  00                 [52] (38)
2EC9  18                 [53] (39)
2ECA  02                 [54] (39)
2ECB  00                 [55] (43)
                         * locals:
2F71  00                 sizelocvars (0)
                         * upvalues:
2F72  00                 sizeupvalues (0)
                         ** end of function **

                         
2F73                     ** function [15] definition (level 2)
                         ** start of function **
2F73  00                 string size (0)
                         source name: (none)
2F75  04                 line defined (557)
2F76  D5                 last line defined (597)
2F77  04                 nups (1)
2F78  01                 numparams (1)
2F79  01                 is_vararg (0)
2F7A  00                 maxstacksize (9)
                         * code:
2F7C  5E                 sizecode (94)
2F7D  5D000000           [01] getglobal  1   0        ; 1074689893
2F81  92000000           [02] move       2   0      
2F85  62800001           [03] call       1   2   2  
2F89  58000000           [04] test       1       0    ; to [6] if true
2F8D  1A000080           [05] jmp        1            ; to [7]
2F91  1E008000           [06] return     0   1      
2F95  5D400000           [07] getglobal  1   1        ; _T
2F99  4E80C000           [08] gettable   1   1   258  ; "EndCin"
fail op	35
2F9D  23C0C000           [09] close      0  
2FA1  1A000080           [10] jmp        1            ; to [12]
2FA5  1E008000           [11] return     0   1      
2FA9  5D000100           [12] getglobal  1   4        ; gGameRules
2FAD  6440C100           [13] self       1   1   261  ; -317790213
2FB1  DD800100           [14] getglobal  3   6        ; -332969190
2FB5  19C10100           [15] loadk      4   7        ; "StopNormalTransmissions"
2FB9  E2000001           [16] call       3   2   0  
2FBD  62800000           [17] call       1   0   2  
fail op	35
2FC1  2300C200           [18] close      0  
2FC5  1AC00080           [19] jmp        4            ; to [24]
2FC9  5D400000           [20] getglobal  1   1        ; _T
2FCD  4E40C200           [21] gettable   1   1   265  ; "gQuestMission"
2FD1  58000000           [22] test       1       0    ; to [24] if true
2FD5  1A000080           [23] jmp        1            ; to [25]
2FD9  1E008000           [24] return     0   1      
2FDD  46008000           [25] loadnil    1   1      
2FE1  9D800200           [26] getglobal  2   10       ; gRegion
2FE5  A4C04201           [27] self       2   2   267  ; -774964848
2FE9  A2800001           [28] call       2   2   2  
2FED  E4004301           [29] self       3   2   268  ; 537471347
2FF1  E2800001           [30] call       3   2   2  
2FF5  2441C301           [31] self       4   3   269  ; -962085132
2FF9  22810001           [32] call       4   2   2  
2FFD  6481C301           [33] self       5   3   270  ; 1384509382
3001  62810001           [34] call       5   2   2  
fail op	35
3005  63C0C002           [35] close      1  
3009  1AC00080           [36] jmp        4            ; to [41]
300D  64C1C301           [37] self       5   3   271  ; 183469
3011  62810001           [38] call       5   2   2  
3015  58010000           [39] test       5       0    ; to [41] if true
3019  1AC00780           [40] jmp        32           ; to [73]
fail op	35
301D  23004402           [41] close      0  
3021  1A400880           [42] jmp        34           ; to [77]
3025  5D810100           [43] getglobal  5   6        ; -332969190
3029  99410400           [44] loadk      6   17       ; "Grineer"
302D  62810001           [45] call       5   2   2  
fail op	35
3031  23400100           [46] close      0  
3035  1A000180           [47] jmp        5            ; to [53]
3039  5D810100           [48] getglobal  5   6        ; -332969190
303D  99810400           [49] loadk      6   18       ; "IncomingGrineer"
3041  62810001           [50] call       5   2   2  
3045  52008002           [51] move       1   5      
3049  1AC00580           [52] jmp        24           ; to [77]
304D  5D810100           [53] getglobal  5   6        ; -332969190
3051  99C10400           [54] loadk      6   19       ; "Corpus"
3055  62810001           [55] call       5   2   2  
fail op	35
3059  23400100           [56] close      0  
305D  1A000180           [57] jmp        5            ; to [63]
3061  5D810100           [58] getglobal  5   6        ; -332969190
3065  99010500           [59] loadk      6   20       ; "IncomingCorpus"
3069  62810001           [60] call       5   2   2  
306D  52008002           [61] move       1   5      
3071  1A400380           [62] jmp        14           ; to [77]
3075  5D810100           [63] getglobal  5   6        ; -332969190
3079  99410500           [64] loadk      6   21       ; "Infestation"
307D  62810001           [65] call       5   2   2  
fail op	35
3081  23400100           [66] close      0  
3085  1A000280           [67] jmp        9            ; to [77]
3089  5D810100           [68] getglobal  5   6        ; -332969190
308D  99810500           [69] loadk      6   22       ; "IncomingInfested"
3091  62810001           [70] call       5   2   2  
3095  52008002           [71] move       1   5      
3099  1AC00080           [72] jmp        4            ; to [77]
309D  5D810100           [73] getglobal  5   6        ; -332969190
30A1  99C10500           [74] loadk      6   23       ; "EnemiesUnaware"
30A5  62810001           [75] call       5   2   2  
30A9  52008002           [76] move       1   5      
30AD  5D410000           [77] getglobal  5   1        ; _T
30B1  9D410000           [78] getglobal  6   1        ; _T
30B5  8E014603           [79] gettable   6   6   280  ; "EnemyWarningCount"
30B9  83014403           [80] add        6   6   272  ; 0
30BD  4C81018C           [81] settable   5   280 6    ; "EnemyWarningCount"
30C1  5D010000           [82] getglobal  5   0        ; 1074689893
30C5  92018000           [83] move       6   1      
30C9  62810001           [84] call       5   2   2  
30CD  58410000           [85] test       5       1    ; to [87] if false
30D1  1A800180           [86] jmp        7            ; to [94]
30D5  53010000           [87] getupval   5   0      
30D9  4E41C602           [88] gettable   5   5   281  ; -78033590
30DD  9D410000           [89] getglobal  6   1        ; _T
30E1  8E814603           [90] gettable   6   6   282  ; "AmbientMissionTransmissionSet"
30E5  D2018000           [91] move       7   1      
30E9  19020200           [92] loadk      8   8        ; 0
30ED  62410002           [93] call       5   4   1  
30F1  1E008000           [94] return     0   1      
                         * constants:
30F5  1B                 sizek (27)
30F6  01                 const type 3
30F7  65770E40           const [0]: (1074689893)
30FB  04                 const type 4
30FC  03                 string size (3)
30FD  5F5400             "_T\0"
                         const [1]: "_T"
3100  04                 const type 4
3101  07                 string size (7)
3102  456E6443696E00     "EndCin\0"
                         const [2]: "EndCin"
3109  01                 const type 3
310A  01000000           const [3]: (1)
310E  04                 const type 4
310F  0B                 string size (11)
3110  6747616D6552756C+  "gGameRul"
3118  657300             "es\0"
                         const [4]: "gGameRules"
311B  01                 const type 3
311C  FBE70EED           const [5]: (-317790213)
3120  01                 const type 3
3121  1A4B27EC           const [6]: (-332969190)
3125  04                 const type 4
3126  18                 string size (24)
3127  53746F704E6F726D+  "StopNorm"
312F  616C5472616E736D+  "alTransm"
3137  697373696F6E7300   "issions\0"
                         const [7]: "StopNormalTransmissions"
313F  03                 const type 3
3140  00000000           const [8]: (0)
3144  04                 const type 4
3145  0E                 string size (14)
3146  6751756573744D69+  "gQuestMi"
314E  7373696F6E00       "ssion\0"
                         const [9]: "gQuestMission"
3154  04                 const type 4
3155  08                 string size (8)
3156  67526567696F6E00   "gRegion\0"
                         const [10]: "gRegion"
315E  01                 const type 3
315F  90F9CED1           const [11]: (-774964848)
3163  01                 const type 3
3164  73290920           const [12]: (537471347)
3168  01                 const type 3
3169  F4BEA7C6           const [13]: (-962085132)
316D  01                 const type 3
316E  C6EF8552           const [14]: (1384509382)
3172  01                 const type 3
3173  ADCC0200           const [15]: (183469)
3177  03                 const type 3
3178  0000803F           const [16]: (0)
317C  04                 const type 4
317D  08                 string size (8)
317E  4772696E65657200   "Grineer\0"
                         const [17]: "Grineer"
3186  04                 const type 4
3187  10                 string size (16)
3188  496E636F6D696E67+  "Incoming"
3190  4772696E65657200   "Grineer\0"
                         const [18]: "IncomingGrineer"
3198  04                 const type 4
3199  07                 string size (7)
319A  436F7270757300     "Corpus\0"
                         const [19]: "Corpus"
31A1  04                 const type 4
31A2  0F                 string size (15)
31A3  496E636F6D696E67+  "Incoming"
31AB  436F7270757300     "Corpus\0"
                         const [20]: "IncomingCorpus"
31B2  04                 const type 4
31B3  0C                 string size (12)
31B4  496E666573746174+  "Infestat"
31BC  696F6E00           "ion\0"
                         const [21]: "Infestation"
31C0  04                 const type 4
31C1  11                 string size (17)
31C2  496E636F6D696E67+  "Incoming"
31CA  496E666573746564+  "Infested"
31D2  00                 "\0"
                         const [22]: "IncomingInfested"
31D3  04                 const type 4
31D4  0F                 string size (15)
31D5  456E656D69657355+  "EnemiesU"
31DD  6E617761726500     "naware\0"
                         const [23]: "EnemiesUnaware"
31E4  04                 const type 4
31E5  12                 string size (18)
31E6  456E656D79576172+  "EnemyWar"
31EE  6E696E67436F756E+  "ningCoun"
31F6  7400               "t\0"
                         const [24]: "EnemyWarningCount"
31F8  01                 const type 3
31F9  4A4D59FB           const [25]: (-78033590)
31FD  04                 const type 4
31FE  1E                 string size (30)
31FF  416D6269656E744D+  "AmbientM"
3207  697373696F6E5472+  "issionTr"
320F  616E736D69737369+  "ansmissi"
3217  6F6E53657400       "onSet\0"
                         const [26]: "AmbientMissionTransmissionSet"
                         * functions:
321D  00                 sizep (0)
                         * lines:
321E  5E                 sizelineinfo (94)
                         [pc] (line)
321F  2E                 [01] (46)
3220  02                 [02] (46)
3221  00                 [03] (46)
3222  00                 [04] (46)
3223  2E                 [05] (46)
3224  02                 [06] (47)
3225  00                 [07] (49)
3226  00                 [08] (49)
3227  2E                 [09] (49)
3228  02                 [10] (49)
3229  00                 [11] (50)
322A  00                 [12] (52)
322B  2E                 [13] (52)
322C  02                 [14] (52)
322D  00                 [15] (52)
322E  00                 [16] (52)
322F  2E                 [17] (52)
3230  02                 [18] (52)
3231  00                 [19] (52)
3232  00                 [20] (52)
3233  2F                 [21] (52)
3234  02                 [22] (52)
3235  00                 [23] (52)
3236  00                 [24] (53)
3237  31                 [25] (56)
3238  02                 [26] (57)
3239  00                 [27] (57)
323A  00                 [28] (57)
323B  31                 [29] (58)
323C  02                 [30] (58)
323D  00                 [31] (59)
323E  00                 [32] (59)
323F  31                 [33] (61)
3240  02                 [34] (61)
3241  00                 [35] (61)
3242  00                 [36] (61)
3243  31                 [37] (61)
3244  02                 [38] (61)
3245  00                 [39] (61)
3246  00                 [40] (61)
3247  32                 [41] (62)
3248  02                 [42] (62)
3249  00                 [43] (63)
324A  00                 [44] (63)
324B  34                 [45] (63)
324C  02                 [46] (63)
324D  00                 [47] (63)
324E  00                 [48] (64)
324F  34                 [49] (64)
3250  02                 [50] (64)
3251  00                 [51] (64)
3252  00                 [52] (64)
3253  34                 [53] (65)
3254  02                 [54] (65)
3255  00                 [55] (65)
3256  00                 [56] (65)
3257  34                 [57] (65)
3258  02                 [58] (66)
3259  00                 [59] (66)
325A  00                 [60] (66)
325B  34                 [61] (66)
325C  02                 [62] (66)
325D  00                 [63] (67)
325E  00                 [64] (67)
325F  34                 [65] (67)
3260  02                 [66] (67)
3261  00                 [67] (67)
3262  00                 [68] (68)
3263  34                 [69] (68)
3264  02                 [70] (68)
3265  00                 [71] (68)
3266  00                 [72] (70)
3267  34                 [73] (72)
3268  02                 [74] (72)
3269  00                 [75] (72)
326A  00                 [76] (72)
326B  34                 [77] (81)
326C  02                 [78] (81)
326D  00                 [79] (81)
326E  00                 [80] (81)
326F  34                 [81] (81)
3270  02                 [82] (82)
3271  00                 [83] (82)
3272  00                 [84] (82)
3273  34                 [85] (82)
3274  02                 [86] (82)
3275  00                 [87] (83)
3276  00                 [88] (83)
3277  34                 [89] (83)
3278  02                 [90] (83)
3279  00                 [91] (83)
327A  00                 [92] (83)
327B  35                 [93] (83)
327C  02                 [94] (85)
                         * locals:
3397  00                 sizelocvars (0)
                         * upvalues:
3398  00                 sizeupvalues (0)
                         ** end of function **

                         
3399                     ** function [16] definition (level 2)
                         ** start of function **
3399  00                 string size (0)
                         source name: (none)
339B  04                 line defined (599)
339C  E0                 last line defined (608)
339D  04                 nups (1)
339E  01                 numparams (0)
339F  00                 is_vararg (0)
33A0  00                 maxstacksize (8)
                         * code:
33A2  1A                 sizecode (26)
33A3  1D000000           [01] getglobal  0   0        ; gClient
33A7  24404000           [02] self       0   0   257  ; -162150132
33AB  22800001           [03] call       0   2   2  
33AF  5D800000           [04] getglobal  1   2        ; 1672515847
33B3  92000000           [05] move       2   0      
33B7  62000101           [06] call       1   2   4  
33BB  1A000280           [07] jmp        9            ; to [17]
33BF  9DC10000           [08] getglobal  6   3        ; -1615931716
33C3  CE01C102           [09] gettable   7   5   260  ; "userName"
33C7  A2810001           [10] call       6   2   2  
33CB  D3010000           [11] getupval   7   0      
33CF  CE41C103           [12] gettable   7   7   261  ; "HIDDEN_PLAYER_NAME"
fail op	35
33D3  23C00103           [13] close      0  
33D7  1A400080           [14] jmp        2            ; to [17]
33DB  97018000           [15] loadbool   6   1   0    ; true
33DF  9E010001           [16] return     6   2      
33E3  56800000           [17] tforloop   1       2    ; to [19] if exit
33E7  1A00FD7F           [18] jmp        -11          ; to [8]
33EB  9D810100           [19] getglobal  6   6        ; _G
33EF  8EC14103           [20] gettable   6   6   263  ; "StalkerMode"
fail op	35
33F3  63004203           [21] close      1  
33F7  1A000080           [22] jmp        1            ; to [24]
33FB  97410000           [23] loadbool   6   0   1    ; false, to [25]
33FF  97018000           [24] loadbool   6   1   0    ; true
3403  9E010001           [25] return     6   2      
3407  1E008000           [26] return     0   1      
                         * constants:
340B  09                 sizek (9)
340C  04                 const type 4
340D  08                 string size (8)
340E  67436C69656E7400   "gClient\0"
                         const [0]: "gClient"
3416  01                 const type 3
3417  0CC955F6           const [1]: (-162150132)
341B  01                 const type 3
341C  0791B063           const [2]: (1672515847)
3420  01                 const type 3
3421  BCD6AE9F           const [3]: (-1615931716)
3425  04                 const type 4
3426  09                 string size (9)
3427  757365724E616D65+  "userName"
342F  00                 "\0"
                         const [4]: "userName"
3430  04                 const type 4
3431  13                 string size (19)
3432  48494444454E5F50+  "HIDDEN_P"
343A  4C415945525F4E41+  "LAYER_NA"
3442  4D4500             "ME\0"
                         const [5]: "HIDDEN_PLAYER_NAME"
3445  04                 const type 4
3446  03                 string size (3)
3447  5F4700             "_G\0"
                         const [6]: "_G"
344A  04                 const type 4
344B  0C                 string size (12)
344C  5374616C6B65724D+  "StalkerM"
3454  6F646500           "ode\0"
                         const [7]: "StalkerMode"
3458  01                 const type 3
3459  01000000           const [8]: (1)
                         * functions:
345D  00                 sizep (0)
                         * lines:
345E  1A                 sizelineinfo (26)
                         [pc] (line)
345F  58                 [01] (88)
3460  02                 [02] (88)
3461  00                 [03] (88)
3462  00                 [04] (89)
3463  58                 [05] (89)
3464  02                 [06] (89)
3465  00                 [07] (89)
3466  00                 [08] (90)
3467  58                 [09] (90)
3468  02                 [10] (90)
3469  00                 [11] (90)
346A  00                 [12] (90)
346B  59                 [13] (90)
346C  02                 [14] (90)
346D  00                 [15] (91)
346E  00                 [16] (91)
346F  59                 [17] (89)
3470  02                 [18] (92)
3471  00                 [19] (95)
3472  00                 [20] (95)
3473  59                 [21] (95)
3474  02                 [22] (95)
3475  00                 [23] (95)
3476  00                 [24] (95)
3477  59                 [25] (95)
3478  02                 [26] (96)
                         * locals:
34C7  00                 sizelocvars (0)
                         * upvalues:
34C8  00                 sizeupvalues (0)
                         ** end of function **

                         
34C9                     ** function [17] definition (level 2)
                         ** start of function **
34C9  00                 string size (0)
                         source name: (none)
34CB  04                 line defined (610)
34CC  E4                 last line defined (612)
34CD  04                 nups (1)
34CE  01                 numparams (0)
34CF  00                 is_vararg (0)
34D0  00                 maxstacksize (3)
                         * code:
34D2  0A                 sizecode (10)
34D3  1D000000           [01] getglobal  0   0        ; gFlashMgr
34D7  24404000           [02] self       0   0   257  ; 277467219
34DB  99800000           [03] loadk      2   2        ; "Server.FastLoad"
34DF  22808001           [04] call       0   3   2  
34E3  18400000           [05] test       0       1    ; to [7] if false
34E7  1A400080           [06] jmp        2            ; to [9]
34EB  13000000           [07] getupval   0   0      
34EF  22808000           [08] call       0   1   2  
34F3  1E000001           [09] return     0   2      
34F7  1E008000           [10] return     0   1      
                         * constants:
34FB  03                 sizek (3)
34FC  04                 const type 4
34FD  0A                 string size (10)
34FE  67466C6173684D67+  "gFlashMg"
3506  7200               "r\0"
                         const [0]: "gFlashMgr"
3508  01                 const type 3
3509  53D08910           const [1]: (277467219)
350D  04                 const type 4
350E  10                 string size (16)
350F  5365727665722E46+  "Server.F"
3517  6173744C6F616400   "astLoad\0"
                         const [2]: "Server.FastLoad"
                         * functions:
351F  00                 sizep (0)
                         * lines:
3520  0A                 sizelineinfo (10)
                         [pc] (line)
3521  63                 [01] (99)
3522  02                 [02] (99)
3523  00                 [03] (99)
3524  00                 [04] (99)
3525  63                 [05] (99)
3526  02                 [06] (99)
3527  00                 [07] (99)
3528  00                 [08] (99)
3529  63                 [09] (99)
352A  02                 [10] (100)
                         * locals:
3549  00                 sizelocvars (0)
                         * upvalues:
354A  00                 sizeupvalues (0)
                         ** end of function **

                         
354B                     ** function [18] definition (level 2)
                         ** start of function **
354B  00                 string size (0)
                         source name: (none)
354D  04                 line defined (615)
354E  87                 last line defined (903)
354F  07                 nups (4)
3550  04                 numparams (0)
3551  00                 is_vararg (0)
3552  00                 maxstacksize (67)
                         * code:
3555  05                 sizecode (744)
3556  1D000000           [001] getglobal  0   0        ; gRegion
355A  24404000           [002] self       0   0   257  ; -1485896174
355E  9D800000           [003] getglobal  2   2        ; -332969190
3562  D9C00000           [004] loadk      3   3        ; "ObjectiveMarker"
3566  A2000001           [005] call       2   2   0  
356A  22800000           [006] call       0   0   2  
356E  5D000000           [007] getglobal  1   0        ; gRegion
3572  6440C000           [008] self       1   1   257  ; -1485896174
3576  DD800000           [009] getglobal  3   2        ; -332969190
357A  19010100           [010] loadk      4   4        ; "AssassinMarker"
357E  E2000001           [011] call       3   2   0  
3582  62800000           [012] call       1   0   2  
3586  9D000000           [013] getglobal  2   0        ; gRegion
358A  A4404001           [014] self       2   2   257  ; -1485896174
358E  1D810000           [015] getglobal  4   2        ; -332969190
3592  59410100           [016] loadk      5   5        ; "ObjectiveTrigger"
3596  22010001           [017] call       4   2   0  
359A  A2800000           [018] call       2   0   2  
359E  DD000000           [019] getglobal  3   0        ; gRegion
35A2  E440C001           [020] self       3   3   257  ; -1485896174
35A6  5D810000           [021] getglobal  5   2        ; -332969190
35AA  99810100           [022] loadk      6   6        ; "AssassinateObjective"
35AE  62010001           [023] call       5   2   0  
35B2  E2800000           [024] call       3   0   2  
35B6  1D010000           [025] getglobal  4   0        ; gRegion
35BA  24414002           [026] self       4   4   257  ; -1485896174
35BE  9D810000           [027] getglobal  6   2        ; -332969190
35C2  D9C10100           [028] loadk      7   7        ; "AssassinRestate"
35C6  A2010001           [029] call       6   2   0  
35CA  22810000           [030] call       4   0   2  
35CE  5D010000           [031] getglobal  5   0        ; gRegion
35D2  6441C002           [032] self       5   5   257  ; -1485896174
35D6  DD810000           [033] getglobal  7   2        ; -332969190
35DA  19020200           [034] loadk      8   8        ; "ObjectiveRestate"
35DE  E2010001           [035] call       7   2   0  
35E2  62810000           [036] call       5   0   2  
35E6  9D010000           [037] getglobal  6   0        ; gRegion
35EA  A4414003           [038] self       6   6   257  ; -1485896174
35EE  1D820000           [039] getglobal  8   2        ; -332969190
35F2  59420200           [040] loadk      9   9        ; "FlyIn"
35F6  22020001           [041] call       8   2   0  
35FA  A2810000           [042] call       6   0   2  
35FE  DD810200           [043] getglobal  7   10       ; gGameRules
3602  E4C1C203           [044] self       7   7   267  ; -1201441975
3606  E2810001           [045] call       7   2   2  
360A  CE01C303           [046] gettable   7   7   268  ; "spawnAsOperator"
360E  D8010000           [047] test       7       0    ; to [49] if true
3612  1AC00080           [048] jmp        4            ; to [53]
3616  1D820200           [049] getglobal  8   10       ; gGameRules
361A  24424304           [050] self       8   8   269  ; -99115129
361E  97020000           [051] loadbool   10  0   0    ; false
3622  22428001           [052] call       8   3   1  
3626  1D820200           [053] getglobal  8   10       ; gGameRules
362A  64824304           [054] self       9   8   270  ; 869879031
362E  62820001           [055] call       9   2   2  
3632  93020000           [056] getupval   10  0      
fail op	21
3636  15808204           [057] concat     0   9   10 
363A  1A800180           [058] jmp        7            ; to [66]
363E  9DC20300           [059] getglobal  10  15       ; 538022378
3642  D9020400           [060] loadk      11  16       ; -51
3646  A2420001           [061] call       10  2   1  
364A  A4824304           [062] self       10  8   270  ; 869879031
364E  A2820001           [063] call       10  2   2  
3652  52020005           [064] move       9   10     
3656  1A40FD7F           [065] jmp        -10          ; to [56]
365A  9D420400           [066] getglobal  10  17       ; gPromotedToHost
365E  98420000           [067] test       10      1    ; to [69] if false
3662  1AC02C80           [068] jmp        180          ; to [249]
3666  86020005           [069] loadnil    10  10     
366A  D7020000           [070] loadbool   11  0   0    ; false
366E  0A030003           [071] len        12  6      
fail op	21
3672  15000389           [072] concat     0   274 12 
3676  1A000180           [073] jmp        5            ; to [79]
367A  1DC30400           [074] getglobal  12  19       ; 2144646525
367E  59030500           [075] loadk      13  20       ; 0
3682  8A030003           [076] len        14  6      
3686  22838001           [077] call       12  3   2  
368A  8E020303           [078] gettable   10  6   12 
368E  1D430500           [079] getglobal  12  21       ; 1074689893
3692  52030005           [080] move       13  10     
3696  22830001           [081] call       12  2   2  
369A  18430000           [082] test       12      1    ; to [84] if false
369E  1AC00480           [083] jmp        20           ; to [104]
36A2  24834505           [084] self       12  10  278  ; -1923578185
36A6  99C30500           [085] loadk      14  23       ; "StartPlaying"
36AA  22438001           [086] call       12  3   1  
36AE  24034605           [087] self       12  10  280  ; 1438910546
36B2  22830001           [088] call       12  2   2  
36B6  18030000           [089] test       12      0    ; to [91] if true
36BA  1A400280           [090] jmp        10           ; to [101]
36BE  1DC30300           [091] getglobal  12  15       ; 538022378
36C2  59830400           [092] loadk      13  18       ; 0
36C6  22430001           [093] call       12  2   1  
36CA  13038000           [094] getupval   12  1      
36CE  22838000           [095] call       12  1   2  
36D2  18030000           [096] test       12      0    ; to [98] if true
36D6  1A00FD7F           [097] jmp        -11          ; to [87]
36DA  24434605           [098] self       12  10  281  ; -1025779990
36DE  22430001           [099] call       12  2   1  
36E2  1A40FC7F           [100] jmp        -14          ; to [87]
36E6  24834605           [101] self       12  10  282  ; -959935117
36EA  22830001           [102] call       12  2   2  
36EE  D2020006           [103] move       11  12     
36F2  D8010000           [104] test       7       0    ; to [106] if true
36F6  1A800880           [105] jmp        35           ; to [141]
36FA  1D030000           [106] getglobal  12  0        ; gRegion
36FE  24C34606           [107] self       12  12  283  ; 65205951
3702  22830001           [108] call       12  2   2  
3706  5D030700           [109] getglobal  13  28       ; _T
370A  4C83C78E           [110] settable   13  285 286  ; "HideTransferenceFx" 1
370E  64C34706           [111] self       13  12  287  ; -521198746
3712  62430001           [112] call       13  2   1  
3716  64034806           [113] self       13  12  288  ; 2109594123
371A  D7030000           [114] loadbool   15  0   0    ; false
371E  17048000           [115] loadbool   16  1   0    ; true
3722  62430002           [116] call       13  4   1  
3726  64434806           [117] self       13  12  289  ; -1957065004
372A  DD830800           [118] getglobal  15  34       ; gLotusOperatorAvatarType
372E  62838001           [119] call       13  3   2  
3732  58430000           [120] test       13      1    ; to [122] if false
3736  1AC00180           [121] jmp        8            ; to [130]
373A  5DC30300           [122] getglobal  13  15       ; 538022378
373E  99830400           [123] loadk      14  18       ; 0
3742  62430001           [124] call       13  2   1  
3746  5D030000           [125] getglobal  13  0        ; gRegion
374A  64C3C606           [126] self       13  13  283  ; 65205951
374E  62830001           [127] call       13  2   2  
3752  12038006           [128] move       12  13     
3756  1A80FC7F           [129] jmp        -13          ; to [117]
375A  64C34806           [130] self       13  12  291  ; -1544157541
375E  62830001           [131] call       13  2   2  
3762  6403C906           [132] self       13  13  292  ; -1453579917
3766  D7030000           [133] loadbool   15  0   0    ; false
376A  62438001           [134] call       13  3   1  
376E  64434906           [135] self       13  12  293  ; -1423167726
3772  E4834906           [136] self       15  12  294  ; 1292478819
3776  E2830001           [137] call       15  2   2  
377A  E4C3C907           [138] self       15  15  295  ; -1815456567
377E  E2030001           [139] call       15  2   0  
3782  62430000           [140] call       13  0   1  
3786  5D030700           [141] getglobal  13  28       ; _T
378A  8E02CA06           [142] gettable   10  13  296  ; "OpeningCin"
378E  5D430500           [143] getglobal  13  21       ; 1074689893
3792  92030005           [144] move       14  10     
3796  62830001           [145] call       13  2   2  
379A  58430000           [146] test       13      1    ; to [148] if false
379E  1A401780           [147] jmp        94           ; to [242]
37A2  5D830200           [148] getglobal  13  10       ; gGameRules
37A6  64C3C206           [149] self       13  13  267  ; -1201441975
37AA  62830001           [150] call       13  2   2  
37AE  8E43CA06           [151] gettable   14  13  297  ; "goalTag"
37B2  DD830000           [152] getglobal  15  2        ; -332969190
37B6  19840A00           [153] loadk      16  42       ; "RelayReconstructionTwo"
37BA  E2830001           [154] call       15  2   2  
fail op	35
37BE  23C00307           [155] close      0  
37C2  1A000880           [156] jmp        33           ; to [190]
37C6  9D030000           [157] getglobal  14  0        ; gRegion
37CA  A4434007           [158] self       14  14  257  ; -1485896174
37CE  1D840000           [159] getglobal  16  2        ; -332969190
37D2  59C40A00           [160] loadk      17  43       ; "OpenCin"
37D6  22040001           [161] call       16  2   0  
37DA  A2830000           [162] call       14  0   2  
37DE  DD030000           [163] getglobal  15  0        ; gRegion
37E2  E403CB07           [164] self       15  15  300  ; -2071158816
37E6  E2830001           [165] call       15  2   2  
37EA  1D440B00           [166] getglobal  16  45       ; 1672515847
37EE  52048007           [167] move       17  15     
37F2  22040101           [168] call       16  2   4  
37F6  1A000280           [169] jmp        9            ; to [179]
37FA  4EC50407           [170] gettable   21  14  19 
37FE  6485CB0A           [171] self       21  21  302  ; 681627633
3802  D205000A           [172] move       23  20     
3806  62458001           [173] call       21  3   1  
380A  64C54B0A           [174] self       21  20  303  ; -1201586349
380E  62850001           [175] call       21  2   2  
3812  58050000           [176] test       21      0    ; to [178] if true
3816  1A000080           [177] jmp        1            ; to [179]
381A  8EC20407           [178] gettable   10  14  19 
381E  16840000           [179] tforloop   16      2    ; to [181] if exit
3822  1A00FD7F           [180] jmp        -11          ; to [170]
3826  64054605           [181] self       21  10  280  ; 1438910546
382A  62850001           [182] call       21  2   2  
382E  58050000           [183] test       21      0    ; to [185] if true
3832  1A000E80           [184] jmp        57           ; to [242]
3836  5DC50300           [185] getglobal  21  15       ; 538022378
383A  99850400           [186] loadk      22  18       ; 0
383E  62450001           [187] call       21  2   1  
3842  1AC0FD7F           [188] jmp        -8           ; to [181]
3846  1AC00C80           [189] jmp        52           ; to [242]
384A  4E45CA06           [190] gettable   21  13  297  ; "goalTag"
384E  9D850000           [191] getglobal  22  2        ; -332969190
3852  D9050C00           [192] loadk      23  48       ; "Apostasy"
3856  A2850001           [193] call       22  2   2  
fail op	35
385A  6380850A           [194] close      1  
385E  1A400B80           [195] jmp        46           ; to [242]
3862  D8410000           [196] test       7       1    ; to [198] if false
3866  1AC00A80           [197] jmp        44           ; to [242]
386A  64854505           [198] self       21  10  278  ; -1923578185
386E  D9C50500           [199] loadk      23  23       ; "StartPlaying"
3872  62458001           [200] call       21  3   1  
3876  64054605           [201] self       21  10  280  ; 1438910546
387A  62850001           [202] call       21  2   2  
387E  58050000           [203] test       21      0    ; to [205] if true
3882  1A000980           [204] jmp        37           ; to [242]
3886  D8420000           [205] test       11      1    ; to [207] if false
388A  1AC00080           [206] jmp        4            ; to [211]
388E  53058000           [207] getupval   21  1      
3892  62858000           [208] call       21  1   2  
3896  58050000           [209] test       21      0    ; to [211] if true
389A  1A800680           [210] jmp        27           ; to [238]
389E  5DC50300           [211] getglobal  21  15       ; 538022378
38A2  99850400           [212] loadk      22  18       ; 0
38A6  62450001           [213] call       21  2   1  
38AA  5D050000           [214] getglobal  21  0        ; gRegion
38AE  6445CC0A           [215] self       21  21  305  ; 1395335411
38B2  62850001           [216] call       21  2   2  
fail op	35
38B6  2300C50A           [217] close      0  
38BA  1A000480           [218] jmp        17           ; to [236]
38BE  5D450B00           [219] getglobal  21  45       ; 1672515847
38C2  9D050000           [220] getglobal  22  0        ; gRegion
38C6  A4854C0B           [221] self       22  22  306  ; -1807679308
38CA  1D860000           [222] getglobal  24  2        ; -332969190
38CE  59C60C00           [223] loadk      25  51       ; "GrateB"
38D2  22060001           [224] call       24  2   0  
38D6  A2050000           [225] call       22  0   0  
38DA  62050100           [226] call       21  0   4  
38DE  1A400180           [227] jmp        6            ; to [234]
38E2  A406C80C           [228] self       26  25  288  ; 2109594123
38E6  17070000           [229] loadbool   28  0   0    ; false
38EA  57078000           [230] loadbool   29  1   0    ; true
38EE  A2460002           [231] call       26  4   1  
38F2  A406CD0C           [232] self       26  25  308  ; -725453761
38F6  A2460001           [233] call       26  2   1  
38FA  56850000           [234] tforloop   21      2    ; to [236] if exit
38FE  1AC0FD7F           [235] jmp        -8           ; to [228]
3902  A4464605           [236] self       26  10  281  ; -1025779990
3906  A2460001           [237] call       26  2   1  
390A  9DC60300           [238] getglobal  26  15       ; 538022378
390E  D9860400           [239] loadk      27  18       ; 0
3912  A2460001           [240] call       26  2   1  
3916  1A80F57F           [241] jmp        -41          ; to [201]
391A  9D860200           [242] getglobal  26  10       ; gGameRules
391E  A4464D0D           [243] self       26  26  309  ; -803877924
3922  1D870000           [244] getglobal  28  2        ; -332969190
3926  59870D00           [245] loadk      29  54       ; "OpenCinDone"
392A  22870001           [246] call       28  2   2  
392E  59070500           [247] loadk      29  20       ; 0
3932  A2460002           [248] call       26  4   1  
3936  8606000D           [249] loadnil    26  26     
393A  DD860000           [250] getglobal  27  2        ; -332969190
393E  19C70D00           [251] loadk      28  55       ; "Objective"
3942  E2860001           [252] call       27  2   2  
3946  24074E04           [253] self       28  8   312  ; -317790213
394A  9D870000           [254] getglobal  30  2        ; -332969190
394E  D9470E00           [255] loadk      31  57       ; "SecondObjective"
3952  A2070001           [256] call       30  2   0  
3956  22870000           [257] call       28  0   2  
395A  64874E04           [258] self       29  8   314  ; -502414055
395E  62870001           [259] call       29  2   2  
3962  8A078000           [260] len        30  1      
fail op	21
3966  15800789           [261] concat     0   274 30 
396A  1A000180           [262] jmp        5            ; to [268]
396E  8E06C500           [263] gettable   26  1   276  ; 0
3972  9D070700           [264] getglobal  30  28       ; _T
3976  CE074502           [265] gettable   31  4   276  ; 0
397A  8CC7879D           [266] settable   30  315 31   ; "objRestate"
397E  1A800B80           [267] jmp        47           ; to [315]
fail op	33
3982  2100078A           [268] tforloop   0       28   ; to [270] if exit
3986  1AC00080           [269] jmp        4            ; to [274]
398A  9D870000           [270] getglobal  30  2        ; -332969190
398E  D9070F00           [271] loadk      31  60       ; "Boss"
3992  A2870001           [272] call       30  2   2  
3996  D206000F           [273] move       27  30     
399A  8A070000           [274] len        30  0      
399E  D9070500           [275] loadk      31  20       ; 0
39A2  19480F00           [276] loadk      32  61       ; 0
39A6  90070680           [277] forprep    30  25       ; to [303]
39AA  8E480800           [278] gettable   34  0   33 
39AE  E4484811           [279] self       35  34  289  ; -1957065004
39B2  5D890F00           [280] getglobal  37  62       ; gBaseMarkerInfoType
39B6  E2888001           [281] call       35  3   2  
39BA  D8080000           [282] test       35      0    ; to [284] if true
39BE  1A400380           [283] jmp        14           ; to [298]
39C2  E4884E11           [284] self       35  34  314  ; -502414055
39C6  E2880001           [285] call       35  2   2  
39CA  24C94F11           [286] self       36  34  319  ; 2142743474
39CE  22890001           [287] call       36  2   2  
39D2  18090000           [288] test       36      0    ; to [290] if true
39D6  1A000380           [289] jmp        13           ; to [303]
fail op	35
39DA  63408711           [290] close      1  
39DE  1A800280           [291] jmp        11           ; to [303]
39E2  1D091000           [292] getglobal  36  64       ; table
39E6  0E495012           [293] gettable   36  36  321  ; -843973282
39EA  52090000           [294] move       37  0      
39EE  92098010           [295] move       38  33     
39F2  22498001           [296] call       36  3   1  
39F6  1A000180           [297] jmp        5            ; to [303]
39FA  1D091000           [298] getglobal  36  64       ; table
39FE  0E495012           [299] gettable   36  36  321  ; -843973282
3A02  52090000           [300] move       37  0      
3A06  92098010           [301] move       38  33     
3A0A  22498001           [302] call       36  3   1  
3A0E  9447F97F           [303] forloop    30  -26      ; to [278] if loop
3A12  13090001           [304] getupval   36  2      
3A16  5209800D           [305] move       37  27     
3A1A  92090000           [306] move       38  0      
3A1E  22898001           [307] call       36  3   2  
3A22  92060012           [308] move       26  36     
3A26  1D090700           [309] getglobal  36  28       ; _T
3A2A  53090001           [310] getupval   37  2      
3A2E  9209800D           [311] move       38  27     
3A32  D2098002           [312] move       39  5      
3A36  62898001           [313] call       37  3   2  
3A3A  0C49899D           [314] settable   36  315 37   ; "objRestate"
3A3E  1D490400           [315] getglobal  36  17       ; gPromotedToHost
3A42  18090000           [316] test       36      0    ; to [318] if true
3A46  1A800080           [317] jmp        3            ; to [321]
fail op	35
3A4A  2380500E           [318] close      0  
3A4E  1A000080           [319] jmp        1            ; to [321]
3A52  1E008000           [320] return     0   1      
3A56  1D490400           [321] getglobal  36  17       ; gPromotedToHost
3A5A  18090000           [322] test       36      0    ; to [324] if true
3A5E  1A400780           [323] jmp        30           ; to [354]
fail op	35
3A62  2300450E           [324] close      0  
3A66  1AC00680           [325] jmp        28           ; to [354]
3A6A  1D090000           [326] getglobal  36  0        ; gRegion
3A6E  24C95012           [327] self       36  36  323  ; -774964848
3A72  22890001           [328] call       36  2   2  
3A76  64095112           [329] self       37  36  324  ; 537471347
3A7A  62890001           [330] call       37  2   2  
3A7E  9D090000           [331] getglobal  38  0        ; gRegion
3A82  A4494013           [332] self       38  38  257  ; -1485896174
3A86  1D8A0000           [333] getglobal  40  2        ; -332969190
3A8A  59CA0000           [334] loadk      41  3        ; "ObjectiveMarker"
3A8E  220A0001           [335] call       40  2   0  
3A92  A2890000           [336] call       38  0   2  
3A96  D3090001           [337] getupval   39  2      
3A9A  1D8A0000           [338] getglobal  40  2        ; -332969190
3A9E  590A0F00           [339] loadk      41  60       ; "Boss"
3AA2  228A0001           [340] call       40  2   2  
3AA6  520A0013           [341] move       41  38     
3AAA  E2898001           [342] call       39  3   2  
3AAE  1D4A0500           [343] getglobal  40  21       ; 1074689893
3AB2  520A8013           [344] move       41  39     
3AB6  228A0001           [345] call       40  2   2  
3ABA  184A0000           [346] test       40      1    ; to [348] if false
3ABE  1A400180           [347] jmp        6            ; to [354]
3AC2  248AC513           [348] self       40  39  278  ; -1923578185
3AC6  994A1100           [349] loadk      42  69       ; "Enable"
3ACA  224A8001           [350] call       40  3   1  
3ACE  248AD112           [351] self       40  37  326  ; -906150570
3AD2  920A8013           [352] move       42  39     
3AD6  224A8001           [353] call       40  3   1  
3ADA  1D4A0400           [354] getglobal  40  17       ; gPromotedToHost
3ADE  180A0000           [355] test       40      0    ; to [357] if true
3AE2  1AC00180           [356] jmp        8            ; to [365]
3AE6  240A4E04           [357] self       40  8   312  ; -317790213
3AEA  9D8A0000           [358] getglobal  42  2        ; -332969190
3AEE  D9CA1100           [359] loadk      43  71       ; "ExterminateMid"
3AF2  A20A0001           [360] call       42  2   0  
3AF6  228A0000           [361] call       40  0   2  
fail op	35
3AFA  63804414           [362] close      1  
3AFE  1A000080           [363] jmp        1            ; to [365]
3B02  1E008000           [364] return     0   1      
3B06  1D4A0400           [365] getglobal  40  17       ; gPromotedToHost
3B0A  180A0000           [366] test       40      0    ; to [368] if true
3B0E  1A400E80           [367] jmp        58           ; to [426]
fail op	35
3B12  2380440E           [368] close      0  
3B16  1AC00D80           [369] jmp        56           ; to [426]
3B1A  1D4A0400           [370] getglobal  40  17       ; gPromotedToHost
3B1E  180A0000           [371] test       40      0    ; to [373] if true
3B22  1A000280           [372] jmp        9            ; to [382]
3B26  1D0A0700           [373] getglobal  40  28       ; _T
3B2A  0E0A5214           [374] gettable   40  40  328  ; "reactorDestroyed"
fail op	35
3B2E  63804714           [375] close      1  
3B32  1AC00080           [376] jmp        4            ; to [381]
3B36  1D0A0700           [377] getglobal  40  28       ; _T
3B3A  0E4A5214           [378] gettable   40  40  329  ; "reactorVisible"
fail op	35
3B3E  23804714           [379] close      0  
3B42  1A000080           [380] jmp        1            ; to [382]
3B46  1E008000           [381] return     0   1      
3B4A  1D4A0400           [382] getglobal  40  17       ; gPromotedToHost
3B4E  180A0000           [383] test       40      0    ; to [385] if true
3B52  1AC00180           [384] jmp        8            ; to [393]
3B56  240A4E04           [385] self       40  8   312  ; -317790213
3B5A  9D8A0000           [386] getglobal  42  2        ; -332969190
3B5E  D98A1200           [387] loadk      43  74       ; "PayloadDelivered"
3B62  A20A0001           [388] call       42  2   0  
3B66  228A0000           [389] call       40  0   2  
fail op	35
3B6A  63804414           [390] close      1  
3B6E  1A000080           [391] jmp        1            ; to [393]
3B72  1E008000           [392] return     0   1      
3B76  1D4A0400           [393] getglobal  40  17       ; gPromotedToHost
3B7A  180A0000           [394] test       40      0    ; to [396] if true
3B7E  1AC00180           [395] jmp        8            ; to [404]
3B82  240A4E04           [396] self       40  8   312  ; -317790213
3B86  9D8A0000           [397] getglobal  42  2        ; -332969190
3B8A  D9CA1200           [398] loadk      43  75       ; "DataStolen"
3B8E  A20A0001           [399] call       42  2   0  
3B92  228A0000           [400] call       40  0   2  
fail op	35
3B96  63804414           [401] close      1  
3B9A  1A000080           [402] jmp        1            ; to [404]
3B9E  1E008000           [403] return     0   1      
3BA2  1D4A0400           [404] getglobal  40  17       ; gPromotedToHost
3BA6  180A0000           [405] test       40      0    ; to [407] if true
3BAA  1AC00180           [406] jmp        8            ; to [415]
3BAE  240A4E04           [407] self       40  8   312  ; -317790213
3BB2  9D8A0000           [408] getglobal  42  2        ; -332969190
3BB6  D90A1300           [409] loadk      43  76       ; "TargetSpawned"
3BBA  A20A0001           [410] call       42  2   0  
3BBE  228A0000           [411] call       40  0   2  
fail op	35
3BC2  63804414           [412] close      1  
3BC6  1A000080           [413] jmp        1            ; to [415]
3BCA  1E008000           [414] return     0   1      
3BCE  1D4A0400           [415] getglobal  40  17       ; gPromotedToHost
3BD2  180A0000           [416] test       40      0    ; to [418] if true
3BD6  1AC00180           [417] jmp        8            ; to [426]
3BDA  240A4E04           [418] self       40  8   312  ; -317790213
3BDE  9D8A0000           [419] getglobal  42  2        ; -332969190
3BE2  D94A1300           [420] loadk      43  77       ; "SAB_DONE"
3BE6  A20A0001           [421] call       42  2   0  
3BEA  228A0000           [422] call       40  0   2  
fail op	35
3BEE  63804414           [423] close      1  
3BF2  1A000080           [424] jmp        1            ; to [426]
3BF6  1E008000           [425] return     0   1      
3BFA  1D4A0400           [426] getglobal  40  17       ; gPromotedToHost
3BFE  184A0000           [427] test       40      1    ; to [429] if false
3C02  1A400380           [428] jmp        14           ; to [443]
3C06  248A4E04           [429] self       40  8   314  ; -502414055
3C0A  228A0001           [430] call       40  2   2  
3C0E  5D8A1300           [431] getglobal  41  78       ; Lotus_Game
3C12  4ECAD314           [432] gettable   41  41  335  ; "MT_RECOVERY"
fail op	35
3C16  63400A14           [433] close      1  
3C1A  1AC00180           [434] jmp        8            ; to [443]
3C1E  1D4A0500           [435] getglobal  40  21       ; 1074689893
3C22  520A000D           [436] move       41  26     
3C26  228A0001           [437] call       40  2   2  
3C2A  184A0000           [438] test       40      1    ; to [440] if false
3C2E  1A800080           [439] jmp        3            ; to [443]
3C32  248A450D           [440] self       40  26  278  ; -1923578185
3C36  994A1100           [441] loadk      42  69       ; "Enable"
3C3A  224A8001           [442] call       40  3   1  
3C3E  060A8014           [443] loadnil    40  41     
3C42  9D0A1400           [444] getglobal  42  80       ; isArchwingMission
3C46  980A0000           [445] test       42      0    ; to [447] if true
3C4A  1A800F80           [446] jmp        63           ; to [510]
3C4E  994A1400           [447] loadk      42  81       ; "ExterminateMode"
3C52  DD8A1300           [448] getglobal  43  78       ; Lotus_Game
3C56  CE8AD415           [449] gettable   43  43  338  ; "MT_TERRITORY"
fail op	35
3C5A  23C08A0E           [450] close      0  
3C5E  1A400080           [451] jmp        2            ; to [454]
3C62  99CA1400           [452] loadk      42  83       ; "TerritoryMode"
3C66  1A000980           [453] jmp        37           ; to [491]
3C6A  DD8A1300           [454] getglobal  43  78       ; Lotus_Game
3C6E  CE0AD515           [455] gettable   43  43  340  ; "MT_SABOTAGE"
fail op	35
3C72  23C08A0E           [456] close      0  
3C76  1A400080           [457] jmp        2            ; to [460]
3C7A  994A1500           [458] loadk      42  85       ; "SabotageMode"
3C7E  1A800780           [459] jmp        31           ; to [491]
3C82  DD8A1300           [460] getglobal  43  78       ; Lotus_Game
3C86  CE8AD515           [461] gettable   43  43  342  ; "MT_DEFENSE"
fail op	35
3C8A  23C08A0E           [462] close      0  
3C8E  1A400080           [463] jmp        2            ; to [466]
3C92  99CA1500           [464] loadk      42  87       ; "DefenseMode"
3C96  1A000680           [465] jmp        25           ; to [491]
3C9A  DD8A1300           [466] getglobal  43  78       ; Lotus_Game
3C9E  CE0AD615           [467] gettable   43  43  344  ; "MT_MOBILE_DEFENSE"
fail op	35
3CA2  23C08A0E           [468] close      0  
3CA6  1A400080           [469] jmp        2            ; to [472]
3CAA  994A1600           [470] loadk      42  89       ; "ObjectiveTriggerMobileDefense"
3CAE  1A800480           [471] jmp        19           ; to [491]
3CB2  DD8A1300           [472] getglobal  43  78       ; Lotus_Game
3CB6  CE8AD615           [473] gettable   43  43  346  ; "MT_PURSUIT"
fail op	35
3CBA  23C08A0E           [474] close      0  
3CBE  1A400080           [475] jmp        2            ; to [478]
3CC2  99CA1600           [476] loadk      42  91       ; "PursuitMode"
3CC6  1A000380           [477] jmp        13           ; to [491]
3CCA  DD8A1300           [478] getglobal  43  78       ; Lotus_Game
3CCE  CE0AD715           [479] gettable   43  43  348  ; "MT_RAID"
fail op	35
3CD2  23C08A0E           [480] close      0  
3CD6  1AC00080           [481] jmp        4            ; to [486]
3CDA  994A1700           [482] loadk      42  93       ; "RaidMode"
3CDE  DD0A0700           [483] getglobal  43  28       ; _T
3CE2  CCCA57AF           [484] settable   43  350 351  ; "AllowWrinkles" 0
3CE6  1A000180           [485] jmp        5            ; to [491]
3CEA  DD8A1300           [486] getglobal  43  78       ; Lotus_Game
3CEE  CE0AD815           [487] gettable   43  43  352  ; "MT_RACE"
fail op	35
3CF2  23C08A0E           [488] close      0  
3CF6  1A000080           [489] jmp        1            ; to [491]
3CFA  994A1800           [490] loadk      42  97       ; "RaceMission"
3CFE  DD0A0000           [491] getglobal  43  0        ; gRegion
3D02  E44AC015           [492] self       43  43  257  ; -1485896174
3D06  5D8B0000           [493] getglobal  45  2        ; -332969190
3D0A  920B0015           [494] move       46  42     
3D0E  620B0001           [495] call       45  2   0  
3D12  E28A0000           [496] call       43  0   2  
3D16  1D4B0500           [497] getglobal  44  21       ; 1074689893
3D1A  520B8015           [498] move       45  43     
3D1E  228B0001           [499] call       44  2   2  
3D22  184B0000           [500] test       44      1    ; to [502] if false
3D26  1A403C80           [501] jmp        242          ; to [744]
3D2A  0A0B8015           [502] len        44  43     
fail op	21
3D2E  15000B89           [503] concat     0   274 44 
3D32  1A803B80           [504] jmp        239          ; to [744]
3D36  0E0BC515           [505] gettable   44  43  276  ; 0
3D3A  248B4516           [506] self       44  44  278  ; -1923578185
3D3E  998B1800           [507] loadk      46  98       ; "Execute"
3D42  224B8001           [508] call       44  3   1  
3D46  1A403A80           [509] jmp        234          ; to [744]
3D4A  1D8B1300           [510] getglobal  44  78       ; Lotus_Game
3D4E  0E0B5716           [511] gettable   44  44  348  ; "MT_RAID"
fail op	35
3D52  23008B0E           [512] close      0  
3D56  1A000780           [513] jmp        29           ; to [543]
3D5A  1D0B0700           [514] getglobal  44  28       ; _T
3D5E  0CCB57AF           [515] settable   44  350 351  ; "AllowWrinkles" 0
3D62  1D0B0000           [516] getglobal  44  0        ; gRegion
3D66  24CB5816           [517] self       44  44  355  ; -1875307917
3D6A  9D8B0000           [518] getglobal  46  2        ; -332969190
3D6E  D94B1700           [519] loadk      47  93       ; "RaidMode"
3D72  A20B0001           [520] call       46  2   0  
3D76  228B0000           [521] call       44  0   2  
3D7A  5D4B0500           [522] getglobal  45  21       ; 1074689893
3D7E  920B0016           [523] move       46  44     
3D82  628B0001           [524] call       45  2   2  
3D86  580B0000           [525] test       45      0    ; to [527] if true
3D8A  1A800180           [526] jmp        7            ; to [534]
3D8E  5D0B0000           [527] getglobal  45  0        ; gRegion
3D92  64CBD816           [528] self       45  45  355  ; -1875307917
3D96  DD8B0000           [529] getglobal  47  2        ; -332969190
3D9A  190C1900           [530] loadk      48  100      ; "RaidTest"
3D9E  E20B0001           [531] call       47  2   0  
3DA2  628B0000           [532] call       45  0   2  
3DA6  120B8016           [533] move       44  45     
3DAA  5D4B0500           [534] getglobal  45  21       ; 1074689893
3DAE  920B0016           [535] move       46  44     
3DB2  628B0001           [536] call       45  2   2  
3DB6  584B0000           [537] test       45      1    ; to [539] if false
3DBA  1A003380           [538] jmp        205          ; to [744]
3DBE  648B4516           [539] self       45  44  278  ; -1923578185
3DC2  D98B1800           [540] loadk      47  98       ; "Execute"
3DC6  624B8001           [541] call       45  3   1  
3DCA  1A003280           [542] jmp        201          ; to [744]
3DCE  5D8B1300           [543] getglobal  45  78       ; Lotus_Game
3DD2  4E4BD916           [544] gettable   45  45  357  ; "MT_LANDSCAPE"
fail op	35
3DD6  23408B0E           [545] close      0  
3DDA  1AC00380           [546] jmp        16           ; to [563]
3DDE  5D0B0000           [547] getglobal  45  0        ; gRegion
3DE2  64CBD816           [548] self       45  45  355  ; -1875307917
3DE6  DD8B0000           [549] getglobal  47  2        ; -332969190
3DEA  198C1900           [550] loadk      48  102      ; "InitLandscape"
3DEE  E20B0001           [551] call       47  2   0  
3DF2  628B0000           [552] call       45  0   2  
3DF6  9D4B0500           [553] getglobal  46  21       ; 1074689893
3DFA  D20B8016           [554] move       47  45     
3DFE  A28B0001           [555] call       46  2   2  
3E02  984B0000           [556] test       46      1    ; to [558] if false
3E06  1A800080           [557] jmp        3            ; to [561]
3E0A  A48BC516           [558] self       46  45  278  ; -1923578185
3E0E  198C1800           [559] loadk      48  98       ; "Execute"
3E12  A24B8001           [560] call       46  3   1  
3E16  1E008000           [561] return     0   1      
3E1A  1A002D80           [562] jmp        181          ; to [744]
3E1E  9D8B0200           [563] getglobal  46  10       ; gGameRules
3E22  A4CB4217           [564] self       46  46  267  ; -1201441975
3E26  A28B0001           [565] call       46  2   2  
3E2A  D70B0000           [566] loadbool   47  0   0    ; false
3E2E  1D4C0500           [567] getglobal  48  21       ; 1074689893
3E32  4ECC5917           [568] gettable   49  46  359  ; "levelOverride"
3E36  228C0001           [569] call       48  2   2  
3E3A  180C0000           [570] test       48      0    ; to [572] if true
3E3E  1A000080           [571] jmp        1            ; to [573]
3E42  120C8017           [572] move       48  47     
3E46  4A0C8001           [573] len        49  3      
fail op	21
3E4A  15400C89           [574] concat     0   274 49 
3E4E  1A400580           [575] jmp        22           ; to [598]
3E52  5D8C1300           [576] getglobal  49  78       ; Lotus_Game
3E56  4E0CDA18           [577] gettable   49  49  360  ; "MT_ASSASSINATION"
fail op	35
3E5A  23408C0E           [578] close      0  
3E5E  1A400480           [579] jmp        18           ; to [598]
3E62  184C0000           [580] test       48      1    ; to [582] if false
3E66  1AC00380           [581] jmp        16           ; to [598]
3E6A  0E0AC501           [582] gettable   40  3   276  ; 0
3E6E  5D0C0000           [583] getglobal  49  0        ; gRegion
3E72  644CC018           [584] self       49  49  257  ; -1485896174
3E76  DD8C0000           [585] getglobal  51  2        ; -332969190
3E7A  194D1A00           [586] loadk      52  105      ; "VayHekSetup"
3E7E  E20C0001           [587] call       51  2   0  
3E82  628C0000           [588] call       49  0   2  
3E86  520A8018           [589] move       41  49     
3E8A  4A0C8014           [590] len        49  41     
fail op	21
3E8E  15400C89           [591] concat     0   274 49 
3E92  1AC01780           [592] jmp        96           ; to [689]
3E96  4E0CC514           [593] gettable   49  41  276  ; 0
3E9A  648CC518           [594] self       49  49  278  ; -1923578185
3E9E  D98C1800           [595] loadk      51  98       ; "Execute"
3EA2  624C8001           [596] call       49  3   1  
3EA6  1A801680           [597] jmp        91           ; to [689]
3EAA  5D8C1300           [598] getglobal  49  78       ; Lotus_Game
3EAE  4E0CD618           [599] gettable   49  49  344  ; "MT_MOBILE_DEFENSE"
fail op	35
3EB2  23408C0E           [600] close      0  
3EB6  1A400580           [601] jmp        22           ; to [624]
3EBA  5D0C0000           [602] getglobal  49  0        ; gRegion
3EBE  644CC018           [603] self       49  49  257  ; -1485896174
3EC2  DD8C0000           [604] getglobal  51  2        ; -332969190
3EC6  194D1600           [605] loadk      52  89       ; "ObjectiveTriggerMobileDefense"
3ECA  E20C0001           [606] call       51  2   0  
3ECE  628C0000           [607] call       49  0   2  
3ED2  9D4C0500           [608] getglobal  50  21       ; 1074689893
3ED6  D20C8018           [609] move       51  49     
3EDA  A28C0001           [610] call       50  2   2  
3EDE  984C0000           [611] test       50      1    ; to [613] if false
3EE2  1A000180           [612] jmp        5            ; to [618]
3EE6  8A0C8018           [613] len        50  49     
fail op	21
3EEA  15800C89           [614] concat     0   274 50 
3EEE  1A400080           [615] jmp        2            ; to [618]
3EF2  0E0AC518           [616] gettable   40  49  276  ; 0
3EF6  1A801180           [617] jmp        71           ; to [689]
3EFA  930C0001           [618] getupval   50  2      
3EFE  D20C800D           [619] move       51  27     
3F02  120D0001           [620] move       52  2      
3F06  A28C8001           [621] call       50  3   2  
3F0A  120A0019           [622] move       40  50     
3F0E  1A001080           [623] jmp        65           ; to [689]
3F12  9D8C1300           [624] getglobal  50  78       ; Lotus_Game
3F16  8E8C5A19           [625] gettable   50  50  362  ; "MT_PURIFY"
fail op	35
3F1A  23808C0E           [626] close      0  
3F1E  1AC00180           [627] jmp        8            ; to [636]
3F22  9D0C0000           [628] getglobal  50  0        ; gRegion
3F26  A4CC5819           [629] self       50  50  355  ; -1875307917
3F2A  1D8D0000           [630] getglobal  52  2        ; -332969190
3F2E  59CD1A00           [631] loadk      53  107      ; "PurifyMode"
3F32  220D0001           [632] call       52  2   0  
3F36  A28C0000           [633] call       50  0   2  
3F3A  120A0019           [634] move       40  50     
3F3E  1A000D80           [635] jmp        53           ; to [689]
3F42  9D8C1300           [636] getglobal  50  78       ; Lotus_Game
3F46  8E0C5B19           [637] gettable   50  50  364  ; "MT_ARENA"
fail op	35
3F4A  23808C0E           [638] close      0  
3F4E  1AC00180           [639] jmp        8            ; to [648]
3F52  9D0C0000           [640] getglobal  50  0        ; gRegion
3F56  A4CC5819           [641] self       50  50  355  ; -1875307917
3F5A  1D8D0000           [642] getglobal  52  2        ; -332969190
3F5E  594D1B00           [643] loadk      53  109      ; "ArenaMode"
3F62  220D0001           [644] call       52  2   0  
3F66  A28C0000           [645] call       50  0   2  
3F6A  120A0019           [646] move       40  50     
3F6E  1A000A80           [647] jmp        41           ; to [689]
3F72  8B0C8000           [648] newtable   50  1   0    ; array=1, hash=0
3F76  D20C800D           [649] move       51  27     
3F7A  1D8D0000           [650] getglobal  52  2        ; -332969190
3F7E  590D0F00           [651] loadk      53  60       ; "Boss"
3F82  220D0001           [652] call       52  2   0  
3F86  9B4C0000           [653] setlist    50  0   1    ; index 1 to top
3F8A  DD4C0B00           [654] getglobal  51  45       ; 1672515847
3F8E  120D0019           [655] move       52  50     
3F92  E20C0101           [656] call       51  2   4  
3F96  1A000780           [657] jmp        29           ; to [687]
3F9A  130E8001           [658] getupval   56  3      
3F9E  520E801B           [659] move       57  55     
3FA2  920E0001           [660] move       58  2      
3FA6  228E8001           [661] call       56  3   2  
3FAA  4A0E001C           [662] len        57  56     
3FAE  990E0500           [663] loadk      58  20       ; 0
3FB2  D94E0F00           [664] loadk      59  61       ; 0
3FB6  504E0280           [665] forprep    57  10       ; to [676]
3FBA  4E0F0F1C           [666] gettable   61  56  60 
3FBE  648FDB1E           [667] self       61  61  366  ; -1318948062
3FC2  628F0001           [668] call       61  2   2  
3FC6  584F0000           [669] test       61      1    ; to [671] if false
3FCA  1A000180           [670] jmp        5            ; to [676]
3FCE  5D0F1000           [671] getglobal  61  64       ; table
3FD2  4E4FD01E           [672] gettable   61  61  321  ; -843973282
3FD6  920F001C           [673] move       62  56     
3FDA  D20F001E           [674] move       63  60     
3FDE  624F8001           [675] call       61  3   1  
3FE2  540EFD7F           [676] forloop    57  -11      ; to [666] if loop
3FE6  5D4F0500           [677] getglobal  61  21       ; 1074689893
3FEA  920F001C           [678] move       62  56     
3FEE  628F0001           [679] call       61  2   2  
3FF2  584F0000           [680] test       61      1    ; to [682] if false
3FF6  1A000180           [681] jmp        5            ; to [687]
3FFA  4A0F001C           [682] len        61  56     
fail op	21
3FFE  15400F89           [683] concat     0   274 61 
4002  1A400080           [684] jmp        2            ; to [687]
4006  0E0A451C           [685] gettable   40  56  276  ; 0
400A  1A400080           [686] jmp        2            ; to [689]
400E  D68C0000           [687] tforloop   51      2    ; to [689] if exit
4012  1A00F87F           [688] jmp        -31          ; to [658]
4016  5D4F0500           [689] getglobal  61  21       ; 1074689893
401A  920F0014           [690] move       62  40     
401E  628F0001           [691] call       61  2   2  
4022  584F0000           [692] test       61      1    ; to [694] if false
4026  1AC00080           [693] jmp        4            ; to [698]
402A  648F4514           [694] self       61  40  278  ; -1923578185
402E  D98F1800           [695] loadk      63  98       ; "Execute"
4032  624F8001           [696] call       61  3   1  
4036  1A400B80           [697] jmp        46           ; to [744]
403A  5D8F1300           [698] getglobal  61  78       ; Lotus_Game
403E  4ECFD31E           [699] gettable   61  61  335  ; "MT_RECOVERY"
fail op	35
4042  63408F0E           [700] close      1  
4046  1A400A80           [701] jmp        42           ; to [744]
404A  5D8F1300           [702] getglobal  61  78       ; Lotus_Game
404E  4ECFDB1E           [703] gettable   61  61  367  ; "MT_GENERIC"
fail op	35
4052  63408F0E           [704] close      1  
4056  1A400980           [705] jmp        38           ; to [744]
405A  460F801E           [706] loadnil    61  61     
405E  9D0F0000           [707] getglobal  62  0        ; gRegion
4062  A44F401F           [708] self       62  62  257  ; -1485896174
4066  1D900000           [709] getglobal  64  2        ; -332969190
406A  59101C00           [710] loadk      65  112      ; "ObjectiveExterminateMain"
406E  22100001           [711] call       64  2   0  
4072  A28F0000           [712] call       62  0   2  
4076  DD4F0500           [713] getglobal  63  21       ; 1074689893
407A  1210001F           [714] move       64  62     
407E  E28F0001           [715] call       63  2   2  
4082  D84F0000           [716] test       63      1    ; to [718] if false
4086  1A000080           [717] jmp        1            ; to [719]
408A  4E0F451F           [718] gettable   61  62  276  ; 0
408E  DD0F0000           [719] getglobal  63  0        ; gRegion
4092  E44FC01F           [720] self       63  63  257  ; -1485896174
4096  5D900000           [721] getglobal  65  2        ; -332969190
409A  99501C00           [722] loadk      66  113      ; "eventTrigger"
409E  62100001           [723] call       65  2   0  
40A2  E28F0000           [724] call       63  0   2  
40A6  D80F0000           [725] test       63      0    ; to [727] if true
40AA  1A000280           [726] jmp        9            ; to [736]
40AE  1D500500           [727] getglobal  64  21       ; 1074689893
40B2  4E10C51F           [728] gettable   65  63  276  ; 0
40B6  22900001           [729] call       64  2   2  
40BA  18500000           [730] test       64      1    ; to [732] if false
40BE  1AC00080           [731] jmp        4            ; to [736]
40C2  0E10C51F           [732] gettable   64  63  276  ; 0
40C6  24904520           [733] self       64  64  278  ; -1923578185
40CA  99901800           [734] loadk      66  98       ; "Execute"
40CE  22508001           [735] call       64  3   1  
40D2  1D500500           [736] getglobal  64  21       ; 1074689893
40D6  5210801E           [737] move       65  61     
40DA  22900001           [738] call       64  2   2  
40DE  18500000           [739] test       64      1    ; to [741] if false
40E2  1A800080           [740] jmp        3            ; to [744]
40E6  2490C51E           [741] self       64  61  278  ; -1923578185
40EA  99901800           [742] loadk      66  98       ; "Execute"
40EE  22508001           [743] call       64  3   1  
40F2  1E008000           [744] return     0   1      
                         * constants:
40F6  72                 sizek (114)
40F7  04                 const type 4
40F8  08                 string size (8)
40F9  67526567696F6E00   "gRegion\0"
                         const [0]: "gRegion"
4101  01                 const type 3
4102  12066FA7           const [1]: (-1485896174)
4106  01                 const type 3
4107  1A4B27EC           const [2]: (-332969190)
410B  04                 const type 4
410C  10                 string size (16)
410D  4F626A6563746976+  "Objectiv"
4115  654D61726B657200   "eMarker\0"
                         const [3]: "ObjectiveMarker"
411D  04                 const type 4
411E  0F                 string size (15)
411F  417373617373696E+  "Assassin"
4127  4D61726B657200     "Marker\0"
                         const [4]: "AssassinMarker"
412E  04                 const type 4
412F  11                 string size (17)
4130  4F626A6563746976+  "Objectiv"
4138  6554726967676572+  "eTrigger"
4140  00                 "\0"
                         const [5]: "ObjectiveTrigger"
4141  04                 const type 4
4142  15                 string size (21)
4143  417373617373696E+  "Assassin"
414B  6174654F626A6563+  "ateObjec"
4153  7469766500         "tive\0"
                         const [6]: "AssassinateObjective"
4158  04                 const type 4
4159  10                 string size (16)
415A  417373617373696E+  "Assassin"
4162  5265737461746500   "Restate\0"
                         const [7]: "AssassinRestate"
416A  04                 const type 4
416B  11                 string size (17)
416C  4F626A6563746976+  "Objectiv"
4174  6552657374617465+  "eRestate"
417C  00                 "\0"
                         const [8]: "ObjectiveRestate"
417D  04                 const type 4
417E  06                 string size (6)
417F  466C79496E00       "FlyIn\0"
                         const [9]: "FlyIn"
4185  04                 const type 4
4186  0B                 string size (11)
4187  6747616D6552756C+  "gGameRul"
418F  657300             "es\0"
                         const [10]: "gGameRules"
4192  01                 const type 3
4193  497363B8           const [11]: (-1201441975)
4197  04                 const type 4
4198  10                 string size (16)
4199  737061776E41734F+  "spawnAsO"
41A1  70657261746F7200   "perator\0"
                         const [12]: "spawnAsOperator"
41A9  01                 const type 3
41AA  879F17FA           const [13]: (-99115129)
41AE  01                 const type 3
41AF  F74CD933           const [14]: (869879031)
41B3  01                 const type 3
41B4  EA911120           const [15]: (538022378)
41B8  03                 const type 3
41B9  CDCCCC3D           const [16]: (-51)
41BD  04                 const type 4
41BE  10                 string size (16)
41BF  6750726F6D6F7465+  "gPromote"
41C7  64546F486F737400   "dToHost\0"
                         const [17]: "gPromotedToHost"
41CF  03                 const type 3
41D0  00000000           const [18]: (0)
41D4  01                 const type 3
41D5  7DB5D47F           const [19]: (2144646525)
41D9  03                 const type 3
41DA  0000803F           const [20]: (0)
41DE  01                 const type 3
41DF  65770E40           const [21]: (1074689893)
41E3  01                 const type 3
41E4  B786588D           const [22]: (-1923578185)
41E8  04                 const type 4
41E9  0D                 string size (13)
41EA  5374617274506C61+  "StartPla"
41F2  79696E6700         "ying\0"
                         const [23]: "StartPlaying"
41F7  01                 const type 3
41F8  5208C455           const [24]: (1438910546)
41FC  01                 const type 3
41FD  EAD6DBC2           const [25]: (-1025779990)
4201  01                 const type 3
4202  738DC8C6           const [26]: (-959935117)
4206  01                 const type 3
4207  BFF6E203           const [27]: (65205951)
420B  04                 const type 4
420C  03                 string size (3)
420D  5F5400             "_T\0"
                         const [28]: "_T"
4210  04                 const type 4
4211  13                 string size (19)
4212  486964655472616E+  "HideTran"
421A  73666572656E6365+  "sference"
4222  467800             "Fx\0"
                         const [29]: "HideTransferenceFx"
4225  01                 const type 3
4226  01000000           const [30]: (1)
422A  01                 const type 3
422B  6623EFE0           const [31]: (-521198746)
422F  01                 const type 3
4230  0BDABD7D           const [32]: (2109594123)
4234  01                 const type 3
4235  D48E598B           const [33]: (-1957065004)
4239  04                 const type 4
423A  19                 string size (25)
423B  674C6F7475734F70+  "gLotusOp"
4243  657261746F724176+  "eratorAv"
424B  6174617254797065+  "atarType"
4253  00                 "\0"
                         const [34]: "gLotusOperatorAvatarType"
4254  01                 const type 3
4255  9B06F6A3           const [35]: (-1544157541)
4259  01                 const type 3
425A  73215CA9           const [36]: (-1453579917)
425E  01                 const type 3
425F  122F2CAB           const [37]: (-1423167726)
4263  01                 const type 3
4264  63A9094D           const [38]: (1292478819)
4268  01                 const type 3
4269  C954CA93           const [39]: (-1815456567)
426D  04                 const type 4
426E  0B                 string size (11)
426F  4F70656E696E6743+  "OpeningC"
4277  696E00             "in\0"
                         const [40]: "OpeningCin"
427A  04                 const type 4
427B  08                 string size (8)
427C  676F616C54616700   "goalTag\0"
                         const [41]: "goalTag"
4284  04                 const type 4
4285  17                 string size (23)
4286  52656C6179526563+  "RelayRec"
428E  6F6E737472756374+  "onstruct"
4296  696F6E54776F00     "ionTwo\0"
                         const [42]: "RelayReconstructionTwo"
429D  04                 const type 4
429E  08                 string size (8)
429F  4F70656E43696E00   "OpenCin\0"
                         const [43]: "OpenCin"
42A7  01                 const type 3
42A8  E09F8C84           const [44]: (-2071158816)
42AC  01                 const type 3
42AD  0791B063           const [45]: (1672515847)
42B1  01                 const type 3
42B2  F1CFA028           const [46]: (681627633)
42B6  01                 const type 3
42B7  533F61B8           const [47]: (-1201586349)
42BB  04                 const type 4
42BC  09                 string size (9)
42BD  41706F7374617379+  "Apostasy"
42C5  00                 "\0"
                         const [48]: "Apostasy"
42C6  01                 const type 3
42C7  F3202B53           const [49]: (1395335411)
42CB  01                 const type 3
42CC  B4004194           const [50]: (-1807679308)
42D0  04                 const type 4
42D1  07                 string size (7)
42D2  47726174654200     "GrateB\0"
                         const [51]: "GrateB"
42D9  01                 const type 3
42DA  3F74C2D4           const [52]: (-725453761)
42DE  01                 const type 3
42DF  DCCB15D0           const [53]: (-803877924)
42E3  04                 const type 4
42E4  0C                 string size (12)
42E5  4F70656E43696E44+  "OpenCinD"
42ED  6F6E6500           "one\0"
                         const [54]: "OpenCinDone"
42F1  04                 const type 4
42F2  0A                 string size (10)
42F3  4F626A6563746976+  "Objectiv"
42FB  6500               "e\0"
                         const [55]: "Objective"
42FD  01                 const type 3
42FE  FBE70EED           const [56]: (-317790213)
4302  04                 const type 4
4303  10                 string size (16)
4304  5365636F6E644F62+  "SecondOb"
430C  6A65637469766500   "jective\0"
                         const [57]: "SecondObjective"
4314  01                 const type 3
4315  19C50DE2           const [58]: (-502414055)
4319  04                 const type 4
431A  0B                 string size (11)
431B  6F626A5265737461+  "objResta"
4323  746500             "te\0"
                         const [59]: "objRestate"
4326  04                 const type 4
4327  05                 string size (5)
4328  426F737300         "Boss\0"
                         const [60]: "Boss"
432D  03                 const type 3
432E  000080BF           const [61]: (0)
4332  04                 const type 4
4333  14                 string size (20)
4334  67426173654D6172+  "gBaseMar"
433C  6B6572496E666F54+  "kerInfoT"
4344  79706500           "ype\0"
                         const [62]: "gBaseMarkerInfoType"
4348  01                 const type 3
4349  B2ABB77F           const [63]: (2142743474)
434D  04                 const type 4
434E  06                 string size (6)
434F  7461626C6500       "table\0"
                         const [64]: "table"
4355  01                 const type 3
4356  5EFDB1CD           const [65]: (-843973282)
435A  03                 const type 3
435B  00000040           const [66]: (0)
435F  01                 const type 3
4360  90F9CED1           const [67]: (-774964848)
4364  01                 const type 3
4365  73290920           const [68]: (537471347)
4369  04                 const type 4
436A  07                 string size (7)
436B  456E61626C6500     "Enable\0"
                         const [69]: "Enable"
4372  01                 const type 3
4373  563DFDC9           const [70]: (-906150570)
4377  04                 const type 4
4378  0F                 string size (15)
4379  45787465726D696E+  "Extermin"
4381  6174654D696400     "ateMid\0"
                         const [71]: "ExterminateMid"
4388  04                 const type 4
4389  11                 string size (17)
438A  72656163746F7244+  "reactorD"
4392  657374726F796564+  "estroyed"
439A  00                 "\0"
                         const [72]: "reactorDestroyed"
439B  04                 const type 4
439C  0F                 string size (15)
439D  72656163746F7256+  "reactorV"
43A5  697369626C6500     "isible\0"
                         const [73]: "reactorVisible"
43AC  04                 const type 4
43AD  11                 string size (17)
43AE  5061796C6F616444+  "PayloadD"
43B6  656C697665726564+  "elivered"
43BE  00                 "\0"
                         const [74]: "PayloadDelivered"
43BF  04                 const type 4
43C0  0B                 string size (11)
43C1  4461746153746F6C+  "DataStol"
43C9  656E00             "en\0"
                         const [75]: "DataStolen"
43CC  04                 const type 4
43CD  0E                 string size (14)
43CE  5461726765745370+  "TargetSp"
43D6  61776E656400       "awned\0"
                         const [76]: "TargetSpawned"
43DC  04                 const type 4
43DD  09                 string size (9)
43DE  5341425F444F4E45+  "SAB_DONE"
43E6  00                 "\0"
                         const [77]: "SAB_DONE"
43E7  04                 const type 4
43E8  0B                 string size (11)
43E9  4C6F7475735F4761+  "Lotus_Ga"
43F1  6D6500             "me\0"
                         const [78]: "Lotus_Game"
43F4  04                 const type 4
43F5  0C                 string size (12)
43F6  4D545F5245434F56+  "MT_RECOV"
43FE  45525900           "ERY\0"
                         const [79]: "MT_RECOVERY"
4402  04                 const type 4
4403  12                 string size (18)
4404  6973417263687769+  "isArchwi"
440C  6E674D697373696F+  "ngMissio"
4414  6E00               "n\0"
                         const [80]: "isArchwingMission"
4416  04                 const type 4
4417  10                 string size (16)
4418  45787465726D696E+  "Extermin"
4420  6174654D6F646500   "ateMode\0"
                         const [81]: "ExterminateMode"
4428  04                 const type 4
4429  0D                 string size (13)
442A  4D545F5445525249+  "MT_TERRI"
4432  544F525900         "TORY\0"
                         const [82]: "MT_TERRITORY"
4437  04                 const type 4
4438  0E                 string size (14)
4439  5465727269746F72+  "Territor"
4441  794D6F646500       "yMode\0"
                         const [83]: "TerritoryMode"
4447  04                 const type 4
4448  0C                 string size (12)
4449  4D545F5341424F54+  "MT_SABOT"
4451  41474500           "AGE\0"
                         const [84]: "MT_SABOTAGE"
4455  04                 const type 4
4456  0D                 string size (13)
4457  5361626F74616765+  "Sabotage"
445F  4D6F646500         "Mode\0"
                         const [85]: "SabotageMode"
4464  04                 const type 4
4465  0B                 string size (11)
4466  4D545F444546454E+  "MT_DEFEN"
446E  534500             "SE\0"
                         const [86]: "MT_DEFENSE"
4471  04                 const type 4
4472  0C                 string size (12)
4473  446566656E73654D+  "DefenseM"
447B  6F646500           "ode\0"
                         const [87]: "DefenseMode"
447F  04                 const type 4
4480  12                 string size (18)
4481  4D545F4D4F42494C+  "MT_MOBIL"
4489  455F444546454E53+  "E_DEFENS"
4491  4500               "E\0"
                         const [88]: "MT_MOBILE_DEFENSE"
4493  04                 const type 4
4494  1E                 string size (30)
4495  4F626A6563746976+  "Objectiv"
449D  6554726967676572+  "eTrigger"
44A5  4D6F62696C654465+  "MobileDe"
44AD  66656E736500       "fense\0"
                         const [89]: "ObjectiveTriggerMobileDefense"
44B3  04                 const type 4
44B4  0B                 string size (11)
44B5  4D545F5055525355+  "MT_PURSU"
44BD  495400             "IT\0"
                         const [90]: "MT_PURSUIT"
44C0  04                 const type 4
44C1  0C                 string size (12)
44C2  507572737569744D+  "PursuitM"
44CA  6F646500           "ode\0"
                         const [91]: "PursuitMode"
44CE  04                 const type 4
44CF  08                 string size (8)
44D0  4D545F5241494400   "MT_RAID\0"
                         const [92]: "MT_RAID"
44D8  04                 const type 4
44D9  09                 string size (9)
44DA  526169644D6F6465+  "RaidMode"
44E2  00                 "\0"
                         const [93]: "RaidMode"
44E3  04                 const type 4
44E4  0E                 string size (14)
44E5  416C6C6F77577269+  "AllowWri"
44ED  6E6B6C657300       "nkles\0"
                         const [94]: "AllowWrinkles"
44F3  01                 const type 3
44F4  00000000           const [95]: (0)
44F8  04                 const type 4
44F9  08                 string size (8)
44FA  4D545F5241434500   "MT_RACE\0"
                         const [96]: "MT_RACE"
4502  04                 const type 4
4503  0C                 string size (12)
4504  526163654D697373+  "RaceMiss"
450C  696F6E00           "ion\0"
                         const [97]: "RaceMission"
4510  04                 const type 4
4511  08                 string size (8)
4512  4578656375746500   "Execute\0"
                         const [98]: "Execute"
451A  01                 const type 3
451B  73123990           const [99]: (-1875307917)
451F  04                 const type 4
4520  09                 string size (9)
4521  5261696454657374+  "RaidTest"
4529  00                 "\0"
                         const [100]: "RaidTest"
452A  04                 const type 4
452B  0D                 string size (13)
452C  4D545F4C414E4453+  "MT_LANDS"
4534  4341504500         "CAPE\0"
                         const [101]: "MT_LANDSCAPE"
4539  04                 const type 4
453A  0E                 string size (14)
453B  496E69744C616E64+  "InitLand"
4543  736361706500       "scape\0"
                         const [102]: "InitLandscape"
4549  04                 const type 4
454A  0E                 string size (14)
454B  6C6576656C4F7665+  "levelOve"
4553  727269646500       "rride\0"
                         const [103]: "levelOverride"
4559  04                 const type 4
455A  11                 string size (17)
455B  4D545F4153534153+  "MT_ASSAS"
4563  53494E4154494F4E+  "SINATION"
456B  00                 "\0"
                         const [104]: "MT_ASSASSINATION"
456C  04                 const type 4
456D  0C                 string size (12)
456E  56617948656B5365+  "VayHekSe"
4576  74757000           "tup\0"
                         const [105]: "VayHekSetup"
457A  04                 const type 4
457B  0A                 string size (10)
457C  4D545F5055524946+  "MT_PURIF"
4584  5900               "Y\0"
                         const [106]: "MT_PURIFY"
4586  04                 const type 4
4587  0B                 string size (11)
4588  5075726966794D6F+  "PurifyMo"
4590  646500             "de\0"
                         const [107]: "PurifyMode"
4593  04                 const type 4
4594  09                 string size (9)
4595  4D545F4152454E41+  "MT_ARENA"
459D  00                 "\0"
                         const [108]: "MT_ARENA"
459E  04                 const type 4
459F  0A                 string size (10)
45A0  4172656E614D6F64+  "ArenaMod"
45A8  6500               "e\0"
                         const [109]: "ArenaMode"
45AA  01                 const type 3
45AB  227362B1           const [110]: (-1318948062)
45AF  04                 const type 4
45B0  0B                 string size (11)
45B1  4D545F47454E4552+  "MT_GENER"
45B9  494300             "IC\0"
                         const [111]: "MT_GENERIC"
45BC  04                 const type 4
45BD  19                 string size (25)
45BE  4F626A6563746976+  "Objectiv"
45C6  6545787465726D69+  "eExtermi"
45CE  6E6174654D61696E+  "nateMain"
45D6  00                 "\0"
                         const [112]: "ObjectiveExterminateMain"
45D7  04                 const type 4
45D8  0D                 string size (13)
45D9  6576656E74547269+  "eventTri"
45E1  6767657200         "gger\0"
                         const [113]: "eventTrigger"
                         * functions:
45E6  00                 sizep (0)
                         * lines:
45E8  05                 sizelineinfo (744)
                         [pc] (line)
45E9  68                 [001] (104)
45EA  02                 [002] (104)
45EB  00                 [003] (104)
45EC  00                 [004] (104)
45ED  68                 [005] (104)
45EE  02                 [006] (104)
45EF  00                 [007] (105)
45F0  00                 [008] (105)
45F1  68                 [009] (105)
45F2  02                 [010] (105)
45F3  00                 [011] (105)
45F4  00                 [012] (105)
45F5  68                 [013] (106)
45F6  02                 [014] (106)
45F7  00                 [015] (106)
45F8  00                 [016] (106)
45F9  68                 [017] (106)
45FA  02                 [018] (106)
45FB  00                 [019] (107)
45FC  00                 [020] (107)
45FD  68                 [021] (107)
45FE  02                 [022] (107)
45FF  00                 [023] (107)
4600  00                 [024] (107)
4601  69                 [025] (108)
4602  02                 [026] (108)
4603  00                 [027] (108)
4604  00                 [028] (108)
4605  69                 [029] (108)
4606  02                 [030] (108)
4607  00                 [031] (109)
4608  00                 [032] (109)
4609  69                 [033] (109)
460A  02                 [034] (109)
460B  00                 [035] (109)
460C  00                 [036] (109)
460D  69                 [037] (110)
460E  02                 [038] (110)
460F  00                 [039] (110)
4610  00                 [040] (110)
4611  69                 [041] (110)
4612  02                 [042] (110)
4613  00                 [043] (112)
4614  00                 [044] (112)
4615  69                 [045] (112)
4616  02                 [046] (112)
4617  00                 [047] (113)
4618  00                 [048] (113)
4619  6A                 [049] (114)
461A  02                 [050] (114)
461B  00                 [051] (114)
461C  00                 [052] (114)
461D  6A                 [053] (118)
461E  02                 [054] (119)
461F  00                 [055] (119)
4620  00                 [056] (120)
4621  6A                 [057] (120)
4622  02                 [058] (120)
4623  00                 [059] (121)
4624  00                 [060] (121)
4625  6A                 [061] (121)
4626  02                 [062] (122)
4627  00                 [063] (122)
4628  00                 [064] (122)
4629  6A                 [065] (122)
462A  02                 [066] (125)
462B  00                 [067] (125)
462C  00                 [068] (125)
462D  6A                 [069] (126)
462E  02                 [070] (127)
462F  00                 [071] (-128)
4630  00                 [072] (-128)
4631  6B                 [073] (-128)
4632  02                 [074] (-127)
4633  00                 [075] (-127)
4634  00                 [076] (-127)
4635  6B                 [077] (-127)
4636  02                 [078] (-127)
4637  00                 [079] (-125)
4638  00                 [080] (-125)
4639  6B                 [081] (-125)
463A  02                 [082] (-125)
463B  00                 [083] (-125)
463C  00                 [084] (-124)
463D  6B                 [085] (-124)
463E  02                 [086] (-124)
463F  00                 [087] (-123)
4640  00                 [088] (-123)
4641  6B                 [089] (-123)
4642  02                 [090] (-123)
4643  00                 [091] (-122)
4644  00                 [092] (-122)
4645  6B                 [093] (-122)
4646  02                 [094] (-121)
4647  00                 [095] (-121)
4648  00                 [096] (-121)
4649  6C                 [097] (-121)
464A  02                 [098] (-120)
464B  00                 [099] (-120)
464C  00                 [100] (-119)
464D  6C                 [101] (-117)
464E  02                 [102] (-117)
464F  00                 [103] (-117)
4650  00                 [104] (-114)
4651  6C                 [105] (-114)
4652  02                 [106] (-113)
4653  00                 [107] (-113)
4654  00                 [108] (-113)
4655  6C                 [109] (-112)
4656  02                 [110] (-112)
4657  00                 [111] (-111)
4658  00                 [112] (-111)
4659  6C                 [113] (-110)
465A  02                 [114] (-110)
465B  00                 [115] (-110)
465C  00                 [116] (-110)
465D  6C                 [117] (-109)
465E  02                 [118] (-109)
465F  00                 [119] (-109)
4660  00                 [120] (-109)
4661  6D                 [121] (-109)
4662  02                 [122] (-108)
4663  00                 [123] (-108)
4664  00                 [124] (-108)
4665  6D                 [125] (-107)
4666  02                 [126] (-107)
4667  00                 [127] (-107)
4668  00                 [128] (-107)
4669  6D                 [129] (-107)
466A  02                 [130] (-105)
466B  00                 [131] (-105)
466C  00                 [132] (-105)
466D  6D                 [133] (-105)
466E  02                 [134] (-105)
466F  00                 [135] (-104)
4670  00                 [136] (-104)
4671  6D                 [137] (-104)
4672  02                 [138] (-104)
4673  00                 [139] (-104)
4674  00                 [140] (-104)
4675  6D                 [141] (-101)
4676  02                 [142] (-101)
4677  00                 [143] (-100)
4678  00                 [144] (-100)
4679  6E                 [145] (-100)
467A  02                 [146] (-100)
467B  00                 [147] (-100)
467C  00                 [148] (-99)
467D  6E                 [149] (-99)
467E  02                 [150] (-99)
467F  00                 [151] (-98)
4680  00                 [152] (-98)
4681  6E                 [153] (-98)
4682  02                 [154] (-98)
4683  00                 [155] (-98)
4684  00                 [156] (-98)
4685  6E                 [157] (-97)
4686  02                 [158] (-97)
4687  00                 [159] (-97)
4688  00                 [160] (-97)
4689  6E                 [161] (-97)
468A  02                 [162] (-97)
468B  00                 [163] (-96)
468C  00                 [164] (-96)
468D  6E                 [165] (-96)
468E  02                 [166] (-95)
468F  00                 [167] (-95)
4690  00                 [168] (-95)
4691  70                 [169] (-95)
4692  02                 [170] (-94)
4693  00                 [171] (-94)
4694  00                 [172] (-94)
4695  70                 [173] (-94)
4696  02                 [174] (-93)
4697  00                 [175] (-93)
4698  00                 [176] (-93)
4699  70                 [177] (-93)
469A  02                 [178] (-92)
469B  00                 [179] (-95)
469C  00                 [180] (-91)
469D  70                 [181] (-89)
469E  02                 [182] (-89)
469F  00                 [183] (-89)
46A0  00                 [184] (-89)
46A1  71                 [185] (-88)
46A2  02                 [186] (-88)
46A3  00                 [187] (-88)
46A4  00                 [188] (-88)
46A5  71                 [189] (-87)
46A6  02                 [190] (-86)
46A7  00                 [191] (-86)
46A8  00                 [192] (-86)
46A9  72                 [193] (-86)
46AA  02                 [194] (-86)
46AB  00                 [195] (-86)
46AC  00                 [196] (-86)
46AD  72                 [197] (-86)
46AE  02                 [198] (-85)
46AF  00                 [199] (-85)
46B0  00                 [200] (-85)
46B1  72                 [201] (-84)
46B2  02                 [202] (-84)
46B3  00                 [203] (-84)
46B4  00                 [204] (-84)
46B5  72                 [205] (-83)
46B6  02                 [206] (-83)
46B7  00                 [207] (-83)
46B8  00                 [208] (-83)
46B9  76                 [209] (-83)
46BA  02                 [210] (-83)
46BB  00                 [211] (-81)
46BC  00                 [212] (-81)
46BD  77                 [213] (-81)
46BE  02                 [214] (-80)
46BF  00                 [215] (-80)
46C0  00                 [216] (-80)
46C1  77                 [217] (-80)
46C2  02                 [218] (-80)
46C3  00                 [219] (-78)
46C4  00                 [220] (-78)
46C5  78                 [221] (-78)
46C6  02                 [222] (-78)
46C7  00                 [223] (-78)
46C8  00                 [224] (-78)
46C9  78                 [225] (-78)
46CA  02                 [226] (-78)
46CB  00                 [227] (-78)
46CC  00                 [228] (-77)
46CD  78                 [229] (-77)
46CE  02                 [230] (-77)
46CF  00                 [231] (-77)
46D0  00                 [232] (-76)
46D1  79                 [233] (-76)
46D2  02                 [234] (-78)
46D3  00                 [235] (-76)
46D4  00                 [236] (-73)
46D5  79                 [237] (-73)
46D6  02                 [238] (-71)
46D7  00                 [239] (-71)
46D8  00                 [240] (-71)
46D9  79                 [241] (-71)
46DA  02                 [242] (-66)
46DB  00                 [243] (-66)
46DC  00                 [244] (-66)
46DD  7A                 [245] (-66)
46DE  02                 [246] (-66)
46DF  00                 [247] (-66)
46E0  00                 [248] (-66)
46E1  7A                 [249] (-56)
46E2  02                 [250] (-54)
46E3  00                 [251] (-54)
46E4  00                 [252] (-54)
46E5  7A                 [253] (-53)
46E6  02                 [254] (-53)
46E7  00                 [255] (-53)
46E8  00                 [256] (-53)
46E9  7A                 [257] (-53)
46EA  02                 [258] (-52)
46EB  00                 [259] (-52)
46EC  00                 [260] (-50)
46ED  7D                 [261] (-50)
46EE  02                 [262] (-50)
46EF  00                 [263] (-49)
46F0  00                 [264] (-48)
46F1  7D                 [265] (-48)
46F2  02                 [266] (-48)
46F3  00                 [267] (-48)
46F4  00                 [268] (-44)
46F5  7D                 [269] (-44)
46F6  02                 [270] (-43)
46F7  00                 [271] (-43)
46F8  00                 [272] (-43)
46F9  7E                 [273] (-43)
46FA  02                 [274] (-39)
46FB  00                 [275] (-39)
46FC  00                 [276] (-39)
46FD  7F                 [277] (-39)
46FE  02                 [278] (-38)
46FF  00                 [279] (-37)
4700  00                 [280] (-37)
4701  80                 [281] (-37)
4702  02                 [282] (-37)
4703  00                 [283] (-37)
4704  00                 [284] (-35)
4705  80                 [285] (-35)
4706  02                 [286] (-34)
4707  00                 [287] (-34)
4708  00                 [288] (-34)
4709  80                 [289] (-34)
470A  02                 [290] (-34)
470B  00                 [291] (-34)
470C  00                 [292] (-33)
470D  81                 [293] (-33)
470E  02                 [294] (-33)
470F  00                 [295] (-33)
4710  00                 [296] (-33)
4711  81                 [297] (-32)
4712  02                 [298] (-30)
4713  00                 [299] (-30)
4714  00                 [300] (-30)
4715  81                 [301] (-30)
4716  02                 [302] (-30)
4717  00                 [303] (-39)
4718  00                 [304] (-26)
4719  81                 [305] (-26)
471A  02                 [306] (-26)
471B  00                 [307] (-26)
471C  00                 [308] (-26)
471D  81                 [309] (-25)
471E  02                 [310] (-25)
471F  00                 [311] (-25)
4720  00                 [312] (-25)
4721  83                 [313] (-25)
4722  02                 [314] (-25)
4723  00                 [315] (-21)
4724  00                 [316] (-21)
4725  83                 [317] (-21)
4726  02                 [318] (-21)
4727  00                 [319] (-21)
4728  00                 [320] (-20)
4729  83                 [321] (-17)
472A  02                 [322] (-17)
472B  00                 [323] (-17)
472C  00                 [324] (-17)
472D  83                 [325] (-17)
472E  02                 [326] (-16)
472F  00                 [327] (-16)
4730  00                 [328] (-16)
4731  83                 [329] (-15)
4732  02                 [330] (-15)
4733  00                 [331] (-13)
4734  00                 [332] (-13)
4735  84                 [333] (-13)
4736  02                 [334] (-13)
4737  00                 [335] (-13)
4738  00                 [336] (-13)
4739  84                 [337] (-12)
473A  02                 [338] (-12)
473B  00                 [339] (-12)
473C  00                 [340] (-12)
473D  84                 [341] (-12)
473E  02                 [342] (-12)
473F  00                 [343] (-11)
4740  00                 [344] (-11)
4741  85                 [345] (-11)
4742  02                 [346] (-11)
4743  00                 [347] (-11)
4744  00                 [348] (-10)
4745  85                 [349] (-10)
4746  02                 [350] (-10)
4747  00                 [351] (-9)
4748  00                 [352] (-9)
4749  85                 [353] (-9)
474A  02                 [354] (-4)
474B  00                 [355] (-4)
474C  00                 [356] (-4)
474D  85                 [357] (-4)
474E  02                 [358] (-4)
474F  00                 [359] (-4)
4750  00                 [360] (-4)
4751  86                 [361] (-4)
4752  02                 [362] (-4)
4753  00                 [363] (-4)
4754  00                 [364] (-3)
4755  86                 [365] (0)
4756  02                 [366] (0)
4757  00                 [367] (0)
4758  00                 [368] (0)
4759  86                 [369] (0)
475A  02                 [370] (1)
475B  00                 [371] (1)
475C  00                 [372] (1)
475D  87                 [373] (1)
475E  02                 [374] (1)
475F  00                 [375] (1)
4760  00                 [376] (1)
4761  87                 [377] (1)
4762  02                 [378] (1)
4763  00                 [379] (1)
4764  00                 [380] (1)
4765  87                 [381] (2)
4766  02                 [382] (7)
4767  00                 [383] (7)
4768  00                 [384] (7)
4769  87                 [385] (7)
476A  02                 [386] (7)
476B  00                 [387] (7)
476C  00                 [388] (7)
476D  88                 [389] (7)
476E  02                 [390] (7)
476F  00                 [391] (7)
4770  00                 [392] (8)
4771  88                 [393] (11)
4772  02                 [394] (11)
4773  00                 [395] (11)
4774  00                 [396] (11)
4775  89                 [397] (11)
4776  02                 [398] (11)
4777  00                 [399] (11)
4778  00                 [400] (11)
4779  8B                 [401] (11)
477A  02                 [402] (11)
477B  00                 [403] (12)
477C  00                 [404] (16)
477D  8B                 [405] (16)
477E  02                 [406] (16)
477F  00                 [407] (16)
4780  00                 [408] (16)
4781  8B                 [409] (16)
4782  02                 [410] (16)
4783  00                 [411] (16)
4784  00                 [412] (16)
4785  8E                 [413] (16)
4786  02                 [414] (17)
4787  00                 [415] (20)
4788  00                 [416] (20)
4789  8E                 [417] (20)
478A  02                 [418] (20)
478B  00                 [419] (20)
478C  00                 [420] (20)
478D  8F                 [421] (20)
478E  02                 [422] (20)
478F  00                 [423] (20)
4790  00                 [424] (20)
4791  8F                 [425] (21)
4792  02                 [426] (26)
4793  00                 [427] (26)
4794  00                 [428] (26)
4795  8F                 [429] (26)
4796  02                 [430] (26)
4797  00                 [431] (26)
4798  00                 [432] (26)
4799  90                 [433] (26)
479A  02                 [434] (26)
479B  00                 [435] (27)
479C  00                 [436] (27)
479D  90                 [437] (27)
479E  02                 [438] (27)
479F  00                 [439] (27)
47A0  00                 [440] (28)
47A1  91                 [441] (28)
47A2  02                 [442] (28)
47A3  00                 [443] (32)
47A4  00                 [444] (35)
47A5  91                 [445] (35)
47A6  02                 [446] (35)
47A7  00                 [447] (36)
47A8  00                 [448] (37)
47A9  92                 [449] (37)
47AA  02                 [450] (37)
47AB  00                 [451] (37)
47AC  00                 [452] (38)
47AD  92                 [453] (38)
47AE  02                 [454] (39)
47AF  00                 [455] (39)
47B0  00                 [456] (39)
47B1  92                 [457] (39)
47B2  02                 [458] (40)
47B3  00                 [459] (40)
47B4  00                 [460] (41)
47B5  92                 [461] (41)
47B6  02                 [462] (41)
47B7  00                 [463] (41)
47B8  00                 [464] (42)
47B9  93                 [465] (42)
47BA  02                 [466] (43)
47BB  00                 [467] (43)
47BC  00                 [468] (43)
47BD  93                 [469] (43)
47BE  02                 [470] (44)
47BF  00                 [471] (44)
47C0  00                 [472] (45)
47C1  93                 [473] (45)
47C2  02                 [474] (45)
47C3  00                 [475] (45)
47C4  00                 [476] (46)
47C5  93                 [477] (46)
47C6  02                 [478] (47)
47C7  00                 [479] (47)
47C8  00                 [480] (47)
47C9  93                 [481] (47)
47CA  02                 [482] (48)
47CB  00                 [483] (49)
47CC  00                 [484] (49)
47CD  94                 [485] (49)
47CE  02                 [486] (50)
47CF  00                 [487] (50)
47D0  00                 [488] (50)
47D1  94                 [489] (50)
47D2  02                 [490] (51)
47D3  00                 [491] (54)
47D4  00                 [492] (54)
47D5  94                 [493] (54)
47D6  02                 [494] (54)
47D7  00                 [495] (54)
47D8  00                 [496] (54)
47D9  95                 [497] (55)
47DA  02                 [498] (55)
47DB  00                 [499] (55)
47DC  00                 [500] (55)
47DD  95                 [501] (55)
47DE  02                 [502] (55)
47DF  00                 [503] (55)
47E0  00                 [504] (55)
47E1  95                 [505] (56)
47E2  02                 [506] (56)
47E3  00                 [507] (56)
47E4  00                 [508] (56)
47E5  95                 [509] (57)
47E6  02                 [510] (58)
47E7  00                 [511] (58)
47E8  00                 [512] (58)
47E9  95                 [513] (58)
47EA  02                 [514] (59)
47EB  00                 [515] (59)
47EC  00                 [516] (60)
47ED  97                 [517] (60)
47EE  02                 [518] (60)
47EF  00                 [519] (60)
47F0  00                 [520] (60)
47F1  97                 [521] (60)
47F2  02                 [522] (61)
47F3  00                 [523] (61)
47F4  00                 [524] (61)
47F5  97                 [525] (61)
47F6  02                 [526] (61)
47F7  00                 [527] (62)
47F8  00                 [528] (62)
47F9  97                 [529] (62)
47FA  02                 [530] (62)
47FB  00                 [531] (62)
47FC  00                 [532] (62)
47FD  97                 [533] (62)
47FE  02                 [534] (65)
47FF  00                 [535] (65)
4800  00                 [536] (65)
4801  98                 [537] (65)
4802  02                 [538] (65)
4803  00                 [539] (66)
4804  00                 [540] (66)
4805  98                 [541] (66)
4806  02                 [542] (67)
4807  00                 [543] (68)
4808  00                 [544] (68)
4809  98                 [545] (68)
480A  02                 [546] (68)
480B  00                 [547] (69)
480C  00                 [548] (69)
480D  98                 [549] (69)
480E  02                 [550] (69)
480F  00                 [551] (69)
4810  00                 [552] (69)
4811  98                 [553] (70)
4812  02                 [554] (70)
4813  00                 [555] (70)
4814  00                 [556] (70)
4815  98                 [557] (70)
4816  02                 [558] (71)
4817  00                 [559] (71)
4818  00                 [560] (71)
4819  9B                 [561] (73)
481A  02                 [562] (73)
481B  00                 [563] (77)
481C  00                 [564] (77)
481D  9B                 [565] (77)
481E  02                 [566] (78)
481F  00                 [567] (79)
4820  00                 [568] (79)
4821  9C                 [569] (79)
4822  02                 [570] (79)
4823  00                 [571] (79)
4824  00                 [572] (79)
4825  9C                 [573] (81)
4826  02                 [574] (81)
4827  00                 [575] (81)
4828  00                 [576] (81)
4829  9C                 [577] (81)
482A  02                 [578] (81)
482B  00                 [579] (81)
482C  00                 [580] (81)
482D  9C                 [581] (81)
482E  02                 [582] (82)
482F  00                 [583] (83)
4830  00                 [584] (83)
4831  9C                 [585] (83)
4832  02                 [586] (83)
4833  00                 [587] (83)
4834  00                 [588] (83)
4835  9D                 [589] (83)
4836  02                 [590] (84)
4837  00                 [591] (84)
4838  00                 [592] (84)
4839  9D                 [593] (85)
483A  02                 [594] (85)
483B  00                 [595] (85)
483C  00                 [596] (85)
483D  9D                 [597] (86)
483E  02                 [598] (87)
483F  00                 [599] (87)
4840  00                 [600] (87)
4841  9E                 [601] (87)
4842  02                 [602] (88)
4843  00                 [603] (88)
4844  00                 [604] (88)
4845  9E                 [605] (88)
4846  02                 [606] (88)
4847  00                 [607] (88)
4848  00                 [608] (89)
4849  9E                 [609] (89)
484A  02                 [610] (89)
484B  00                 [611] (89)
484C  00                 [612] (89)
484D  9E                 [613] (89)
484E  02                 [614] (89)
484F  00                 [615] (89)
4850  00                 [616] (90)
4851  9E                 [617] (90)
4852  02                 [618] (92)
4853  00                 [619] (92)
4854  00                 [620] (92)
4855  9E                 [621] (92)
4856  02                 [622] (92)
4857  00                 [623] (93)
4858  00                 [624] (94)
4859  9F                 [625] (94)
485A  02                 [626] (94)
485B  00                 [627] (94)
485C  00                 [628] (95)
485D  9F                 [629] (95)
485E  02                 [630] (95)
485F  00                 [631] (95)
4860  00                 [632] (95)
4861  9F                 [633] (95)
4862  02                 [634] (95)
4863  00                 [635] (95)
4864  00                 [636] (96)
4865  9F                 [637] (96)
4866  02                 [638] (96)
4867  00                 [639] (96)
4868  00                 [640] (97)
4869  9F                 [641] (97)
486A  02                 [642] (97)
486B  00                 [643] (97)
486C  00                 [644] (97)
486D  9F                 [645] (97)
486E  02                 [646] (97)
486F  00                 [647] (97)
4870  00                 [648] (99)
4871  A0                 [649] (99)
4872  02                 [650] (99)
4873  00                 [651] (99)
4874  00                 [652] (99)
4875  A0                 [653] (99)
4876  02                 [654] (100)
4877  00                 [655] (100)
4878  00                 [656] (100)
4879  A0                 [657] (100)
487A  02                 [658] (101)
487B  00                 [659] (101)
487C  00                 [660] (101)
487D  A1                 [661] (101)
487E  02                 [662] (102)
487F  00                 [663] (102)
4880  00                 [664] (102)
4881  A1                 [665] (102)
4882  02                 [666] (103)
4883  00                 [667] (103)
4884  00                 [668] (103)
4885  A1                 [669] (103)
4886  02                 [670] (103)
4887  00                 [671] (104)
4888  00                 [672] (104)
4889  A1                 [673] (104)
488A  02                 [674] (104)
488B  00                 [675] (104)
488C  00                 [676] (102)
488D  A2                 [677] (107)
488E  02                 [678] (107)
488F  00                 [679] (107)
4890  00                 [680] (107)
4891  A2                 [681] (107)
4892  02                 [682] (107)
4893  00                 [683] (107)
4894  00                 [684] (107)
4895  A2                 [685] (108)
4896  02                 [686] (109)
4897  00                 [687] (100)
4898  00                 [688] (110)
4899  A2                 [689] (115)
489A  02                 [690] (115)
489B  00                 [691] (115)
489C  00                 [692] (115)
489D  A3                 [693] (115)
489E  02                 [694] (116)
489F  00                 [695] (116)
48A0  00                 [696] (116)
48A1  A3                 [697] (116)
48A2  02                 [698] (117)
48A3  00                 [699] (117)
48A4  00                 [700] (117)
48A5  A3                 [701] (117)
48A6  02                 [702] (117)
48A7  00                 [703] (117)
48A8  00                 [704] (117)
48A9  A3                 [705] (117)
48AA  02                 [706] (118)
48AB  00                 [707] (119)
48AC  00                 [708] (119)
48AD  A4                 [709] (119)
48AE  02                 [710] (119)
48AF  00                 [711] (119)
48B0  00                 [712] (119)
48B1  A1                 [713] (120)
48B2  02                 [714] (120)
48B3  00                 [715] (120)
48B4  00                 [716] (120)
48B5  A5                 [717] (120)
48B6  02                 [718] (121)
48B7  00                 [719] (124)
48B8  00                 [720] (124)
48B9  A7                 [721] (124)
48BA  02                 [722] (124)
48BB  00                 [723] (124)
48BC  00                 [724] (124)
48BD  A7                 [725] (125)
48BE  02                 [726] (125)
48BF  00                 [727] (125)
48C0  00                 [728] (125)
48C1  A7                 [729] (125)
48C2  02                 [730] (125)
48C3  00                 [731] (125)
48C4  00                 [732] (126)
48C5  A7                 [733] (126)
48C6  02                 [734] (126)
48C7  00                 [735] (126)
48C8  00                 [736] (-128)
48C9  A8                 [737] (-128)
48CA  02                 [738] (-128)
48CB  00                 [739] (-128)
48CC  00                 [740] (-128)
48CD  A8                 [741] (-127)
48CE  02                 [742] (-127)
48CF  00                 [743] (-127)
48D0  00                 [744] (-121)
                         * locals:
5189  00                 sizelocvars (0)
                         * upvalues:
518A  00                 sizeupvalues (0)
                         ** end of function **

                         
518B                     ** function [19] definition (level 2)
                         ** start of function **
518B  00                 string size (0)
                         source name: (none)
518D  07                 line defined (905)
518E  97                 last line defined (919)
518F  07                 nups (1)
5190  01                 numparams (0)
5191  00                 is_vararg (0)
5192  00                 maxstacksize (6)
                         * code:
5194  3D                 sizecode (61)
5195  1D000000           [01] getglobal  0   0        ; gGameRules
5199  24404000           [02] self       0   0   257  ; -317790213
519D  9D800000           [03] getglobal  2   2        ; -332969190
51A1  D9C00000           [04] loadk      3   3        ; "StopNormalTransmissions"
51A5  A2000001           [05] call       2   2   0  
51A9  22800000           [06] call       0   0   2  
fail op	35
51AD  63004100           [07] close      1  
51B1  1A000080           [08] jmp        1            ; to [10]
51B5  1E008000           [09] return     0   1      
51B9  1D400100           [10] getglobal  0   5        ; 1074689893
51BD  5D800100           [11] getglobal  1   6        ; _T
51C1  4EC0C100           [12] gettable   1   1   263  ; "MissionTransmissionSet"
51C5  22800001           [13] call       0   2   2  
51C9  18400000           [14] test       0       1    ; to [16] if false
51CD  1A400880           [15] jmp        34           ; to [50]
51D1  1D000000           [16] getglobal  0   0        ; gGameRules
51D5  24004200           [17] self       0   0   264  ; -1201441975
51D9  22800001           [18] call       0   2   2  
51DD  24404200           [19] self       0   0   265  ; -272348948
51E1  22800001           [20] call       0   2   2  
51E5  5D400100           [21] getglobal  1   5        ; 1074689893
51E9  9D800100           [22] getglobal  2   6        ; _T
51ED  8E804201           [23] gettable   2   2   266  ; "ObjectiveRestateTag"
51F1  62800001           [24] call       1   2   2  
51F5  58000000           [25] test       1       0    ; to [27] if true
51F9  1A000180           [26] jmp        5            ; to [32]
51FD  5D800100           [27] getglobal  1   6        ; _T
5201  9D800000           [28] getglobal  2   2        ; -332969190
5205  D9C00200           [29] loadk      3   11       ; "ObjectiveRestate"
5209  A2800001           [30] call       2   2   2  
520D  4C800085           [31] settable   1   266 2    ; "ObjectiveRestateTag"
5211  53000000           [32] getupval   1   0      
5215  4E00C300           [33] gettable   1   1   268  ; -78033590
5219  9D800100           [34] getglobal  2   6        ; _T
521D  8EC04101           [35] gettable   2   2   263  ; "MissionTransmissionSet"
5221  DD800100           [36] getglobal  3   6        ; _T
5225  CE80C201           [37] gettable   3   3   266  ; "ObjectiveRestateTag"
5229  19010100           [38] loadk      4   4        ; 0
522D  62400002           [39] call       1   4   1  
5231  53000000           [40] getupval   1   0      
5235  4E40C300           [41] gettable   1   1   269  ; 14052933
5239  9D800100           [42] getglobal  2   6        ; _T
523D  8EC04101           [43] gettable   2   2   263  ; "MissionTransmissionSet"
5241  DD800100           [44] getglobal  3   6        ; _T
5245  CE80C201           [45] gettable   3   3   266  ; "ObjectiveRestateTag"
5249  19010100           [46] loadk      4   4        ; 0
524D  52010000           [47] move       5   0      
5251  62408002           [48] call       1   5   1  
5255  1A800280           [49] jmp        11           ; to [61]
5259  5D400100           [50] getglobal  1   5        ; 1074689893
525D  9D800100           [51] getglobal  2   6        ; _T
5261  8E804301           [52] gettable   2   2   270  ; "objRestate"
5265  62800001           [53] call       1   2   2  
5269  58400000           [54] test       1       1    ; to [56] if false
526D  1A000180           [55] jmp        5            ; to [61]
5271  5D800100           [56] getglobal  1   6        ; _T
5275  4E80C300           [57] gettable   1   1   270  ; "objRestate"
5279  64C0C300           [58] self       1   1   271  ; -1923578185
527D  D9000400           [59] loadk      3   16       ; "Execute"
5281  62408001           [60] call       1   3   1  
5285  1E008000           [61] return     0   1      
                         * constants:
5289  11                 sizek (17)
528A  04                 const type 4
528B  0B                 string size (11)
528C  6747616D6552756C+  "gGameRul"
5294  657300             "es\0"
                         const [0]: "gGameRules"
5297  01                 const type 3
5298  FBE70EED           const [1]: (-317790213)
529C  01                 const type 3
529D  1A4B27EC           const [2]: (-332969190)
52A1  04                 const type 4
52A2  18                 string size (24)
52A3  53746F704E6F726D+  "StopNorm"
52AB  616C5472616E736D+  "alTransm"
52B3  697373696F6E7300   "issions\0"
                         const [3]: "StopNormalTransmissions"
52BB  03                 const type 3
52BC  00000000           const [4]: (0)
52C0  01                 const type 3
52C1  65770E40           const [5]: (1074689893)
52C5  04                 const type 4
52C6  03                 string size (3)
52C7  5F5400             "_T\0"
                         const [6]: "_T"
52CA  04                 const type 4
52CB  17                 string size (23)
52CC  4D697373696F6E54+  "MissionT"
52D4  72616E736D697373+  "ransmiss"
52DC  696F6E53657400     "ionSet\0"
                         const [7]: "MissionTransmissionSet"
52E3  01                 const type 3
52E4  497363B8           const [8]: (-1201441975)
52E8  01                 const type 3
52E9  EC48C4EF           const [9]: (-272348948)
52ED  04                 const type 4
52EE  14                 string size (20)
52EF  4F626A6563746976+  "Objectiv"
52F7  6552657374617465+  "eRestate"
52FF  54616700           "Tag\0"
                         const [10]: "ObjectiveRestateTag"
5303  04                 const type 4
5304  11                 string size (17)
5305  4F626A6563746976+  "Objectiv"
530D  6552657374617465+  "eRestate"
5315  00                 "\0"
                         const [11]: "ObjectiveRestate"
5316  01                 const type 3
5317  4A4D59FB           const [12]: (-78033590)
531B  01                 const type 3
531C  456ED600           const [13]: (14052933)
5320  04                 const type 4
5321  0B                 string size (11)
5322  6F626A5265737461+  "objResta"
532A  746500             "te\0"
                         const [14]: "objRestate"
532D  01                 const type 3
532E  B786588D           const [15]: (-1923578185)
5332  04                 const type 4
5333  08                 string size (8)
5334  4578656375746500   "Execute\0"
                         const [16]: "Execute"
                         * functions:
533C  00                 sizep (0)
                         * lines:
533D  3D                 sizelineinfo (61)
                         [pc] (line)
533E  8A                 [01] (-118)
533F  03                 [02] (-118)
5340  00                 [03] (-118)
5341  00                 [04] (-118)
5342  8A                 [05] (-118)
5343  03                 [06] (-118)
5344  00                 [07] (-118)
5345  00                 [08] (-118)
5346  8A                 [09] (-117)
5347  03                 [10] (-115)
5348  00                 [11] (-115)
5349  00                 [12] (-115)
534A  8A                 [13] (-115)
534B  03                 [14] (-115)
534C  00                 [15] (-115)
534D  00                 [16] (-114)
534E  8A                 [17] (-114)
534F  03                 [18] (-114)
5350  00                 [19] (-114)
5351  00                 [20] (-114)
5352  8A                 [21] (-113)
5353  03                 [22] (-113)
5354  00                 [23] (-113)
5355  00                 [24] (-113)
5356  8A                 [25] (-113)
5357  03                 [26] (-113)
5358  00                 [27] (-112)
5359  00                 [28] (-112)
535A  8A                 [29] (-112)
535B  03                 [30] (-112)
535C  00                 [31] (-112)
535D  00                 [32] (-110)
535E  8B                 [33] (-110)
535F  03                 [34] (-110)
5360  00                 [35] (-110)
5361  00                 [36] (-110)
5362  8D                 [37] (-110)
5363  03                 [38] (-110)
5364  00                 [39] (-110)
5365  00                 [40] (-109)
5366  8D                 [41] (-109)
5367  03                 [42] (-109)
5368  00                 [43] (-109)
5369  00                 [44] (-109)
536A  8D                 [45] (-109)
536B  03                 [46] (-109)
536C  00                 [47] (-109)
536D  00                 [48] (-109)
536E  8D                 [49] (-109)
536F  03                 [50] (-108)
5370  00                 [51] (-108)
5371  00                 [52] (-108)
5372  8D                 [53] (-108)
5373  03                 [54] (-108)
5374  00                 [55] (-108)
5375  00                 [56] (-107)
5376  8D                 [57] (-107)
5377  03                 [58] (-107)
5378  00                 [59] (-107)
5379  00                 [60] (-107)
537A  8E                 [61] (-105)
                         * locals:
5432  00                 sizelocvars (0)
                         * upvalues:
5433  00                 sizeupvalues (0)
                         ** end of function **

                         
5434                     ** function [20] definition (level 2)
                         ** start of function **
5434  00                 string size (0)
                         source name: (none)
5436  07                 line defined (921)
5437  AD                 last line defined (941)
5438  07                 nups (0)
5439  00                 numparams (2)
543A  02                 is_vararg (0)
543B  00                 maxstacksize (15)
                         * code:
543D  2A                 sizecode (42)
543E  8A000000           [01] len        2   0      
5442  CA008000           [02] len        3   1      
fail op	35
5446  63C00001           [03] close      1  
544A  1A400180           [04] jmp        6            ; to [11]
544E  9D000000           [05] getglobal  2   0        ; 2144646525
5452  D9400000           [06] loadk      3   1        ; 0
5456  0A010000           [07] len        4   0      
545A  A2808001           [08] call       2   3   2  
545E  8E800000           [09] gettable   2   0   2  
5462  9E000001           [10] return     2   2      
5466  99800000           [11] loadk      2   2        ; 0
546A  D9400000           [12] loadk      3   1        ; 0
546E  0A010000           [13] len        4   0      
5472  59410000           [14] loadk      5   1        ; 0
5476  D0400080           [15] forprep    3   2        ; to [18]
547A  CE818100           [16] gettable   7   1   6  
547E  83C00101           [17] add        2   2   7  
5482  D400FF7F           [18] forloop    3   -3       ; to [16] if loop
5486  DDC10000           [19] getglobal  7   3        ; -1941280958
548A  19820000           [20] loadk      8   2        ; 0
548E  59420000           [21] loadk      9   1        ; 0
5492  E2818001           [22] call       7   3   2  
5496  C4818003           [23] mul        7   7   2  
549A  19420000           [24] loadk      8   1        ; 0
549E  4A020000           [25] len        9   0      
54A2  99420000           [26] loadk      10  1        ; 0
54A6  10820180           [27] forprep    8   7        ; to [35]
54AA  0EC38200           [28] gettable   12  1   11 
fail op	33
54AE  21008303           [29] tforloop   0       12   ; to [31] if exit
54B2  1A400080           [30] jmp        2            ; to [33]
54B6  0EC30200           [31] gettable   12  0   11 
54BA  1E030001           [32] return     12  2      
54BE  0EC38200           [33] gettable   12  1   11 
54C2  CD018303           [34] sub        7   7   12 
54C6  14C2FD7F           [35] forloop    8   -8       ; to [28] if loop
54CA  1D030000           [36] getglobal  12  0        ; 2144646525
54CE  59430000           [37] loadk      13  1        ; 0
54D2  8A030000           [38] len        14  0      
54D6  22838001           [39] call       12  3   2  
54DA  0E030300           [40] gettable   12  0   12 
54DE  1E030001           [41] return     12  2      
54E2  1E008000           [42] return     0   1      
                         * constants:
54E6  04                 sizek (4)
54E7  01                 const type 3
54E8  7DB5D47F           const [0]: (2144646525)
54EC  03                 const type 3
54ED  0000803F           const [1]: (0)
54F1  03                 const type 3
54F2  00000000           const [2]: (0)
54F6  01                 const type 3
54F7  42674A8C           const [3]: (-1941280958)
                         * functions:
54FB  00                 sizep (0)
                         * lines:
54FC  2A                 sizelineinfo (42)
                         [pc] (line)
54FD  9A                 [01] (-102)
54FE  03                 [02] (-102)
54FF  00                 [03] (-102)
5500  00                 [04] (-102)
5501  9A                 [05] (-101)
5502  03                 [06] (-101)
5503  00                 [07] (-101)
5504  00                 [08] (-101)
5505  9A                 [09] (-101)
5506  03                 [10] (-101)
5507  00                 [11] (-98)
5508  00                 [12] (-97)
5509  9A                 [13] (-97)
550A  03                 [14] (-97)
550B  00                 [15] (-97)
550C  00                 [16] (-96)
550D  9B                 [17] (-96)
550E  03                 [18] (-97)
550F  00                 [19] (-93)
5510  00                 [20] (-93)
5511  9B                 [21] (-93)
5512  03                 [22] (-93)
5513  00                 [23] (-93)
5514  00                 [24] (-91)
5515  9B                 [25] (-91)
5516  03                 [26] (-91)
5517  00                 [27] (-91)
5518  00                 [28] (-90)
5519  9B                 [29] (-90)
551A  03                 [30] (-90)
551B  00                 [31] (-89)
551C  00                 [32] (-89)
551D  9B                 [33] (-87)
551E  03                 [34] (-87)
551F  00                 [35] (-91)
5520  00                 [36] (-84)
5521  9B                 [37] (-84)
5522  03                 [38] (-84)
5523  00                 [39] (-84)
5524  00                 [40] (-84)
5525  9E                 [41] (-84)
5526  03                 [42] (-83)
                         * locals:
55A5  00                 sizelocvars (0)
                         * upvalues:
55A6  00                 sizeupvalues (0)
                         ** end of function **

                         
55A7                     ** function [21] definition (level 2)
                         ** start of function **
55A7  00                 string size (0)
                         source name: (none)
55A9  07                 line defined (943)
55AA  B4                 last line defined (948)
55AB  07                 nups (0)
55AC  00                 numparams (1)
55AD  01                 is_vararg (0)
55AE  00                 maxstacksize (6)
                         * code:
55B0  0C                 sizecode (12)
55B1  5D000000           [01] getglobal  1   0        ; 2144646525
55B5  99400000           [02] loadk      2   1        ; 0
55B9  CA000000           [03] len        3   0      
55BD  62808001           [04] call       1   3   2  
55C1  8E400000           [05] gettable   2   0   1  
55C5  DD800000           [06] getglobal  3   2        ; table
55C9  CEC0C001           [07] gettable   3   3   259  ; -843973282
55CD  12010000           [08] move       4   0      
55D1  52018000           [09] move       5   1      
55D5  E2408001           [10] call       3   3   1  
55D9  9E000001           [11] return     2   2      
55DD  1E008000           [12] return     0   1      
                         * constants:
55E1  04                 sizek (4)
55E2  01                 const type 3
55E3  7DB5D47F           const [0]: (2144646525)
55E7  03                 const type 3
55E8  0000803F           const [1]: (0)
55EC  04                 const type 4
55ED  06                 string size (6)
55EE  7461626C6500       "table\0"
                         const [2]: "table"
55F4  01                 const type 3
55F5  5EFDB1CD           const [3]: (-843973282)
                         * functions:
55F9  00                 sizep (0)
                         * lines:
55FA  0C                 sizelineinfo (12)
                         [pc] (line)
55FB  B0                 [01] (-80)
55FC  03                 [02] (-80)
55FD  00                 [03] (-80)
55FE  00                 [04] (-80)
55FF  B0                 [05] (-79)
5600  03                 [06] (-78)
5601  00                 [07] (-78)
5602  00                 [08] (-78)
5603  B0                 [09] (-78)
5604  03                 [10] (-78)
5605  00                 [11] (-77)
5606  00                 [12] (-76)
                         * locals:
562B  00                 sizelocvars (0)
                         * upvalues:
562C  00                 sizeupvalues (0)
                         ** end of function **

                         
562D                     ** function [22] definition (level 2)
                         ** start of function **
562D  00                 string size (0)
                         source name: (none)
562F  07                 line defined (950)
5630  CB                 last line defined (971)
5631  07                 nups (2)
5632  02                 numparams (0)
5633  00                 is_vararg (0)
5634  00                 maxstacksize (13)
                         * code:
5636  31                 sizecode (49)
5637  1D000000           [01] getglobal  0   0        ; 1074689893
563B  5D400000           [02] getglobal  1   1        ; rareLootWaypointType
563F  22800001           [03] call       0   2   2  
5643  18000000           [04] test       0       0    ; to [6] if true
5647  1AC00080           [05] jmp        4            ; to [10]
564B  1D800000           [06] getglobal  0   2        ; -1817107093
564F  59C00000           [07] loadk      1   3        ; "Bailing on CopyWayPoints (rareLootWaypointType is NULL)"
5653  22400001           [08] call       0   2   1  
5657  1E008000           [09] return     0   1      
565B  1D000100           [10] getglobal  0   4        ; gRegion
565F  24404100           [11] self       0   0   261  ; 152279552
5663  9D400000           [12] getglobal  2   1        ; rareLootWaypointType
5667  22808001           [13] call       0   3   2  
566B  4A000000           [14] len        1   0      
fail op	21
566F  15400083           [15] concat     0   262 1  
5673  1A400280           [16] jmp        10           ; to [27]
5677  59C00100           [17] loadk      1   7        ; 0
567B  8A000000           [18] len        2   0      
567F  D9C00100           [19] loadk      3   7        ; 0
5683  50000180           [20] forprep    1   5        ; to [26]
5687  5D010200           [21] getglobal  5   8        ; table
568B  4E41C202           [22] gettable   5   5   265  ; -431682403
568F  93010000           [23] getupval   6   0      
5693  CE010100           [24] gettable   7   0   4  
5697  62418001           [25] call       5   3   1  
569B  5440FE7F           [26] forloop    1   -6       ; to [21] if loop
569F  5D010000           [27] getglobal  5   0        ; 1074689893
56A3  9D810200           [28] getglobal  6   10       ; ultraRareLootWaypointType
56A7  62810001           [29] call       5   2   2  
56AB  58410000           [30] test       5       1    ; to [32] if false
56AF  1A000480           [31] jmp        17           ; to [49]
56B3  5D010100           [32] getglobal  5   4        ; gRegion
56B7  6441C102           [33] self       5   5   261  ; 152279552
56BB  DD810200           [34] getglobal  7   10       ; ultraRareLootWaypointType
56BF  62818001           [35] call       5   3   2  
56C3  8A018002           [36] len        6   5      
fail op	21
56C7  15800183           [37] concat     0   262 6  
56CB  1A400280           [38] jmp        10           ; to [49]
56CF  99C10100           [39] loadk      6   7        ; 0
56D3  CA018002           [40] len        7   5      
56D7  19C20100           [41] loadk      8   7        ; 0
56DB  90010180           [42] forprep    6   5        ; to [48]
56DF  9D020200           [43] getglobal  10  8        ; table
56E3  8E424205           [44] gettable   10  10  265  ; -431682403
56E7  D3028000           [45] getupval   11  1      
56EB  0E438202           [46] gettable   12  5   9  
56EF  A2428001           [47] call       10  3   1  
56F3  9441FE7F           [48] forloop    6   -6       ; to [43] if loop
56F7  1E008000           [49] return     0   1      
                         * constants:
56FB  0B                 sizek (11)
56FC  01                 const type 3
56FD  65770E40           const [0]: (1074689893)
5701  04                 const type 4
5702  15                 string size (21)
5703  726172654C6F6F74+  "rareLoot"
570B  576179706F696E74+  "Waypoint"
5713  5479706500         "Type\0"
                         const [1]: "rareLootWaypointType"
5718  01                 const type 3
5719  6B25B193           const [2]: (-1817107093)
571D  04                 const type 4
571E  38                 string size (56)
571F  4261696C696E6720+  "Bailing "
5727  6F6E20436F707957+  "on CopyW"
572F  6179506F696E7473+  "ayPoints"
5737  2028726172654C6F+  " (rareLo"
573F  6F74576179706F69+  "otWaypoi"
5747  6E74547970652069+  "ntType i"
574F  73204E554C4C2900   "s NULL)\0"
                         const [3]: "Bailing on CopyWayPoints (rareLootWaypointType is NULL)"
5757  04                 const type 4
5758  08                 string size (8)
5759  67526567696F6E00   "gRegion\0"
                         const [4]: "gRegion"
5761  01                 const type 3
5762  009A1309           const [5]: (152279552)
5766  03                 const type 3
5767  00000000           const [6]: (0)
576B  03                 const type 3
576C  0000803F           const [7]: (0)
5770  04                 const type 4
5771  06                 string size (6)
5772  7461626C6500       "table\0"
                         const [8]: "table"
5778  01                 const type 3
5779  9D0C45E6           const [9]: (-431682403)
577D  04                 const type 4
577E  1A                 string size (26)
577F  756C747261526172+  "ultraRar"
5787  654C6F6F74576179+  "eLootWay"
578F  706F696E74547970+  "pointTyp"
5797  6500               "e\0"
                         const [10]: "ultraRareLootWaypointType"
                         * functions:
5799  00                 sizep (0)
                         * lines:
579A  31                 sizelineinfo (49)
                         [pc] (line)
579B  B7                 [01] (-73)
579C  03                 [02] (-73)
579D  00                 [03] (-73)
579E  00                 [04] (-73)
579F  B7                 [05] (-73)
57A0  03                 [06] (-72)
57A1  00                 [07] (-72)
57A2  00                 [08] (-72)
57A3  B7                 [09] (-71)
57A4  03                 [10] (-68)
57A5  00                 [11] (-68)
57A6  00                 [12] (-68)
57A7  B7                 [13] (-68)
57A8  03                 [14] (-67)
57A9  00                 [15] (-67)
57AA  00                 [16] (-67)
57AB  B7                 [17] (-66)
57AC  03                 [18] (-66)
57AD  00                 [19] (-66)
57AE  00                 [20] (-66)
57AF  B8                 [21] (-65)
57B0  03                 [22] (-65)
57B1  00                 [23] (-65)
57B2  00                 [24] (-65)
57B3  B8                 [25] (-65)
57B4  03                 [26] (-66)
57B5  00                 [27] (-61)
57B6  00                 [28] (-61)
57B7  B8                 [29] (-61)
57B8  03                 [30] (-61)
57B9  00                 [31] (-61)
57BA  00                 [32] (-60)
57BB  B9                 [33] (-60)
57BC  03                 [34] (-60)
57BD  00                 [35] (-60)
57BE  00                 [36] (-59)
57BF  BC                 [37] (-59)
57C0  03                 [38] (-59)
57C1  00                 [39] (-58)
57C2  00                 [40] (-58)
57C3  BC                 [41] (-58)
57C4  03                 [42] (-58)
57C5  00                 [43] (-57)
57C6  00                 [44] (-57)
57C7  BC                 [45] (-57)
57C8  03                 [46] (-57)
57C9  00                 [47] (-57)
57CA  00                 [48] (-58)
57CB  BC                 [49] (-53)
                         * locals:
585F  00                 sizelocvars (0)
                         * upvalues:
5860  00                 sizeupvalues (0)
                         ** end of function **

                         
5861                     ** function [23] definition (level 2)
                         ** start of function **
5861  00                 string size (0)
                         source name: (none)
5863  07                 line defined (973)
5864  D1                 last line defined (977)
5865  07                 nups (0)
5866  00                 numparams (0)
5867  00                 is_vararg (0)
5868  00                 maxstacksize (8)
                         * code:
586A  0F                 sizecode (15)
586B  1D000000           [01] getglobal  0   0        ; 248503575
586F  5D400000           [02] getglobal  1   1        ; dynamicCoverTypes
5873  22000101           [03] call       0   2   4  
5877  1AC00180           [04] jmp        8            ; to [13]
587B  5D810000           [05] getglobal  5   2        ; gRegion
587F  64C1C002           [06] self       5   5   259  ; -774964848
5883  62810001           [07] call       5   2   2  
5887  6401C102           [08] self       5   5   260  ; 537471347
588B  62810001           [09] call       5   2   2  
588F  6441C102           [10] self       5   5   261  ; -182893525
5893  D2010002           [11] move       7   4      
5897  62418001           [12] call       5   3   1  
589B  16800000           [13] tforloop   0       2    ; to [15] if exit
589F  1A40FD7F           [14] jmp        -10          ; to [5]
58A3  1E008000           [15] return     0   1      
                         * constants:
58A7  06                 sizek (6)
58A8  01                 const type 3
58A9  17DDCF0E           const [0]: (248503575)
58AD  04                 const type 4
58AE  12                 string size (18)
58AF  64796E616D696343+  "dynamicC"
58B7  6F76657254797065+  "overType"
58BF  7300               "s\0"
                         const [1]: "dynamicCoverTypes"
58C1  04                 const type 4
58C2  08                 string size (8)
58C3  67526567696F6E00   "gRegion\0"
                         const [2]: "gRegion"
58CB  01                 const type 3
58CC  90F9CED1           const [3]: (-774964848)
58D0  01                 const type 3
58D1  73290920           const [4]: (537471347)
58D5  01                 const type 3
58D6  2B4419F5           const [5]: (-182893525)
                         * functions:
58DA  00                 sizep (0)
                         * lines:
58DB  0F                 sizelineinfo (15)
                         [pc] (line)
58DC  CE                 [01] (-50)
58DD  03                 [02] (-50)
58DE  00                 [03] (-50)
58DF  00                 [04] (-50)
58E0  CE                 [05] (-49)
58E1  03                 [06] (-49)
58E2  00                 [07] (-49)
58E3  00                 [08] (-49)
58E4  CE                 [09] (-49)
58E5  03                 [10] (-49)
58E6  00                 [11] (-49)
58E7  00                 [12] (-49)
58E8  CE                 [13] (-50)
58E9  03                 [14] (-49)
58EA  00                 [15] (-47)
                         * locals:
5918  00                 sizelocvars (0)
                         * upvalues:
5919  00                 sizeupvalues (0)
                         ** end of function **

                         
591A                     ** function [24] definition (level 2)
                         ** start of function **
591A  00                 string size (0)
                         source name: (none)
591C  07                 line defined (979)
591D  EA                 last line defined (1002)
591E  07                 nups (2)
591F  02                 numparams (1)
5920  01                 is_vararg (0)
5921  00                 maxstacksize (15)
                         * code:
5923  35                 sizecode (53)
5924  64004000           [01] self       1   0   256  ; -472735398
5928  62800001           [02] call       1   2   2  
592C  9D400000           [03] getglobal  2   1        ; emplacementMinLevel
fail op	21
5930  15808000           [04] concat     0   1   2  
5934  1A000080           [05] jmp        1            ; to [7]
5938  1E008000           [06] return     0   1      
593C  5D800000           [07] getglobal  1   2        ; 738251817
5940  99C00000           [08] loadk      2   3        ; "/Lotus/Types/LevelObjects/EmplacementNavVolume"
5944  62800001           [09] call       1   2   2  
5948  9D000100           [10] getglobal  2   4        ; gRegion
594C  A4404101           [11] self       2   2   261  ; 152279552
5950  12018000           [12] move       4   1      
5954  A2808001           [13] call       2   3   2  
5958  D9800100           [14] loadk      3   6        ; 0
595C  1DC10100           [15] getglobal  4   7        ; numRandomEmplacements
5960  59810100           [16] loadk      5   6        ; 0
5964  D0400880           [17] forprep    3   34       ; to [52]
fail op	35
5968  63004201           [18] close      1  
596C  1A800080           [19] jmp        3            ; to [23]
5970  CA010001           [20] len        7   2      
fail op	35
5974  2340C203           [21] close      0  
5978  1A000080           [22] jmp        1            ; to [24]
597C  1E008000           [23] return     0   1      
5980  D3010000           [24] getupval   7   0      
5984  12020001           [25] move       8   2      
5988  E2810001           [26] call       7   2   2  
598C  13028000           [27] getupval   8   1      
5990  5D820200           [28] getglobal  9   10       ; emplacementTypes
5994  9DC20200           [29] getglobal  10  11       ; emplacementProbabilities
5998  22828001           [30] call       8   3   2  
599C  5D020300           [31] getglobal  9   12       ; 1074689893
59A0  92020004           [32] move       10  8      
59A4  62820001           [33] call       9   2   2  
59A8  58420000           [34] test       9       1    ; to [36] if false
59AC  1AC00380           [35] jmp        16           ; to [52]
59B0  5D020300           [36] getglobal  9   12       ; 1074689893
59B4  92028003           [37] move       10  7      
59B8  62820001           [38] call       9   2   2  
59BC  58420000           [39] test       9       1    ; to [41] if false
59C0  1A800280           [40] jmp        11           ; to [52]
59C4  5D020100           [41] getglobal  9   4        ; gRegion
59C8  6442C304           [42] self       9   9   269  ; -1110225722
59CC  D2020004           [43] move       11  8      
59D0  2483C303           [44] self       12  7   270  ; 1839670529
59D4  22830001           [45] call       12  2   2  
59D8  64C3C303           [46] self       13  7   271  ; -231049143
59DC  62030001           [47] call       13  2   0  
59E0  62820000           [48] call       9   0   2  
59E4  A402C403           [49] self       10  7   272  ; -1923578185
59E8  19430400           [50] loadk      12  17       ; "Disable"
59EC  A2428001           [51] call       10  3   1  
59F0  D400F77F           [52] forloop    3   -35      ; to [18] if loop
59F4  1E008000           [53] return     0   1      
                         * constants:
59F8  12                 sizek (18)
59F9  01                 const type 3
59FA  5AA1D2E3           const [0]: (-472735398)
59FE  04                 const type 4
59FF  14                 string size (20)
5A00  656D706C6163656D+  "emplacem"
5A08  656E744D696E4C65+  "entMinLe"
5A10  76656C00           "vel\0"
                         const [1]: "emplacementMinLevel"
5A14  01                 const type 3
5A15  29D4002C           const [2]: (738251817)
5A19  04                 const type 4
5A1A  2F                 string size (47)
5A1B  2F4C6F7475732F54+  "/Lotus/T"
5A23  797065732F4C6576+  "ypes/Lev"
5A2B  656C4F626A656374+  "elObject"
5A33  732F456D706C6163+  "s/Emplac"
5A3B  656D656E744E6176+  "ementNav"
5A43  566F6C756D6500     "Volume\0"
                         const [3]: "/Lotus/Types/LevelObjects/EmplacementNavVolume"
5A4A  04                 const type 4
5A4B  08                 string size (8)
5A4C  67526567696F6E00   "gRegion\0"
                         const [4]: "gRegion"
5A54  01                 const type 3
5A55  009A1309           const [5]: (152279552)
5A59  03                 const type 3
5A5A  0000803F           const [6]: (0)
5A5E  04                 const type 4
5A5F  16                 string size (22)
5A60  6E756D52616E646F+  "numRando"
5A68  6D456D706C616365+  "mEmplace"
5A70  6D656E747300       "ments\0"
                         const [7]: "numRandomEmplacements"
5A76  00                 const type 0
                         const [8]: nil
5A77  03                 const type 3
5A78  00000000           const [9]: (0)
5A7C  04                 const type 4
5A7D  11                 string size (17)
5A7E  656D706C6163656D+  "emplacem"
5A86  656E745479706573+  "entTypes"
5A8E  00                 "\0"
                         const [10]: "emplacementTypes"
5A8F  04                 const type 4
5A90  19                 string size (25)
5A91  656D706C6163656D+  "emplacem"
5A99  656E7450726F6261+  "entProba"
5AA1  62696C6974696573+  "bilities"
5AA9  00                 "\0"
                         const [11]: "emplacementProbabilities"
5AAA  01                 const type 3
5AAB  65770E40           const [12]: (1074689893)
5AAF  01                 const type 3
5AB0  C64CD3BD           const [13]: (-1110225722)
5AB4  01                 const type 3
5AB5  0125A76D           const [14]: (1839670529)
5AB9  01                 const type 3
5ABA  49783AF2           const [15]: (-231049143)
5ABE  01                 const type 3
5ABF  B786588D           const [16]: (-1923578185)
5AC3  04                 const type 4
5AC4  08                 string size (8)
5AC5  44697361626C6500   "Disable\0"
                         const [17]: "Disable"
                         * functions:
5ACD  00                 sizep (0)
                         * lines:
5ACE  35                 sizelineinfo (53)
                         [pc] (line)
5ACF  D6                 [01] (-42)
5AD0  03                 [02] (-42)
5AD1  00                 [03] (-42)
5AD2  00                 [04] (-42)
5AD3  D6                 [05] (-42)
5AD4  03                 [06] (-41)
5AD5  00                 [07] (-38)
5AD6  00                 [08] (-38)
5AD7  D6                 [09] (-38)
5AD8  03                 [10] (-37)
5AD9  00                 [11] (-37)
5ADA  00                 [12] (-37)
5ADB  D6                 [13] (-37)
5ADC  03                 [14] (-35)
5ADD  00                 [15] (-35)
5ADE  00                 [16] (-35)
5ADF  D6                 [17] (-35)
5AE0  03                 [18] (-34)
5AE1  00                 [19] (-34)
5AE2  00                 [20] (-34)
5AE3  D7                 [21] (-34)
5AE4  03                 [22] (-34)
5AE5  00                 [23] (-33)
5AE6  00                 [24] (-30)
5AE7  DA                 [25] (-30)
5AE8  03                 [26] (-30)
5AE9  00                 [27] (-28)
5AEA  00                 [28] (-28)
5AEB  DA                 [29] (-28)
5AEC  03                 [30] (-28)
5AED  00                 [31] (-27)
5AEE  00                 [32] (-27)
5AEF  DA                 [33] (-27)
5AF0  03                 [34] (-27)
5AF1  00                 [35] (-27)
5AF2  00                 [36] (-27)
5AF3  DB                 [37] (-27)
5AF4  03                 [38] (-27)
5AF5  00                 [39] (-27)
5AF6  00                 [40] (-27)
5AF7  DB                 [41] (-26)
5AF8  03                 [42] (-26)
5AF9  00                 [43] (-26)
5AFA  00                 [44] (-26)
5AFB  DB                 [45] (-26)
5AFC  03                 [46] (-26)
5AFD  00                 [47] (-26)
5AFE  00                 [48] (-26)
5AFF  DB                 [49] (-25)
5B00  03                 [50] (-25)
5B01  00                 [51] (-25)
5B02  00                 [52] (-35)
5B03  DD                 [53] (-22)
                         * locals:
5BA3  00                 sizelocvars (0)
                         * upvalues:
5BA4  00                 sizeupvalues (0)
                         ** end of function **

                         
5BA5                     ** function [25] definition (level 2)
                         ** start of function **
5BA5  00                 string size (0)
                         source name: (none)
5BA7  07                 line defined (1004)
5BA8  F8                 last line defined (1016)
5BA9  07                 nups (0)
5BAA  00                 numparams (2)
5BAB  02                 is_vararg (0)
5BAC  00                 maxstacksize (7)
                         * code:
5BAE  43                 sizecode (67)
5BAF  9D000000           [01] getglobal  2   0        ; 2144646525
5BB3  D9400000           [02] loadk      3   1        ; 0
5BB7  19810000           [03] loadk      4   2        ; 0
5BBB  A2808001           [04] call       2   3   2  
5BBF  CEC04000           [05] gettable   3   0   259  ; "Legendary"
fail op	33
5BC3  21C00001           [06] tforloop   0       3    ; to [8] if exit
5BC7  1A000380           [07] jmp        13           ; to [21]
5BCB  CE00C100           [08] gettable   3   1   260  ; "LegendaryTypes"
5BCF  CA008001           [09] len        3   3      
fail op	35
5BD3  6340C101           [10] close      1  
5BD7  1A000280           [11] jmp        9            ; to [21]
5BDB  CE00C100           [12] gettable   3   1   260  ; "LegendaryTypes"
5BDF  1D010000           [13] getglobal  4   0        ; 2144646525
5BE3  59410000           [14] loadk      5   1        ; 0
5BE7  8E01C100           [15] gettable   6   1   260  ; "LegendaryTypes"
5BEB  8A010003           [16] len        6   6      
5BEF  22818001           [17] call       4   3   2  
5BF3  CE008101           [18] gettable   3   3   4  
5BF7  DE000001           [19] return     3   2      
5BFB  1AC00A80           [20] jmp        44           ; to [65]
5BFF  CE804100           [21] gettable   3   0   262  ; "Rare"
fail op	33
5C03  21C00001           [22] tforloop   0       3    ; to [24] if exit
5C07  1A000380           [23] jmp        13           ; to [37]
5C0B  CEC0C100           [24] gettable   3   1   263  ; "RareTypes"
5C0F  CA008001           [25] len        3   3      
fail op	35
5C13  6340C101           [26] close      1  
5C17  1A000280           [27] jmp        9            ; to [37]
5C1B  CEC0C100           [28] gettable   3   1   263  ; "RareTypes"
5C1F  1D010000           [29] getglobal  4   0        ; 2144646525
5C23  59410000           [30] loadk      5   1        ; 0
5C27  8EC1C100           [31] gettable   6   1   263  ; "RareTypes"
5C2B  8A010003           [32] len        6   6      
5C2F  22818001           [33] call       4   3   2  
5C33  CE008101           [34] gettable   3   3   4  
5C37  DE000001           [35] return     3   2      
5C3B  1AC00680           [36] jmp        28           ; to [65]
5C3F  CE004200           [37] gettable   3   0   264  ; "Uncommon"
fail op	33
5C43  21C00001           [38] tforloop   0       3    ; to [40] if exit
5C47  1A000380           [39] jmp        13           ; to [53]
5C4B  CE40C200           [40] gettable   3   1   265  ; "UncommonTypes"
5C4F  CA008001           [41] len        3   3      
fail op	35
5C53  6340C101           [42] close      1  
5C57  1A000280           [43] jmp        9            ; to [53]
5C5B  CE40C200           [44] gettable   3   1   265  ; "UncommonTypes"
5C5F  1D010000           [45] getglobal  4   0        ; 2144646525
5C63  59410000           [46] loadk      5   1        ; 0
5C67  8E41C200           [47] gettable   6   1   265  ; "UncommonTypes"
5C6B  8A010003           [48] len        6   6      
5C6F  22818001           [49] call       4   3   2  
5C73  CE008101           [50] gettable   3   3   4  
5C77  DE000001           [51] return     3   2      
5C7B  1AC00280           [52] jmp        12           ; to [65]
5C7F  CE80C200           [53] gettable   3   1   266  ; "CommonTypes"
5C83  CA008001           [54] len        3   3      
fail op	35
5C87  6340C101           [55] close      1  
5C8B  1AC00180           [56] jmp        8            ; to [65]
5C8F  CE80C200           [57] gettable   3   1   266  ; "CommonTypes"
5C93  1D010000           [58] getglobal  4   0        ; 2144646525
5C97  59410000           [59] loadk      5   1        ; 0
5C9B  8E81C200           [60] gettable   6   1   266  ; "CommonTypes"
5C9F  8A010003           [61] len        6   6      
5CA3  22818001           [62] call       4   3   2  
5CA7  CE008101           [63] gettable   3   3   4  
5CAB  DE000001           [64] return     3   2      
5CAF  C6008001           [65] loadnil    3   3      
5CB3  DE000001           [66] return     3   2      
5CB7  1E008000           [67] return     0   1      
                         * constants:
5CBB  0B                 sizek (11)
5CBC  01                 const type 3
5CBD  7DB5D47F           const [0]: (2144646525)
5CC1  03                 const type 3
5CC2  0000803F           const [1]: (0)
5CC6  03                 const type 3
5CC7  0000C842           const [2]: (0)
5CCB  04                 const type 4
5CCC  0A                 string size (10)
5CCD  4C6567656E646172+  "Legendar"
5CD5  7900               "y\0"
                         const [3]: "Legendary"
5CD7  04                 const type 4
5CD8  0F                 string size (15)
5CD9  4C6567656E646172+  "Legendar"
5CE1  79547970657300     "yTypes\0"
                         const [4]: "LegendaryTypes"
5CE8  03                 const type 3
5CE9  00000000           const [5]: (0)
5CED  04                 const type 4
5CEE  05                 string size (5)
5CEF  5261726500         "Rare\0"
                         const [6]: "Rare"
5CF4  04                 const type 4
5CF5  0A                 string size (10)
5CF6  5261726554797065+  "RareType"
5CFE  7300               "s\0"
                         const [7]: "RareTypes"
5D00  04                 const type 4
5D01  09                 string size (9)
5D02  556E636F6D6D6F6E+  "Uncommon"
5D0A  00                 "\0"
                         const [8]: "Uncommon"
5D0B  04                 const type 4
5D0C  0E                 string size (14)
5D0D  556E636F6D6D6F6E+  "Uncommon"
5D15  547970657300       "Types\0"
                         const [9]: "UncommonTypes"
5D1B  04                 const type 4
5D1C  0C                 string size (12)
5D1D  436F6D6D6F6E5479+  "CommonTy"
5D25  70657300           "pes\0"
                         const [10]: "CommonTypes"
                         * functions:
5D29  00                 sizep (0)
                         * lines:
5D2A  43                 sizelineinfo (67)
                         [pc] (line)
5D2B  ED                 [01] (-19)
5D2C  03                 [02] (-19)
5D2D  00                 [03] (-19)
5D2E  00                 [04] (-19)
5D2F  ED                 [05] (-18)
5D30  03                 [06] (-18)
5D31  00                 [07] (-18)
5D32  00                 [08] (-18)
5D33  ED                 [09] (-18)
5D34  03                 [10] (-18)
5D35  00                 [11] (-18)
5D36  00                 [12] (-17)
5D37  ED                 [13] (-17)
5D38  03                 [14] (-17)
5D39  00                 [15] (-17)
5D3A  00                 [16] (-17)
5D3B  EE                 [17] (-17)
5D3C  03                 [18] (-17)
5D3D  00                 [19] (-17)
5D3E  00                 [20] (-17)
5D3F  EE                 [21] (-16)
5D40  03                 [22] (-16)
5D41  00                 [23] (-16)
5D42  00                 [24] (-16)
5D43  EE                 [25] (-16)
5D44  03                 [26] (-16)
5D45  00                 [27] (-16)
5D46  00                 [28] (-15)
5D47  EE                 [29] (-15)
5D48  03                 [30] (-15)
5D49  00                 [31] (-15)
5D4A  00                 [32] (-15)
5D4B  EE                 [33] (-15)
5D4C  03                 [34] (-15)
5D4D  00                 [35] (-15)
5D4E  00                 [36] (-15)
5D4F  EE                 [37] (-14)
5D50  03                 [38] (-14)
5D51  00                 [39] (-14)
5D52  00                 [40] (-14)
5D53  EE                 [41] (-14)
5D54  03                 [42] (-14)
5D55  00                 [43] (-14)
5D56  00                 [44] (-13)
5D57  EF                 [45] (-13)
5D58  03                 [46] (-13)
5D59  00                 [47] (-13)
5D5A  00                 [48] (-13)
5D5B  EF                 [49] (-13)
5D5C  03                 [50] (-13)
5D5D  00                 [51] (-13)
5D5E  00                 [52] (-13)
5D5F  EF                 [53] (-12)
5D60  03                 [54] (-12)
5D61  00                 [55] (-12)
5D62  00                 [56] (-12)
5D63  EF                 [57] (-11)
5D64  03                 [58] (-11)
5D65  00                 [59] (-11)
5D66  00                 [60] (-11)
5D67  EF                 [61] (-11)
5D68  03                 [62] (-11)
5D69  00                 [63] (-11)
5D6A  00                 [64] (-11)
5D6B  EF                 [65] (-9)
5D6C  03                 [66] (-9)
5D6D  00                 [67] (-8)
                         * locals:
5E37  00                 sizelocvars (0)
                         * upvalues:
5E38  00                 sizeupvalues (0)
                         ** end of function **

                         
5E39                     ** function [26] definition (level 2)
                         ** start of function **
5E39  00                 string size (0)
                         source name: (none)
5E3B  07                 line defined (1018)
5E3C  89                 last line defined (1033)
5E3D  08                 nups (1)
5E3E  01                 numparams (0)
5E3F  00                 is_vararg (0)
5E40  00                 maxstacksize (18)
                         * code:
5E42  39                 sizecode (57)
5E43  1D000000           [01] getglobal  0   0        ; gRegion
5E47  24404000           [02] self       0   0   257  ; -774964848
5E4B  22800001           [03] call       0   2   2  
5E4F  24804000           [04] self       0   0   258  ; 537471347
5E53  22800001           [05] call       0   2   2  
5E57  64C04000           [06] self       1   0   259  ; -472735398
5E5B  62800001           [07] call       1   2   2  
5E5F  9D000100           [08] getglobal  2   4        ; barrelTypes
5E63  8A000001           [09] len        2   2      
5E67  D9400100           [10] loadk      3   5        ; 0
5E6B  19810100           [11] loadk      4   6        ; 0
5E6F  90000780           [12] forprep    2   29       ; to [42]
5E73  9DC10100           [13] getglobal  6   7        ; 1074689893
5E77  DD010200           [14] getglobal  7   8        ; barrelMinLevel
5E7B  CE418103           [15] gettable   7   7   5  
5E7F  A2810001           [16] call       6   2   2  
5E83  98410000           [17] test       6       1    ; to [19] if false
5E87  1A800580           [18] jmp        23           ; to [42]
5E8B  9D010200           [19] getglobal  6   8        ; barrelMinLevel
5E8F  8E410103           [20] gettable   6   6   5  
fail op	21
5E93  15808184           [21] concat     0   265 6  
5E97  1A800480           [22] jmp        19           ; to [42]
5E9B  9D010200           [23] getglobal  6   8        ; barrelMinLevel
5E9F  8E410103           [24] gettable   6   6   5  
fail op	21
5EA3  15808100           [25] concat     0   1   6  
5EA7  1A800380           [26] jmp        15           ; to [42]
5EAB  9D810200           [27] getglobal  6   10       ; table
5EAF  8EC14203           [28] gettable   6   6   267  ; -843973282
5EB3  DD010100           [29] getglobal  7   4        ; barrelTypes
5EB7  12028002           [30] move       8   5      
5EBB  A2418001           [31] call       6   3   1  
5EBF  9D810200           [32] getglobal  6   10       ; table
5EC3  8EC14203           [33] gettable   6   6   267  ; -843973282
5EC7  DD010300           [34] getglobal  7   12       ; barrelProbability
5ECB  12028002           [35] move       8   5      
5ECF  A2418001           [36] call       6   3   1  
5ED3  9D810200           [37] getglobal  6   10       ; table
5ED7  8EC14203           [38] gettable   6   6   267  ; -843973282
5EDB  DD010200           [39] getglobal  7   8        ; barrelMinLevel
5EDF  12028002           [40] move       8   5      
5EE3  A2418001           [41] call       6   3   1  
5EE7  9440F87F           [42] forloop    2   -30      ; to [13] if loop
5EEB  93010000           [43] getupval   6   0      
5EEF  8E414303           [44] gettable   6   6   269  ; 1486905805
5EF3  DD810300           [45] getglobal  7   14       ; itemTypes
5EF7  1DC20300           [46] getglobal  8   15       ; itemProbability
5EFB  5D020400           [47] getglobal  9   16       ; randomRotation
5EFF  9D420400           [48] getglobal  10  17       ; itemTypesSecondary
5F03  DD820400           [49] getglobal  11  18       ; itemProbabilitySecondary
5F07  1DC30400           [50] getglobal  12  19       ; randomRotationSecondary
5F0B  5D030100           [51] getglobal  13  4        ; barrelTypes
5F0F  9D030300           [52] getglobal  14  12       ; barrelProbability
5F13  DD030500           [53] getglobal  15  20       ; corpseTypes
5F17  1D440500           [54] getglobal  16  21       ; corpseProbability
5F1B  5D840500           [55] getglobal  17  22       ; isArchwingMission
5F1F  A2410006           [56] call       6   12  1  
5F23  1E008000           [57] return     0   1      
                         * constants:
5F27  17                 sizek (23)
5F28  04                 const type 4
5F29  08                 string size (8)
5F2A  67526567696F6E00   "gRegion\0"
                         const [0]: "gRegion"
5F32  01                 const type 3
5F33  90F9CED1           const [1]: (-774964848)
5F37  01                 const type 3
5F38  73290920           const [2]: (537471347)
5F3C  01                 const type 3
5F3D  5AA1D2E3           const [3]: (-472735398)
5F41  04                 const type 4
5F42  0C                 string size (12)
5F43  62617272656C5479+  "barrelTy"
5F4B  70657300           "pes\0"
                         const [4]: "barrelTypes"
5F4F  03                 const type 3
5F50  0000803F           const [5]: (0)
5F54  03                 const type 3
5F55  000080BF           const [6]: (0)
5F59  01                 const type 3
5F5A  65770E40           const [7]: (1074689893)
5F5E  04                 const type 4
5F5F  0F                 string size (15)
5F60  62617272656C4D69+  "barrelMi"
5F68  6E4C6576656C00     "nLevel\0"
                         const [8]: "barrelMinLevel"
5F6F  03                 const type 3
5F70  00000000           const [9]: (0)
5F74  04                 const type 4
5F75  06                 string size (6)
5F76  7461626C6500       "table\0"
                         const [10]: "table"
5F7C  01                 const type 3
5F7D  5EFDB1CD           const [11]: (-843973282)
5F81  04                 const type 4
5F82  12                 string size (18)
5F83  62617272656C5072+  "barrelPr"
5F8B  6F626162696C6974+  "obabilit"
5F93  7900               "y\0"
                         const [12]: "barrelProbability"
5F95  01                 const type 3
5F96  CD61A058           const [13]: (1486905805)
5F9A  04                 const type 4
5F9B  0A                 string size (10)
5F9C  6974656D54797065+  "itemType"
5FA4  7300               "s\0"
                         const [14]: "itemTypes"
5FA6  04                 const type 4
5FA7  10                 string size (16)
5FA8  6974656D50726F62+  "itemProb"
5FB0  6162696C69747900   "ability\0"
                         const [15]: "itemProbability"
5FB8  04                 const type 4
5FB9  0F                 string size (15)
5FBA  72616E646F6D526F+  "randomRo"
5FC2  746174696F6E00     "tation\0"
                         const [16]: "randomRotation"
5FC9  04                 const type 4
5FCA  13                 string size (19)
5FCB  6974656D54797065+  "itemType"
5FD3  735365636F6E6461+  "sSeconda"
5FDB  727900             "ry\0"
                         const [17]: "itemTypesSecondary"
5FDE  04                 const type 4
5FDF  19                 string size (25)
5FE0  6974656D50726F62+  "itemProb"
5FE8  6162696C69747953+  "abilityS"
5FF0  65636F6E64617279+  "econdary"
5FF8  00                 "\0"
                         const [18]: "itemProbabilitySecondary"
5FF9  04                 const type 4
5FFA  18                 string size (24)
5FFB  72616E646F6D526F+  "randomRo"
6003  746174696F6E5365+  "tationSe"
600B  636F6E6461727900   "condary\0"
                         const [19]: "randomRotationSecondary"
6013  04                 const type 4
6014  0C                 string size (12)
6015  636F727073655479+  "corpseTy"
601D  70657300           "pes\0"
                         const [20]: "corpseTypes"
6021  04                 const type 4
6022  12                 string size (18)
6023  636F727073655072+  "corpsePr"
602B  6F626162696C6974+  "obabilit"
6033  7900               "y\0"
                         const [21]: "corpseProbability"
6035  04                 const type 4
6036  12                 string size (18)
6037  6973417263687769+  "isArchwi"
603F  6E674D697373696F+  "ngMissio"
6047  6E00               "n\0"
                         const [22]: "isArchwingMission"
                         * functions:
6049  00                 sizep (0)
                         * lines:
604A  39                 sizelineinfo (57)
                         [pc] (line)
604B  FB                 [01] (-5)
604C  03                 [02] (-5)
604D  00                 [03] (-5)
604E  00                 [04] (-5)
604F  FB                 [05] (-5)
6050  03                 [06] (-4)
6051  00                 [07] (-4)
6052  00                 [08] (-3)
6053  FB                 [09] (-3)
6054  03                 [10] (-3)
6055  00                 [11] (-3)
6056  00                 [12] (-3)
6057  FB                 [13] (-2)
6058  03                 [14] (-2)
6059  00                 [15] (-2)
605A  00                 [16] (-2)
605B  FB                 [17] (-2)
605C  03                 [18] (-2)
605D  00                 [19] (-2)
605E  00                 [20] (-2)
605F  FC                 [21] (-2)
6060  03                 [22] (-2)
6061  00                 [23] (-1)
6062  00                 [24] (-1)
6063  FC                 [25] (-1)
6064  03                 [26] (-1)
6065  00                 [27] (0)
6066  00                 [28] (0)
6067  FD                 [29] (0)
6068  03                 [30] (0)
6069  00                 [31] (0)
606A  00                 [32] (1)
606B  FD                 [33] (1)
606C  03                 [34] (1)
606D  00                 [35] (1)
606E  00                 [36] (1)
606F  FD                 [37] (2)
6070  03                 [38] (2)
6071  00                 [39] (2)
6072  00                 [40] (2)
6073  FD                 [41] (2)
6074  03                 [42] (-3)
6075  00                 [43] (7)
6076  00                 [44] (7)
6077  FD                 [45] (7)
6078  03                 [46] (7)
6079  00                 [47] (7)
607A  00                 [48] (7)
607B  FE                 [49] (7)
607C  03                 [50] (8)
607D  00                 [51] (8)
607E  00                 [52] (8)
607F  FE                 [53] (8)
6080  03                 [54] (8)
6081  00                 [55] (8)
6082  00                 [56] (7)
6083  FE                 [57] (9)
                         * locals:
612F  00                 sizelocvars (0)
                         * upvalues:
6130  00                 sizeupvalues (0)
                         ** end of function **

                         
6131                     ** function [27] definition (level 2)
                         ** start of function **
6131  00                 string size (0)
                         source name: (none)
6133  08                 line defined (1035)
6134  A0                 last line defined (1056)
6135  08                 nups (0)
6136  00                 numparams (0)
6137  00                 is_vararg (0)
6138  00                 maxstacksize (14)
                         * code:
613A  39                 sizecode (57)
613B  19000000           [01] loadk      0   0        ; 0
613F  5D400000           [02] getglobal  1   1        ; 1074689893
6143  9D800000           [03] getglobal  2   2        ; moonFissureType
6147  62800001           [04] call       1   2   2  
614B  58400000           [05] test       1       1    ; to [7] if false
614F  1A400C80           [06] jmp        50           ; to [57]
6153  5DC00000           [07] getglobal  1   3        ; gRegion
6157  6400C100           [08] self       1   1   260  ; -1485896174
615B  DD400100           [09] getglobal  3   5        ; -332969190
615F  19810100           [10] loadk      4   6        ; "MoonFissureSpawn"
6163  E2000001           [11] call       3   2   0  
6167  62800000           [12] call       1   0   2  
616B  9D400000           [13] getglobal  2   1        ; 1074689893
616F  D2008000           [14] move       3   1      
6173  A2800001           [15] call       2   2   2  
6177  98000000           [16] test       2       0    ; to [18] if true
617B  1A000080           [17] jmp        1            ; to [19]
617F  1E008000           [18] return     0   1      
6183  99C00100           [19] loadk      2   7        ; 0
6187  DD000200           [20] getglobal  3   8        ; math
618B  CE40C201           [21] gettable   3   3   265  ; 1710846250
618F  12010000           [22] move       4   0      
6193  4A018000           [23] len        5   1      
6197  E2808001           [24] call       3   3   2  
619B  12008001           [25] move       0   3      
619F  D9C00100           [26] loadk      3   7        ; 0
61A3  12010000           [27] move       4   0      
61A7  59C10100           [28] loadk      5   7        ; 0
61AB  D0400680           [29] forprep    3   26       ; to [56]
61AF  DD810200           [30] getglobal  7   10       ; 2144646525
61B3  19C20100           [31] loadk      8   7        ; 0
61B7  4A028000           [32] len        9   1      
61BB  E2818001           [33] call       7   3   2  
61BF  92008003           [34] move       2   7      
61C3  CE818000           [35] gettable   7   1   2  
61C7  E4C1C203           [36] self       7   7   267  ; 1839670529
61CB  E2810001           [37] call       7   2   2  
61CF  0E828000           [38] gettable   8   1   2  
61D3  24024304           [39] self       8   8   268  ; -231049143
61D7  22820001           [40] call       8   2   2  
61DB  5DC20000           [41] getglobal  9   3        ; gRegion
61DF  6442C304           [42] self       9   9   269  ; -1110225722
61E3  DD820000           [43] getglobal  11  2        ; moonFissureType
61E7  12038003           [44] move       12  7      
61EB  52030004           [45] move       13  8      
61EF  62428002           [46] call       9   5   1  
61F3  5D820300           [47] getglobal  9   14       ; table
61F7  4EC2C304           [48] gettable   9   9   271  ; -843973282
61FB  92028000           [49] move       10  1      
61FF  D2020001           [50] move       11  2      
6203  62428001           [51] call       9   3   1  
6207  4A028000           [52] len        9   1      
fail op	21
620B  15C0C104           [53] concat     0   9   263
620F  1A000080           [54] jmp        1            ; to [56]
6213  1E008000           [55] return     0   1      
6217  D400F97F           [56] forloop    3   -27      ; to [30] if loop
621B  1E008000           [57] return     0   1      
                         * constants:
621F  10                 sizek (16)
6220  03                 const type 3
6221  0000A040           const [0]: (0)
6225  01                 const type 3
6226  65770E40           const [1]: (1074689893)
622A  04                 const type 4
622B  10                 string size (16)
622C  6D6F6F6E46697373+  "moonFiss"
6234  7572655479706500   "ureType\0"
                         const [2]: "moonFissureType"
623C  04                 const type 4
623D  08                 string size (8)
623E  67526567696F6E00   "gRegion\0"
                         const [3]: "gRegion"
6246  01                 const type 3
6247  12066FA7           const [4]: (-1485896174)
624B  01                 const type 3
624C  1A4B27EC           const [5]: (-332969190)
6250  04                 const type 4
6251  11                 string size (17)
6252  4D6F6F6E46697373+  "MoonFiss"
625A  757265537061776E+  "ureSpawn"
6262  00                 "\0"
                         const [6]: "MoonFissureSpawn"
6263  03                 const type 3
6264  0000803F           const [7]: (0)
6268  04                 const type 4
6269  05                 string size (5)
626A  6D61746800         "math\0"
                         const [8]: "math"
626F  01                 const type 3
6270  2A71F965           const [9]: (1710846250)
6274  01                 const type 3
6275  7DB5D47F           const [10]: (2144646525)
6279  01                 const type 3
627A  0125A76D           const [11]: (1839670529)
627E  01                 const type 3
627F  49783AF2           const [12]: (-231049143)
6283  01                 const type 3
6284  C64CD3BD           const [13]: (-1110225722)
6288  04                 const type 4
6289  06                 string size (6)
628A  7461626C6500       "table\0"
                         const [14]: "table"
6290  01                 const type 3
6291  5EFDB1CD           const [15]: (-843973282)
                         * functions:
6295  00                 sizep (0)
                         * lines:
6296  39                 sizelineinfo (57)
                         [pc] (line)
6297  0C                 [01] (12)
6298  04                 [02] (14)
6299  00                 [03] (14)
629A  00                 [04] (14)
629B  0E                 [05] (14)
629C  04                 [06] (14)
629D  00                 [07] (15)
629E  00                 [08] (15)
629F  0E                 [09] (15)
62A0  04                 [10] (15)
62A1  00                 [11] (15)
62A2  00                 [12] (15)
62A3  0E                 [13] (16)
62A4  04                 [14] (16)
62A5  00                 [15] (16)
62A6  00                 [16] (16)
62A7  0E                 [17] (16)
62A8  04                 [18] (17)
62A9  00                 [19] (19)
62AA  00                 [20] (20)
62AB  0E                 [21] (20)
62AC  04                 [22] (20)
62AD  00                 [23] (20)
62AE  00                 [24] (20)
62AF  0F                 [25] (20)
62B0  04                 [26] (21)
62B1  00                 [27] (21)
62B2  00                 [28] (21)
62B3  0F                 [29] (21)
62B4  04                 [30] (22)
62B5  00                 [31] (22)
62B6  00                 [32] (22)
62B7  0F                 [33] (22)
62B8  04                 [34] (22)
62B9  00                 [35] (23)
62BA  00                 [36] (23)
62BB  0F                 [37] (23)
62BC  04                 [38] (24)
62BD  00                 [39] (24)
62BE  00                 [40] (24)
62BF  0F                 [41] (25)
62C0  04                 [42] (25)
62C1  00                 [43] (25)
62C2  00                 [44] (25)
62C3  0F                 [45] (25)
62C4  04                 [46] (25)
62C5  00                 [47] (26)
62C6  00                 [48] (26)
62C7  10                 [49] (26)
62C8  04                 [50] (26)
62C9  00                 [51] (26)
62CA  00                 [52] (27)
62CB  10                 [53] (27)
62CC  04                 [54] (27)
62CD  00                 [55] (28)
62CE  00                 [56] (21)
62CF  10                 [57] (32)
                         * locals:
637B  00                 sizelocvars (0)
                         * upvalues:
637C  00                 sizeupvalues (0)
                         ** end of function **

                         
637D                     ** function [28] definition (level 2)
                         ** start of function **
637D  00                 string size (0)
                         source name: (none)
637F  08                 line defined (1058)
6380  A9                 last line defined (1065)
6381  08                 nups (1)
6382  01                 numparams (1)
6383  01                 is_vararg (0)
6384  00                 maxstacksize (6)
                         * code:
6386  0E                 sizecode (14)
6387  59000000           [01] loadk      1   0        ; 0
638B  93000000           [02] getupval   2   0      
638F  8A000001           [03] len        2   2      
6393  D9000000           [04] loadk      3   0        ; 0
6397  50000180           [05] forprep    1   5        ; to [11]
639B  53010000           [06] getupval   5   0      
639F  4E018102           [07] gettable   5   5   4  
fail op	35
63A3  23008002           [08] close      0  
63A7  1A000080           [09] jmp        1            ; to [11]
63AB  1E010001           [10] return     4   2      
63AF  5440FE7F           [11] forloop    1   -6       ; to [6] if loop
63B3  59410000           [12] loadk      5   1        ; 0
63B7  5E010001           [13] return     5   2      
63BB  1E008000           [14] return     0   1      
                         * constants:
63BF  02                 sizek (2)
63C0  03                 const type 3
63C1  0000803F           const [0]: (0)
63C5  03                 const type 3
63C6  000080BF           const [1]: (0)
                         * functions:
63CA  00                 sizep (0)
                         * lines:
63CB  0E                 sizelineinfo (14)
                         [pc] (line)
63CC  23                 [01] (35)
63CD  04                 [02] (35)
63CE  00                 [03] (35)
63CF  00                 [04] (35)
63D0  23                 [05] (35)
63D1  04                 [06] (36)
63D2  00                 [07] (36)
63D3  00                 [08] (36)
63D4  23                 [09] (36)
63D5  04                 [10] (37)
63D6  00                 [11] (35)
63D7  00                 [12] (40)
63D8  23                 [13] (40)
63D9  04                 [14] (41)
                         * locals:
6404  00                 sizelocvars (0)
                         * upvalues:
6405  00                 sizeupvalues (0)
                         ** end of function **

                         
6406                     ** function [29] definition (level 2)
                         ** start of function **
6406  00                 string size (0)
                         source name: (none)
6408  08                 line defined (1067)
6409  B6                 last line defined (1078)
640A  08                 nups (0)
640B  00                 numparams (0)
640C  00                 is_vararg (0)
640D  00                 maxstacksize (8)
                         * code:
640F  1E                 sizecode (30)
6410  0B000002           [01] newtable   0   4   0    ; array=4, hash=0
6414  59000000           [02] loadk      1   0        ; -82
6418  99400000           [03] loadk      2   1        ; -82
641C  D9800000           [04] loadk      3   2        ; 10
6420  19C10000           [05] loadk      4   3        ; 10
6424  1B400002           [06] setlist    0   4   1    ; index 1 to 4
6428  4B000002           [07] newtable   1   4   0    ; array=4, hash=0
642C  99000100           [08] loadk      2   4        ; 0
6430  D9400100           [09] loadk      3   5        ; 0
6434  19810100           [10] loadk      4   6        ; 0
6438  59810100           [11] loadk      5   6        ; 0
643C  5B400002           [12] setlist    1   4   1    ; index 1 to 4
6440  9DC00100           [13] getglobal  2   7        ; -1941280958
6444  D9000200           [14] loadk      3   8        ; 0
6448  19010100           [15] loadk      4   4        ; 0
644C  A2808001           [16] call       2   3   2  
6450  D9000100           [17] loadk      3   4        ; 0
6454  0A010000           [18] len        4   0      
6458  59010100           [19] loadk      5   4        ; 0
645C  D0C00180           [20] forprep    3   8        ; to [29]
6460  CE810100           [21] gettable   7   0   6  
fail op	21
6464  15C00101           [22] concat     0   2   7  
6468  1A800080           [23] jmp        3            ; to [27]
646C  CE818100           [24] gettable   7   1   6  
6470  DE010001           [25] return     7   2      
6474  1A400080           [26] jmp        2            ; to [29]
6478  CE810100           [27] gettable   7   0   6  
647C  8DC00101           [28] sub        2   2   7  
6480  D480FD7F           [29] forloop    3   -9       ; to [21] if loop
6484  1E008000           [30] return     0   1      
                         * constants:
6488  09                 sizek (9)
6489  03                 const type 3
648A  AE47413F           const [0]: (-82)
648E  03                 const type 3
648F  AE47613E           const [1]: (-82)
6493  03                 const type 3
6494  0AD7A33C           const [2]: (10)
6498  03                 const type 3
6499  0AD7A33B           const [3]: (10)
649D  03                 const type 3
649E  0000803F           const [4]: (0)
64A2  03                 const type 3
64A3  00000040           const [5]: (0)
64A7  03                 const type 3
64A8  00004040           const [6]: (0)
64AC  01                 const type 3
64AD  42674A8C           const [7]: (-1941280958)
64B1  03                 const type 3
64B2  00000000           const [8]: (0)
                         * functions:
64B6  00                 sizep (0)
                         * lines:
64B7  1E                 sizelineinfo (30)
                         [pc] (line)
64B8  2C                 [01] (44)
64B9  04                 [02] (44)
64BA  00                 [03] (44)
64BB  00                 [04] (44)
64BC  2C                 [05] (44)
64BD  04                 [06] (44)
64BE  00                 [07] (45)
64BF  00                 [08] (45)
64C0  2C                 [09] (45)
64C1  04                 [10] (45)
64C2  00                 [11] (45)
64C3  00                 [12] (45)
64C4  2C                 [13] (46)
64C5  04                 [14] (46)
64C6  00                 [15] (46)
64C7  00                 [16] (46)
64C8  2C                 [17] (47)
64C9  04                 [18] (47)
64CA  00                 [19] (47)
64CB  00                 [20] (47)
64CC  2C                 [21] (48)
64CD  04                 [22] (48)
64CE  00                 [23] (48)
64CF  00                 [24] (49)
64D0  2D                 [25] (49)
64D1  04                 [26] (49)
64D2  00                 [27] (51)
64D3  00                 [28] (51)
64D4  2D                 [29] (47)
64D5  04                 [30] (54)
                         * locals:
6530  00                 sizelocvars (0)
                         * upvalues:
6531  00                 sizeupvalues (0)
                         ** end of function **

                         
6532                     ** function [30] definition (level 2)
                         ** start of function **
6532  00                 string size (0)
                         source name: (none)
6534  08                 line defined (1080)
6535  C0                 last line defined (1088)
6536  08                 nups (0)
6537  00                 numparams (1)
6538  01                 is_vararg (0)
6539  00                 maxstacksize (6)
                         * code:
653B  15                 sizecode (21)
653C  4B000000           [01] newtable   1   0   0    ; array=0, hash=0
6540  8A000000           [02] len        2   0      
fail op	21
6544  15800080           [03] concat     0   256 2  
6548  1A800380           [04] jmp        15           ; to [20]
654C  9D400000           [05] getglobal  2   1        ; 2144646525
6550  D9800000           [06] loadk      3   2        ; 0
6554  0A010000           [07] len        4   0      
6558  A2808001           [08] call       2   3   2  
655C  DDC00000           [09] getglobal  3   3        ; table
6560  CE00C101           [10] gettable   3   3   260  ; -431682403
6564  12018000           [11] move       4   1      
6568  4E810000           [12] gettable   5   0   2  
656C  E2408001           [13] call       3   3   1  
6570  DDC00000           [14] getglobal  3   3        ; table
6574  CE40C101           [15] gettable   3   3   261  ; -843973282
6578  12010000           [16] move       4   0      
657C  52010001           [17] move       5   2      
6580  E2408001           [18] call       3   3   1  
6584  1A40FB7F           [19] jmp        -18          ; to [2]
6588  5E000001           [20] return     1   2      
658C  1E008000           [21] return     0   1      
                         * constants:
6590  06                 sizek (6)
6591  03                 const type 3
6592  00000000           const [0]: (0)
6596  01                 const type 3
6597  7DB5D47F           const [1]: (2144646525)
659B  03                 const type 3
659C  0000803F           const [2]: (0)
65A0  04                 const type 4
65A1  06                 string size (6)
65A2  7461626C6500       "table\0"
                         const [3]: "table"
65A8  01                 const type 3
65A9  9D0C45E6           const [4]: (-431682403)
65AD  01                 const type 3
65AE  5EFDB1CD           const [5]: (-843973282)
                         * functions:
65B2  00                 sizep (0)
                         * lines:
65B3  15                 sizelineinfo (21)
                         [pc] (line)
65B4  39                 [01] (57)
65B5  04                 [02] (58)
65B6  00                 [03] (58)
65B7  00                 [04] (58)
65B8  3A                 [05] (59)
65B9  04                 [06] (59)
65BA  00                 [07] (59)
65BB  00                 [08] (59)
65BC  3A                 [09] (60)
65BD  04                 [10] (60)
65BE  00                 [11] (60)
65BF  00                 [12] (60)
65C0  3A                 [13] (60)
65C1  04                 [14] (61)
65C2  00                 [15] (61)
65C3  00                 [16] (61)
65C4  3B                 [17] (61)
65C5  04                 [18] (61)
65C6  00                 [19] (61)
65C7  00                 [20] (63)
65C8  3B                 [21] (64)
                         * locals:
6608  00                 sizelocvars (0)
                         * upvalues:
6609  00                 sizeupvalues (0)
                         ** end of function **

                         
660A                     ** function [31] definition (level 2)
                         ** start of function **
660A  00                 string size (0)
                         source name: (none)
660C  08                 line defined (1090)
660D  91                 last line defined (1169)
660E  09                 nups (6)
660F  06                 numparams (0)
6610  00                 is_vararg (0)
6611  00                 maxstacksize (41)
                         * code:
6614  01                 sizecode (178)
6615  1D000000           [001] getglobal  0   0        ; gGameRules
6619  64404000           [002] self       1   0   257  ; -1201441975
661D  62800001           [003] call       1   2   2  
6621  4E80C000           [004] gettable   1   1   258  ; "syndicateTag"
6625  64C0C000           [005] self       1   1   259  ; 828278287
6629  62800001           [006] call       1   2   2  
662D  58000000           [007] test       1       0    ; to [9] if true
6631  1A002A80           [008] jmp        169          ; to [178]
6635  5D000100           [009] getglobal  1   4        ; 1074689893
6639  9D400100           [010] getglobal  2   5        ; rareLootWaypointType
663D  62800001           [011] call       1   2   2  
6641  58400000           [012] test       1       1    ; to [14] if false
6645  1AC02880           [013] jmp        164          ; to [178]
6649  53000000           [014] getupval   1   0      
664D  4A008000           [015] len        1   1      
fail op	35
6651  2380C100           [016] close      0  
6655  1AC00080           [017] jmp        4            ; to [22]
6659  5DC00100           [018] getglobal  1   7        ; -1817107093
665D  99000200           [019] loadk      2   8        ; "Not enough valid spawn points for dogtags."
6661  62400001           [020] call       1   2   1  
6665  1E008000           [021] return     0   1      
6669  53008000           [022] getupval   1   1      
666D  A4404000           [023] self       2   0   257  ; -1201441975
6671  A2800001           [024] call       2   2   2  
6675  8E804001           [025] gettable   2   2   258  ; "syndicateTag"
6679  62800001           [026] call       1   2   2  
fail op	21
667D  1580C100           [027] concat     0   1   262
6681  1AC00080           [028] jmp        4            ; to [33]
6685  9DC00100           [029] getglobal  2   7        ; -1817107093
6689  D9400200           [030] loadk      3   9        ; "syndicate dog tag type not found"
668D  A2400001           [031] call       2   2   1  
6691  1E008000           [032] return     0   1      
6695  8B000000           [033] newtable   2   0   0    ; array=0, hash=0
6699  D9800200           [034] loadk      3   10       ; 0
669D  13010000           [035] getupval   4   0      
66A1  0A010002           [036] len        4   4      
66A5  59810200           [037] loadk      5   10       ; 0
66A9  D0000280           [038] forprep    3   9        ; to [48]
66AD  DDC10200           [039] getglobal  7   11       ; table
66B1  CE01C303           [040] gettable   7   7   268  ; -431682403
66B5  12020001           [041] move       8   2      
66B9  4B820000           [042] newtable   9   0   2    ; array=0, hash=2
66BD  93020000           [043] getupval   10  0      
66C1  8E820105           [044] gettable   10  10  6  
66C5  4C828286           [045] settable   9   269 10   ; "wayPoint"
66C9  4C820187           [046] settable   9   270 6    ; "originalIndex"
66CD  E2418001           [047] call       7   3   1  
66D1  D440FD7F           [048] forloop    3   -10      ; to [39] if loop
66D5  CA010001           [049] len        7   2      
66D9  13020001           [050] getupval   8   2      
fail op	21
66DD  15C00104           [051] concat     0   8   7  
66E1  1A800C80           [052] jmp        51           ; to [104]
66E5  D3018001           [053] getupval   7   3      
66E9  12020001           [054] move       8   2      
66ED  E2810001           [055] call       7   2   2  
66F1  92008003           [056] move       2   7      
66F5  CB010000           [057] newtable   7   0   0    ; array=0, hash=0
66F9  19820200           [058] loadk      8   10       ; 0
66FD  4A020001           [059] len        9   2      
6701  99820200           [060] loadk      10  10       ; 0
6705  10020980           [061] forprep    8   37       ; to [99]
6709  0EC30201           [062] gettable   12  2   11 
670D  0E434306           [063] gettable   12  12  269  ; "wayPoint"
6711  24C34306           [064] self       12  12  271  ; 1927666530
6715  22830001           [065] call       12  2   2  
6719  5D030100           [066] getglobal  13  4        ; 1074689893
671D  92030006           [067] move       14  12     
6721  62830001           [068] call       13  2   2  
6725  58430000           [069] test       13      1    ; to [71] if false
6729  1AC00680           [070] jmp        28           ; to [99]
672D  64034406           [071] self       13  12  272  ; -2104556066
6731  62830001           [072] call       13  2   2  
6735  97030000           [073] loadbool   14  0   0    ; false
6739  D9830200           [074] loadk      15  10       ; 0
673D  0A048003           [075] len        16  7      
6741  59840200           [076] loadk      17  10       ; 0
6745  D0C30080           [077] forprep    15  4        ; to [82]
6749  CE848403           [078] gettable   19  7   18 
fail op	35
674D  23C08406           [079] close      0  
6751  1A000080           [080] jmp        1            ; to [82]
6755  97038000           [081] loadbool   14  1   0    ; true
6759  D483FE7F           [082] forloop    15  -5       ; to [78] if loop
675D  98030000           [083] test       14      0    ; to [85] if true
6761  1A000280           [084] jmp        9            ; to [94]
6765  DDC40200           [085] getglobal  19  11       ; table
6769  CE04C309           [086] gettable   19  19  268  ; -431682403
676D  12058003           [087] move       20  7      
6771  52058006           [088] move       21  13     
6775  E2448001           [089] call       19  3   1  
6779  DDC40200           [090] getglobal  19  11       ; table
677D  CE44C409           [091] gettable   19  19  273  ; -843973282
6781  0EC50201           [092] gettable   20  2   11 
6785  E2440001           [093] call       19  2   1  
6789  CA040001           [094] len        19  2      
678D  13050001           [095] getupval   20  2      
fail op	33
6791  21008509           [096] tforloop   0       20   ; to [98] if exit
6795  1A000080           [097] jmp        1            ; to [99]
6799  1A000080           [098] jmp        1            ; to [100]
679D  1442F67F           [099] forloop    8   -38      ; to [62] if loop
67A1  D3048001           [100] getupval   19  3      
67A5  12050001           [101] move       20  2      
67A9  E2840001           [102] call       19  2   2  
67AD  92008009           [103] move       2   19     
67B1  DD840400           [104] getglobal  19  18       ; math
67B5  CEC4C409           [105] gettable   19  19  275  ; 1710846250
67B9  13050001           [106] getupval   20  2      
67BD  4A050001           [107] len        21  2      
67C1  E2848001           [108] call       19  3   2  
67C5  24054500           [109] self       20  0   276  ; -1632033125
67C9  92058009           [110] move       22  19     
67CD  22458001           [111] call       20  3   1  
67D1  19850200           [112] loadk      20  10       ; 0
67D5  52058009           [113] move       21  19     
67D9  99850200           [114] loadk      22  10       ; 0
67DD  10050F80           [115] forprep    20  61       ; to [177]
67E1  13060002           [116] getupval   24  4      
67E5  22868000           [117] call       24  1   2  
67E9  5D460500           [118] getglobal  25  21       ; -895206725
67ED  93068002           [119] getupval   26  5      
67F1  8E46000D           [120] gettable   26  26  1  
67F5  8E06060D           [121] gettable   26  26  24 
67F9  62860001           [122] call       25  2   2  
67FD  8EC60501           [123] gettable   26  2   23 
6801  8E46430D           [124] gettable   26  26  269  ; "wayPoint"
6805  A486450D           [125] self       26  26  278  ; 1839670529
6809  A2860001           [126] call       26  2   2  
680D  CEC60501           [127] gettable   27  2   23 
6811  CE46C30D           [128] gettable   27  27  269  ; "wayPoint"
6815  E4C6C50D           [129] self       27  27  279  ; -231049143
6819  E2860001           [130] call       27  2   2  
681D  1DC70200           [131] getglobal  28  11       ; table
6821  0E47440E           [132] gettable   28  28  273  ; -843973282
6825  53070000           [133] getupval   29  0      
6829  8EC70501           [134] gettable   30  2   23 
682D  8E87430F           [135] gettable   30  30  270  ; "originalIndex"
6831  22478001           [136] call       28  3   1  
6835  0387C20B           [137] add        28  23  266  ; 0
6839  4A070001           [138] len        29  2      
683D  99870200           [139] loadk      30  10       ; 0
6841  10870280           [140] forprep    28  11       ; to [152]
6845  0EC80701           [141] gettable   32  2   31 
6849  0E884310           [142] gettable   32  32  270  ; "originalIndex"
684D  4EC80501           [143] gettable   33  2   23 
6851  4E88C310           [144] gettable   33  33  270  ; "originalIndex"
fail op	21
6855  15008810           [145] concat     0   33  32 
6859  1A000180           [146] jmp        5            ; to [152]
685D  0EC80701           [147] gettable   32  2   31 
6861  4EC80701           [148] gettable   33  2   31 
6865  4E88C310           [149] gettable   33  33  270  ; "originalIndex"
6869  4D88C210           [150] sub        33  33  266  ; 0
686D  0C480887           [151] settable   32  270 33   ; "originalIndex"
6871  14C7FC7F           [152] forloop    28  -12      ; to [141] if loop
6875  1D080600           [153] getglobal  32  24       ; gRegion
6879  24484610           [154] self       32  32  281  ; -1110225722
687D  9208800C           [155] move       34  25     
6881  D208000D           [156] move       35  26     
6885  1209800D           [157] move       36  27     
6889  22488002           [158] call       32  5   1  
688D  17080000           [159] loadbool   32  0   0    ; false
6891  18080000           [160] test       32      0    ; to [162] if true
6895  1A800380           [161] jmp        15           ; to [177]
6899  1DC80100           [162] getglobal  32  7        ; -1817107093
689D  59880600           [163] loadk      33  26       ; "Created lootable "
68A1  A4484000           [164] self       34  0   257  ; -1201441975
68A5  A2880001           [165] call       34  2   2  
68A9  8E884011           [166] gettable   34  34  258  ; "syndicateTag"
68AD  A4C84611           [167] self       34  34  283  ; 1590141906
68B1  A2880001           [168] call       34  2   2  
68B5  D9080700           [169] loadk      35  28       ; " dogtag at "
68B9  0E49470D           [170] gettable   36  26  285  ; "x"
68BD  59890700           [171] loadk      37  30       ; " "
68C1  8EC9470D           [172] gettable   38  26  287  ; "y"
68C5  D9890700           [173] loadk      39  30       ; " "
68C9  0E0A480D           [174] gettable   40  26  288  ; "z"
68CD  42088A10           [175] concat     33  33  40 
68D1  22480001           [176] call       32  2   1  
68D5  1445F07F           [177] forloop    20  -62      ; to [116] if loop
68D9  1E008000           [178] return     0   1      
                         * constants:
68DD  21                 sizek (33)
68DE  04                 const type 4
68DF  0B                 string size (11)
68E0  6747616D6552756C+  "gGameRul"
68E8  657300             "es\0"
                         const [0]: "gGameRules"
68EB  01                 const type 3
68EC  497363B8           const [1]: (-1201441975)
68F0  04                 const type 4
68F1  0D                 string size (13)
68F2  73796E6469636174+  "syndicat"
68FA  6554616700         "eTag\0"
                         const [2]: "syndicateTag"
68FF  01                 const type 3
6900  0F865E31           const [3]: (828278287)
6904  01                 const type 3
6905  65770E40           const [4]: (1074689893)
6909  04                 const type 4
690A  15                 string size (21)
690B  726172654C6F6F74+  "rareLoot"
6913  576179706F696E74+  "Waypoint"
691B  5479706500         "Type\0"
                         const [5]: "rareLootWaypointType"
6920  03                 const type 3
6921  00000000           const [6]: (0)
6925  01                 const type 3
6926  6B25B193           const [7]: (-1817107093)
692A  04                 const type 4
692B  2B                 string size (43)
692C  4E6F7420656E6F75+  "Not enou"
6934  67682076616C6964+  "gh valid"
693C  20737061776E2070+  " spawn p"
6944  6F696E747320666F+  "oints fo"
694C  7220646F67746167+  "r dogtag"
6954  732E00             "s.\0"
                         const [8]: "Not enough valid spawn points for dogtags."
6957  04                 const type 4
6958  21                 string size (33)
6959  73796E6469636174+  "syndicat"
6961  6520646F67207461+  "e dog ta"
6969  672074797065206E+  "g type n"
6971  6F7420666F756E64+  "ot found"
6979  00                 "\0"
                         const [9]: "syndicate dog tag type not found"
697A  03                 const type 3
697B  0000803F           const [10]: (0)
697F  04                 const type 4
6980  06                 string size (6)
6981  7461626C6500       "table\0"
                         const [11]: "table"
6987  01                 const type 3
6988  9D0C45E6           const [12]: (-431682403)
698C  04                 const type 4
698D  09                 string size (9)
698E  776179506F696E74+  "wayPoint"
6996  00                 "\0"
                         const [13]: "wayPoint"
6997  04                 const type 4
6998  0E                 string size (14)
6999  6F726967696E616C+  "original"
69A1  496E64657800       "Index\0"
                         const [14]: "originalIndex"
69A7  01                 const type 3
69A8  62DBE572           const [15]: (1927666530)
69AC  01                 const type 3
69AD  DE058F82           const [16]: (-2104556066)
69B1  01                 const type 3
69B2  5EFDB1CD           const [17]: (-843973282)
69B6  04                 const type 4
69B7  05                 string size (5)
69B8  6D61746800         "math\0"
                         const [18]: "math"
69BD  01                 const type 3
69BE  2A71F965           const [19]: (1710846250)
69C2  01                 const type 3
69C3  9B26B99E           const [20]: (-1632033125)
69C7  01                 const type 3
69C8  BB3AA4CA           const [21]: (-895206725)
69CC  01                 const type 3
69CD  0125A76D           const [22]: (1839670529)
69D1  01                 const type 3
69D2  49783AF2           const [23]: (-231049143)
69D6  04                 const type 4
69D7  08                 string size (8)
69D8  67526567696F6E00   "gRegion\0"
                         const [24]: "gRegion"
69E0  01                 const type 3
69E1  C64CD3BD           const [25]: (-1110225722)
69E5  04                 const type 4
69E6  12                 string size (18)
69E7  4372656174656420+  "Created "
69EF  6C6F6F7461626C65+  "lootable"
69F7  2000               " \0"
                         const [26]: "Created lootable "
69F9  01                 const type 3
69FA  D2A3C75E           const [27]: (1590141906)
69FE  04                 const type 4
69FF  0C                 string size (12)
6A00  20646F6774616720+  " dogtag "
6A08  61742000           "at \0"
                         const [28]: " dogtag at "
6A0C  04                 const type 4
6A0D  02                 string size (2)
6A0E  7800               "x\0"
                         const [29]: "x"
6A10  04                 const type 4
6A11  02                 string size (2)
6A12  2000               " \0"
                         const [30]: " "
6A14  04                 const type 4
6A15  02                 string size (2)
6A16  7900               "y\0"
                         const [31]: "y"
6A18  04                 const type 4
6A19  02                 string size (2)
6A1A  7A00               "z\0"
                         const [32]: "z"
                         * functions:
6A1C  00                 sizep (0)
                         * lines:
6A1E  01                 sizelineinfo (178)
                         [pc] (line)
6A1F  44                 [001] (68)
6A20  04                 [002] (73)
6A21  00                 [003] (73)
6A22  00                 [004] (73)
6A23  49                 [005] (73)
6A24  04                 [006] (73)
6A25  00                 [007] (73)
6A26  00                 [008] (73)
6A27  49                 [009] (73)
6A28  04                 [010] (73)
6A29  00                 [011] (73)
6A2A  00                 [012] (73)
6A2B  49                 [013] (73)
6A2C  04                 [014] (74)
6A2D  00                 [015] (74)
6A2E  00                 [016] (74)
6A2F  49                 [017] (74)
6A30  04                 [018] (75)
6A31  00                 [019] (75)
6A32  00                 [020] (75)
6A33  49                 [021] (76)
6A34  04                 [022] (78)
6A35  00                 [023] (78)
6A36  00                 [024] (78)
6A37  49                 [025] (78)
6A38  04                 [026] (78)
6A39  00                 [027] (79)
6A3A  00                 [028] (79)
6A3B  49                 [029] (80)
6A3C  04                 [030] (80)
6A3D  00                 [031] (80)
6A3E  00                 [032] (81)
6A3F  49                 [033] (84)
6A40  04                 [034] (85)
6A41  00                 [035] (85)
6A42  00                 [036] (85)
6A43  49                 [037] (85)
6A44  04                 [038] (85)
6A45  00                 [039] (86)
6A46  00                 [040] (86)
6A47  49                 [041] (86)
6A48  04                 [042] (86)
6A49  00                 [043] (86)
6A4A  00                 [044] (86)
6A4B  49                 [045] (86)
6A4C  04                 [046] (86)
6A4D  00                 [047] (86)
6A4E  00                 [048] (85)
6A4F  49                 [049] (90)
6A50  04                 [050] (90)
6A51  00                 [051] (90)
6A52  00                 [052] (90)
6A53  4A                 [053] (91)
6A54  04                 [054] (91)
6A55  00                 [055] (91)
6A56  00                 [056] (91)
6A57  4A                 [057] (93)
6A58  04                 [058] (94)
6A59  00                 [059] (94)
6A5A  00                 [060] (94)
6A5B  4A                 [061] (94)
6A5C  04                 [062] (95)
6A5D  00                 [063] (95)
6A5E  00                 [064] (95)
6A5F  4A                 [065] (95)
6A60  04                 [066] (96)
6A61  00                 [067] (96)
6A62  00                 [068] (96)
6A63  4B                 [069] (96)
6A64  04                 [070] (96)
6A65  00                 [071] (97)
6A66  00                 [072] (97)
6A67  4B                 [073] (98)
6A68  04                 [074] (99)
6A69  00                 [075] (99)
6A6A  00                 [076] (99)
6A6B  4B                 [077] (99)
6A6C  04                 [078] (100)
6A6D  00                 [079] (100)
6A6E  00                 [080] (100)
6A6F  4C                 [081] (101)
6A70  04                 [082] (99)
6A71  00                 [083] (105)
6A72  00                 [084] (105)
6A73  4E                 [085] (106)
6A74  04                 [086] (106)
6A75  00                 [087] (106)
6A76  00                 [088] (106)
6A77  4E                 [089] (106)
6A78  04                 [090] (107)
6A79  00                 [091] (107)
6A7A  00                 [092] (107)
6A7B  4E                 [093] (107)
6A7C  04                 [094] (110)
6A7D  00                 [095] (110)
6A7E  00                 [096] (110)
6A7F  4E                 [097] (110)
6A80  04                 [098] (111)
6A81  00                 [099] (94)
6A82  00                 [100] (116)
6A83  4E                 [101] (116)
6A84  04                 [102] (116)
6A85  00                 [103] (116)
6A86  00                 [104] (120)
6A87  4F                 [105] (120)
6A88  04                 [106] (120)
6A89  00                 [107] (120)
6A8A  00                 [108] (120)
6A8B  4F                 [109] (121)
6A8C  04                 [110] (121)
6A8D  00                 [111] (121)
6A8E  00                 [112] (122)
6A8F  50                 [113] (122)
6A90  04                 [114] (122)
6A91  00                 [115] (122)
6A92  00                 [116] (123)
6A93  50                 [117] (123)
6A94  04                 [118] (124)
6A95  00                 [119] (124)
6A96  00                 [120] (124)
6A97  50                 [121] (124)
6A98  04                 [122] (124)
6A99  00                 [123] (126)
6A9A  00                 [124] (126)
6A9B  51                 [125] (126)
6A9C  04                 [126] (126)
6A9D  00                 [127] (127)
6A9E  00                 [128] (127)
6A9F  54                 [129] (127)
6AA0  04                 [130] (127)
6AA1  00                 [131] (-126)
6AA2  00                 [132] (-126)
6AA3  55                 [133] (-126)
6AA4  04                 [134] (-126)
6AA5  00                 [135] (-126)
6AA6  00                 [136] (-126)
6AA7  55                 [137] (-123)
6AA8  04                 [138] (-123)
6AA9  00                 [139] (-123)
6AAA  00                 [140] (-123)
6AAB  55                 [141] (-122)
6AAC  04                 [142] (-122)
6AAD  00                 [143] (-122)
6AAE  00                 [144] (-122)
6AAF  55                 [145] (-122)
6AB0  04                 [146] (-122)
6AB1  00                 [147] (-121)
6AB2  00                 [148] (-121)
6AB3  55                 [149] (-121)
6AB4  04                 [150] (-121)
6AB5  00                 [151] (-121)
6AB6  00                 [152] (-123)
6AB7  56                 [153] (-117)
6AB8  04                 [154] (-117)
6AB9  00                 [155] (-117)
6ABA  00                 [156] (-117)
6ABB  56                 [157] (-117)
6ABC  04                 [158] (-117)
6ABD  00                 [159] (-116)
6ABE  00                 [160] (-116)
6ABF  56                 [161] (-116)
6AC0  04                 [162] (-115)
6AC1  00                 [163] (-115)
6AC2  00                 [164] (-115)
6AC3  56                 [165] (-115)
6AC4  04                 [166] (-115)
6AC5  00                 [167] (-115)
6AC6  00                 [168] (-115)
6AC7  56                 [169] (-115)
6AC8  04                 [170] (-115)
6AC9  00                 [171] (-115)
6ACA  00                 [172] (-115)
6ACB  56                 [173] (-115)
6ACC  04                 [174] (-115)
6ACD  00                 [175] (-115)
6ACE  00                 [176] (-115)
6ACF  56                 [177] (122)
6AD0  04                 [178] (-111)
                         * locals:
6CE7  00                 sizelocvars (0)
                         * upvalues:
6CE8  00                 sizeupvalues (0)
                         ** end of function **

                         
6CE9                     ** function [32] definition (level 2)
                         ** start of function **
6CE9  00                 string size (0)
                         source name: (none)
6CEB  09                 line defined (1171)
6CEC  9A                 last line defined (1178)
6CED  09                 nups (1)
6CEE  01                 numparams (2)
6CEF  02                 is_vararg (0)
6CF0  00                 maxstacksize (7)
                         * code:
6CF2  13                 sizecode (19)
6CF3  18000000           [01] test       0       0    ; to [3] if true
6CF7  1A400380           [02] jmp        14           ; to [17]
6CFB  9D000000           [03] getglobal  2   0        ; gRegion
6CFF  A4404001           [04] self       2   2   257  ; -1110225722
6D03  1D810000           [05] getglobal  4   2        ; -895206725
6D07  52018000           [06] move       5   1      
6D0B  22810001           [07] call       4   2   2  
6D0F  5DC10000           [08] getglobal  5   3        ; ZERO_VECTOR
6D13  9D010100           [09] getglobal  6   4        ; ZERO_ROTATION
6D17  A2808002           [10] call       2   5   2  
fail op	8
6D1B  88000000           [11] setupval   2   0      
6D1F  93000000           [12] getupval   2   0      
6D23  A4404101           [13] self       2   2   261  ; -1923578185
6D27  19810100           [14] loadk      4   6        ; "Execute"
6D2B  A2408001           [15] call       2   3   1  
6D2F  1A400080           [16] jmp        2            ; to [19]
6D33  86000001           [17] loadnil    2   2      
fail op	8
6D37  88000000           [18] setupval   2   0      
6D3B  1E008000           [19] return     0   1      
                         * constants:
6D3F  07                 sizek (7)
6D40  04                 const type 4
6D41  08                 string size (8)
6D42  67526567696F6E00   "gRegion\0"
                         const [0]: "gRegion"
6D4A  01                 const type 3
6D4B  C64CD3BD           const [1]: (-1110225722)
6D4F  01                 const type 3
6D50  BB3AA4CA           const [2]: (-895206725)
6D54  04                 const type 4
6D55  0C                 string size (12)
6D56  5A45524F5F564543+  "ZERO_VEC"
6D5E  544F5200           "TOR\0"
                         const [3]: "ZERO_VECTOR"
6D62  04                 const type 4
6D63  0E                 string size (14)
6D64  5A45524F5F524F54+  "ZERO_ROT"
6D6C  4154494F4E00       "ATION\0"
                         const [4]: "ZERO_ROTATION"
6D72  01                 const type 3
6D73  B786588D           const [5]: (-1923578185)
6D77  04                 const type 4
6D78  08                 string size (8)
6D79  4578656375746500   "Execute\0"
                         const [6]: "Execute"
                         * functions:
6D81  00                 sizep (0)
                         * lines:
6D82  13                 sizelineinfo (19)
                         [pc] (line)
6D83  94                 [01] (-108)
6D84  04                 [02] (-108)
6D85  00                 [03] (-107)
6D86  00                 [04] (-107)
6D87  94                 [05] (-107)
6D88  04                 [06] (-107)
6D89  00                 [07] (-107)
6D8A  00                 [08] (-107)
6D8B  95                 [09] (-107)
6D8C  04                 [10] (-107)
6D8D  00                 [11] (-107)
6D8E  00                 [12] (-106)
6D8F  95                 [13] (-106)
6D90  04                 [14] (-106)
6D91  00                 [15] (-106)
6D92  00                 [16] (-106)
6D93  95                 [17] (-104)
6D94  04                 [18] (-104)
6D95  00                 [19] (-102)
                         * locals:
6DCF  00                 sizelocvars (0)
                         * upvalues:
6DD0  00                 sizeupvalues (0)
                         ** end of function **

                         
6DD1                     ** function [33] definition (level 2)
                         ** start of function **
6DD1  00                 string size (0)
                         source name: (none)
6DD3  09                 line defined (1180)
6DD4  B3                 last line defined (1203)
6DD5  09                 nups (1)
6DD6  01                 numparams (0)
6DD7  00                 is_vararg (0)
6DD8  00                 maxstacksize (12)
                         * code:
6DDA  38                 sizecode (56)
6DDB  1D000000           [01] getglobal  0   0        ; gFlashMgr
6DDF  24404000           [02] self       0   0   257  ; 277467219
6DE3  99800000           [03] loadk      2   2        ; "LotusGameRules.DebugVoidTear"
6DE7  22808001           [04] call       0   3   2  
6DEB  5DC00000           [05] getglobal  1   3        ; gGameRules
6DEF  6400C100           [06] self       1   1   260  ; -1201441975
6DF3  62800001           [07] call       1   2   2  
6DF7  4E40C100           [08] gettable   1   1   261  ; "activeMissionTag"
6DFB  A480C100           [09] self       2   1   262  ; 828278287
6DFF  A2800001           [10] call       2   2   2  
6E03  98400000           [11] test       2       1    ; to [13] if false
6E07  1A400080           [12] jmp        2            ; to [15]
6E0B  18000000           [13] test       0       0    ; to [15] if true
6E0F  1A000A80           [14] jmp        41           ; to [56]
6E13  8B000002           [15] newtable   2   4   0    ; array=4, hash=0
6E17  DDC00100           [16] getglobal  3   7        ; -332969190
6E1B  19010200           [17] loadk      4   8        ; "VoidT1"
6E1F  E2800001           [18] call       3   2   2  
6E23  1DC10100           [19] getglobal  4   7        ; -332969190
6E27  59410200           [20] loadk      5   9        ; "VoidT2"
6E2B  22810001           [21] call       4   2   2  
6E2F  5DC10100           [22] getglobal  5   7        ; -332969190
6E33  99810200           [23] loadk      6   10       ; "VoidT3"
6E37  62810001           [24] call       5   2   2  
6E3B  9DC10100           [25] getglobal  6   7        ; -332969190
6E3F  D9C10200           [26] loadk      7   11       ; "VoidT4"
6E43  A2810001           [27] call       6   2   2  
6E47  DDC10100           [28] getglobal  7   7        ; -332969190
6E4B  19020300           [29] loadk      8   12       ; "VoidT5"
6E4F  E2010001           [30] call       7   2   0  
6E53  9B400000           [31] setlist    2   0   1    ; index 1 to top
6E57  D2000000           [32] move       3   0      
6E5B  19410300           [33] loadk      4   13       ; 0
6E5F  4A010001           [34] len        5   2      
6E63  99410300           [35] loadk      6   13       ; 0
6E67  10010180           [36] forprep    4   5        ; to [42]
6E6B  0EC20101           [37] gettable   8   2   7  
fail op	35
6E6F  23008200           [38] close      0  
6E73  1A400080           [39] jmp        2            ; to [42]
6E77  D7008000           [40] loadbool   3   1   0    ; true
6E7B  1A000080           [41] jmp        1            ; to [43]
6E7F  1441FE7F           [42] forloop    4   -6       ; to [37] if loop
6E83  D8400000           [43] test       3       1    ; to [45] if false
6E87  1AC00080           [44] jmp        4            ; to [49]
6E8B  1D820300           [45] getglobal  8   14       ; -1817107093
6E8F  59C20300           [46] loadk      9   15       ; "Active mission not setup for void tear"
6E93  22420001           [47] call       8   2   1  
6E97  1E008000           [48] return     0   1      
6E9B  1DC20000           [49] getglobal  8   3        ; gGameRules
6E9F  24024404           [50] self       8   8   272  ; 1247278653
6EA3  93020000           [51] getupval   10  0      
6EA7  A4424405           [52] self       10  10  273  ; 455421500
6EAB  A2820001           [53] call       10  2   2  
6EAF  D9820400           [54] loadk      11  18       ; "OnVoidTearReady"
6EB3  22420002           [55] call       8   4   1  
6EB7  1E008000           [56] return     0   1      
                         * constants:
6EBB  13                 sizek (19)
6EBC  04                 const type 4
6EBD  0A                 string size (10)
6EBE  67466C6173684D67+  "gFlashMg"
6EC6  7200               "r\0"
                         const [0]: "gFlashMgr"
6EC8  01                 const type 3
6EC9  53D08910           const [1]: (277467219)
6ECD  04                 const type 4
6ECE  1D                 string size (29)
6ECF  4C6F74757347616D+  "LotusGam"
6ED7  6552756C65732E44+  "eRules.D"
6EDF  65627567566F6964+  "ebugVoid"
6EE7  5465617200         "Tear\0"
                         const [2]: "LotusGameRules.DebugVoidTear"
6EEC  04                 const type 4
6EED  0B                 string size (11)
6EEE  6747616D6552756C+  "gGameRul"
6EF6  657300             "es\0"
                         const [3]: "gGameRules"
6EF9  01                 const type 3
6EFA  497363B8           const [4]: (-1201441975)
6EFE  04                 const type 4
6EFF  11                 string size (17)
6F00  6163746976654D69+  "activeMi"
6F08  7373696F6E546167+  "ssionTag"
6F10  00                 "\0"
                         const [5]: "activeMissionTag"
6F11  01                 const type 3
6F12  0F865E31           const [6]: (828278287)
6F16  01                 const type 3
6F17  1A4B27EC           const [7]: (-332969190)
6F1B  04                 const type 4
6F1C  07                 string size (7)
6F1D  566F6964543100     "VoidT1\0"
                         const [8]: "VoidT1"
6F24  04                 const type 4
6F25  07                 string size (7)
6F26  566F6964543200     "VoidT2\0"
                         const [9]: "VoidT2"
6F2D  04                 const type 4
6F2E  07                 string size (7)
6F2F  566F6964543300     "VoidT3\0"
                         const [10]: "VoidT3"
6F36  04                 const type 4
6F37  07                 string size (7)
6F38  566F6964543400     "VoidT4\0"
                         const [11]: "VoidT4"
6F3F  04                 const type 4
6F40  07                 string size (7)
6F41  566F6964543500     "VoidT5\0"
                         const [12]: "VoidT5"
6F48  03                 const type 3
6F49  0000803F           const [13]: (0)
6F4D  01                 const type 3
6F4E  6B25B193           const [14]: (-1817107093)
6F52  04                 const type 4
6F53  27                 string size (39)
6F54  416374697665206D+  "Active m"
6F5C  697373696F6E206E+  "ission n"
6F64  6F74207365747570+  "ot setup"
6F6C  20666F7220766F69+  " for voi"
6F74  64207465617200     "d tear\0"
                         const [15]: "Active mission not setup for void tear"
6F7B  01                 const type 3
6F7C  3DF6574A           const [16]: (1247278653)
6F80  01                 const type 3
6F81  3C2E251B           const [17]: (455421500)
6F85  04                 const type 4
6F86  10                 string size (16)
6F87  4F6E566F69645465+  "OnVoidTe"
6F8F  6172526561647900   "arReady\0"
                         const [18]: "OnVoidTearReady"
                         * functions:
6F97  00                 sizep (0)
                         * lines:
6F98  38                 sizelineinfo (56)
                         [pc] (line)
6F99  9D                 [01] (-99)
6F9A  04                 [02] (-99)
6F9B  00                 [03] (-99)
6F9C  00                 [04] (-99)
6F9D  9D                 [05] (-96)
6F9E  04                 [06] (-96)
6F9F  00                 [07] (-96)
6FA0  00                 [08] (-96)
6FA1  9D                 [09] (-95)
6FA2  04                 [10] (-95)
6FA3  00                 [11] (-95)
6FA4  00                 [12] (-95)
6FA5  9D                 [13] (-95)
6FA6  04                 [14] (-95)
6FA7  00                 [15] (-94)
6FA8  00                 [16] (-94)
6FA9  A0                 [17] (-94)
6FAA  04                 [18] (-94)
6FAB  00                 [19] (-94)
6FAC  00                 [20] (-94)
6FAD  A0                 [21] (-94)
6FAE  04                 [22] (-94)
6FAF  00                 [23] (-94)
6FB0  00                 [24] (-94)
6FB1  A0                 [25] (-94)
6FB2  04                 [26] (-94)
6FB3  00                 [27] (-94)
6FB4  00                 [28] (-94)
6FB5  A0                 [29] (-94)
6FB6  04                 [30] (-94)
6FB7  00                 [31] (-94)
6FB8  00                 [32] (-92)
6FB9  A1                 [33] (-91)
6FBA  04                 [34] (-91)
6FBB  00                 [35] (-91)
6FBC  00                 [36] (-91)
6FBD  A1                 [37] (-90)
6FBE  04                 [38] (-90)
6FBF  00                 [39] (-90)
6FC0  00                 [40] (-89)
6FC1  A1                 [41] (-88)
6FC2  04                 [42] (-91)
6FC3  00                 [43] (-84)
6FC4  00                 [44] (-84)
6FC5  A1                 [45] (-83)
6FC6  04                 [46] (-83)
6FC7  00                 [47] (-83)
6FC8  00                 [48] (-82)
6FC9  A1                 [49] (-79)
6FCA  04                 [50] (-79)
6FCB  00                 [51] (-79)
6FCC  00                 [52] (-79)
6FCD  A1                 [53] (-79)
6FCE  04                 [54] (-79)
6FCF  00                 [55] (-79)
6FD0  00                 [56] (-77)
                         * locals:
7079  00                 sizelocvars (0)
                         * upvalues:
707A  00                 sizeupvalues (0)
                         ** end of function **

                         
707B                     ** function [34] definition (level 2)
                         ** start of function **
707B  00                 string size (0)
                         source name: (none)
707D  09                 line defined (1205)
707E  BB                 last line defined (1211)
707F  09                 nups (1)
7080  01                 numparams (2)
7081  02                 is_vararg (0)
7082  00                 maxstacksize (7)
                         * code:
7084  11                 sizecode (17)
7085  18000000           [01] test       0       0    ; to [3] if true
7089  1AC00280           [02] jmp        12           ; to [15]
708D  9D000000           [03] getglobal  2   0        ; gRegion
7091  A4404001           [04] self       2   2   257  ; -1110225722
7095  1D810000           [05] getglobal  4   2        ; -895206725
7099  52018000           [06] move       5   1      
709D  22810001           [07] call       4   2   2  
70A1  53010000           [08] getupval   5   0      
70A5  64C1C002           [09] self       5   5   259  ; 1839670529
70A9  62810001           [10] call       5   2   2  
70AD  9D010100           [11] getglobal  6   4        ; ZERO_ROTATION
70B1  A2808002           [12] call       2   5   2  
fail op	8
70B5  88000000           [13] setupval   2   0      
70B9  1A400080           [14] jmp        2            ; to [17]
70BD  86000001           [15] loadnil    2   2      
fail op	8
70C1  88000000           [16] setupval   2   0      
70C5  1E008000           [17] return     0   1      
                         * constants:
70C9  05                 sizek (5)
70CA  04                 const type 4
70CB  08                 string size (8)
70CC  67526567696F6E00   "gRegion\0"
                         const [0]: "gRegion"
70D4  01                 const type 3
70D5  C64CD3BD           const [1]: (-1110225722)
70D9  01                 const type 3
70DA  BB3AA4CA           const [2]: (-895206725)
70DE  01                 const type 3
70DF  0125A76D           const [3]: (1839670529)
70E3  04                 const type 4
70E4  0E                 string size (14)
70E5  5A45524F5F524F54+  "ZERO_ROT"
70ED  4154494F4E00       "ATION\0"
                         const [4]: "ZERO_ROTATION"
                         * functions:
70F3  00                 sizep (0)
                         * lines:
70F4  11                 sizelineinfo (17)
                         [pc] (line)
70F5  B6                 [01] (-74)
70F6  04                 [02] (-74)
70F7  00                 [03] (-73)
70F8  00                 [04] (-73)
70F9  B6                 [05] (-73)
70FA  04                 [06] (-73)
70FB  00                 [07] (-73)
70FC  00                 [08] (-73)
70FD  B7                 [09] (-73)
70FE  04                 [10] (-73)
70FF  00                 [11] (-73)
7100  00                 [12] (-73)
7101  B7                 [13] (-73)
7102  04                 [14] (-73)
7103  00                 [15] (-71)
7104  00                 [16] (-71)
7105  B7                 [17] (-69)
                         * locals:
7139  00                 sizelocvars (0)
                         * upvalues:
713A  00                 sizeupvalues (0)
                         ** end of function **

                         
713B                     ** function [35] definition (level 2)
                         ** start of function **
713B  00                 string size (0)
                         source name: (none)
713D  09                 line defined (1213)
713E  D4                 last line defined (1236)
713F  09                 nups (2)
7140  02                 numparams (0)
7141  00                 is_vararg (0)
7142  00                 maxstacksize (12)
                         * code:
7144  3C                 sizecode (60)
7145  1D000000           [01] getglobal  0   0        ; gGameRules
7149  24404000           [02] self       0   0   257  ; -1201441975
714D  22800001           [03] call       0   2   2  
7151  4E804000           [04] gettable   1   0   258  ; "goalTag"
7155  9DC00000           [05] getglobal  2   3        ; -332969190
7159  D9000100           [06] loadk      3   4        ; "GhostTower"
715D  A2800001           [07] call       2   2   2  
fail op	35
7161  63808000           [08] close      1  
7165  1A000080           [09] jmp        1            ; to [11]
7169  1E008000           [10] return     0   1      
716D  5D400100           [11] getglobal  1   5        ; gRegion
7171  6480C100           [12] self       1   1   262  ; -1485896174
7175  DDC00000           [13] getglobal  3   3        ; -332969190
7179  19C10100           [14] loadk      4   7        ; "GhostTowerWaypoint"
717D  E2000001           [15] call       3   2   0  
7181  62800000           [16] call       1   0   2  
7185  8A008000           [17] len        2   1      
fail op	35
7189  23004201           [18] close      0  
718D  1A000080           [19] jmp        1            ; to [21]
7191  1E008000           [20] return     0   1      
7195  9D400200           [21] getglobal  2   9        ; 1672515847
7199  D2008000           [22] move       3   1      
719D  A2000101           [23] call       2   2   4  
71A1  1A800380           [24] jmp        15           ; to [40]
71A5  E4814203           [25] self       7   6   266  ; 1927666530
71A9  E2810001           [26] call       7   2   2  
71AD  1DC20200           [27] getglobal  8   11       ; 1074689893
71B1  52028003           [28] move       9   7      
71B5  22820001           [29] call       8   2   2  
71B9  18420000           [30] test       8       1    ; to [32] if false
71BD  1AC00180           [31] jmp        8            ; to [40]
71C1  2402C303           [32] self       8   7   268  ; -830264577
71C5  22820001           [33] call       8   2   2  
71C9  5DC20000           [34] getglobal  9   3        ; -332969190
71CD  99420300           [35] loadk      10  13       ; "Dead-End"
71D1  62820001           [36] call       9   2   2  
fail op	35
71D5  23400204           [37] close      0  
71D9  1A000080           [38] jmp        1            ; to [40]
fail op	8
71DD  88010000           [39] setupval   6   0      
71E1  96800000           [40] tforloop   2       2    ; to [42] if exit
71E5  1A80FB7F           [41] jmp        -17          ; to [25]
71E9  1DC20200           [42] getglobal  8   11       ; 1074689893
71ED  53020000           [43] getupval   9   0      
71F1  22820001           [44] call       8   2   2  
71F5  18020000           [45] test       8       0    ; to [47] if true
71F9  1A400180           [46] jmp        6            ; to [53]
71FD  1D820300           [47] getglobal  8   14       ; 2144646525
7201  59C20300           [48] loadk      9   15       ; 0
7205  8A028000           [49] len        10  1      
7209  22828001           [50] call       8   3   2  
720D  0E028200           [51] gettable   8   1   8  
fail op	8
7211  08020000           [52] setupval   8   0      
7215  1D020000           [53] getglobal  8   0        ; gGameRules
7219  24024404           [54] self       8   8   272  ; 1247278653
721D  93028000           [55] getupval   10  1      
7221  A4424405           [56] self       10  10  273  ; 455421500
7225  A2820001           [57] call       10  2   2  
7229  D9820400           [58] loadk      11  18       ; "OnGhostTowerReady"
722D  22420002           [59] call       8   4   1  
7231  1E008000           [60] return     0   1      
                         * constants:
7235  13                 sizek (19)
7236  04                 const type 4
7237  0B                 string size (11)
7238  6747616D6552756C+  "gGameRul"
7240  657300             "es\0"
                         const [0]: "gGameRules"
7243  01                 const type 3
7244  497363B8           const [1]: (-1201441975)
7248  04                 const type 4
7249  08                 string size (8)
724A  676F616C54616700   "goalTag\0"
                         const [2]: "goalTag"
7252  01                 const type 3
7253  1A4B27EC           const [3]: (-332969190)
7257  04                 const type 4
7258  0B                 string size (11)
7259  47686F7374546F77+  "GhostTow"
7261  657200             "er\0"
                         const [4]: "GhostTower"
7264  04                 const type 4
7265  08                 string size (8)
7266  67526567696F6E00   "gRegion\0"
                         const [5]: "gRegion"
726E  01                 const type 3
726F  12066FA7           const [6]: (-1485896174)
7273  04                 const type 4
7274  13                 string size (19)
7275  47686F7374546F77+  "GhostTow"
727D  6572576179706F69+  "erWaypoi"
7285  6E7400             "nt\0"
                         const [7]: "GhostTowerWaypoint"
7288  03                 const type 3
7289  00000000           const [8]: (0)
728D  01                 const type 3
728E  0791B063           const [9]: (1672515847)
7292  01                 const type 3
7293  62DBE572           const [10]: (1927666530)
7297  01                 const type 3
7298  65770E40           const [11]: (1074689893)
729C  01                 const type 3
729D  FF2A83CE           const [12]: (-830264577)
72A1  04                 const type 4
72A2  09                 string size (9)
72A3  446561642D456E64+  "Dead-End"
72AB  00                 "\0"
                         const [13]: "Dead-End"
72AC  01                 const type 3
72AD  7DB5D47F           const [14]: (2144646525)
72B1  03                 const type 3
72B2  0000803F           const [15]: (0)
72B6  01                 const type 3
72B7  3DF6574A           const [16]: (1247278653)
72BB  01                 const type 3
72BC  3C2E251B           const [17]: (455421500)
72C0  04                 const type 4
72C1  12                 string size (18)
72C2  4F6E47686F737454+  "OnGhostT"
72CA  6F77657252656164+  "owerRead"
72D2  7900               "y\0"
                         const [18]: "OnGhostTowerReady"
                         * functions:
72D4  00                 sizep (0)
                         * lines:
72D5  3C                 sizelineinfo (60)
                         [pc] (line)
72D6  BE                 [01] (-66)
72D7  04                 [02] (-66)
72D8  00                 [03] (-66)
72D9  00                 [04] (-65)
72DA  BE                 [05] (-65)
72DB  04                 [06] (-65)
72DC  00                 [07] (-65)
72DD  00                 [08] (-65)
72DE  BE                 [09] (-65)
72DF  04                 [10] (-64)
72E0  00                 [11] (-61)
72E1  00                 [12] (-61)
72E2  BF                 [13] (-61)
72E3  04                 [14] (-61)
72E4  00                 [15] (-61)
72E5  00                 [16] (-61)
72E6  BF                 [17] (-60)
72E7  04                 [18] (-60)
72E8  00                 [19] (-60)
72E9  00                 [20] (-59)
72EA  BF                 [21] (-56)
72EB  04                 [22] (-56)
72EC  00                 [23] (-56)
72ED  00                 [24] (-56)
72EE  BF                 [25] (-55)
72EF  04                 [26] (-55)
72F0  00                 [27] (-54)
72F1  00                 [28] (-54)
72F2  BF                 [29] (-54)
72F3  04                 [30] (-54)
72F4  00                 [31] (-54)
72F5  00                 [32] (-54)
72F6  BF                 [33] (-54)
72F7  04                 [34] (-54)
72F8  00                 [35] (-54)
72F9  00                 [36] (-54)
72FA  C0                 [37] (-54)
72FB  04                 [38] (-54)
72FC  00                 [39] (-53)
72FD  00                 [40] (-56)
72FE  C3                 [41] (-52)
72FF  04                 [42] (-49)
7300  00                 [43] (-49)
7301  00                 [44] (-49)
7302  C3                 [45] (-49)
7303  04                 [46] (-49)
7304  00                 [47] (-48)
7305  00                 [48] (-48)
7306  C3                 [49] (-48)
7307  04                 [50] (-48)
7308  00                 [51] (-48)
7309  00                 [52] (-48)
730A  C3                 [53] (-45)
730B  04                 [54] (-45)
730C  00                 [55] (-45)
730D  00                 [56] (-45)
730E  C3                 [57] (-45)
730F  04                 [58] (-45)
7310  00                 [59] (-45)
7311  00                 [60] (-44)
                         * locals:
73C6  00                 sizelocvars (0)
                         * upvalues:
73C7  00                 sizeupvalues (0)
                         ** end of function **

                         
73C8                     ** function [36] definition (level 2)
                         ** start of function **
73C8  00                 string size (0)
                         source name: (none)
73CA  09                 line defined (1238)
73CB  A3                 last line defined (1315)
73CC  0A                 nups (7)
73CD  07                 numparams (0)
73CE  00                 is_vararg (0)
73CF  00                 maxstacksize (27)
                         * code:
73D2  01                 sizecode (239)
73D3  13000000           [001] getupval   0   0      
73D7  0A000000           [002] len        0   0      
fail op	35
73DB  23004000           [003] close      0  
73DF  1A000080           [004] jmp        1            ; to [6]
73E3  1E008000           [005] return     0   1      
73E7  1D400000           [006] getglobal  0   1        ; gGameRules
73EB  24804000           [007] self       0   0   258  ; -1201441975
73EF  22800001           [008] call       0   2   2  
73F3  4EC04000           [009] gettable   1   0   259  ; "goalTag"
73F7  9D400000           [010] getglobal  2   1        ; gGameRules
73FB  A4004101           [011] self       2   2   260  ; -502414055
73FF  A2800001           [012] call       2   2   2  
7403  DD400100           [013] getglobal  3   5        ; Lotus_Game
7407  CE80C101           [014] gettable   3   3   262  ; "MT_DEFENSE"
fail op	35
740B  63C00001           [015] close      1  
740F  1A800480           [016] jmp        19           ; to [36]
7413  DD400100           [017] getglobal  3   5        ; Lotus_Game
7417  CEC0C101           [018] gettable   3   3   263  ; "MT_TERRITORY"
fail op	35
741B  63C00001           [019] close      1  
741F  1A800380           [020] jmp        15           ; to [36]
7423  DD000200           [021] getglobal  3   8        ; isArchwingMission
7427  D8400000           [022] test       3       1    ; to [24] if false
742B  1AC00280           [023] jmp        12           ; to [36]
742F  DD400200           [024] getglobal  3   9        ; _T
7433  CE80C201           [025] gettable   3   3   266  ; "gTutorialMission"
7437  D8400000           [026] test       3       1    ; to [28] if false
743B  1AC00180           [027] jmp        8            ; to [36]
743F  DDC00200           [028] getglobal  3   11       ; -332969190
7443  19010300           [029] loadk      4   12       ; "VorsPrizeMission"
7447  E2800001           [030] call       3   2   2  
fail op	35
744B  63C08000           [031] close      1  
744F  1A800080           [032] jmp        3            ; to [36]
7453  CE404300           [033] gettable   3   0   269  ; "goalId"
fail op	35
7457  6380C301           [034] close      1  
745B  1A000080           [035] jmp        1            ; to [37]
745F  1E008000           [036] return     0   1      
7463  DD400000           [037] getglobal  3   1        ; gGameRules
7467  E4C0C301           [038] self       3   3   271  ; -499465502
746B  E2800001           [039] call       3   2   2  
746F  1D010400           [040] getglobal  4   16       ; gPlayerProfileMgr
7473  24414402           [041] self       4   4   273  ; 569342746
7477  99010000           [042] loadk      6   0        ; 0
747B  22818001           [043] call       4   3   2  
747F  4E81C401           [044] gettable   5   3   274  ; "songFragments"
7483  4A018002           [045] len        5   5      
fail op	21
7487  55400180           [046] concat     1   256 5  
748B  1A000180           [047] jmp        5            ; to [53]
748F  4EC14400           [048] gettable   5   0   275  ; "songFragmentOverride"
7493  4A018002           [049] len        5   5      
fail op	21
7497  55400180           [050] concat     1   256 5  
749B  1A000080           [051] jmp        1            ; to [53]
749F  57410000           [052] loadbool   5   0   1    ; false, to [54]
74A3  57018000           [053] loadbool   5   1   0    ; true
74A7  58010000           [054] test       5       0    ; to [56] if true
74AB  1A800480           [055] jmp        19           ; to [75]
74AF  9D010500           [056] getglobal  6   20       ; 1074689893
74B3  D2010002           [057] move       7   4      
74B7  A2810001           [058] call       6   2   2  
74BB  98410000           [059] test       6       1    ; to [61] if false
74BF  1A400380           [060] jmp        14           ; to [75]
74C3  A4414502           [061] self       6   4   277  ; 1699680402
74C7  A2810001           [062] call       6   2   2  
74CB  DD010500           [063] getglobal  7   20       ; 1074689893
74CF  12020003           [064] move       8   6      
74D3  E2810001           [065] call       7   2   2  
74D7  D8410000           [066] test       7       1    ; to [68] if false
74DB  1A800180           [067] jmp        7            ; to [75]
74DF  E4814503           [068] self       7   6   278  ; -1269704954
74E3  53028000           [069] getupval   9   1      
74E7  4EC2C504           [070] gettable   9   9   279  ; "SF_PERSONAL_QUARTERS"
74EB  E2818001           [071] call       7   3   2  
fail op	5
74EF  45418003           [072] getglobal  5   3585     ; nil
74F3  1A000080           [073] jmp        1            ; to [75]
74F7  57010000           [074] loadbool   5   0   0    ; false
74FB  DD410100           [075] getglobal  7   5        ; Lotus_Game
74FF  CE01C603           [076] gettable   7   7   280  ; "MT_LANDSCAPE"
fail op	35
7503  63C00101           [077] close      1  
7507  1A000080           [078] jmp        1            ; to [80]
750B  D7410000           [079] loadbool   7   0   1    ; false, to [81]
750F  D7018000           [080] loadbool   7   1   0    ; true
7513  19020000           [081] loadk      8   0        ; 0
7517  58010000           [082] test       5       0    ; to [84] if true
751B  1A000180           [083] jmp        5            ; to [89]
751F  D8010000           [084] test       7       0    ; to [86] if true
7523  1A400080           [085] jmp        2            ; to [88]
7527  19020000           [086] loadk      8   0        ; 0
752B  1A000080           [087] jmp        1            ; to [89]
752F  19420600           [088] loadk      8   25       ; 0
7533  59420600           [089] loadk      9   25       ; 0
7537  58010000           [090] test       5       0    ; to [92] if true
753B  1A000080           [091] jmp        1            ; to [93]
753F  59820600           [092] loadk      9   26       ; -51
7543  8B020000           [093] newtable   10  0   0    ; array=0, hash=0
7547  CEC2C601           [094] gettable   11  3   283  ; "loreFragments"
754B  CA028005           [095] len        11  11     
fail op	21
754F  15C00280           [096] concat     0   256 11 
7553  1A000380           [097] jmp        13           ; to [111]
7557  DD020700           [098] getglobal  11  28       ; math
755B  CE42C705           [099] gettable   11  11  285  ; -2040962569
755F  E2828000           [100] call       11  1   2  
fail op	21
7563  15C00204           [101] concat     0   8   11 
7567  1AC00180           [102] jmp        8            ; to [111]
756B  D8410000           [103] test       7       1    ; to [105] if false
756F  1A400180           [104] jmp        6            ; to [111]
7573  DD820700           [105] getglobal  11  30       ; table
7577  CEC2C705           [106] gettable   11  11  287  ; -431682403
757B  12030005           [107] move       12  10     
757F  53030001           [108] getupval   13  2      
7583  E2428001           [109] call       11  3   1  
7587  03420204           [110] add        8   8   9  
758B  58010000           [111] test       5       0    ; to [113] if true
758F  1A800280           [112] jmp        11           ; to [124]
7593  DD020700           [113] getglobal  11  28       ; math
7597  CE42C705           [114] gettable   11  11  285  ; -2040962569
759B  E2828000           [115] call       11  1   2  
fail op	21
759F  15C00204           [116] concat     0   8   11 
75A3  1A400180           [117] jmp        6            ; to [124]
75A7  DD820700           [118] getglobal  11  30       ; table
75AB  CEC2C705           [119] gettable   11  11  287  ; -431682403
75AF  12030005           [120] move       12  10     
75B3  53038001           [121] getupval   13  3      
75B7  E2428001           [122] call       11  3   1  
75BB  03420204           [123] add        8   8   9  
75BF  CE02C801           [124] gettable   11  3   288  ; "frameFighterFragments"
75C3  CA028005           [125] len        11  11     
fail op	21
75C7  15C00280           [126] concat     0   256 11 
75CB  1AC00280           [127] jmp        12           ; to [140]
75CF  DD020700           [128] getglobal  11  28       ; math
75D3  CE42C705           [129] gettable   11  11  285  ; -2040962569
75D7  E2828000           [130] call       11  1   2  
fail op	21
75DB  15C00204           [131] concat     0   8   11 
75DF  1A800180           [132] jmp        7            ; to [140]
75E3  D8410000           [133] test       7       1    ; to [135] if false
75E7  1A000180           [134] jmp        5            ; to [140]
75EB  DD820700           [135] getglobal  11  30       ; table
75EF  CEC2C705           [136] gettable   11  11  287  ; -431682403
75F3  12030005           [137] move       12  10     
75F7  53030002           [138] getupval   13  4      
75FB  E2428001           [139] call       11  3   1  
75FF  D9420800           [140] loadk      11  33       ; 0
7603  0A030005           [141] len        12  10     
7607  59430800           [142] loadk      13  33       ; 0
760B  D0421780           [143] forprep    11  94       ; to [238]
760F  DD830800           [144] getglobal  15  34       ; 2144646525
7613  19440800           [145] loadk      16  33       ; 0
7617  53040000           [146] getupval   17  0      
761B  4A048008           [147] len        17  17     
761F  E2838001           [148] call       15  3   2  
7623  13040000           [149] getupval   16  0      
7627  0EC40308           [150] gettable   16  16  15 
762B  24C44808           [151] self       16  16  291  ; 1839670529
762F  22840001           [152] call       16  2   2  
7633  4E840305           [153] gettable   17  10  14 
7637  93048001           [154] getupval   18  3      
fail op	35
763B  63808408           [155] close      1  
763F  1A800080           [156] jmp        3            ; to [160]
7643  93040002           [157] getupval   18  4      
fail op	35
7647  23808408           [158] close      0  
764B  1A400580           [159] jmp        22           ; to [182]
764F  9D040900           [160] getglobal  18  36       ; 572299008
7653  A2848000           [161] call       18  1   2  
7657  DD440900           [162] getglobal  19  37       ; gRegion
765B  E484C909           [163] self       19  19  294  ; 187283819
765F  5D050900           [164] getglobal  21  36       ; 572299008
7663  99050000           [165] loadk      22  0        ; 0
7667  D9450800           [166] loadk      23  33       ; 0
766B  19060000           [167] loadk      24  0        ; 0
766F  62850002           [168] call       21  4   2  
7673  43450508           [169] add        21  16  21 
7677  92050008           [170] move       22  16     
767B  C605000C           [171] loadnil    23  24     
767F  52060009           [172] move       25  18     
7683  E2448003           [173] call       19  7   1  
7687  CEC44909           [174] gettable   19  18  295  ; "y"
fail op	35
768B  6300C009           [175] close      1  
768F  1A000080           [176] jmp        1            ; to [178]
7693  12040009           [177] move       16  18     
7697  CEC44908           [178] gettable   19  16  295  ; "y"
769B  13058002           [179] getupval   20  5      
769F  C3048509           [180] add        19  19  20 
76A3  0CC48493           [181] settable   16  295 19   ; "y"
76A7  D3040000           [182] getupval   19  0      
76AB  CEC48309           [183] gettable   19  19  15 
76AF  E404CA09           [184] self       19  19  296  ; -231049143
76B3  E2840001           [185] call       19  2   2  
76B7  1D450200           [186] getglobal  20  9        ; _T
76BB  5D450900           [187] getglobal  21  37       ; gRegion
76BF  6485CA0A           [188] self       21  21  298  ; -1110225722
76C3  D3050003           [189] getupval   23  6      
76C7  CE45840B           [190] gettable   23  23  17 
76CB  12060008           [191] move       24  16     
76CF  52068009           [192] move       25  19     
76D3  62858002           [193] call       21  5   2  
76D7  0C458594           [194] settable   20  297 21   ; "LoreFragmentDeco"
76DB  1D850700           [195] getglobal  20  30       ; table
76DF  0EC54A0A           [196] gettable   20  20  299  ; -843973282
76E3  53050000           [197] getupval   21  0      
76E7  92058007           [198] move       22  15     
76EB  22458001           [199] call       20  3   1  
76EF  17050000           [200] loadbool   20  0   0    ; false
76F3  18050000           [201] test       20      0    ; to [203] if true
76F7  1A800880           [202] jmp        35           ; to [238]
76FB  13050001           [203] getupval   20  2      
fail op	35
76FF  23008508           [204] close      0  
7703  1A400280           [205] jmp        10           ; to [216]
7707  1D050B00           [206] getglobal  20  44       ; -1817107093
770B  59450B00           [207] loadk      21  45       ; "Created LORE FRAGMENT at "
770F  8E854B08           [208] gettable   22  16  302  ; "x"
7713  D9C50B00           [209] loadk      23  47       ; " "
7717  0EC64908           [210] gettable   24  16  295  ; "y"
771B  59C60B00           [211] loadk      25  47       ; " "
771F  8E064C08           [212] gettable   26  16  304  ; "z"
7723  4285860A           [213] concat     21  21  26 
7727  22450001           [214] call       20  2   1  
772B  1A400580           [215] jmp        22           ; to [238]
772F  13058001           [216] getupval   20  3      
fail op	35
7733  23008508           [217] close      0  
7737  1A400280           [218] jmp        10           ; to [229]
773B  1D050B00           [219] getglobal  20  44       ; -1817107093
773F  59450C00           [220] loadk      21  49       ; "Created SONG FRAGMENT at "
7743  8E854B08           [221] gettable   22  16  302  ; "x"
7747  D9C50B00           [222] loadk      23  47       ; " "
774B  0EC64908           [223] gettable   24  16  295  ; "y"
774F  59C60B00           [224] loadk      25  47       ; " "
7753  8E064C08           [225] gettable   26  16  304  ; "z"
7757  4285860A           [226] concat     21  21  26 
775B  22450001           [227] call       20  2   1  
775F  1A000280           [228] jmp        9            ; to [238]
7763  1D050B00           [229] getglobal  20  44       ; -1817107093
7767  59850C00           [230] loadk      21  50       ; "Created FRAME FIGHTER FRAGMENT at "
776B  8E854B08           [231] gettable   22  16  302  ; "x"
776F  D9C50B00           [232] loadk      23  47       ; " "
7773  0EC64908           [233] gettable   24  16  295  ; "y"
7777  59C60B00           [234] loadk      25  47       ; " "
777B  8E064C08           [235] gettable   26  16  304  ; "z"
777F  4285860A           [236] concat     21  21  26 
7783  22450001           [237] call       20  2   1  
7787  D402E87F           [238] forloop    11  -95      ; to [144] if loop
778B  1E008000           [239] return     0   1      
                         * constants:
778F  33                 sizek (51)
7790  03                 const type 3
7791  00000000           const [0]: (0)
7795  04                 const type 4
7796  0B                 string size (11)
7797  6747616D6552756C+  "gGameRul"
779F  657300             "es\0"
                         const [1]: "gGameRules"
77A2  01                 const type 3
77A3  497363B8           const [2]: (-1201441975)
77A7  04                 const type 4
77A8  08                 string size (8)
77A9  676F616C54616700   "goalTag\0"
                         const [3]: "goalTag"
77B1  01                 const type 3
77B2  19C50DE2           const [4]: (-502414055)
77B6  04                 const type 4
77B7  0B                 string size (11)
77B8  4C6F7475735F4761+  "Lotus_Ga"
77C0  6D6500             "me\0"
                         const [5]: "Lotus_Game"
77C3  04                 const type 4
77C4  0B                 string size (11)
77C5  4D545F444546454E+  "MT_DEFEN"
77CD  534500             "SE\0"
                         const [6]: "MT_DEFENSE"
77D0  04                 const type 4
77D1  0D                 string size (13)
77D2  4D545F5445525249+  "MT_TERRI"
77DA  544F525900         "TORY\0"
                         const [7]: "MT_TERRITORY"
77DF  04                 const type 4
77E0  12                 string size (18)
77E1  6973417263687769+  "isArchwi"
77E9  6E674D697373696F+  "ngMissio"
77F1  6E00               "n\0"
                         const [8]: "isArchwingMission"
77F3  04                 const type 4
77F4  03                 string size (3)
77F5  5F5400             "_T\0"
                         const [9]: "_T"
77F8  04                 const type 4
77F9  11                 string size (17)
77FA  675475746F726961+  "gTutoria"
7802  6C4D697373696F6E+  "lMission"
780A  00                 "\0"
                         const [10]: "gTutorialMission"
780B  01                 const type 3
780C  1A4B27EC           const [11]: (-332969190)
7810  04                 const type 4
7811  11                 string size (17)
7812  566F72735072697A+  "VorsPriz"
781A  654D697373696F6E+  "eMission"
7822  00                 "\0"
                         const [12]: "VorsPrizeMission"
7823  04                 const type 4
7824  07                 string size (7)
7825  676F616C496400     "goalId\0"
                         const [13]: "goalId"
782C  04                 const type 4
782D  01                 string size (0)
                         const [14]: ""
782F  01                 const type 3
7830  E2C23AE2           const [15]: (-499465502)
7834  04                 const type 4
7835  12                 string size (18)
7836  67506C6179657250+  "gPlayerP"
783E  726F66696C654D67+  "rofileMg"
7846  7200               "r\0"
                         const [16]: "gPlayerProfileMgr"
7848  01                 const type 3
7849  1A7BEF21           const [17]: (569342746)
784D  04                 const type 4
784E  0E                 string size (14)
784F  736F6E6746726167+  "songFrag"
7857  6D656E747300       "ments\0"
                         const [18]: "songFragments"
785D  04                 const type 4
785E  15                 string size (21)
785F  736F6E6746726167+  "songFrag"
7867  6D656E744F766572+  "mentOver"
786F  7269646500         "ride\0"
                         const [19]: "songFragmentOverride"
7874  01                 const type 3
7875  65770E40           const [20]: (1074689893)
7879  01                 const type 3
787A  92104F65           const [21]: (1699680402)
787E  01                 const type 3
787F  06D751B4           const [22]: (-1269704954)
7883  04                 const type 4
7884  15                 string size (21)
7885  53465F504552534F+  "SF_PERSO"
788D  4E414C5F51554152+  "NAL_QUAR"
7895  5445525300         "TERS\0"
                         const [23]: "SF_PERSONAL_QUARTERS"
789A  04                 const type 4
789B  0D                 string size (13)
789C  4D545F4C414E4453+  "MT_LANDS"
78A4  4341504500         "CAPE\0"
                         const [24]: "MT_LANDSCAPE"
78A9  03                 const type 3
78AA  0000003F           const [25]: (0)
78AE  03                 const type 3
78AF  CDCC4C3D           const [26]: (-51)
78B3  04                 const type 4
78B4  0E                 string size (14)
78B5  6C6F726546726167+  "loreFrag"
78BD  6D656E747300       "ments\0"
                         const [27]: "loreFragments"
78C3  04                 const type 4
78C4  05                 string size (5)
78C5  6D61746800         "math\0"
                         const [28]: "math"
78CA  01                 const type 3
78CB  F7615986           const [29]: (-2040962569)
78CF  04                 const type 4
78D0  06                 string size (6)
78D1  7461626C6500       "table\0"
                         const [30]: "table"
78D7  01                 const type 3
78D8  9D0C45E6           const [31]: (-431682403)
78DC  04                 const type 4
78DD  16                 string size (22)
78DE  6672616D65466967+  "frameFig"
78E6  6874657246726167+  "hterFrag"
78EE  6D656E747300       "ments\0"
                         const [32]: "frameFighterFragments"
78F4  03                 const type 3
78F5  0000803F           const [33]: (0)
78F9  01                 const type 3
78FA  7DB5D47F           const [34]: (2144646525)
78FE  01                 const type 3
78FF  0125A76D           const [35]: (1839670529)
7903  01                 const type 3
7904  00971C22           const [36]: (572299008)
7908  04                 const type 4
7909  08                 string size (8)
790A  67526567696F6E00   "gRegion\0"
                         const [37]: "gRegion"
7912  01                 const type 3
7913  6BB9290B           const [38]: (187283819)
7917  04                 const type 4
7918  02                 string size (2)
7919  7900               "y\0"
                         const [39]: "y"
791B  01                 const type 3
791C  49783AF2           const [40]: (-231049143)
7920  04                 const type 4
7921  11                 string size (17)
7922  4C6F726546726167+  "LoreFrag"
792A  6D656E744465636F+  "mentDeco"
7932  00                 "\0"
                         const [41]: "LoreFragmentDeco"
7933  01                 const type 3
7934  C64CD3BD           const [42]: (-1110225722)
7938  01                 const type 3
7939  5EFDB1CD           const [43]: (-843973282)
793D  01                 const type 3
793E  6B25B193           const [44]: (-1817107093)
7942  04                 const type 4
7943  1A                 string size (26)
7944  4372656174656420+  "Created "
794C  4C4F524520465241+  "LORE FRA"
7954  474D454E54206174+  "GMENT at"
795C  2000               " \0"
                         const [45]: "Created LORE FRAGMENT at "
795E  04                 const type 4
795F  02                 string size (2)
7960  7800               "x\0"
                         const [46]: "x"
7962  04                 const type 4
7963  02                 string size (2)
7964  2000               " \0"
                         const [47]: " "
7966  04                 const type 4
7967  02                 string size (2)
7968  7A00               "z\0"
                         const [48]: "z"
796A  04                 const type 4
796B  1A                 string size (26)
796C  4372656174656420+  "Created "
7974  534F4E4720465241+  "SONG FRA"
797C  474D454E54206174+  "GMENT at"
7984  2000               " \0"
                         const [49]: "Created SONG FRAGMENT at "
7986  04                 const type 4
7987  23                 string size (35)
7988  4372656174656420+  "Created "
7990  4652414D45204649+  "FRAME FI"
7998  4748544552204652+  "GHTER FR"
79A0  41474D454E542061+  "AGMENT a"
79A8  742000             "t \0"
                         const [50]: "Created FRAME FIGHTER FRAGMENT at "
                         * functions:
79AB  00                 sizep (0)
                         * lines:
79AD  01                 sizelineinfo (239)
                         [pc] (line)
79AE  D7                 [001] (-41)
79AF  04                 [002] (-41)
79B0  00                 [003] (-41)
79B1  00                 [004] (-41)
79B2  D7                 [005] (-39)
79B3  04                 [006] (-36)
79B4  00                 [007] (-36)
79B5  00                 [008] (-36)
79B6  D7                 [009] (-35)
79B7  04                 [010] (-34)
79B8  00                 [011] (-34)
79B9  00                 [012] (-34)
79BA  D7                 [013] (-33)
79BB  04                 [014] (-33)
79BC  00                 [015] (-33)
79BD  00                 [016] (-33)
79BE  D9                 [017] (-33)
79BF  04                 [018] (-33)
79C0  00                 [019] (-33)
79C1  00                 [020] (-33)
79C2  DC                 [021] (-33)
79C3  04                 [022] (-33)
79C4  00                 [023] (-33)
79C5  00                 [024] (-33)
79C6  DC                 [025] (-33)
79C7  04                 [026] (-33)
79C8  00                 [027] (-33)
79C9  00                 [028] (-33)
79CA  DC                 [029] (-33)
79CB  04                 [030] (-33)
79CC  00                 [031] (-33)
79CD  00                 [032] (-33)
79CE  DD                 [033] (-33)
79CF  04                 [034] (-33)
79D0  00                 [035] (-33)
79D1  00                 [036] (-32)
79D2  DE                 [037] (-29)
79D3  04                 [038] (-29)
79D4  00                 [039] (-29)
79D5  00                 [040] (-28)
79D6  DE                 [041] (-28)
79D7  04                 [042] (-28)
79D8  00                 [043] (-28)
79D9  00                 [044] (-27)
79DA  DE                 [045] (-27)
79DB  04                 [046] (-27)
79DC  00                 [047] (-27)
79DD  00                 [048] (-27)
79DE  DF                 [049] (-27)
79DF  04                 [050] (-27)
79E0  00                 [051] (-27)
79E1  00                 [052] (-27)
79E2  DF                 [053] (-27)
79E3  04                 [054] (-26)
79E4  00                 [055] (-26)
79E5  00                 [056] (-26)
79E6  DF                 [057] (-26)
79E7  04                 [058] (-26)
79E8  00                 [059] (-26)
79E9  00                 [060] (-26)
79EA  DF                 [061] (-25)
79EB  04                 [062] (-25)
79EC  00                 [063] (-24)
79ED  00                 [064] (-24)
79EE  DF                 [065] (-24)
79EF  04                 [066] (-24)
79F0  00                 [067] (-24)
79F1  00                 [068] (-23)
79F2  DF                 [069] (-23)
79F3  04                 [070] (-23)
79F4  00                 [071] (-23)
79F5  00                 [072] (-23)
79F6  DF                 [073] (-23)
79F7  04                 [074] (-23)
79F8  00                 [075] (-19)
79F9  00                 [076] (-19)
79FA  DF                 [077] (-19)
79FB  04                 [078] (-19)
79FC  00                 [079] (-19)
79FD  00                 [080] (-19)
79FE  DF                 [081] (-18)
79FF  04                 [082] (-17)
7A00  00                 [083] (-17)
7A01  00                 [084] (-16)
7A02  DF                 [085] (-16)
7A03  04                 [086] (-15)
7A04  00                 [087] (-15)
7A05  00                 [088] (-13)
7A06  DF                 [089] (-10)
7A07  04                 [090] (-9)
7A08  00                 [091] (-9)
7A09  00                 [092] (-8)
7A0A  DF                 [093] (-6)
7A0B  04                 [094] (-5)
7A0C  00                 [095] (-5)
7A0D  00                 [096] (-5)
7A0E  DF                 [097] (-5)
7A0F  04                 [098] (-5)
7A10  00                 [099] (-5)
7A11  00                 [100] (-5)
7A12  DF                 [101] (-5)
7A13  04                 [102] (-5)
7A14  00                 [103] (-5)
7A15  00                 [104] (-5)
7A16  DF                 [105] (-4)
7A17  04                 [106] (-4)
7A18  00                 [107] (-4)
7A19  00                 [108] (-4)
7A1A  DF                 [109] (-4)
7A1B  04                 [110] (-3)
7A1C  00                 [111] (-1)
7A1D  00                 [112] (-1)
7A1E  DF                 [113] (-1)
7A1F  04                 [114] (-1)
7A20  00                 [115] (-1)
7A21  00                 [116] (-1)
7A22  DF                 [117] (-1)
7A23  04                 [118] (0)
7A24  00                 [119] (0)
7A25  00                 [120] (0)
7A26  DF                 [121] (0)
7A27  04                 [122] (0)
7A28  00                 [123] (1)
7A29  00                 [124] (3)
7A2A  DF                 [125] (3)
7A2B  04                 [126] (3)
7A2C  00                 [127] (3)
7A2D  00                 [128] (3)
7A2E  DF                 [129] (3)
7A2F  04                 [130] (3)
7A30  00                 [131] (3)
7A31  00                 [132] (3)
7A32  DF                 [133] (3)
7A33  04                 [134] (3)
7A34  00                 [135] (4)
7A35  00                 [136] (4)
7A36  DF                 [137] (4)
7A37  04                 [138] (4)
7A38  00                 [139] (4)
7A39  00                 [140] (7)
7A3A  E0                 [141] (7)
7A3B  04                 [142] (7)
7A3C  00                 [143] (7)
7A3D  00                 [144] (8)
7A3E  E3                 [145] (8)
7A3F  04                 [146] (8)
7A40  00                 [147] (8)
7A41  00                 [148] (8)
7A42  E3                 [149] (9)
7A43  04                 [150] (9)
7A44  00                 [151] (9)
7A45  00                 [152] (9)
7A46  E3                 [153] (10)
7A47  04                 [154] (11)
7A48  00                 [155] (11)
7A49  00                 [156] (11)
7A4A  E4                 [157] (11)
7A4B  04                 [158] (11)
7A4C  00                 [159] (11)
7A4D  00                 [160] (13)
7A4E  E4                 [161] (13)
7A4F  04                 [162] (14)
7A50  00                 [163] (14)
7A51  00                 [164] (14)
7A52  E4                 [165] (14)
7A53  04                 [166] (14)
7A54  00                 [167] (14)
7A55  00                 [168] (14)
7A56  E4                 [169] (14)
7A57  04                 [170] (14)
7A58  00                 [171] (14)
7A59  00                 [172] (14)
7A5A  E5                 [173] (14)
7A5B  04                 [174] (15)
7A5C  00                 [175] (15)
7A5D  00                 [176] (15)
7A5E  E5                 [177] (16)
7A5F  04                 [178] (18)
7A60  00                 [179] (18)
7A61  00                 [180] (18)
7A62  E5                 [181] (18)
7A63  04                 [182] (20)
7A64  00                 [183] (20)
7A65  00                 [184] (20)
7A66  E5                 [185] (20)
7A67  04                 [186] (21)
7A68  00                 [187] (21)
7A69  00                 [188] (21)
7A6A  E5                 [189] (21)
7A6B  04                 [190] (21)
7A6C  00                 [191] (21)
7A6D  00                 [192] (21)
7A6E  E5                 [193] (21)
7A6F  04                 [194] (21)
7A70  00                 [195] (23)
7A71  00                 [196] (23)
7A72  E5                 [197] (23)
7A73  04                 [198] (23)
7A74  00                 [199] (23)
7A75  00                 [200] (25)
7A76  E5                 [201] (25)
7A77  04                 [202] (25)
7A78  00                 [203] (26)
7A79  00                 [204] (26)
7A7A  E5                 [205] (26)
7A7B  04                 [206] (27)
7A7C  00                 [207] (27)
7A7D  00                 [208] (27)
7A7E  E5                 [209] (27)
7A7F  04                 [210] (27)
7A80  00                 [211] (27)
7A81  00                 [212] (27)
7A82  E6                 [213] (27)
7A83  04                 [214] (27)
7A84  00                 [215] (27)
7A85  00                 [216] (28)
7A86  E6                 [217] (28)
7A87  04                 [218] (28)
7A88  00                 [219] (29)
7A89  00                 [220] (29)
7A8A  E6                 [221] (29)
7A8B  04                 [222] (29)
7A8C  00                 [223] (29)
7A8D  00                 [224] (29)
7A8E  E6                 [225] (29)
7A8F  04                 [226] (29)
7A90  00                 [227] (29)
7A91  00                 [228] (29)
7A92  E6                 [229] (31)
7A93  04                 [230] (31)
7A94  00                 [231] (31)
7A95  00                 [232] (31)
7A96  E6                 [233] (31)
7A97  04                 [234] (31)
7A98  00                 [235] (31)
7A99  00                 [236] (31)
7A9A  E6                 [237] (31)
7A9B  04                 [238] (7)
7A9C  00                 [239] (35)
                         * locals:
7D6A  00                 sizelocvars (0)
                         * upvalues:
7D6B  00                 sizeupvalues (0)
                         ** end of function **

                         
7D6C                     ** function [37] definition (level 2)
                         ** start of function **
7D6C  00                 string size (0)
                         source name: (none)
7D6E  0A                 line defined (1317)
7D6F  D2                 last line defined (1362)
7D70  0A                 nups (4)
7D71  04                 numparams (0)
7D72  00                 is_vararg (0)
7D73  00                 maxstacksize (19)
                         * code:
7D75  7E                 sizecode (126)
7D76  1D000000           [001] getglobal  0   0        ; gGameRules
7D7A  24404000           [002] self       0   0   257  ; -1201441975
7D7E  22800001           [003] call       0   2   2  
7D82  4E804000           [004] gettable   1   0   258  ; "goalTag"
7D86  9DC00000           [005] getglobal  2   3        ; -332969190
7D8A  D9000100           [006] loadk      3   4        ; "TreasureHunt"
7D8E  A2800001           [007] call       2   2   2  
fail op	35
7D92  23808000           [008] close      0  
7D96  1A000080           [009] jmp        1            ; to [11]
7D9A  1E008000           [010] return     0   1      
7D9E  93000000           [011] getupval   2   0      
7DA2  8A000001           [012] len        2   2      
fail op	35
7DA6  23404101           [013] close      0  
7DAA  1A000180           [014] jmp        5            ; to [20]
7DAE  93008000           [015] getupval   2   1      
7DB2  8A000001           [016] len        2   2      
fail op	35
7DB6  23404101           [017] close      0  
7DBA  1A000080           [018] jmp        1            ; to [20]
7DBE  1E008000           [019] return     0   1      
7DC2  9D000000           [020] getglobal  2   0        ; gGameRules
7DC6  A4804101           [021] self       2   2   262  ; -502414055
7DCA  A2800001           [022] call       2   2   2  
7DCE  DDC00100           [023] getglobal  3   7        ; Lotus_Game
7DD2  CE00C201           [024] gettable   3   3   264  ; "MT_DEFENSE"
fail op	35
7DD6  63C00001           [025] close      1  
7DDA  1AC00480           [026] jmp        20           ; to [47]
7DDE  DDC00100           [027] getglobal  3   7        ; Lotus_Game
7DE2  CE40C201           [028] gettable   3   3   265  ; "MT_TERRITORY"
fail op	35
7DE6  63C00001           [029] close      1  
7DEA  1AC00380           [030] jmp        16           ; to [47]
7DEE  DDC00100           [031] getglobal  3   7        ; Lotus_Game
7DF2  CE80C201           [032] gettable   3   3   266  ; "MT_LANDSCAPE"
fail op	35
7DF6  63C00001           [033] close      1  
7DFA  1AC00280           [034] jmp        12           ; to [47]
7DFE  DDC00200           [035] getglobal  3   11       ; isArchwingMission
7E02  D8400000           [036] test       3       1    ; to [38] if false
7E06  1A000280           [037] jmp        9            ; to [47]
7E0A  DD000300           [038] getglobal  3   12       ; _T
7E0E  CE40C301           [039] gettable   3   3   269  ; "gTutorialMission"
7E12  D8400000           [040] test       3       1    ; to [42] if false
7E16  1A000180           [041] jmp        5            ; to [47]
7E1A  DDC00000           [042] getglobal  3   3        ; -332969190
7E1E  19810300           [043] loadk      4   14       ; "VorsPrizeMission"
7E22  E2800001           [044] call       3   2   2  
fail op	35
7E26  23C08000           [045] close      0  
7E2A  1A000080           [046] jmp        1            ; to [48]
7E2E  1E008000           [047] return     0   1      
7E32  D3000001           [048] getupval   3   2      
7E36  1DC10300           [049] getglobal  4   15       ; 1489265602
7E3A  22818000           [050] call       4   1   2  
fail op	33
7E3E  21C00002           [051] tforloop   0       3    ; to [53] if exit
7E42  1A001280           [052] jmp        73           ; to [126]
7E46  53018000           [053] getupval   5   1      
7E4A  4A018002           [054] len        5   5      
7E4E  93010000           [055] getupval   6   0      
7E52  8A010003           [056] len        6   6      
7E56  D3018000           [057] getupval   7   1      
7E5A  CA018003           [058] len        7   7      
7E5E  83C10103           [059] add        6   6   7  
7E62  5C818102           [060] div        5   5   6  
7E66  84410188           [061] mul        6   272 5    ; 0
7E6A  8D818188           [062] sub        6   273 6    ; 0
7E6E  D3010000           [063] getupval   7   0      
7E72  CA018003           [064] len        7   7      
fail op	21
7E76  15C08182           [065] concat     0   261 7  
7E7A  1AC00180           [066] jmp        8            ; to [75]
7E7E  D3018000           [067] getupval   7   1      
7E82  CA018003           [068] len        7   7      
fail op	35
7E86  6340C103           [069] close      1  
7E8A  1A000180           [070] jmp        5            ; to [76]
7E8E  DDC10300           [071] getglobal  7   15       ; 1489265602
7E92  E2818000           [072] call       7   1   2  
fail op	21
7E96  55808103           [073] concat     1   7   6  
7E9A  1A000080           [074] jmp        1            ; to [76]
7E9E  D7410000           [075] loadbool   7   0   1    ; false, to [77]
7EA2  D7018000           [076] loadbool   7   1   0    ; true
7EA6  06020004           [077] loadnil    8   8      
7EAA  D8010000           [078] test       7       0    ; to [80] if true
7EAE  1A000380           [079] jmp        13           ; to [93]
7EB2  5D820400           [080] getglobal  9   18       ; 2144646525
7EB6  99420400           [081] loadk      10  17       ; 0
7EBA  D3020000           [082] getupval   11  0      
7EBE  CA028005           [083] len        11  11     
7EC2  62828001           [084] call       9   3   2  
7EC6  93020000           [085] getupval   10  0      
7ECA  0E420205           [086] gettable   8   10  9  
7ECE  9DC20400           [087] getglobal  10  19       ; table
7ED2  8E024505           [088] gettable   10  10  276  ; -843973282
7ED6  D3020000           [089] getupval   11  0      
7EDA  12038004           [090] move       12  9      
7EDE  A2428001           [091] call       10  3   1  
7EE2  1AC00280           [092] jmp        12           ; to [105]
7EE6  9D820400           [093] getglobal  10  18       ; 2144646525
7EEA  D9420400           [094] loadk      11  17       ; 0
7EEE  13038000           [095] getupval   12  1      
7EF2  0A030006           [096] len        12  12     
7EF6  A2828001           [097] call       10  3   2  
7EFA  D3028000           [098] getupval   11  1      
7EFE  0E828205           [099] gettable   8   11  10 
7F02  DDC20400           [100] getglobal  11  19       ; table
7F06  CE02C505           [101] gettable   11  11  276  ; -843973282
7F0A  13038000           [102] getupval   12  1      
7F0E  52030005           [103] move       13  10     
7F12  E2428001           [104] call       11  3   1  
7F16  D3028001           [105] getupval   11  3      
7F1A  E442C505           [106] self       11  11  277  ; -801556842
7F1E  52030004           [107] move       13  8      
7F22  9DC30000           [108] getglobal  14  3        ; -332969190
7F26  A2838000           [109] call       14  1   2  
7F2A  D9430100           [110] loadk      15  5        ; 0
7F2E  E2428002           [111] call       11  5   1  
7F32  D7020000           [112] loadbool   11  0   0    ; false
7F36  D8020000           [113] test       11      0    ; to [115] if true
7F3A  1A800280           [114] jmp        11           ; to [126]
7F3E  E4824504           [115] self       11  8   278  ; 1839670529
7F42  E2820001           [116] call       11  2   2  
7F46  1DC30500           [117] getglobal  12  23       ; -1817107093
7F4A  59030600           [118] loadk      13  24       ; "Created FUSION TREASURE at "
7F4E  8E43C605           [119] gettable   14  11  281  ; "x"
7F52  D9830600           [120] loadk      15  26       ; " "
7F56  0EC4C605           [121] gettable   16  11  283  ; "y"
7F5A  59840600           [122] loadk      17  26       ; " "
7F5E  8E04C705           [123] gettable   18  11  284  ; "z"
7F62  42838406           [124] concat     13  13  18 
7F66  22430001           [125] call       12  2   1  
7F6A  1E008000           [126] return     0   1      
                         * constants:
7F6E  1D                 sizek (29)
7F6F  04                 const type 4
7F70  0B                 string size (11)
7F71  6747616D6552756C+  "gGameRul"
7F79  657300             "es\0"
                         const [0]: "gGameRules"
7F7C  01                 const type 3
7F7D  497363B8           const [1]: (-1201441975)
7F81  04                 const type 4
7F82  08                 string size (8)
7F83  676F616C54616700   "goalTag\0"
                         const [2]: "goalTag"
7F8B  01                 const type 3
7F8C  1A4B27EC           const [3]: (-332969190)
7F90  04                 const type 4
7F91  0D                 string size (13)
7F92  5472656173757265+  "Treasure"
7F9A  48756E7400         "Hunt\0"
                         const [4]: "TreasureHunt"
7F9F  03                 const type 3
7FA0  00000000           const [5]: (0)
7FA4  01                 const type 3
7FA5  19C50DE2           const [6]: (-502414055)
7FA9  04                 const type 4
7FAA  0B                 string size (11)
7FAB  4C6F7475735F4761+  "Lotus_Ga"
7FB3  6D6500             "me\0"
                         const [7]: "Lotus_Game"
7FB6  04                 const type 4
7FB7  0B                 string size (11)
7FB8  4D545F444546454E+  "MT_DEFEN"
7FC0  534500             "SE\0"
                         const [8]: "MT_DEFENSE"
7FC3  04                 const type 4
7FC4  0D                 string size (13)
7FC5  4D545F5445525249+  "MT_TERRI"
7FCD  544F525900         "TORY\0"
                         const [9]: "MT_TERRITORY"
7FD2  04                 const type 4
7FD3  0D                 string size (13)
7FD4  4D545F4C414E4453+  "MT_LANDS"
7FDC  4341504500         "CAPE\0"
                         const [10]: "MT_LANDSCAPE"
7FE1  04                 const type 4
7FE2  12                 string size (18)
7FE3  6973417263687769+  "isArchwi"
7FEB  6E674D697373696F+  "ngMissio"
7FF3  6E00               "n\0"
                         const [11]: "isArchwingMission"
7FF5  04                 const type 4
7FF6  03                 string size (3)
7FF7  5F5400             "_T\0"
                         const [12]: "_T"
7FFA  04                 const type 4
7FFB  11                 string size (17)
7FFC  675475746F726961+  "gTutoria"
8004  6C4D697373696F6E+  "lMission"
800C  00                 "\0"
                         const [13]: "gTutorialMission"
800D  04                 const type 4
800E  11                 string size (17)
800F  566F72735072697A+  "VorsPriz"
8017  654D697373696F6E+  "eMission"
801F  00                 "\0"
                         const [14]: "VorsPrizeMission"
8020  01                 const type 3
8021  C263C458           const [15]: (1489265602)
8025  03                 const type 3
8026  0000003F           const [16]: (0)
802A  03                 const type 3
802B  0000803F           const [17]: (0)
802F  01                 const type 3
8030  7DB5D47F           const [18]: (2144646525)
8034  04                 const type 4
8035  06                 string size (6)
8036  7461626C6500       "table\0"
                         const [19]: "table"
803C  01                 const type 3
803D  5EFDB1CD           const [20]: (-843973282)
8041  01                 const type 3
8042  963639D0           const [21]: (-801556842)
8046  01                 const type 3
8047  0125A76D           const [22]: (1839670529)
804B  01                 const type 3
804C  6B25B193           const [23]: (-1817107093)
8050  04                 const type 4
8051  1C                 string size (28)
8052  4372656174656420+  "Created "
805A  465553494F4E2054+  "FUSION T"
8062  5245415355524520+  "REASURE "
806A  61742000           "at \0"
                         const [24]: "Created FUSION TREASURE at "
806E  04                 const type 4
806F  02                 string size (2)
8070  7800               "x\0"
                         const [25]: "x"
8072  04                 const type 4
8073  02                 string size (2)
8074  2000               " \0"
                         const [26]: " "
8076  04                 const type 4
8077  02                 string size (2)
8078  7900               "y\0"
                         const [27]: "y"
807A  04                 const type 4
807B  02                 string size (2)
807C  7A00               "z\0"
                         const [28]: "z"
                         * functions:
807E  00                 sizep (0)
                         * lines:
807F  7E                 sizelineinfo (126)
                         [pc] (line)
8080  26                 [001] (38)
8081  05                 [002] (38)
8082  00                 [003] (38)
8083  00                 [004] (39)
8084  26                 [005] (41)
8085  05                 [006] (41)
8086  00                 [007] (41)
8087  00                 [008] (41)
8088  26                 [009] (41)
8089  05                 [010] (42)
808A  00                 [011] (45)
808B  00                 [012] (45)
808C  27                 [013] (45)
808D  05                 [014] (45)
808E  00                 [015] (45)
808F  00                 [016] (45)
8090  29                 [017] (45)
8091  05                 [018] (45)
8092  00                 [019] (47)
8093  00                 [020] (50)
8094  29                 [021] (50)
8095  05                 [022] (50)
8096  00                 [023] (51)
8097  00                 [024] (51)
8098  29                 [025] (51)
8099  05                 [026] (51)
809A  00                 [027] (51)
809B  00                 [028] (51)
809C  29                 [029] (51)
809D  05                 [030] (51)
809E  00                 [031] (51)
809F  00                 [032] (51)
80A0  29                 [033] (51)
80A1  05                 [034] (51)
80A2  00                 [035] (52)
80A3  00                 [036] (52)
80A4  2A                 [037] (52)
80A5  05                 [038] (52)
80A6  00                 [039] (52)
80A7  00                 [040] (52)
80A8  2D                 [041] (52)
80A9  05                 [042] (52)
80AA  00                 [043] (52)
80AB  00                 [044] (52)
80AC  2D                 [045] (52)
80AD  05                 [046] (52)
80AE  00                 [047] (53)
80AF  00                 [048] (56)
80B0  2D                 [049] (58)
80B1  05                 [050] (58)
80B2  00                 [051] (59)
80B3  00                 [052] (59)
80B4  2D                 [053] (60)
80B5  05                 [054] (60)
80B6  00                 [055] (60)
80B7  00                 [056] (60)
80B8  2D                 [057] (60)
80B9  05                 [058] (60)
80BA  00                 [059] (60)
80BB  00                 [060] (60)
80BC  2D                 [061] (61)
80BD  05                 [062] (61)
80BE  00                 [063] (62)
80BF  00                 [064] (62)
80C0  2D                 [065] (62)
80C1  05                 [066] (62)
80C2  00                 [067] (62)
80C3  00                 [068] (62)
80C4  2D                 [069] (62)
80C5  05                 [070] (62)
80C6  00                 [071] (62)
80C7  00                 [072] (62)
80C8  2F                 [073] (62)
80C9  05                 [074] (62)
80CA  00                 [075] (62)
80CB  00                 [076] (62)
80CC  32                 [077] (64)
80CD  05                 [078] (65)
80CE  00                 [079] (65)
80CF  00                 [080] (66)
80D0  32                 [081] (66)
80D1  05                 [082] (66)
80D2  00                 [083] (66)
80D3  00                 [084] (66)
80D4  32                 [085] (67)
80D5  05                 [086] (67)
80D6  00                 [087] (68)
80D7  00                 [088] (68)
80D8  33                 [089] (68)
80D9  05                 [090] (68)
80DA  00                 [091] (68)
80DB  00                 [092] (68)
80DC  33                 [093] (70)
80DD  05                 [094] (70)
80DE  00                 [095] (70)
80DF  00                 [096] (70)
80E0  33                 [097] (70)
80E1  05                 [098] (71)
80E2  00                 [099] (71)
80E3  00                 [100] (72)
80E4  33                 [101] (72)
80E5  05                 [102] (72)
80E6  00                 [103] (72)
80E7  00                 [104] (72)
80E8  33                 [105] (75)
80E9  05                 [106] (75)
80EA  00                 [107] (75)
80EB  00                 [108] (75)
80EC  33                 [109] (75)
80ED  05                 [110] (75)
80EE  00                 [111] (75)
80EF  00                 [112] (77)
80F0  33                 [113] (77)
80F1  05                 [114] (77)
80F2  00                 [115] (78)
80F3  00                 [116] (78)
80F4  33                 [117] (79)
80F5  05                 [118] (79)
80F6  00                 [119] (79)
80F7  00                 [120] (79)
80F8  33                 [121] (79)
80F9  05                 [122] (79)
80FA  00                 [123] (79)
80FB  00                 [124] (79)
80FC  33                 [125] (79)
80FD  05                 [126] (82)
                         * locals:
8278  00                 sizelocvars (0)
                         * upvalues:
8279  00                 sizeupvalues (0)
                         ** end of function **

                         
827A                     ** function [38] definition (level 2)
                         ** start of function **
827A  00                 string size (0)
                         source name: (none)
827C  0A                 line defined (1364)
827D  F1                 last line defined (1393)
827E  0A                 nups (1)
827F  01                 numparams (0)
8280  00                 is_vararg (0)
8281  00                 maxstacksize (12)
                         * code:
8283  56                 sizecode (86)
8284  1D000000           [01] getglobal  0   0        ; gGameRules
8288  24404000           [02] self       0   0   257  ; -502414055
828C  22800001           [03] call       0   2   2  
8290  5D800000           [04] getglobal  1   2        ; 1074689893
8294  9DC00000           [05] getglobal  2   3        ; rareLootWaypointType
8298  62800001           [06] call       1   2   2  
829C  58400000           [07] test       1       1    ; to [9] if false
82A0  1A000580           [08] jmp        21           ; to [30]
82A4  5D800000           [09] getglobal  1   2        ; 1074689893
82A8  9D000100           [10] getglobal  2   4        ; rareCrateType
82AC  62800001           [11] call       1   2   2  
82B0  58400000           [12] test       1       1    ; to [14] if false
82B4  1AC00380           [13] jmp        16           ; to [30]
82B8  5D400100           [14] getglobal  1   5        ; Lotus_Game
82BC  4E80C100           [15] gettable   1   1   262  ; "MT_DEFENSE"
fail op	35
82C0  63400000           [16] close      1  
82C4  1AC00280           [17] jmp        12           ; to [30]
82C8  5D400100           [18] getglobal  1   5        ; Lotus_Game
82CC  4EC0C100           [19] gettable   1   1   263  ; "MT_TERRITORY"
fail op	35
82D0  63400000           [20] close      1  
82D4  1AC00180           [21] jmp        8            ; to [30]
82D8  5D400100           [22] getglobal  1   5        ; Lotus_Game
82DC  4E00C200           [23] gettable   1   1   264  ; "MT_LANDSCAPE"
fail op	35
82E0  63400000           [24] close      1  
82E4  1AC00080           [25] jmp        4            ; to [30]
82E8  5D400100           [26] getglobal  1   5        ; Lotus_Game
82EC  4E40C200           [27] gettable   1   1   265  ; "MT_ENDLESS_EXTERMINATION"
fail op	35
82F0  23400000           [28] close      0  
82F4  1A000080           [29] jmp        1            ; to [31]
82F8  1E008000           [30] return     0   1      
82FC  53000000           [31] getupval   1   0      
8300  4A008000           [32] len        1   1      
fail op	21
8304  15400085           [33] concat     0   266 1  
8308  1A800C80           [34] jmp        51           ; to [86]
830C  5DC00200           [35] getglobal  1   11       ; 1489265602
8310  62808000           [36] call       1   1   2  
8314  9D000300           [37] getglobal  2   12       ; rareLootChance
fail op	33
8318  21808000           [38] tforloop   0       2    ; to [40] if exit
831C  1A400B80           [39] jmp        46           ; to [86]
8320  9D400300           [40] getglobal  2   13       ; 2144646525
8324  D9800300           [41] loadk      3   14       ; 0
8328  13010000           [42] getupval   4   0      
832C  0A010002           [43] len        4   4      
8330  A2808001           [44] call       2   3   2  
8334  D3000000           [45] getupval   3   0      
8338  CE808001           [46] gettable   3   3   2  
833C  E4C0C301           [47] self       3   3   271  ; 1839670529
8340  E2800001           [48] call       3   2   2  
8344  13010000           [49] getupval   4   0      
8348  0E810002           [50] gettable   4   4   2  
834C  24014402           [51] self       4   4   272  ; -231049143
8350  22810001           [52] call       4   2   2  
8354  5D010100           [53] getglobal  5   4        ; rareCrateType
8358  9D410400           [54] getglobal  6   17       ; gRegion
835C  A4814403           [55] self       6   6   274  ; -774964848
8360  A2810001           [56] call       6   2   2  
8364  A4C14403           [57] self       6   6   275  ; 537471347
8368  A2810001           [58] call       6   2   2  
836C  E4014503           [59] self       7   6   276  ; 1527427648
8370  E2810001           [60] call       7   2   2  
8374  D8010000           [61] test       7       0    ; to [63] if true
8378  1AC00280           [62] jmp        12           ; to [75]
837C  E4414503           [63] self       7   6   277  ; 992090637
8380  53020000           [64] getupval   9   0      
8384  4E828004           [65] gettable   9   9   2  
8388  E2818001           [66] call       7   3   2  
fail op	33
838C  2180C503           [67] tforloop   0       278  ; to [69] if exit
8390  1A400180           [68] jmp        6            ; to [75]
8394  DD810000           [69] getglobal  7   2        ; 1074689893
8398  1DC20500           [70] getglobal  8   23       ; altRareCrateType
839C  E2810001           [71] call       7   2   2  
83A0  D8410000           [72] test       7       1    ; to [74] if false
83A4  1A000080           [73] jmp        1            ; to [75]
83A8  5DC10500           [74] getglobal  5   23       ; altRareCrateType
83AC  DD410400           [75] getglobal  7   17       ; gRegion
83B0  E401C603           [76] self       7   7   280  ; -1110225722
83B4  52028002           [77] move       9   5      
83B8  92028001           [78] move       10  3      
83BC  D2020002           [79] move       11  4      
83C0  E2418002           [80] call       7   5   1  
83C4  DD410600           [81] getglobal  7   25       ; table
83C8  CE81C603           [82] gettable   7   7   282  ; -843973282
83CC  13020000           [83] getupval   8   0      
83D0  52020001           [84] move       9   2      
83D4  E2418001           [85] call       7   3   1  
83D8  1E008000           [86] return     0   1      
                         * constants:
83DC  1B                 sizek (27)
83DD  04                 const type 4
83DE  0B                 string size (11)
83DF  6747616D6552756C+  "gGameRul"
83E7  657300             "es\0"
                         const [0]: "gGameRules"
83EA  01                 const type 3
83EB  19C50DE2           const [1]: (-502414055)
83EF  01                 const type 3
83F0  65770E40           const [2]: (1074689893)
83F4  04                 const type 4
83F5  15                 string size (21)
83F6  726172654C6F6F74+  "rareLoot"
83FE  576179706F696E74+  "Waypoint"
8406  5479706500         "Type\0"
                         const [3]: "rareLootWaypointType"
840B  04                 const type 4
840C  0E                 string size (14)
840D  7261726543726174+  "rareCrat"
8415  655479706500       "eType\0"
                         const [4]: "rareCrateType"
841B  04                 const type 4
841C  0B                 string size (11)
841D  4C6F7475735F4761+  "Lotus_Ga"
8425  6D6500             "me\0"
                         const [5]: "Lotus_Game"
8428  04                 const type 4
8429  0B                 string size (11)
842A  4D545F444546454E+  "MT_DEFEN"
8432  534500             "SE\0"
                         const [6]: "MT_DEFENSE"
8435  04                 const type 4
8436  0D                 string size (13)
8437  4D545F5445525249+  "MT_TERRI"
843F  544F525900         "TORY\0"
                         const [7]: "MT_TERRITORY"
8444  04                 const type 4
8445  0D                 string size (13)
8446  4D545F4C414E4453+  "MT_LANDS"
844E  4341504500         "CAPE\0"
                         const [8]: "MT_LANDSCAPE"
8453  04                 const type 4
8454  19                 string size (25)
8455  4D545F454E444C45+  "MT_ENDLE"
845D  53535F4558544552+  "SS_EXTER"
8465  4D494E4154494F4E+  "MINATION"
846D  00                 "\0"
                         const [9]: "MT_ENDLESS_EXTERMINATION"
846E  03                 const type 3
846F  00000000           const [10]: (0)
8473  01                 const type 3
8474  C263C458           const [11]: (1489265602)
8478  04                 const type 4
8479  0F                 string size (15)
847A  726172654C6F6F74+  "rareLoot"
8482  4368616E636500     "Chance\0"
                         const [12]: "rareLootChance"
8489  01                 const type 3
848A  7DB5D47F           const [13]: (2144646525)
848E  03                 const type 3
848F  0000803F           const [14]: (0)
8493  01                 const type 3
8494  0125A76D           const [15]: (1839670529)
8498  01                 const type 3
8499  49783AF2           const [16]: (-231049143)
849D  04                 const type 4
849E  08                 string size (8)
849F  67526567696F6E00   "gRegion\0"
                         const [17]: "gRegion"
84A7  01                 const type 3
84A8  90F9CED1           const [18]: (-774964848)
84AC  01                 const type 3
84AD  73290920           const [19]: (537471347)
84B1  01                 const type 3
84B2  40B20A5B           const [20]: (1527427648)
84B6  01                 const type 3
84B7  0D1A223B           const [21]: (992090637)
84BB  03                 const type 3
84BC  0000003F           const [22]: (0)
84C0  04                 const type 4
84C1  11                 string size (17)
84C2  616C745261726543+  "altRareC"
84CA  7261746554797065+  "rateType"
84D2  00                 "\0"
                         const [23]: "altRareCrateType"
84D3  01                 const type 3
84D4  C64CD3BD           const [24]: (-1110225722)
84D8  04                 const type 4
84D9  06                 string size (6)
84DA  7461626C6500       "table\0"
                         const [25]: "table"
84E0  01                 const type 3
84E1  5EFDB1CD           const [26]: (-843973282)
                         * functions:
84E5  00                 sizep (0)
                         * lines:
84E6  56                 sizelineinfo (86)
                         [pc] (line)
84E7  55                 [01] (85)
84E8  05                 [02] (85)
84E9  00                 [03] (85)
84EA  00                 [04] (86)
84EB  55                 [05] (86)
84EC  05                 [06] (86)
84ED  00                 [07] (86)
84EE  00                 [08] (86)
84EF  55                 [09] (86)
84F0  05                 [10] (86)
84F1  00                 [11] (86)
84F2  00                 [12] (86)
84F3  56                 [13] (86)
84F4  05                 [14] (86)
84F5  00                 [15] (86)
84F6  00                 [16] (86)
84F7  56                 [17] (86)
84F8  05                 [18] (86)
84F9  00                 [19] (86)
84FA  00                 [20] (86)
84FB  56                 [21] (86)
84FC  05                 [22] (87)
84FD  00                 [23] (87)
84FE  00                 [24] (87)
84FF  56                 [25] (87)
8500  05                 [26] (87)
8501  00                 [27] (87)
8502  00                 [28] (87)
8503  56                 [29] (87)
8504  05                 [30] (88)
8505  00                 [31] (90)
8506  00                 [32] (90)
8507  56                 [33] (90)
8508  05                 [34] (90)
8509  00                 [35] (91)
850A  00                 [36] (91)
850B  56                 [37] (93)
850C  05                 [38] (93)
850D  00                 [39] (93)
850E  00                 [40] (94)
850F  56                 [41] (94)
8510  05                 [42] (94)
8511  00                 [43] (94)
8512  00                 [44] (94)
8513  56                 [45] (96)
8514  05                 [46] (96)
8515  00                 [47] (96)
8516  00                 [48] (96)
8517  56                 [49] (97)
8518  05                 [50] (97)
8519  00                 [51] (97)
851A  00                 [52] (97)
851B  56                 [53] (98)
851C  05                 [54] (100)
851D  00                 [55] (100)
851E  00                 [56] (100)
851F  56                 [57] (100)
8520  05                 [58] (100)
8521  00                 [59] (101)
8522  00                 [60] (101)
8523  56                 [61] (101)
8524  05                 [62] (101)
8525  00                 [63] (102)
8526  00                 [64] (102)
8527  56                 [65] (102)
8528  05                 [66] (102)
8529  00                 [67] (102)
852A  00                 [68] (102)
852B  56                 [69] (103)
852C  05                 [70] (103)
852D  00                 [71] (103)
852E  00                 [72] (103)
852F  56                 [73] (103)
8530  05                 [74] (104)
8531  00                 [75] (109)
8532  00                 [76] (109)
8533  56                 [77] (109)
8534  05                 [78] (109)
8535  00                 [79] (109)
8536  00                 [80] (109)
8537  56                 [81] (110)
8538  05                 [82] (110)
8539  00                 [83] (110)
853A  00                 [84] (110)
853B  57                 [85] (110)
853C  05                 [86] (113)
                         * locals:
863F  00                 sizelocvars (0)
                         * upvalues:
8640  00                 sizeupvalues (0)
                         ** end of function **

                         
8641                     ** function [39] definition (level 2)
                         ** start of function **
8641  00                 string size (0)
                         source name: (none)
8643  0A                 line defined (1395)
8644  8C                 last line defined (1420)
8645  0B                 nups (1)
8646  01                 numparams (0)
8647  00                 is_vararg (0)
8648  00                 maxstacksize (12)
                         * code:
864A  3F                 sizecode (63)
864B  1D000000           [01] getglobal  0   0        ; gGameRules
864F  24404000           [02] self       0   0   257  ; -502414055
8653  22800001           [03] call       0   2   2  
8657  53000000           [04] getupval   1   0      
865B  4A008000           [05] len        1   1      
fail op	21
865F  5580C000           [06] concat     1   1   258
8663  1AC00180           [07] jmp        8            ; to [16]
8667  5DC00000           [08] getglobal  1   3        ; Lotus_Game
866B  4E00C100           [09] gettable   1   1   260  ; "MT_DEFENSE"
fail op	35
866F  63400000           [10] close      1  
8673  1AC00080           [11] jmp        4            ; to [16]
8677  5DC00000           [12] getglobal  1   3        ; Lotus_Game
867B  4E40C100           [13] gettable   1   1   261  ; "MT_TERRITORY"
fail op	35
867F  23400000           [14] close      0  
8683  1A000080           [15] jmp        1            ; to [17]
8687  1E008000           [16] return     0   1      
868B  5D800100           [17] getglobal  1   6        ; 1489265602
868F  62808000           [18] call       1   1   2  
8693  9DC00100           [19] getglobal  2   7        ; ultraRareLootChance
fail op	33
8697  21808000           [20] tforloop   0       2    ; to [22] if exit
869B  1A000A80           [21] jmp        41           ; to [63]
869F  9D000200           [22] getglobal  2   8        ; 2144646525
86A3  D9800000           [23] loadk      3   2        ; 0
86A7  13010000           [24] getupval   4   0      
86AB  0A010002           [25] len        4   4      
86AF  A2808001           [26] call       2   3   2  
86B3  D3000000           [27] getupval   3   0      
86B7  CE808001           [28] gettable   3   3   2  
86BB  E440C201           [29] self       3   3   265  ; 1839670529
86BF  E2800001           [30] call       3   2   2  
86C3  13010000           [31] getupval   4   0      
86C7  0E810002           [32] gettable   4   4   2  
86CB  24814202           [33] self       4   4   266  ; -231049143
86CF  22810001           [34] call       4   2   2  
86D3  5DC10200           [35] getglobal  5   11       ; ultraRareCrateType
86D7  9D010300           [36] getglobal  6   12       ; gRegion
86DB  A4414303           [37] self       6   6   269  ; -774964848
86DF  A2810001           [38] call       6   2   2  
86E3  A4814303           [39] self       6   6   270  ; 537471347
86E7  A2810001           [40] call       6   2   2  
86EB  E4C14303           [41] self       7   6   271  ; 1527427648
86EF  E2810001           [42] call       7   2   2  
86F3  D8010000           [43] test       7       0    ; to [45] if true
86F7  1AC00280           [44] jmp        12           ; to [57]
86FB  E4014403           [45] self       7   6   272  ; 992090637
86FF  53020000           [46] getupval   9   0      
8703  4E828004           [47] gettable   9   9   2  
8707  E2818001           [48] call       7   3   2  
fail op	33
870B  2140C403           [49] tforloop   0       273  ; to [51] if exit
870F  1A400180           [50] jmp        6            ; to [57]
8713  DD810400           [51] getglobal  7   18       ; 1074689893
8717  1DC20400           [52] getglobal  8   19       ; altUltraRareCrateType
871B  E2810001           [53] call       7   2   2  
871F  D8410000           [54] test       7       1    ; to [56] if false
8723  1A000080           [55] jmp        1            ; to [57]
8727  5DC10400           [56] getglobal  5   19       ; altUltraRareCrateType
872B  DD010300           [57] getglobal  7   12       ; gRegion
872F  E401C503           [58] self       7   7   276  ; -1110225722
8733  52028002           [59] move       9   5      
8737  92028001           [60] move       10  3      
873B  D2020002           [61] move       11  4      
873F  E2418002           [62] call       7   5   1  
8743  1E008000           [63] return     0   1      
                         * constants:
8747  15                 sizek (21)
8748  04                 const type 4
8749  0B                 string size (11)
874A  6747616D6552756C+  "gGameRul"
8752  657300             "es\0"
                         const [0]: "gGameRules"
8755  01                 const type 3
8756  19C50DE2           const [1]: (-502414055)
875A  03                 const type 3
875B  0000803F           const [2]: (0)
875F  04                 const type 4
8760  0B                 string size (11)
8761  4C6F7475735F4761+  "Lotus_Ga"
8769  6D6500             "me\0"
                         const [3]: "Lotus_Game"
876C  04                 const type 4
876D  0B                 string size (11)
876E  4D545F444546454E+  "MT_DEFEN"
8776  534500             "SE\0"
                         const [4]: "MT_DEFENSE"
8779  04                 const type 4
877A  0D                 string size (13)
877B  4D545F5445525249+  "MT_TERRI"
8783  544F525900         "TORY\0"
                         const [5]: "MT_TERRITORY"
8788  01                 const type 3
8789  C263C458           const [6]: (1489265602)
878D  04                 const type 4
878E  14                 string size (20)
878F  756C747261526172+  "ultraRar"
8797  654C6F6F74436861+  "eLootCha"
879F  6E636500           "nce\0"
                         const [7]: "ultraRareLootChance"
87A3  01                 const type 3
87A4  7DB5D47F           const [8]: (2144646525)
87A8  01                 const type 3
87A9  0125A76D           const [9]: (1839670529)
87AD  01                 const type 3
87AE  49783AF2           const [10]: (-231049143)
87B2  04                 const type 4
87B3  13                 string size (19)
87B4  756C747261526172+  "ultraRar"
87BC  6543726174655479+  "eCrateTy"
87C4  706500             "pe\0"
                         const [11]: "ultraRareCrateType"
87C7  04                 const type 4
87C8  08                 string size (8)
87C9  67526567696F6E00   "gRegion\0"
                         const [12]: "gRegion"
87D1  01                 const type 3
87D2  90F9CED1           const [13]: (-774964848)
87D6  01                 const type 3
87D7  73290920           const [14]: (537471347)
87DB  01                 const type 3
87DC  40B20A5B           const [15]: (1527427648)
87E0  01                 const type 3
87E1  0D1A223B           const [16]: (992090637)
87E5  03                 const type 3
87E6  0000003F           const [17]: (0)
87EA  01                 const type 3
87EB  65770E40           const [18]: (1074689893)
87EF  04                 const type 4
87F0  16                 string size (22)
87F1  616C74556C747261+  "altUltra"
87F9  5261726543726174+  "RareCrat"
8801  655479706500       "eType\0"
                         const [19]: "altUltraRareCrateType"
8807  01                 const type 3
8808  C64CD3BD           const [20]: (-1110225722)
                         * functions:
880C  00                 sizep (0)
                         * lines:
880D  3F                 sizelineinfo (63)
                         [pc] (line)
880E  74                 [01] (116)
880F  05                 [02] (116)
8810  00                 [03] (116)
8811  00                 [04] (117)
8812  74                 [05] (117)
8813  05                 [06] (117)
8814  00                 [07] (117)
8815  00                 [08] (117)
8816  74                 [09] (117)
8817  05                 [10] (117)
8818  00                 [11] (117)
8819  00                 [12] (117)
881A  75                 [13] (117)
881B  05                 [14] (117)
881C  00                 [15] (117)
881D  00                 [16] (118)
881E  75                 [17] (121)
881F  05                 [18] (121)
8820  00                 [19] (123)
8821  00                 [20] (123)
8822  75                 [21] (123)
8823  05                 [22] (124)
8824  00                 [23] (124)
8825  00                 [24] (124)
8826  75                 [25] (124)
8827  05                 [26] (124)
8828  00                 [27] (125)
8829  00                 [28] (125)
882A  75                 [29] (125)
882B  05                 [30] (125)
882C  00                 [31] (126)
882D  00                 [32] (126)
882E  75                 [33] (126)
882F  05                 [34] (126)
8830  00                 [35] (127)
8831  00                 [36] (-127)
8832  75                 [37] (-127)
8833  05                 [38] (-127)
8834  00                 [39] (-127)
8835  00                 [40] (-127)
8836  75                 [41] (-126)
8837  05                 [42] (-126)
8838  00                 [43] (-126)
8839  00                 [44] (-126)
883A  75                 [45] (-125)
883B  05                 [46] (-125)
883C  00                 [47] (-125)
883D  00                 [48] (-125)
883E  75                 [49] (-125)
883F  05                 [50] (-125)
8840  00                 [51] (-124)
8841  00                 [52] (-124)
8842  75                 [53] (-124)
8843  05                 [54] (-124)
8844  00                 [55] (-124)
8845  00                 [56] (-123)
8846  75                 [57] (-118)
8847  05                 [58] (-118)
8848  00                 [59] (-118)
8849  00                 [60] (-118)
884A  76                 [61] (-118)
884B  05                 [62] (-118)
884C  00                 [63] (-116)
                         * locals:
890A  00                 sizelocvars (0)
                         * upvalues:
890B  00                 sizeupvalues (0)
                         ** end of function **

                         
890C                     ** function [40] definition (level 2)
                         ** start of function **
890C  00                 string size (0)
                         source name: (none)
890E  0B                 line defined (1422)
890F  9E                 last line defined (1438)
8910  0B                 nups (0)
8911  00                 numparams (0)
8912  00                 is_vararg (0)
8913  00                 maxstacksize (14)
                         * code:
8915  35                 sizecode (53)
8916  1D000000           [01] getglobal  0   0        ; 1074689893
891A  5D400000           [02] getglobal  1   1        ; floatingCrateWaypointType
891E  22800001           [03] call       0   2   2  
8922  18400000           [04] test       0       1    ; to [6] if false
8926  1A000180           [05] jmp        5            ; to [11]
892A  1D000000           [06] getglobal  0   0        ; 1074689893
892E  5D800000           [07] getglobal  1   2        ; floatingCrateTypes
8932  22800001           [08] call       0   2   2  
8936  18000000           [09] test       0       0    ; to [11] if true
893A  1A000080           [10] jmp        1            ; to [12]
893E  1E008000           [11] return     0   1      
8942  1DC00000           [12] getglobal  0   3        ; gRegion
8946  24004100           [13] self       0   0   260  ; 152279552
894A  9D400000           [14] getglobal  2   1        ; floatingCrateWaypointType
894E  22808001           [15] call       0   3   2  
8952  59400100           [16] loadk      1   5        ; 0
8956  9D800100           [17] getglobal  2   6        ; math
895A  8EC04101           [18] gettable   2   2   263  ; 1710846250
895E  CA000000           [19] len        3   0      
8962  1D010200           [20] getglobal  4   8        ; numFloatingCrates
8966  A2808001           [21] call       2   3   2  
896A  D9400100           [22] loadk      3   5        ; 0
896E  50C00680           [23] forprep    1   28       ; to [52]
8972  5D410200           [24] getglobal  5   9        ; 2144646525
8976  99410100           [25] loadk      6   5        ; 0
897A  CA010000           [26] len        7   0      
897E  62818001           [27] call       5   3   2  
8982  8E410100           [28] gettable   6   0   5  
8986  A4814203           [29] self       6   6   266  ; 1839670529
898A  A2810001           [30] call       6   2   2  
898E  CE410100           [31] gettable   7   0   5  
8992  E4C1C203           [32] self       7   7   267  ; -231049143
8996  E2810001           [33] call       7   2   2  
899A  1D820000           [34] getglobal  8   2        ; floatingCrateTypes
899E  5D420200           [35] getglobal  9   9        ; 2144646525
89A2  99420100           [36] loadk      10  5        ; 0
89A6  DD820000           [37] getglobal  11  2        ; floatingCrateTypes
89AA  CA028005           [38] len        11  11     
89AE  62828001           [39] call       9   3   2  
89B2  0E420204           [40] gettable   8   8   9  
89B6  5D020300           [41] getglobal  9   12       ; table
89BA  4E42C304           [42] gettable   9   9   269  ; -843973282
89BE  92020000           [43] move       10  0      
89C2  D2028002           [44] move       11  5      
89C6  62428001           [45] call       9   3   1  
89CA  5DC20000           [46] getglobal  9   3        ; gRegion
89CE  6482C304           [47] self       9   9   270  ; -1110225722
89D2  D2020004           [48] move       11  8      
89D6  12030003           [49] move       12  6      
89DA  52038003           [50] move       13  7      
89DE  62428002           [51] call       9   5   1  
89E2  5480F87F           [52] forloop    1   -29      ; to [24] if loop
89E6  1E008000           [53] return     0   1      
                         * constants:
89EA  0F                 sizek (15)
89EB  01                 const type 3
89EC  65770E40           const [0]: (1074689893)
89F0  04                 const type 4
89F1  1A                 string size (26)
89F2  666C6F6174696E67+  "floating"
89FA  4372617465576179+  "CrateWay"
8A02  706F696E74547970+  "pointTyp"
8A0A  6500               "e\0"
                         const [1]: "floatingCrateWaypointType"
8A0C  04                 const type 4
8A0D  13                 string size (19)
8A0E  666C6F6174696E67+  "floating"
8A16  4372617465547970+  "CrateTyp"
8A1E  657300             "es\0"
                         const [2]: "floatingCrateTypes"
8A21  04                 const type 4
8A22  08                 string size (8)
8A23  67526567696F6E00   "gRegion\0"
                         const [3]: "gRegion"
8A2B  01                 const type 3
8A2C  009A1309           const [4]: (152279552)
8A30  03                 const type 3
8A31  0000803F           const [5]: (0)
8A35  04                 const type 4
8A36  05                 string size (5)
8A37  6D61746800         "math\0"
                         const [6]: "math"
8A3C  01                 const type 3
8A3D  2A71F965           const [7]: (1710846250)
8A41  04                 const type 4
8A42  12                 string size (18)
8A43  6E756D466C6F6174+  "numFloat"
8A4B  696E674372617465+  "ingCrate"
8A53  7300               "s\0"
                         const [8]: "numFloatingCrates"
8A55  01                 const type 3
8A56  7DB5D47F           const [9]: (2144646525)
8A5A  01                 const type 3
8A5B  0125A76D           const [10]: (1839670529)
8A5F  01                 const type 3
8A60  49783AF2           const [11]: (-231049143)
8A64  04                 const type 4
8A65  06                 string size (6)
8A66  7461626C6500       "table\0"
                         const [12]: "table"
8A6C  01                 const type 3
8A6D  5EFDB1CD           const [13]: (-843973282)
8A71  01                 const type 3
8A72  C64CD3BD           const [14]: (-1110225722)
                         * functions:
8A76  00                 sizep (0)
                         * lines:
8A77  35                 sizelineinfo (53)
                         [pc] (line)
8A78  8F                 [01] (-113)
8A79  05                 [02] (-113)
8A7A  00                 [03] (-113)
8A7B  00                 [04] (-113)
8A7C  8F                 [05] (-113)
8A7D  05                 [06] (-113)
8A7E  00                 [07] (-113)
8A7F  00                 [08] (-113)
8A80  8F                 [09] (-113)
8A81  05                 [10] (-113)
8A82  00                 [11] (-112)
8A83  00                 [12] (-110)
8A84  8F                 [13] (-110)
8A85  05                 [14] (-110)
8A86  00                 [15] (-110)
8A87  00                 [16] (-108)
8A88  8F                 [17] (-108)
8A89  05                 [18] (-108)
8A8A  00                 [19] (-108)
8A8B  00                 [20] (-108)
8A8C  8F                 [21] (-108)
8A8D  05                 [22] (-108)
8A8E  00                 [23] (-108)
8A8F  00                 [24] (-107)
8A90  8F                 [25] (-107)
8A91  05                 [26] (-107)
8A92  00                 [27] (-107)
8A93  00                 [28] (-106)
8A94  8F                 [29] (-106)
8A95  05                 [30] (-106)
8A96  00                 [31] (-105)
8A97  00                 [32] (-105)
8A98  8F                 [33] (-105)
8A99  05                 [34] (-104)
8A9A  00                 [35] (-104)
8A9B  00                 [36] (-104)
8A9C  8F                 [37] (-104)
8A9D  05                 [38] (-104)
8A9E  00                 [39] (-104)
8A9F  00                 [40] (-104)
8AA0  90                 [41] (-102)
8AA1  05                 [42] (-102)
8AA2  00                 [43] (-102)
8AA3  00                 [44] (-102)
8AA4  92                 [45] (-102)
8AA5  05                 [46] (-100)
8AA6  00                 [47] (-100)
8AA7  00                 [48] (-100)
8AA8  92                 [49] (-100)
8AA9  05                 [50] (-100)
8AAA  00                 [51] (-100)
8AAB  00                 [52] (-108)
8AAC  92                 [53] (-98)
                         * locals:
8B4C  00                 sizelocvars (0)
                         * upvalues:
8B4D  00                 sizeupvalues (0)
                         ** end of function **

                         
8B4E                     ** function [41] definition (level 2)
                         ** start of function **
8B4E  00                 string size (0)
                         source name: (none)
8B50  0B                 line defined (1440)
8B51  B4                 last line defined (1460)
8B52  0B                 nups (0)
8B53  00                 numparams (2)
8B54  02                 is_vararg (0)
8B55  00                 maxstacksize (10)
                         * code:
8B57  2E                 sizecode (46)
8B58  9D000000           [01] getglobal  2   0        ; gRegion
8B5C  A4404001           [02] self       2   2   257  ; -2071158816
8B60  A2800001           [03] call       2   2   2  
8B64  DD800000           [04] getglobal  3   2        ; _T
8B68  CEC0C001           [05] gettable   3   3   259  ; "difficulty"
8B6C  DC00C101           [06] div        3   3   260  ; 0
8B70  1D410100           [07] getglobal  4   5        ; -1828500651
8B74  59810100           [08] loadk      5   6        ; 0
8B78  8A010001           [09] len        6   2      
8B7C  D2018001           [10] move       7   3      
8B80  22810002           [11] call       4   4   2  
8B84  46018002           [12] loadnil    5   5      
8B88  9D010000           [13] getglobal  6   0        ; gRegion
8B8C  A4C14103           [14] self       6   6   263  ; -774964848
8B90  A2810001           [15] call       6   2   2  
8B94  E4014203           [16] self       7   6   264  ; 537471347
8B98  E2810001           [17] call       7   2   2  
8B9C  2442C203           [18] self       8   7   265  ; -287792134
8BA0  22820001           [19] call       8   2   2  
fail op	35
8BA4  23804204           [20] close      0  
8BA8  1AC00180           [21] jmp        8            ; to [30]
8BAC  1DC20200           [22] getglobal  8   11       ; math
8BB0  0E024304           [23] gettable   8   8   268  ; -150971781
8BB4  5D820000           [24] getglobal  9   2        ; _T
8BB8  4E42C304           [25] gettable   9   9   269  ; "MaxAI"
8BBC  44028104           [26] mul        9   9   4  
8BC0  22820001           [27] call       8   2   2  
8BC4  52010004           [28] move       5   8      
8BC8  1AC00180           [29] jmp        8            ; to [38]
8BCC  1DC20200           [30] getglobal  8   11       ; math
8BD0  0E024304           [31] gettable   8   8   268  ; -150971781
8BD4  5D820000           [32] getglobal  9   2        ; _T
8BD8  4E42C304           [33] gettable   9   9   269  ; "MaxAI"
8BDC  44028104           [34] mul        9   9   4  
8BE0  4482C304           [35] mul        9   9   270  ; 0
8BE4  22820001           [36] call       8   2   2  
8BE8  52010004           [37] move       5   8      
fail op	35
8BEC  23C04300           [38] close      0  
8BF0  1A000180           [39] jmp        5            ; to [45]
8BF4  1DC20200           [40] getglobal  8   11       ; math
8BF8  0E024304           [41] gettable   8   8   268  ; -150971781
8BFC  4402C402           [42] mul        9   5   272  ; 0
8C00  22820001           [43] call       8   2   2  
8C04  52010004           [44] move       5   8      
8C08  5E010001           [45] return     5   2      
8C0C  1E008000           [46] return     0   1      
                         * constants:
8C10  11                 sizek (17)
8C11  04                 const type 4
8C12  08                 string size (8)
8C13  67526567696F6E00   "gRegion\0"
                         const [0]: "gRegion"
8C1B  01                 const type 3
8C1C  E09F8C84           const [1]: (-2071158816)
8C20  04                 const type 4
8C21  03                 string size (3)
8C22  5F5400             "_T\0"
                         const [2]: "_T"
8C25  04                 const type 4
8C26  0B                 string size (11)
8C27  646966666963756C+  "difficul"
8C2F  747900             "ty\0"
                         const [3]: "difficulty"
8C32  03                 const type 3
8C33  0000A040           const [4]: (0)
8C37  01                 const type 3
8C38  554B0393           const [5]: (-1828500651)
8C3C  03                 const type 3
8C3D  0000803F           const [6]: (0)
8C41  01                 const type 3
8C42  90F9CED1           const [7]: (-774964848)
8C46  01                 const type 3
8C47  73290920           const [8]: (537471347)
8C4B  01                 const type 3
8C4C  FAA3D8EE           const [9]: (-287792134)
8C50  01                 const type 3
8C51  00000000           const [10]: (0)
8C55  04                 const type 4
8C56  05                 string size (5)
8C57  6D61746800         "math\0"
                         const [11]: "math"
8C5C  01                 const type 3
8C5D  7B5A00F7           const [12]: (-150971781)
8C61  04                 const type 4
8C62  06                 string size (6)
8C63  4D6178414900       "MaxAI\0"
                         const [13]: "MaxAI"
8C69  03                 const type 3
8C6A  0000C03F           const [14]: (0)
8C6E  03                 const type 3
8C6F  00004040           const [15]: (0)
8C73  03                 const type 3
8C74  0000A03F           const [16]: (0)
                         * functions:
8C78  00                 sizep (0)
                         * lines:
8C79  2E                 sizelineinfo (46)
                         [pc] (line)
8C7A  A1                 [01] (-95)
8C7B  05                 [02] (-95)
8C7C  00                 [03] (-95)
8C7D  00                 [04] (-94)
8C7E  A1                 [05] (-94)
8C7F  05                 [06] (-94)
8C80  00                 [07] (-93)
8C81  00                 [08] (-93)
8C82  A1                 [09] (-93)
8C83  05                 [10] (-93)
8C84  00                 [11] (-93)
8C85  00                 [12] (-92)
8C86  A2                 [13] (-91)
8C87  05                 [14] (-91)
8C88  00                 [15] (-91)
8C89  00                 [16] (-90)
8C8A  A2                 [17] (-90)
8C8B  05                 [18] (-88)
8C8C  00                 [19] (-88)
8C8D  00                 [20] (-88)
8C8E  A2                 [21] (-88)
8C8F  05                 [22] (-87)
8C90  00                 [23] (-87)
8C91  00                 [24] (-87)
8C92  A3                 [25] (-87)
8C93  05                 [26] (-87)
8C94  00                 [27] (-87)
8C95  00                 [28] (-87)
8C96  A3                 [29] (-87)
8C97  05                 [30] (-85)
8C98  00                 [31] (-85)
8C99  00                 [32] (-85)
8C9A  A3                 [33] (-85)
8C9B  05                 [34] (-85)
8C9C  00                 [35] (-85)
8C9D  00                 [36] (-85)
8C9E  A3                 [37] (-85)
8C9F  05                 [38] (-82)
8CA0  00                 [39] (-82)
8CA1  00                 [40] (-80)
8CA2  A3                 [41] (-80)
8CA3  05                 [42] (-80)
8CA4  00                 [43] (-80)
8CA5  00                 [44] (-80)
8CA6  A4                 [45] (-78)
8CA7  05                 [46] (-76)
                         * locals:
8D32  00                 sizelocvars (0)
                         * upvalues:
8D33  00                 sizeupvalues (0)
                         ** end of function **

                         
8D34                     ** function [42] definition (level 2)
                         ** start of function **
8D34  00                 string size (0)
                         source name: (none)
8D36  0B                 line defined (1462)
8D37  BF                 last line defined (1471)
8D38  0B                 nups (0)
8D39  00                 numparams (0)
8D3A  00                 is_vararg (0)
8D3B  00                 maxstacksize (4)
                         * code:
8D3D  15                 sizecode (21)
8D3E  19000000           [01] loadk      0   0        ; 0
8D42  1E000001           [02] return     0   2      
8D46  1D400000           [03] getglobal  0   1        ; gRegion
8D4A  24804000           [04] self       0   0   258  ; 152279552
8D4E  9DC00000           [05] getglobal  2   3        ; 738251817
8D52  D9000100           [06] loadk      3   4        ; "/Lotus/Types/Game/DirTriggers/DirTriggerXpPool"
8D56  A2000001           [07] call       2   2   0  
8D5A  22800000           [08] call       0   0   2  
8D5E  4A000000           [09] len        1   0      
fail op	21
8D62  15400080           [10] concat     0   256 1  
8D66  1A400180           [11] jmp        6            ; to [18]
8D6A  5D400100           [12] getglobal  1   5        ; _T
8D6E  9DC00100           [13] getglobal  2   7        ; MaxXp
8D72  CA000000           [14] len        3   0      
8D76  C300C201           [15] add        3   3   264  ; 0
8D7A  9CC00001           [16] div        2   2   3  
8D7E  4C800083           [17] settable   1   262 2    ; "AvgXp"
8D82  5D400100           [18] getglobal  1   5        ; _T
8D86  4E80C100           [19] gettable   1   1   262  ; "AvgXp"
8D8A  5E000001           [20] return     1   2      
8D8E  1E008000           [21] return     0   1      
                         * constants:
8D92  09                 sizek (9)
8D93  03                 const type 3
8D94  00000000           const [0]: (0)
8D98  04                 const type 4
8D99  08                 string size (8)
8D9A  67526567696F6E00   "gRegion\0"
                         const [1]: "gRegion"
8DA2  01                 const type 3
8DA3  009A1309           const [2]: (152279552)
8DA7  01                 const type 3
8DA8  29D4002C           const [3]: (738251817)
8DAC  04                 const type 4
8DAD  2F                 string size (47)
8DAE  2F4C6F7475732F54+  "/Lotus/T"
8DB6  797065732F47616D+  "ypes/Gam"
8DBE  652F446972547269+  "e/DirTri"
8DC6  67676572732F4469+  "ggers/Di"
8DCE  7254726967676572+  "rTrigger"
8DD6  5870506F6F6C00     "XpPool\0"
                         const [4]: "/Lotus/Types/Game/DirTriggers/DirTriggerXpPool"
8DDD  04                 const type 4
8DDE  03                 string size (3)
8DDF  5F5400             "_T\0"
                         const [5]: "_T"
8DE2  04                 const type 4
8DE3  06                 string size (6)
8DE4  417667587000       "AvgXp\0"
                         const [6]: "AvgXp"
8DEA  04                 const type 4
8DEB  06                 string size (6)
8DEC  4D6178587000       "MaxXp\0"
                         const [7]: "MaxXp"
8DF2  03                 const type 3
8DF3  0000803F           const [8]: (0)
                         * functions:
8DF7  00                 sizep (0)
                         * lines:
8DF8  15                 sizelineinfo (21)
                         [pc] (line)
8DF9  B8                 [01] (-72)
8DFA  05                 [02] (-72)
8DFB  00                 [03] (-70)
8DFC  00                 [04] (-70)
8DFD  B8                 [05] (-70)
8DFE  05                 [06] (-70)
8DFF  00                 [07] (-70)
8E00  00                 [08] (-70)
8E01  BA                 [09] (-69)
8E02  05                 [10] (-69)
8E03  00                 [11] (-69)
8E04  00                 [12] (-68)
8E05  BA                 [13] (-68)
8E06  05                 [14] (-68)
8E07  00                 [15] (-68)
8E08  00                 [16] (-68)
8E09  BA                 [17] (-68)
8E0A  05                 [18] (-66)
8E0B  00                 [19] (-66)
8E0C  00                 [20] (-66)
8E0D  BA                 [21] (-65)
                         * locals:
8E4D  00                 sizelocvars (0)
                         * upvalues:
8E4E  00                 sizeupvalues (0)
                         ** end of function **

                         
8E4F                     ** function [43] definition (level 2)
                         ** start of function **
8E4F  00                 string size (0)
                         source name: (none)
8E51  0B                 line defined (1473)
8E52  CA                 last line defined (1482)
8E53  0B                 nups (0)
8E54  00                 numparams (0)
8E55  00                 is_vararg (0)
8E56  00                 maxstacksize (10)
                         * code:
8E58  1C                 sizecode (28)
8E59  1D000000           [01] getglobal  0   0        ; gRegion
8E5D  24404000           [02] self       0   0   257  ; 152279552
8E61  9D800000           [03] getglobal  2   2        ; gLightType
8E65  22808001           [04] call       0   3   2  
8E69  4A000000           [05] len        1   0      
fail op	21
8E6D  15408081           [06] concat     0   259 1  
8E71  1AC00480           [07] jmp        20           ; to [28]
8E75  5D000100           [08] getglobal  1   4        ; 1672515847
8E79  92000000           [09] move       2   0      
8E7D  62000101           [10] call       1   2   4  
8E81  1A400380           [11] jmp        14           ; to [26]
8E85  A441C102           [12] self       6   5   261  ; 1911774177
8E89  A2810001           [13] call       6   2   2  
8E8D  98010000           [14] test       6       0    ; to [16] if true
8E91  1A400280           [15] jmp        10           ; to [26]
8E95  A481C102           [16] self       6   5   262  ; -830264577
8E99  A2810001           [17] call       6   2   2  
8E9D  DDC10100           [18] getglobal  7   7        ; EMPTY_SYMBOL
fail op	35
8EA1  23C00103           [19] close      0  
8EA5  1A000180           [20] jmp        5            ; to [26]
8EA9  A401C202           [21] self       6   5   264  ; -971287385
8EAD  1D420200           [22] getglobal  8   9        ; -332969190
8EB1  59820200           [23] loadk      9   10       ; "Light"
8EB5  22020001           [24] call       8   2   0  
8EB9  A2410000           [25] call       6   0   1  
8EBD  56800000           [26] tforloop   1       2    ; to [28] if exit
8EC1  1AC0FB7F           [27] jmp        -16          ; to [12]
8EC5  1E008000           [28] return     0   1      
                         * constants:
8EC9  0B                 sizek (11)
8ECA  04                 const type 4
8ECB  08                 string size (8)
8ECC  67526567696F6E00   "gRegion\0"
                         const [0]: "gRegion"
8ED4  01                 const type 3
8ED5  009A1309           const [1]: (152279552)
8ED9  04                 const type 4
8EDA  0B                 string size (11)
8EDB  674C696768745479+  "gLightTy"
8EE3  706500             "pe\0"
                         const [2]: "gLightType"
8EE6  03                 const type 3
8EE7  00000000           const [3]: (0)
8EEB  01                 const type 3
8EEC  0791B063           const [4]: (1672515847)
8EF0  01                 const type 3
8EF1  E15BF371           const [5]: (1911774177)
8EF5  01                 const type 3
8EF6  FF2A83CE           const [6]: (-830264577)
8EFA  04                 const type 4
8EFB  0D                 string size (13)
8EFC  454D5054595F5359+  "EMPTY_SY"
8F04  4D424F4C00         "MBOL\0"
                         const [7]: "EMPTY_SYMBOL"
8F09  01                 const type 3
8F0A  A7541BC6           const [8]: (-971287385)
8F0E  01                 const type 3
8F0F  1A4B27EC           const [9]: (-332969190)
8F13  04                 const type 4
8F14  06                 string size (6)
8F15  4C6967687400       "Light\0"
                         const [10]: "Light"
                         * functions:
8F1B  00                 sizep (0)
                         * lines:
8F1C  1C                 sizelineinfo (28)
                         [pc] (line)
8F1D  C2                 [01] (-62)
8F1E  05                 [02] (-62)
8F1F  00                 [03] (-62)
8F20  00                 [04] (-62)
8F21  C2                 [05] (-61)
8F22  05                 [06] (-61)
8F23  00                 [07] (-61)
8F24  00                 [08] (-60)
8F25  C2                 [09] (-60)
8F26  05                 [10] (-60)
8F27  00                 [11] (-60)
8F28  00                 [12] (-59)
8F29  C2                 [13] (-59)
8F2A  05                 [14] (-59)
8F2B  00                 [15] (-59)
8F2C  00                 [16] (-59)
8F2D  C3                 [17] (-59)
8F2E  05                 [18] (-59)
8F2F  00                 [19] (-59)
8F30  00                 [20] (-59)
8F31  C3                 [21] (-58)
8F32  05                 [22] (-58)
8F33  00                 [23] (-58)
8F34  00                 [24] (-58)
8F35  C3                 [25] (-58)
8F36  05                 [26] (-60)
8F37  00                 [27] (-57)
8F38  00                 [28] (-54)
                         * locals:
8F8D  00                 sizelocvars (0)
                         * upvalues:
8F8E  00                 sizeupvalues (0)
                         ** end of function **

                         
8F8F                     ** function [44] definition (level 2)
                         ** start of function **
8F8F  00                 string size (0)
                         source name: (none)
8F91  0B                 line defined (1484)
8F92  D3                 last line defined (1491)
8F93  0B                 nups (0)
8F94  00                 numparams (0)
8F95  00                 is_vararg (0)
8F96  00                 maxstacksize (2)
                         * code:
8F98  1D                 sizecode (29)
8F99  1D000000           [01] getglobal  0   0        ; gGameRules
8F9D  24404000           [02] self       0   0   257  ; -502414055
8FA1  22800001           [03] call       0   2   2  
8FA5  5D800000           [04] getglobal  1   2        ; Lotus_Game
8FA9  4EC0C000           [05] gettable   1   1   259  ; "MT_SURVIVAL"
fail op	35
8FAD  63400000           [06] close      1  
8FB1  1AC00380           [07] jmp        16           ; to [24]
8FB5  5D800000           [08] getglobal  1   2        ; Lotus_Game
8FB9  4E00C100           [09] gettable   1   1   260  ; "MT_DEFENSE"
fail op	35
8FBD  63400000           [10] close      1  
8FC1  1AC00280           [11] jmp        12           ; to [24]
8FC5  5D800000           [12] getglobal  1   2        ; Lotus_Game
8FC9  4E40C100           [13] gettable   1   1   261  ; "MT_EXCAVATE"
fail op	35
8FCD  63400000           [14] close      1  
8FD1  1AC00180           [15] jmp        8            ; to [24]
8FD5  5D800000           [16] getglobal  1   2        ; Lotus_Game
8FD9  4E80C100           [17] gettable   1   1   262  ; "MT_TERRITORY"
fail op	35
8FDD  63400000           [18] close      1  
8FE1  1AC00080           [19] jmp        4            ; to [24]
8FE5  5D800000           [20] getglobal  1   2        ; Lotus_Game
8FE9  4EC0C100           [21] gettable   1   1   263  ; "MT_ARTIFACT"
fail op	35
8FED  23400000           [22] close      0  
8FF1  1A800080           [23] jmp        3            ; to [27]
8FF5  57008000           [24] loadbool   1   1   0    ; true
8FF9  5E000001           [25] return     1   2      
8FFD  1A400080           [26] jmp        2            ; to [29]
9001  57000000           [27] loadbool   1   0   0    ; false
9005  5E000001           [28] return     1   2      
9009  1E008000           [29] return     0   1      
                         * constants:
900D  08                 sizek (8)
900E  04                 const type 4
900F  0B                 string size (11)
9010  6747616D6552756C+  "gGameRul"
9018  657300             "es\0"
                         const [0]: "gGameRules"
901B  01                 const type 3
901C  19C50DE2           const [1]: (-502414055)
9020  04                 const type 4
9021  0B                 string size (11)
9022  4C6F7475735F4761+  "Lotus_Ga"
902A  6D6500             "me\0"
                         const [2]: "Lotus_Game"
902D  04                 const type 4
902E  0C                 string size (12)
902F  4D545F5355525649+  "MT_SURVI"
9037  56414C00           "VAL\0"
                         const [3]: "MT_SURVIVAL"
903B  04                 const type 4
903C  0B                 string size (11)
903D  4D545F444546454E+  "MT_DEFEN"
9045  534500             "SE\0"
                         const [4]: "MT_DEFENSE"
9048  04                 const type 4
9049  0C                 string size (12)
904A  4D545F4558434156+  "MT_EXCAV"
9052  41544500           "ATE\0"
                         const [5]: "MT_EXCAVATE"
9056  04                 const type 4
9057  0D                 string size (13)
9058  4D545F5445525249+  "MT_TERRI"
9060  544F525900         "TORY\0"
                         const [6]: "MT_TERRITORY"
9065  04                 const type 4
9066  0C                 string size (12)
9067  4D545F4152544946+  "MT_ARTIF"
906F  41435400           "ACT\0"
                         const [7]: "MT_ARTIFACT"
                         * functions:
9073  00                 sizep (0)
                         * lines:
9074  1D                 sizelineinfo (29)
                         [pc] (line)
9075  CD                 [01] (-51)
9076  05                 [02] (-51)
9077  00                 [03] (-51)
9078  00                 [04] (-50)
9079  CD                 [05] (-50)
907A  05                 [06] (-50)
907B  00                 [07] (-50)
907C  00                 [08] (-50)
907D  CD                 [09] (-50)
907E  05                 [10] (-50)
907F  00                 [11] (-50)
9080  00                 [12] (-50)
9081  CE                 [13] (-50)
9082  05                 [14] (-50)
9083  00                 [15] (-50)
9084  00                 [16] (-50)
9085  CE                 [17] (-50)
9086  05                 [18] (-50)
9087  00                 [19] (-50)
9088  00                 [20] (-50)
9089  CE                 [21] (-50)
908A  05                 [22] (-50)
908B  00                 [23] (-50)
908C  00                 [24] (-49)
908D  CE                 [25] (-49)
908E  05                 [26] (-49)
908F  00                 [27] (-47)
9090  00                 [28] (-47)
9091  CE                 [29] (-45)
                         * locals:
90E9  00                 sizelocvars (0)
                         * upvalues:
90EA  00                 sizeupvalues (0)
                         ** end of function **

                         
90EB                     ** function [45] definition (level 2)
                         ** start of function **
90EB  00                 string size (0)
                         source name: (none)
90ED  0B                 line defined (1493)
90EE  D8                 last line defined (1496)
90EF  0B                 nups (0)
90F0  00                 numparams (0)
90F1  00                 is_vararg (0)
90F2  00                 maxstacksize (2)
                         * code:
90F4  0F                 sizecode (15)
90F5  1D000000           [01] getglobal  0   0        ; gGameRules
90F9  24404000           [02] self       0   0   257  ; -502414055
90FD  22800001           [03] call       0   2   2  
9101  5D800000           [04] getglobal  1   2        ; Lotus_Game
9105  4EC0C000           [05] gettable   1   1   259  ; "MT_EXTERMINATION"
fail op	35
9109  63400000           [06] close      1  
910D  1A000180           [07] jmp        5            ; to [13]
9111  5D800000           [08] getglobal  1   2        ; Lotus_Game
9115  4E00C100           [09] gettable   1   1   260  ; "MT_ENDLESS_EXTERMINATION"
fail op	35
9119  63400000           [10] close      1  
911D  1A000080           [11] jmp        1            ; to [13]
9121  57400000           [12] loadbool   1   0   1    ; false, to [14]
9125  57008000           [13] loadbool   1   1   0    ; true
9129  5E000001           [14] return     1   2      
912D  1E008000           [15] return     0   1      
                         * constants:
9131  05                 sizek (5)
9132  04                 const type 4
9133  0B                 string size (11)
9134  6747616D6552756C+  "gGameRul"
913C  657300             "es\0"
                         const [0]: "gGameRules"
913F  01                 const type 3
9140  19C50DE2           const [1]: (-502414055)
9144  04                 const type 4
9145  0B                 string size (11)
9146  4C6F7475735F4761+  "Lotus_Ga"
914E  6D6500             "me\0"
                         const [2]: "Lotus_Game"
9151  04                 const type 4
9152  11                 string size (17)
9153  4D545F4558544552+  "MT_EXTER"
915B  4D494E4154494F4E+  "MINATION"
9163  00                 "\0"
                         const [3]: "MT_EXTERMINATION"
9164  04                 const type 4
9165  19                 string size (25)
9166  4D545F454E444C45+  "MT_ENDLE"
916E  53535F4558544552+  "SS_EXTER"
9176  4D494E4154494F4E+  "MINATION"
917E  00                 "\0"
                         const [4]: "MT_ENDLESS_EXTERMINATION"
                         * functions:
917F  00                 sizep (0)
                         * lines:
9180  0F                 sizelineinfo (15)
                         [pc] (line)
9181  D6                 [01] (-42)
9182  05                 [02] (-42)
9183  00                 [03] (-42)
9184  00                 [04] (-41)
9185  D6                 [05] (-41)
9186  05                 [06] (-41)
9187  00                 [07] (-41)
9188  00                 [08] (-41)
9189  D6                 [09] (-41)
918A  05                 [10] (-41)
918B  00                 [11] (-41)
918C  00                 [12] (-41)
918D  D7                 [13] (-41)
918E  05                 [14] (-41)
918F  00                 [15] (-40)
                         * locals:
91BD  00                 sizelocvars (0)
                         * upvalues:
91BE  00                 sizeupvalues (0)
                         ** end of function **

                         
91BF                     ** function [46] definition (level 2)
                         ** start of function **
91BF  00                 string size (0)
                         source name: (none)
91C1  0B                 line defined (1498)
91C2  DB                 last line defined (1627)
91C3  0C                 nups (2)
91C4  02                 numparams (0)
91C5  00                 is_vararg (0)
91C6  00                 maxstacksize (61)
                         * code:
91C9  02                 sizecode (290)
91CA  1D000000           [001] getglobal  0   0        ; gRegion
91CE  24404000           [002] self       0   0   257  ; -774964848
91D2  22800001           [003] call       0   2   2  
91D6  64804000           [004] self       1   0   258  ; 537471347
91DA  62800001           [005] call       1   2   2  
91DE  9D000000           [006] getglobal  2   0        ; gRegion
91E2  A4C04001           [007] self       2   2   259  ; -1485896174
91E6  1D010100           [008] getglobal  4   4        ; -332969190
91EA  59410100           [009] loadk      5   5        ; "FactionConflictScriptTrigger"
91EE  22010001           [010] call       4   2   0  
91F2  A2800000           [011] call       2   0   2  
91F6  CA000001           [012] len        3   2      
fail op	21
91FA  15C00083           [013] concat     0   262 3  
91FE  1AC00080           [014] jmp        4            ; to [19]
9202  CEC04101           [015] gettable   3   2   263  ; 0
9206  E400C201           [016] self       3   3   264  ; -1923578185
920A  59410200           [017] loadk      5   9        ; "Execute"
920E  E2408001           [018] call       3   3   1  
9212  DD800200           [019] getglobal  3   10       ; gGameRules
9216  1DC10200           [020] getglobal  4   11       ; _T
921A  0C414386           [021] settable   4   268 269  ; "missionAIReady" 1
921E  1D810300           [022] getglobal  4   14       ; 1074689893
9222  52018001           [023] move       5   3      
9226  22810001           [024] call       4   2   2  
922A  18410000           [025] test       4       1    ; to [27] if false
922E  1A004180           [026] jmp        261          ; to [288]
9232  24C1C300           [027] self       4   1   271  ; 880447897
9236  22410001           [028] call       4   2   1  
923A  2401C401           [029] self       4   3   272  ; 262978310
923E  22810001           [030] call       4   2   2  
9242  59C10100           [031] loadk      5   7        ; 0
9246  8A010002           [032] len        6   4      
924A  D9C10100           [033] loadk      7   7        ; 0
924E  50010380           [034] forprep    5   13       ; to [48]
9252  4E020202           [035] gettable   9   4   8  
9256  8E42C404           [036] gettable   10  9   273  ; "probability"
925A  CE82C404           [037] gettable   11  9   274  ; "faction"
925E  0EC3C404           [038] gettable   12  9   275  ; "tag"
9262  5D030500           [039] getglobal  13  20       ; -895206725
9266  8E43C504           [040] gettable   14  9   277  ; "resource"
926A  62830001           [041] call       13  2   2  
926E  A483C500           [042] self       14  1   278  ; -225292915
9272  12048006           [043] move       16  13     
9276  52040005           [044] move       17  10     
927A  92048005           [045] move       18  11     
927E  D2040006           [046] move       19  12     
9282  A2430003           [047] call       14  6   1  
9286  5441FC7F           [048] forloop    5   -14      ; to [35] if loop
928A  A4C3C501           [049] self       14  3   279  ; -1201441975
928E  A2830001           [050] call       14  2   2  
9292  DD830300           [051] getglobal  15  14       ; 1074689893
9296  12040007           [052] move       16  14     
929A  E2830001           [053] call       15  2   2  
929E  D8430000           [054] test       15      1    ; to [56] if false
92A2  1AC00280           [055] jmp        12           ; to [68]
92A6  E4034607           [056] self       15  14  280  ; 811644763
92AA  E2830001           [057] call       15  2   2  
92AE  19C40100           [058] loadk      16  7        ; 0
92B2  4A048007           [059] len        17  15     
92B6  99C40100           [060] loadk      18  7        ; 0
92BA  10040180           [061] forprep    16  5        ; to [67]
92BE  0EC58407           [062] gettable   20  15  19 
92C2  6445C600           [063] self       21  1   281  ; 403474327
92C6  CE85460A           [064] gettable   23  20  282  ; "factionA"
92CA  0EC6460A           [065] gettable   24  20  283  ; "factionB"
92CE  62450002           [066] call       21  4   1  
92D2  1444FE7F           [067] forloop    16  -6       ; to [62] if loop
92D6  6405C700           [068] self       21  1   284  ; 543261344
92DA  62450001           [069] call       21  2   1  
92DE  6445C700           [070] self       21  1   285  ; -659481903
92E2  62450001           [071] call       21  2   1  
92E6  6485C701           [072] self       21  3   286  ; 259980271
92EA  62850001           [073] call       21  2   2  
92EE  99C50100           [074] loadk      22  7        ; 0
92F2  CA05800A           [075] len        23  21     
92F6  19C60100           [076] loadk      24  7        ; 0
92FA  90050180           [077] forprep    22  5        ; to [83]
92FE  A4C6C700           [078] self       26  1   287  ; 1544799516
9302  1D070500           [079] getglobal  28  20       ; -895206725
9306  4E47860A           [080] gettable   29  21  25 
930A  22070001           [081] call       28  2   0  
930E  A2460000           [082] call       26  0   1  
9312  9445FE7F           [083] forloop    22  -6       ; to [78] if loop
9316  A406C801           [084] self       26  3   288  ; -1142256695
931A  A2860001           [085] call       26  2   2  
931E  D9C60100           [086] loadk      27  7        ; 0
9322  0A07000D           [087] len        28  26     
9326  59C70100           [088] loadk      29  7        ; 0
932A  D0060180           [089] forprep    27  5        ; to [95]
932E  E447C800           [090] self       31  1   289  ; 2053944430
9332  5D080500           [091] getglobal  33  20       ; -895206725
9336  8E88070D           [092] gettable   34  26  30 
933A  62080001           [093] call       33  2   0  
933E  E2470000           [094] call       31  0   1  
9342  D446FE7F           [095] forloop    27  -6       ; to [90] if loop
9346  D3070000           [096] getupval   31  0      
934A  E2878000           [097] call       31  1   2  
934E  D8070000           [098] test       31      0    ; to [100] if true
9352  1AC00080           [099] jmp        4            ; to [104]
9356  E487C800           [100] self       31  1   290  ; 1518891267
935A  57088000           [101] loadbool   33  1   0    ; true
935E  E2478001           [102] call       31  3   1  
9362  1A800080           [103] jmp        3            ; to [107]
9366  E487C800           [104] self       31  1   290  ; 1518891267
936A  57080000           [105] loadbool   33  0   0    ; false
936E  E2478001           [106] call       31  3   1  
9372  E4C7C501           [107] self       31  3   279  ; -1201441975
9376  E2870001           [108] call       31  2   2  
937A  24C8C800           [109] self       32  1   291  ; 1438822989
937E  8E08C90F           [110] gettable   34  31  292  ; "minEnemyLevel"
9382  CE48C90F           [111] gettable   35  31  293  ; "maxEnemyLevel"
9386  22480002           [112] call       32  4   1  
938A  17088000           [113] loadbool   32  1   0    ; true
fail op	8
938E  08088000           [114] setupval   32  1      
9392  2488C901           [115] self       32  3   294  ; 1967599877
9396  22880001           [116] call       32  2   2  
939A  5D880300           [117] getglobal  33  14       ; 1074689893
939E  92080010           [118] move       34  32     
93A2  62880001           [119] call       33  2   2  
93A6  58080000           [120] test       33      0    ; to [122] if true
93AA  1A000280           [121] jmp        9            ; to [131]
93AE  5D880300           [122] getglobal  33  14       ; 1074689893
93B2  9DC80900           [123] getglobal  34  39       ; testAiSpec
93B6  62880001           [124] call       33  2   2  
93BA  58480000           [125] test       33      1    ; to [127] if false
93BE  1AC00080           [126] jmp        4            ; to [131]
93C2  5DC80900           [127] getglobal  33  39       ; testAiSpec
93C6  6408CA10           [128] self       33  33  296  ; 1891965785
93CA  62880001           [129] call       33  2   2  
93CE  12088010           [130] move       32  33     
93D2  5D880300           [131] getglobal  33  14       ; 1074689893
93D6  92080010           [132] move       34  32     
93DA  62880001           [133] call       33  2   2  
93DE  58480000           [134] test       33      1    ; to [136] if false
93E2  1AC02580           [135] jmp        152          ; to [288]
93E6  4A080010           [136] len        33  32     
fail op	21
93EA  15400883           [137] concat     0   262 33 
93EE  1A002580           [138] jmp        149          ; to [288]
93F2  4E48CA0F           [139] gettable   33  31  297  ; "leadersAlwaysAllowed"
93F6  58080000           [140] test       33      0    ; to [142] if true
93FA  1AC00780           [141] jmp        32           ; to [174]
93FE  6488CA00           [142] self       33  1   298  ; -2093258356
9402  D9880100           [143] loadk      35  6        ; 0
9406  62488001           [144] call       33  3   1  
940A  64C8CA00           [145] self       33  1   299  ; 798953333
940E  D9080B00           [146] loadk      35  44       ; 0
9412  62488001           [147] call       33  3   1  
9416  6448CB00           [148] self       33  1   301  ; 906553148
941A  D7088000           [149] loadbool   35  1   0    ; true
941E  62488001           [150] call       33  3   1  
9422  4E48CA0F           [151] gettable   33  31  297  ; "leadersAlwaysAllowed"
9426  58080000           [152] test       33      0    ; to [154] if true
942A  1A000380           [153] jmp        13           ; to [167]
942E  4E88CB0F           [154] gettable   33  31  302  ; "sortieId"
fail op	35
9432  23C0CB10           [155] close      0  
9436  1A400180           [156] jmp        6            ; to [163]
943A  4E08CC0F           [157] gettable   33  31  304  ; "alertId"
fail op	35
943E  23C0CB10           [158] close      0  
9442  1A800080           [159] jmp        3            ; to [163]
9446  4E48CC0F           [160] gettable   33  31  305  ; "goalId"
fail op	35
944A  63C0CB10           [161] close      1  
944E  1AC00080           [162] jmp        4            ; to [167]
9452  6488CC00           [163] self       33  1   306  ; -1859611084
9456  D9C80C00           [164] loadk      35  51       ; 0
945A  62488001           [165] call       33  3   1  
945E  1A800080           [166] jmp        3            ; to [170]
9462  6488CC00           [167] self       33  1   306  ; -1859611084
9466  D9080D00           [168] loadk      35  52       ; 0
946A  62488001           [169] call       33  3   1  
946E  6448CD00           [170] self       33  1   309  ; -1297352252
9472  D9880100           [171] loadk      35  6        ; 0
9476  62488001           [172] call       33  3   1  
947A  1AC00280           [173] jmp        12           ; to [186]
947E  4E88CD0F           [174] gettable   33  31  310  ; "archwingRequired"
9482  58080000           [175] test       33      0    ; to [177] if true
9486  1A000280           [176] jmp        9            ; to [186]
948A  4EC8CD0F           [177] gettable   33  31  311  ; "isSharkwingMission"
948E  58480000           [178] test       33      1    ; to [180] if false
9492  1A400180           [179] jmp        6            ; to [186]
9496  6448CD00           [180] self       33  1   309  ; -1297352252
949A  D9080E00           [181] loadk      35  56       ; 0
949E  62488001           [182] call       33  3   1  
94A2  64C8CA00           [183] self       33  1   299  ; 798953333
94A6  D9080B00           [184] loadk      35  44       ; 0
94AA  62488001           [185] call       33  3   1  
94AE  59C80100           [186] loadk      33  7        ; 0
94B2  8A080010           [187] len        34  32     
94B6  D9C80100           [188] loadk      35  7        ; 0
94BA  50080680           [189] forprep    33  25       ; to [215]
94BE  4E090910           [190] gettable   37  32  36 
94C2  8E49C412           [191] gettable   38  37  273  ; "probability"
94C6  CE49CE12           [192] gettable   39  37  313  ; "agent"
94CA  0E8ACE12           [193] gettable   40  37  314  ; "maxSimultaneous"
94CE  4ECACE12           [194] gettable   41  37  315  ; "tier"
94D2  9D0A0500           [195] getglobal  42  20       ; -895206725
94D6  D20A8013           [196] move       43  39     
94DA  A28A0001           [197] call       42  2   2  
94DE  CE0ACF12           [198] gettable   43  37  316  ; "mergeSymbol"
94E2  1D8B0300           [199] getglobal  44  14       ; 1074689893
94E6  520B0015           [200] move       45  42     
94EA  228B0001           [201] call       44  2   2  
94EE  184B0000           [202] test       44      1    ; to [204] if false
94F2  1AC00180           [203] jmp        8            ; to [212]
94F6  244BCF00           [204] self       44  1   317  ; 1493291254
94FA  920B0015           [205] move       46  42     
94FE  D20B0013           [206] move       47  38     
9502  120C0014           [207] move       48  40     
9506  520C8014           [208] move       49  41     
950A  920C8015           [209] move       50  43     
950E  224B8003           [210] call       44  7   1  
9512  1A800080           [211] jmp        3            ; to [215]
9516  1D8B0F00           [212] getglobal  44  62       ; -1817107093
951A  59CB0F00           [213] loadk      45  63       ; "NULL agent type!"
951E  224B0001           [214] call       44  2   1  
9522  5448F97F           [215] forloop    33  -26      ; to [190] if loop
9526  240BD000           [216] self       44  1   320  ; 886752189
952A  9D4B1000           [217] getglobal  46  65       ; 738251817
952E  D98B1000           [218] loadk      47  66       ; "/Lotus/Types/Enemies/Corpus/BipedRobot/BipedRobotAgent"
9532  A28B0001           [219] call       46  2   2  
9536  DD0B0100           [220] getglobal  47  4        ; -332969190
953A  19CC1000           [221] loadk      48  67       ; "BipedSpecialSpawn"
953E  E28B0001           [222] call       47  2   2  
9542  170C0000           [223] loadbool   48  0   0    ; false
9546  224B8002           [224] call       44  5   1  
954A  240BD000           [225] self       44  1   320  ; 886752189
954E  9D4B1000           [226] getglobal  46  65       ; 738251817
9552  D90B1100           [227] loadk      47  68       ; "/Lotus/Types/NeutralCreatures/SandRayCreature"
9556  A28B0001           [228] call       46  2   2  
955A  DD0B0100           [229] getglobal  47  4        ; -332969190
955E  194C1100           [230] loadk      48  69       ; "SandSpawn"
9562  E28B0001           [231] call       47  2   2  
9566  170C0000           [232] loadbool   48  0   0    ; false
956A  224B8002           [233] call       44  5   1  
956E  240BD000           [234] self       44  1   320  ; 886752189
9572  9D4B1000           [235] getglobal  46  65       ; 738251817
9576  D98B1100           [236] loadk      47  70       ; "/Lotus/Types/NeutralCreatures/Kubrow/KubrowAgent"
957A  A28B0001           [237] call       46  2   2  
957E  DD0B0100           [238] getglobal  47  4        ; -332969190
9582  19CC1100           [239] loadk      48  71       ; "KubrowSpawn"
9586  E28B0001           [240] call       47  2   2  
958A  170C0000           [241] loadbool   48  0   0    ; false
958E  224B8002           [242] call       44  5   1  
9592  240BD200           [243] self       44  1   328  ; 416922383
9596  970B8000           [244] loadbool   46  1   0    ; true
959A  224B8001           [245] call       44  3   1  
959E  244BD201           [246] self       44  3   329  ; -502414055
95A2  228B0001           [247] call       44  2   2  
95A6  5D8B1200           [248] getglobal  45  74       ; Lotus_Game
95AA  4ECBD216           [249] gettable   45  45  331  ; "MT_LANDSCAPE"
fail op	35
95AE  23400B16           [250] close      0  
95B2  1A400880           [251] jmp        34           ; to [286]
95B6  240BD30F           [252] self       44  31  332  ; 39546429
95BA  228B0001           [253] call       44  2   2  
95BE  5D8B0300           [254] getglobal  45  14       ; 1074689893
95C2  920B0016           [255] move       46  44     
95C6  628B0001           [256] call       45  2   2  
95CA  584B0000           [257] test       45      1    ; to [259] if false
95CE  1A800680           [258] jmp        27           ; to [286]
95D2  4A0B0016           [259] len        45  44     
fail op	21
95D6  15400B83           [260] concat     0   262 45 
95DA  1AC00580           [261] jmp        24           ; to [286]
95DE  59CB0100           [262] loadk      45  7        ; 0
95E2  8A0B0016           [263] len        46  44     
95E6  D9CB0100           [264] loadk      47  7        ; 0
95EA  508B0480           [265] forprep    45  19       ; to [285]
95EE  4E0C0C16           [266] gettable   49  44  48 
95F2  8E4CC418           [267] gettable   50  49  273  ; "probability"
95F6  CE4CCE18           [268] gettable   51  49  313  ; "agent"
95FA  0E8DCE18           [269] gettable   52  49  314  ; "maxSimultaneous"
95FE  4ECDCE18           [270] gettable   53  49  315  ; "tier"
9602  9D0D0500           [271] getglobal  54  20       ; -895206725
9606  D20D8019           [272] move       55  51     
960A  A28D0001           [273] call       54  2   2  
960E  DD8D0300           [274] getglobal  55  14       ; 1074689893
9612  120E001B           [275] move       56  54     
9616  E28D0001           [276] call       55  2   2  
961A  D84D0000           [277] test       55      1    ; to [279] if false
961E  1A400180           [278] jmp        6            ; to [285]
9622  E44DCF00           [279] self       55  1   317  ; 1493291254
9626  520E001B           [280] move       57  54     
962A  920E0019           [281] move       58  50     
962E  D20E001A           [282] move       59  52     
9632  120F801A           [283] move       60  53     
9636  E24D0003           [284] call       55  6   1  
963A  54CBFA7F           [285] forloop    45  -20      ; to [266] if loop
963E  D70D8000           [286] loadbool   55  1   0    ; true
9642  DE0D0001           [287] return     55  2      
9646  D70D0000           [288] loadbool   55  0   0    ; false
964A  DE0D0001           [289] return     55  2      
964E  1E008000           [290] return     0   1      
                         * constants:
9652  4D                 sizek (77)
9653  04                 const type 4
9654  08                 string size (8)
9655  67526567696F6E00   "gRegion\0"
                         const [0]: "gRegion"
965D  01                 const type 3
965E  90F9CED1           const [1]: (-774964848)
9662  01                 const type 3
9663  73290920           const [2]: (537471347)
9667  01                 const type 3
9668  12066FA7           const [3]: (-1485896174)
966C  01                 const type 3
966D  1A4B27EC           const [4]: (-332969190)
9671  04                 const type 4
9672  1D                 string size (29)
9673  46616374696F6E43+  "FactionC"
967B  6F6E666C69637453+  "onflictS"
9683  6372697074547269+  "criptTri"
968B  6767657200         "gger\0"
                         const [5]: "FactionConflictScriptTrigger"
9690  03                 const type 3
9691  00000000           const [6]: (0)
9695  03                 const type 3
9696  0000803F           const [7]: (0)
969A  01                 const type 3
969B  B786588D           const [8]: (-1923578185)
969F  04                 const type 4
96A0  08                 string size (8)
96A1  4578656375746500   "Execute\0"
                         const [9]: "Execute"
96A9  04                 const type 4
96AA  0B                 string size (11)
96AB  6747616D6552756C+  "gGameRul"
96B3  657300             "es\0"
                         const [10]: "gGameRules"
96B6  04                 const type 4
96B7  03                 string size (3)
96B8  5F5400             "_T\0"
                         const [11]: "_T"
96BB  04                 const type 4
96BC  0F                 string size (15)
96BD  6D697373696F6E41+  "missionA"
96C5  49526561647900     "IReady\0"
                         const [12]: "missionAIReady"
96CC  01                 const type 3
96CD  01000000           const [13]: (1)
96D1  01                 const type 3
96D2  65770E40           const [14]: (1074689893)
96D6  01                 const type 3
96D7  99917A34           const [15]: (880447897)
96DB  01                 const type 3
96DC  06BBAC0F           const [16]: (262978310)
96E0  04                 const type 4
96E1  0C                 string size (12)
96E2  70726F626162696C+  "probabil"
96EA  69747900           "ity\0"
                         const [17]: "probability"
96EE  04                 const type 4
96EF  08                 string size (8)
96F0  66616374696F6E00   "faction\0"
                         const [18]: "faction"
96F8  04                 const type 4
96F9  04                 string size (4)
96FA  74616700           "tag\0"
                         const [19]: "tag"
96FE  01                 const type 3
96FF  BB3AA4CA           const [20]: (-895206725)
9703  04                 const type 4
9704  09                 string size (9)
9705  7265736F75726365+  "resource"
970D  00                 "\0"
                         const [21]: "resource"
970E  01                 const type 3
970F  8D4D92F2           const [22]: (-225292915)
9713  01                 const type 3
9714  497363B8           const [23]: (-1201441975)
9718  01                 const type 3
9719  5BB76030           const [24]: (811644763)
971D  01                 const type 3
971E  97870C18           const [25]: (403474327)
9722  04                 const type 4
9723  09                 string size (9)
9724  66616374696F6E41+  "factionA"
972C  00                 "\0"
                         const [26]: "factionA"
972D  04                 const type 4
972E  09                 string size (9)
972F  66616374696F6E42+  "factionB"
9737  00                 "\0"
                         const [27]: "factionB"
9738  01                 const type 3
9739  A0826120           const [28]: (543261344)
973D  01                 const type 3
973E  D11AB1D8           const [29]: (-659481903)
9742  01                 const type 3
9743  EFFB7E0F           const [30]: (259980271)
9747  01                 const type 3
9748  1CC5135C           const [31]: (1544799516)
974C  01                 const type 3
974D  C98BEABB           const [32]: (-1142256695)
9751  01                 const type 3
9752  6EB46C7A           const [33]: (2053944430)
9756  01                 const type 3
9757  0371885A           const [34]: (1518891267)
975B  01                 const type 3
975C  4DB2C255           const [35]: (1438822989)
9760  04                 const type 4
9761  0E                 string size (14)
9762  6D696E456E656D79+  "minEnemy"
976A  4C6576656C00       "Level\0"
                         const [36]: "minEnemyLevel"
9770  04                 const type 4
9771  0E                 string size (14)
9772  6D6178456E656D79+  "maxEnemy"
977A  4C6576656C00       "Level\0"
                         const [37]: "maxEnemyLevel"
9780  01                 const type 3
9781  05314775           const [38]: (1967599877)
9785  04                 const type 4
9786  0B                 string size (11)
9787  7465737441695370+  "testAiSp"
978F  656300             "ec\0"
                         const [39]: "testAiSpec"
9792  01                 const type 3
9793  591BC570           const [40]: (1891965785)
9797  04                 const type 4
9798  15                 string size (21)
9799  6C65616465727341+  "leadersA"
97A1  6C77617973416C6C+  "lwaysAll"
97A9  6F77656400         "owed\0"
                         const [41]: "leadersAlwaysAllowed"
97AE  01                 const type 3
97AF  8C693B83           const [42]: (-2093258356)
97B3  01                 const type 3
97B4  750F9F2F           const [43]: (798953333)
97B8  03                 const type 3
97B9  0000C842           const [44]: (0)
97BD  01                 const type 3
97BE  3CE70836           const [45]: (906553148)
97C2  04                 const type 4
97C3  09                 string size (9)
97C4  736F727469654964+  "sortieId"
97CC  00                 "\0"
                         const [46]: "sortieId"
97CD  04                 const type 4
97CE  01                 string size (0)
                         const [47]: ""
97D0  04                 const type 4
97D1  08                 string size (8)
97D2  616C657274496400   "alertId\0"
                         const [48]: "alertId"
97DA  04                 const type 4
97DB  07                 string size (7)
97DC  676F616C496400     "goalId\0"
                         const [49]: "goalId"
97E3  01                 const type 3
97E4  34962891           const [50]: (-1859611084)
97E8  03                 const type 3
97E9  00002041           const [51]: (0)
97ED  03                 const type 3
97EE  00004040           const [52]: (0)
97F2  01                 const type 3
97F3  C4F9ABB2           const [53]: (-1297352252)
97F7  04                 const type 4
97F8  11                 string size (17)
97F9  6172636877696E67+  "archwing"
9801  5265717569726564+  "Required"
9809  00                 "\0"
                         const [54]: "archwingRequired"
980A  04                 const type 4
980B  13                 string size (19)
980C  6973536861726B77+  "isSharkw"
9814  696E674D69737369+  "ingMissi"
981C  6F6E00             "on\0"
                         const [55]: "isSharkwingMission"
981F  03                 const type 3
9820  00007042           const [56]: (0)
9824  04                 const type 4
9825  06                 string size (6)
9826  6167656E7400       "agent\0"
                         const [57]: "agent"
982C  04                 const type 4
982D  10                 string size (16)
982E  6D617853696D756C+  "maxSimul"
9836  74616E656F757300   "taneous\0"
                         const [58]: "maxSimultaneous"
983E  04                 const type 4
983F  05                 string size (5)
9840  7469657200         "tier\0"
                         const [59]: "tier"
9845  04                 const type 4
9846  0C                 string size (12)
9847  6D6572676553796D+  "mergeSym"
984F  626F6C00           "bol\0"
                         const [60]: "mergeSymbol"
9853  01                 const type 3
9854  F6D00159           const [61]: (1493291254)
9858  01                 const type 3
9859  6B25B193           const [62]: (-1817107093)
985D  04                 const type 4
985E  11                 string size (17)
985F  4E554C4C20616765+  "NULL age"
9867  6E74207479706521+  "nt type!"
986F  00                 "\0"
                         const [63]: "NULL agent type!"
9870  01                 const type 3
9871  BDC3DA34           const [64]: (886752189)
9875  01                 const type 3
9876  29D4002C           const [65]: (738251817)
987A  04                 const type 4
987B  37                 string size (55)
987C  2F4C6F7475732F54+  "/Lotus/T"
9884  797065732F456E65+  "ypes/Ene"
988C  6D6965732F436F72+  "mies/Cor"
9894  7075732F42697065+  "pus/Bipe"
989C  64526F626F742F42+  "dRobot/B"
98A4  69706564526F626F+  "ipedRobo"
98AC  744167656E7400     "tAgent\0"
                         const [66]: "/Lotus/Types/Enemies/Corpus/BipedRobot/BipedRobotAgent"
98B3  04                 const type 4
98B4  12                 string size (18)
98B5  4269706564537065+  "BipedSpe"
98BD  6369616C53706177+  "cialSpaw"
98C5  6E00               "n\0"
                         const [67]: "BipedSpecialSpawn"
98C7  04                 const type 4
98C8  2E                 string size (46)
98C9  2F4C6F7475732F54+  "/Lotus/T"
98D1  797065732F4E6575+  "ypes/Neu"
98D9  7472616C43726561+  "tralCrea"
98E1  74757265732F5361+  "tures/Sa"
98E9  6E64526179437265+  "ndRayCre"
98F1  617475726500       "ature\0"
                         const [68]: "/Lotus/Types/NeutralCreatures/SandRayCreature"
98F7  04                 const type 4
98F8  0A                 string size (10)
98F9  53616E6453706177+  "SandSpaw"
9901  6E00               "n\0"
                         const [69]: "SandSpawn"
9903  04                 const type 4
9904  31                 string size (49)
9905  2F4C6F7475732F54+  "/Lotus/T"
990D  797065732F4E6575+  "ypes/Neu"
9915  7472616C43726561+  "tralCrea"
991D  74757265732F4B75+  "tures/Ku"
9925  62726F772F4B7562+  "brow/Kub"
992D  726F774167656E74+  "rowAgent"
9935  00                 "\0"
                         const [70]: "/Lotus/Types/NeutralCreatures/Kubrow/KubrowAgent"
9936  04                 const type 4
9937  0C                 string size (12)
9938  4B7562726F775370+  "KubrowSp"
9940  61776E00           "awn\0"
                         const [71]: "KubrowSpawn"
9944  01                 const type 3
9945  0FBBD918           const [72]: (416922383)
9949  01                 const type 3
994A  19C50DE2           const [73]: (-502414055)
994E  04                 const type 4
994F  0B                 string size (11)
9950  4C6F7475735F4761+  "Lotus_Ga"
9958  6D6500             "me\0"
                         const [74]: "Lotus_Game"
995B  04                 const type 4
995C  0D                 string size (13)
995D  4D545F4C414E4453+  "MT_LANDS"
9965  4341504500         "CAPE\0"
                         const [75]: "MT_LANDSCAPE"
996A  01                 const type 3
996B  3D6E5B02           const [76]: (39546429)
                         * functions:
996F  00                 sizep (0)
                         * lines:
9971  02                 sizelineinfo (290)
                         [pc] (line)
9972  DB                 [001] (-37)
9973  05                 [002] (-37)
9974  00                 [003] (-37)
9975  00                 [004] (-36)
9976  DB                 [005] (-36)
9977  05                 [006] (-33)
9978  00                 [007] (-33)
9979  00                 [008] (-33)
997A  DB                 [009] (-33)
997B  05                 [010] (-33)
997C  00                 [011] (-33)
997D  00                 [012] (-32)
997E  DC                 [013] (-32)
997F  05                 [014] (-32)
9980  00                 [015] (-31)
9981  00                 [016] (-31)
9982  DC                 [017] (-31)
9983  05                 [018] (-31)
9984  00                 [019] (-28)
9985  00                 [020] (-27)
9986  DF                 [021] (-27)
9987  05                 [022] (-25)
9988  00                 [023] (-25)
9989  00                 [024] (-25)
998A  DF                 [025] (-25)
998B  05                 [026] (-25)
998C  00                 [027] (-24)
998D  00                 [028] (-24)
998E  DF                 [029] (-23)
998F  05                 [030] (-23)
9990  00                 [031] (-22)
9991  00                 [032] (-22)
9992  DF                 [033] (-22)
9993  05                 [034] (-22)
9994  00                 [035] (-21)
9995  00                 [036] (-20)
9996  DF                 [037] (-19)
9997  05                 [038] (-18)
9998  00                 [039] (-17)
9999  00                 [040] (-17)
999A  DF                 [041] (-17)
999B  05                 [042] (-16)
999C  00                 [043] (-16)
999D  00                 [044] (-16)
999E  E0                 [045] (-16)
999F  05                 [046] (-16)
99A0  00                 [047] (-16)
99A1  00                 [048] (-22)
99A2  E0                 [049] (-13)
99A3  05                 [050] (-13)
99A4  00                 [051] (-12)
99A5  00                 [052] (-12)
99A6  E0                 [053] (-12)
99A7  05                 [054] (-12)
99A8  00                 [055] (-12)
99A9  00                 [056] (-11)
99AA  E1                 [057] (-11)
99AB  05                 [058] (-10)
99AC  00                 [059] (-10)
99AD  00                 [060] (-10)
99AE  E1                 [061] (-10)
99AF  05                 [062] (-9)
99B0  00                 [063] (-8)
99B1  00                 [064] (-8)
99B2  E1                 [065] (-8)
99B3  05                 [066] (-8)
99B4  00                 [067] (-10)
99B5  00                 [068] (-3)
99B6  E1                 [069] (-3)
99B7  05                 [070] (-2)
99B8  00                 [071] (-2)
99B9  00                 [072] (-1)
99BA  E4                 [073] (-1)
99BB  05                 [074] (0)
99BC  00                 [075] (0)
99BD  00                 [076] (0)
99BE  E5                 [077] (0)
99BF  05                 [078] (1)
99C0  00                 [079] (1)
99C1  00                 [080] (1)
99C2  E5                 [081] (1)
99C3  05                 [082] (1)
99C4  00                 [083] (0)
99C5  00                 [084] (4)
99C6  E7                 [085] (4)
99C7  05                 [086] (5)
99C8  00                 [087] (5)
99C9  00                 [088] (5)
99CA  E7                 [089] (5)
99CB  05                 [090] (6)
99CC  00                 [091] (6)
99CD  00                 [092] (6)
99CE  E7                 [093] (6)
99CF  05                 [094] (6)
99D0  00                 [095] (5)
99D1  00                 [096] (10)
99D2  E7                 [097] (10)
99D3  05                 [098] (10)
99D4  00                 [099] (10)
99D5  00                 [100] (11)
99D6  E7                 [101] (11)
99D7  05                 [102] (11)
99D8  00                 [103] (11)
99D9  00                 [104] (13)
99DA  E8                 [105] (13)
99DB  05                 [106] (13)
99DC  00                 [107] (16)
99DD  00                 [108] (16)
99DE  E8                 [109] (17)
99DF  05                 [110] (17)
99E0  00                 [111] (17)
99E1  00                 [112] (17)
99E2  E9                 [113] (19)
99E3  05                 [114] (19)
99E4  00                 [115] (20)
99E5  00                 [116] (20)
99E6  E9                 [117] (22)
99E7  05                 [118] (22)
99E8  00                 [119] (22)
99E9  00                 [120] (22)
99EA  EA                 [121] (22)
99EB  05                 [122] (22)
99EC  00                 [123] (22)
99ED  00                 [124] (22)
99EE  EA                 [125] (22)
99EF  05                 [126] (22)
99F0  00                 [127] (23)
99F1  00                 [128] (23)
99F2  EA                 [129] (23)
99F3  05                 [130] (23)
99F4  00                 [131] (28)
99F5  00                 [132] (28)
99F6  EA                 [133] (28)
99F7  05                 [134] (28)
99F8  00                 [135] (28)
99F9  00                 [136] (28)
99FA  EB                 [137] (28)
99FB  05                 [138] (28)
99FC  00                 [139] (31)
99FD  00                 [140] (31)
99FE  EC                 [141] (31)
99FF  05                 [142] (33)
9A00  00                 [143] (33)
9A01  00                 [144] (33)
9A02  ED                 [145] (34)
9A03  05                 [146] (34)
9A04  00                 [147] (34)
9A05  00                 [148] (35)
9A06  EE                 [149] (35)
9A07  05                 [150] (35)
9A08  00                 [151] (36)
9A09  00                 [152] (36)
9A0A  EF                 [153] (36)
9A0B  05                 [154] (36)
9A0C  00                 [155] (36)
9A0D  00                 [156] (36)
9A0E  EF                 [157] (36)
9A0F  05                 [158] (36)
9A10  00                 [159] (36)
9A11  00                 [160] (36)
9A12  EF                 [161] (36)
9A13  05                 [162] (36)
9A14  00                 [163] (37)
9A15  00                 [164] (37)
9A16  F0                 [165] (37)
9A17  05                 [166] (37)
9A18  00                 [167] (39)
9A19  00                 [168] (39)
9A1A  F0                 [169] (39)
9A1B  05                 [170] (41)
9A1C  00                 [171] (41)
9A1D  00                 [172] (41)
9A1E  F0                 [173] (41)
9A1F  05                 [174] (42)
9A20  00                 [175] (42)
9A21  00                 [176] (42)
9A22  F0                 [177] (42)
9A23  05                 [178] (42)
9A24  00                 [179] (42)
9A25  00                 [180] (44)
9A26  F0                 [181] (44)
9A27  05                 [182] (44)
9A28  00                 [183] (45)
9A29  00                 [184] (45)
9A2A  F0                 [185] (45)
9A2B  05                 [186] (48)
9A2C  00                 [187] (48)
9A2D  00                 [188] (48)
9A2E  EA                 [189] (48)
9A2F  05                 [190] (49)
9A30  00                 [191] (50)
9A31  00                 [192] (51)
9A32  F3                 [193] (52)
9A33  05                 [194] (53)
9A34  00                 [195] (54)
9A35  00                 [196] (54)
9A36  F3                 [197] (54)
9A37  05                 [198] (55)
9A38  00                 [199] (56)
9A39  00                 [200] (56)
9A3A  F4                 [201] (56)
9A3B  05                 [202] (56)
9A3C  00                 [203] (56)
9A3D  00                 [204] (57)
9A3E  F4                 [205] (57)
9A3F  05                 [206] (57)
9A40  00                 [207] (57)
9A41  00                 [208] (57)
9A42  F4                 [209] (57)
9A43  05                 [210] (57)
9A44  00                 [211] (57)
9A45  00                 [212] (59)
9A46  F4                 [213] (59)
9A47  05                 [214] (59)
9A48  00                 [215] (48)
9A49  00                 [216] (63)
9A4A  F4                 [217] (63)
9A4B  05                 [218] (63)
9A4C  00                 [219] (63)
9A4D  00                 [220] (63)
9A4E  F5                 [221] (63)
9A4F  05                 [222] (63)
9A50  00                 [223] (63)
9A51  00                 [224] (63)
9A52  F5                 [225] (64)
9A53  05                 [226] (64)
9A54  00                 [227] (64)
9A55  00                 [228] (64)
9A56  F6                 [229] (64)
9A57  05                 [230] (64)
9A58  00                 [231] (64)
9A59  00                 [232] (64)
9A5A  F6                 [233] (64)
9A5B  05                 [234] (65)
9A5C  00                 [235] (65)
9A5D  00                 [236] (65)
9A5E  F6                 [237] (65)
9A5F  05                 [238] (65)
9A60  00                 [239] (65)
9A61  00                 [240] (65)
9A62  F6                 [241] (65)
9A63  05                 [242] (65)
9A64  00                 [243] (69)
9A65  00                 [244] (69)
9A66  F7                 [245] (69)
9A67  05                 [246] (71)
9A68  00                 [247] (71)
9A69  00                 [248] (71)
9A6A  F8                 [249] (71)
9A6B  05                 [250] (71)
9A6C  00                 [251] (71)
9A6D  00                 [252] (72)
9A6E  F8                 [253] (72)
9A6F  05                 [254] (73)
9A70  00                 [255] (73)
9A71  00                 [256] (73)
9A72  F8                 [257] (73)
9A73  05                 [258] (73)
9A74  00                 [259] (73)
9A75  00                 [260] (73)
9A76  F8                 [261] (73)
9A77  05                 [262] (74)
9A78  00                 [263] (74)
9A79  00                 [264] (74)
9A7A  F6                 [265] (74)
9A7B  05                 [266] (75)
9A7C  00                 [267] (76)
9A7D  00                 [268] (77)
9A7E  FD                 [269] (78)
9A7F  05                 [270] (79)
9A80  00                 [271] (80)
9A81  00                 [272] (80)
9A82  FD                 [273] (80)
9A83  05                 [274] (81)
9A84  00                 [275] (81)
9A85  00                 [276] (81)
9A86  FE                 [277] (81)
9A87  05                 [278] (81)
9A88  00                 [279] (82)
9A89  00                 [280] (82)
9A8A  FE                 [281] (82)
9A8B  05                 [282] (82)
9A8C  00                 [283] (82)
9A8D  00                 [284] (82)
9A8E  FF                 [285] (74)
9A8F  05                 [286] (87)
9A90  00                 [287] (87)
9A91  00                 [288] (90)
9A92  FF                 [289] (90)
9A93  05                 [290] (91)
                         * locals:
9DFA  00                 sizelocvars (0)
                         * upvalues:
9DFB  00                 sizeupvalues (0)
                         ** end of function **

                         
9DFC                     ** function [47] definition (level 2)
                         ** start of function **
9DFC  00                 string size (0)
                         source name: (none)
9DFE  0C                 line defined (1629)
9DFF  B7                 last line defined (1719)
9E00  0D                 nups (0)
9E01  00                 numparams (0)
9E02  00                 is_vararg (0)
9E03  00                 maxstacksize (17)
                         * code:
9E06  01                 sizecode (208)
9E07  1D000000           [001] getglobal  0   0        ; gRegion
9E0B  24404000           [002] self       0   0   257  ; -774964848
9E0F  22800001           [003] call       0   2   2  
9E13  24804000           [004] self       0   0   258  ; -1854334456
9E17  97008000           [005] loadbool   2   1   0    ; true
9E1B  22408001           [006] call       0   3   1  
9E1F  1D000000           [007] getglobal  0   0        ; gRegion
9E23  24404000           [008] self       0   0   257  ; -774964848
9E27  22800001           [009] call       0   2   2  
9E2B  24C04000           [010] self       0   0   259  ; 537471347
9E2F  22800001           [011] call       0   2   2  
9E33  64004100           [012] self       1   0   260  ; 1727995641
9E37  D9400100           [013] loadk      3   5        ; 0
9E3B  19810100           [014] loadk      4   6        ; 0
9E3F  57010000           [015] loadbool   5   0   0    ; false
9E43  97018000           [016] loadbool   6   1   0    ; true
9E47  D7018000           [017] loadbool   7   1   0    ; true
9E4B  62408003           [018] call       1   7   1  
9E4F  64C04100           [019] self       1   0   263  ; 421797155
9E53  D7008000           [020] loadbool   3   1   0    ; true
9E57  62408001           [021] call       1   3   1  
9E5B  64004200           [022] self       1   0   264  ; -110386376
9E5F  D7000000           [023] loadbool   3   0   0    ; false
9E63  62408001           [024] call       1   3   1  
9E67  64404200           [025] self       1   0   265  ; -1642058584
9E6B  D9800100           [026] loadk      3   6        ; 0
9E6F  19810200           [027] loadk      4   10       ; 0
9E73  57010000           [028] loadbool   5   0   0    ; false
9E77  97010000           [029] loadbool   6   0   0    ; false
9E7B  62400003           [030] call       1   6   1  
9E7F  64C04200           [031] self       1   0   267  ; -375046116
9E83  D9000300           [032] loadk      3   12       ; 0
9E87  62408001           [033] call       1   3   1  
9E8B  64404300           [034] self       1   0   269  ; -497617898
9E8F  62400001           [035] call       1   2   1  
9E93  64804300           [036] self       1   0   270  ; 81647151
9E97  D7008000           [037] loadbool   3   1   0    ; true
9E9B  62408001           [038] call       1   3   1  
9E9F  64C04300           [039] self       1   0   271  ; 200580111
9EA3  D7000000           [040] loadbool   3   0   0    ; false
9EA7  62408001           [041] call       1   3   1  
9EAB  64004400           [042] self       1   0   272  ; 1043190839
9EAF  D9400400           [043] loadk      3   17       ; 0
9EB3  62408001           [044] call       1   3   1  
9EB7  64804400           [045] self       1   0   274  ; 886752189
9EBB  DDC00400           [046] getglobal  3   19       ; 738251817
9EBF  19010500           [047] loadk      4   20       ; "/Lotus/Types/Enemies/Corpus/Venus/VenusBipedBaseAgent"
9EC3  E2800001           [048] call       3   2   2  
9EC7  1D410500           [049] getglobal  4   21       ; -332969190
9ECB  59810500           [050] loadk      5   22       ; "VenusBipedSpecialSpawn"
9ECF  22810001           [051] call       4   2   2  
9ED3  57010000           [052] loadbool   5   0   0    ; false
9ED7  62408002           [053] call       1   5   1  
9EDB  64804400           [054] self       1   0   274  ; 886752189
9EDF  DDC00400           [055] getglobal  3   19       ; 738251817
9EE3  19C10500           [056] loadk      4   23       ; "/Lotus/Types/Enemies/Corpus/Venus/VenusDroneBaseAgent"
9EE7  E2800001           [057] call       3   2   2  
9EEB  1D410500           [058] getglobal  4   21       ; -332969190
9EEF  59010600           [059] loadk      5   24       ; "VenusDroneSpecialSpawn"
9EF3  22810001           [060] call       4   2   2  
9EF7  57010000           [061] loadbool   5   0   0    ; false
9EFB  62408002           [062] call       1   5   1  
9EFF  64404600           [063] self       1   0   281  ; -736036065
9F03  DD400500           [064] getglobal  3   21       ; -332969190
9F07  19810600           [065] loadk      4   26       ; "SmallTurretSpawn"
9F0B  E2000001           [066] call       3   2   0  
9F0F  62400000           [067] call       1   0   1  
9F13  64404600           [068] self       1   0   281  ; -736036065
9F17  DD400500           [069] getglobal  3   21       ; -332969190
9F1B  19C10600           [070] loadk      4   27       ; "TowerTurretSpawn"
9F1F  E2000001           [071] call       3   2   0  
9F23  62400000           [072] call       1   0   1  
9F27  64404600           [073] self       1   0   281  ; -736036065
9F2B  DD400500           [074] getglobal  3   21       ; -332969190
9F2F  19010700           [075] loadk      4   28       ; "CameraSpawn"
9F33  E2000001           [076] call       3   2   0  
9F37  62400000           [077] call       1   0   1  
9F3B  64404600           [078] self       1   0   281  ; -736036065
9F3F  DD400500           [079] getglobal  3   21       ; -332969190
9F43  19410700           [080] loadk      4   29       ; "TurretSpawn"
9F47  E2000001           [081] call       3   2   0  
9F4B  62400000           [082] call       1   0   1  
9F4F  5D800700           [083] getglobal  1   30       ; 1074689893
9F53  9DC00700           [084] getglobal  2   31       ; customEnemyScaling
9F57  62800001           [085] call       1   2   2  
9F5B  58400000           [086] test       1       1    ; to [88] if false
9F5F  1A800C80           [087] jmp        51           ; to [139]
9F63  64004800           [088] self       1   0   288  ; 2092023118
9F67  DDC00700           [089] getglobal  3   31       ; customEnemyScaling
9F6B  62408001           [090] call       1   3   1  
9F6F  5D000000           [091] getglobal  1   0        ; gRegion
9F73  6440C800           [092] self       1   1   289  ; -1875307917
9F77  DD400500           [093] getglobal  3   21       ; -332969190
9F7B  19810800           [094] loadk      4   34       ; "DistanceEnemyScalingReference"
9F7F  E2000001           [095] call       3   2   0  
9F83  62800000           [096] call       1   0   2  
9F87  9D800700           [097] getglobal  2   30       ; 1074689893
9F8B  D2008000           [098] move       3   1      
9F8F  A2800001           [099] call       2   2   2  
9F93  98400000           [100] test       2       1    ; to [102] if false
9F97  1A400680           [101] jmp        26           ; to [128]
9F9B  86008001           [102] loadnil    2   3      
9F9F  1DC10800           [103] getglobal  4   35       ; _T
9FA3  0E014902           [104] gettable   4   4   292  ; "ActiveJob"
9FA7  18010000           [105] test       4       0    ; to [107] if true
9FAB  1A800180           [106] jmp        7            ; to [114]
9FAF  1DC10800           [107] getglobal  4   35       ; _T
9FB3  0E014902           [108] gettable   4   4   292  ; "ActiveJob"
9FB7  8E404902           [109] gettable   2   4   293  ; "minEnemyLevel"
9FBB  1DC10800           [110] getglobal  4   35       ; _T
9FBF  0E014902           [111] gettable   4   4   292  ; "ActiveJob"
9FC3  CE804902           [112] gettable   3   4   294  ; "maxEnemyLevel"
9FC7  1A000180           [113] jmp        5            ; to [119]
9FCB  1DC10900           [114] getglobal  4   39       ; gGameRules
9FCF  24014A02           [115] self       4   4   296  ; -1201441975
9FD3  22810001           [116] call       4   2   2  
9FD7  8E404902           [117] gettable   2   4   293  ; "minEnemyLevel"
9FDB  CE804902           [118] gettable   3   4   294  ; "maxEnemyLevel"
9FDF  64414A00           [119] self       5   0   297  ; 448450602
9FE3  D2018000           [120] move       7   1      
9FE7  19820100           [121] loadk      8   6        ; 0
9FEB  59820A00           [122] loadk      9   42       ; 0
9FEF  92020001           [123] move       10  2      
9FF3  D2028001           [124] move       11  3      
9FF7  19C30A00           [125] loadk      12  43       ; 0
9FFB  62410004           [126] call       5   8   1  
9FFF  1A800080           [127] jmp        3            ; to [131]
A003  5D010B00           [128] getglobal  5   44       ; -1817107093
A007  99410B00           [129] loadk      6   45       ; "ProceduralLevel.lua - Couldn't find entityNearGate to setup distance based enemy scaling"
A00B  62410001           [130] call       5   2   1  
A00F  64814B00           [131] self       5   0   302  ; 2072331757
A013  D9C10B00           [132] loadk      7   47       ; 0
A017  19020C00           [133] loadk      8   48       ; 0
A01B  62410002           [134] call       5   4   1  
A01F  64414C00           [135] self       5   0   305  ; -1261590632
A023  D9810C00           [136] loadk      7   50       ; 0
A027  62418001           [137] call       5   3   1  
A02B  1A000D80           [138] jmp        53           ; to [192]
A02F  5D010000           [139] getglobal  5   0        ; gRegion
A033  6441C802           [140] self       5   5   289  ; -1875307917
A037  DD410500           [141] getglobal  7   21       ; -332969190
A03B  19820800           [142] loadk      8   34       ; "DistanceEnemyScalingReference"
A03F  E2010001           [143] call       7   2   0  
A043  62810000           [144] call       5   0   2  
A047  9D810700           [145] getglobal  6   30       ; 1074689893
A04B  D2018002           [146] move       7   5      
A04F  A2810001           [147] call       6   2   2  
A053  98410000           [148] test       6       1    ; to [150] if false
A057  1A400680           [149] jmp        26           ; to [176]
A05B  86018003           [150] loadnil    6   7      
A05F  1DC20800           [151] getglobal  8   35       ; _T
A063  0E024904           [152] gettable   8   8   292  ; "ActiveJob"
A067  18020000           [153] test       8       0    ; to [155] if true
A06B  1A800180           [154] jmp        7            ; to [162]
A06F  1DC20800           [155] getglobal  8   35       ; _T
A073  0E024904           [156] gettable   8   8   292  ; "ActiveJob"
A077  8E414904           [157] gettable   6   8   293  ; "minEnemyLevel"
A07B  1DC20800           [158] getglobal  8   35       ; _T
A07F  0E024904           [159] gettable   8   8   292  ; "ActiveJob"
A083  CE814904           [160] gettable   7   8   294  ; "maxEnemyLevel"
A087  1A000180           [161] jmp        5            ; to [167]
A08B  1DC20900           [162] getglobal  8   39       ; gGameRules
A08F  24024A04           [163] self       8   8   296  ; -1201441975
A093  22820001           [164] call       8   2   2  
A097  8E414904           [165] gettable   6   8   293  ; "minEnemyLevel"
A09B  CE814904           [166] gettable   7   8   294  ; "maxEnemyLevel"
A09F  64424A00           [167] self       9   0   297  ; 448450602
A0A3  D2028002           [168] move       11  5      
A0A7  19C30C00           [169] loadk      12  51       ; 0
A0AB  59030D00           [170] loadk      13  52       ; 0
A0AF  92030003           [171] move       14  6      
A0B3  D2038003           [172] move       15  7      
A0B7  19C40A00           [173] loadk      16  43       ; 0
A0BB  62420004           [174] call       9   8   1  
A0BF  1A800080           [175] jmp        3            ; to [179]
A0C3  5D020B00           [176] getglobal  9   44       ; -1817107093
A0C7  99420B00           [177] loadk      10  45       ; "ProceduralLevel.lua - Couldn't find entityNearGate to setup distance based enemy scaling"
A0CB  62420001           [178] call       9   2   1  
A0CF  64424D00           [179] self       9   0   309  ; -1669763195
A0D3  D9820D00           [180] loadk      11  54       ; 41
A0D7  19830200           [181] loadk      12  10       ; 0
A0DB  59830200           [182] loadk      13  10       ; 0
A0DF  99C30D00           [183] loadk      14  55       ; 0
A0E3  62420003           [184] call       9   6   1  
A0E7  64824B00           [185] self       9   0   302  ; 2072331757
A0EB  D9C20B00           [186] loadk      11  47       ; 0
A0EF  19030E00           [187] loadk      12  56       ; 0
A0F3  62420002           [188] call       9   4   1  
A0F7  64424C00           [189] self       9   0   305  ; -1261590632
A0FB  D9420E00           [190] loadk      11  57       ; 0
A0FF  62428001           [191] call       9   3   1  
A103  64824E00           [192] self       9   0   314  ; -1732890621
A107  D7028000           [193] loadbool   11  1   0    ; true
A10B  62428001           [194] call       9   3   1  
A10F  64C24E00           [195] self       9   0   315  ; 1361308957
A113  DD020F00           [196] getglobal  11  60       ; eidolonGroupCoordinatorAgentType
A117  62428001           [197] call       9   3   1  
A11B  64424F00           [198] self       9   0   317  ; 978868524
A11F  D9820F00           [199] loadk      11  62       ; -29
A123  62428001           [200] call       9   3   1  
A127  5DC20900           [201] getglobal  9   39       ; gGameRules
A12B  64C2CF04           [202] self       9   9   319  ; -803877924
A12F  DD420500           [203] getglobal  11  21       ; -332969190
A133  19031000           [204] loadk      12  64       ; "StopNormalTransmissions"
A137  E2820001           [205] call       11  2   2  
A13B  19C30B00           [206] loadk      12  47       ; 0
A13F  62420002           [207] call       9   4   1  
A143  1E008000           [208] return     0   1      
                         * constants:
A147  41                 sizek (65)
A148  04                 const type 4
A149  08                 string size (8)
A14A  67526567696F6E00   "gRegion\0"
                         const [0]: "gRegion"
A152  01                 const type 3
A153  90F9CED1           const [1]: (-774964848)
A157  01                 const type 3
A158  081A7991           const [2]: (-1854334456)
A15C  01                 const type 3
A15D  73290920           const [3]: (537471347)
A161  01                 const type 3
A162  F91EFF66           const [4]: (1727995641)
A166  03                 const type 3
A167  00004842           const [5]: (0)
A16B  03                 const type 3
A16C  00009643           const [6]: (0)
A170  01                 const type 3
A171  231D2419           const [7]: (421797155)
A175  01                 const type 3
A176  38A36BF9           const [8]: (-110386376)
A17A  01                 const type 3
A17B  A82C209E           const [9]: (-1642058584)
A17F  03                 const type 3
A180  00000000           const [10]: (0)
A184  01                 const type 3
A185  1C40A5E9           const [11]: (-375046116)
A189  03                 const type 3
A18A  00002041           const [12]: (0)
A18E  01                 const type 3
A18F  16F456E2           const [13]: (-497617898)
A193  01                 const type 3
A194  2FD6DD04           const [14]: (81647151)
A198  01                 const type 3
A199  0F9CF40B           const [15]: (200580111)
A19D  01                 const type 3
A19E  37D42D3E           const [16]: (1043190839)
A1A2  03                 const type 3
A1A3  000080BF           const [17]: (0)
A1A7  01                 const type 3
A1A8  BDC3DA34           const [18]: (886752189)
A1AC  01                 const type 3
A1AD  29D4002C           const [19]: (738251817)
A1B1  04                 const type 4
A1B2  36                 string size (54)
A1B3  2F4C6F7475732F54+  "/Lotus/T"
A1BB  797065732F456E65+  "ypes/Ene"
A1C3  6D6965732F436F72+  "mies/Cor"
A1CB  7075732F56656E75+  "pus/Venu"
A1D3  732F56656E757342+  "s/VenusB"
A1DB  6970656442617365+  "ipedBase"
A1E3  4167656E7400       "Agent\0"
                         const [20]: "/Lotus/Types/Enemies/Corpus/Venus/VenusBipedBaseAgent"
A1E9  01                 const type 3
A1EA  1A4B27EC           const [21]: (-332969190)
A1EE  04                 const type 4
A1EF  17                 string size (23)
A1F0  56656E7573426970+  "VenusBip"
A1F8  6564537065636961+  "edSpecia"
A200  6C537061776E00     "lSpawn\0"
                         const [22]: "VenusBipedSpecialSpawn"
A207  04                 const type 4
A208  36                 string size (54)
A209  2F4C6F7475732F54+  "/Lotus/T"
A211  797065732F456E65+  "ypes/Ene"
A219  6D6965732F436F72+  "mies/Cor"
A221  7075732F56656E75+  "pus/Venu"
A229  732F56656E757344+  "s/VenusD"
A231  726F6E6542617365+  "roneBase"
A239  4167656E7400       "Agent\0"
                         const [23]: "/Lotus/Types/Enemies/Corpus/Venus/VenusDroneBaseAgent"
A23F  04                 const type 4
A240  17                 string size (23)
A241  56656E757344726F+  "VenusDro"
A249  6E65537065636961+  "neSpecia"
A251  6C537061776E00     "lSpawn\0"
                         const [24]: "VenusDroneSpecialSpawn"
A258  01                 const type 3
A259  1FFB20D4           const [25]: (-736036065)
A25D  04                 const type 4
A25E  11                 string size (17)
A25F  536D616C6C547572+  "SmallTur"
A267  726574537061776E+  "retSpawn"
A26F  00                 "\0"
                         const [26]: "SmallTurretSpawn"
A270  04                 const type 4
A271  11                 string size (17)
A272  546F776572547572+  "TowerTur"
A27A  726574537061776E+  "retSpawn"
A282  00                 "\0"
                         const [27]: "TowerTurretSpawn"
A283  04                 const type 4
A284  0C                 string size (12)
A285  43616D6572615370+  "CameraSp"
A28D  61776E00           "awn\0"
                         const [28]: "CameraSpawn"
A291  04                 const type 4
A292  0C                 string size (12)
A293  5475727265745370+  "TurretSp"
A29B  61776E00           "awn\0"
                         const [29]: "TurretSpawn"
A29F  01                 const type 3
A2A0  65770E40           const [30]: (1074689893)
A2A4  04                 const type 4
A2A5  13                 string size (19)
A2A6  637573746F6D456E+  "customEn"
A2AE  656D795363616C69+  "emyScali"
A2B6  6E6700             "ng\0"
                         const [31]: "customEnemyScaling"
A2B9  01                 const type 3
A2BA  4EBDB17C           const [32]: (2092023118)
A2BE  01                 const type 3
A2BF  73123990           const [33]: (-1875307917)
A2C3  04                 const type 4
A2C4  1E                 string size (30)
A2C5  44697374616E6365+  "Distance"
A2CD  456E656D79536361+  "EnemySca"
A2D5  6C696E6752656665+  "lingRefe"
A2DD  72656E636500       "rence\0"
                         const [34]: "DistanceEnemyScalingReference"
A2E3  04                 const type 4
A2E4  03                 string size (3)
A2E5  5F5400             "_T\0"
                         const [35]: "_T"
A2E8  04                 const type 4
A2E9  0A                 string size (10)
A2EA  4163746976654A6F+  "ActiveJo"
A2F2  6200               "b\0"
                         const [36]: "ActiveJob"
A2F4  04                 const type 4
A2F5  0E                 string size (14)
A2F6  6D696E456E656D79+  "minEnemy"
A2FE  4C6576656C00       "Level\0"
                         const [37]: "minEnemyLevel"
A304  04                 const type 4
A305  0E                 string size (14)
A306  6D6178456E656D79+  "maxEnemy"
A30E  4C6576656C00       "Level\0"
                         const [38]: "maxEnemyLevel"
A314  04                 const type 4
A315  0B                 string size (11)
A316  6747616D6552756C+  "gGameRul"
A31E  657300             "es\0"
                         const [39]: "gGameRules"
A321  01                 const type 3
A322  497363B8           const [40]: (-1201441975)
A326  01                 const type 3
A327  2AD0BA1A           const [41]: (448450602)
A32B  03                 const type 3
A32C  0000AF44           const [42]: (0)
A330  03                 const type 3
A331  0000C040           const [43]: (0)
A335  01                 const type 3
A336  6B25B193           const [44]: (-1817107093)
A33A  04                 const type 4
A33B  59                 string size (89)
A33C  50726F6365647572+  "Procedur"
A344  616C4C6576656C2E+  "alLevel."
A34C  6C7561202D20436F+  "lua - Co"
A354  756C646E27742066+  "uldn't f"
A35C  696E6420656E7469+  "ind enti"
A364  74794E6561724761+  "tyNearGa"
A36C  746520746F207365+  "te to se"
A374  7475702064697374+  "tup dist"
A37C  616E636520626173+  "ance bas"
A384  656420656E656D79+  "ed enemy"
A38C  207363616C696E67+  " scaling"
A394  00                 "\0"
                         const [45]: "ProceduralLevel.lua - Couldn't find entityNearGate to setup distance based enemy scaling"
A395  01                 const type 3
A396  ED45857B           const [46]: (2072331757)
A39A  03                 const type 3
A39B  0000803F           const [47]: (0)
A39F  03                 const type 3
A3A0  00000842           const [48]: (0)
A3A4  01                 const type 3
A3A5  98A7CDB4           const [49]: (-1261590632)
A3A9  03                 const type 3
A3AA  0000A041           const [50]: (0)
A3AE  03                 const type 3
A3AF  0000C842           const [51]: (0)
A3B3  03                 const type 3
A3B4  00007A44           const [52]: (0)
A3B8  01                 const type 3
A3B9  856F799C           const [53]: (-1669763195)
A3BD  03                 const type 3
A3BE  295C8F3D           const [54]: (41)
A3C2  03                 const type 3
A3C3  0000A040           const [55]: (0)
A3C7  03                 const type 3
A3C8  0000C03F           const [56]: (0)
A3CC  03                 const type 3
A3CD  0000003F           const [57]: (0)
A3D1  01                 const type 3
A3D2  0330B698           const [58]: (-1732890621)
A3D6  01                 const type 3
A3D7  1DED2351           const [59]: (1361308957)
A3DB  04                 const type 4
A3DC  21                 string size (33)
A3DD  6569646F6C6F6E47+  "eidolonG"
A3E5  726F7570436F6F72+  "roupCoor"
A3ED  64696E61746F7241+  "dinatorA"
A3F5  67656E7454797065+  "gentType"
A3FD  00                 "\0"
                         const [60]: "eidolonGroupCoordinatorAgentType"
A3FE  01                 const type 3
A3FF  2C59583A           const [61]: (978868524)
A403  03                 const type 3
A404  E3AA2A3F           const [62]: (-29)
A408  01                 const type 3
A409  DCCB15D0           const [63]: (-803877924)
A40D  04                 const type 4
A40E  18                 string size (24)
A40F  53746F704E6F726D+  "StopNorm"
A417  616C5472616E736D+  "alTransm"
A41F  697373696F6E7300   "issions\0"
                         const [64]: "StopNormalTransmissions"
                         * functions:
A427  00                 sizep (0)
                         * lines:
A429  01                 sizelineinfo (208)
                         [pc] (line)
A42A  5F                 [001] (95)
A42B  06                 [002] (95)
A42C  00                 [003] (95)
A42D  00                 [004] (95)
A42E  5F                 [005] (95)
A42F  06                 [006] (95)
A430  00                 [007] (96)
A431  00                 [008] (96)
A432  5F                 [009] (96)
A433  06                 [010] (96)
A434  00                 [011] (96)
A435  00                 [012] (104)
A436  5F                 [013] (104)
A437  06                 [014] (104)
A438  00                 [015] (104)
A439  00                 [016] (104)
A43A  5F                 [017] (104)
A43B  06                 [018] (104)
A43C  00                 [019] (105)
A43D  00                 [020] (105)
A43E  5F                 [021] (105)
A43F  06                 [022] (106)
A440  00                 [023] (106)
A441  00                 [024] (106)
A442  60                 [025] (109)
A443  06                 [026] (109)
A444  00                 [027] (109)
A445  00                 [028] (109)
A446  60                 [029] (109)
A447  06                 [030] (109)
A448  00                 [031] (111)
A449  00                 [032] (111)
A44A  60                 [033] (111)
A44B  06                 [034] (112)
A44C  00                 [035] (112)
A44D  00                 [036] (114)
A44E  60                 [037] (114)
A44F  06                 [038] (114)
A450  00                 [039] (115)
A451  00                 [040] (115)
A452  60                 [041] (115)
A453  06                 [042] (116)
A454  00                 [043] (116)
A455  00                 [044] (116)
A456  68                 [045] (119)
A457  06                 [046] (119)
A458  00                 [047] (119)
A459  00                 [048] (119)
A45A  68                 [049] (119)
A45B  06                 [050] (119)
A45C  00                 [051] (119)
A45D  00                 [052] (119)
A45E  68                 [053] (119)
A45F  06                 [054] (120)
A460  00                 [055] (120)
A461  00                 [056] (120)
A462  68                 [057] (120)
A463  06                 [058] (120)
A464  00                 [059] (120)
A465  00                 [060] (120)
A466  68                 [061] (120)
A467  06                 [062] (120)
A468  00                 [063] (123)
A469  00                 [064] (123)
A46A  68                 [065] (123)
A46B  06                 [066] (123)
A46C  00                 [067] (123)
A46D  00                 [068] (124)
A46E  68                 [069] (124)
A46F  06                 [070] (124)
A470  00                 [071] (124)
A471  00                 [072] (124)
A472  69                 [073] (125)
A473  06                 [074] (125)
A474  00                 [075] (125)
A475  00                 [076] (125)
A476  69                 [077] (125)
A477  06                 [078] (126)
A478  00                 [079] (126)
A479  00                 [080] (126)
A47A  69                 [081] (126)
A47B  06                 [082] (126)
A47C  00                 [083] (-128)
A47D  00                 [084] (-128)
A47E  6A                 [085] (-128)
A47F  06                 [086] (-128)
A480  00                 [087] (-128)
A481  00                 [088] (-127)
A482  6A                 [089] (-127)
A483  06                 [090] (-127)
A484  00                 [091] (-126)
A485  00                 [092] (-126)
A486  6A                 [093] (-126)
A487  06                 [094] (-126)
A488  00                 [095] (-126)
A489  00                 [096] (-126)
A48A  6D                 [097] (-125)
A48B  06                 [098] (-125)
A48C  00                 [099] (-125)
A48D  00                 [100] (-125)
A48E  6D                 [101] (-125)
A48F  06                 [102] (-124)
A490  00                 [103] (-121)
A491  00                 [104] (-121)
A492  6D                 [105] (-121)
A493  06                 [106] (-121)
A494  00                 [107] (-120)
A495  00                 [108] (-120)
A496  6D                 [109] (-120)
A497  06                 [110] (-119)
A498  00                 [111] (-119)
A499  00                 [112] (-119)
A49A  6D                 [113] (-119)
A49B  06                 [114] (-117)
A49C  00                 [115] (-117)
A49D  00                 [116] (-117)
A49E  6D                 [117] (-116)
A49F  06                 [118] (-115)
A4A0  00                 [119] (-112)
A4A1  00                 [120] (-112)
A4A2  6F                 [121] (-112)
A4A3  06                 [122] (-112)
A4A4  00                 [123] (-112)
A4A5  00                 [124] (-112)
A4A6  6F                 [125] (-112)
A4A7  06                 [126] (-112)
A4A8  00                 [127] (-112)
A4A9  00                 [128] (-109)
A4AA  6F                 [129] (-109)
A4AB  06                 [130] (-109)
A4AC  00                 [131] (-106)
A4AD  00                 [132] (-106)
A4AE  70                 [133] (-106)
A4AF  06                 [134] (-106)
A4B0  00                 [135] (-105)
A4B1  00                 [136] (-105)
A4B2  70                 [137] (-105)
A4B3  06                 [138] (-105)
A4B4  00                 [139] (-103)
A4B5  00                 [140] (-103)
A4B6  72                 [141] (-103)
A4B7  06                 [142] (-103)
A4B8  00                 [143] (-103)
A4B9  00                 [144] (-103)
A4BA  72                 [145] (-102)
A4BB  06                 [146] (-102)
A4BC  00                 [147] (-102)
A4BD  00                 [148] (-102)
A4BE  72                 [149] (-102)
A4BF  06                 [150] (-101)
A4C0  00                 [151] (-98)
A4C1  00                 [152] (-98)
A4C2  73                 [153] (-98)
A4C3  06                 [154] (-98)
A4C4  00                 [155] (-97)
A4C5  00                 [156] (-97)
A4C6  73                 [157] (-97)
A4C7  06                 [158] (-96)
A4C8  00                 [159] (-96)
A4C9  00                 [160] (-96)
A4CA  73                 [161] (-96)
A4CB  06                 [162] (-94)
A4CC  00                 [163] (-94)
A4CD  00                 [164] (-94)
A4CE  74                 [165] (-93)
A4CF  06                 [166] (-92)
A4D0  00                 [167] (-89)
A4D1  00                 [168] (-89)
A4D2  74                 [169] (-89)
A4D3  06                 [170] (-89)
A4D4  00                 [171] (-89)
A4D5  00                 [172] (-89)
A4D6  74                 [173] (-89)
A4D7  06                 [174] (-89)
A4D8  00                 [175] (-89)
A4D9  00                 [176] (-86)
A4DA  77                 [177] (-86)
A4DB  06                 [178] (-86)
A4DC  00                 [179] (-84)
A4DD  00                 [180] (-84)
A4DE  77                 [181] (-84)
A4DF  06                 [182] (-84)
A4E0  00                 [183] (-84)
A4E1  00                 [184] (-84)
A4E2  77                 [185] (-83)
A4E3  06                 [186] (-83)
A4E4  00                 [187] (-83)
A4E5  00                 [188] (-83)
A4E6  77                 [189] (-82)
A4E7  06                 [190] (-82)
A4E8  00                 [191] (-82)
A4E9  00                 [192] (-79)
A4EA  77                 [193] (-79)
A4EB  06                 [194] (-79)
A4EC  00                 [195] (-78)
A4ED  00                 [196] (-78)
A4EE  77                 [197] (-78)
A4EF  06                 [198] (-76)
A4F0  00                 [199] (-76)
A4F1  00                 [200] (-76)
A4F2  77                 [201] (-74)
A4F3  06                 [202] (-74)
A4F4  00                 [203] (-74)
A4F5  00                 [204] (-74)
A4F6  77                 [205] (-74)
A4F7  06                 [206] (-74)
A4F8  00                 [207] (-74)
A4F9  00                 [208] (-73)
                         * locals:
A76A  00                 sizelocvars (0)
                         * upvalues:
A76B  00                 sizeupvalues (0)
                         ** end of function **

                         
A76C                     ** function [48] definition (level 2)
                         ** start of function **
A76C  00                 string size (0)
                         source name: (none)
A76E  0D                 line defined (1721)
A76F  D9                 last line defined (1753)
A770  0D                 nups (0)
A771  00                 numparams (0)
A772  00                 is_vararg (0)
A773  00                 maxstacksize (10)
                         * code:
A775  4B                 sizecode (75)
A776  1D000000           [01] getglobal  0   0        ; 1074689893
A77A  5D400000           [02] getglobal  1   1        ; MusicSequencerType
A77E  22800001           [03] call       0   2   2  
A782  18400000           [04] test       0       1    ; to [6] if false
A786  1A001180           [05] jmp        69           ; to [75]
A78A  1D800000           [06] getglobal  0   2        ; _T
A78E  0EC04000           [07] gettable   0   0   259  ; "EndlessExtermination"
fail op	35
A792  63004100           [08] close      1  
A796  1AC00580           [09] jmp        24           ; to [34]
A79A  1D400100           [10] getglobal  0   5        ; gGameRules
A79E  24804100           [11] self       0   0   262  ; 516385015
A7A2  22800001           [12] call       0   2   2  
A7A6  5D000000           [13] getglobal  1   0        ; 1074689893
A7AA  92000000           [14] move       2   0      
A7AE  62800001           [15] call       1   2   2  
A7B2  58400000           [16] test       1       1    ; to [18] if false
A7B6  1A800380           [17] jmp        15           ; to [33]
A7BA  5D400000           [18] getglobal  1   1        ; MusicSequencerType
A7BE  9DC00100           [19] getglobal  2   7        ; RandomMusicSequencerType
A7C2  8A000001           [20] len        2   2      
fail op	21
A7C6  15800084           [21] concat     0   264 2  
A7CA  1A800180           [22] jmp        7            ; to [30]
A7CE  9DC00100           [23] getglobal  2   7        ; RandomMusicSequencerType
A7D2  DD400200           [24] getglobal  3   9        ; 2144646525
A7D6  19810200           [25] loadk      4   10       ; 0
A7DA  5DC10100           [26] getglobal  5   7        ; RandomMusicSequencerType
A7DE  4A018002           [27] len        5   5      
A7E2  E2808001           [28] call       3   3   2  
A7E6  4EC00001           [29] gettable   1   2   3  
A7EA  A4C04200           [30] self       2   0   267  ; 2143938515
A7EE  12018000           [31] move       4   1      
A7F2  A2408001           [32] call       2   3   1  
A7F6  1E008000           [33] return     0   1      
A7FA  9D000300           [34] getglobal  2   12       ; gRegion
A7FE  A4404301           [35] self       2   2   269  ; 152279552
A802  1D410000           [36] getglobal  4   1        ; MusicSequencerType
A806  A2808001           [37] call       2   3   2  
A80A  CA000001           [38] len        3   2      
fail op	35
A80E  2300C201           [39] close      0  
A812  1A400880           [40] jmp        34           ; to [75]
A816  DD000300           [41] getglobal  3   12       ; gRegion
A81A  E480C301           [42] self       3   3   270  ; 65205951
A81E  E2800001           [43] call       3   2   2  
A822  1D410000           [44] getglobal  4   1        ; MusicSequencerType
A826  5DC10100           [45] getglobal  5   7        ; RandomMusicSequencerType
A82A  4A018002           [46] len        5   5      
fail op	21
A82E  15400184           [47] concat     0   264 5  
A832  1A800180           [48] jmp        7            ; to [56]
A836  5DC10100           [49] getglobal  5   7        ; RandomMusicSequencerType
A83A  9D410200           [50] getglobal  6   9        ; 2144646525
A83E  D9810200           [51] loadk      7   10       ; 0
A842  1DC20100           [52] getglobal  8   7        ; RandomMusicSequencerType
A846  0A020004           [53] len        8   8      
A84A  A2818001           [54] call       6   3   2  
A84E  0E818102           [55] gettable   4   5   6  
A852  5D010000           [56] getglobal  5   0        ; 1074689893
A856  92018001           [57] move       6   3      
A85A  62810001           [58] call       5   2   2  
A85E  58410000           [59] test       5       1    ; to [61] if false
A862  1AC00180           [60] jmp        8            ; to [69]
A866  5D010300           [61] getglobal  5   12       ; gRegion
A86A  64C1C302           [62] self       5   5   271  ; -1110225722
A86E  D2010002           [63] move       7   4      
A872  2402C401           [64] self       8   3   272  ; 1839670529
A876  22820001           [65] call       8   2   2  
A87A  5D420400           [66] getglobal  9   17       ; ZERO_ROTATION
A87E  62418002           [67] call       5   5   1  
A882  1A400180           [68] jmp        6            ; to [75]
A886  5D010300           [69] getglobal  5   12       ; gRegion
A88A  64C1C302           [70] self       5   5   271  ; -1110225722
A88E  D2010002           [71] move       7   4      
A892  1D820400           [72] getglobal  8   18       ; ZERO_VECTOR
A896  5D420400           [73] getglobal  9   17       ; ZERO_ROTATION
A89A  62418002           [74] call       5   5   1  
A89E  1E008000           [75] return     0   1      
                         * constants:
A8A2  13                 sizek (19)
A8A3  01                 const type 3
A8A4  65770E40           const [0]: (1074689893)
A8A8  04                 const type 4
A8A9  13                 string size (19)
A8AA  4D75736963536571+  "MusicSeq"
A8B2  75656E6365725479+  "uencerTy"
A8BA  706500             "pe\0"
                         const [1]: "MusicSequencerType"
A8BD  04                 const type 4
A8BE  03                 string size (3)
A8BF  5F5400             "_T\0"
                         const [2]: "_T"
A8C2  04                 const type 4
A8C3  15                 string size (21)
A8C4  456E646C65737345+  "EndlessE"
A8CC  787465726D696E61+  "xtermina"
A8D4  74696F6E00         "tion\0"
                         const [3]: "EndlessExtermination"
A8D9  00                 const type 0
                         const [4]: nil
A8DA  04                 const type 4
A8DB  0B                 string size (11)
A8DC  6747616D6552756C+  "gGameRul"
A8E4  657300             "es\0"
                         const [5]: "gGameRules"
A8E7  01                 const type 3
A8E8  F768C71E           const [6]: (516385015)
A8EC  04                 const type 4
A8ED  19                 string size (25)
A8EE  52616E646F6D4D75+  "RandomMu"
A8F6  7369635365717565+  "sicSeque"
A8FE  6E63657254797065+  "ncerType"
A906  00                 "\0"
                         const [7]: "RandomMusicSequencerType"
A907  03                 const type 3
A908  00000000           const [8]: (0)
A90C  01                 const type 3
A90D  7DB5D47F           const [9]: (2144646525)
A911  03                 const type 3
A912  0000803F           const [10]: (0)
A916  01                 const type 3
A917  D3E7C97F           const [11]: (2143938515)
A91B  04                 const type 4
A91C  08                 string size (8)
A91D  67526567696F6E00   "gRegion\0"
                         const [12]: "gRegion"
A925  01                 const type 3
A926  009A1309           const [13]: (152279552)
A92A  01                 const type 3
A92B  BFF6E203           const [14]: (65205951)
A92F  01                 const type 3
A930  C64CD3BD           const [15]: (-1110225722)
A934  01                 const type 3
A935  0125A76D           const [16]: (1839670529)
A939  04                 const type 4
A93A  0E                 string size (14)
A93B  5A45524F5F524F54+  "ZERO_ROT"
A943  4154494F4E00       "ATION\0"
                         const [17]: "ZERO_ROTATION"
A949  04                 const type 4
A94A  0C                 string size (12)
A94B  5A45524F5F564543+  "ZERO_VEC"
A953  544F5200           "TOR\0"
                         const [18]: "ZERO_VECTOR"
                         * functions:
A957  00                 sizep (0)
                         * lines:
A958  4B                 sizelineinfo (75)
                         [pc] (line)
A959  BA                 [01] (-70)
A95A  06                 [02] (-70)
A95B  00                 [03] (-70)
A95C  00                 [04] (-70)
A95D  BA                 [05] (-70)
A95E  06                 [06] (-66)
A95F  00                 [07] (-66)
A960  00                 [08] (-66)
A961  BA                 [09] (-66)
A962  06                 [10] (-65)
A963  00                 [11] (-65)
A964  00                 [12] (-65)
A965  BA                 [13] (-64)
A966  06                 [14] (-64)
A967  00                 [15] (-64)
A968  00                 [16] (-64)
A969  BA                 [17] (-64)
A96A  06                 [18] (-63)
A96B  00                 [19] (-62)
A96C  00                 [20] (-62)
A96D  BE                 [21] (-62)
A96E  06                 [22] (-62)
A96F  00                 [23] (-61)
A970  00                 [24] (-61)
A971  BE                 [25] (-61)
A972  06                 [26] (-61)
A973  00                 [27] (-61)
A974  00                 [28] (-61)
A975  BE                 [29] (-61)
A976  06                 [30] (-59)
A977  00                 [31] (-59)
A978  00                 [32] (-59)
A979  BE                 [33] (-57)
A97A  06                 [34] (-54)
A97B  00                 [35] (-54)
A97C  00                 [36] (-54)
A97D  BF                 [37] (-54)
A97E  06                 [38] (-53)
A97F  00                 [39] (-53)
A980  00                 [40] (-53)
A981  BF                 [41] (-51)
A982  06                 [42] (-51)
A983  00                 [43] (-51)
A984  00                 [44] (-50)
A985  BF                 [45] (-49)
A986  06                 [46] (-49)
A987  00                 [47] (-49)
A988  00                 [48] (-49)
A989  C0                 [49] (-48)
A98A  06                 [50] (-48)
A98B  00                 [51] (-48)
A98C  00                 [52] (-48)
A98D  C0                 [53] (-48)
A98E  06                 [54] (-48)
A98F  00                 [55] (-48)
A990  00                 [56] (-46)
A991  C0                 [57] (-46)
A992  06                 [58] (-46)
A993  00                 [59] (-46)
A994  00                 [60] (-46)
A995  C0                 [61] (-45)
A996  06                 [62] (-45)
A997  00                 [63] (-45)
A998  00                 [64] (-45)
A999  C0                 [65] (-45)
A99A  06                 [66] (-45)
A99B  00                 [67] (-45)
A99C  00                 [68] (-45)
A99D  C1                 [69] (-43)
A99E  06                 [70] (-43)
A99F  00                 [71] (-43)
A9A0  00                 [72] (-43)
A9A1  C2                 [73] (-43)
A9A2  06                 [74] (-43)
A9A3  00                 [75] (-39)
                         * locals:
AA85  00                 sizelocvars (0)
                         * upvalues:
AA86  00                 sizeupvalues (0)
                         ** end of function **

                         
AA87                     ** function [49] definition (level 2)
                         ** start of function **
AA87  00                 string size (0)
                         source name: (none)
AA89  0D                 line defined (1756)
AA8A  8D                 last line defined (2189)
AA8B  11                 nups (31)
AA8C  1F                 numparams (1)
AA8D  01                 is_vararg (0)
AA8E  00                 maxstacksize (70)
                         * code:
AA91  07                 sizecode (996)
AA92  5D000000           [001] getglobal  1   0        ; gGameRules
AA96  6440C000           [002] self       1   1   257  ; -569679
AA9A  62800001           [003] call       1   2   2  
AA9E  58400000           [004] test       1       1    ; to [6] if false
AAA2  1AC00080           [005] jmp        4            ; to [10]
AAA6  5D800000           [006] getglobal  1   2        ; _T
AAAA  4EC0C000           [007] gettable   1   1   259  ; "WareframeChallenge"
AAAE  58000000           [008] test       1       0    ; to [10] if true
AAB2  1A000080           [009] jmp        1            ; to [11]
AAB6  1E008000           [010] return     0   1      
AABA  5D800000           [011] getglobal  1   2        ; _T
AABE  9D400100           [012] getglobal  2   5        ; SameZone
AAC2  4C800082           [013] settable   1   260 2    ; "SpawnSameZone"
AAC6  5D800000           [014] getglobal  1   2        ; _T
AACA  4CC04183           [015] settable   1   262 263  ; "AvgXp" 0
AACE  5D800000           [016] getglobal  1   2        ; _T
AAD2  4CC04184           [017] settable   1   264 263  ; "XpAddCount" 0
AAD6  5D800000           [018] getglobal  1   2        ; _T
AADA  4CC0C184           [019] settable   1   265 263  ; "XpReserve" 0
AADE  5D800000           [020] getglobal  1   2        ; _T
AAE2  93000000           [021] getupval   2   0      
AAE6  A2808000           [022] call       2   1   2  
AAEA  4C800085           [023] settable   1   266 2    ; "XpPool"
AAEE  5D800000           [024] getglobal  1   2        ; _T
AAF2  9D800000           [025] getglobal  2   2        ; _T
AAF6  8E804201           [026] gettable   2   2   266  ; "XpPool"
AAFA  DDC00200           [027] getglobal  3   11       ; BaseXPPool
AAFE  83C00001           [028] add        2   2   3  
AB02  4C800085           [029] settable   1   266 2    ; "XpPool"
AB06  5D800000           [030] getglobal  1   2        ; _T
AB0A  9D400300           [031] getglobal  2   13       ; -332969190
AB0E  D9800300           [032] loadk      3   14       ; "Grineer"
AB12  A2800001           [033] call       2   2   2  
AB16  4C800086           [034] settable   1   268 2    ; "faction"
AB1A  5D800000           [035] getglobal  1   2        ; _T
AB1E  4C00C487           [036] settable   1   271 272  ; "EndCin" 0
AB22  5D800000           [037] getglobal  1   2        ; _T
AB26  4C80C488           [038] settable   1   273 274  ; "AllowWrinkles" 1
AB2A  5D800000           [039] getglobal  1   2        ; _T
AB2E  4CC0C189           [040] settable   1   275 263  ; "EnemyWarningCount" 0
AB32  5D800000           [041] getglobal  1   2        ; _T
AB36  4C00448A           [042] settable   1   276 272  ; "MissionInitReady" 0
AB3A  5D000000           [043] getglobal  1   0        ; gGameRules
AB3E  A440C500           [044] self       2   1   277  ; -1957065004
AB42  1D810500           [045] getglobal  4   22       ; gLotusPvpGameRulesType
AB46  A2808001           [046] call       2   3   2  
AB4A  D3008000           [047] getupval   3   1      
AB4E  E2408000           [048] call       3   1   1  
AB52  E4C0C500           [049] self       3   1   279  ; -1201441975
AB56  E2800001           [050] call       3   2   2  
AB5A  1D810000           [051] getglobal  4   2        ; _T
AB5E  0C41468C           [052] settable   4   280 281  ; "difficulty" 0
AB62  1D810600           [053] getglobal  4   26       ; gRegion
AB66  24C14602           [054] self       4   4   283  ; -774964848
AB6A  22810001           [055] call       4   2   2  
AB6E  64014702           [056] self       5   4   284  ; 330780783
AB72  62810001           [057] call       5   2   2  
AB76  58410000           [058] test       5       1    ; to [60] if false
AB7A  1AC00080           [059] jmp        4            ; to [64]
AB7E  5D410700           [060] getglobal  5   29       ; 538022378
AB82  99810700           [061] loadk      6   30       ; -51
AB86  62410001           [062] call       5   2   1  
AB8A  1AC0FD7F           [063] jmp        -8           ; to [56]
AB8E  64C14702           [064] self       5   4   287  ; 537471347
AB92  62810001           [065] call       5   2   2  
AB96  93010001           [066] getupval   6   2      
AB9A  A2818000           [067] call       6   1   2  
AB9E  DD810600           [068] getglobal  7   26       ; gRegion
ABA2  E401C803           [069] self       7   7   288  ; -1485896174
ABA6  5D420300           [070] getglobal  9   13       ; -332969190
ABAA  99420800           [071] loadk      10  33       ; "ObjectiveMarker"
ABAE  62020001           [072] call       9   2   0  
ABB2  E2810000           [073] call       7   0   2  
ABB6  13028001           [074] getupval   8   3      
ABBA  5D420300           [075] getglobal  9   13       ; -332969190
ABBE  99820800           [076] loadk      10  34       ; "Objective"
ABC2  62820001           [077] call       9   2   2  
ABC6  92028003           [078] move       10  7      
ABCA  22828001           [079] call       8   3   2  
ABCE  5DC20800           [080] getglobal  9   35       ; 1074689893
ABD2  92028002           [081] move       10  5      
ABD6  62820001           [082] call       9   2   2  
ABDA  58420000           [083] test       9       1    ; to [85] if false
ABDE  1AC01A80           [084] jmp        108          ; to [193]
ABE2  6402C902           [085] self       9   5   292  ; -736036065
ABE6  DD420300           [086] getglobal  11  13       ; -332969190
ABEA  19430900           [087] loadk      12  37       ; "DoNotUse"
ABEE  E2020001           [088] call       11  2   0  
ABF2  62420000           [089] call       9   0   1  
ABF6  6402C902           [090] self       9   5   292  ; -736036065
ABFA  DD420300           [091] getglobal  11  13       ; -332969190
ABFE  19830900           [092] loadk      12  38       ; "BipedSpecialSpawn"
AC02  E2020001           [093] call       11  2   0  
AC06  62420000           [094] call       9   0   1  
AC0A  6402C902           [095] self       9   5   292  ; -736036065
AC0E  DD420300           [096] getglobal  11  13       ; -332969190
AC12  19C30900           [097] loadk      12  39       ; "TurretSpawn"
AC16  E2020001           [098] call       11  2   0  
AC1A  62420000           [099] call       9   0   1  
AC1E  6402C902           [100] self       9   5   292  ; -736036065
AC22  DD420300           [101] getglobal  11  13       ; -332969190
AC26  19030A00           [102] loadk      12  40       ; "FixedTurretSpawn"
AC2A  E2020001           [103] call       11  2   0  
AC2E  62420000           [104] call       9   0   1  
AC32  6402C902           [105] self       9   5   292  ; -736036065
AC36  DD420300           [106] getglobal  11  13       ; -332969190
AC3A  19430A00           [107] loadk      12  41       ; "CameraSpawn"
AC3E  E2020001           [108] call       11  2   0  
AC42  62420000           [109] call       9   0   1  
AC46  6402C902           [110] self       9   5   292  ; -736036065
AC4A  DD420300           [111] getglobal  11  13       ; -332969190
AC4E  19830A00           [112] loadk      12  42       ; "FixedCameraSpawn"
AC52  E2020001           [113] call       11  2   0  
AC56  62420000           [114] call       9   0   1  
AC5A  6402C902           [115] self       9   5   292  ; -736036065
AC5E  DD420300           [116] getglobal  11  13       ; -332969190
AC62  19C30A00           [117] loadk      12  43       ; "FixedNarrowCameraSpawn"
AC66  E2020001           [118] call       11  2   0  
AC6A  62420000           [119] call       9   0   1  
AC6E  6402C902           [120] self       9   5   292  ; -736036065
AC72  DD420300           [121] getglobal  11  13       ; -332969190
AC76  19030B00           [122] loadk      12  44       ; "SandSpawn"
AC7A  E2020001           [123] call       11  2   0  
AC7E  62420000           [124] call       9   0   1  
AC82  6402C902           [125] self       9   5   292  ; -736036065
AC86  DD420300           [126] getglobal  11  13       ; -332969190
AC8A  19430B00           [127] loadk      12  45       ; "KubrowSpawn"
AC8E  E2020001           [128] call       11  2   0  
AC92  62420000           [129] call       9   0   1  
AC96  6402C902           [130] self       9   5   292  ; -736036065
AC9A  DD420300           [131] getglobal  11  13       ; -332969190
AC9E  19830B00           [132] loadk      12  46       ; "AllySpecterSpawn"
ACA2  E2020001           [133] call       11  2   0  
ACA6  62420000           [134] call       9   0   1  
ACAA  6402C902           [135] self       9   5   292  ; -736036065
ACAE  DD420300           [136] getglobal  11  13       ; -332969190
ACB2  19C30B00           [137] loadk      12  47       ; "DefenseAgentSpawn"
ACB6  E2020001           [138] call       11  2   0  
ACBA  62420000           [139] call       9   0   1  
ACBE  6402C902           [140] self       9   5   292  ; -736036065
ACC2  DD420300           [141] getglobal  11  13       ; -332969190
ACC6  19030C00           [142] loadk      12  48       ; "WaterSpawn"
ACCA  E2020001           [143] call       11  2   0  
ACCE  62420000           [144] call       9   0   1  
ACD2  6402C902           [145] self       9   5   292  ; -736036065
ACD6  DD420300           [146] getglobal  11  13       ; -332969190
ACDA  19430C00           [147] loadk      12  49       ; "AirSpawn"
ACDE  E2020001           [148] call       11  2   0  
ACE2  62420000           [149] call       9   0   1  
ACE6  6402C902           [150] self       9   5   292  ; -736036065
ACEA  DD420300           [151] getglobal  11  13       ; -332969190
ACEE  19830C00           [152] loadk      12  50       ; "HekSpawn"
ACF2  E2020001           [153] call       11  2   0  
ACF6  62420000           [154] call       9   0   1  
ACFA  6402C902           [155] self       9   5   292  ; -736036065
ACFE  DD420300           [156] getglobal  11  13       ; -332969190
AD02  19C30C00           [157] loadk      12  51       ; "G3Spawn"
AD06  E2020001           [158] call       11  2   0  
AD0A  62420000           [159] call       9   0   1  
AD0E  6402CD02           [160] self       9   5   308  ; -196173449
AD12  DD420D00           [161] getglobal  11  53       ; 738251817
AD16  19830D00           [162] loadk      12  54       ; "/Lotus/Types/Enemies/Corpus/Turrets/AutoTurretAgent"
AD1A  E2020001           [163] call       11  2   0  
AD1E  62420000           [164] call       9   0   1  
AD22  64C2CD02           [165] self       9   5   311  ; -974578778
AD26  D7028000           [166] loadbool   11  1   0    ; true
AD2A  62428001           [167] call       9   3   1  
AD2E  4A028003           [168] len        9   7      
fail op	21
AD32  15408283           [169] concat     0   263 9  
AD36  1A800080           [170] jmp        3            ; to [174]
AD3A  6402CE02           [171] self       9   5   312  ; -906150570
AD3E  D2020004           [172] move       11  8      
AD42  62428001           [173] call       9   3   1  
AD46  5D420E00           [174] getglobal  9   57       ; Lotus_Game
AD4A  4E82CE04           [175] gettable   9   9   314  ; -1800892246
AD4E  A4C2CE00           [176] self       10  1   315  ; -502414055
AD52  A2020001           [177] call       10  2   0  
AD56  62820000           [178] call       9   0   2  
AD5A  9DC20800           [179] getglobal  10  35       ; 1074689893
AD5E  D2028004           [180] move       11  9      
AD62  A2820001           [181] call       10  2   2  
AD66  98420000           [182] test       10      1    ; to [184] if false
AD6A  1A000180           [183] jmp        5            ; to [189]
AD6E  A402CF02           [184] self       10  5   316  ; -816694472
AD72  1D430300           [185] getglobal  12  13       ; -332969190
AD76  52038004           [186] move       13  9      
AD7A  22030001           [187] call       12  2   0  
AD7E  A2420000           [188] call       10  0   1  
AD82  A442CF02           [189] self       10  5   317  ; 1735501448
AD86  1D830000           [190] getglobal  12  2        ; _T
AD8A  0E834206           [191] gettable   12  12  266  ; "XpPool"
AD8E  A2428001           [192] call       10  3   1  
AD92  97020000           [193] loadbool   10  0   0    ; false
AD96  D9820F00           [194] loadk      11  62       ; 0
AD9A  1DC30800           [195] getglobal  12  35       ; 1074689893
AD9E  52038001           [196] move       13  3      
ADA2  22830001           [197] call       12  2   2  
ADA6  18430000           [198] test       12      1    ; to [200] if false
ADAA  1A002C80           [199] jmp        177          ; to [377]
ADAE  1DC30F00           [200] getglobal  12  63       ; -1817107093
ADB2  59031000           [201] loadk      13  64       ; "Got Mission: "
ADB6  8E43D001           [202] gettable   14  3   321  ; "descText"
ADBA  A4835007           [203] self       14  14  322  ; 1590141906
ADBE  A2830001           [204] call       14  2   2  
ADC2  D9C31000           [205] loadk      15  67       ; " difficulty: "
ADC6  0E04C601           [206] gettable   16  3   280  ; "difficulty"
ADCA  42038406           [207] concat     13  13  16 
ADCE  22430001           [208] call       12  2   1  
ADD2  0E03D101           [209] gettable   12  3   324  ; "missionType"
ADD6  6443D100           [210] self       13  1   325  ; 67868727
ADDA  62430001           [211] call       13  2   1  
ADDE  4E83D101           [212] gettable   13  3   326  ; "gravityAtten"
fail op	21
ADE2  15408383           [213] concat     0   263 13 
ADE6  1AC00180           [214] jmp        8            ; to [223]
ADEA  5D830600           [215] getglobal  13  26       ; gRegion
ADEE  64C3D106           [216] self       13  13  327  ; -156454186
ADF2  62830001           [217] call       13  2   2  
ADF6  A403D200           [218] self       14  1   328  ; 1994439211
ADFA  0E44D206           [219] gettable   16  13  329  ; "y"
ADFE  4E84D101           [220] gettable   17  3   326  ; "gravityAtten"
AE02  04440408           [221] mul        16  16  17 
AE06  A2438001           [222] call       14  3   1  
AE0A  9D831200           [223] getglobal  14  74       ; gMatchingService
AE0E  A4C35207           [224] self       14  14  331  ; -706726330
AE12  A2830001           [225] call       14  2   2  
AE16  DDC30800           [226] getglobal  15  35       ; 1074689893
AE1A  12040007           [227] move       16  14     
AE1E  E2830001           [228] call       15  2   2  
AE22  D8430000           [229] test       15      1    ; to [231] if false
AE26  1AC00280           [230] jmp        12           ; to [243]
AE2A  DDC30800           [231] getglobal  15  35       ; 1074689893
AE2E  12048002           [232] move       16  5      
AE32  E2830001           [233] call       15  2   2  
AE36  D8430000           [234] test       15      1    ; to [236] if false
AE3A  1A800180           [235] jmp        7            ; to [243]
AE3E  E4035307           [236] self       15  14  332  ; -1500347307
AE42  E2830001           [237] call       15  2   2  
fail op	21
AE46  15C083A6           [238] concat     0   333 15 
AE4A  1A800080           [239] jmp        3            ; to [243]
AE4E  E483D302           [240] self       15  5   334  ; 227144672
AE52  59C41300           [241] loadk      17  79       ; 0
AE56  E2438001           [242] call       15  3   1  
AE5A  DDC30800           [243] getglobal  15  35       ; 1074689893
AE5E  12048002           [244] move       16  5      
AE62  E2830001           [245] call       15  2   2  
AE66  D8430000           [246] test       15      1    ; to [248] if false
AE6A  1A800080           [247] jmp        3            ; to [251]
AE6E  E403D402           [248] self       15  5   336  ; 723474931
AE72  4E44D401           [249] gettable   17  3   337  ; "isSharkwingMission"
AE76  E2438001           [250] call       15  3   1  
AE7A  D3030002           [251] getupval   15  4      
AE7E  E2838000           [252] call       15  1   2  
AE82  D8030000           [253] test       15      0    ; to [255] if true
AE86  1AC00280           [254] jmp        12           ; to [267]
AE8A  DDC30800           [255] getglobal  15  35       ; 1074689893
AE8E  12048002           [256] move       16  5      
AE92  E2830001           [257] call       15  2   2  
AE96  D8430000           [258] test       15      1    ; to [260] if false
AE9A  1A800180           [259] jmp        7            ; to [267]
AE9E  E403CE02           [260] self       15  5   312  ; -906150570
AEA2  52040003           [261] move       17  6      
AEA6  E2438001           [262] call       15  3   1  
AEAA  E483D400           [263] self       15  1   338  ; 2051260977
AEAE  57048000           [264] loadbool   17  1   0    ; true
AEB2  97040000           [265] loadbool   18  0   0    ; false
AEB6  E2430002           [266] call       15  4   1  
AEBA  DD830000           [267] getglobal  15  2        ; _T
AEBE  1DC41400           [268] getglobal  16  83       ; -1828500651
AEC2  59840F00           [269] loadk      17  62       ; 0
AEC6  99041500           [270] loadk      18  84       ; 0
AECA  CE04C601           [271] gettable   19  3   280  ; "difficulty"
AECE  22840002           [272] call       16  4   2  
AED2  CC03048C           [273] settable   15  280 16   ; "difficulty"
AED6  DD830000           [274] getglobal  15  2        ; _T
AEDA  2444D501           [275] self       16  3   341  ; -272348948
AEDE  22840001           [276] call       16  2   2  
AEE2  CC030486           [277] settable   15  268 16   ; "faction"
AEE6  DD830000           [278] getglobal  15  2        ; _T
AEEA  CE03C307           [279] gettable   15  15  268  ; "faction"
AEEE  1D440300           [280] getglobal  16  13       ; -332969190
AEF2  59841500           [281] loadk      17  86       ; "Infestation"
AEF6  22840001           [282] call       16  2   2  
fail op	35
AEFA  23008407           [283] close      0  
AEFE  1A400080           [284] jmp        2            ; to [287]
AF02  DD830000           [285] getglobal  15  2        ; _T
AF06  CC834482           [286] settable   15  260 274  ; "SpawnSameZone" 1
AF0A  E4C3D500           [287] self       15  1   343  ; -1451901810
AF0E  E2830001           [288] call       15  2   2  
AF12  1D041600           [289] getglobal  16  88       ; -1692306532
AF16  52048007           [290] move       17  15     
AF1A  22440001           [291] call       16  2   1  
AF1E  1D040000           [292] getglobal  16  0        ; gGameRules
AF22  24445608           [293] self       16  16  345  ; 1239819607
AF26  22840001           [294] call       16  2   2  
AF2A  18040000           [295] test       16      0    ; to [297] if true
AF2E  1AC00080           [296] jmp        4            ; to [301]
AF32  2484D602           [297] self       16  5   346  ; 447196028
AF36  97048000           [298] loadbool   18  1   0    ; true
AF3A  22448001           [299] call       16  3   1  
AF3E  1A800C80           [300] jmp        51           ; to [352]
AF42  1DC40800           [301] getglobal  16  35       ; 1074689893
AF46  4EC4D601           [302] gettable   17  3   347  ; "invasionId"
AF4A  22840001           [303] call       16  2   2  
AF4E  18440000           [304] test       16      1    ; to [306] if false
AF52  1A800080           [305] jmp        3            ; to [309]
AF56  0EC4D601           [306] gettable   16  3   347  ; "invasionId"
fail op	35
AF5A  23005708           [307] close      0  
AF5E  1A800080           [308] jmp        3            ; to [312]
AF62  0E44D701           [309] gettable   16  3   349  ; "forceAllyFaction"
AF66  18040000           [310] test       16      0    ; to [312] if true
AF6A  1AC00980           [311] jmp        40           ; to [352]
AF6E  2484D700           [312] self       16  1   350  ; -689167287
AF72  22840001           [313] call       16  2   2  
AF76  64C4D702           [314] self       17  5   351  ; 1527427648
AF7A  62840001           [315] call       17  2   2  
AF7E  58440000           [316] test       17      1    ; to [318] if false
AF82  1A400880           [317] jmp        34           ; to [352]
AF86  4A040008           [318] len        17  16     
fail op	21
AF8A  1540049F           [319] concat     0   318 17 
AF8E  1A800780           [320] jmp        31           ; to [352]
AF92  6404D801           [321] self       17  3   352  ; -1975191744
AF96  62840001           [322] call       17  2   2  
AF9A  97040000           [323] loadbool   18  0   0    ; false
AF9E  D9840F00           [324] loadk      19  62       ; 0
AFA2  0A050008           [325] len        20  16     
AFA6  59850F00           [326] loadk      21  62       ; 0
AFAA  D0C40480           [327] forprep    19  20       ; to [348]
AFAE  CE850508           [328] gettable   23  16  22 
fail op	35
AFB2  23C08508           [329] close      0  
AFB6  1A000480           [330] jmp        17           ; to [348]
AFBA  97048000           [331] loadbool   18  1   0    ; true
AFBE  E445D802           [332] self       23  5   353  ; -1345218310
AFC2  52068008           [333] move       25  17     
AFC6  99861800           [334] loadk      26  98       ; 0
AFCA  E2450002           [335] call       23  4   1  
AFCE  E485D602           [336] self       23  5   346  ; 447196028
AFD2  57068000           [337] loadbool   25  1   0    ; true
AFD6  E2458001           [338] call       23  3   1  
AFDA  DD450E00           [339] getglobal  23  57       ; Lotus_Game
AFDE  CEC5D80B           [340] gettable   23  23  355  ; "MT_SURVIVAL"
fail op	35
AFE2  63C00506           [341] close      1  
AFE6  1AC00080           [342] jmp        4            ; to [347]
AFEA  DD450E00           [343] getglobal  23  57       ; Lotus_Game
AFEE  CE05D90B           [344] gettable   23  23  356  ; "MT_DEFENSE"
fail op	35
AFF2  23C00506           [345] close      0  
AFF6  1A000080           [346] jmp        1            ; to [348]
AFFA  97028000           [347] loadbool   10  1   0    ; true
AFFE  D484FA7F           [348] forloop    19  -21      ; to [328] if loop
B002  98440000           [349] test       18      1    ; to [351] if false
B006  1A000080           [350] jmp        1            ; to [352]
B00A  D9421900           [351] loadk      11  101      ; 0
B00E  CE85D901           [352] gettable   23  3   358  ; "goalId"
fail op	35
B012  2300D70B           [353] close      0  
B016  1AC00480           [354] jmp        20           ; to [375]
B01A  CEC5D901           [355] gettable   23  3   359  ; "sortieId"
fail op	35
B01E  2300D70B           [356] close      0  
B022  1A000480           [357] jmp        17           ; to [375]
B026  CE05DA01           [358] gettable   23  3   360  ; "syndicateId"
fail op	35
B02A  2300D70B           [359] close      0  
B02E  1A400380           [360] jmp        14           ; to [375]
B032  CE45DA01           [361] gettable   23  3   361  ; "alertId"
fail op	35
B036  2300D70B           [362] close      0  
B03A  1A800280           [363] jmp        11           ; to [375]
B03E  CEC5D601           [364] gettable   23  3   347  ; "invasionId"
fail op	35
B042  2300D70B           [365] close      0  
B046  1AC00180           [366] jmp        8            ; to [375]
B04A  DDC50800           [367] getglobal  23  35       ; 1074689893
B04E  0E86DA01           [368] gettable   24  3   362  ; "keyChainName"
B052  E2850001           [369] call       23  2   2  
B056  D8050000           [370] test       23      0    ; to [372] if true
B05A  1A800080           [371] jmp        3            ; to [375]
B05E  CEC5DA01           [372] gettable   23  3   363  ; "nightmare"
B062  D8050000           [373] test       23      0    ; to [375] if true
B066  1A400080           [374] jmp        2            ; to [377]
B06A  DD850000           [375] getglobal  23  2        ; _T
B06E  CC05C488           [376] settable   23  273 272  ; "AllowWrinkles" 0
B072  98000000           [377] test       2       0    ; to [379] if true
B076  1A000080           [378] jmp        1            ; to [380]
B07A  1E008000           [379] return     0   1      
B07E  E405DB00           [380] self       23  1   364  ; -76416085
B082  5D860000           [381] getglobal  25  2        ; _T
B086  4E06C60C           [382] gettable   25  25  280  ; "difficulty"
B08A  E2458001           [383] call       23  3   1  
B08E  DD850600           [384] getglobal  23  26       ; gRegion
B092  E405C80B           [385] self       23  23  288  ; -1485896174
B096  5D460300           [386] getglobal  25  13       ; -332969190
B09A  99461B00           [387] loadk      26  109      ; "ObjectiveDoor"
B09E  62060001           [388] call       25  2   0  
B0A2  E2850000           [389] call       23  0   2  
B0A6  0A06800B           [390] len        24  23     
fail op	21
B0AA  15008683           [391] concat     0   263 24 
B0AE  1A000280           [392] jmp        9            ; to [402]
B0B2  19860F00           [393] loadk      24  62       ; 0
B0B6  4A06800B           [394] len        25  23     
B0BA  99860F00           [395] loadk      26  62       ; 0
B0BE  10C60080           [396] forprep    24  4        ; to [401]
B0C2  0EC7860B           [397] gettable   28  23  27 
B0C6  24875B0E           [398] self       28  28  366  ; -1923578185
B0CA  99C71B00           [399] loadk      30  111      ; "Execute"
B0CE  22478001           [400] call       28  3   1  
B0D2  1486FE7F           [401] forloop    24  -5       ; to [397] if loop
B0D6  1D071C00           [402] getglobal  28  112      ; gPromotedToHost
B0DA  18070000           [403] test       28      0    ; to [405] if true
B0DE  1A400080           [404] jmp        2            ; to [407]
B0E2  13078002           [405] getupval   28  5      
B0E6  22478000           [406] call       28  1   1  
B0EA  2447DC02           [407] self       28  5   369  ; 146516505
B0EE  99871C00           [408] loadk      30  114      ; 0
B0F2  22478001           [409] call       28  3   1  
B0F6  24C7DC02           [410] self       28  5   371  ; 218788563
B0FA  97070000           [411] loadbool   30  0   0    ; false
B0FE  22478001           [412] call       28  3   1  
B102  13070003           [413] getupval   28  6      
B106  22478000           [414] call       28  1   1  
B10A  13078003           [415] getupval   28  7      
B10E  22478000           [416] call       28  1   1  
B112  1D870000           [417] getglobal  28  2        ; _T
B116  0C874FBA           [418] settable   28  372 318  ; "currentAiCount" 0
B11A  13070004           [419] getupval   28  8      
B11E  22478000           [420] call       28  1   1  
B122  13078004           [421] getupval   28  9      
B126  22478000           [422] call       28  1   1  
B12A  1D471D00           [423] getglobal  28  117      ; isOpenSpace
B12E  18070000           [424] test       28      0    ; to [426] if true
B132  1A800580           [425] jmp        23           ; to [449]
B136  1D870600           [426] getglobal  28  26       ; gRegion
B13A  2407480E           [427] self       28  28  288  ; -1485896174
B13E  9D470300           [428] getglobal  30  13       ; -332969190
B142  D9871D00           [429] loadk      31  118      ; "OpenSpace"
B146  A2070001           [430] call       30  2   0  
B14A  22870000           [431] call       28  0   2  
B14E  59870F00           [432] loadk      29  62       ; 0
B152  8A07000E           [433] len        30  28     
B156  D9870F00           [434] loadk      31  62       ; 0
B15A  50C70080           [435] forprep    29  4        ; to [440]
B15E  4E08080E           [436] gettable   33  28  32 
B162  6488DB10           [437] self       33  33  366  ; -1923578185
B166  D9C81B00           [438] loadk      35  111      ; "Execute"
B16A  62488001           [439] call       33  3   1  
B16E  5487FE7F           [440] forloop    29  -5       ; to [436] if loop
B172  5D480700           [441] getglobal  33  29       ; 538022378
B176  99C80100           [442] loadk      34  7        ; 0
B17A  62480001           [443] call       33  2   1  
B17E  64C8DD02           [444] self       33  5   375  ; 2082933324
B182  DD480300           [445] getglobal  35  13       ; -332969190
B186  19091E00           [446] loadk      36  120      ; "SpacePathVolume"
B18A  E2080001           [447] call       35  2   0  
B18E  62480000           [448] call       33  0   1  
B192  5D081C00           [449] getglobal  33  112      ; gPromotedToHost
B196  58480000           [450] test       33      1    ; to [452] if false
B19A  1A000A80           [451] jmp        41           ; to [493]
B19E  53080005           [452] getupval   33  10     
B1A2  62488000           [453] call       33  1   1  
B1A6  53088005           [454] getupval   33  11     
B1AA  62488000           [455] call       33  1   1  
B1AE  53080006           [456] getupval   33  12     
B1B2  92088002           [457] move       34  5      
B1B6  62480001           [458] call       33  2   1  
B1BA  5DC80800           [459] getglobal  33  35       ; 1074689893
B1BE  9D080000           [460] getglobal  34  0        ; gGameRules
B1C2  62880001           [461] call       33  2   2  
B1C6  58480000           [462] test       33      1    ; to [464] if false
B1CA  1A800580           [463] jmp        23           ; to [487]
B1CE  5D080000           [464] getglobal  33  0        ; gGameRules
B1D2  6448C510           [465] self       33  33  277  ; -1957065004
B1D6  DD481E00           [466] getglobal  35  121      ; gLotusSandBoxGameRulesType
B1DA  62888001           [467] call       33  3   2  
B1DE  58480000           [468] test       33      1    ; to [470] if false
B1E2  1A000480           [469] jmp        17           ; to [487]
B1E6  5D881E00           [470] getglobal  33  122      ; disableSpawnedLoot
B1EA  58480000           [471] test       33      1    ; to [473] if false
B1EE  1A400380           [472] jmp        14           ; to [487]
B1F2  53088006           [473] getupval   33  13     
B1F6  62488000           [474] call       33  1   1  
B1FA  53080007           [475] getupval   33  14     
B1FE  62488000           [476] call       33  1   1  
B202  53088007           [477] getupval   33  15     
B206  62488000           [478] call       33  1   1  
B20A  53080008           [479] getupval   33  16     
B20E  62488000           [480] call       33  1   1  
B212  53088008           [481] getupval   33  17     
B216  62488000           [482] call       33  1   1  
B21A  53080009           [483] getupval   33  18     
B21E  62488000           [484] call       33  1   1  
B222  53088009           [485] getupval   33  19     
B226  62488000           [486] call       33  1   1  
B22A  5308000A           [487] getupval   33  20     
B22E  62488000           [488] call       33  1   1  
B232  5308800A           [489] getupval   33  21     
B236  62488000           [490] call       33  1   1  
B23A  5308000B           [491] getupval   33  22     
B23E  62488000           [492] call       33  1   1  
B242  5D081C00           [493] getglobal  33  112      ; gPromotedToHost
B246  58480000           [494] test       33      1    ; to [496] if false
B24A  1A000280           [495] jmp        9            ; to [505]
B24E  5D880000           [496] getglobal  33  2        ; _T
B252  4EC8DE10           [497] gettable   33  33  379  ; "UseAiDirectorPopulationSpawnCount"
B256  58080000           [498] test       33      0    ; to [500] if true
B25A  1AC00480           [499] jmp        20           ; to [520]
B25E  6408DF02           [500] self       33  5   380  ; 1285722776
B262  DD880000           [501] getglobal  35  2        ; _T
B266  CE48DF11           [502] gettable   35  35  381  ; "MaxEnemyCount"
B26A  62488001           [503] call       33  3   1  
B26E  1A800380           [504] jmp        15           ; to [520]
B272  6488DF00           [505] self       33  1   382  ; -317790213
B276  DD480300           [506] getglobal  35  13       ; -332969190
B27A  19C91F00           [507] loadk      36  127      ; "ExterminateMid"
B27E  E2080001           [508] call       35  2   0  
B282  62880000           [509] call       33  0   2  
fail op	35
B286  23C0C110           [510] close      0  
B28A  1AC00180           [511] jmp        8            ; to [520]
B28E  5D880000           [512] getglobal  33  2        ; _T
B292  4EC8DE10           [513] gettable   33  33  379  ; "UseAiDirectorPopulationSpawnCount"
B296  58080000           [514] test       33      0    ; to [516] if true
B29A  1AC00080           [515] jmp        4            ; to [520]
B29E  6408DF02           [516] self       33  5   380  ; 1285722776
B2A2  DD880000           [517] getglobal  35  2        ; _T
B2A6  CE48DF11           [518] gettable   35  35  381  ; "MaxEnemyCount"
B2AA  62488001           [519] call       33  3   1  
B2AE  6408E002           [520] self       33  5   384  ; -110386376
B2B2  D7080000           [521] loadbool   35  0   0    ; false
B2B6  62488001           [522] call       33  3   1  
B2BA  5308800B           [523] getupval   33  23     
B2BE  62488000           [524] call       33  1   1  
B2C2  5D880000           [525] getglobal  33  2        ; _T
B2C6  4E08C610           [526] gettable   33  33  280  ; "difficulty"
fail op	33
B2CA  214088A6           [527] tforloop   0       33   ; to [529] if exit
B2CE  1A400080           [528] jmp        2            ; to [531]
B2D2  5D880000           [529] getglobal  33  2        ; _T
B2D6  4C88E0C0           [530] settable   33  385 386  ; "MaxAI" 0
B2DA  5D880000           [531] getglobal  33  2        ; _T
B2DE  4E08C610           [532] gettable   33  33  280  ; "difficulty"
fail op	21
B2E2  1540D310           [533] concat     0   33  333
B2E6  1A400080           [534] jmp        2            ; to [537]
B2EA  5D880000           [535] getglobal  33  2        ; _T
B2EE  4C88DCC0           [536] settable   33  385 370  ; "MaxAI" 0
B2F2  5D880000           [537] getglobal  33  2        ; _T
B2F6  4E08C610           [538] gettable   33  33  280  ; "difficulty"
fail op	21
B2FA  1540C610           [539] concat     0   33  281
B2FE  1A400080           [540] jmp        2            ; to [543]
B302  5D880000           [541] getglobal  33  2        ; _T
B306  4C48D3C0           [542] settable   33  385 333  ; "MaxAI" 0
B30A  64C8E002           [543] self       33  5   387  ; 1511800001
B30E  DD880000           [544] getglobal  35  2        ; _T
B312  CE48E011           [545] gettable   35  35  385  ; "MaxAI"
B316  62488001           [546] call       33  3   1  
B31A  6408E102           [547] self       33  5   388  ; -1356168136
B31E  DD880000           [548] getglobal  35  2        ; _T
B322  CE08C611           [549] gettable   35  35  280  ; "difficulty"
B326  62488001           [550] call       33  3   1  
B32A  5DC80800           [551] getglobal  33  35       ; 1074689893
B32E  92088001           [552] move       34  3      
B332  62880001           [553] call       33  2   2  
B336  58480000           [554] test       33      1    ; to [556] if false
B33A  1A001380           [555] jmp        77           ; to [633]
B33E  4E08D101           [556] gettable   33  3   324  ; "missionType"
B342  9D480E00           [557] getglobal  34  57       ; Lotus_Game
B346  8E085911           [558] gettable   34  34  356  ; "MT_DEFENSE"
fail op	35
B34A  63808810           [559] close      1  
B34E  1A800C80           [560] jmp        51           ; to [612]
B352  9D480E00           [561] getglobal  34  57       ; Lotus_Game
B356  8EC85811           [562] gettable   34  34  355  ; "MT_SURVIVAL"
fail op	35
B35A  63808810           [563] close      1  
B35E  1A800B80           [564] jmp        47           ; to [612]
B362  9D480E00           [565] getglobal  34  57       ; Lotus_Game
B366  8E486111           [566] gettable   34  34  389  ; "MT_TERRITORY"
fail op	35
B36A  63808810           [567] close      1  
B36E  1A800A80           [568] jmp        43           ; to [612]
B372  9D480E00           [569] getglobal  34  57       ; Lotus_Game
B376  8E886111           [570] gettable   34  34  390  ; "MT_EXCAVATE"
fail op	35
B37A  63808810           [571] close      1  
B37E  1A800980           [572] jmp        39           ; to [612]
B382  9D480E00           [573] getglobal  34  57       ; Lotus_Game
B386  8EC86111           [574] gettable   34  34  391  ; "MT_PURSUIT"
fail op	35
B38A  63808810           [575] close      1  
B38E  1A800880           [576] jmp        35           ; to [612]
B392  9D480E00           [577] getglobal  34  57       ; Lotus_Game
B396  8E086211           [578] gettable   34  34  392  ; "MT_RAID"
fail op	35
B39A  63808810           [579] close      1  
B39E  1A800780           [580] jmp        31           ; to [612]
B3A2  9D480E00           [581] getglobal  34  57       ; Lotus_Game
B3A6  8E486211           [582] gettable   34  34  393  ; "MT_PURIFY"
fail op	35
B3AA  63808810           [583] close      1  
B3AE  1A800680           [584] jmp        27           ; to [612]
B3B2  9D480E00           [585] getglobal  34  57       ; Lotus_Game
B3B6  8E886211           [586] gettable   34  34  394  ; "MT_ARENA"
fail op	35
B3BA  63808810           [587] close      1  
B3BE  1A800580           [588] jmp        23           ; to [612]
B3C2  9D480E00           [589] getglobal  34  57       ; Lotus_Game
B3C6  8EC86211           [590] gettable   34  34  395  ; "MT_LANDSCAPE"
fail op	35
B3CA  63808810           [591] close      1  
B3CE  1A800480           [592] jmp        19           ; to [612]
B3D2  9D480E00           [593] getglobal  34  57       ; Lotus_Game
B3D6  8E086311           [594] gettable   34  34  396  ; "MT_ARTIFACT"
fail op	35
B3DA  63808810           [595] close      1  
B3DE  1A800380           [596] jmp        15           ; to [612]
B3E2  9D480E00           [597] getglobal  34  57       ; Lotus_Game
B3E6  8E486311           [598] gettable   34  34  397  ; "MT_RAILJACK"
fail op	35
B3EA  63808810           [599] close      1  
B3EE  1A800280           [600] jmp        11           ; to [612]
B3F2  9D882300           [601] getglobal  34  142      ; enableAutoSpawns
fail op	35
B3F6  23804411           [602] close      0  
B3FA  1AC00180           [603] jmp        8            ; to [612]
B3FE  9DC80800           [604] getglobal  34  35       ; 1074689893
B402  D2088002           [605] move       35  5      
B406  A2880001           [606] call       34  2   2  
B40A  98480000           [607] test       34      1    ; to [609] if false
B40E  1A800080           [608] jmp        3            ; to [612]
B412  A408E002           [609] self       34  5   384  ; -110386376
B416  17098000           [610] loadbool   36  1   0    ; true
B41A  A2488001           [611] call       34  3   1  
B41E  9DC80800           [612] getglobal  34  35       ; 1074689893
B422  CEC8D601           [613] gettable   35  3   347  ; "invasionId"
B426  A2880001           [614] call       34  2   2  
B42A  98480000           [615] test       34      1    ; to [617] if false
B42E  1A800080           [616] jmp        3            ; to [620]
B432  8EC8D601           [617] gettable   34  3   347  ; "invasionId"
fail op	35
B436  63005711           [618] close      1  
B43A  1AC0FF7F           [619] jmp        0            ; to [620]
B43E  9D480E00           [620] getglobal  34  57       ; Lotus_Game
B442  8EC86211           [621] gettable   34  34  395  ; "MT_LANDSCAPE"
fail op	35
B446  23808810           [622] close      0  
B44A  1A400080           [623] jmp        2            ; to [626]
B44E  9308000C           [624] getupval   34  24     
B452  A2488000           [625] call       34  1   1  
B456  A4C8E302           [626] self       34  5   399  ; -2089279159
B45A  A2880001           [627] call       34  2   2  
B45E  98080000           [628] test       34      0    ; to [630] if true
B462  1A800080           [629] jmp        3            ; to [633]
B466  A408E002           [630] self       34  5   384  ; -110386376
B46A  17090000           [631] loadbool   36  0   0    ; false
B46E  A2488001           [632] call       34  3   1  
B472  A408E402           [633] self       34  5   400  ; 1075734651
B476  1D890000           [634] getglobal  36  2        ; _T
B47A  0E094312           [635] gettable   36  36  268  ; "faction"
B47E  52098005           [636] move       37  11     
B482  A2480002           [637] call       34  4   1  
B486  9D880000           [638] getglobal  34  2        ; _T
B48A  8C08C4C8           [639] settable   34  401 272  ; "FactionSwapped" 0
B48E  9D880000           [640] getglobal  34  2        ; _T
B492  8CC864C9           [641] settable   34  402 403  ; "MaxCombatTime" 0
B496  9D880000           [642] getglobal  34  2        ; _T
B49A  8C4865CA           [643] settable   34  404 405  ; "MinCombatTime" 0
B49E  9D880000           [644] getglobal  34  2        ; _T
B4A2  8CC853CB           [645] settable   34  406 335  ; "MaxDownTime" 0
B4A6  9D880000           [646] getglobal  34  2        ; _T
B4AA  8C48E5CB           [647] settable   34  407 405  ; "MinDownTime" 0
B4AE  9D880000           [648] getglobal  34  2        ; _T
B4B2  8C8847CC           [649] settable   34  408 286  ; "SpawnDelay" -51
B4B6  99C80100           [650] loadk      34  7        ; 0
B4BA  E448E602           [651] self       35  5   409  ; 117162989
B4BE  52090011           [652] move       37  34     
B4C2  E2488001           [653] call       35  3   1  
B4C6  DD880000           [654] getglobal  35  2        ; _T
B4CA  CCC841CD           [655] settable   35  410 263  ; "musicTimer" 0
B4CE  DD880000           [656] getglobal  35  2        ; _T
B4D2  CC08E7CD           [657] settable   35  411 412  ; "center" nil
B4D6  DD880000           [658] getglobal  35  2        ; _T
B4DA  CC08E7CE           [659] settable   35  413 412  ; "dir" nil
B4DE  D9882700           [660] loadk      35  158      ; 0
B4E2  98020000           [661] test       10      0    ; to [663] if true
B4E6  1A000780           [662] jmp        29           ; to [692]
B4EA  1D890600           [663] getglobal  36  26       ; gRegion
B4EE  24C96712           [664] self       36  36  415  ; -2071158816
B4F2  22890001           [665] call       36  2   2  
B4F6  59890F00           [666] loadk      37  62       ; 0
B4FA  99091500           [667] loadk      38  84       ; 0
B4FE  D9890F00           [668] loadk      39  62       ; 0
B502  50090580           [669] forprep    37  21       ; to [691]
B506  640AE802           [670] self       41  5   416  ; 1074164446
B50A  C60A8015           [671] loadnil    43  43     
B50E  628A8001           [672] call       41  3   2  
B512  9DCA0800           [673] getglobal  42  35       ; 1074689893
B516  D20A0012           [674] move       43  36     
B51A  A28A0001           [675] call       42  2   2  
B51E  984A0000           [676] test       42      1    ; to [678] if false
B522  1A000380           [677] jmp        13           ; to [691]
B526  8A0A0012           [678] len        42  36     
fail op	33
B52A  21800A9F           [679] tforloop   0       42   ; to [681] if exit
B52E  1A400280           [680] jmp        10           ; to [691]
B532  A44AE814           [681] self       42  41  417  ; -800154281
B536  1D4B0300           [682] getglobal  44  13       ; -332969190
B53A  598B2800           [683] loadk      45  162      ; "StormTarget"
B53E  228B0001           [684] call       44  2   2  
B542  5DCB2800           [685] getglobal  45  163      ; 2144646525
B546  998B0F00           [686] loadk      46  62       ; 0
B54A  CA0B0012           [687] len        47  36     
B54E  628B8001           [688] call       45  3   2  
B552  4E4B0B12           [689] gettable   45  36  45 
B556  A24A0002           [690] call       42  4   1  
B55A  5449FA7F           [691] forloop    37  -22      ; to [670] if loop
B55E  930A800C           [692] getupval   42  25     
B562  8E0A6915           [693] gettable   42  42  420  ; 905766082
B566  A28A8000           [694] call       42  1   2  
B56A  980A0000           [695] test       42      0    ; to [697] if true
B56E  1A400180           [696] jmp        6            ; to [703]
B572  9D4A0700           [697] getglobal  42  29       ; 538022378
B576  D9CA0100           [698] loadk      43  7        ; 0
B57A  A24A0001           [699] call       42  2   1  
B57E  930A800C           [700] getupval   42  25     
B582  8E4A6915           [701] gettable   42  42  421  ; -1575021655
B586  A24A8000           [702] call       42  1   1  
B58A  9D8A0000           [703] getglobal  42  2        ; _T
B58E  8C8A448A           [704] settable   42  276 274  ; "MissionInitReady" 1
B592  930A000D           [705] getupval   42  26     
B596  A28A8000           [706] call       42  1   2  
B59A  980A0000           [707] test       42      0    ; to [709] if true
B59E  1A000080           [708] jmp        1            ; to [710]
B5A2  1E008000           [709] return     0   1      
B5A6  9DCA0800           [710] getglobal  42  35       ; 1074689893
B5AA  DD8A0000           [711] getglobal  43  2        ; _T
B5AE  CE8AE915           [712] gettable   43  43  422  ; "AmbientMissionTransmissionSet"
B5B2  A28A0001           [713] call       42  2   2  
B5B6  980A0000           [714] test       42      0    ; to [716] if true
B5BA  1A800080           [715] jmp        3            ; to [719]
B5BE  9D8A0000           [716] getglobal  42  2        ; _T
B5C2  DDCA2900           [717] getglobal  43  167      ; ambientMissionTransSet
B5C6  8CCA0AD3           [718] settable   42  422 43   ; "AmbientMissionTransmissionSet"
B5CA  9D4A0700           [719] getglobal  42  29       ; 538022378
B5CE  D90A1500           [720] loadk      43  84       ; 0
B5D2  A24A0001           [721] call       42  2   1  
B5D6  970A0000           [722] loadbool   42  0   0    ; false
B5DA  D9CA0100           [723] loadk      43  7        ; 0
B5DE  190B2A00           [724] loadk      44  168      ; 0
B5E2  4E4BEA01           [725] gettable   45  3   425  ; "syndicateTag"
B5E6  9D4B0300           [726] getglobal  46  13       ; -332969190
B5EA  D98B2A00           [727] loadk      47  170      ; "AssassinsSyndicate"
B5EE  A28B0001           [728] call       46  2   2  
fail op	35
B5F2  23808B16           [729] close      0  
B5F6  1A000180           [730] jmp        5            ; to [736]
B5FA  4E0BD101           [731] gettable   45  3   324  ; "missionType"
B5FE  9D4B0E00           [732] getglobal  46  57       ; Lotus_Game
B602  8E8B6217           [733] gettable   46  46  394  ; "MT_ARENA"
fail op	35
B606  23808B16           [734] close      0  
B60A  1A000080           [735] jmp        1            ; to [737]
B60E  574B0000           [736] loadbool   45  0   1    ; false, to [738]
B612  570B8000           [737] loadbool   45  1   0    ; true
B616  580B0000           [738] test       45      0    ; to [740] if true
B61A  1A400280           [739] jmp        10           ; to [750]
B61E  99CB0100           [740] loadk      46  7        ; 0
B622  A0CB2A00           [741] setglobal  46  171      ; timeoutDuration
B626  8E0BD101           [742] gettable   46  3   324  ; "missionType"
B62A  DD4B0E00           [743] getglobal  47  57       ; Lotus_Game
B62E  CE0BEB17           [744] gettable   47  47  428  ; "MT_CAPTURE"
fail op	35
B632  23C00B17           [745] close      0  
B636  1A400080           [746] jmp        2            ; to [749]
B63A  194B2B00           [747] loadk      44  173      ; 0
B63E  1A000080           [748] jmp        1            ; to [750]
B642  198B2700           [749] loadk      44  158      ; 0
B646  9DCB2A00           [750] getglobal  46  171      ; timeoutDuration
B64A  D70B0000           [751] loadbool   47  0   0    ; false
B64E  198C0F00           [752] loadk      48  62       ; 0
B652  648CEB02           [753] self       49  5   430  ; -1389337896
B656  628C0001           [754] call       49  2   2  
B65A  A4CCEB02           [755] self       50  5   431  ; 1522233816
B65E  A28C0001           [756] call       50  2   2  
B662  438C8C18           [757] add        49  49  50 
B666  A48CDF00           [758] self       50  1   382  ; -317790213
B66A  130D800D           [759] getupval   52  27     
B66E  59CD0100           [760] loadk      53  7        ; 0
B672  A28C0002           [761] call       50  4   2  
B676  DD8C0000           [762] getglobal  51  2        ; _T
B67A  CE0CEC19           [763] gettable   51  51  432  ; "idleTimoutReset"
fail op	35
B67E  2300E719           [764] close      0  
B682  1A400080           [765] jmp        2            ; to [768]
B686  DD8C0000           [766] getglobal  51  2        ; _T
B68A  CC0C44D8           [767] settable   51  432 272  ; "idleTimoutReset" 0
B68E  DD4C2C00           [768] getglobal  51  177      ; isArchwingMission
B692  D84C0000           [769] test       51      1    ; to [771] if false
B696  1A000780           [770] jmp        29           ; to [800]
B69A  DD8C0000           [771] getglobal  51  2        ; _T
B69E  CE4CE419           [772] gettable   51  51  401  ; "FactionSwapped"
B6A2  D80C0000           [773] test       51      0    ; to [775] if true
B6A6  1AC00180           [774] jmp        8            ; to [783]
B6AA  DD8C0000           [775] getglobal  51  2        ; _T
B6AE  CC0CC4C8           [776] settable   51  401 272  ; "FactionSwapped" 0
B6B2  D30C000E           [777] getupval   51  28     
B6B6  1D8D0000           [778] getglobal  52  2        ; _T
B6BA  0E0D431A           [779] gettable   52  52  268  ; "faction"
B6BE  E24C0001           [780] call       51  2   1  
B6C2  D9C80100           [781] loadk      35  7        ; 0
B6C6  1A000380           [782] jmp        13           ; to [796]
B6CA  E48CEC02           [783] self       51  5   434  ; 897191517
B6CE  E28C0001           [784] call       51  2   2  
B6D2  D80C0000           [785] test       51      0    ; to [787] if true
B6D6  1A000280           [786] jmp        9            ; to [796]
fail op	21
B6DA  15C008CF           [787] concat     0   414 35 
B6DE  1A000180           [788] jmp        5            ; to [794]
B6E2  D30C000E           [789] getupval   51  28     
B6E6  1D8D0000           [790] getglobal  52  2        ; _T
B6EA  0E0D431A           [791] gettable   52  52  268  ; "faction"
B6EE  E24C0001           [792] call       51  2   1  
B6F2  D9C80100           [793] loadk      35  7        ; 0
B6F6  E4CCEC02           [794] self       51  5   435  ; 1974440129
B6FA  E24C0001           [795] call       51  2   1  
B6FE  DD0C2D00           [796] getglobal  51  180      ; 1289681407
B702  E28C8000           [797] call       51  1   2  
B706  C3CC0C18           [798] add        51  48  51 
B70A  C3C88C11           [799] add        35  35  51 
B70E  E44CED02           [800] self       51  5   437  ; -287792134
B712  E28C0001           [801] call       51  2   2  
B716  D80C0000           [802] test       51      0    ; to [804] if true
B71A  1AC00080           [803] jmp        4            ; to [808]
B71E  130D0002           [804] getupval   52  4      
B722  228D8000           [805] call       52  1   2  
B726  180D0000           [806] test       52      0    ; to [808] if true
B72A  1A000380           [807] jmp        13           ; to [821]
fail op	33
B72E  21C00ADB           [808] tforloop   0       43   ; to [810] if exit
B732  1A800280           [809] jmp        11           ; to [821]
B736  984A0000           [810] test       42      1    ; to [812] if false
B73A  1A000280           [811] jmp        9            ; to [821]
B73E  1DCD0800           [812] getglobal  52  35       ; 1074689893
B742  64CDED00           [813] self       53  1   439  ; -1159427479
B746  620D0001           [814] call       53  2   0  
B74A  228D0000           [815] call       52  0   2  
B74E  180D0000           [816] test       52      0    ; to [818] if true
B752  1A800080           [817] jmp        3            ; to [821]
B756  130D800E           [818] getupval   52  29     
B75A  224D8000           [819] call       52  1   1  
B75E  970A8000           [820] loadbool   42  1   0    ; true
B762  1D4D0700           [821] getglobal  52  29       ; 538022378
B766  520D0018           [822] move       53  48     
B76A  224D0001           [823] call       52  2   1  
B76E  030D8C15           [824] add        52  43  48 
B772  5D0D2D00           [825] getglobal  53  180      ; 1289681407
B776  628D8000           [826] call       53  1   2  
B77A  C34A0D1A           [827] add        43  52  53 
B77E  1DCD0800           [828] getglobal  52  35       ; 1074689893
B782  520D8000           [829] move       53  1      
B786  228D0001           [830] call       52  2   2  
B78A  180D0000           [831] test       52      0    ; to [833] if true
B78E  1A000080           [832] jmp        1            ; to [834]
B792  1A402880           [833] jmp        162          ; to [996]
B796  244DC500           [834] self       52  1   277  ; -1957065004
B79A  9D4D1E00           [835] getglobal  54  121      ; gLotusSandBoxGameRulesType
B79E  228D8001           [836] call       52  3   2  
B7A2  184D0000           [837] test       52      1    ; to [839] if false
B7A6  1A00EE7F           [838] jmp        -71          ; to [768]
B7AA  244DC500           [839] self       52  1   277  ; -1957065004
B7AE  9D0D2E00           [840] getglobal  54  184      ; gLotusHubGameRulesType
B7B2  228D8001           [841] call       52  3   2  
B7B6  184D0000           [842] test       52      1    ; to [844] if false
B7BA  1AC0EC7F           [843] jmp        -76          ; to [768]
B7BE  244DC500           [844] self       52  1   277  ; -1957065004
B7C2  9D4D2E00           [845] getglobal  54  185      ; gLotusDojoGameRulesType
B7C6  228D8001           [846] call       52  3   2  
B7CA  184D0000           [847] test       52      1    ; to [849] if false
B7CE  1A80EB7F           [848] jmp        -81          ; to [768]
B7D2  1D8D0600           [849] getglobal  52  26       ; gRegion
B7D6  248D6E1A           [850] self       52  52  442  ; -1520831144
B7DA  228D0001           [851] call       52  2   2  
B7DE  180D0000           [852] test       52      0    ; to [854] if true
B7E2  1A40EA7F           [853] jmp        -86          ; to [768]
B7E6  1DCD0800           [854] getglobal  52  35       ; 1074689893
B7EA  4E8DDA01           [855] gettable   53  3   362  ; "keyChainName"
B7EE  228D0001           [856] call       52  2   2  
B7F2  180D0000           [857] test       52      0    ; to [859] if true
B7F6  1A00E97F           [858] jmp        -91          ; to [768]
B7FA  0E0DD101           [859] gettable   52  3   324  ; "missionType"
B7FE  5D4D0E00           [860] getglobal  53  57       ; Lotus_Game
B802  4ECDEE1A           [861] gettable   53  53  443  ; "MT_MASTERY"
fail op	35
B806  63400D1A           [862] close      1  
B80A  1AC0E77F           [863] jmp        -96          ; to [768]
B80E  0E0DD101           [864] gettable   52  3   324  ; "missionType"
B812  5D4D0E00           [865] getglobal  53  57       ; Lotus_Game
B816  4ECDE21A           [866] gettable   53  53  395  ; "MT_LANDSCAPE"
fail op	35
B81A  63400D1A           [867] close      1  
B81E  1A80E67F           [868] jmp        -101         ; to [768]
B822  0E0DD101           [869] gettable   52  3   324  ; "missionType"
B826  5D4D0E00           [870] getglobal  53  57       ; Lotus_Game
B82A  4E8DE21A           [871] gettable   53  53  394  ; "MT_ARENA"
fail op	35
B82E  23400D1A           [872] close      0  
B832  1A000180           [873] jmp        5            ; to [879]
B836  0E0DC301           [874] gettable   52  3   268  ; "faction"
B83A  5D4D0E00           [875] getglobal  53  57       ; Lotus_Game
B83E  4E0DEF1A           [876] gettable   53  53  444  ; "FC_CORPUS"
fail op	35
B842  63400D1A           [877] close      1  
B846  1A00E47F           [878] jmp        -111         ; to [768]
B84A  1D8D0000           [879] getglobal  52  2        ; _T
B84E  0E4D6F1A           [880] gettable   52  52  445  ; "tutorialActive"
B852  184D0000           [881] test       52      1    ; to [883] if false
B856  1A00E37F           [882] jmp        -115         ; to [768]
B85A  1D8D2F00           [883] getglobal  52  190      ; gGameConfig
B85E  24CD6F1A           [884] self       52  52  447  ; 1803659381
B862  9D8D0600           [885] getglobal  54  26       ; gRegion
B866  A40D701B           [886] self       54  54  448  ; 1250786858
B86A  A20D0001           [887] call       54  2   0  
B86E  228D0000           [888] call       52  0   2  
B872  184D0000           [889] test       52      1    ; to [891] if false
B876  1A00E17F           [890] jmp        -123         ; to [768]
B87A  170D0000           [891] loadbool   52  0   0    ; false
B87E  570D0000           [892] loadbool   53  0   0    ; false
B882  580D0000           [893] test       53      0    ; to [895] if true
B886  1A000080           [894] jmp        1            ; to [896]
B88A  170D8000           [895] loadbool   52  1   0    ; true
B88E  648DEB02           [896] self       53  5   430  ; -1389337896
B892  628D0001           [897] call       53  2   2  
B896  A4CDEB02           [898] self       54  5   431  ; 1522233816
B89A  A28D0001           [899] call       54  2   2  
B89E  438D8D1A           [900] add        53  53  54 
fail op	35
B8A2  63408D18           [901] close      1  
B8A6  1A400080           [902] jmp        2            ; to [905]
B8AA  520C801A           [903] move       49  53     
B8AE  170D8000           [904] loadbool   52  1   0    ; true
B8B2  A48DDF00           [905] self       54  1   382  ; -317790213
B8B6  130E800D           [906] getupval   56  27     
B8BA  59CE0100           [907] loadk      57  7        ; 0
B8BE  A28D0002           [908] call       54  4   2  
fail op	35
B8C2  63800D19           [909] close      1  
B8C6  1A400080           [910] jmp        2            ; to [913]
B8CA  920C001B           [911] move       50  54     
B8CE  170D8000           [912] loadbool   52  1   0    ; true
B8D2  DD8D0000           [913] getglobal  55  2        ; _T
B8D6  CE0DEC1B           [914] gettable   55  55  432  ; "idleTimoutReset"
fail op	35
B8DA  2380C41B           [915] close      0  
B8DE  1A800080           [916] jmp        3            ; to [920]
B8E2  DD8D0000           [917] getglobal  55  2        ; _T
B8E6  CC0D44D8           [918] settable   55  432 272  ; "idleTimoutReset" 0
B8EA  170D8000           [919] loadbool   52  1   0    ; true
fail op	35
B8EE  2380441A           [920] close      0  
B8F2  1A000780           [921] jmp        29           ; to [951]
B8F6  584B0000           [922] test       45      1    ; to [924] if false
B8FA  1A800680           [923] jmp        27           ; to [951]
B8FE  DD8D0600           [924] getglobal  55  26       ; gRegion
B902  E44DF01B           [925] self       55  55  449  ; 1224466847
B906  E28D0001           [926] call       55  2   2  
fail op	33
B90A  21C04117           [927] tforloop   0       263  ; to [929] if exit
B90E  1A800480           [928] jmp        19           ; to [948]
B912  1DCE0800           [929] getglobal  56  35       ; 1074689893
B916  520E801B           [930] move       57  55     
B91A  228E0001           [931] call       56  2   2  
B91E  184E0000           [932] test       56      1    ; to [934] if false
B922  1A400380           [933] jmp        14           ; to [948]
B926  1D8E3000           [934] getglobal  56  194      ; 1672515847
B92A  520E801B           [935] move       57  55     
B92E  220E0101           [936] call       56  2   4  
B932  1AC00180           [937] jmp        8            ; to [946]
B936  5DCF0800           [938] getglobal  61  35       ; 1074689893
B93A  920F001E           [939] move       62  60     
B93E  628F0001           [940] call       61  2   2  
B942  584F0000           [941] test       61      1    ; to [943] if false
B946  1A800080           [942] jmp        3            ; to [946]
B94A  64CF701E           [943] self       61  60  451  ; 916813069
B94E  D30F000F           [944] getupval   63  30     
B952  624F8001           [945] call       61  3   1  
B956  168E0000           [946] tforloop   56      2    ; to [948] if exit
B95A  1A40FD7F           [947] jmp        -10          ; to [938]
B95E  9DCB2A00           [948] getglobal  46  171      ; timeoutDuration
B962  D70B0000           [949] loadbool   47  0   0    ; false
B966  1A00D27F           [950] jmp        -183         ; to [768]
fail op	35
B96A  2300C417           [951] close      0  
B96E  1A80D17F           [952] jmp        -185         ; to [768]
B972  5D8F0600           [953] getglobal  61  26       ; gRegion
B976  648FEE1E           [954] self       61  61  442  ; -1520831144
B97A  628F0001           [955] call       61  2   2  
B97E  580F0000           [956] test       61      0    ; to [958] if true
B982  1A40D07F           [957] jmp        -190         ; to [768]
B986  5D0F2D00           [958] getglobal  61  180      ; 1289681407
B98A  628F8000           [959] call       61  1   2  
B98E  434F0F18           [960] add        61  48  61 
B992  8D4B0F17           [961] sub        46  46  61 
fail op	33
B996  21C04117           [962] tforloop   0       263  ; to [964] if exit
B99A  1AC0CE7F           [963] jmp        -196         ; to [768]
B99E  640FF100           [964] self       61  1   452  ; -249861443
B9A2  D30F000F           [965] getupval   63  30     
B9A6  1D503100           [966] getglobal  64  197      ; idelTimeoutLoc
B9AA  52100016           [967] move       65  44     
B9AE  97108000           [968] loadbool   66  1   0    ; true
B9B2  D7108000           [969] loadbool   67  1   0    ; true
B9B6  17110000           [970] loadbool   68  0   0    ; false
B9BA  624F0004           [971] call       61  8   1  
B9BE  5D8F0600           [972] getglobal  61  26       ; gRegion
B9C2  644FF01E           [973] self       61  61  449  ; 1224466847
B9C6  628F0001           [974] call       61  2   2  
B9CA  9DCF0800           [975] getglobal  62  35       ; 1074689893
B9CE  D20F801E           [976] move       63  61     
B9D2  A28F0001           [977] call       62  2   2  
B9D6  984F0000           [978] test       62      1    ; to [980] if false
B9DA  1A400380           [979] jmp        14           ; to [994]
B9DE  9D8F3000           [980] getglobal  62  194      ; 1672515847
B9E2  D20F801E           [981] move       63  61     
B9E6  A20F0101           [982] call       62  2   4  
B9EA  1AC00180           [983] jmp        8            ; to [992]
B9EE  DDD00800           [984] getglobal  67  35       ; 1074689893
B9F2  12110021           [985] move       68  66     
B9F6  E2900001           [986] call       67  2   2  
B9FA  D8500000           [987] test       67      1    ; to [989] if false
B9FE  1A800080           [988] jmp        3            ; to [992]
BA02  E4907121           [989] self       67  66  454  ; 216012556
BA06  5311000F           [990] getupval   69  30     
BA0A  E2508001           [991] call       67  3   1  
BA0E  968F0000           [992] tforloop   62      2    ; to [994] if exit
BA12  1A40FD7F           [993] jmp        -10          ; to [984]
BA16  D70B8000           [994] loadbool   47  1   0    ; true
BA1A  1AC0C67F           [995] jmp        -228         ; to [768]
BA1E  1E008000           [996] return     0   1      
                         * constants:
BA23  01                 sizek (199)
BA24  04                 const type 4
BA25  0B                 string size (11)
BA26  6747616D6552756C+  "gGameRul"
BA2E  657300             "es\0"
                         const [0]: "gGameRules"
BA31  01                 const type 3
BA32  B14EF7FF           const [1]: (-569679)
BA36  04                 const type 4
BA37  03                 string size (3)
BA38  5F5400             "_T\0"
                         const [2]: "_T"
BA3B  04                 const type 4
BA3C  13                 string size (19)
BA3D  576172656672616D+  "Warefram"
BA45  654368616C6C656E+  "eChallen"
BA4D  676500             "ge\0"
                         const [3]: "WareframeChallenge"
BA50  04                 const type 4
BA51  0E                 string size (14)
BA52  537061776E53616D+  "SpawnSam"
BA5A  655A6F6E6500       "eZone\0"
                         const [4]: "SpawnSameZone"
BA60  04                 const type 4
BA61  09                 string size (9)
BA62  53616D655A6F6E65+  "SameZone"
BA6A  00                 "\0"
                         const [5]: "SameZone"
BA6B  04                 const type 4
BA6C  06                 string size (6)
BA6D  417667587000       "AvgXp\0"
                         const [6]: "AvgXp"
BA73  03                 const type 3
BA74  00000000           const [7]: (0)
BA78  04                 const type 4
BA79  0B                 string size (11)
BA7A  5870416464436F75+  "XpAddCou"
BA82  6E7400             "nt\0"
                         const [8]: "XpAddCount"
BA85  04                 const type 4
BA86  0A                 string size (10)
BA87  5870526573657276+  "XpReserv"
BA8F  6500               "e\0"
                         const [9]: "XpReserve"
BA91  04                 const type 4
BA92  07                 string size (7)
BA93  5870506F6F6C00     "XpPool\0"
                         const [10]: "XpPool"
BA9A  04                 const type 4
BA9B  0B                 string size (11)
BA9C  426173655850506F+  "BaseXPPo"
BAA4  6F6C00             "ol\0"
                         const [11]: "BaseXPPool"
BAA7  04                 const type 4
BAA8  08                 string size (8)
BAA9  66616374696F6E00   "faction\0"
                         const [12]: "faction"
BAB1  01                 const type 3
BAB2  1A4B27EC           const [13]: (-332969190)
BAB6  04                 const type 4
BAB7  08                 string size (8)
BAB8  4772696E65657200   "Grineer\0"
                         const [14]: "Grineer"
BAC0  04                 const type 4
BAC1  07                 string size (7)
BAC2  456E6443696E00     "EndCin\0"
                         const [15]: "EndCin"
BAC9  01                 const type 3
BACA  00000000           const [16]: (0)
BACE  04                 const type 4
BACF  0E                 string size (14)
BAD0  416C6C6F77577269+  "AllowWri"
BAD8  6E6B6C657300       "nkles\0"
                         const [17]: "AllowWrinkles"
BADE  01                 const type 3
BADF  01000000           const [18]: (1)
BAE3  04                 const type 4
BAE4  12                 string size (18)
BAE5  456E656D79576172+  "EnemyWar"
BAED  6E696E67436F756E+  "ningCoun"
BAF5  7400               "t\0"
                         const [19]: "EnemyWarningCount"
BAF7  04                 const type 4
BAF8  11                 string size (17)
BAF9  4D697373696F6E49+  "MissionI"
BB01  6E69745265616479+  "nitReady"
BB09  00                 "\0"
                         const [20]: "MissionInitReady"
BB0A  01                 const type 3
BB0B  D48E598B           const [21]: (-1957065004)
BB0F  04                 const type 4
BB10  17                 string size (23)
BB11  674C6F7475735076+  "gLotusPv"
BB19  7047616D6552756C+  "pGameRul"
BB21  65735479706500     "esType\0"
                         const [22]: "gLotusPvpGameRulesType"
BB28  01                 const type 3
BB29  497363B8           const [23]: (-1201441975)
BB2D  04                 const type 4
BB2E  0B                 string size (11)
BB2F  646966666963756C+  "difficul"
BB37  747900             "ty\0"
                         const [24]: "difficulty"
BB3A  03                 const type 3
BB3B  00000040           const [25]: (0)
BB3F  04                 const type 4
BB40  08                 string size (8)
BB41  67526567696F6E00   "gRegion\0"
                         const [26]: "gRegion"
BB49  01                 const type 3
BB4A  90F9CED1           const [27]: (-774964848)
BB4E  01                 const type 3
BB4F  6F50B713           const [28]: (330780783)
BB53  01                 const type 3
BB54  EA911120           const [29]: (538022378)
BB58  03                 const type 3
BB59  CDCCCC3D           const [30]: (-51)
BB5D  01                 const type 3
BB5E  73290920           const [31]: (537471347)
BB62  01                 const type 3
BB63  12066FA7           const [32]: (-1485896174)
BB67  04                 const type 4
BB68  10                 string size (16)
BB69  4F626A6563746976+  "Objectiv"
BB71  654D61726B657200   "eMarker\0"
                         const [33]: "ObjectiveMarker"
BB79  04                 const type 4
BB7A  0A                 string size (10)
BB7B  4F626A6563746976+  "Objectiv"
BB83  6500               "e\0"
                         const [34]: "Objective"
BB85  01                 const type 3
BB86  65770E40           const [35]: (1074689893)
BB8A  01                 const type 3
BB8B  1FFB20D4           const [36]: (-736036065)
BB8F  04                 const type 4
BB90  09                 string size (9)
BB91  446F4E6F74557365+  "DoNotUse"
BB99  00                 "\0"
                         const [37]: "DoNotUse"
BB9A  04                 const type 4
BB9B  12                 string size (18)
BB9C  4269706564537065+  "BipedSpe"
BBA4  6369616C53706177+  "cialSpaw"
BBAC  6E00               "n\0"
                         const [38]: "BipedSpecialSpawn"
BBAE  04                 const type 4
BBAF  0C                 string size (12)
BBB0  5475727265745370+  "TurretSp"
BBB8  61776E00           "awn\0"
                         const [39]: "TurretSpawn"
BBBC  04                 const type 4
BBBD  11                 string size (17)
BBBE  4669786564547572+  "FixedTur"
BBC6  726574537061776E+  "retSpawn"
BBCE  00                 "\0"
                         const [40]: "FixedTurretSpawn"
BBCF  04                 const type 4
BBD0  0C                 string size (12)
BBD1  43616D6572615370+  "CameraSp"
BBD9  61776E00           "awn\0"
                         const [41]: "CameraSpawn"
BBDD  04                 const type 4
BBDE  11                 string size (17)
BBDF  466978656443616D+  "FixedCam"
BBE7  657261537061776E+  "eraSpawn"
BBEF  00                 "\0"
                         const [42]: "FixedCameraSpawn"
BBF0  04                 const type 4
BBF1  17                 string size (23)
BBF2  46697865644E6172+  "FixedNar"
BBFA  726F7743616D6572+  "rowCamer"
BC02  61537061776E00     "aSpawn\0"
                         const [43]: "FixedNarrowCameraSpawn"
BC09  04                 const type 4
BC0A  0A                 string size (10)
BC0B  53616E6453706177+  "SandSpaw"
BC13  6E00               "n\0"
                         const [44]: "SandSpawn"
BC15  04                 const type 4
BC16  0C                 string size (12)
BC17  4B7562726F775370+  "KubrowSp"
BC1F  61776E00           "awn\0"
                         const [45]: "KubrowSpawn"
BC23  04                 const type 4
BC24  11                 string size (17)
BC25  416C6C7953706563+  "AllySpec"
BC2D  746572537061776E+  "terSpawn"
BC35  00                 "\0"
                         const [46]: "AllySpecterSpawn"
BC36  04                 const type 4
BC37  12                 string size (18)
BC38  446566656E736541+  "DefenseA"
BC40  67656E7453706177+  "gentSpaw"
BC48  6E00               "n\0"
                         const [47]: "DefenseAgentSpawn"
BC4A  04                 const type 4
BC4B  0B                 string size (11)
BC4C  5761746572537061+  "WaterSpa"
BC54  776E00             "wn\0"
                         const [48]: "WaterSpawn"
BC57  04                 const type 4
BC58  09                 string size (9)
BC59  416972537061776E+  "AirSpawn"
BC61  00                 "\0"
                         const [49]: "AirSpawn"
BC62  04                 const type 4
BC63  09                 string size (9)
BC64  48656B537061776E+  "HekSpawn"
BC6C  00                 "\0"
                         const [50]: "HekSpawn"
BC6D  04                 const type 4
BC6E  08                 string size (8)
BC6F  4733537061776E00   "G3Spawn\0"
                         const [51]: "G3Spawn"
BC77  01                 const type 3
BC78  77A14EF4           const [52]: (-196173449)
BC7C  01                 const type 3
BC7D  29D4002C           const [53]: (738251817)
BC81  04                 const type 4
BC82  34                 string size (52)
BC83  2F4C6F7475732F54+  "/Lotus/T"
BC8B  797065732F456E65+  "ypes/Ene"
BC93  6D6965732F436F72+  "mies/Cor"
BC9B  7075732F54757272+  "pus/Turr"
BCA3  6574732F4175746F+  "ets/Auto"
BCAB  5475727265744167+  "TurretAg"
BCB3  656E7400           "ent\0"
                         const [54]: "/Lotus/Types/Enemies/Corpus/Turrets/AutoTurretAgent"
BCB7  01                 const type 3
BCB8  A61BE9C5           const [55]: (-974578778)
BCBC  01                 const type 3
BCBD  563DFDC9           const [56]: (-906150570)
BCC1  04                 const type 4
BCC2  0B                 string size (11)
BCC3  4C6F7475735F4761+  "Lotus_Ga"
BCCB  6D6500             "me\0"
                         const [57]: "Lotus_Game"
BCCE  01                 const type 3
BCCF  AA90A894           const [58]: (-1800892246)
BCD3  01                 const type 3
BCD4  19C50DE2           const [59]: (-502414055)
BCD8  01                 const type 3
BCD9  383B52CF           const [60]: (-816694472)
BCDD  01                 const type 3
BCDE  88A67167           const [61]: (1735501448)
BCE2  03                 const type 3
BCE3  0000803F           const [62]: (0)
BCE7  01                 const type 3
BCE8  6B25B193           const [63]: (-1817107093)
BCEC  04                 const type 4
BCED  0E                 string size (14)
BCEE  476F74204D697373+  "Got Miss"
BCF6  696F6E3A2000       "ion: \0"
                         const [64]: "Got Mission: "
BCFC  04                 const type 4
BCFD  09                 string size (9)
BCFE  6465736354657874+  "descText"
BD06  00                 "\0"
                         const [65]: "descText"
BD07  01                 const type 3
BD08  D2A3C75E           const [66]: (1590141906)
BD0C  04                 const type 4
BD0D  0E                 string size (14)
BD0E  2064696666696375+  " difficu"
BD16  6C74793A2000       "lty: \0"
                         const [67]: " difficulty: "
BD1C  04                 const type 4
BD1D  0C                 string size (12)
BD1E  6D697373696F6E54+  "missionT"
BD26  79706500           "ype\0"
                         const [68]: "missionType"
BD2A  01                 const type 3
BD2B  37980B04           const [69]: (67868727)
BD2F  04                 const type 4
BD30  0D                 string size (13)
BD31  6772617669747941+  "gravityA"
BD39  7474656E00         "tten\0"
                         const [70]: "gravityAtten"
BD3E  01                 const type 3
BD3F  D6B2ACF6           const [71]: (-156454186)
BD43  01                 const type 3
BD44  2BBAE076           const [72]: (1994439211)
BD48  04                 const type 4
BD49  02                 string size (2)
BD4A  7900               "y\0"
                         const [73]: "y"
BD4C  04                 const type 4
BD4D  11                 string size (17)
BD4E  674D61746368696E+  "gMatchin"
BD56  6753657276696365+  "gService"
BD5E  00                 "\0"
                         const [74]: "gMatchingService"
BD5F  01                 const type 3
BD60  4636E0D5           const [75]: (-706726330)
BD64  01                 const type 3
BD65  558492A6           const [76]: (-1500347307)
BD69  03                 const type 3
BD6A  00008040           const [77]: (0)
BD6E  01                 const type 3
BD6F  E0F3890D           const [78]: (227144672)
BD73  03                 const type 3
BD74  0000A041           const [79]: (0)
BD78  01                 const type 3
BD79  F3591F2B           const [80]: (723474931)
BD7D  04                 const type 4
BD7E  13                 string size (19)
BD7F  6973536861726B77+  "isSharkw"
BD87  696E674D69737369+  "ingMissi"
BD8F  6F6E00             "on\0"
                         const [81]: "isSharkwingMission"
BD92  01                 const type 3
BD93  31C2437A           const [82]: (2051260977)
BD97  01                 const type 3
BD98  554B0393           const [83]: (-1828500651)
BD9C  03                 const type 3
BD9D  0000A040           const [84]: (0)
BDA1  01                 const type 3
BDA2  EC48C4EF           const [85]: (-272348948)
BDA6  04                 const type 4
BDA7  0C                 string size (12)
BDA8  496E666573746174+  "Infestat"
BDB0  696F6E00           "ion\0"
                         const [86]: "Infestation"
BDB4  01                 const type 3
BDB5  8EBC75A9           const [87]: (-1451901810)
BDB9  01                 const type 3
BDBA  9C73219B           const [88]: (-1692306532)
BDBE  01                 const type 3
BDBF  5725E649           const [89]: (1239819607)
BDC3  01                 const type 3
BDC4  7CABA71A           const [90]: (447196028)
BDC8  04                 const type 4
BDC9  0B                 string size (11)
BDCA  696E766173696F6E+  "invasion"
BDD2  496400             "Id\0"
                         const [91]: "invasionId"
BDD5  04                 const type 4
BDD6  01                 string size (0)
                         const [92]: ""
BDD8  04                 const type 4
BDD9  11                 string size (17)
BDDA  666F726365416C6C+  "forceAll"
BDE2  7946616374696F6E+  "yFaction"
BDEA  00                 "\0"
                         const [93]: "forceAllyFaction"
BDEB  01                 const type 3
BDEC  4924ECD6           const [94]: (-689167287)
BDF0  01                 const type 3
BDF1  40B20A5B           const [95]: (1527427648)
BDF5  01                 const type 3
BDF6  40F7448A           const [96]: (-1975191744)
BDFA  01                 const type 3
BDFB  FA98D1AF           const [97]: (-1345218310)
BDFF  03                 const type 3
BE00  000000C1           const [98]: (0)
BE04  04                 const type 4
BE05  0C                 string size (12)
BE06  4D545F5355525649+  "MT_SURVI"
BE0E  56414C00           "VAL\0"
                         const [99]: "MT_SURVIVAL"
BE12  04                 const type 4
BE13  0B                 string size (11)
BE14  4D545F444546454E+  "MT_DEFEN"
BE1C  534500             "SE\0"
                         const [100]: "MT_DEFENSE"
BE1F  03                 const type 3
BE20  0000003F           const [101]: (0)
BE24  04                 const type 4
BE25  07                 string size (7)
BE26  676F616C496400     "goalId\0"
                         const [102]: "goalId"
BE2D  04                 const type 4
BE2E  09                 string size (9)
BE2F  736F727469654964+  "sortieId"
BE37  00                 "\0"
                         const [103]: "sortieId"
BE38  04                 const type 4
BE39  0C                 string size (12)
BE3A  73796E6469636174+  "syndicat"
BE42  65496400           "eId\0"
                         const [104]: "syndicateId"
BE46  04                 const type 4
BE47  08                 string size (8)
BE48  616C657274496400   "alertId\0"
                         const [105]: "alertId"
BE50  04                 const type 4
BE51  0D                 string size (13)
BE52  6B6579436861696E+  "keyChain"
BE5A  4E616D6500         "Name\0"
                         const [106]: "keyChainName"
BE5F  04                 const type 4
BE60  0A                 string size (10)
BE61  6E696768746D6172+  "nightmar"
BE69  6500               "e\0"
                         const [107]: "nightmare"
BE6B  01                 const type 3
BE6C  ABFB71FB           const [108]: (-76416085)
BE70  04                 const type 4
BE71  0E                 string size (14)
BE72  4F626A6563746976+  "Objectiv"
BE7A  65446F6F7200       "eDoor\0"
                         const [109]: "ObjectiveDoor"
BE80  01                 const type 3
BE81  B786588D           const [110]: (-1923578185)
BE85  04                 const type 4
BE86  08                 string size (8)
BE87  4578656375746500   "Execute\0"
                         const [111]: "Execute"
BE8F  04                 const type 4
BE90  10                 string size (16)
BE91  6750726F6D6F7465+  "gPromote"
BE99  64546F486F737400   "dToHost\0"
                         const [112]: "gPromotedToHost"
BEA1  01                 const type 3
BEA2  19AABB08           const [113]: (146516505)
BEA6  03                 const type 3
BEA7  0000C040           const [114]: (0)
BEAB  01                 const type 3
BEAC  D3720A0D           const [115]: (218788563)
BEB0  04                 const type 4
BEB1  0F                 string size (15)
BEB2  63757272656E7441+  "currentA"
BEBA  69436F756E7400     "iCount\0"
                         const [116]: "currentAiCount"
BEC1  04                 const type 4
BEC2  0C                 string size (12)
BEC3  69734F70656E5370+  "isOpenSp"
BECB  61636500           "ace\0"
                         const [117]: "isOpenSpace"
BECF  04                 const type 4
BED0  0A                 string size (10)
BED1  4F70656E53706163+  "OpenSpac"
BED9  6500               "e\0"
                         const [118]: "OpenSpace"
BEDB  01                 const type 3
BEDC  4C0A277C           const [119]: (2082933324)
BEE0  04                 const type 4
BEE1  10                 string size (16)
BEE2  5370616365506174+  "SpacePat"
BEEA  68566F6C756D6500   "hVolume\0"
                         const [120]: "SpacePathVolume"
BEF2  04                 const type 4
BEF3  1B                 string size (27)
BEF4  674C6F7475735361+  "gLotusSa"
BEFC  6E64426F7847616D+  "ndBoxGam"
BF04  6552756C65735479+  "eRulesTy"
BF0C  706500             "pe\0"
                         const [121]: "gLotusSandBoxGameRulesType"
BF0F  04                 const type 4
BF10  13                 string size (19)
BF11  64697361626C6553+  "disableS"
BF19  7061776E65644C6F+  "pawnedLo"
BF21  6F7400             "ot\0"
                         const [122]: "disableSpawnedLoot"
BF24  04                 const type 4
BF25  22                 string size (34)
BF26  5573654169446972+  "UseAiDir"
BF2E  6563746F72506F70+  "ectorPop"
BF36  756C6174696F6E53+  "ulationS"
BF3E  7061776E436F756E+  "pawnCoun"
BF46  7400               "t\0"
                         const [123]: "UseAiDirectorPopulationSpawnCount"
BF48  01                 const type 3
BF49  9892A24C           const [124]: (1285722776)
BF4D  04                 const type 4
BF4E  0E                 string size (14)
BF4F  4D6178456E656D79+  "MaxEnemy"
BF57  436F756E7400       "Count\0"
                         const [125]: "MaxEnemyCount"
BF5D  01                 const type 3
BF5E  FBE70EED           const [126]: (-317790213)
BF62  04                 const type 4
BF63  0F                 string size (15)
BF64  45787465726D696E+  "Extermin"
BF6C  6174654D696400     "ateMid\0"
                         const [127]: "ExterminateMid"
BF73  01                 const type 3
BF74  38A36BF9           const [128]: (-110386376)
BF78  04                 const type 4
BF79  06                 string size (6)
BF7A  4D6178414900       "MaxAI\0"
                         const [129]: "MaxAI"
BF80  03                 const type 3
BF81  00000041           const [130]: (0)
BF85  01                 const type 3
BF86  C13C1C5A           const [131]: (1511800001)
BF8A  01                 const type 3
BF8B  38842AAF           const [132]: (-1356168136)
BF8F  04                 const type 4
BF90  0D                 string size (13)
BF91  4D545F5445525249+  "MT_TERRI"
BF99  544F525900         "TORY\0"
                         const [133]: "MT_TERRITORY"
BF9E  04                 const type 4
BF9F  0C                 string size (12)
BFA0  4D545F4558434156+  "MT_EXCAV"
BFA8  41544500           "ATE\0"
                         const [134]: "MT_EXCAVATE"
BFAC  04                 const type 4
BFAD  0B                 string size (11)
BFAE  4D545F5055525355+  "MT_PURSU"
BFB6  495400             "IT\0"
                         const [135]: "MT_PURSUIT"
BFB9  04                 const type 4
BFBA  08                 string size (8)
BFBB  4D545F5241494400   "MT_RAID\0"
                         const [136]: "MT_RAID"
BFC3  04                 const type 4
BFC4  0A                 string size (10)
BFC5  4D545F5055524946+  "MT_PURIF"
BFCD  5900               "Y\0"
                         const [137]: "MT_PURIFY"
BFCF  04                 const type 4
BFD0  09                 string size (9)
BFD1  4D545F4152454E41+  "MT_ARENA"
BFD9  00                 "\0"
                         const [138]: "MT_ARENA"
BFDA  04                 const type 4
BFDB  0D                 string size (13)
BFDC  4D545F4C414E4453+  "MT_LANDS"
BFE4  4341504500         "CAPE\0"
                         const [139]: "MT_LANDSCAPE"
BFE9  04                 const type 4
BFEA  0C                 string size (12)
BFEB  4D545F4152544946+  "MT_ARTIF"
BFF3  41435400           "ACT\0"
                         const [140]: "MT_ARTIFACT"
BFF7  04                 const type 4
BFF8  0C                 string size (12)
BFF9  4D545F5241494C4A+  "MT_RAILJ"
C001  41434B00           "ACK\0"
                         const [141]: "MT_RAILJACK"
C005  04                 const type 4
C006  11                 string size (17)
C007  656E61626C654175+  "enableAu"
C00F  746F537061776E73+  "toSpawns"
C017  00                 "\0"
                         const [142]: "enableAutoSpawns"
C018  01                 const type 3
C019  49217883           const [143]: (-2089279159)
C01D  01                 const type 3
C01E  7B681E40           const [144]: (1075734651)
C022  04                 const type 4
C023  0F                 string size (15)
C024  46616374696F6E53+  "FactionS"
C02C  77617070656400     "wapped\0"
                         const [145]: "FactionSwapped"
C033  04                 const type 4
C034  0E                 string size (14)
C035  4D6178436F6D6261+  "MaxComba"
C03D  7454696D6500       "tTime\0"
                         const [146]: "MaxCombatTime"
C043  03                 const type 3
C044  00002042           const [147]: (0)
C048  04                 const type 4
C049  0E                 string size (14)
C04A  4D696E436F6D6261+  "MinComba"
C052  7454696D6500       "tTime\0"
                         const [148]: "MinCombatTime"
C058  03                 const type 3
C059  00002041           const [149]: (0)
C05D  04                 const type 4
C05E  0C                 string size (12)
C05F  4D6178446F776E54+  "MaxDownT"
C067  696D6500           "ime\0"
                         const [150]: "MaxDownTime"
C06B  04                 const type 4
C06C  0C                 string size (12)
C06D  4D696E446F776E54+  "MinDownT"
C075  696D6500           "ime\0"
                         const [151]: "MinDownTime"
C079  04                 const type 4
C07A  0B                 string size (11)
C07B  537061776E44656C+  "SpawnDel"
C083  617900             "ay\0"
                         const [152]: "SpawnDelay"
C086  01                 const type 3
C087  EDC3FB06           const [153]: (117162989)
C08B  04                 const type 4
C08C  0B                 string size (11)
C08D  6D7573696354696D+  "musicTim"
C095  657200             "er\0"
                         const [154]: "musicTimer"
C098  04                 const type 4
C099  07                 string size (7)
C09A  63656E74657200     "center\0"
                         const [155]: "center"
C0A1  00                 const type 0
                         const [156]: nil
C0A2  04                 const type 4
C0A3  04                 string size (4)
C0A4  64697200           "dir\0"
                         const [157]: "dir"
C0A8  03                 const type 3
C0A9  00009643           const [158]: (0)
C0AD  01                 const type 3
C0AE  E09F8C84           const [159]: (-2071158816)
C0B2  01                 const type 3
C0B3  DE720640           const [160]: (1074164446)
C0B7  01                 const type 3
C0B8  579D4ED0           const [161]: (-800154281)
C0BC  04                 const type 4
C0BD  0C                 string size (12)
C0BE  53746F726D546172+  "StormTar"
C0C6  67657400           "get\0"
                         const [162]: "StormTarget"
C0CA  01                 const type 3
C0CB  7DB5D47F           const [163]: (2144646525)
C0CF  01                 const type 3
C0D0  C2E4FC35           const [164]: (905766082)
C0D4  01                 const type 3
C0D5  A9131FA2           const [165]: (-1575021655)
C0D9  04                 const type 4
C0DA  1E                 string size (30)
C0DB  416D6269656E744D+  "AmbientM"
C0E3  697373696F6E5472+  "issionTr"
C0EB  616E736D69737369+  "ansmissi"
C0F3  6F6E53657400       "onSet\0"
                         const [166]: "AmbientMissionTransmissionSet"
C0F9  04                 const type 4
C0FA  17                 string size (23)
C0FB  616D6269656E744D+  "ambientM"
C103  697373696F6E5472+  "issionTr"
C10B  616E7353657400     "ansSet\0"
                         const [167]: "ambientMissionTransSet"
C112  03                 const type 3
C113  00007042           const [168]: (0)
C117  04                 const type 4
C118  0D                 string size (13)
C119  73796E6469636174+  "syndicat"
C121  6554616700         "eTag\0"
                         const [169]: "syndicateTag"
C126  04                 const type 4
C127  13                 string size (19)
C128  417373617373696E+  "Assassin"
C130  7353796E64696361+  "sSyndica"
C138  746500             "te\0"
                         const [170]: "AssassinsSyndicate"
C13B  04                 const type 4
C13C  10                 string size (16)
C13D  74696D656F757444+  "timeoutD"
C145  75726174696F6E00   "uration\0"
                         const [171]: "timeoutDuration"
C14D  04                 const type 4
C14E  0B                 string size (11)
C14F  4D545F4341505455+  "MT_CAPTU"
C157  524500             "RE\0"
                         const [172]: "MT_CAPTURE"
C15A  03                 const type 3
C15B  0000F042           const [173]: (0)
C15F  01                 const type 3
C160  D86230AD           const [174]: (-1389337896)
C164  01                 const type 3
C165  D871BB5A           const [175]: (1522233816)
C169  04                 const type 4
C16A  10                 string size (16)
C16B  69646C6554696D6F+  "idleTimo"
C173  7574526573657400   "utReset\0"
                         const [176]: "idleTimoutReset"
C17B  04                 const type 4
C17C  12                 string size (18)
C17D  6973417263687769+  "isArchwi"
C185  6E674D697373696F+  "ngMissio"
C18D  6E00               "n\0"
                         const [177]: "isArchwingMission"
C18F  01                 const type 3
C190  5D0E7A35           const [178]: (897191517)
C194  01                 const type 3
C195  C190AF75           const [179]: (1974440129)
C199  01                 const type 3
C19A  FFF9DE4C           const [180]: (1289681407)
C19E  01                 const type 3
C19F  FAA3D8EE           const [181]: (-287792134)
C1A3  03                 const type 3
C1A4  0000F041           const [182]: (0)
C1A8  01                 const type 3
C1A9  698AE4BA           const [183]: (-1159427479)
C1AD  04                 const type 4
C1AE  17                 string size (23)
C1AF  674C6F7475734875+  "gLotusHu"
C1B7  6247616D6552756C+  "bGameRul"
C1BF  65735479706500     "esType\0"
                         const [184]: "gLotusHubGameRulesType"
C1C6  04                 const type 4
C1C7  18                 string size (24)
C1C8  674C6F747573446F+  "gLotusDo"
C1D0  6A6F47616D655275+  "joGameRu"
C1D8  6C65735479706500   "lesType\0"
                         const [185]: "gLotusDojoGameRulesType"
C1E0  01                 const type 3
C1E1  58F559A5           const [186]: (-1520831144)
C1E5  04                 const type 4
C1E6  0B                 string size (11)
C1E7  4D545F4D41535445+  "MT_MASTE"
C1EF  525900             "RY\0"
                         const [187]: "MT_MASTERY"
C1F2  04                 const type 4
C1F3  0A                 string size (10)
C1F4  46435F434F525055+  "FC_CORPU"
C1FC  5300               "S\0"
                         const [188]: "FC_CORPUS"
C1FE  04                 const type 4
C1FF  0F                 string size (15)
C200  7475746F7269616C+  "tutorial"
C208  41637469766500     "Active\0"
                         const [189]: "tutorialActive"
C20F  04                 const type 4
C210  0C                 string size (12)
C211  6747616D65436F6E+  "gGameCon"
C219  66696700           "fig\0"
                         const [190]: "gGameConfig"
C21D  01                 const type 3
C21E  75A8816B           const [191]: (1803659381)
C222  01                 const type 3
C223  2A7E8D4A           const [192]: (1250786858)
C227  01                 const type 3
C228  9FE1FB48           const [193]: (1224466847)
C22C  01                 const type 3
C22D  0791B063           const [194]: (1672515847)
C231  01                 const type 3
C232  0D75A536           const [195]: (916813069)
C236  01                 const type 3
C237  BD6A1BF1           const [196]: (-249861443)
C23B  04                 const type 4
C23C  0F                 string size (15)
C23D  6964656C54696D65+  "idelTime"
C245  6F75744C6F6300     "outLoc\0"
                         const [197]: "idelTimeoutLoc"
C24C  01                 const type 3
C24D  0C17E00C           const [198]: (216012556)
                         * functions:
C251  00                 sizep (0)
                         * lines:
C253  07                 sizelineinfo (996)
                         [pc] (line)
C254  DD                 [001] (-35)
C255  06                 [002] (-35)
C256  00                 [003] (-35)
C257  00                 [004] (-35)
C258  DD                 [005] (-35)
C259  06                 [006] (-35)
C25A  00                 [007] (-35)
C25B  00                 [008] (-35)
C25C  DD                 [009] (-35)
C25D  06                 [010] (-34)
C25E  00                 [011] (-31)
C25F  00                 [012] (-31)
C260  DD                 [013] (-31)
C261  06                 [014] (-30)
C262  00                 [015] (-30)
C263  00                 [016] (-29)
C264  DD                 [017] (-29)
C265  06                 [018] (-28)
C266  00                 [019] (-28)
C267  00                 [020] (-27)
C268  DD                 [021] (-27)
C269  06                 [022] (-27)
C26A  00                 [023] (-27)
C26B  00                 [024] (-26)
C26C  DD                 [025] (-26)
C26D  06                 [026] (-26)
C26E  00                 [027] (-26)
C26F  00                 [028] (-26)
C270  DD                 [029] (-26)
C271  06                 [030] (-25)
C272  00                 [031] (-25)
C273  00                 [032] (-25)
C274  DD                 [033] (-25)
C275  06                 [034] (-25)
C276  00                 [035] (-24)
C277  00                 [036] (-24)
C278  DE                 [037] (-23)
C279  06                 [038] (-23)
C27A  00                 [039] (-22)
C27B  00                 [040] (-22)
C27C  E1                 [041] (-21)
C27D  06                 [042] (-21)
C27E  00                 [043] (-18)
C27F  00                 [044] (-17)
C280  E1                 [045] (-17)
C281  06                 [046] (-17)
C282  00                 [047] (-16)
C283  00                 [048] (-16)
C284  E1                 [049] (-14)
C285  06                 [050] (-14)
C286  00                 [051] (-13)
C287  00                 [052] (-13)
C288  E2                 [053] (-11)
C289  06                 [054] (-11)
C28A  00                 [055] (-11)
C28B  00                 [056] (-9)
C28C  E2                 [057] (-9)
C28D  06                 [058] (-9)
C28E  00                 [059] (-9)
C28F  00                 [060] (-8)
C290  E3                 [061] (-8)
C291  06                 [062] (-8)
C292  00                 [063] (-8)
C293  00                 [064] (-6)
C294  E3                 [065] (-6)
C295  06                 [066] (-5)
C296  00                 [067] (-5)
C297  00                 [068] (-3)
C298  E4                 [069] (-3)
C299  06                 [070] (-3)
C29A  00                 [071] (-3)
C29B  00                 [072] (-3)
C29C  E4                 [073] (-3)
C29D  06                 [074] (-2)
C29E  00                 [075] (-2)
C29F  00                 [076] (-2)
C2A0  E5                 [077] (-2)
C2A1  06                 [078] (-2)
C2A2  00                 [079] (-2)
C2A3  00                 [080] (-1)
C2A4  E5                 [081] (-1)
C2A5  06                 [082] (-1)
C2A6  00                 [083] (-1)
C2A7  00                 [084] (-1)
C2A8  E5                 [085] (0)
C2A9  06                 [086] (0)
C2AA  00                 [087] (0)
C2AB  00                 [088] (0)
C2AC  E5                 [089] (0)
C2AD  06                 [090] (1)
C2AE  00                 [091] (1)
C2AF  00                 [092] (1)
C2B0  E6                 [093] (1)
C2B1  06                 [094] (1)
C2B2  00                 [095] (2)
C2B3  00                 [096] (2)
C2B4  E6                 [097] (2)
C2B5  06                 [098] (2)
C2B6  00                 [099] (2)
C2B7  00                 [100] (3)
C2B8  E6                 [101] (3)
C2B9  06                 [102] (3)
C2BA  00                 [103] (3)
C2BB  00                 [104] (3)
C2BC  E6                 [105] (4)
C2BD  06                 [106] (4)
C2BE  00                 [107] (4)
C2BF  00                 [108] (4)
C2C0  E6                 [109] (4)
C2C1  06                 [110] (5)
C2C2  00                 [111] (5)
C2C3  00                 [112] (5)
C2C4  E6                 [113] (5)
C2C5  06                 [114] (5)
C2C6  00                 [115] (6)
C2C7  00                 [116] (6)
C2C8  E7                 [117] (6)
C2C9  06                 [118] (6)
C2CA  00                 [119] (6)
C2CB  00                 [120] (7)
C2CC  E7                 [121] (7)
C2CD  06                 [122] (7)
C2CE  00                 [123] (7)
C2CF  00                 [124] (7)
C2D0  E7                 [125] (8)
C2D1  06                 [126] (8)
C2D2  00                 [127] (8)
C2D3  00                 [128] (8)
C2D4  E7                 [129] (8)
C2D5  06                 [130] (9)
C2D6  00                 [131] (9)
C2D7  00                 [132] (9)
C2D8  E7                 [133] (9)
C2D9  06                 [134] (9)
C2DA  00                 [135] (10)
C2DB  00                 [136] (10)
C2DC  E8                 [137] (10)
C2DD  06                 [138] (10)
C2DE  00                 [139] (10)
C2DF  00                 [140] (11)
C2E0  E8                 [141] (11)
C2E1  06                 [142] (11)
C2E2  00                 [143] (11)
C2E3  00                 [144] (11)
C2E4  E9                 [145] (12)
C2E5  06                 [146] (12)
C2E6  00                 [147] (12)
C2E7  00                 [148] (12)
C2E8  E9                 [149] (12)
C2E9  06                 [150] (13)
C2EA  00                 [151] (13)
C2EB  00                 [152] (13)
C2EC  EA                 [153] (13)
C2ED  06                 [154] (13)
C2EE  00                 [155] (14)
C2EF  00                 [156] (14)
C2F0  EA                 [157] (14)
C2F1  06                 [158] (14)
C2F2  00                 [159] (14)
C2F3  00                 [160] (15)
C2F4  EB                 [161] (15)
C2F5  06                 [162] (15)
C2F6  00                 [163] (15)
C2F7  00                 [164] (15)
C2F8  EB                 [165] (16)
C2F9  06                 [166] (16)
C2FA  00                 [167] (16)
C2FB  00                 [168] (17)
C2FC  EE                 [169] (17)
C2FD  06                 [170] (17)
C2FE  00                 [171] (18)
C2FF  00                 [172] (18)
C300  EF                 [173] (18)
C301  06                 [174] (23)
C302  00                 [175] (23)
C303  00                 [176] (23)
C304  EF                 [177] (23)
C305  06                 [178] (23)
C306  00                 [179] (25)
C307  00                 [180] (25)
C308  EF                 [181] (25)
C309  06                 [182] (25)
C30A  00                 [183] (25)
C30B  00                 [184] (26)
C30C  F0                 [185] (26)
C30D  06                 [186] (26)
C30E  00                 [187] (26)
C30F  00                 [188] (26)
C310  F0                 [189] (29)
C311  06                 [190] (29)
C312  00                 [191] (29)
C313  00                 [192] (29)
C314  F2                 [193] (31)
C315  06                 [194] (32)
C316  00                 [195] (33)
C317  00                 [196] (33)
C318  F2                 [197] (33)
C319  06                 [198] (33)
C31A  00                 [199] (33)
C31B  00                 [200] (35)
C31C  F3                 [201] (35)
C31D  06                 [202] (35)
C31E  00                 [203] (35)
C31F  00                 [204] (35)
C320  F3                 [205] (35)
C321  06                 [206] (35)
C322  00                 [207] (35)
C323  00                 [208] (35)
C324  F5                 [209] (36)
C325  06                 [210] (38)
C326  00                 [211] (38)
C327  00                 [212] (40)
C328  F5                 [213] (40)
C329  06                 [214] (40)
C32A  00                 [215] (41)
C32B  00                 [216] (41)
C32C  F5                 [217] (41)
C32D  06                 [218] (42)
C32E  00                 [219] (42)
C32F  00                 [220] (42)
C330  F7                 [221] (42)
C331  06                 [222] (42)
C332  00                 [223] (45)
C333  00                 [224] (45)
C334  F7                 [225] (45)
C335  06                 [226] (46)
C336  00                 [227] (46)
C337  00                 [228] (46)
C338  F7                 [229] (46)
C339  06                 [230] (46)
C33A  00                 [231] (46)
C33B  00                 [232] (46)
C33C  F7                 [233] (46)
C33D  06                 [234] (46)
C33E  00                 [235] (46)
C33F  00                 [236] (46)
C340  F8                 [237] (46)
C341  06                 [238] (46)
C342  00                 [239] (46)
C343  00                 [240] (47)
C344  F8                 [241] (47)
C345  06                 [242] (47)
C346  00                 [243] (50)
C347  00                 [244] (50)
C348  F8                 [245] (50)
C349  06                 [246] (50)
C34A  00                 [247] (50)
C34B  00                 [248] (51)
C34C  F8                 [249] (51)
C34D  06                 [250] (51)
C34E  00                 [251] (54)
C34F  00                 [252] (54)
C350  FA                 [253] (54)
C351  06                 [254] (54)
C352  00                 [255] (55)
C353  00                 [256] (55)
C354  FA                 [257] (55)
C355  06                 [258] (55)
C356  00                 [259] (55)
C357  00                 [260] (56)
C358  FB                 [261] (56)
C359  06                 [262] (56)
C35A  00                 [263] (57)
C35B  00                 [264] (57)
C35C  FB                 [265] (57)
C35D  06                 [266] (57)
C35E  00                 [267] (60)
C35F  00                 [268] (60)
C360  FD                 [269] (60)
C361  06                 [270] (60)
C362  00                 [271] (60)
C363  00                 [272] (60)
C364  FD                 [273] (60)
C365  06                 [274] (61)
C366  00                 [275] (61)
C367  00                 [276] (61)
C368  FD                 [277] (61)
C369  06                 [278] (62)
C36A  00                 [279] (62)
C36B  00                 [280] (62)
C36C  FD                 [281] (62)
C36D  06                 [282] (62)
C36E  00                 [283] (62)
C36F  00                 [284] (62)
C370  FD                 [285] (63)
C371  06                 [286] (63)
C372  00                 [287] (65)
C373  00                 [288] (65)
C374  FD                 [289] (67)
C375  06                 [290] (67)
C376  00                 [291] (67)
C377  00                 [292] (69)
C378  FE                 [293] (69)
C379  06                 [294] (69)
C37A  00                 [295] (69)
C37B  00                 [296] (69)
C37C  FE                 [297] (70)
C37D  06                 [298] (70)
C37E  00                 [299] (70)
C37F  00                 [300] (70)
C380  FE                 [301] (71)
C381  06                 [302] (71)
C382  00                 [303] (71)
C383  00                 [304] (71)
C384  FE                 [305] (71)
C385  06                 [306] (71)
C386  00                 [307] (71)
C387  00                 [308] (71)
C388  FE                 [309] (71)
C389  06                 [310] (71)
C38A  00                 [311] (71)
C38B  00                 [312] (72)
C38C  FE                 [313] (72)
C38D  06                 [314] (73)
C38E  00                 [315] (73)
C38F  00                 [316] (73)
C390  FF                 [317] (73)
C391  06                 [318] (73)
C392  00                 [319] (73)
C393  00                 [320] (73)
C394  FF                 [321] (74)
C395  06                 [322] (74)
C396  00                 [323] (75)
C397  00                 [324] (76)
C398  FF                 [325] (76)
C399  06                 [326] (76)
C39A  00                 [327] (76)
C39B  00                 [328] (77)
C39C  FF                 [329] (77)
C39D  06                 [330] (77)
C39E  00                 [331] (78)
C39F  00                 [332] (79)
C3A0  FF                 [333] (79)
C3A1  06                 [334] (79)
C3A2  00                 [335] (79)
C3A3  00                 [336] (80)
C3A4  00                 [337] (80)
C3A5  07                 [338] (80)
C3A6  00                 [339] (81)
C3A7  00                 [340] (81)
C3A8  00                 [341] (81)
C3A9  07                 [342] (81)
C3AA  00                 [343] (81)
C3AB  00                 [344] (81)
C3AC  00                 [345] (81)
C3AD  07                 [346] (81)
C3AE  00                 [347] (82)
C3AF  00                 [348] (76)
C3B0  00                 [349] (87)
C3B1  07                 [350] (87)
C3B2  00                 [351] (88)
C3B3  00                 [352] (112)
C3B4  00                 [353] (112)
C3B5  07                 [354] (112)
C3B6  00                 [355] (112)
C3B7  00                 [356] (112)
C3B8  01                 [357] (112)
C3B9  07                 [358] (112)
C3BA  00                 [359] (112)
C3BB  00                 [360] (112)
C3BC  01                 [361] (112)
C3BD  07                 [362] (112)
C3BE  00                 [363] (112)
C3BF  00                 [364] (112)
C3C0  01                 [365] (112)
C3C1  07                 [366] (112)
C3C2  00                 [367] (112)
C3C3  00                 [368] (112)
C3C4  01                 [369] (112)
C3C5  07                 [370] (112)
C3C6  00                 [371] (112)
C3C7  00                 [372] (112)
C3C8  01                 [373] (112)
C3C9  07                 [374] (112)
C3CA  00                 [375] (113)
C3CB  00                 [376] (113)
C3CC  02                 [377] (117)
C3CD  07                 [378] (117)
C3CE  00                 [379] (118)
C3CF  00                 [380] (121)
C3D0  02                 [381] (121)
C3D1  07                 [382] (121)
C3D2  00                 [383] (121)
C3D3  00                 [384] (122)
C3D4  02                 [385] (122)
C3D5  07                 [386] (122)
C3D6  00                 [387] (122)
C3D7  00                 [388] (122)
C3D8  02                 [389] (122)
C3D9  07                 [390] (123)
C3DA  00                 [391] (123)
C3DB  00                 [392] (123)
C3DC  02                 [393] (124)
C3DD  07                 [394] (124)
C3DE  00                 [395] (124)
C3DF  00                 [396] (124)
C3E0  03                 [397] (125)
C3E1  07                 [398] (125)
C3E2  00                 [399] (125)
C3E3  00                 [400] (125)
C3E4  03                 [401] (124)
C3E5  07                 [402] (-127)
C3E6  00                 [403] (-127)
C3E7  00                 [404] (-127)
C3E8  03                 [405] (-126)
C3E9  07                 [406] (-126)
C3EA  00                 [407] (-122)
C3EB  00                 [408] (-122)
C3EC  03                 [409] (-122)
C3ED  07                 [410] (-121)
C3EE  00                 [411] (-121)
C3EF  00                 [412] (-121)
C3F0  03                 [413] (-118)
C3F1  07                 [414] (-118)
C3F2  00                 [415] (-117)
C3F3  00                 [416] (-117)
C3F4  04                 [417] (-114)
C3F5  07                 [418] (-114)
C3F6  00                 [419] (-113)
C3F7  00                 [420] (-113)
C3F8  04                 [421] (-111)
C3F9  07                 [422] (-111)
C3FA  00                 [423] (-109)
C3FB  00                 [424] (-109)
C3FC  04                 [425] (-109)
C3FD  07                 [426] (-108)
C3FE  00                 [427] (-108)
C3FF  00                 [428] (-108)
C400  04                 [429] (-108)
C401  07                 [430] (-108)
C402  00                 [431] (-108)
C403  00                 [432] (-106)
C404  04                 [433] (-106)
C405  07                 [434] (-106)
C406  00                 [435] (-106)
C407  00                 [436] (-105)
C408  05                 [437] (-105)
C409  07                 [438] (-105)
C40A  00                 [439] (-105)
C40B  00                 [440] (-106)
C40C  05                 [441] (-102)
C40D  07                 [442] (-102)
C40E  00                 [443] (-102)
C40F  00                 [444] (-101)
C410  05                 [445] (-101)
C411  07                 [446] (-101)
C412  00                 [447] (-101)
C413  00                 [448] (-101)
C414  05                 [449] (-98)
C415  07                 [450] (-98)
C416  00                 [451] (-98)
C417  00                 [452] (-97)
C418  05                 [453] (-97)
C419  07                 [454] (-96)
C41A  00                 [455] (-96)
C41B  00                 [456] (-95)
C41C  06                 [457] (-95)
C41D  07                 [458] (-95)
C41E  00                 [459] (-94)
C41F  00                 [460] (-94)
C420  06                 [461] (-94)
C421  07                 [462] (-94)
C422  00                 [463] (-94)
C423  00                 [464] (-94)
C424  06                 [465] (-94)
C425  07                 [466] (-94)
C426  00                 [467] (-94)
C427  00                 [468] (-94)
C428  06                 [469] (-94)
C429  07                 [470] (-94)
C42A  00                 [471] (-94)
C42B  00                 [472] (-94)
C42C  06                 [473] (-93)
C42D  07                 [474] (-93)
C42E  00                 [475] (-92)
C42F  00                 [476] (-92)
C430  07                 [477] (-91)
C431  07                 [478] (-91)
C432  00                 [479] (-90)
C433  00                 [480] (-90)
C434  07                 [481] (-89)
C435  07                 [482] (-89)
C436  00                 [483] (-88)
C437  00                 [484] (-88)
C438  07                 [485] (-87)
C439  07                 [486] (-87)
C43A  00                 [487] (-85)
C43B  00                 [488] (-85)
C43C  07                 [489] (-84)
C43D  07                 [490] (-84)
C43E  00                 [491] (-83)
C43F  00                 [492] (-83)
C440  07                 [493] (-80)
C441  07                 [494] (-80)
C442  00                 [495] (-80)
C443  00                 [496] (-79)
C444  08                 [497] (-79)
C445  07                 [498] (-79)
C446  00                 [499] (-79)
C447  00                 [500] (-78)
C448  08                 [501] (-78)
C449  07                 [502] (-78)
C44A  00                 [503] (-78)
C44B  00                 [504] (-77)
C44C  08                 [505] (-75)
C44D  07                 [506] (-75)
C44E  00                 [507] (-75)
C44F  00                 [508] (-75)
C450  08                 [509] (-75)
C451  07                 [510] (-75)
C452  00                 [511] (-75)
C453  00                 [512] (-75)
C454  08                 [513] (-75)
C455  07                 [514] (-75)
C456  00                 [515] (-75)
C457  00                 [516] (-74)
C458  09                 [517] (-74)
C459  07                 [518] (-74)
C45A  00                 [519] (-74)
C45B  00                 [520] (-70)
C45C  09                 [521] (-70)
C45D  07                 [522] (-70)
C45E  00                 [523] (-69)
C45F  00                 [524] (-69)
C460  09                 [525] (-68)
C461  07                 [526] (-68)
C462  00                 [527] (-68)
C463  00                 [528] (-68)
C464  09                 [529] (-67)
C465  07                 [530] (-67)
C466  00                 [531] (-65)
C467  00                 [532] (-65)
C468  09                 [533] (-65)
C469  07                 [534] (-65)
C46A  00                 [535] (-64)
C46B  00                 [536] (-64)
C46C  0A                 [537] (-62)
C46D  07                 [538] (-62)
C46E  00                 [539] (-62)
C46F  00                 [540] (-62)
C470  0A                 [541] (-61)
C471  07                 [542] (-61)
C472  00                 [543] (-59)
C473  00                 [544] (-59)
C474  0A                 [545] (-59)
C475  07                 [546] (-59)
C476  00                 [547] (-58)
C477  00                 [548] (-58)
C478  0A                 [549] (-58)
C479  07                 [550] (-58)
C47A  00                 [551] (-57)
C47B  00                 [552] (-57)
C47C  0A                 [553] (-57)
C47D  07                 [554] (-57)
C47E  00                 [555] (-57)
C47F  00                 [556] (-56)
C480  0B                 [557] (-55)
C481  07                 [558] (-55)
C482  00                 [559] (-55)
C483  00                 [560] (-55)
C484  0B                 [561] (-54)
C485  07                 [562] (-54)
C486  00                 [563] (-54)
C487  00                 [564] (-54)
C488  0B                 [565] (-53)
C489  07                 [566] (-53)
C48A  00                 [567] (-53)
C48B  00                 [568] (-53)
C48C  0B                 [569] (-52)
C48D  07                 [570] (-52)
C48E  00                 [571] (-52)
C48F  00                 [572] (-52)
C490  0B                 [573] (-51)
C491  07                 [574] (-51)
C492  00                 [575] (-51)
C493  00                 [576] (-51)
C494  0C                 [577] (-50)
C495  07                 [578] (-50)
C496  00                 [579] (-50)
C497  00                 [580] (-50)
C498  0C                 [581] (-49)
C499  07                 [582] (-49)
C49A  00                 [583] (-49)
C49B  00                 [584] (-49)
C49C  0C                 [585] (-48)
C49D  07                 [586] (-48)
C49E  00                 [587] (-48)
C49F  00                 [588] (-48)
C4A0  0C                 [589] (-47)
C4A1  07                 [590] (-47)
C4A2  00                 [591] (-47)
C4A3  00                 [592] (-47)
C4A4  0C                 [593] (-46)
C4A5  07                 [594] (-46)
C4A6  00                 [595] (-46)
C4A7  00                 [596] (-46)
C4A8  0D                 [597] (-45)
C4A9  07                 [598] (-45)
C4AA  00                 [599] (-45)
C4AB  00                 [600] (-45)
C4AC  0D                 [601] (-44)
C4AD  07                 [602] (-44)
C4AE  00                 [603] (-44)
C4AF  00                 [604] (-43)
C4B0  0D                 [605] (-43)
C4B1  07                 [606] (-43)
C4B2  00                 [607] (-43)
C4B3  00                 [608] (-43)
C4B4  0D                 [609] (-42)
C4B5  07                 [610] (-42)
C4B6  00                 [611] (-42)
C4B7  00                 [612] (-39)
C4B8  0D                 [613] (-39)
C4B9  07                 [614] (-39)
C4BA  00                 [615] (-39)
C4BB  00                 [616] (-39)
C4BC  0E                 [617] (-39)
C4BD  07                 [618] (-39)
C4BE  00                 [619] (-39)
C4BF  00                 [620] (-35)
C4C0  0E                 [621] (-35)
C4C1  07                 [622] (-35)
C4C2  00                 [623] (-35)
C4C3  00                 [624] (-34)
C4C4  0E                 [625] (-34)
C4C5  07                 [626] (-32)
C4C6  00                 [627] (-32)
C4C7  00                 [628] (-32)
C4C8  0E                 [629] (-32)
C4C9  07                 [630] (-31)
C4CA  00                 [631] (-31)
C4CB  00                 [632] (-31)
C4CC  0E                 [633] (-28)
C4CD  07                 [634] (-28)
C4CE  00                 [635] (-28)
C4CF  00                 [636] (-28)
C4D0  0F                 [637] (-28)
C4D1  07                 [638] (-27)
C4D2  00                 [639] (-27)
C4D3  00                 [640] (-26)
C4D4  0F                 [641] (-26)
C4D5  07                 [642] (-25)
C4D6  00                 [643] (-25)
C4D7  00                 [644] (-24)
C4D8  0F                 [645] (-24)
C4D9  07                 [646] (-23)
C4DA  00                 [647] (-23)
C4DB  00                 [648] (-22)
C4DC  0F                 [649] (-22)
C4DD  07                 [650] (-21)
C4DE  00                 [651] (-20)
C4DF  00                 [652] (-20)
C4E0  0F                 [653] (-20)
C4E1  07                 [654] (-18)
C4E2  00                 [655] (-18)
C4E3  00                 [656] (-17)
C4E4  10                 [657] (-17)
C4E5  07                 [658] (-16)
C4E6  00                 [659] (-16)
C4E7  00                 [660] (-13)
C4E8  10                 [661] (-11)
C4E9  07                 [662] (-11)
C4EA  00                 [663] (-10)
C4EB  00                 [664] (-10)
C4EC  10                 [665] (-10)
C4ED  07                 [666] (-9)
C4EE  00                 [667] (-9)
C4EF  00                 [668] (-9)
C4F0  11                 [669] (-9)
C4F1  07                 [670] (-8)
C4F2  00                 [671] (-8)
C4F3  00                 [672] (-8)
C4F4  11                 [673] (-7)
C4F5  07                 [674] (-7)
C4F6  00                 [675] (-7)
C4F7  00                 [676] (-7)
C4F8  11                 [677] (-7)
C4F9  07                 [678] (-7)
C4FA  00                 [679] (-7)
C4FB  00                 [680] (-7)
C4FC  12                 [681] (-6)
C4FD  07                 [682] (-6)
C4FE  00                 [683] (-6)
C4FF  00                 [684] (-6)
C500  12                 [685] (-6)
C501  07                 [686] (-6)
C502  00                 [687] (-6)
C503  00                 [688] (-6)
C504  12                 [689] (-6)
C505  07                 [690] (-6)
C506  00                 [691] (-9)
C507  00                 [692] (0)
C508  17                 [693] (0)
C509  07                 [694] (0)
C50A  00                 [695] (0)
C50B  00                 [696] (0)
C50C  17                 [697] (1)
C50D  07                 [698] (1)
C50E  00                 [699] (1)
C50F  00                 [700] (2)
C510  17                 [701] (2)
C511  07                 [702] (2)
C512  00                 [703] (5)
C513  00                 [704] (5)
C514  17                 [705] (8)
C515  07                 [706] (8)
C516  00                 [707] (8)
C517  00                 [708] (8)
C518  17                 [709] (9)
C519  07                 [710] (13)
C51A  00                 [711] (13)
C51B  00                 [712] (13)
C51C  19                 [713] (13)
C51D  07                 [714] (13)
C51E  00                 [715] (13)
C51F  00                 [716] (14)
C520  19                 [717] (14)
C521  07                 [718] (14)
C522  00                 [719] (16)
C523  00                 [720] (16)
C524  19                 [721] (16)
C525  07                 [722] (18)
C526  00                 [723] (19)
C527  00                 [724] (20)
C528  19                 [725] (23)
C529  07                 [726] (23)
C52A  00                 [727] (23)
C52B  00                 [728] (23)
C52C  19                 [729] (23)
C52D  07                 [730] (23)
C52E  00                 [731] (23)
C52F  00                 [732] (23)
C530  1A                 [733] (23)
C531  07                 [734] (23)
C532  00                 [735] (23)
C533  00                 [736] (23)
C534  1A                 [737] (23)
C535  07                 [738] (24)
C536  00                 [739] (24)
C537  00                 [740] (25)
C538  1A                 [741] (25)
C539  07                 [742] (26)
C53A  00                 [743] (26)
C53B  00                 [744] (26)
C53C  1A                 [745] (26)
C53D  07                 [746] (26)
C53E  00                 [747] (27)
C53F  00                 [748] (27)
C540  1A                 [749] (29)
C541  07                 [750] (33)
C542  00                 [751] (34)
C543  00                 [752] (35)
C544  1D                 [753] (36)
C545  07                 [754] (36)
C546  00                 [755] (36)
C547  00                 [756] (36)
C548  1D                 [757] (36)
C549  07                 [758] (37)
C54A  00                 [759] (37)
C54B  00                 [760] (37)
C54C  1D                 [761] (37)
C54D  07                 [762] (39)
C54E  00                 [763] (39)
C54F  00                 [764] (39)
C550  1D                 [765] (39)
C551  07                 [766] (40)
C552  00                 [767] (40)
C553  00                 [768] (45)
C554  1F                 [769] (45)
C555  07                 [770] (45)
C556  00                 [771] (46)
C557  00                 [772] (46)
C558  20                 [773] (46)
C559  07                 [774] (46)
C55A  00                 [775] (47)
C55B  00                 [776] (47)
C55C  21                 [777] (48)
C55D  07                 [778] (48)
C55E  00                 [779] (48)
C55F  00                 [780] (48)
C560  21                 [781] (49)
C561  07                 [782] (49)
C562  00                 [783] (50)
C563  00                 [784] (50)
C564  21                 [785] (50)
C565  07                 [786] (50)
C566  00                 [787] (51)
C567  00                 [788] (51)
C568  21                 [789] (52)
C569  07                 [790] (52)
C56A  00                 [791] (52)
C56B  00                 [792] (52)
C56C  21                 [793] (53)
C56D  07                 [794] (55)
C56E  00                 [795] (55)
C56F  00                 [796] (57)
C570  23                 [797] (57)
C571  07                 [798] (57)
C572  00                 [799] (57)
C573  00                 [800] (61)
C574  23                 [801] (61)
C575  07                 [802] (62)
C576  00                 [803] (62)
C577  00                 [804] (62)
C578  23                 [805] (62)
C579  07                 [806] (62)
C57A  00                 [807] (62)
C57B  00                 [808] (62)
C57C  23                 [809] (62)
C57D  07                 [810] (62)
C57E  00                 [811] (62)
C57F  00                 [812] (63)
C580  23                 [813] (63)
C581  07                 [814] (63)
C582  00                 [815] (63)
C583  00                 [816] (63)
C584  23                 [817] (63)
C585  07                 [818] (64)
C586  00                 [819] (64)
C587  00                 [820] (65)
C588  23                 [821] (69)
C589  07                 [822] (69)
C58A  00                 [823] (69)
C58B  00                 [824] (70)
C58C  23                 [825] (70)
C58D  07                 [826] (70)
C58E  00                 [827] (70)
C58F  00                 [828] (72)
C590  23                 [829] (72)
C591  07                 [830] (72)
C592  00                 [831] (72)
C593  00                 [832] (72)
C594  24                 [833] (73)
C595  07                 [834] (77)
C596  00                 [835] (77)
C597  00                 [836] (77)
C598  26                 [837] (77)
C599  07                 [838] (77)
C59A  00                 [839] (78)
C59B  00                 [840] (78)
C59C  26                 [841] (78)
C59D  07                 [842] (78)
C59E  00                 [843] (78)
C59F  00                 [844] (79)
C5A0  28                 [845] (79)
C5A1  07                 [846] (79)
C5A2  00                 [847] (79)
C5A3  00                 [848] (79)
C5A4  28                 [849] (80)
C5A5  07                 [850] (80)
C5A6  00                 [851] (80)
C5A7  00                 [852] (80)
C5A8  28                 [853] (80)
C5A9  07                 [854] (81)
C5AA  00                 [855] (81)
C5AB  00                 [856] (81)
C5AC  29                 [857] (81)
C5AD  07                 [858] (81)
C5AE  00                 [859] (82)
C5AF  00                 [860] (82)
C5B0  29                 [861] (82)
C5B1  07                 [862] (82)
C5B2  00                 [863] (82)
C5B3  00                 [864] (83)
C5B4  29                 [865] (83)
C5B5  07                 [866] (83)
C5B6  00                 [867] (83)
C5B7  00                 [868] (83)
C5B8  2A                 [869] (84)
C5B9  07                 [870] (84)
C5BA  00                 [871] (84)
C5BB  00                 [872] (84)
C5BC  2A                 [873] (84)
C5BD  07                 [874] (84)
C5BE  00                 [875] (84)
C5BF  00                 [876] (84)
C5C0  2A                 [877] (84)
C5C1  07                 [878] (84)
C5C2  00                 [879] (85)
C5C3  00                 [880] (85)
C5C4  2A                 [881] (85)
C5C5  07                 [882] (85)
C5C6  00                 [883] (86)
C5C7  00                 [884] (86)
C5C8  2A                 [885] (86)
C5C9  07                 [886] (86)
C5CA  00                 [887] (86)
C5CB  00                 [888] (86)
C5CC  2D                 [889] (86)
C5CD  07                 [890] (86)
C5CE  00                 [891] (89)
C5CF  00                 [892] (91)
C5D0  2D                 [893] (91)
C5D1  07                 [894] (91)
C5D2  00                 [895] (92)
C5D3  00                 [896] (95)
C5D4  2D                 [897] (95)
C5D5  07                 [898] (95)
C5D6  00                 [899] (95)
C5D7  00                 [900] (95)
C5D8  2E                 [901] (96)
C5D9  07                 [902] (96)
C5DA  00                 [903] (97)
C5DB  00                 [904] (98)
C5DC  2E                 [905] (101)
C5DD  07                 [906] (101)
C5DE  00                 [907] (101)
C5DF  00                 [908] (101)
C5E0  2E                 [909] (102)
C5E1  07                 [910] (102)
C5E2  00                 [911] (103)
C5E3  00                 [912] (104)
C5E4  2E                 [913] (107)
C5E5  07                 [914] (107)
C5E6  00                 [915] (107)
C5E7  00                 [916] (107)
C5E8  2E                 [917] (108)
C5E9  07                 [918] (108)
C5EA  00                 [919] (109)
C5EB  00                 [920] (112)
C5EC  2E                 [921] (112)
C5ED  07                 [922] (112)
C5EE  00                 [923] (112)
C5EF  00                 [924] (113)
C5F0  2E                 [925] (113)
C5F1  07                 [926] (113)
C5F2  00                 [927] (114)
C5F3  00                 [928] (114)
C5F4  2E                 [929] (114)
C5F5  07                 [930] (114)
C5F6  00                 [931] (114)
C5F7  00                 [932] (114)
C5F8  2E                 [933] (114)
C5F9  07                 [934] (115)
C5FA  00                 [935] (115)
C5FB  00                 [936] (115)
C5FC  2E                 [937] (115)
C5FD  07                 [938] (116)
C5FE  00                 [939] (116)
C5FF  00                 [940] (116)
C600  2E                 [941] (116)
C601  07                 [942] (116)
C602  00                 [943] (117)
C603  00                 [944] (117)
C604  2E                 [945] (117)
C605  07                 [946] (115)
C606  00                 [947] (118)
C607  00                 [948] (121)
C608  2E                 [949] (122)
C609  07                 [950] (122)
C60A  00                 [951] (123)
C60B  00                 [952] (123)
C60C  2E                 [953] (123)
C60D  07                 [954] (123)
C60E  00                 [955] (123)
C60F  00                 [956] (123)
C610  2F                 [957] (123)
C611  07                 [958] (124)
C612  00                 [959] (124)
C613  00                 [960] (124)
C614  2F                 [961] (124)
C615  07                 [962] (125)
C616  00                 [963] (125)
C617  00                 [964] (126)
C618  2F                 [965] (126)
C619  07                 [966] (126)
C61A  00                 [967] (126)
C61B  00                 [968] (126)
C61C  32                 [969] (126)
C61D  07                 [970] (126)
C61E  00                 [971] (126)
C61F  00                 [972] (127)
C620  32                 [973] (127)
C621  07                 [974] (127)
C622  00                 [975] (-128)
C623  00                 [976] (-128)
C624  32                 [977] (-128)
C625  07                 [978] (-128)
C626  00                 [979] (-128)
C627  00                 [980] (-127)
C628  32                 [981] (-127)
C629  07                 [982] (-127)
C62A  00                 [983] (-127)
C62B  00                 [984] (-126)
C62C  32                 [985] (-126)
C62D  07                 [986] (-126)
C62E  00                 [987] (-126)
C62F  00                 [988] (-126)
C630  33                 [989] (-125)
C631  07                 [990] (-125)
C632  00                 [991] (-125)
C633  00                 [992] (-127)
C634  33                 [993] (-124)
C635  07                 [994] (-121)
C636  00                 [995] (-118)
C637  00                 [996] (-115)
                         * locals:
D1E4  00                 sizelocvars (0)
                         * upvalues:
D1E5  00                 sizeupvalues (0)
                         ** end of function **

                         * lines:
D1E7  02                 sizelineinfo (288)
                         [pc] (line)
D1E8  14                 [001] (20)
D1E9  00                 [002] (21)
D1EA  00                 [003] (22)
D1EB  00                 [004] (23)
D1EC  15                 [005] (52)
D1ED  00                 [006] (52)
D1EE  00                 [007] (53)
D1EF  00                 [008] (53)
D1F0  16                 [009] (53)
D1F1  00                 [010] (53)
D1F2  00                 [011] (53)
D1F3  00                 [012] (53)
D1F4  17                 [013] (53)
D1F5  00                 [014] (53)
D1F6  00                 [015] (53)
D1F7  00                 [016] (53)
D1F8  34                 [017] (53)
D1F9  00                 [018] (54)
D1FA  00                 [019] (54)
D1FB  00                 [020] (54)
D1FC  34                 [021] (54)
D1FD  00                 [022] (54)
D1FE  00                 [023] (54)
D1FF  00                 [024] (54)
D200  35                 [025] (54)
D201  00                 [026] (54)
D202  00                 [027] (54)
D203  00                 [028] (54)
D204  35                 [029] (55)
D205  00                 [030] (55)
D206  00                 [031] (55)
D207  00                 [032] (55)
D208  35                 [033] (55)
D209  00                 [034] (55)
D20A  00                 [035] (55)
D20B  00                 [036] (55)
D20C  35                 [037] (55)
D20D  00                 [038] (55)
D20E  00                 [039] (55)
D20F  00                 [040] (56)
D210  35                 [041] (56)
D211  00                 [042] (56)
D212  00                 [043] (56)
D213  00                 [044] (56)
D214  35                 [045] (56)
D215  00                 [046] (56)
D216  00                 [047] (56)
D217  00                 [048] (56)
D218  35                 [049] (56)
D219  00                 [050] (56)
D21A  00                 [051] (57)
D21B  00                 [052] (57)
D21C  35                 [053] (57)
D21D  00                 [054] (57)
D21E  00                 [055] (57)
D21F  00                 [056] (57)
D220  35                 [057] (57)
D221  00                 [058] (57)
D222  00                 [059] (57)
D223  00                 [060] (57)
D224  35                 [061] (57)
D225  00                 [062] (58)
D226  00                 [063] (58)
D227  00                 [064] (58)
D228  35                 [065] (58)
D229  00                 [066] (58)
D22A  00                 [067] (58)
D22B  00                 [068] (58)
D22C  36                 [069] (58)
D22D  00                 [070] (58)
D22E  00                 [071] (58)
D22F  00                 [072] (59)
D230  36                 [073] (61)
D231  00                 [074] (62)
D232  00                 [075] (62)
D233  00                 [076] (62)
D234  36                 [077] (63)
D235  00                 [078] (63)
D236  00                 [079] (63)
D237  00                 [080] (64)
D238  36                 [081] (64)
D239  00                 [082] (64)
D23A  00                 [083] (65)
D23B  00                 [084] (65)
D23C  36                 [085] (65)
D23D  00                 [086] (66)
D23E  00                 [087] (66)
D23F  00                 [088] (66)
D240  36                 [089] (67)
D241  00                 [090] (67)
D242  00                 [091] (67)
D243  00                 [092] (67)
D244  36                 [093] (69)
D245  00                 [094] (71)
D246  00                 [095] (71)
D247  00                 [096] (71)
D248  36                 [097] (72)
D249  00                 [098] (87)
D24A  00                 [099] (94)
D24B  00                 [100] (101)
D24C  36                 [101] (101)
D24D  00                 [102] (101)
D24E  00                 [103] (101)
D24F  00                 [104] (101)
D250  36                 [105] (101)
D251  00                 [106] (101)
D252  00                 [107] (101)
D253  00                 [108] (101)
D254  36                 [109] (101)
D255  00                 [110] (101)
D256  00                 [111] (109)
D257  00                 [112] (111)
D258  37                 [113] (111)
D259  00                 [114] (111)
D25A  00                 [115] (112)
D25B  00                 [116] (112)
D25C  37                 [117] (112)
D25D  00                 [118] (113)
D25E  00                 [119] (113)
D25F  00                 [120] (113)
D260  37                 [121] (114)
D261  00                 [122] (114)
D262  00                 [123] (114)
D263  00                 [124] (115)
D264  37                 [125] (115)
D265  00                 [126] (115)
D266  00                 [127] (116)
D267  00                 [128] (116)
D268  37                 [129] (116)
D269  00                 [130] (117)
D26A  00                 [131] (117)
D26B  00                 [132] (117)
D26C  37                 [133] (119)
D26D  00                 [134] (120)
D26E  00                 [135] (121)
D26F  00                 [136] (123)
D270  37                 [137] (125)
D271  00                 [138] (125)
D272  00                 [139] (125)
D273  00                 [140] (126)
D274  37                 [141] (127)
D275  00                 [142] (127)
D276  00                 [143] (127)
D277  00                 [144] (-128)
D278  37                 [145] (-124)
D279  00                 [146] (-124)
D27A  00                 [147] (-126)
D27B  00                 [148] (-105)
D27C  37                 [149] (-94)
D27D  00                 [150] (-53)
D27E  00                 [151] (-26)
D27F  00                 [152] (-11)
D280  37                 [153] (1)
D281  00                 [154] (1)
D282  00                 [155] (19)
D283  00                 [156] (-96)
D284  38                 [157] (-96)
D285  00                 [158] (-96)
D286  00                 [159] (-96)
D287  00                 [160] (-92)
D288  38                 [161] (-92)
D289  00                 [162] (-92)
D28A  00                 [163] (-94)
D28B  00                 [164] (-77)
D28C  38                 [165] (-13)
D28D  00                 [166] (-13)
D28E  00                 [167] (-13)
D28F  00                 [168] (-13)
D290  38                 [169] (-13)
D291  00                 [170] (2)
D292  00                 [171] (18)
D293  00                 [172] (43)
D294  38                 [173] (85)
D295  00                 [174] (85)
D296  00                 [175] (96)
D297  00                 [176] (96)
D298  38                 [177] (100)
D299  00                 [178] (100)
D29A  00                 [179] (102)
D29B  00                 [180] (-121)
D29C  38                 [181] (-121)
D29D  00                 [182] (-121)
D29E  00                 [183] (-121)
D29F  00                 [184] (-121)
D2A0  38                 [185] (-105)
D2A1  00                 [186] (-105)
D2A2  00                 [187] (-83)
D2A3  00                 [188] (-76)
D2A4  38                 [189] (-53)
D2A5  00                 [190] (-53)
D2A6  00                 [191] (-53)
D2A7  00                 [192] (-47)
D2A8  38                 [193] (-22)
D2A9  00                 [194] (-22)
D2AA  00                 [195] (-22)
D2AB  00                 [196] (-8)
D2AC  38                 [197] (9)
D2AD  00                 [198] (9)
D2AE  00                 [199] (32)
D2AF  00                 [200] (41)
D2B0  39                 [201] (41)
D2B1  00                 [202] (54)
D2B2  00                 [203] (64)
D2B3  00                 [204] (-111)
D2B4  39                 [205] (-111)
D2B5  00                 [206] (-111)
D2B6  00                 [207] (-111)
D2B7  00                 [208] (-111)
D2B8  39                 [209] (-111)
D2B9  00                 [210] (-111)
D2BA  00                 [211] (-102)
D2BB  00                 [212] (-102)
D2BC  39                 [213] (-102)
D2BD  00                 [214] (-109)
D2BE  00                 [215] (-77)
D2BF  00                 [216] (-77)
D2C0  39                 [217] (-69)
D2C1  00                 [218] (-69)
D2C2  00                 [219] (-69)
D2C3  00                 [220] (-75)
D2C4  39                 [221] (-44)
D2C5  00                 [222] (-44)
D2C6  00                 [223] (-44)
D2C7  00                 [224] (35)
D2C8  39                 [225] (35)
D2C9  00                 [226] (35)
D2CA  00                 [227] (35)
D2CB  00                 [228] (35)
D2CC  39                 [229] (35)
D2CD  00                 [230] (35)
D2CE  00                 [231] (35)
D2CF  00                 [232] (82)
D2D0  39                 [233] (82)
D2D1  00                 [234] (82)
D2D2  00                 [235] (82)
D2D3  00                 [236] (82)
D2D4  39                 [237] (113)
D2D5  00                 [238] (113)
D2D6  00                 [239] (-116)
D2D7  00                 [240] (-116)
D2D8  39                 [241] (-98)
D2D9  00                 [242] (-76)
D2DA  00                 [243] (-65)
D2DB  00                 [244] (-54)
D2DC  3A                 [245] (-45)
D2DD  00                 [246] (-40)
D2DE  00                 [247] (91)
D2DF  00                 [248] (91)
D2E0  3A                 [249] (91)
D2E1  00                 [250] (-73)
D2E2  00                 [251] (-39)
D2E3  00                 [252] (-39)
D2E4  3A                 [253] (-71)
D2E5  00                 [254] (-115)
D2E6  00                 [255] (-115)
D2E7  00                 [256] (-115)
D2E8  3A                 [257] (-115)
D2E9  00                 [258] (-115)
D2EA  00                 [259] (-115)
D2EB  00                 [260] (-115)
D2EC  3A                 [261] (-115)
D2ED  00                 [262] (-115)
D2EE  00                 [263] (-115)
D2EF  00                 [264] (-115)
D2F0  3A                 [265] (-115)
D2F1  00                 [266] (-115)
D2F2  00                 [267] (-115)
D2F3  00                 [268] (-115)
D2F4  3A                 [269] (-115)
D2F5  00                 [270] (-115)
D2F6  00                 [271] (-115)
D2F7  00                 [272] (-115)
D2F8  3A                 [273] (-115)
D2F9  00                 [274] (-115)
D2FA  00                 [275] (-115)
D2FB  00                 [276] (-115)
D2FC  3A                 [277] (-115)
D2FD  00                 [278] (-115)
D2FE  00                 [279] (-115)
D2FF  00                 [280] (-115)
D300  3A                 [281] (-115)
D301  00                 [282] (-115)
D302  00                 [283] (-115)
D303  00                 [284] (-115)
D304  3B                 [285] (-115)
D305  00                 [286] (-115)
D306  00                 [287] (-36)
D307  00                 [288] (-115)
                         * locals:
D668  00                 sizelocvars (0)
                         * upvalues:
D669  00                 sizeupvalues (0)
                         ** end of function **

D66A                     ** end of chunk **
