1	C:\wlua_dump\path\Lotus\ScriptsTriggerAlarm.lua
Pos   Hex Data           Description or Code
------------------------------------------------------------------------
0000                     ** source chunk: C:\wlua_dump\path\Lotus\ScriptsTriggerAlarm.lua
                         ** global header start **
0000  7F                 header signature: ""
0001  00                 version (major:minor hex digits)
0002  00                 format (0=official)
0003  00                 endianness (1=little endian)
0004  00                 size of int (bytes)
0005  00                 size of size_t (bytes)
0006  02                 size of Instruction (bytes)
0007  1F                 size of number (bytes)
0008  E7                 integral (1=integral)
4231
                         * number type: single
                         * x86 standard (32-bit, little endian, doubles)
                         ** global header end **
Lotus.Interface.LotusUtilities
Lotus.Scripts.Libs.TransmissionSet
Lotus.Scripts.Libs.CommonGamemodeFunctions
Lotus.Scripts.Libs.ObjectiveText
Lotus.Scripts.Libs.SquadLink
/Lotus/Language/Actions/CompleteXP
SecondObjective
BombPlaced
HostageMarkerAdded
SecondObjStarted
OnRegisterForBeacon
OnUnregisterForBeacon
ChooseBossIntroCinematic
BossCinName
SetoffAlarms
KillTheLights
PlayerHacking
CoopDoorCheck
DataStolen
DataStealer
NavModuleStealer
killCounter
WaveCounter
ObjectiveDoorHint
ObjectiveDoor
ObjectiveDoorMoreMovers
TargetSpawned
TargetKilled
SpawnVIP
InitAssassinationAfterMigration
AttachObjectiveMarker
AttachMarkerHostage
SpawnHostage
RescueSetup
InitializeRescueAfterMigration
INTEL_PTS
INTEL_PTS_NEEDED
IntelCounter
SpawnDefense
PlaceBomb
PayloadDelivered
VirusDelivery
InitializeReactorAfterMigration
InitializeRaidAfterMigration
SAB_PTS
SAB_DONE
MultiSab
SoftAbort
ClearMissionGoal
_T
vipAvatar
spawncontrol
Could not pick cinematic for boss avatar [no avatar]
bossIntroCinematics
StartPlaying
gGameRules
BossIntroMovieDelay
math
bossIntroMovieDelay
gRegion
bossCinNameType
ZERO_ROTATION
Could not find boss in cinematics for ChooseBossIntroCinematic
bossIntroMovie
gBaseAvatarType
gGameRules
BossIntroMovieDelay
gFlashMgr
BossIntro
gRegion
gRegion
gRegion
gRegion
table
delays
transmissionDelay
gRegion
BossDoorHint
gGameRules
Unlock
ObjectiveMarker
ObjectiveTrigger
ObjectiveRestate
_T
objRestate
Boss
Enable
Execute
gGameRules
Alarm
Lotus_Game
MT_COUNTER_INTEL
AlarmSmall
gRegion
Enable
AlarmFlare
AlarmLight
TurnOn
_T
difficulty
gGameRules
TurnOffLights
gRegion
gZoneAttribsType
Light
LightFixture
LightFixtureTemplate
LightFlare
TurnOff
Lotus_Game
EMISSIVE_MAP_ATTEN
Disable
decosToHide
Hide
postProcess
lightMapBoost
useRandomExtractionTimer
duration
expiryEndMission
message
completeObjScript
Execute
gRegion
DroneSpawn
Start
gRegion
_T
StalkerPlayer
StalkerPlayerAvatar
LotusAssist
Execute
portCount
Increment
doortriggers
Disable
onDoorLights
TurnOn
offDoorLights
TurnOff
threatProjector
EMPTY_SYMBOL
gRegion
gGameRules
optionalObjective
completeObjScript
NAV_MODULE_STEALER
gRegion
gGameRules
_T
MissionTransmissionSet
GotNavSegment
completeObjScript
lotusNpcAvatarType
FLT_MAX
MindOuchEffect
EMPTY_SYMBOL
startSickAnim
Engine
ATMM_ANIMATION_DRIVEN
PRT_ONCE
sickAnim
PRT_LOOP
threatProjector
Game
AVATAR_SHIELD_MAX
MULTIPLY
endSickAnim
VorTaunt
EndOfMissionVoiceOverride
objOneCompleteVo
ActiveElementalLayerId
objTwoCompleteVo
gRegion
gGameRules
gGameRules
enemySpec
tier
gRegion
math
RandomTeam
Engine
EXIMUS
STANDARD
ExterminateMid
gGameRules
Lotus_Game
MT_INTEL
switchToExterminateObj
isArchwingMission
gRegion
MT_PURGE
_T
gTutorialMission
MissionTransmissionSet
gQuestMission
transmissionSet
gNemesis
mission
ObjectiveStart
faction
math
Infestation
gChallengeMgr
Orokin
Sentient
difficulty
forceAllyFaction
spaceBattleKillCountMultiplier
sortieId

nightmare
isSharkwingMission
MaxEnemyCount
EventHardMode
ExterminateCurrentTier
ExterminateCurrentBossTier
killCounter
UseAiDirectorPopulationSpawnCount
IniEnemyCount
gSoftAbortMission
AddHudTracker
/Lotus/Language/Objectives/ExterminateObjective
/Lotus/Language/Game/EnemyCount
exterminateBroadcastIcon
missionType
MT_EXTERMINATION
DefenseExterminate
KillCount
KillsRequired
ExterminateObjectiveComplete
ObjectiveComplete
MoraleBroken
Enable
SUCCESS
DefenseExterminate
KillCount
KillsRequired
gGameRules
_T
AddHudTracker
TAProgressBar
HT_PROGRESS_BAR
_G
UIColor_DarkBlue
HasTAProgressBar

Waves
Waves:  
math
gRegion
completeObjScript
Execute
gGameRules
Lotus_Game
MT_EXTERMINATION
doorHint
Unlock
Open
gRegion
Npc
NpcDoorHint_DS_LOCKED
Close
Lock
_T
ForceLockObjectiveDoor
ExterminateMid
gGameRules
Lotus_Game
MT_EXTERMINATION
doorOne
Open
doorTwo
gRegion
Close
ExterminateMid
gGameRules
Lotus_Game
MT_EXTERMINATION
doors
Open
gRegion
Close
ExterminateMid
gGameRules
gRegion
Engine
SLOT_6
Lotus_Game
DUAL_MELEE
bossKillCinematicsDualSkana
STAFF
bossKillCinematicsBoStaff
FIST
bossKillCinematicsGauntlet
bossKillCinematicsSword
DoorPortCounter
Objective
Boss
Start
objMarkerInst
objRemoveScript
MT_RAID
completeObjScript
gGameRules
vipAgent
VIP
SpawnVIP failed (no agent)
gRegion
_T
missionAIReady
vipLevelModifier
sortieId

spawncontrol
SpawnVIP failed (no avatar)
vipAvatar
Lotus_Game
LotusNpcAvatar_DA_DAMAGE_ONLY
goalId
invasionId
useCustomEnemyTier
customEnemyTier
gGameRules
gRegion
Lotus_Game
MT_RAID
spawncontrol
_T
vipAvatar
LotusNpcAvatar_DA_DAMAGE_ONLY
gRegion
objMark
Objective
gGameRules
Boss
NULL MARKER
bossMarkerType
GAME_C1_SPINE1
bossMarkerOffset
gRegion
Hostage
objMark
gGameRules
gPromotedToHost
ObjectiveMarker
Objective
_T
TransitionLevel
Boss
Disable
GAME_C1_SPINE1
Enable
ObjRemove
ObjComplete
gRegion
gGameRules
VIP
spawnControl
No Avatar Spawned!
Engine
GameRules_GS_FAILURE
gGameRules
gPromotedToHost
Objective
_T
TransitionLevel
Boss
gRegion
hDoorScript
minCellDoorsOpen
maxCellDoorsOpen
table
Execute
hSpawnScript
gGameRules
Objective
Boss
gRegion
hSpawn
InitializeRescueAfterMigration - hostage found
Engine
GameRules_GS_FAILURE
_T
IntelKill
gRegion
gGameRules
BossDoorHint
Unlock
/Lotus/Language/Game/DataTerminalCount
AddHudTracker
TAProgressBar
HT_PROGRESS_BAR
_G
UIColor_DarkBlue
HasTAProgressBar

  0
IntelCounter - intel points before: 
IntelStations
minDistFromPlayers
maxDistFromPlayers
table
Enable
 
math
objRemoveScript
Execute
completeObjScript
gRegion
dSpawn
spawncontrol
gPromotedToHost
*** FATAL MIGRATION ERROR -- could not find defense agent!
defenseSpawnType
gGameRules
_T
TADefenseTracker
HT_HEALTH_TRACKER
Engine
GameRules_GS_FAILURE
gPromotedToHost
gGameRules
gRegion
Bomb
bombType
gGameRules
gRegion
activateAnim
Engine
ATMM_ANIMATION_DRIVEN
PRT_ONCE
_T
reactorDestroyed
reactorVisible
gRegion
ReactorProng
totalNumCoreProngs
InitializeReactorAfterMigration - 
 prong(s) destroyed
Reactor visible: 
ReactorPortCounter
gGameRules
gRegion
threatProjector
EMPTY_SYMBOL
gRegion
gGameRules
Sabotage completed
BossDoorHint
Unlock
_T
IntelKill
TankSpawn
minDistFromPlayers
maxDistFromPlayers
table
sabType
Disable
AddHudTracker
TAProgressBar
HT_PROGRESS_BAR
_G
UIColor_DarkBlue
HasTAProgressBar

/Lotus/Language/Game/MiningMachineCount
 
math
objRemoveScript
Execute
completeObjScript
_T
gSoftAbortMission
_T
gRegion
                         
0001                     ** function [0] definition (level 1)
                         ** start of function **
0001  00                 string size (0)
                         source name: (none)
0002  00                 line defined (0)
0003  00                 last line defined (0)
0004  00                 nups (0)
0005  00                 numparams (0)
0006  02                 is_vararg (2)
0007  1F                 maxstacksize (31)
                         * code:
0009  01                 sizecode (231)
000A  1D000000           [001] getglobal  0   0        ; 849075268
000E  59400000           [002] loadk      1   1        ; "Lotus.Interface.LotusUtilities"
0012  22800001           [003] call       0   2   2  
0016  5D000000           [004] getglobal  1   0        ; 849075268
001A  99800000           [005] loadk      2   2        ; "Lotus.Scripts.Libs.TransmissionSet"
001E  62800001           [006] call       1   2   2  
0022  9D000000           [007] getglobal  2   0        ; 849075268
0026  D9C00000           [008] loadk      3   3        ; "Lotus.Scripts.Libs.CommonGamemodeFunctions"
002A  A2800001           [009] call       2   2   2  
002E  DD000000           [010] getglobal  3   0        ; 849075268
0032  19010100           [011] loadk      4   4        ; "Lotus.Scripts.Libs.ObjectiveText"
0036  E2800001           [012] call       3   2   2  
003A  1D010000           [013] getglobal  4   0        ; 849075268
003E  59410100           [014] loadk      5   5        ; "Lotus.Scripts.Libs.SquadLink"
0042  22810001           [015] call       4   2   2  
0046  5D810100           [016] getglobal  5   6        ; -332969190
004A  99C10100           [017] loadk      6   7        ; "/Lotus/Language/Actions/CompleteXP"
004E  62810001           [018] call       5   2   2  
0052  9D810100           [019] getglobal  6   6        ; -332969190
0056  D9010200           [020] loadk      7   8        ; "SecondObjective"
005A  A2810001           [021] call       6   2   2  
005E  DD810100           [022] getglobal  7   6        ; -332969190
0062  19420200           [023] loadk      8   9        ; "BombPlaced"
0066  E2810001           [024] call       7   2   2  
006A  1D820100           [025] getglobal  8   6        ; -332969190
006E  59820200           [026] loadk      9   10       ; "HostageMarkerAdded"
0072  22820001           [027] call       8   2   2  
0076  5D820100           [028] getglobal  9   6        ; -332969190
007A  99C20200           [029] loadk      10  11       ; "SecondObjStarted"
007E  62820001           [030] call       9   2   2  
0082  86020005           [031] loadnil    10  10     
0086  E5020000           [032] closure    11  0      
008A  E0020300           [033] setglobal  11  12       ; OnRegisterForBeacon
008E  E0420300           [034] setglobal  11  13       ; -2118436135
0092  E5420000           [035] closure    11  1      
0096  E0820300           [036] setglobal  11  14       ; OnUnregisterForBeacon
009A  E0C20300           [037] setglobal  11  15       ; 1989525363
009E  E5820000           [038] closure    11  2      
00A2  E0020400           [039] setglobal  11  16       ; ChooseBossIntroCinematic
00A6  E0420400           [040] setglobal  11  17       ; -364440478
00AA  E5C20000           [041] closure    11  3      
00AE  E0820400           [042] setglobal  11  18       ; BossCinName
00B2  E0C20400           [043] setglobal  11  19       ; 113706852
00B6  E5020100           [044] closure    11  4      
00BA  25430100           [045] closure    12  5      
00BE  65830100           [046] closure    13  6      
00C2  A5C30100           [047] closure    14  7      
00C6  12000000           [048] move       0   0      
00CA  E5030200           [049] closure    15  8      
00CE  12000003           [050] move       0   6      
00D2  12000006           [051] move       0   12     
00D6  12008003           [052] move       0   7      
00DA  12000001           [053] move       0   2      
00DE  25440200           [054] closure    16  9      
00E2  20040500           [055] setglobal  16  20       ; SetoffAlarms
00E6  20440500           [056] setglobal  16  21       ; -634269257
00EA  25840200           [057] closure    16  10     
00EE  12008007           [058] move       0   15     
00F2  12000001           [059] move       0   2      
00F6  12008001           [060] move       0   3      
00FA  20840500           [061] setglobal  16  22       ; KillTheLights
00FE  20C40500           [062] setglobal  16  23       ; -1089107306
0102  25C40200           [063] closure    16  11     
0106  12008005           [064] move       0   11     
010A  20040600           [065] setglobal  16  24       ; PlayerHacking
010E  20440600           [066] setglobal  16  25       ; 245701566
0112  25040300           [067] closure    16  12     
0116  20840600           [068] setglobal  16  26       ; CoopDoorCheck
011A  20C40600           [069] setglobal  16  27       ; 1527068402
011E  1D840100           [070] getglobal  16  6        ; -332969190
0122  59040700           [071] loadk      17  28       ; "DataStolen"
0126  22840001           [072] call       16  2   2  
012A  65440300           [073] closure    17  13     
012E  12000008           [074] move       0   16     
0132  12008007           [075] move       0   15     
0136  12000001           [076] move       0   2      
013A  60440700           [077] setglobal  17  29       ; DataStealer
013E  60840700           [078] setglobal  17  30       ; -1265004155
0142  65840300           [079] closure    17  14     
0146  12000008           [080] move       0   16     
014A  12008000           [081] move       0   1      
014E  12000001           [082] move       0   2      
0152  12008002           [083] move       0   5      
0156  60C40700           [084] setglobal  17  31       ; NavModuleStealer
015A  60040800           [085] setglobal  17  32       ; -250325381
015E  65C40300           [086] closure    17  15     
0162  99440800           [087] loadk      18  33       ; 0
0166  E5040400           [088] closure    19  16     
016A  12000009           [089] move       0   18     
016E  25450400           [090] closure    20  17     
0172  12008009           [091] move       0   19     
0176  65850400           [092] closure    21  18     
017A  12008008           [093] move       0   17     
017E  12008001           [094] move       0   3      
0182  12008000           [095] move       0   1      
0186  12000001           [096] move       0   2      
018A  12000002           [097] move       0   4      
018E  1200000A           [098] move       0   20     
0192  60850800           [099] setglobal  21  34       ; killCounter
0196  60C50800           [100] setglobal  21  35       ; -1081913264
019A  65C50400           [101] closure    21  19     
019E  12000005           [102] move       0   10     
01A2  12000000           [103] move       0   0      
01A6  12000001           [104] move       0   2      
01AA  60050900           [105] setglobal  21  36       ; WaveCounter
01AE  60450900           [106] setglobal  21  37       ; 1824803110
01B2  65050500           [107] closure    21  20     
01B6  60850900           [108] setglobal  21  38       ; ObjectiveDoorHint
01BA  60C50900           [109] setglobal  21  39       ; -632629559
01BE  65450500           [110] closure    21  21     
01C2  60050A00           [111] setglobal  21  40       ; ObjectiveDoor
01C6  60450A00           [112] setglobal  21  41       ; -1819747388
01CA  65850500           [113] closure    21  22     
01CE  60850A00           [114] setglobal  21  42       ; ObjectiveDoorMoreMovers
01D2  60C50A00           [115] setglobal  21  43       ; 1132672308
01D6  5D850100           [116] getglobal  21  6        ; -332969190
01DA  99050B00           [117] loadk      22  44       ; "TargetSpawned"
01DE  62850001           [118] call       21  2   2  
01E2  9D850100           [119] getglobal  22  6        ; -332969190
01E6  D9450B00           [120] loadk      23  45       ; "TargetKilled"
01EA  A2850001           [121] call       22  2   2  
01EE  E5C50500           [122] closure    23  23     
01F2  1200000B           [123] move       0   22     
01F6  12000003           [124] move       0   6      
01FA  12000006           [125] move       0   12     
01FE  12008007           [126] move       0   15     
0202  12000001           [127] move       0   2      
0206  25060600           [128] closure    24  24     
020A  12000001           [129] move       0   2      
020E  1200800A           [130] move       0   21     
0212  1200800B           [131] move       0   23     
0216  20860B00           [132] setglobal  24  46       ; SpawnVIP
021A  20C60B00           [133] setglobal  24  47       ; 747653322
021E  25460600           [134] closure    24  25     
0222  1200800A           [135] move       0   21     
0226  1200000B           [136] move       0   22     
022A  1200800B           [137] move       0   23     
022E  20060C00           [138] setglobal  24  48       ; InitAssassinationAfterMigration
0232  20460C00           [139] setglobal  24  49       ; 620917487
0236  25860600           [140] closure    24  26     
023A  12000003           [141] move       0   6      
023E  12000006           [142] move       0   12     
0242  20860C00           [143] setglobal  24  50       ; AttachObjectiveMarker
0246  20C60C00           [144] setglobal  24  51       ; 1838186950
024A  25C60600           [145] closure    24  27     
024E  12000004           [146] move       0   8      
0252  12000003           [147] move       0   6      
0256  12000006           [148] move       0   12     
025A  12008007           [149] move       0   15     
025E  12000001           [150] move       0   2      
0262  20060D00           [151] setglobal  24  52       ; AttachMarkerHostage
0266  20460D00           [152] setglobal  24  53       ; -932306294
026A  25060700           [153] closure    24  28     
026E  1200800A           [154] move       0   21     
0272  20860D00           [155] setglobal  24  54       ; SpawnHostage
0276  20C60D00           [156] setglobal  24  55       ; -1604689858
027A  25460700           [157] closure    24  29     
027E  12000003           [158] move       0   6      
0282  12008004           [159] move       0   9      
0286  12008006           [160] move       0   13     
028A  20060E00           [161] setglobal  24  56       ; RescueSetup
028E  20460E00           [162] setglobal  24  57       ; 363623734
0292  25860700           [163] closure    24  30     
0296  1200800A           [164] move       0   21     
029A  12000003           [165] move       0   6      
029E  12008006           [166] move       0   13     
02A2  20860E00           [167] setglobal  24  58       ; InitializeRescueAfterMigration
02A6  20C60E00           [168] setglobal  24  59       ; 1789709710
02AA  1D860100           [169] getglobal  24  6        ; -332969190
02AE  59060F00           [170] loadk      25  60       ; "INTEL_PTS"
02B2  22860001           [171] call       24  2   2  
02B6  5D860100           [172] getglobal  25  6        ; -332969190
02BA  99460F00           [173] loadk      26  61       ; "INTEL_PTS_NEEDED"
02BE  62860001           [174] call       25  2   2  
02C2  99860F00           [175] loadk      26  62       ; 0
02C6  E5C60700           [176] closure    27  31     
02CA  12000001           [177] move       0   2      
02CE  1200000C           [178] move       0   24     
02D2  1200000D           [179] move       0   26     
02D6  12000005           [180] move       0   10     
02DA  12000000           [181] move       0   0      
02DE  1200800C           [182] move       0   25     
02E2  12008007           [183] move       0   15     
02E6  E0C60F00           [184] setglobal  27  63       ; IntelCounter
02EA  E0061000           [185] setglobal  27  64       ; -956684644
02EE  E5060800           [186] closure    27  32     
02F2  12000000           [187] move       0   0      
02F6  E0461000           [188] setglobal  27  65       ; SpawnDefense
02FA  E0861000           [189] setglobal  27  66       ; 1380252035
02FE  E5460800           [190] closure    27  33     
0302  12008003           [191] move       0   7      
0306  12000003           [192] move       0   6      
030A  E0C61000           [193] setglobal  27  67       ; PlaceBomb
030E  E0061100           [194] setglobal  27  68       ; -1157214897
0312  DD860100           [195] getglobal  27  6        ; -332969190
0316  19471100           [196] loadk      28  69       ; "PayloadDelivered"
031A  E2860001           [197] call       27  2   2  
031E  25870800           [198] closure    28  34     
0322  1200800D           [199] move       0   27     
0326  20871100           [200] setglobal  28  70       ; VirusDelivery
032A  20C71100           [201] setglobal  28  71       ; -1989495880
032E  25C70800           [202] closure    28  35     
0332  20071200           [203] setglobal  28  72       ; InitializeReactorAfterMigration
0336  20471200           [204] setglobal  28  73       ; 1081267749
033A  25070900           [205] closure    28  36     
033E  12000008           [206] move       0   16     
0342  20871200           [207] setglobal  28  74       ; InitializeRaidAfterMigration
0346  20C71200           [208] setglobal  28  75       ; 2099697632
034A  1D870100           [209] getglobal  28  6        ; -332969190
034E  59071300           [210] loadk      29  76       ; "SAB_PTS"
0352  22870001           [211] call       28  2   2  
0356  5D870100           [212] getglobal  29  6        ; -332969190
035A  99471300           [213] loadk      30  77       ; "SAB_DONE"
035E  62870001           [214] call       29  2   2  
0362  A5470900           [215] closure    30  37     
0366  1200800E           [216] move       0   29     
036A  12000001           [217] move       0   2      
036E  1200000E           [218] move       0   28     
0372  12000005           [219] move       0   10     
0376  12000000           [220] move       0   0      
037A  12008007           [221] move       0   15     
037E  A0871300           [222] setglobal  30  78       ; MultiSab
0382  A0C71300           [223] setglobal  30  79       ; -98782528
0386  A5870900           [224] closure    30  38     
038A  A0071400           [225] setglobal  30  80       ; SoftAbort
038E  A0471400           [226] setglobal  30  81       ; 83338862
0392  A5C70900           [227] closure    30  39     
0396  12000005           [228] move       0   10     
039A  A0871400           [229] setglobal  30  82       ; ClearMissionGoal
039E  A0C71400           [230] setglobal  30  83       ; 1555251089
03A2  1E008000           [231] return     0   1      
                         * constants:
03A6  54                 sizek (84)
03A7  01                 const type 3
03A8  44DC9B32           const [0]: (849075268)
03AC  04                 const type 4
03AD  1F                 string size (31)
03AE  4C6F7475732E496E+  "Lotus.In"
03B6  746572666163652E+  "terface."
03BE  4C6F747573557469+  "LotusUti"
03C6  6C697469657300     "lities\0"
                         const [1]: "Lotus.Interface.LotusUtilities"
03CD  04                 const type 4
03CE  23                 string size (35)
03CF  4C6F7475732E5363+  "Lotus.Sc"
03D7  72697074732E4C69+  "ripts.Li"
03DF  62732E5472616E73+  "bs.Trans"
03E7  6D697373696F6E53+  "missionS"
03EF  657400             "et\0"
                         const [2]: "Lotus.Scripts.Libs.TransmissionSet"
03F2  04                 const type 4
03F3  2B                 string size (43)
03F4  4C6F7475732E5363+  "Lotus.Sc"
03FC  72697074732E4C69+  "ripts.Li"
0404  62732E436F6D6D6F+  "bs.Commo"
040C  6E47616D656D6F64+  "nGamemod"
0414  6546756E6374696F+  "eFunctio"
041C  6E7300             "ns\0"
                         const [3]: "Lotus.Scripts.Libs.CommonGamemodeFunctions"
041F  04                 const type 4
0420  21                 string size (33)
0421  4C6F7475732E5363+  "Lotus.Sc"
0429  72697074732E4C69+  "ripts.Li"
0431  62732E4F626A6563+  "bs.Objec"
0439  7469766554657874+  "tiveText"
0441  00                 "\0"
                         const [4]: "Lotus.Scripts.Libs.ObjectiveText"
0442  04                 const type 4
0443  1D                 string size (29)
0444  4C6F7475732E5363+  "Lotus.Sc"
044C  72697074732E4C69+  "ripts.Li"
0454  62732E5371756164+  "bs.Squad"
045C  4C696E6B00         "Link\0"
                         const [5]: "Lotus.Scripts.Libs.SquadLink"
0461  01                 const type 3
0462  1A4B27EC           const [6]: (-332969190)
0466  04                 const type 4
0467  23                 string size (35)
0468  2F4C6F7475732F4C+  "/Lotus/L"
0470  616E67756167652F+  "anguage/"
0478  416374696F6E732F+  "Actions/"
0480  436F6D706C657465+  "Complete"
0488  585000             "XP\0"
                         const [7]: "/Lotus/Language/Actions/CompleteXP"
048B  04                 const type 4
048C  10                 string size (16)
048D  5365636F6E644F62+  "SecondOb"
0495  6A65637469766500   "jective\0"
                         const [8]: "SecondObjective"
049D  04                 const type 4
049E  0B                 string size (11)
049F  426F6D62506C6163+  "BombPlac"
04A7  656400             "ed\0"
                         const [9]: "BombPlaced"
04AA  04                 const type 4
04AB  13                 string size (19)
04AC  486F73746167654D+  "HostageM"
04B4  61726B6572416464+  "arkerAdd"
04BC  656400             "ed\0"
                         const [10]: "HostageMarkerAdded"
04BF  04                 const type 4
04C0  11                 string size (17)
04C1  5365636F6E644F62+  "SecondOb"
04C9  6A53746172746564+  "jStarted"
04D1  00                 "\0"
                         const [11]: "SecondObjStarted"
04D2  04                 const type 4
04D3  14                 string size (20)
04D4  4F6E526567697374+  "OnRegist"
04DC  6572466F72426561+  "erForBea"
04E4  636F6E00           "con\0"
                         const [12]: "OnRegisterForBeacon"
04E8  01                 const type 3
04E9  D93ABB81           const [13]: (-2118436135)
04ED  04                 const type 4
04EE  16                 string size (22)
04EF  4F6E556E72656769+  "OnUnregi"
04F7  73746572466F7242+  "sterForB"
04FF  6561636F6E00       "eacon\0"
                         const [14]: "OnUnregisterForBeacon"
0505  01                 const type 3
0506  73BF9576           const [15]: (1989525363)
050A  04                 const type 4
050B  19                 string size (25)
050C  43686F6F7365426F+  "ChooseBo"
0514  7373496E74726F43+  "ssIntroC"
051C  696E656D61746963+  "inematic"
0524  00                 "\0"
                         const [16]: "ChooseBossIntroCinematic"
0525  01                 const type 3
0526  621447EA           const [17]: (-364440478)
052A  04                 const type 4
052B  0C                 string size (12)
052C  426F737343696E4E+  "BossCinN"
0534  616D6500           "ame\0"
                         const [18]: "BossCinName"
0538  01                 const type 3
0539  6407C706           const [19]: (113706852)
053D  04                 const type 4
053E  0D                 string size (13)
053F  5365746F6666416C+  "SetoffAl"
0547  61726D7300         "arms\0"
                         const [20]: "SetoffAlarms"
054C  01                 const type 3
054D  B7D131DA           const [21]: (-634269257)
0551  04                 const type 4
0552  0E                 string size (14)
0553  4B696C6C5468654C+  "KillTheL"
055B  696768747300       "ights\0"
                         const [22]: "KillTheLights"
0561  01                 const type 3
0562  968A15BF           const [23]: (-1089107306)
0566  04                 const type 4
0567  0E                 string size (14)
0568  506C617965724861+  "PlayerHa"
0570  636B696E6700       "cking\0"
                         const [24]: "PlayerHacking"
0576  01                 const type 3
0577  BE1BA50E           const [25]: (245701566)
057B  04                 const type 4
057C  0E                 string size (14)
057D  436F6F70446F6F72+  "CoopDoor"
0585  436865636B00       "Check\0"
                         const [26]: "CoopDoorCheck"
058B  01                 const type 3
058C  F236055B           const [27]: (1527068402)
0590  04                 const type 4
0591  0B                 string size (11)
0592  4461746153746F6C+  "DataStol"
059A  656E00             "en\0"
                         const [28]: "DataStolen"
059D  04                 const type 4
059E  0C                 string size (12)
059F  4461746153746561+  "DataStea"
05A7  6C657200           "ler\0"
                         const [29]: "DataStealer"
05AB  01                 const type 3
05AC  859199B4           const [30]: (-1265004155)
05B0  04                 const type 4
05B1  11                 string size (17)
05B2  4E61764D6F64756C+  "NavModul"
05BA  65537465616C6572+  "eStealer"
05C2  00                 "\0"
                         const [31]: "NavModuleStealer"
05C3  01                 const type 3
05C4  7B5614F1           const [32]: (-250325381)
05C8  03                 const type 3
05C9  00001041           const [33]: (0)
05CD  04                 const type 4
05CE  0C                 string size (12)
05CF  6B696C6C436F756E+  "killCoun"
05D7  74657200           "ter\0"
                         const [34]: "killCounter"
05DB  01                 const type 3
05DC  505083BF           const [35]: (-1081913264)
05E0  04                 const type 4
05E1  0C                 string size (12)
05E2  57617665436F756E+  "WaveCoun"
05EA  74657200           "ter\0"
                         const [36]: "WaveCounter"
05EE  01                 const type 3
05EF  2649C46C           const [37]: (1824803110)
05F3  04                 const type 4
05F4  12                 string size (18)
05F5  4F626A6563746976+  "Objectiv"
05FD  65446F6F7248696E+  "eDoorHin"
0605  7400               "t\0"
                         const [38]: "ObjectiveDoorHint"
0607  01                 const type 3
0608  C9D64ADA           const [39]: (-632629559)
060C  04                 const type 4
060D  0E                 string size (14)
060E  4F626A6563746976+  "Objectiv"
0616  65446F6F7200       "eDoor\0"
                         const [40]: "ObjectiveDoor"
061C  01                 const type 3
061D  C4DB8893           const [41]: (-1819747388)
0621  04                 const type 4
0622  18                 string size (24)
0623  4F626A6563746976+  "Objectiv"
062B  65446F6F724D6F72+  "eDoorMor"
0633  654D6F7665727300   "eMovers\0"
                         const [42]: "ObjectiveDoorMoreMovers"
063B  01                 const type 3
063C  34358343           const [43]: (1132672308)
0640  04                 const type 4
0641  0E                 string size (14)
0642  5461726765745370+  "TargetSp"
064A  61776E656400       "awned\0"
                         const [44]: "TargetSpawned"
0650  04                 const type 4
0651  0D                 string size (13)
0652  5461726765744B69+  "TargetKi"
065A  6C6C656400         "lled\0"
                         const [45]: "TargetKilled"
065F  04                 const type 4
0660  09                 string size (9)
0661  537061776E564950+  "SpawnVIP"
0669  00                 "\0"
                         const [46]: "SpawnVIP"
066A  01                 const type 3
066B  CA48902C           const [47]: (747653322)
066F  04                 const type 4
0670  20                 string size (32)
0671  496E697441737361+  "InitAssa"
0679  7373696E6174696F+  "ssinatio"
0681  6E41667465724D69+  "nAfterMi"
0689  67726174696F6E00   "gration\0"
                         const [48]: "InitAssassinationAfterMigration"
0691  01                 const type 3
0692  EF720225           const [49]: (620917487)
0696  04                 const type 4
0697  16                 string size (22)
0698  4174746163684F62+  "AttachOb"
06A0  6A6563746976654D+  "jectiveM"
06A8  61726B657200       "arker\0"
                         const [50]: "AttachObjectiveMarker"
06AE  01                 const type 3
06AF  C681906D           const [51]: (1838186950)
06B3  04                 const type 4
06B4  14                 string size (20)
06B5  4174746163684D61+  "AttachMa"
06BD  726B6572486F7374+  "rkerHost"
06C5  61676500           "age\0"
                         const [52]: "AttachMarkerHostage"
06C9  01                 const type 3
06CA  8A226EC8           const [53]: (-932306294)
06CE  04                 const type 4
06CF  0D                 string size (13)
06D0  537061776E486F73+  "SpawnHos"
06D8  7461676500         "tage\0"
                         const [54]: "SpawnHostage"
06DD  01                 const type 3
06DE  3E605AA0           const [55]: (-1604689858)
06E2  04                 const type 4
06E3  0C                 string size (12)
06E4  5265736375655365+  "RescueSe"
06EC  74757000           "tup\0"
                         const [56]: "RescueSetup"
06F0  01                 const type 3
06F1  3675AC15           const [57]: (363623734)
06F5  04                 const type 4
06F6  1F                 string size (31)
06F7  496E697469616C69+  "Initiali"
06FF  7A65526573637565+  "zeRescue"
0707  41667465724D6967+  "AfterMig"
070F  726174696F6E00     "ration\0"
                         const [58]: "InitializeRescueAfterMigration"
0716  01                 const type 3
0717  8ECDAC6A           const [59]: (1789709710)
071B  04                 const type 4
071C  0A                 string size (10)
071D  494E54454C5F5054+  "INTEL_PT"
0725  5300               "S\0"
                         const [60]: "INTEL_PTS"
0727  04                 const type 4
0728  11                 string size (17)
0729  494E54454C5F5054+  "INTEL_PT"
0731  535F4E4545444544+  "S_NEEDED"
0739  00                 "\0"
                         const [61]: "INTEL_PTS_NEEDED"
073A  03                 const type 3
073B  00007F43           const [62]: (0)
073F  04                 const type 4
0740  0D                 string size (13)
0741  496E74656C436F75+  "IntelCou"
0749  6E74657200         "nter\0"
                         const [63]: "IntelCounter"
074E  01                 const type 3
074F  9C26FAC6           const [64]: (-956684644)
0753  04                 const type 4
0754  0D                 string size (13)
0755  537061776E446566+  "SpawnDef"
075D  656E736500         "ense\0"
                         const [65]: "SpawnDefense"
0762  01                 const type 3
0763  83F94452           const [66]: (1380252035)
0767  04                 const type 4
0768  0A                 string size (10)
0769  506C616365426F6D+  "PlaceBom"
0771  6200               "b\0"
                         const [67]: "PlaceBomb"
0773  01                 const type 3
0774  4F4D06BB           const [68]: (-1157214897)
0778  04                 const type 4
0779  11                 string size (17)
077A  5061796C6F616444+  "PayloadD"
0782  656C697665726564+  "elivered"
078A  00                 "\0"
                         const [69]: "PayloadDelivered"
078B  04                 const type 4
078C  0E                 string size (14)
078D  566972757344656C+  "VirusDel"
0795  697665727900       "ivery\0"
                         const [70]: "VirusDelivery"
079B  01                 const type 3
079C  B8B36A89           const [71]: (-1989495880)
07A0  04                 const type 4
07A1  20                 string size (32)
07A2  496E697469616C69+  "Initiali"
07AA  7A6552656163746F+  "zeReacto"
07B2  7241667465724D69+  "rAfterMi"
07BA  67726174696F6E00   "gration\0"
                         const [72]: "InitializeReactorAfterMigration"
07C2  01                 const type 3
07C3  25D67240           const [73]: (1081267749)
07C7  04                 const type 4
07C8  1D                 string size (29)
07C9  496E697469616C69+  "Initiali"
07D1  7A65526169644166+  "zeRaidAf"
07D9  7465724D69677261+  "terMigra"
07E1  74696F6E00         "tion\0"
                         const [74]: "InitializeRaidAfterMigration"
07E6  01                 const type 3
07E7  E0D7267D           const [75]: (2099697632)
07EB  04                 const type 4
07EC  08                 string size (8)
07ED  5341425F50545300   "SAB_PTS\0"
                         const [76]: "SAB_PTS"
07F5  04                 const type 4
07F6  09                 string size (9)
07F7  5341425F444F4E45+  "SAB_DONE"
07FF  00                 "\0"
                         const [77]: "SAB_DONE"
0800  04                 const type 4
0801  09                 string size (9)
0802  4D756C7469536162+  "MultiSab"
080A  00                 "\0"
                         const [78]: "MultiSab"
080B  01                 const type 3
080C  C0B21CFA           const [79]: (-98782528)
0810  04                 const type 4
0811  0A                 string size (10)
0812  536F667441626F72+  "SoftAbor"
081A  7400               "t\0"
                         const [80]: "SoftAbort"
081C  01                 const type 3
081D  6EA6F704           const [81]: (83338862)
0821  04                 const type 4
0822  11                 string size (17)
0823  436C6561724D6973+  "ClearMis"
082B  73696F6E476F616C+  "sionGoal"
0833  00                 "\0"
                         const [82]: "ClearMissionGoal"
0834  01                 const type 3
0835  913FB35C           const [83]: (1555251089)
                         * functions:
0839  28                 sizep (40)
                         
083A                     ** function [0] definition (level 2)
                         ** start of function **
083A  00                 string size (0)
                         source name: (none)
083B  53                 line defined (83)
083C  54                 last line defined (84)
083D  00                 nups (0)
083E  00                 numparams (0)
083F  00                 is_vararg (0)
0840  02                 maxstacksize (2)
                         * code:
0841  01                 sizecode (1)
0842  1E008000           [1] return     0   1      
                         * constants:
0846  00                 sizek (0)
                         * functions:
0847  00                 sizep (0)
                         * lines:
0848  01                 sizelineinfo (1)
                         [pc] (line)
0849  54                 [1] (84)
                         * locals:
084D  00                 sizelocvars (0)
                         * upvalues:
084E  00                 sizeupvalues (0)
                         ** end of function **

                         
084F                     ** function [1] definition (level 2)
                         ** start of function **
084F  00                 string size (0)
                         source name: (none)
0850  56                 line defined (86)
0851  57                 last line defined (87)
0852  00                 nups (0)
0853  00                 numparams (0)
0854  00                 is_vararg (0)
0855  02                 maxstacksize (2)
                         * code:
0856  01                 sizecode (1)
0857  1E008000           [1] return     0   1      
                         * constants:
085B  00                 sizek (0)
                         * functions:
085C  00                 sizep (0)
                         * lines:
085D  01                 sizelineinfo (1)
                         [pc] (line)
085E  57                 [1] (87)
                         * locals:
0862  00                 sizelocvars (0)
                         * upvalues:
0863  00                 sizeupvalues (0)
                         ** end of function **

                         
0864                     ** function [2] definition (level 2)
                         ** start of function **
0864  00                 string size (0)
                         source name: (none)
0865  59                 line defined (89)
0866  9E                 last line defined (158)
0867  01                 nups (0)
0868  00                 numparams (1)
0869  01                 is_vararg (0)
086A  00                 maxstacksize (27)
                         * code:
086D  01                 sizecode (154)
086E  5D000000           [001] getglobal  1   0        ; _T
0872  4E40C000           [002] gettable   1   1   257  ; "vipAvatar"
0876  9D800000           [003] getglobal  2   2        ; 1074689893
087A  D2008000           [004] move       3   1      
087E  A2800001           [005] call       2   2   2  
0882  98000000           [006] test       2       0    ; to [8] if true
0886  1AC00280           [007] jmp        12           ; to [20]
088A  9D800000           [008] getglobal  2   2        ; 1074689893
088E  DDC00000           [009] getglobal  3   3        ; spawncontrol
0892  A2800001           [010] call       2   2   2  
0896  98400000           [011] test       2       1    ; to [13] if false
089A  1A800180           [012] jmp        7            ; to [20]
089E  9DC00000           [013] getglobal  2   3        ; spawncontrol
08A2  A4004101           [014] self       2   2   260  ; 803365678
08A6  A2800001           [015] call       2   2   2  
08AA  CE404101           [016] gettable   3   2   261  ; 0
08AE  2481C101           [017] self       4   3   262  ; 2022702902
08B2  22810001           [018] call       4   2   2  
08B6  52000002           [019] move       1   4      
08BA  1D810000           [020] getglobal  4   2        ; 1074689893
08BE  52018000           [021] move       5   1      
08C2  22810001           [022] call       4   2   2  
08C6  18010000           [023] test       4       0    ; to [25] if true
08CA  1AC00180           [024] jmp        8            ; to [33]
08CE  1D810000           [025] getglobal  4   2        ; 1074689893
08D2  52010000           [026] move       5   0      
08D6  22810001           [027] call       4   2   2  
08DA  18410000           [028] test       4       1    ; to [30] if false
08DE  1A800080           [029] jmp        3            ; to [33]
08E2  24C14100           [030] self       4   0   263  ; -2135866365
08E6  22810001           [031] call       4   2   2  
08EA  52000002           [032] move       1   4      
08EE  1D810000           [033] getglobal  4   2        ; 1074689893
08F2  52018000           [034] move       5   1      
08F6  22810001           [035] call       4   2   2  
08FA  18410000           [036] test       4       1    ; to [38] if false
08FE  1AC00080           [037] jmp        4            ; to [42]
0902  2401C200           [038] self       4   1   264  ; 1511086594
0906  22810001           [039] call       4   2   2  
090A  18010000           [040] test       4       0    ; to [42] if true
090E  1AC00080           [041] jmp        4            ; to [46]
0912  1D410200           [042] getglobal  4   9        ; -1817107093
0916  59810200           [043] loadk      5   10       ; "Could not pick cinematic for boss avatar [no avatar]"
091A  22410001           [044] call       4   2   1  
091E  1E008000           [045] return     0   1      
0922  24C1C200           [046] self       4   1   267  ; -899636345
0926  22810001           [047] call       4   2   2  
092A  64014302           [048] self       5   4   268  ; 455421500
092E  62810001           [049] call       5   2   2  
0932  97010000           [050] loadbool   6   0   0    ; false
0936  C6018003           [051] loadnil    7   7      
093A  19420100           [052] loadk      8   5        ; 0
093E  5D420300           [053] getglobal  9   13       ; bossIntroCinematics
0942  4A028004           [054] len        9   9      
0946  99420100           [055] loadk      10  5        ; 0
094A  10C20880           [056] forprep    8   36       ; to [93]
094E  1D430300           [057] getglobal  12  13       ; bossIntroCinematics
0952  CEC10206           [058] gettable   7   12  11 
0956  1D830000           [059] getglobal  12  2        ; 1074689893
095A  52038003           [060] move       13  7      
095E  22830001           [061] call       12  2   2  
0962  18430000           [062] test       12      1    ; to [64] if false
0966  1A000780           [063] jmp        29           ; to [93]
096A  98410000           [064] test       6       1    ; to [66] if false
096E  1A800680           [065] jmp        27           ; to [93]
0972  2483C303           [066] self       12  7   270  ; -1132033364
0976  22830001           [067] call       12  2   2  
097A  5D830000           [068] getglobal  13  2        ; 1074689893
097E  92030006           [069] move       14  12     
0982  62830001           [070] call       13  2   2  
0986  58430000           [071] test       13      1    ; to [73] if false
098A  1AC00480           [072] jmp        20           ; to [93]
098E  59430100           [073] loadk      13  5        ; 0
0992  8A030006           [074] len        14  12     
0996  D9430100           [075] loadk      15  5        ; 0
099A  50830380           [076] forprep    13  15       ; to [92]
099E  4E040406           [077] gettable   17  12  16 
09A2  9D840000           [078] getglobal  18  2        ; 1074689893
09A6  D2048008           [079] move       19  17     
09AA  A2840001           [080] call       18  2   2  
09AE  98440000           [081] test       18      1    ; to [83] if false
09B2  1A000280           [082] jmp        9            ; to [92]
09B6  A404C308           [083] self       18  17  268  ; 455421500
09BA  A2840001           [084] call       18  2   2  
fail op	35
09BE  23400109           [085] close      0  
09C2  1A000180           [086] jmp        5            ; to [92]
09C6  E4C4C303           [087] self       19  7   271  ; -1923578185
09CA  59050400           [088] loadk      21  16       ; "StartPlaying"
09CE  E2448001           [089] call       19  3   1  
09D2  97018000           [090] loadbool   6   1   0    ; true
09D6  1A000080           [091] jmp        1            ; to [93]
09DA  54C3FB7F           [092] forloop    13  -16      ; to [77] if loop
09DE  1482F67F           [093] forloop    8   -37      ; to [57] if loop
09E2  98010000           [094] test       6       0    ; to [96] if true
09E6  1A400580           [095] jmp        22           ; to [118]
09EA  DD440400           [096] getglobal  19  17       ; gGameRules
09EE  E484C409           [097] self       19  19  274  ; -803877924
09F2  5DC50400           [098] getglobal  21  19       ; -332969190
09F6  99050500           [099] loadk      22  20       ; "BossIntroMovieDelay"
09FA  62850001           [100] call       21  2   2  
09FE  9D450500           [101] getglobal  22  21       ; math
0A02  8E85450B           [102] gettable   22  22  278  ; -150971781
0A06  DDC50500           [103] getglobal  23  23       ; bossIntroMovieDelay
0A0A  C405C60B           [104] mul        23  23  280  ; 0
0A0E  A2050001           [105] call       22  2   0  
0A12  E2440000           [106] call       19  0   1  
0A16  DD440600           [107] getglobal  19  25       ; gRegion
0A1A  E484C609           [108] self       19  19  282  ; -1110225722
0A1E  5DC50600           [109] getglobal  21  27       ; bossCinNameType
0A22  A405C700           [110] self       22  1   284  ; 196800914
0A26  A2850001           [111] call       22  2   2  
0A2A  DD450700           [112] getglobal  23  29       ; ZERO_ROTATION
0A2E  12068000           [113] move       24  1      
0A32  4606800C           [114] loadnil    25  25     
0A36  99460100           [115] loadk      26  5        ; 0
0A3A  E2440004           [116] call       19  8   1  
0A3E  1A800080           [117] jmp        3            ; to [121]
0A42  DD440200           [118] getglobal  19  9        ; -1817107093
0A46  19850700           [119] loadk      20  30       ; "Could not find boss in cinematics for ChooseBossIntroCinematic"
0A4A  E2440001           [120] call       19  2   1  
0A4E  DD440400           [121] getglobal  19  17       ; gGameRules
0A52  1D850000           [122] getglobal  20  2        ; 1074689893
0A56  52058009           [123] move       21  19     
0A5A  22850001           [124] call       20  2   2  
0A5E  18450000           [125] test       20      1    ; to [127] if false
0A62  1A800080           [126] jmp        3            ; to [130]
0A66  24C5C709           [127] self       20  19  287  ; 952266004
0A6A  97058000           [128] loadbool   22  1   0    ; true
0A6E  22458001           [129] call       20  3   1  
0A72  1D450600           [130] getglobal  20  25       ; gRegion
0A76  2405480A           [131] self       20  20  288  ; -774964848
0A7A  22850001           [132] call       20  2   2  
0A7E  2445480A           [133] self       20  20  289  ; 537471347
0A82  22850001           [134] call       20  2   2  
0A86  5D850000           [135] getglobal  21  2        ; 1074689893
0A8A  9205000A           [136] move       22  20     
0A8E  62850001           [137] call       21  2   2  
0A92  58450000           [138] test       21      1    ; to [140] if false
0A96  1A400380           [139] jmp        14           ; to [154]
0A9A  6485480A           [140] self       21  20  290  ; 1381619179
0A9E  D7058000           [141] loadbool   23  1   0    ; true
0AA2  62458001           [142] call       21  3   1  
0AA6  64C5C803           [143] self       21  7   291  ; 1438910546
0AAA  62850001           [144] call       21  2   2  
0AAE  58050000           [145] test       21      0    ; to [147] if true
0AB2  1AC00080           [146] jmp        4            ; to [151]
0AB6  5D050900           [147] getglobal  21  36       ; 538022378
0ABA  99450900           [148] loadk      22  37       ; 0
0ABE  62450001           [149] call       21  2   1  
0AC2  1AC0FD7F           [150] jmp        -8           ; to [143]
0AC6  6485480A           [151] self       21  20  290  ; 1381619179
0ACA  D7050000           [152] loadbool   23  0   0    ; false
0ACE  62458001           [153] call       21  3   1  
0AD2  1E008000           [154] return     0   1      
                         * constants:
0AD6  26                 sizek (38)
0AD7  04                 const type 4
0AD8  03                 string size (3)
0AD9  5F5400             "_T\0"
                         const [0]: "_T"
0ADC  04                 const type 4
0ADD  0A                 string size (10)
0ADE  7669704176617461+  "vipAvata"
0AE6  7200               "r\0"
                         const [1]: "vipAvatar"
0AE8  01                 const type 3
0AE9  65770E40           const [2]: (1074689893)
0AED  04                 const type 4
0AEE  0D                 string size (13)
0AEF  737061776E636F6E+  "spawncon"
0AF7  74726F6C00         "trol\0"
                         const [3]: "spawncontrol"
0AFC  01                 const type 3
0AFD  2E63E22F           const [4]: (803365678)
0B01  03                 const type 3
0B02  0000803F           const [5]: (0)
0B06  01                 const type 3
0B07  36FF8F78           const [6]: (2022702902)
0B0B  01                 const type 3
0B0C  0344B180           const [7]: (-2135866365)
0B10  01                 const type 3
0B11  025A115A           const [8]: (1511086594)
0B15  01                 const type 3
0B16  6B25B193           const [9]: (-1817107093)
0B1A  04                 const type 4
0B1B  35                 string size (53)
0B1C  436F756C64206E6F+  "Could no"
0B24  74207069636B2063+  "t pick c"
0B2C  696E656D61746963+  "inematic"
0B34  20666F7220626F73+  " for bos"
0B3C  7320617661746172+  "s avatar"
0B44  205B6E6F20617661+  " [no ava"
0B4C  7461725D00         "tar]\0"
                         const [10]: "Could not pick cinematic for boss avatar [no avatar]"
0B51  01                 const type 3
0B52  87A360CA           const [11]: (-899636345)
0B56  01                 const type 3
0B57  3C2E251B           const [12]: (455421500)
0B5B  04                 const type 4
0B5C  14                 string size (20)
0B5D  626F7373496E7472+  "bossIntr"
0B65  6F43696E656D6174+  "oCinemat"
0B6D  69637300           "ics\0"
                         const [13]: "bossIntroCinematics"
0B71  01                 const type 3
0B72  AC8A86BC           const [14]: (-1132033364)
0B76  01                 const type 3
0B77  B786588D           const [15]: (-1923578185)
0B7B  04                 const type 4
0B7C  0D                 string size (13)
0B7D  5374617274506C61+  "StartPla"
0B85  79696E6700         "ying\0"
                         const [16]: "StartPlaying"
0B8A  04                 const type 4
0B8B  0B                 string size (11)
0B8C  6747616D6552756C+  "gGameRul"
0B94  657300             "es\0"
                         const [17]: "gGameRules"
0B97  01                 const type 3
0B98  DCCB15D0           const [18]: (-803877924)
0B9C  01                 const type 3
0B9D  1A4B27EC           const [19]: (-332969190)
0BA1  04                 const type 4
0BA2  14                 string size (20)
0BA3  426F7373496E7472+  "BossIntr"
0BAB  6F4D6F7669654465+  "oMovieDe"
0BB3  6C617900           "lay\0"
                         const [20]: "BossIntroMovieDelay"
0BB7  04                 const type 4
0BB8  05                 string size (5)
0BB9  6D61746800         "math\0"
                         const [21]: "math"
0BBE  01                 const type 3
0BBF  7B5A00F7           const [22]: (-150971781)
0BC3  04                 const type 4
0BC4  14                 string size (20)
0BC5  626F7373496E7472+  "bossIntr"
0BCD  6F4D6F7669654465+  "oMovieDe"
0BD5  6C617900           "lay\0"
                         const [23]: "bossIntroMovieDelay"
0BD9  03                 const type 3
0BDA  00007A44           const [24]: (0)
0BDE  04                 const type 4
0BDF  08                 string size (8)
0BE0  67526567696F6E00   "gRegion\0"
                         const [25]: "gRegion"
0BE8  01                 const type 3
0BE9  C64CD3BD           const [26]: (-1110225722)
0BED  04                 const type 4
0BEE  10                 string size (16)
0BEF  626F737343696E4E+  "bossCinN"
0BF7  616D655479706500   "ameType\0"
                         const [27]: "bossCinNameType"
0BFF  01                 const type 3
0C00  92F1BA0B           const [28]: (196800914)
0C04  04                 const type 4
0C05  0E                 string size (14)
0C06  5A45524F5F524F54+  "ZERO_ROT"
0C0E  4154494F4E00       "ATION\0"
                         const [29]: "ZERO_ROTATION"
0C14  04                 const type 4
0C15  3F                 string size (63)
0C16  436F756C64206E6F+  "Could no"
0C1E  742066696E642062+  "t find b"
0C26  6F737320696E2063+  "oss in c"
0C2E  696E656D61746963+  "inematic"
0C36  7320666F72204368+  "s for Ch"
0C3E  6F6F7365426F7373+  "ooseBoss"
0C46  496E74726F43696E+  "IntroCin"
0C4E  656D6174696300     "ematic\0"
                         const [30]: "Could not find boss in cinematics for ChooseBossIntroCinematic"
0C55  01                 const type 3
0C56  146DC238           const [31]: (952266004)
0C5A  01                 const type 3
0C5B  90F9CED1           const [32]: (-774964848)
0C5F  01                 const type 3
0C60  73290920           const [33]: (537471347)
0C64  01                 const type 3
0C65  EBD55952           const [34]: (1381619179)
0C69  01                 const type 3
0C6A  5208C455           const [35]: (1438910546)
0C6E  01                 const type 3
0C6F  EA911120           const [36]: (538022378)
0C73  03                 const type 3
0C74  00000000           const [37]: (0)
                         * functions:
0C78  00                 sizep (0)
                         * lines:
0C7A  01                 sizelineinfo (154)
                         [pc] (line)
0C7B  5A                 [001] (90)
0C7C  00                 [002] (90)
0C7D  00                 [003] (92)
0C7E  00                 [004] (92)
0C7F  5A                 [005] (92)
0C80  00                 [006] (92)
0C81  00                 [007] (92)
0C82  00                 [008] (92)
0C83  5C                 [009] (92)
0C84  00                 [010] (92)
0C85  00                 [011] (92)
0C86  00                 [012] (92)
0C87  5C                 [013] (93)
0C88  00                 [014] (93)
0C89  00                 [015] (93)
0C8A  00                 [016] (94)
0C8B  5C                 [017] (95)
0C8C  00                 [018] (95)
0C8D  00                 [019] (95)
0C8E  00                 [020] (98)
0C8F  5C                 [021] (98)
0C90  00                 [022] (98)
0C91  00                 [023] (98)
0C92  00                 [024] (98)
0C93  5C                 [025] (98)
0C94  00                 [026] (98)
0C95  00                 [027] (98)
0C96  00                 [028] (98)
0C97  5C                 [029] (98)
0C98  00                 [030] (99)
0C99  00                 [031] (99)
0C9A  00                 [032] (99)
0C9B  5C                 [033] (102)
0C9C  00                 [034] (102)
0C9D  00                 [035] (102)
0C9E  00                 [036] (102)
0C9F  5C                 [037] (102)
0CA0  00                 [038] (102)
0CA1  00                 [039] (102)
0CA2  00                 [040] (102)
0CA3  5C                 [041] (102)
0CA4  00                 [042] (103)
0CA5  00                 [043] (103)
0CA6  00                 [044] (103)
0CA7  5C                 [045] (104)
0CA8  00                 [046] (107)
0CA9  00                 [047] (107)
0CAA  00                 [048] (108)
0CAB  5D                 [049] (108)
0CAC  00                 [050] (110)
0CAD  00                 [051] (111)
0CAE  00                 [052] (112)
0CAF  5D                 [053] (112)
0CB0  00                 [054] (112)
0CB1  00                 [055] (112)
0CB2  00                 [056] (112)
0CB3  5D                 [057] (113)
0CB4  00                 [058] (113)
0CB5  00                 [059] (115)
0CB6  00                 [060] (115)
0CB7  5E                 [061] (115)
0CB8  00                 [062] (115)
0CB9  00                 [063] (115)
0CBA  00                 [064] (115)
0CBB  5F                 [065] (115)
0CBC  00                 [066] (116)
0CBD  00                 [067] (116)
0CBE  00                 [068] (117)
0CBF  5F                 [069] (117)
0CC0  00                 [070] (117)
0CC1  00                 [071] (117)
0CC2  00                 [072] (117)
0CC3  5F                 [073] (118)
0CC4  00                 [074] (118)
0CC5  00                 [075] (118)
0CC6  00                 [076] (118)
0CC7  62                 [077] (120)
0CC8  00                 [078] (121)
0CC9  00                 [079] (121)
0CCA  00                 [080] (121)
0CCB  62                 [081] (121)
0CCC  00                 [082] (121)
0CCD  00                 [083] (122)
0CCE  00                 [084] (122)
0CCF  62                 [085] (124)
0CD0  00                 [086] (124)
0CD1  00                 [087] (126)
0CD2  00                 [088] (126)
0CD3  62                 [089] (126)
0CD4  00                 [090] (127)
0CD5  00                 [091] (-128)
0CD6  00                 [092] (118)
0CD7  62                 [093] (112)
0CD8  00                 [094] (-120)
0CD9  00                 [095] (-120)
0CDA  00                 [096] (-119)
0CDB  62                 [097] (-119)
0CDC  00                 [098] (-119)
0CDD  00                 [099] (-119)
0CDE  00                 [100] (-119)
0CDF  62                 [101] (-119)
0CE0  00                 [102] (-119)
0CE1  00                 [103] (-119)
0CE2  00                 [104] (-119)
0CE3  62                 [105] (-119)
0CE4  00                 [106] (-119)
0CE5  00                 [107] (-118)
0CE6  00                 [108] (-118)
0CE7  62                 [109] (-118)
0CE8  00                 [110] (-118)
0CE9  00                 [111] (-118)
0CEA  00                 [112] (-118)
0CEB  62                 [113] (-118)
0CEC  00                 [114] (-118)
0CED  00                 [115] (-118)
0CEE  00                 [116] (-118)
0CEF  63                 [117] (-118)
0CF0  00                 [118] (-116)
0CF1  00                 [119] (-116)
0CF2  00                 [120] (-116)
0CF3  63                 [121] (-112)
0CF4  00                 [122] (-111)
0CF5  00                 [123] (-111)
0CF6  00                 [124] (-111)
0CF7  63                 [125] (-111)
0CF8  00                 [126] (-111)
0CF9  00                 [127] (-110)
0CFA  00                 [128] (-110)
0CFB  66                 [129] (-110)
0CFC  00                 [130] (-106)
0CFD  00                 [131] (-106)
0CFE  00                 [132] (-106)
0CFF  66                 [133] (-106)
0D00  00                 [134] (-106)
0D01  00                 [135] (-105)
0D02  00                 [136] (-105)
0D03  66                 [137] (-105)
0D04  00                 [138] (-105)
0D05  00                 [139] (-105)
0D06  00                 [140] (-104)
0D07  66                 [141] (-104)
0D08  00                 [142] (-104)
0D09  00                 [143] (-103)
0D0A  00                 [144] (-103)
0D0B  66                 [145] (-103)
0D0C  00                 [146] (-103)
0D0D  00                 [147] (-102)
0D0E  00                 [148] (-102)
0D0F  66                 [149] (-102)
0D10  00                 [150] (-102)
0D11  00                 [151] (-100)
0D12  00                 [152] (-100)
0D13  66                 [153] (-100)
0D14  00                 [154] (-98)
                         * locals:
0EE3  00                 sizelocvars (0)
                         * upvalues:
0EE4  00                 sizeupvalues (0)
                         ** end of function **

                         
0EE5                     ** function [3] definition (level 2)
                         ** start of function **
0EE5  00                 string size (0)
                         source name: (none)
0EE7  01                 line defined (160)
0EE8  B5                 last line defined (181)
0EE9  01                 nups (0)
0EEA  00                 numparams (1)
0EEB  01                 is_vararg (0)
0EEC  00                 maxstacksize (10)
                         * code:
0EEE  4C                 sizecode (76)
0EEF  59000000           [01] loadk      1   0        ; 0
0EF3  86000001           [02] loadnil    2   2      
0EF7  DD400000           [03] getglobal  3   1        ; 1074689893
0EFB  12010001           [04] move       4   2      
0EFF  E2800001           [05] call       3   2   2  
0F03  D8000000           [06] test       3       0    ; to [8] if true
0F07  1AC00280           [07] jmp        12           ; to [20]
fail op	21
0F0B  15400081           [08] concat     0   258 1  
0F0F  1A400280           [09] jmp        10           ; to [20]
0F13  DDC00000           [10] getglobal  3   3        ; 538022378
0F17  19810000           [11] loadk      4   2        ; 0
0F1B  E2400001           [12] call       3   2   1  
0F1F  DD000100           [13] getglobal  3   4        ; 1289681407
0F23  E2808000           [14] call       3   1   2  
0F27  4DC08000           [15] sub        1   1   3  
0F2B  E4404100           [16] self       3   0   261  ; 129677183
0F2F  E2800001           [17] call       3   2   2  
0F33  92008001           [18] move       2   3      
0F37  1A80FB7F           [19] jmp        -17          ; to [3]
0F3B  DD400000           [20] getglobal  3   1        ; 1074689893
0F3F  1D810100           [21] getglobal  4   6        ; bossIntroMovie
0F43  E2800001           [22] call       3   2   2  
0F47  D8400000           [23] test       3       1    ; to [25] if false
0F4B  1A400880           [24] jmp        34           ; to [59]
0F4F  DD400000           [25] getglobal  3   1        ; 1074689893
0F53  12010001           [26] move       4   2      
0F57  E2800001           [27] call       3   2   2  
0F5B  D8400000           [28] test       3       1    ; to [30] if false
0F5F  1A000780           [29] jmp        29           ; to [59]
0F63  E4C04101           [30] self       3   2   263  ; -1957065004
0F67  5D010200           [31] getglobal  5   8        ; gBaseAvatarType
0F6B  E2808001           [32] call       3   3   2  
0F6F  D8000000           [33] test       3       0    ; to [35] if true
0F73  1AC00580           [34] jmp        24           ; to [59]
0F77  DD400200           [35] getglobal  3   9        ; gGameRules
0F7B  E480C201           [36] self       3   3   266  ; -317790213
0F7F  5DC10200           [37] getglobal  5   11       ; -332969190
0F83  99010300           [38] loadk      6   12       ; "BossIntroMovieDelay"
0F87  62810001           [39] call       5   2   2  
0F8B  99810000           [40] loadk      6   2        ; 0
0F8F  E2800002           [41] call       3   4   2  
0F93  DC40C301           [42] div        3   3   269  ; 0
fail op	21
0F97  15C00081           [43] concat     0   258 3  
0F9B  1A800080           [44] jmp        3            ; to [48]
0F9F  1DC10000           [45] getglobal  4   3        ; 538022378
0FA3  52018001           [46] move       5   3      
0FA7  22410001           [47] call       4   2   1  
0FAB  1D810300           [48] getglobal  4   14       ; gFlashMgr
0FAF  24C14302           [49] self       4   4   271  ; 38794118
0FB3  9D810100           [50] getglobal  6   6        ; bossIntroMovie
0FB7  22818001           [51] call       4   3   2  
0FBB  64014402           [52] self       5   4   272  ; 1167009705
0FBF  D9410400           [53] loadk      7   17       ; "BossIntro"
0FC3  24824401           [54] self       8   2   274  ; -1334436347
0FC7  22820001           [55] call       8   2   2  
0FCB  24C24404           [56] self       8   8   275  ; 1590141906
0FCF  22020001           [57] call       8   2   0  
0FD3  62410000           [58] call       5   0   1  
0FD7  5D010500           [59] getglobal  5   20       ; gRegion
0FDB  6441C502           [60] self       5   5   277  ; -1520831144
0FDF  62810001           [61] call       5   2   2  
0FE3  58010000           [62] test       5       0    ; to [64] if true
0FE7  1AC00280           [63] jmp        12           ; to [76]
0FEB  5DC10000           [64] getglobal  5   3        ; 538022378
0FEF  99810500           [65] loadk      6   22       ; 0
0FF3  62410001           [66] call       5   2   1  
0FF7  5D410200           [67] getglobal  5   9        ; gGameRules
0FFB  64C1C502           [68] self       5   5   279  ; -1423324157
0FFF  DDC10200           [69] getglobal  7   11       ; -332969190
1003  19020300           [70] loadk      8   12       ; "BossIntroMovieDelay"
1007  E2810001           [71] call       7   2   2  
100B  19820000           [72] loadk      8   2        ; 0
100F  62410002           [73] call       5   4   1  
1013  64014600           [74] self       5   0   280  ; -725453761
1017  62410001           [75] call       5   2   1  
101B  1E008000           [76] return     0   1      
                         * constants:
101F  19                 sizek (25)
1020  03                 const type 3
1021  0000A040           const [0]: (0)
1025  01                 const type 3
1026  65770E40           const [1]: (1074689893)
102A  03                 const type 3
102B  00000000           const [2]: (0)
102F  01                 const type 3
1030  EA911120           const [3]: (538022378)
1034  01                 const type 3
1035  FFF9DE4C           const [4]: (1289681407)
1039  01                 const type 3
103A  7FB7BA07           const [5]: (129677183)
103E  04                 const type 4
103F  0F                 string size (15)
1040  626F7373496E7472+  "bossIntr"
1048  6F4D6F76696500     "oMovie\0"
                         const [6]: "bossIntroMovie"
104F  01                 const type 3
1050  D48E598B           const [7]: (-1957065004)
1054  04                 const type 4
1055  10                 string size (16)
1056  6742617365417661+  "gBaseAva"
105E  7461725479706500   "tarType\0"
                         const [8]: "gBaseAvatarType"
1066  04                 const type 4
1067  0B                 string size (11)
1068  6747616D6552756C+  "gGameRul"
1070  657300             "es\0"
                         const [9]: "gGameRules"
1073  01                 const type 3
1074  FBE70EED           const [10]: (-317790213)
1078  01                 const type 3
1079  1A4B27EC           const [11]: (-332969190)
107D  04                 const type 4
107E  14                 string size (20)
107F  426F7373496E7472+  "BossIntr"
1087  6F4D6F7669654465+  "oMovieDe"
108F  6C617900           "lay\0"
                         const [12]: "BossIntroMovieDelay"
1093  03                 const type 3
1094  00007A44           const [13]: (0)
1098  04                 const type 4
1099  0A                 string size (10)
109A  67466C6173684D67+  "gFlashMg"
10A2  7200               "r\0"
                         const [14]: "gFlashMgr"
10A4  01                 const type 3
10A5  86F34F02           const [15]: (38794118)
10A9  01                 const type 3
10AA  A9278F45           const [16]: (1167009705)
10AE  04                 const type 4
10AF  0A                 string size (10)
10B0  426F7373496E7472+  "BossIntr"
10B8  6F00               "o\0"
                         const [17]: "BossIntro"
10BA  01                 const type 3
10BB  051E76B0           const [18]: (-1334436347)
10BF  01                 const type 3
10C0  D2A3C75E           const [19]: (1590141906)
10C4  04                 const type 4
10C5  08                 string size (8)
10C6  67526567696F6E00   "gRegion\0"
                         const [20]: "gRegion"
10CE  01                 const type 3
10CF  58F559A5           const [21]: (-1520831144)
10D3  03                 const type 3
10D4  00002041           const [22]: (0)
10D8  01                 const type 3
10D9  03CC29AB           const [23]: (-1423324157)
10DD  01                 const type 3
10DE  3F74C2D4           const [24]: (-725453761)
                         * functions:
10E2  00                 sizep (0)
                         * lines:
10E3  4C                 sizelineinfo (76)
                         [pc] (line)
10E4  A1                 [01] (-95)
10E5  00                 [02] (-94)
10E6  00                 [03] (-93)
10E7  00                 [04] (-93)
10E8  A2                 [05] (-93)
10E9  00                 [06] (-93)
10EA  00                 [07] (-93)
10EB  00                 [08] (-93)
10EC  A3                 [09] (-93)
10ED  00                 [10] (-92)
10EE  00                 [11] (-92)
10EF  00                 [12] (-92)
10F0  A3                 [13] (-91)
10F1  00                 [14] (-91)
10F2  00                 [15] (-91)
10F3  00                 [16] (-90)
10F4  A3                 [17] (-90)
10F5  00                 [18] (-90)
10F6  00                 [19] (-90)
10F7  00                 [20] (-88)
10F8  A3                 [21] (-88)
10F9  00                 [22] (-88)
10FA  00                 [23] (-88)
10FB  00                 [24] (-88)
10FC  A3                 [25] (-88)
10FD  00                 [26] (-88)
10FE  00                 [27] (-88)
10FF  00                 [28] (-88)
1100  A3                 [29] (-88)
1101  00                 [30] (-88)
1102  00                 [31] (-88)
1103  00                 [32] (-88)
1104  A3                 [33] (-88)
1105  00                 [34] (-88)
1106  00                 [35] (-87)
1107  00                 [36] (-87)
1108  A4                 [37] (-87)
1109  00                 [38] (-87)
110A  00                 [39] (-87)
110B  00                 [40] (-87)
110C  A4                 [41] (-87)
110D  00                 [42] (-87)
110E  00                 [43] (-86)
110F  00                 [44] (-86)
1110  A4                 [45] (-85)
1111  00                 [46] (-85)
1112  00                 [47] (-85)
1113  00                 [48] (-83)
1114  A5                 [49] (-83)
1115  00                 [50] (-83)
1116  00                 [51] (-83)
1117  00                 [52] (-82)
1118  A5                 [53] (-82)
1119  00                 [54] (-82)
111A  00                 [55] (-82)
111B  00                 [56] (-82)
111C  A5                 [57] (-82)
111D  00                 [58] (-82)
111E  00                 [59] (-80)
111F  00                 [60] (-80)
1120  A6                 [61] (-80)
1121  00                 [62] (-80)
1122  00                 [63] (-80)
1123  00                 [64] (-79)
1124  A6                 [65] (-79)
1125  00                 [66] (-79)
1126  00                 [67] (-78)
1127  00                 [68] (-78)
1128  A6                 [69] (-78)
1129  00                 [70] (-78)
112A  00                 [71] (-78)
112B  00                 [72] (-78)
112C  A6                 [73] (-78)
112D  00                 [74] (-77)
112E  00                 [75] (-77)
112F  00                 [76] (-75)
                         * locals:
1214  00                 sizelocvars (0)
                         * upvalues:
1215  00                 sizeupvalues (0)
                         ** end of function **

                         
1216                     ** function [4] definition (level 2)
                         ** start of function **
1216  00                 string size (0)
                         source name: (none)
1218  01                 line defined (183)
1219  CC                 last line defined (204)
121A  01                 nups (0)
121B  00                 numparams (0)
121C  00                 is_vararg (0)
121D  00                 maxstacksize (9)
                         * code:
121F  1F                 sizecode (31)
1220  1D000000           [01] getglobal  0   0        ; gRegion
1224  24404000           [02] self       0   0   257  ; -2071158816
1228  22800001           [03] call       0   2   2  
122C  5D800000           [04] getglobal  1   2        ; 572299008
1230  62808000           [05] call       1   1   2  
1234  99C00000           [06] loadk      2   3        ; 0
1238  DD000100           [07] getglobal  3   4        ; 1074689893
123C  12010000           [08] move       4   0      
1240  E2800001           [09] call       3   2   2  
1244  D8400000           [10] test       3       1    ; to [12] if false
1248  1A400480           [11] jmp        18           ; to [30]
124C  D9400100           [12] loadk      3   5        ; 0
1250  0A010000           [13] len        4   0      
1254  59410100           [14] loadk      5   5        ; 0
1258  D0400280           [15] forprep    3   10       ; to [26]
125C  CE810100           [16] gettable   7   0   6  
1260  E481C103           [17] self       7   7   262  ; 1511086594
1264  E2810001           [18] call       7   2   2  
1268  D8410000           [19] test       7       1    ; to [21] if false
126C  1A000180           [20] jmp        5            ; to [26]
1270  83404101           [21] add        2   2   261  ; 0
1274  CE810100           [22] gettable   7   0   6  
1278  E4C1C103           [23] self       7   7   263  ; 1839670529
127C  E2810001           [24] call       7   2   2  
1280  43C08100           [25] add        1   1   7  
1284  D400FD7F           [26] forloop    3   -11      ; to [16] if loop
fail op	21
1288  15808081           [27] concat     0   259 2  
128C  1A000080           [28] jmp        1            ; to [30]
1290  5C808000           [29] div        1   1   2  
1294  5E000001           [30] return     1   2      
1298  1E008000           [31] return     0   1      
                         * constants:
129C  08                 sizek (8)
129D  04                 const type 4
129E  08                 string size (8)
129F  67526567696F6E00   "gRegion\0"
                         const [0]: "gRegion"
12A7  01                 const type 3
12A8  E09F8C84           const [1]: (-2071158816)
12AC  01                 const type 3
12AD  00971C22           const [2]: (572299008)
12B1  03                 const type 3
12B2  00000000           const [3]: (0)
12B6  01                 const type 3
12B7  65770E40           const [4]: (1074689893)
12BB  03                 const type 3
12BC  0000803F           const [5]: (0)
12C0  01                 const type 3
12C1  025A115A           const [6]: (1511086594)
12C5  01                 const type 3
12C6  0125A76D           const [7]: (1839670529)
                         * functions:
12CA  00                 sizep (0)
                         * lines:
12CB  1F                 sizelineinfo (31)
                         [pc] (line)
12CC  B8                 [01] (-72)
12CD  00                 [02] (-72)
12CE  00                 [03] (-72)
12CF  00                 [04] (-70)
12D0  B8                 [05] (-70)
12D1  00                 [06] (-69)
12D2  00                 [07] (-68)
12D3  00                 [08] (-68)
12D4  B8                 [09] (-68)
12D5  00                 [10] (-68)
12D6  00                 [11] (-68)
12D7  00                 [12] (-67)
12D8  BA                 [13] (-67)
12D9  00                 [14] (-67)
12DA  00                 [15] (-67)
12DB  00                 [16] (-65)
12DC  BA                 [17] (-65)
12DD  00                 [18] (-65)
12DE  00                 [19] (-65)
12DF  00                 [20] (-65)
12E0  BB                 [21] (-64)
12E1  00                 [22] (-63)
12E2  00                 [23] (-63)
12E3  00                 [24] (-63)
12E4  BC                 [25] (-63)
12E5  00                 [26] (-67)
12E6  00                 [27] (-58)
12E7  00                 [28] (-58)
12E8  BC                 [29] (-57)
12E9  00                 [30] (-53)
12EA  00                 [31] (-52)
                         * locals:
1348  00                 sizelocvars (0)
                         * upvalues:
1349  00                 sizeupvalues (0)
                         ** end of function **

                         
134A                     ** function [5] definition (level 2)
                         ** start of function **
134A  00                 string size (0)
                         source name: (none)
134C  01                 line defined (206)
134D  DB                 last line defined (219)
134E  01                 nups (0)
134F  00                 numparams (2)
1350  02                 is_vararg (0)
1351  00                 maxstacksize (15)
                         * code:
1353  19                 sizecode (25)
1354  DD000000           [01] getglobal  3   0        ; gRegion
1358  E440C001           [02] self       3   3   257  ; -1485896174
135C  52010000           [03] move       5   0      
1360  E2808001           [04] call       3   3   2  
1364  19810000           [05] loadk      4   2        ; 0
1368  4A018000           [06] len        5   1      
136C  99810000           [07] loadk      6   2        ; 0
1370  10410380           [08] forprep    4   14       ; to [23]
1374  0EC28100           [09] gettable   8   1   7  
1378  24C24004           [10] self       8   8   259  ; 1927666530
137C  22820001           [11] call       8   2   2  
1380  59820000           [12] loadk      9   2        ; 0
1384  8A028001           [13] len        10  3      
1388  D9820000           [14] loadk      11  2        ; 0
138C  50420180           [15] forprep    9   6        ; to [22]
1390  4E038301           [16] gettable   13  3   12 
1394  64C3C006           [17] self       13  13  259  ; 1927666530
1398  62830001           [18] call       13  2   2  
fail op	35
139C  23400304           [19] close      0  
13A0  1A000080           [20] jmp        1            ; to [22]
13A4  8EC08100           [21] gettable   2   1   7  
13A8  5402FE7F           [22] forloop    9   -7       ; to [16] if loop
13AC  1401FC7F           [23] forloop    4   -15      ; to [9] if loop
13B0  9E000001           [24] return     2   2      
13B4  1E008000           [25] return     0   1      
                         * constants:
13B8  04                 sizek (4)
13B9  04                 const type 4
13BA  08                 string size (8)
13BB  67526567696F6E00   "gRegion\0"
                         const [0]: "gRegion"
13C3  01                 const type 3
13C4  12066FA7           const [1]: (-1485896174)
13C8  03                 const type 3
13C9  0000803F           const [2]: (0)
13CD  01                 const type 3
13CE  62DBE572           const [3]: (1927666530)
                         * functions:
13D2  00                 sizep (0)
                         * lines:
13D3  19                 sizelineinfo (25)
                         [pc] (line)
13D4  D0                 [01] (-48)
13D5  00                 [02] (-48)
13D6  00                 [03] (-48)
13D7  00                 [04] (-48)
13D8  D0                 [05] (-47)
13D9  00                 [06] (-47)
13DA  00                 [07] (-47)
13DB  00                 [08] (-47)
13DC  D0                 [09] (-46)
13DD  00                 [10] (-46)
13DE  00                 [11] (-46)
13DF  00                 [12] (-45)
13E0  D0                 [13] (-45)
13E1  00                 [14] (-45)
13E2  00                 [15] (-45)
13E3  00                 [16] (-44)
13E4  D1                 [17] (-44)
13E5  00                 [18] (-44)
13E6  00                 [19] (-43)
13E7  00                 [20] (-43)
13E8  D1                 [21] (-42)
13E9  00                 [22] (-45)
13EA  00                 [23] (-47)
13EB  00                 [24] (-38)
13EC  D1                 [25] (-37)
                         * locals:
1438  00                 sizelocvars (0)
                         * upvalues:
1439  00                 sizeupvalues (0)
                         ** end of function **

                         
143A                     ** function [6] definition (level 2)
                         ** start of function **
143A  00                 string size (0)
                         source name: (none)
143C  01                 line defined (221)
143D  EB                 last line defined (235)
143E  01                 nups (0)
143F  00                 numparams (2)
1440  02                 is_vararg (0)
1441  00                 maxstacksize (17)
                         * code:
1443  1F                 sizecode (31)
1444  8B000000           [01] newtable   2   0   0    ; array=0, hash=0
1448  DD000000           [02] getglobal  3   0        ; gRegion
144C  E440C001           [03] self       3   3   257  ; -1485896174
1450  52010000           [04] move       5   0      
1454  E2808001           [05] call       3   3   2  
1458  19810000           [06] loadk      4   2        ; 0
145C  4A018000           [07] len        5   1      
1460  99810000           [08] loadk      6   2        ; 0
1464  10810480           [09] forprep    4   19       ; to [29]
1468  0EC28100           [10] gettable   8   1   7  
146C  24C24004           [11] self       8   8   259  ; 1927666530
1470  22820001           [12] call       8   2   2  
1474  59820000           [13] loadk      9   2        ; 0
1478  8A028001           [14] len        10  3      
147C  D9820000           [15] loadk      11  2        ; 0
1480  50820280           [16] forprep    9   11       ; to [28]
1484  4E038301           [17] gettable   13  3   12 
1488  64C3C006           [18] self       13  13  259  ; 1927666530
148C  62830001           [19] call       13  2   2  
fail op	35
1490  23400304           [20] close      0  
1494  1A400180           [21] jmp        6            ; to [28]
1498  9D030100           [22] getglobal  14  4        ; table
149C  8E434107           [23] gettable   14  14  261  ; -431682403
14A0  D2030001           [24] move       15  2      
14A4  0EC48100           [25] gettable   16  1   7  
14A8  A2438001           [26] call       14  3   1  
14AC  1A000080           [27] jmp        1            ; to [29]
14B0  54C2FC7F           [28] forloop    9   -12      ; to [17] if loop
14B4  14C1FA7F           [29] forloop    4   -20      ; to [10] if loop
14B8  9E000001           [30] return     2   2      
14BC  1E008000           [31] return     0   1      
                         * constants:
14C0  06                 sizek (6)
14C1  04                 const type 4
14C2  08                 string size (8)
14C3  67526567696F6E00   "gRegion\0"
                         const [0]: "gRegion"
14CB  01                 const type 3
14CC  12066FA7           const [1]: (-1485896174)
14D0  03                 const type 3
14D1  0000803F           const [2]: (0)
14D5  01                 const type 3
14D6  62DBE572           const [3]: (1927666530)
14DA  04                 const type 4
14DB  06                 string size (6)
14DC  7461626C6500       "table\0"
                         const [4]: "table"
14E2  01                 const type 3
14E3  9D0C45E6           const [5]: (-431682403)
                         * functions:
14E7  00                 sizep (0)
                         * lines:
14E8  1F                 sizelineinfo (31)
                         [pc] (line)
14E9  DE                 [01] (-34)
14EA  00                 [02] (-33)
14EB  00                 [03] (-33)
14EC  00                 [04] (-33)
14ED  DF                 [05] (-33)
14EE  00                 [06] (-32)
14EF  00                 [07] (-32)
14F0  00                 [08] (-32)
14F1  DF                 [09] (-32)
14F2  00                 [10] (-31)
14F3  00                 [11] (-31)
14F4  00                 [12] (-31)
14F5  DF                 [13] (-30)
14F6  00                 [14] (-30)
14F7  00                 [15] (-30)
14F8  00                 [16] (-30)
14F9  DF                 [17] (-29)
14FA  00                 [18] (-29)
14FB  00                 [19] (-29)
14FC  00                 [20] (-28)
14FD  E0                 [21] (-28)
14FE  00                 [22] (-27)
14FF  00                 [23] (-27)
1500  00                 [24] (-27)
1501  E0                 [25] (-27)
1502  00                 [26] (-27)
1503  00                 [27] (-26)
1504  00                 [28] (-30)
1505  E0                 [29] (-32)
1506  00                 [30] (-22)
1507  00                 [31] (-21)
                         * locals:
1565  00                 sizelocvars (0)
                         * upvalues:
1566  00                 sizeupvalues (0)
                         ** end of function **

                         
1567                     ** function [7] definition (level 2)
                         ** start of function **
1567  00                 string size (0)
                         source name: (none)
1569  01                 line defined (237)
156A  80                 last line defined (256)
156B  02                 nups (1)
156C  01                 numparams (3)
156D  03                 is_vararg (0)
156E  00                 maxstacksize (11)
                         * code:
1570  2D                 sizecode (45)
1571  DD000000           [01] getglobal  3   0        ; 1074689893
1575  12010001           [02] move       4   2      
1579  E2800001           [03] call       3   2   2  
157D  D8000000           [04] test       3       0    ; to [6] if true
1581  1A000080           [05] jmp        1            ; to [7]
1585  9D400000           [06] getglobal  2   1        ; delays
1589  DD800000           [07] getglobal  3   2        ; 538022378
158D  1DC10000           [08] getglobal  4   3        ; transmissionDelay
1591  E2400001           [09] call       3   2   1  
1595  D9000100           [10] loadk      3   4        ; 0
1599  0A018000           [11] len        4   1      
159D  59410100           [12] loadk      5   5        ; 0
15A1  D0400780           [13] forprep    3   30       ; to [44]
15A5  DD010000           [14] getglobal  7   0        ; 1074689893
15A9  0E828100           [15] gettable   8   1   6  
15AD  E2810001           [16] call       7   2   2  
15B1  D8410000           [17] test       7       1    ; to [19] if false
15B5  1A000680           [18] jmp        25           ; to [44]
15B9  DD010000           [19] getglobal  7   0        ; 1074689893
15BD  0E820101           [20] gettable   8   2   6  
15C1  E2810001           [21] call       7   2   2  
15C5  D8010000           [22] test       7       0    ; to [24] if true
15C9  1A000080           [23] jmp        1            ; to [25]
15CD  8C004103           [24] settable   2   6   260  ; 0
15D1  CE810101           [25] gettable   7   2   6  
fail op	21
15D5  15C00182           [26] concat     0   260 7  
15D9  1A000280           [27] jmp        9            ; to [37]
15DD  D3010000           [28] getupval   7   0      
15E1  CE81C103           [29] gettable   7   7   262  ; 1776858983
15E5  E2818000           [30] call       7   1   2  
15E9  D8010000           [31] test       7       0    ; to [33] if true
15ED  1AC00080           [32] jmp        4            ; to [37]
15F1  DD810000           [33] getglobal  7   2        ; 538022378
15F5  19020100           [34] loadk      8   4        ; 0
15F9  E2410001           [35] call       7   2   1  
15FD  1A80FD7F           [36] jmp        -9           ; to [28]
1601  DD810000           [37] getglobal  7   2        ; 538022378
1605  0E820101           [38] gettable   8   2   6  
1609  E2410001           [39] call       7   2   1  
160D  E4C14100           [40] self       7   0   263  ; 1479835399
1611  4E828100           [41] gettable   9   1   6  
1615  97028000           [42] loadbool   10  1   0    ; true
1619  E2410002           [43] call       7   4   1  
161D  D400F87F           [44] forloop    3   -31      ; to [14] if loop
1621  1E008000           [45] return     0   1      
                         * constants:
1625  08                 sizek (8)
1626  01                 const type 3
1627  65770E40           const [0]: (1074689893)
162B  04                 const type 4
162C  07                 string size (7)
162D  64656C61797300     "delays\0"
                         const [1]: "delays"
1634  01                 const type 3
1635  EA911120           const [2]: (538022378)
1639  04                 const type 4
163A  12                 string size (18)
163B  7472616E736D6973+  "transmis"
1643  73696F6E44656C61+  "sionDela"
164B  7900               "y\0"
                         const [3]: "transmissionDelay"
164D  03                 const type 3
164E  00000000           const [4]: (0)
1652  03                 const type 3
1653  0000803F           const [5]: (0)
1657  01                 const type 3
1658  67B7E869           const [6]: (1776858983)
165C  01                 const type 3
165D  077F3458           const [7]: (1479835399)
                         * functions:
1661  00                 sizep (0)
                         * lines:
1662  2D                 sizelineinfo (45)
                         [pc] (line)
1663  EE                 [01] (-18)
1664  00                 [02] (-18)
1665  00                 [03] (-18)
1666  00                 [04] (-18)
1667  EE                 [05] (-18)
1668  00                 [06] (-17)
1669  00                 [07] (-15)
166A  00                 [08] (-15)
166B  EE                 [09] (-15)
166C  00                 [10] (-14)
166D  00                 [11] (-14)
166E  00                 [12] (-14)
166F  EE                 [13] (-14)
1670  00                 [14] (-13)
1671  00                 [15] (-13)
1672  00                 [16] (-13)
1673  EE                 [17] (-13)
1674  00                 [18] (-13)
1675  00                 [19] (-12)
1676  00                 [20] (-12)
1677  EF                 [21] (-12)
1678  00                 [22] (-12)
1679  00                 [23] (-12)
167A  00                 [24] (-11)
167B  F1                 [25] (-9)
167C  00                 [26] (-9)
167D  00                 [27] (-9)
167E  00                 [28] (-8)
167F  F1                 [29] (-8)
1680  00                 [30] (-8)
1681  00                 [31] (-8)
1682  00                 [32] (-8)
1683  F1                 [33] (-7)
1684  00                 [34] (-7)
1685  00                 [35] (-7)
1686  00                 [36] (-7)
1687  F2                 [37] (-4)
1688  00                 [38] (-4)
1689  00                 [39] (-4)
168A  00                 [40] (-3)
168B  F2                 [41] (-3)
168C  00                 [42] (-3)
168D  00                 [43] (-3)
168E  00                 [44] (-14)
168F  F2                 [45] (0)
                         * locals:
1717  00                 sizelocvars (0)
                         * upvalues:
1718  00                 sizeupvalues (0)
                         ** end of function **

                         
1719                     ** function [8] definition (level 2)
                         ** start of function **
1719  00                 string size (0)
                         source name: (none)
171B  02                 line defined (258)
171C  BB                 last line defined (315)
171D  02                 nups (4)
171E  04                 numparams (1)
171F  01                 is_vararg (0)
1720  00                 maxstacksize (15)
                         * code:
1723  01                 sizecode (157)
1724  5D000000           [001] getglobal  1   0        ; 1074689893
1728  92000000           [002] move       2   0      
172C  62800001           [003] call       1   2   2  
1730  58000000           [004] test       1       0    ; to [6] if true
1734  1A000080           [005] jmp        1            ; to [7]
1738  17000000           [006] loadbool   0   0   0    ; false
173C  5D400000           [007] getglobal  1   1        ; gRegion
1740  6480C000           [008] self       1   1   258  ; -774964848
1744  62800001           [009] call       1   2   2  
1748  A4C0C000           [010] self       2   1   259  ; 537471347
174C  A2800001           [011] call       2   2   2  
1750  DD400000           [012] getglobal  3   1        ; gRegion
1754  E400C101           [013] self       3   3   260  ; -1485896174
1758  5D410100           [014] getglobal  5   5        ; -332969190
175C  99810100           [015] loadk      6   6        ; "BossDoorHint"
1760  62010001           [016] call       5   2   0  
1764  E2800000           [017] call       3   0   2  
1768  1DC10100           [018] getglobal  4   7        ; gGameRules
176C  24014202           [019] self       4   4   264  ; -317790213
1770  93010000           [020] getupval   6   0      
1774  22818001           [021] call       4   3   2  
fail op	35
1778  23404202           [022] close      0  
177C  1A000080           [023] jmp        1            ; to [25]
1780  17410000           [024] loadbool   4   0   1    ; false, to [26]
1784  17018000           [025] loadbool   4   1   0    ; true
1788  18010000           [026] test       4       0    ; to [28] if true
178C  1A800180           [027] jmp        7            ; to [35]
1790  5DC10100           [028] getglobal  5   7        ; gGameRules
1794  6481C202           [029] self       5   5   266  ; -803877924
1798  D3010000           [030] getupval   7   0      
179C  19C20200           [031] loadk      8   11       ; 0
17A0  62410002           [032] call       5   4   1  
17A4  57010000           [033] loadbool   5   0   0    ; false
17A8  5E010001           [034] return     5   2      
17AC  4A018001           [035] len        5   3      
fail op	21
17B0  15408184           [036] concat     0   265 5  
17B4  1A001D80           [037] jmp        117          ; to [155]
fail op	35
17B8  23004302           [038] close      0  
17BC  1A801C80           [039] jmp        115          ; to [155]
17C0  5DC10100           [040] getglobal  5   7        ; gGameRules
17C4  6481C202           [041] self       5   5   266  ; -803877924
17C8  D3010000           [042] getupval   7   0      
17CC  19420300           [043] loadk      8   13       ; 0
17D0  62410002           [044] call       5   4   1  
17D4  4E41C301           [045] gettable   5   3   269  ; 0
17D8  6481C302           [046] self       5   5   270  ; -1923578185
17DC  D9C10300           [047] loadk      7   15       ; "Unlock"
17E0  62418001           [048] call       5   3   1  
17E4  5D410000           [049] getglobal  5   1        ; gRegion
17E8  6401C102           [050] self       5   5   260  ; -1485896174
17EC  DD410100           [051] getglobal  7   5        ; -332969190
17F0  19020400           [052] loadk      8   16       ; "ObjectiveMarker"
17F4  E2010001           [053] call       7   2   0  
17F8  62810000           [054] call       5   0   2  
17FC  9D410000           [055] getglobal  6   1        ; gRegion
1800  A4014103           [056] self       6   6   260  ; -1485896174
1804  1D420100           [057] getglobal  8   5        ; -332969190
1808  59420400           [058] loadk      9   17       ; "ObjectiveTrigger"
180C  22020001           [059] call       8   2   0  
1810  A2810000           [060] call       6   0   2  
1814  DD410000           [061] getglobal  7   1        ; gRegion
1818  E401C103           [062] self       7   7   260  ; -1485896174
181C  5D420100           [063] getglobal  9   5        ; -332969190
1820  99820400           [064] loadk      10  18       ; "ObjectiveRestate"
1824  62020001           [065] call       9   2   0  
1828  E2810000           [066] call       7   0   2  
182C  1DC20400           [067] getglobal  8   19       ; _T
1830  53028000           [068] getupval   9   1      
1834  9D420100           [069] getglobal  10  5        ; -332969190
1838  D9420500           [070] loadk      11  21       ; "Boss"
183C  A2820001           [071] call       10  2   2  
1840  D2028003           [072] move       11  7      
1844  62828001           [073] call       9   3   2  
1848  0C42028A           [074] settable   8   276 9    ; "objRestate"
184C  13028000           [075] getupval   8   1      
1850  5D420100           [076] getglobal  9   5        ; -332969190
1854  99420500           [077] loadk      10  21       ; "Boss"
1858  62820001           [078] call       9   2   2  
185C  92028002           [079] move       10  5      
1860  22828001           [080] call       8   3   2  
1864  53028000           [081] getupval   9   1      
1868  9D420100           [082] getglobal  10  5        ; -332969190
186C  D9420500           [083] loadk      11  21       ; "Boss"
1870  A2820001           [084] call       10  2   2  
1874  D2020003           [085] move       11  6      
1878  62828001           [086] call       9   3   2  
187C  9D020000           [087] getglobal  10  0        ; 1074689893
1880  D2020004           [088] move       11  8      
1884  A2820001           [089] call       10  2   2  
1888  98420000           [090] test       10      1    ; to [92] if false
188C  1A400180           [091] jmp        6            ; to [98]
1890  A4824304           [092] self       10  8   270  ; -1923578185
1894  19830500           [093] loadk      12  22       ; "Enable"
1898  A2428001           [094] call       10  3   1  
189C  A4C24501           [095] self       10  2   279  ; -906150570
18A0  12030004           [096] move       12  8      
18A4  A2428001           [097] call       10  3   1  
18A8  9D020000           [098] getglobal  10  0        ; 1074689893
18AC  D2028004           [099] move       11  9      
18B0  A2820001           [100] call       10  2   2  
18B4  98420000           [101] test       10      1    ; to [103] if false
18B8  1A000680           [102] jmp        25           ; to [128]
18BC  9DC20100           [103] getglobal  10  7        ; gGameRules
18C0  A4024205           [104] self       10  10  264  ; -317790213
18C4  13030001           [105] getupval   12  2      
18C8  A2828001           [106] call       10  3   2  
fail op	35
18CC  23404205           [107] close      0  
18D0  1A000080           [108] jmp        1            ; to [110]
18D4  97420000           [109] loadbool   10  0   1    ; false, to [111]
18D8  97028000           [110] loadbool   10  1   0    ; true
18DC  98020000           [111] test       10      0    ; to [113] if true
18E0  1A000180           [112] jmp        5            ; to [118]
18E4  DDC20100           [113] getglobal  11  7        ; gGameRules
18E8  E482C205           [114] self       11  11  266  ; -803877924
18EC  53030001           [115] getupval   13  2      
18F0  99430200           [116] loadk      14  9        ; 0
18F4  E2420002           [117] call       11  4   1  
18F8  E482C304           [118] self       11  9   270  ; -1923578185
18FC  59030600           [119] loadk      13  24       ; "Execute"
1900  E2428001           [120] call       11  3   1  
1904  98020000           [121] test       10      0    ; to [123] if true
1908  1A000180           [122] jmp        5            ; to [128]
190C  DDC20100           [123] getglobal  11  7        ; gGameRules
1910  E482C205           [124] self       11  11  266  ; -803877924
1914  53030001           [125] getupval   13  2      
1918  99430300           [126] loadk      14  13       ; 0
191C  E2420002           [127] call       11  4   1  
1920  18000000           [128] test       0       0    ; to [130] if true
1924  1A800580           [129] jmp        23           ; to [153]
1928  DDC20100           [130] getglobal  11  7        ; gGameRules
192C  E442C605           [131] self       11  11  281  ; 2051260977
1930  57038000           [132] loadbool   13  1   0    ; true
1934  E2428001           [133] call       11  3   1  
1938  D3028001           [134] getupval   11  3      
193C  CE82C605           [135] gettable   11  11  282  ; 198248041
1940  E2828000           [136] call       11  1   2  
1944  1D030000           [137] getglobal  12  0        ; 1074689893
1948  52038005           [138] move       13  11     
194C  22830001           [139] call       12  2   2  
1950  18430000           [140] test       12      1    ; to [142] if false
1954  1A800280           [141] jmp        11           ; to [153]
1958  1D030000           [142] getglobal  12  0        ; 1074689893
195C  52030001           [143] move       13  2      
1960  22830001           [144] call       12  2   2  
1964  18430000           [145] test       12      1    ; to [147] if false
1968  1A400180           [146] jmp        6            ; to [153]
196C  24C34501           [147] self       12  2   279  ; -906150570
1970  92038005           [148] move       14  11     
1974  22438001           [149] call       12  3   1  
1978  2483C305           [150] self       12  11  270  ; -1923578185
197C  99830500           [151] loadk      14  22       ; "Enable"
1980  22438001           [152] call       12  3   1  
1984  17038000           [153] loadbool   12  1   0    ; true
1988  1E030001           [154] return     12  2      
198C  17030000           [155] loadbool   12  0   0    ; false
1990  1E030001           [156] return     12  2      
1994  1E008000           [157] return     0   1      
                         * constants:
1998  1B                 sizek (27)
1999  01                 const type 3
199A  65770E40           const [0]: (1074689893)
199E  04                 const type 4
199F  08                 string size (8)
19A0  67526567696F6E00   "gRegion\0"
                         const [1]: "gRegion"
19A8  01                 const type 3
19A9  90F9CED1           const [2]: (-774964848)
19AD  01                 const type 3
19AE  73290920           const [3]: (537471347)
19B2  01                 const type 3
19B3  12066FA7           const [4]: (-1485896174)
19B7  01                 const type 3
19B8  1A4B27EC           const [5]: (-332969190)
19BC  04                 const type 4
19BD  0D                 string size (13)
19BE  426F7373446F6F72+  "BossDoor"
19C6  48696E7400         "Hint\0"
                         const [6]: "BossDoorHint"
19CB  04                 const type 4
19CC  0B                 string size (11)
19CD  6747616D6552756C+  "gGameRul"
19D5  657300             "es\0"
                         const [7]: "gGameRules"
19D8  01                 const type 3
19D9  FBE70EED           const [8]: (-317790213)
19DD  03                 const type 3
19DE  00000000           const [9]: (0)
19E2  01                 const type 3
19E3  DCCB15D0           const [10]: (-803877924)
19E7  03                 const type 3
19E8  00000040           const [11]: (0)
19EC  01                 const type 3
19ED  00000000           const [12]: (0)
19F1  03                 const type 3
19F2  0000803F           const [13]: (0)
19F6  01                 const type 3
19F7  B786588D           const [14]: (-1923578185)
19FB  04                 const type 4
19FC  07                 string size (7)
19FD  556E6C6F636B00     "Unlock\0"
                         const [15]: "Unlock"
1A04  04                 const type 4
1A05  10                 string size (16)
1A06  4F626A6563746976+  "Objectiv"
1A0E  654D61726B657200   "eMarker\0"
                         const [16]: "ObjectiveMarker"
1A16  04                 const type 4
1A17  11                 string size (17)
1A18  4F626A6563746976+  "Objectiv"
1A20  6554726967676572+  "eTrigger"
1A28  00                 "\0"
                         const [17]: "ObjectiveTrigger"
1A29  04                 const type 4
1A2A  11                 string size (17)
1A2B  4F626A6563746976+  "Objectiv"
1A33  6552657374617465+  "eRestate"
1A3B  00                 "\0"
                         const [18]: "ObjectiveRestate"
1A3C  04                 const type 4
1A3D  03                 string size (3)
1A3E  5F5400             "_T\0"
                         const [19]: "_T"
1A41  04                 const type 4
1A42  0B                 string size (11)
1A43  6F626A5265737461+  "objResta"
1A4B  746500             "te\0"
                         const [20]: "objRestate"
1A4E  04                 const type 4
1A4F  05                 string size (5)
1A50  426F737300         "Boss\0"
                         const [21]: "Boss"
1A55  04                 const type 4
1A56  07                 string size (7)
1A57  456E61626C6500     "Enable\0"
                         const [22]: "Enable"
1A5E  01                 const type 3
1A5F  563DFDC9           const [23]: (-906150570)
1A63  04                 const type 4
1A64  08                 string size (8)
1A65  4578656375746500   "Execute\0"
                         const [24]: "Execute"
1A6D  01                 const type 3
1A6E  31C2437A           const [25]: (2051260977)
1A72  01                 const type 3
1A73  6906D10B           const [26]: (198248041)
                         * functions:
1A77  00                 sizep (0)
                         * lines:
1A79  01                 sizelineinfo (157)
                         [pc] (line)
1A7A  03                 [001] (3)
1A7B  01                 [002] (3)
1A7C  00                 [003] (3)
1A7D  00                 [004] (3)
1A7E  03                 [005] (3)
1A7F  01                 [006] (4)
1A80  00                 [007] (6)
1A81  00                 [008] (6)
1A82  03                 [009] (6)
1A83  01                 [010] (7)
1A84  00                 [011] (7)
1A85  00                 [012] (9)
1A86  03                 [013] (9)
1A87  01                 [014] (9)
1A88  00                 [015] (9)
1A89  00                 [016] (9)
1A8A  03                 [017] (9)
1A8B  01                 [018] (10)
1A8C  00                 [019] (10)
1A8D  00                 [020] (10)
1A8E  04                 [021] (10)
1A8F  01                 [022] (10)
1A90  00                 [023] (10)
1A91  00                 [024] (10)
1A92  06                 [025] (10)
1A93  01                 [026] (13)
1A94  00                 [027] (13)
1A95  00                 [028] (14)
1A96  06                 [029] (14)
1A97  01                 [030] (14)
1A98  00                 [031] (14)
1A99  00                 [032] (14)
1A9A  06                 [033] (15)
1A9B  01                 [034] (15)
1A9C  00                 [035] (18)
1A9D  00                 [036] (18)
1A9E  07                 [037] (18)
1A9F  01                 [038] (18)
1AA0  00                 [039] (18)
1AA1  00                 [040] (19)
1AA2  07                 [041] (19)
1AA3  01                 [042] (19)
1AA4  00                 [043] (19)
1AA5  00                 [044] (19)
1AA6  09                 [045] (21)
1AA7  01                 [046] (21)
1AA8  00                 [047] (21)
1AA9  00                 [048] (21)
1AAA  09                 [049] (23)
1AAB  01                 [050] (23)
1AAC  00                 [051] (23)
1AAD  00                 [052] (23)
1AAE  09                 [053] (23)
1AAF  01                 [054] (23)
1AB0  00                 [055] (24)
1AB1  00                 [056] (24)
1AB2  09                 [057] (24)
1AB3  01                 [058] (24)
1AB4  00                 [059] (24)
1AB5  00                 [060] (24)
1AB6  09                 [061] (25)
1AB7  01                 [062] (25)
1AB8  00                 [063] (25)
1AB9  00                 [064] (25)
1ABA  09                 [065] (25)
1ABB  01                 [066] (25)
1ABC  00                 [067] (26)
1ABD  00                 [068] (26)
1ABE  0A                 [069] (26)
1ABF  01                 [070] (26)
1AC0  00                 [071] (26)
1AC1  00                 [072] (26)
1AC2  0A                 [073] (26)
1AC3  01                 [074] (26)
1AC4  00                 [075] (27)
1AC5  00                 [076] (27)
1AC6  0A                 [077] (27)
1AC7  01                 [078] (27)
1AC8  00                 [079] (27)
1AC9  00                 [080] (27)
1ACA  0A                 [081] (28)
1ACB  01                 [082] (28)
1ACC  00                 [083] (28)
1ACD  00                 [084] (28)
1ACE  0A                 [085] (28)
1ACF  01                 [086] (28)
1AD0  00                 [087] (29)
1AD1  00                 [088] (29)
1AD2  0A                 [089] (29)
1AD3  01                 [090] (29)
1AD4  00                 [091] (29)
1AD5  00                 [092] (30)
1AD6  0A                 [093] (30)
1AD7  01                 [094] (30)
1AD8  00                 [095] (31)
1AD9  00                 [096] (31)
1ADA  0A                 [097] (31)
1ADB  01                 [098] (34)
1ADC  00                 [099] (34)
1ADD  00                 [100] (34)
1ADE  0D                 [101] (34)
1ADF  01                 [102] (34)
1AE0  00                 [103] (36)
1AE1  00                 [104] (36)
1AE2  0D                 [105] (36)
1AE3  01                 [106] (36)
1AE4  00                 [107] (36)
1AE5  00                 [108] (36)
1AE6  0E                 [109] (36)
1AE7  01                 [110] (36)
1AE8  00                 [111] (37)
1AE9  00                 [112] (37)
1AEA  0E                 [113] (38)
1AEB  01                 [114] (38)
1AEC  00                 [115] (38)
1AED  00                 [116] (38)
1AEE  0E                 [117] (38)
1AEF  01                 [118] (42)
1AF0  00                 [119] (42)
1AF1  00                 [120] (42)
1AF2  0E                 [121] (44)
1AF3  01                 [122] (44)
1AF4  00                 [123] (45)
1AF5  00                 [124] (45)
1AF6  0E                 [125] (45)
1AF7  01                 [126] (45)
1AF8  00                 [127] (45)
1AF9  00                 [128] (48)
1AFA  0F                 [129] (48)
1AFB  01                 [130] (49)
1AFC  00                 [131] (49)
1AFD  00                 [132] (49)
1AFE  0F                 [133] (49)
1AFF  01                 [134] (50)
1B00  00                 [135] (50)
1B01  00                 [136] (50)
1B02  12                 [137] (51)
1B03  01                 [138] (51)
1B04  00                 [139] (51)
1B05  00                 [140] (51)
1B06  12                 [141] (51)
1B07  01                 [142] (51)
1B08  00                 [143] (51)
1B09  00                 [144] (51)
1B0A  12                 [145] (51)
1B0B  01                 [146] (51)
1B0C  00                 [147] (52)
1B0D  00                 [148] (52)
1B0E  12                 [149] (52)
1B0F  01                 [150] (53)
1B10  00                 [151] (53)
1B11  00                 [152] (53)
1B12  12                 [153] (56)
1B13  01                 [154] (56)
1B14  00                 [155] (58)
1B15  00                 [156] (58)
1B16  13                 [157] (59)
                         * locals:
1CEE  00                 sizelocvars (0)
                         * upvalues:
1CEF  00                 sizeupvalues (0)
                         ** end of function **

                         
1CF0                     ** function [9] definition (level 2)
                         ** start of function **
1CF0  00                 string size (0)
                         source name: (none)
1CF2  02                 line defined (319)
1CF3  E6                 last line defined (358)
1CF4  02                 nups (0)
1CF5  00                 numparams (0)
1CF6  00                 is_vararg (0)
1CF7  00                 maxstacksize (20)
                         * code:
1CF9  5C                 sizecode (92)
1CFA  1D000000           [01] getglobal  0   0        ; gGameRules
1CFE  5D400000           [02] getglobal  1   1        ; -332969190
1D02  99800000           [03] loadk      2   2        ; "Alarm"
1D06  62800001           [04] call       1   2   2  
1D0A  A4C04000           [05] self       2   0   259  ; -502414055
1D0E  A2800001           [06] call       2   2   2  
1D12  DD000100           [07] getglobal  3   4        ; Lotus_Game
1D16  CE40C101           [08] gettable   3   3   261  ; "MT_COUNTER_INTEL"
fail op	35
1D1A  23C00001           [09] close      0  
1D1E  1AC00080           [10] jmp        4            ; to [15]
1D22  9D400000           [11] getglobal  2   1        ; -332969190
1D26  D9800100           [12] loadk      3   6        ; "AlarmSmall"
1D2A  A2800001           [13] call       2   2   2  
1D2E  52000001           [14] move       1   2      
1D32  9DC00100           [15] getglobal  2   7        ; gRegion
1D36  A4004201           [16] self       2   2   264  ; -1485896174
1D3A  12018000           [17] move       4   1      
1D3E  A2808001           [18] call       2   3   2  
1D42  DD400200           [19] getglobal  3   9        ; 1074689893
1D46  12010001           [20] move       4   2      
1D4A  E2800001           [21] call       3   2   2  
1D4E  D8400000           [22] test       3       1    ; to [24] if false
1D52  1A000280           [23] jmp        9            ; to [33]
1D56  D9800200           [24] loadk      3   10       ; 0
1D5A  0A010001           [25] len        4   2      
1D5E  59810200           [26] loadk      5   10       ; 0
1D62  D0C00080           [27] forprep    3   4        ; to [32]
1D66  CE810101           [28] gettable   7   2   6  
1D6A  E4C1C203           [29] self       7   7   267  ; -1923578185
1D6E  59020300           [30] loadk      9   12       ; "Enable"
1D72  E2418001           [31] call       7   3   1  
1D76  D480FE7F           [32] forloop    3   -5       ; to [28] if loop
1D7A  DDC10100           [33] getglobal  7   7        ; gRegion
1D7E  E401C203           [34] self       7   7   264  ; -1485896174
1D82  5D420000           [35] getglobal  9   1        ; -332969190
1D86  99420300           [36] loadk      10  13       ; "AlarmFlare"
1D8A  62020001           [37] call       9   2   0  
1D8E  E2810000           [38] call       7   0   2  
1D92  1D420200           [39] getglobal  8   9        ; 1074689893
1D96  52028003           [40] move       9   7      
1D9A  22820001           [41] call       8   2   2  
1D9E  18420000           [42] test       8       1    ; to [44] if false
1DA2  1A000280           [43] jmp        9            ; to [53]
1DA6  19820200           [44] loadk      8   10       ; 0
1DAA  4A028003           [45] len        9   7      
1DAE  99820200           [46] loadk      10  10       ; 0
1DB2  10C20080           [47] forprep    8   4        ; to [52]
1DB6  0EC38203           [48] gettable   12  7   11 
1DBA  24C34206           [49] self       12  12  267  ; -1923578185
1DBE  99030300           [50] loadk      14  12       ; "Enable"
1DC2  22438001           [51] call       12  3   1  
1DC6  1482FE7F           [52] forloop    8   -5       ; to [48] if loop
1DCA  1DC30100           [53] getglobal  12  7        ; gRegion
1DCE  24034206           [54] self       12  12  264  ; -1485896174
1DD2  9D430000           [55] getglobal  14  1        ; -332969190
1DD6  D9830300           [56] loadk      15  14       ; "AlarmLight"
1DDA  A2030001           [57] call       14  2   0  
1DDE  22830000           [58] call       12  0   2  
1DE2  5D430200           [59] getglobal  13  9        ; 1074689893
1DE6  92030006           [60] move       14  12     
1DEA  62830001           [61] call       13  2   2  
1DEE  58430000           [62] test       13      1    ; to [64] if false
1DF2  1A000280           [63] jmp        9            ; to [73]
1DF6  59830200           [64] loadk      13  10       ; 0
1DFA  8A030006           [65] len        14  12     
1DFE  D9830200           [66] loadk      15  10       ; 0
1E02  50C30080           [67] forprep    13  4        ; to [72]
1E06  4E040406           [68] gettable   17  12  16 
1E0A  64C4C208           [69] self       17  17  267  ; -1923578185
1E0E  D9C40300           [70] loadk      19  15       ; "TurnOn"
1E12  62448001           [71] call       17  3   1  
1E16  5483FE7F           [72] forloop    13  -5       ; to [68] if loop
1E1A  5D440200           [73] getglobal  17  9        ; 1074689893
1E1E  92040000           [74] move       18  0      
1E22  62840001           [75] call       17  2   2  
1E26  58440000           [76] test       17      1    ; to [78] if false
1E2A  1A000180           [77] jmp        5            ; to [83]
1E2E  64044400           [78] self       17  0   272  ; -1451901810
1E32  62840001           [79] call       17  2   2  
1E36  9D440400           [80] getglobal  18  17       ; -1692306532
1E3A  D2048008           [81] move       19  17     
1E3E  A2440001           [82] call       18  2   1  
1E42  9DC40100           [83] getglobal  18  7        ; gRegion
1E46  A4844409           [84] self       18  18  274  ; -1520831144
1E4A  A2840001           [85] call       18  2   2  
1E4E  98040000           [86] test       18      0    ; to [88] if true
1E52  1AC00080           [87] jmp        4            ; to [92]
1E56  9DC40400           [88] getglobal  18  19       ; _T
1E5A  8E044509           [89] gettable   18  18  276  ; "difficulty"
fail op	33
1E5E  2180848A           [90] tforloop   0       18   ; to [92] if exit
1E62  1AC0FF7F           [91] jmp        0            ; to [92]
1E66  1E008000           [92] return     0   1      
                         * constants:
1E6A  16                 sizek (22)
1E6B  04                 const type 4
1E6C  0B                 string size (11)
1E6D  6747616D6552756C+  "gGameRul"
1E75  657300             "es\0"
                         const [0]: "gGameRules"
1E78  01                 const type 3
1E79  1A4B27EC           const [1]: (-332969190)
1E7D  04                 const type 4
1E7E  06                 string size (6)
1E7F  416C61726D00       "Alarm\0"
                         const [2]: "Alarm"
1E85  01                 const type 3
1E86  19C50DE2           const [3]: (-502414055)
1E8A  04                 const type 4
1E8B  0B                 string size (11)
1E8C  4C6F7475735F4761+  "Lotus_Ga"
1E94  6D6500             "me\0"
                         const [4]: "Lotus_Game"
1E97  04                 const type 4
1E98  11                 string size (17)
1E99  4D545F434F554E54+  "MT_COUNT"
1EA1  45525F494E54454C+  "ER_INTEL"
1EA9  00                 "\0"
                         const [5]: "MT_COUNTER_INTEL"
1EAA  04                 const type 4
1EAB  0B                 string size (11)
1EAC  416C61726D536D61+  "AlarmSma"
1EB4  6C6C00             "ll\0"
                         const [6]: "AlarmSmall"
1EB7  04                 const type 4
1EB8  08                 string size (8)
1EB9  67526567696F6E00   "gRegion\0"
                         const [7]: "gRegion"
1EC1  01                 const type 3
1EC2  12066FA7           const [8]: (-1485896174)
1EC6  01                 const type 3
1EC7  65770E40           const [9]: (1074689893)
1ECB  03                 const type 3
1ECC  0000803F           const [10]: (0)
1ED0  01                 const type 3
1ED1  B786588D           const [11]: (-1923578185)
1ED5  04                 const type 4
1ED6  07                 string size (7)
1ED7  456E61626C6500     "Enable\0"
                         const [12]: "Enable"
1EDE  04                 const type 4
1EDF  0B                 string size (11)
1EE0  416C61726D466C61+  "AlarmFla"
1EE8  726500             "re\0"
                         const [13]: "AlarmFlare"
1EEB  04                 const type 4
1EEC  0B                 string size (11)
1EED  416C61726D4C6967+  "AlarmLig"
1EF5  687400             "ht\0"
                         const [14]: "AlarmLight"
1EF8  04                 const type 4
1EF9  07                 string size (7)
1EFA  5475726E4F6E00     "TurnOn\0"
                         const [15]: "TurnOn"
1F01  01                 const type 3
1F02  8EBC75A9           const [16]: (-1451901810)
1F06  01                 const type 3
1F07  9C73219B           const [17]: (-1692306532)
1F0B  01                 const type 3
1F0C  58F559A5           const [18]: (-1520831144)
1F10  04                 const type 4
1F11  03                 string size (3)
1F12  5F5400             "_T\0"
                         const [19]: "_T"
1F15  04                 const type 4
1F16  0B                 string size (11)
1F17  646966666963756C+  "difficul"
1F1F  747900             "ty\0"
                         const [20]: "difficulty"
1F22  03                 const type 3
1F23  00008040           const [21]: (0)
                         * functions:
1F27  00                 sizep (0)
                         * lines:
1F28  5C                 sizelineinfo (92)
                         [pc] (line)
1F29  41                 [01] (65)
1F2A  01                 [02] (66)
1F2B  00                 [03] (66)
1F2C  00                 [04] (66)
1F2D  42                 [05] (67)
1F2E  01                 [06] (67)
1F2F  00                 [07] (67)
1F30  00                 [08] (67)
1F31  42                 [09] (67)
1F32  01                 [10] (67)
1F33  00                 [11] (68)
1F34  00                 [12] (68)
1F35  42                 [13] (68)
1F36  01                 [14] (68)
1F37  00                 [15] (71)
1F38  00                 [16] (71)
1F39  43                 [17] (71)
1F3A  01                 [18] (71)
1F3B  00                 [19] (73)
1F3C  00                 [20] (73)
1F3D  43                 [21] (73)
1F3E  01                 [22] (73)
1F3F  00                 [23] (73)
1F40  00                 [24] (74)
1F41  43                 [25] (74)
1F42  01                 [26] (74)
1F43  00                 [27] (74)
1F44  00                 [28] (75)
1F45  43                 [29] (75)
1F46  01                 [30] (75)
1F47  00                 [31] (75)
1F48  00                 [32] (74)
1F49  43                 [33] (79)
1F4A  01                 [34] (79)
1F4B  00                 [35] (79)
1F4C  00                 [36] (79)
1F4D  43                 [37] (79)
1F4E  01                 [38] (79)
1F4F  00                 [39] (80)
1F50  00                 [40] (80)
1F51  44                 [41] (80)
1F52  01                 [42] (80)
1F53  00                 [43] (80)
1F54  00                 [44] (81)
1F55  44                 [45] (81)
1F56  01                 [46] (81)
1F57  00                 [47] (81)
1F58  00                 [48] (82)
1F59  44                 [49] (82)
1F5A  01                 [50] (82)
1F5B  00                 [51] (82)
1F5C  00                 [52] (81)
1F5D  44                 [53] (86)
1F5E  01                 [54] (86)
1F5F  00                 [55] (86)
1F60  00                 [56] (86)
1F61  47                 [57] (86)
1F62  01                 [58] (86)
1F63  00                 [59] (87)
1F64  00                 [60] (87)
1F65  47                 [61] (87)
1F66  01                 [62] (87)
1F67  00                 [63] (87)
1F68  00                 [64] (88)
1F69  47                 [65] (88)
1F6A  01                 [66] (88)
1F6B  00                 [67] (88)
1F6C  00                 [68] (89)
1F6D  47                 [69] (89)
1F6E  01                 [70] (89)
1F6F  00                 [71] (89)
1F70  00                 [72] (88)
1F71  49                 [73] (93)
1F72  01                 [74] (93)
1F73  00                 [75] (93)
1F74  00                 [76] (93)
1F75  49                 [77] (93)
1F76  01                 [78] (94)
1F77  00                 [79] (94)
1F78  00                 [80] (95)
1F79  49                 [81] (95)
1F7A  01                 [82] (95)
1F7B  00                 [83] (99)
1F7C  00                 [84] (99)
1F7D  49                 [85] (99)
1F7E  01                 [86] (99)
1F7F  00                 [87] (99)
1F80  00                 [88] (99)
1F81  49                 [89] (99)
1F82  01                 [90] (99)
1F83  00                 [91] (99)
1F84  00                 [92] (102)
                         * locals:
2099  00                 sizelocvars (0)
                         * upvalues:
209A  00                 sizeupvalues (0)
                         ** end of function **

                         
209B                     ** function [10] definition (level 2)
                         ** start of function **
209B  00                 string size (0)
                         source name: (none)
209D  02                 line defined (360)
209E  C6                 last line defined (454)
209F  03                 nups (3)
20A0  03                 numparams (0)
20A1  00                 is_vararg (0)
20A2  00                 maxstacksize (55)
                         * code:
20A5  01                 sizecode (220)
20A6  1D000000           [001] getglobal  0   0        ; gGameRules
20AA  5D400000           [002] getglobal  1   1        ; TurnOffLights
fail op	35
20AE  2380C000           [003] close      0  
20B2  1A002080           [004] jmp        129          ; to [134]
20B6  5DC00000           [005] getglobal  1   3        ; gRegion
20BA  6400C100           [006] self       1   1   260  ; 152279552
20BE  DD400100           [007] getglobal  3   5        ; gZoneAttribsType
20C2  62808001           [008] call       1   3   2  
20C6  9DC00000           [009] getglobal  2   3        ; gRegion
20CA  A4804101           [010] self       2   2   262  ; -1485896174
20CE  1DC10100           [011] getglobal  4   7        ; -332969190
20D2  59010200           [012] loadk      5   8        ; "Light"
20D6  22010001           [013] call       4   2   0  
20DA  A2800000           [014] call       2   0   2  
20DE  DDC00000           [015] getglobal  3   3        ; gRegion
20E2  E480C101           [016] self       3   3   262  ; -1485896174
20E6  5DC10100           [017] getglobal  5   7        ; -332969190
20EA  99410200           [018] loadk      6   9        ; "LightFixture"
20EE  62010001           [019] call       5   2   0  
20F2  E2800000           [020] call       3   0   2  
20F6  1DC10000           [021] getglobal  4   3        ; gRegion
20FA  24814102           [022] self       4   4   262  ; -1485896174
20FE  9DC10100           [023] getglobal  6   7        ; -332969190
2102  D9810200           [024] loadk      7   10       ; "LightFixtureTemplate"
2106  A2010001           [025] call       6   2   0  
210A  22810000           [026] call       4   0   2  
210E  5DC10000           [027] getglobal  5   3        ; gRegion
2112  6481C102           [028] self       5   5   262  ; -1485896174
2116  DDC10100           [029] getglobal  7   7        ; -332969190
211A  19C20200           [030] loadk      8   11       ; "LightFlare"
211E  E2010001           [031] call       7   2   0  
2122  62810000           [032] call       5   0   2  
2126  9D010300           [033] getglobal  6   12       ; 1074689893
212A  D2010001           [034] move       7   2      
212E  A2810001           [035] call       6   2   2  
2132  98410000           [036] test       6       1    ; to [38] if false
2136  1A000280           [037] jmp        9            ; to [47]
213A  99410300           [038] loadk      6   13       ; 0
213E  CA010001           [039] len        7   2      
2142  19420300           [040] loadk      8   13       ; 0
2146  90C10080           [041] forprep    6   4        ; to [46]
214A  8E420201           [042] gettable   10  2   9  
214E  A4824305           [043] self       10  10  270  ; -1923578185
2152  19C30300           [044] loadk      12  15       ; "TurnOff"
2156  A2428001           [045] call       10  3   1  
215A  9481FE7F           [046] forloop    6   -5       ; to [42] if loop
215E  9D020300           [047] getglobal  10  12       ; 1074689893
2162  D2028000           [048] move       11  1      
2166  A2820001           [049] call       10  2   2  
216A  98420000           [050] test       10      1    ; to [52] if false
216E  1A000280           [051] jmp        9            ; to [61]
2172  99420300           [052] loadk      10  13       ; 0
2176  CA028000           [053] len        11  1      
217A  19430300           [054] loadk      12  13       ; 0
217E  90C20080           [055] forprep    10  4        ; to [60]
2182  8E438300           [056] gettable   14  1   13 
2186  A4034407           [057] self       14  14  272  ; -540837129
218A  17048000           [058] loadbool   16  1   0    ; true
218E  A2438001           [059] call       14  3   1  
2192  9482FE7F           [060] forloop    10  -5       ; to [56] if loop
2196  9D030300           [061] getglobal  14  12       ; 1074689893
219A  D2038001           [062] move       15  3      
219E  A2830001           [063] call       14  2   2  
21A2  98430000           [064] test       14      1    ; to [66] if false
21A6  1A800280           [065] jmp        11           ; to [77]
21AA  99430300           [066] loadk      14  13       ; 0
21AE  CA038001           [067] len        15  3      
21B2  19440300           [068] loadk      16  13       ; 0
21B6  90430180           [069] forprep    14  6        ; to [76]
21BA  8E448401           [070] gettable   18  3   17 
21BE  A4444409           [071] self       18  18  273  ; -786111647
21C2  1D850400           [072] getglobal  20  18       ; Lotus_Game
21C6  0EC5440A           [073] gettable   20  20  275  ; "EMISSIVE_MAP_ATTEN"
21CA  59050500           [074] loadk      21  20       ; 0
21CE  A2440002           [075] call       18  4   1  
21D2  9403FE7F           [076] forloop    14  -7       ; to [70] if loop
21D6  9D040300           [077] getglobal  18  12       ; 1074689893
21DA  D2040002           [078] move       19  4      
21DE  A2840001           [079] call       18  2   2  
21E2  98440000           [080] test       18      1    ; to [82] if false
21E6  1A800280           [081] jmp        11           ; to [93]
21EA  99440300           [082] loadk      18  13       ; 0
21EE  CA040002           [083] len        19  4      
21F2  19450300           [084] loadk      20  13       ; 0
21F6  90440180           [085] forprep    18  6        ; to [92]
21FA  8E450502           [086] gettable   22  4   21 
21FE  A445440B           [087] self       22  22  273  ; -786111647
2202  1D860400           [088] getglobal  24  18       ; Lotus_Game
2206  0EC6440C           [089] gettable   24  24  275  ; "EMISSIVE_MAP_ATTEN"
220A  59060500           [090] loadk      25  20       ; 0
220E  A2450002           [091] call       22  4   1  
2212  9404FE7F           [092] forloop    18  -7       ; to [86] if loop
2216  9D050300           [093] getglobal  22  12       ; 1074689893
221A  D2058002           [094] move       23  5      
221E  A2850001           [095] call       22  2   2  
2222  98450000           [096] test       22      1    ; to [98] if false
2226  1A000280           [097] jmp        9            ; to [107]
222A  99450300           [098] loadk      22  13       ; 0
222E  CA058002           [099] len        23  5      
2232  19460300           [100] loadk      24  13       ; 0
2236  90C50080           [101] forprep    22  4        ; to [106]
223A  8E468602           [102] gettable   26  5   25 
223E  A486430D           [103] self       26  26  270  ; -1923578185
2242  19470500           [104] loadk      28  21       ; "Disable"
2246  A2468001           [105] call       26  3   1  
224A  9485FE7F           [106] forloop    22  -5       ; to [102] if loop
224E  9D060300           [107] getglobal  26  12       ; 1074689893
2252  D2060000           [108] move       27  0      
2256  A2860001           [109] call       26  2   2  
225A  98460000           [110] test       26      1    ; to [112] if false
225E  1A000180           [111] jmp        5            ; to [117]
2262  A4864500           [112] self       26  0   278  ; -1451901810
2266  A2860001           [113] call       26  2   2  
226A  DDC60500           [114] getglobal  27  23       ; -1692306532
226E  1207000D           [115] move       28  26     
2272  E2460001           [116] call       27  2   1  
2276  D9460300           [117] loadk      27  13       ; 0
227A  1D070600           [118] getglobal  28  24       ; decosToHide
227E  0A07000E           [119] len        28  28     
2282  59470300           [120] loadk      29  13       ; 0
2286  D0060180           [121] forprep    27  5        ; to [127]
228A  DD070600           [122] getglobal  31  24       ; decosToHide
228E  CE87870F           [123] gettable   31  31  30 
2292  E487C30F           [124] self       31  31  270  ; -1923578185
2296  59480600           [125] loadk      33  25       ; "Hide"
229A  E2478001           [126] call       31  3   1  
229E  D446FE7F           [127] forloop    27  -6       ; to [122] if loop
22A2  DDC70000           [128] getglobal  31  3        ; gRegion
22A6  E487C60F           [129] self       31  31  282  ; -1456226250
22AA  E2870001           [130] call       31  2   2  
22AE  CEC7C60F           [131] gettable   31  31  283  ; "postProcess"
22B2  19080700           [132] loadk      32  28       ; 51
22B6  CC07888E           [133] settable   31  285 32   ; "lightMapBoost"
22BA  5DC80000           [134] getglobal  33  3        ; gRegion
22BE  6488C710           [135] self       33  33  286  ; -774964848
22C2  62880001           [136] call       33  2   2  
22C6  A4C8C710           [137] self       34  33  287  ; 537471347
22CA  A2880001           [138] call       34  2   2  
22CE  DDC80000           [139] getglobal  35  3        ; gRegion
22D2  E408C811           [140] self       35  35  288  ; -1520831144
22D6  E2880001           [141] call       35  2   2  
22DA  D8080000           [142] test       35      0    ; to [144] if true
22DE  1AC01280           [143] jmp        76           ; to [220]
22E2  D3080000           [144] getupval   35  0      
22E6  E2888000           [145] call       35  1   2  
fail op	35
22EA  2340C811           [146] close      0  
22EE  1AC01180           [147] jmp        72           ; to [220]
22F2  13098000           [148] getupval   36  1      
22F6  0E894812           [149] gettable   36  36  290  ; 198248041
22FA  22898000           [150] call       36  1   2  
22FE  5D090300           [151] getglobal  37  12       ; 1074689893
2302  92090011           [152] move       38  34     
2306  62890001           [153] call       37  2   2  
230A  58490000           [154] test       37      1    ; to [156] if false
230E  1A800280           [155] jmp        11           ; to [167]
2312  64C94800           [156] self       37  0   291  ; 2051260977
2316  D7098000           [157] loadbool   39  1   0    ; true
231A  62498001           [158] call       37  3   1  
231E  5D090300           [159] getglobal  37  12       ; 1074689893
2322  92090012           [160] move       38  36     
2326  62890001           [161] call       37  2   2  
232A  58490000           [162] test       37      1    ; to [164] if false
232E  1A800080           [163] jmp        3            ; to [167]
2332  64094911           [164] self       37  34  292  ; -906150570
2336  D2090012           [165] move       39  36     
233A  62498001           [166] call       37  3   1  
233E  5D490900           [167] getglobal  37  37       ; useRandomExtractionTimer
fail op	35
2342  2380C012           [168] close      0  
2346  1A000A80           [169] jmp        41           ; to [211]
234A  5D890900           [170] getglobal  37  38       ; 2144646525
234E  99490300           [171] loadk      38  13       ; 0
2352  D9C90900           [172] loadk      39  39       ; 0
2356  62898001           [173] call       37  3   2  
235A  9DC90000           [174] getglobal  38  3        ; gRegion
235E  A4094A13           [175] self       38  38  296  ; -2071158816
2362  A2890001           [176] call       38  2   2  
2366  D9090500           [177] loadk      39  20       ; 0
236A  194A0300           [178] loadk      40  13       ; 0
236E  4A0A0013           [179] len        41  38     
2372  994A0300           [180] loadk      42  13       ; 0
2376  100A0380           [181] forprep    40  13       ; to [195]
237A  1D0B0300           [182] getglobal  44  12       ; 1074689893
237E  4ECB0A13           [183] gettable   45  38  43 
2382  228B0001           [184] call       44  2   2  
2386  184B0000           [185] test       44      1    ; to [187] if false
238A  1AC00180           [186] jmp        8            ; to [195]
238E  0ECB0A13           [187] gettable   44  38  43 
2392  244B4A16           [188] self       44  44  297  ; -1917464545
2396  228B0001           [189] call       44  2   2  
239A  648B4A16           [190] self       45  44  298  ; 1769516121
239E  628B0001           [191] call       45  2   2  
23A2  A4CBCA16           [192] self       46  45  299  ; 1250786858
23A6  A28B0001           [193] call       46  2   2  
23AA  C3898B13           [194] add        39  39  46 
23AE  144AFC7F           [195] forloop    40  -14      ; to [182] if loop
23B2  CA0B0013           [196] len        47  38     
23B6  DCCB8B13           [197] div        47  39  47 
fail op	35
23BA  2340C312           [198] close      0  
23BE  1A800280           [199] jmp        11           ; to [211]
fail op	21
23C2  15C00B96           [200] concat     0   300 47 
23C6  1A000280           [201] jmp        9            ; to [211]
23CA  130C0001           [202] getupval   48  2      
23CE  0E4C4B18           [203] gettable   48  48  301  ; 243495507
23D2  5D8C0B00           [204] getglobal  49  46       ; duration
23D6  970C0000           [205] loadbool   50  0   0    ; false
23DA  D70C8000           [206] loadbool   51  1   0    ; true
23DE  1DCD0B00           [207] getglobal  52  47       ; expiryEndMission
23E2  590D0C00           [208] loadk      53  48       ; 0
23E6  9D4D0C00           [209] getglobal  54  49       ; message
23EA  224C8003           [210] call       48  7   1  
23EE  1D0C0300           [211] getglobal  48  12       ; 1074689893
23F2  5D8C0C00           [212] getglobal  49  50       ; completeObjScript
23F6  228C0001           [213] call       48  2   2  
23FA  184C0000           [214] test       48      1    ; to [216] if false
23FE  1AC00080           [215] jmp        4            ; to [220]
2402  1D8C0C00           [216] getglobal  48  50       ; completeObjScript
2406  248C4318           [217] self       48  48  270  ; -1923578185
240A  99CC0C00           [218] loadk      50  51       ; "Execute"
240E  224C8001           [219] call       48  3   1  
2412  1E008000           [220] return     0   1      
                         * constants:
2416  34                 sizek (52)
2417  04                 const type 4
2418  0B                 string size (11)
2419  6747616D6552756C+  "gGameRul"
2421  657300             "es\0"
                         const [0]: "gGameRules"
2424  04                 const type 4
2425  0E                 string size (14)
2426  5475726E4F66664C+  "TurnOffL"
242E  696768747300       "ights\0"
                         const [1]: "TurnOffLights"
2434  01                 const type 3
2435  01000000           const [2]: (1)
2439  04                 const type 4
243A  08                 string size (8)
243B  67526567696F6E00   "gRegion\0"
                         const [3]: "gRegion"
2443  01                 const type 3
2444  009A1309           const [4]: (152279552)
2448  04                 const type 4
2449  11                 string size (17)
244A  675A6F6E65417474+  "gZoneAtt"
2452  7269627354797065+  "ribsType"
245A  00                 "\0"
                         const [5]: "gZoneAttribsType"
245B  01                 const type 3
245C  12066FA7           const [6]: (-1485896174)
2460  01                 const type 3
2461  1A4B27EC           const [7]: (-332969190)
2465  04                 const type 4
2466  06                 string size (6)
2467  4C6967687400       "Light\0"
                         const [8]: "Light"
246D  04                 const type 4
246E  0D                 string size (13)
246F  4C69676874466978+  "LightFix"
2477  7475726500         "ture\0"
                         const [9]: "LightFixture"
247C  04                 const type 4
247D  15                 string size (21)
247E  4C69676874466978+  "LightFix"
2486  7475726554656D70+  "tureTemp"
248E  6C61746500         "late\0"
                         const [10]: "LightFixtureTemplate"
2493  04                 const type 4
2494  0B                 string size (11)
2495  4C69676874466C61+  "LightFla"
249D  726500             "re\0"
                         const [11]: "LightFlare"
24A0  01                 const type 3
24A1  65770E40           const [12]: (1074689893)
24A5  03                 const type 3
24A6  0000803F           const [13]: (0)
24AA  01                 const type 3
24AB  B786588D           const [14]: (-1923578185)
24AF  04                 const type 4
24B0  08                 string size (8)
24B1  5475726E4F666600   "TurnOff\0"
                         const [15]: "TurnOff"
24B9  01                 const type 3
24BA  F77AC3DF           const [16]: (-540837129)
24BE  01                 const type 3
24BF  61E324D1           const [17]: (-786111647)
24C3  04                 const type 4
24C4  0B                 string size (11)
24C5  4C6F7475735F4761+  "Lotus_Ga"
24CD  6D6500             "me\0"
                         const [18]: "Lotus_Game"
24D0  04                 const type 4
24D1  13                 string size (19)
24D2  454D495353495645+  "EMISSIVE"
24DA  5F4D41505F415454+  "_MAP_ATT"
24E2  454E00             "EN\0"
                         const [19]: "EMISSIVE_MAP_ATTEN"
24E5  03                 const type 3
24E6  00000000           const [20]: (0)
24EA  04                 const type 4
24EB  08                 string size (8)
24EC  44697361626C6500   "Disable\0"
                         const [21]: "Disable"
24F4  01                 const type 3
24F5  8EBC75A9           const [22]: (-1451901810)
24F9  01                 const type 3
24FA  9C73219B           const [23]: (-1692306532)
24FE  04                 const type 4
24FF  0C                 string size (12)
2500  6465636F73546F48+  "decosToH"
2508  69646500           "ide\0"
                         const [24]: "decosToHide"
250C  04                 const type 4
250D  05                 string size (5)
250E  4869646500         "Hide\0"
                         const [25]: "Hide"
2513  01                 const type 3
2514  36C033A9           const [26]: (-1456226250)
2518  04                 const type 4
2519  0C                 string size (12)
251A  706F737450726F63+  "postProc"
2522  65737300           "ess\0"
                         const [27]: "postProcess"
2526  03                 const type 3
2527  3333333F           const [28]: (51)
252B  04                 const type 4
252C  0E                 string size (14)
252D  6C696768744D6170+  "lightMap"
2535  426F6F737400       "Boost\0"
                         const [29]: "lightMapBoost"
253B  01                 const type 3
253C  90F9CED1           const [30]: (-774964848)
2540  01                 const type 3
2541  73290920           const [31]: (537471347)
2545  01                 const type 3
2546  58F559A5           const [32]: (-1520831144)
254A  01                 const type 3
254B  00000000           const [33]: (0)
254F  01                 const type 3
2550  6906D10B           const [34]: (198248041)
2554  01                 const type 3
2555  31C2437A           const [35]: (2051260977)
2559  01                 const type 3
255A  563DFDC9           const [36]: (-906150570)
255E  04                 const type 4
255F  19                 string size (25)
2560  75736552616E646F+  "useRando"
2568  6D45787472616374+  "mExtract"
2570  696F6E54696D6572+  "ionTimer"
2578  00                 "\0"
                         const [37]: "useRandomExtractionTimer"
2579  01                 const type 3
257A  7DB5D47F           const [38]: (2144646525)
257E  03                 const type 3
257F  00004040           const [39]: (0)
2583  01                 const type 3
2584  E09F8C84           const [40]: (-2071158816)
2588  01                 const type 3
2589  1FD0B58D           const [41]: (-1917464545)
258D  01                 const type 3
258E  59AC7869           const [42]: (1769516121)
2592  01                 const type 3
2593  2A7E8D4A           const [43]: (1250786858)
2597  03                 const type 3
2598  00002041           const [44]: (0)
259C  01                 const type 3
259D  5372830E           const [45]: (243495507)
25A1  04                 const type 4
25A2  09                 string size (9)
25A3  6475726174696F6E+  "duration"
25AB  00                 "\0"
                         const [46]: "duration"
25AC  04                 const type 4
25AD  11                 string size (17)
25AE  657870697279456E+  "expiryEn"
25B6  644D697373696F6E+  "dMission"
25BE  00                 "\0"
                         const [47]: "expiryEndMission"
25BF  03                 const type 3
25C0  00000040           const [48]: (0)
25C4  04                 const type 4
25C5  08                 string size (8)
25C6  6D65737361676500   "message\0"
                         const [49]: "message"
25CE  04                 const type 4
25CF  12                 string size (18)
25D0  636F6D706C657465+  "complete"
25D8  4F626A5363726970+  "ObjScrip"
25E0  7400               "t\0"
                         const [50]: "completeObjScript"
25E2  04                 const type 4
25E3  08                 string size (8)
25E4  4578656375746500   "Execute\0"
                         const [51]: "Execute"
                         * functions:
25EC  00                 sizep (0)
                         * lines:
25EE  01                 sizelineinfo (220)
                         [pc] (line)
25EF  6A                 [001] (106)
25F0  01                 [002] (107)
25F1  00                 [003] (107)
25F2  00                 [004] (107)
25F3  6B                 [005] (108)
25F4  01                 [006] (108)
25F5  00                 [007] (108)
25F6  00                 [008] (108)
25F7  6B                 [009] (109)
25F8  01                 [010] (109)
25F9  00                 [011] (109)
25FA  00                 [012] (109)
25FB  6B                 [013] (109)
25FC  01                 [014] (109)
25FD  00                 [015] (111)
25FE  00                 [016] (111)
25FF  6C                 [017] (111)
2600  01                 [018] (111)
2601  00                 [019] (111)
2602  00                 [020] (111)
2603  6C                 [021] (112)
2604  01                 [022] (112)
2605  00                 [023] (112)
2606  00                 [024] (112)
2607  6C                 [025] (112)
2608  01                 [026] (112)
2609  00                 [027] (113)
260A  00                 [028] (113)
260B  6C                 [029] (113)
260C  01                 [030] (113)
260D  00                 [031] (113)
260E  00                 [032] (113)
260F  6D                 [033] (114)
2610  01                 [034] (114)
2611  00                 [035] (114)
2612  00                 [036] (114)
2613  6D                 [037] (114)
2614  01                 [038] (115)
2615  00                 [039] (115)
2616  00                 [040] (115)
2617  6D                 [041] (115)
2618  01                 [042] (116)
2619  00                 [043] (116)
261A  00                 [044] (116)
261B  6D                 [045] (116)
261C  01                 [046] (115)
261D  00                 [047] (120)
261E  00                 [048] (120)
261F  6D                 [049] (120)
2620  01                 [050] (120)
2621  00                 [051] (120)
2622  00                 [052] (121)
2623  6D                 [053] (121)
2624  01                 [054] (121)
2625  00                 [055] (121)
2626  00                 [056] (122)
2627  6F                 [057] (122)
2628  01                 [058] (122)
2629  00                 [059] (122)
262A  00                 [060] (121)
262B  6F                 [061] (126)
262C  01                 [062] (126)
262D  00                 [063] (126)
262E  00                 [064] (126)
262F  6F                 [065] (126)
2630  01                 [066] (127)
2631  00                 [067] (127)
2632  00                 [068] (127)
2633  6F                 [069] (127)
2634  01                 [070] (-128)
2635  00                 [071] (-128)
2636  00                 [072] (-128)
2637  6F                 [073] (-128)
2638  01                 [074] (-128)
2639  00                 [075] (-128)
263A  00                 [076] (127)
263B  6F                 [077] (-125)
263C  01                 [078] (-125)
263D  00                 [079] (-125)
263E  00                 [080] (-125)
263F  70                 [081] (-125)
2640  01                 [082] (-124)
2641  00                 [083] (-124)
2642  00                 [084] (-124)
2643  70                 [085] (-124)
2644  01                 [086] (-123)
2645  00                 [087] (-123)
2646  00                 [088] (-123)
2647  70                 [089] (-123)
2648  01                 [090] (-123)
2649  00                 [091] (-123)
264A  00                 [092] (-124)
264B  70                 [093] (-120)
264C  01                 [094] (-120)
264D  00                 [095] (-120)
264E  00                 [096] (-120)
264F  70                 [097] (-120)
2650  01                 [098] (-119)
2651  00                 [099] (-119)
2652  00                 [100] (-119)
2653  70                 [101] (-119)
2654  01                 [102] (-118)
2655  00                 [103] (-118)
2656  00                 [104] (-118)
2657  71                 [105] (-118)
2658  01                 [106] (-119)
2659  00                 [107] (-114)
265A  00                 [108] (-114)
265B  71                 [109] (-114)
265C  01                 [110] (-114)
265D  00                 [111] (-114)
265E  00                 [112] (-113)
265F  71                 [113] (-113)
2660  01                 [114] (-112)
2661  00                 [115] (-112)
2662  00                 [116] (-112)
2663  71                 [117] (-110)
2664  01                 [118] (-110)
2665  00                 [119] (-110)
2666  00                 [120] (-110)
2667  71                 [121] (-110)
2668  01                 [122] (-109)
2669  00                 [123] (-109)
266A  00                 [124] (-109)
266B  71                 [125] (-109)
266C  01                 [126] (-109)
266D  00                 [127] (-110)
266E  00                 [128] (-107)
266F  72                 [129] (-107)
2670  01                 [130] (-107)
2671  00                 [131] (-107)
2672  00                 [132] (-106)
2673  72                 [133] (-105)
2674  01                 [134] (-102)
2675  00                 [135] (-102)
2676  00                 [136] (-102)
2677  72                 [137] (-101)
2678  01                 [138] (-101)
2679  00                 [139] (-98)
267A  00                 [140] (-98)
267B  72                 [141] (-98)
267C  01                 [142] (-98)
267D  00                 [143] (-98)
267E  00                 [144] (-97)
267F  72                 [145] (-97)
2680  01                 [146] (-96)
2681  00                 [147] (-96)
2682  00                 [148] (-95)
2683  73                 [149] (-95)
2684  01                 [150] (-95)
2685  00                 [151] (-94)
2686  00                 [152] (-94)
2687  73                 [153] (-94)
2688  01                 [154] (-94)
2689  00                 [155] (-94)
268A  00                 [156] (-93)
268B  73                 [157] (-93)
268C  01                 [158] (-93)
268D  00                 [159] (-92)
268E  00                 [160] (-92)
268F  73                 [161] (-92)
2690  01                 [162] (-92)
2691  00                 [163] (-92)
2692  00                 [164] (-91)
2693  74                 [165] (-91)
2694  01                 [166] (-91)
2695  00                 [167] (-87)
2696  00                 [168] (-87)
2697  74                 [169] (-87)
2698  01                 [170] (-85)
2699  00                 [171] (-85)
269A  00                 [172] (-85)
269B  74                 [173] (-85)
269C  01                 [174] (-83)
269D  00                 [175] (-83)
269E  00                 [176] (-83)
269F  74                 [177] (-81)
26A0  01                 [178] (-80)
26A1  00                 [179] (-80)
26A2  00                 [180] (-80)
26A3  73                 [181] (-80)
26A4  01                 [182] (-79)
26A5  00                 [183] (-79)
26A6  00                 [184] (-79)
26A7  78                 [185] (-79)
26A8  01                 [186] (-79)
26A9  00                 [187] (-78)
26AA  00                 [188] (-78)
26AB  78                 [189] (-78)
26AC  01                 [190] (-77)
26AD  00                 [191] (-77)
26AE  00                 [192] (-76)
26AF  78                 [193] (-76)
26B0  01                 [194] (-75)
26B1  00                 [195] (-80)
26B2  00                 [196] (-72)
26B3  78                 [197] (-72)
26B4  01                 [198] (-70)
26B5  00                 [199] (-70)
26B6  00                 [200] (-70)
26B7  78                 [201] (-70)
26B8  01                 [202] (-69)
26B9  00                 [203] (-69)
26BA  00                 [204] (-69)
26BB  79                 [205] (-69)
26BC  01                 [206] (-69)
26BD  00                 [207] (-69)
26BE  00                 [208] (-69)
26BF  79                 [209] (-69)
26C0  01                 [210] (-69)
26C1  00                 [211] (-65)
26C2  00                 [212] (-65)
26C3  79                 [213] (-65)
26C4  01                 [214] (-65)
26C5  00                 [215] (-65)
26C6  00                 [216] (-64)
26C7  79                 [217] (-64)
26C8  01                 [218] (-64)
26C9  00                 [219] (-64)
26CA  00                 [220] (-58)
                         * locals:
295F  00                 sizelocvars (0)
                         * upvalues:
2960  00                 sizeupvalues (0)
                         ** end of function **

                         
2961                     ** function [11] definition (level 2)
                         ** start of function **
2961  00                 string size (0)
                         source name: (none)
2963  03                 line defined (456)
2964  D6                 last line defined (470)
2965  03                 nups (1)
2966  01                 numparams (0)
2967  00                 is_vararg (0)
2968  00                 maxstacksize (11)
                         * code:
296A  24                 sizecode (36)
296B  1D000000           [01] getglobal  0   0        ; gRegion
296F  24404000           [02] self       0   0   257  ; -1485896174
2973  9D800000           [03] getglobal  2   2        ; -332969190
2977  D9C00000           [04] loadk      3   3        ; "DroneSpawn"
297B  A2000001           [05] call       2   2   0  
297F  22800000           [06] call       0   0   2  
2983  59000100           [07] loadk      1   4        ; 0
2987  99400100           [08] loadk      2   5        ; 0
298B  D9800100           [09] loadk      3   6        ; 0
298F  1DC10100           [10] getglobal  4   7        ; 1074689893
2993  52010000           [11] move       5   0      
2997  22810001           [12] call       4   2   2  
299B  18410000           [13] test       4       1    ; to [15] if false
299F  1A000580           [14] jmp        21           ; to [36]
29A3  19010200           [15] loadk      4   8        ; 0
29A7  4A010000           [16] len        5   0      
29AB  99010200           [17] loadk      6   8        ; 0
29AF  10C10380           [18] forprep    4   16       ; to [35]
29B3  1D420200           [19] getglobal  8   9        ; -1331746705
29B7  4EC20100           [20] gettable   9   0   7  
29BB  6482C204           [21] self       9   9   266  ; 1839670529
29BF  62820001           [22] call       9   2   2  
29C3  93020000           [23] getupval   10  0      
29C7  A2028000           [24] call       10  1   0  
29CB  22820000           [25] call       8   0   2  
fail op	33
29CF  21400004           [26] tforloop   0       1    ; to [28] if exit
29D3  1A800180           [27] jmp        7            ; to [35]
fail op	21
29D7  15808001           [28] concat     0   3   2  
29DB  1A000180           [29] jmp        5            ; to [35]
29DF  0EC20100           [30] gettable   8   0   7  
29E3  24C24204           [31] self       8   8   267  ; -1923578185
29E7  99020300           [32] loadk      10  12       ; "Start"
29EB  22428001           [33] call       8   3   1  
29EF  C300C201           [34] add        3   3   264  ; 0
29F3  1481FB7F           [35] forloop    4   -17      ; to [19] if loop
29F7  1E008000           [36] return     0   1      
                         * constants:
29FB  0D                 sizek (13)
29FC  04                 const type 4
29FD  08                 string size (8)
29FE  67526567696F6E00   "gRegion\0"
                         const [0]: "gRegion"
2A06  01                 const type 3
2A07  12066FA7           const [1]: (-1485896174)
2A0B  01                 const type 3
2A0C  1A4B27EC           const [2]: (-332969190)
2A10  04                 const type 4
2A11  0B                 string size (11)
2A12  44726F6E65537061+  "DroneSpa"
2A1A  776E00             "wn\0"
                         const [3]: "DroneSpawn"
2A1D  03                 const type 3
2A1E  0000F041           const [4]: (0)
2A22  03                 const type 3
2A23  00004040           const [5]: (0)
2A27  03                 const type 3
2A28  00000000           const [6]: (0)
2A2C  01                 const type 3
2A2D  65770E40           const [7]: (1074689893)
2A31  03                 const type 3
2A32  0000803F           const [8]: (0)
2A36  01                 const type 3
2A37  6F289FB0           const [9]: (-1331746705)
2A3B  01                 const type 3
2A3C  0125A76D           const [10]: (1839670529)
2A40  01                 const type 3
2A41  B786588D           const [11]: (-1923578185)
2A45  04                 const type 4
2A46  06                 string size (6)
2A47  537461727400       "Start\0"
                         const [12]: "Start"
                         * functions:
2A4D  00                 sizep (0)
                         * lines:
2A4E  24                 sizelineinfo (36)
                         [pc] (line)
2A4F  C9                 [01] (-55)
2A50  01                 [02] (-55)
2A51  00                 [03] (-55)
2A52  00                 [04] (-55)
2A53  C9                 [05] (-55)
2A54  01                 [06] (-55)
2A55  00                 [07] (-54)
2A56  00                 [08] (-53)
2A57  C9                 [09] (-52)
2A58  01                 [10] (-50)
2A59  00                 [11] (-50)
2A5A  00                 [12] (-50)
2A5B  C9                 [13] (-50)
2A5C  01                 [14] (-50)
2A5D  00                 [15] (-49)
2A5E  00                 [16] (-49)
2A5F  C9                 [17] (-49)
2A60  01                 [18] (-49)
2A61  00                 [19] (-48)
2A62  00                 [20] (-48)
2A63  C9                 [21] (-48)
2A64  01                 [22] (-48)
2A65  00                 [23] (-48)
2A66  00                 [24] (-48)
2A67  CA                 [25] (-48)
2A68  01                 [26] (-48)
2A69  00                 [27] (-48)
2A6A  00                 [28] (-48)
2A6B  CB                 [29] (-48)
2A6C  01                 [30] (-47)
2A6D  00                 [31] (-47)
2A6E  00                 [32] (-47)
2A6F  CC                 [33] (-47)
2A70  01                 [34] (-46)
2A71  00                 [35] (-49)
2A72  00                 [36] (-42)
                         * locals:
2ADF  00                 sizelocvars (0)
                         * upvalues:
2AE0  00                 sizeupvalues (0)
                         ** end of function **

                         
2AE1                     ** function [12] definition (level 2)
                         ** start of function **
2AE1  00                 string size (0)
                         source name: (none)
2AE3  03                 line defined (472)
2AE4  FA                 last line defined (506)
2AE5  03                 nups (0)
2AE6  00                 numparams (1)
2AE7  01                 is_vararg (0)
2AE8  00                 maxstacksize (28)
                         * code:
2AEA  61                 sizecode (97)
2AEB  5D000000           [01] getglobal  1   0        ; gRegion
2AEF  6440C000           [02] self       1   1   257  ; 1224466847
2AF3  62800001           [03] call       1   2   2  
2AF7  99800000           [04] loadk      2   2        ; 0
2AFB  D9C00000           [05] loadk      3   3        ; 0
2AFF  0A018000           [06] len        4   1      
2B03  59C10000           [07] loadk      5   3        ; 0
2B07  D0C00380           [08] forprep    3   16       ; to [25]
2B0B  DD010100           [09] getglobal  7   4        ; 1074689893
2B0F  0E828100           [10] gettable   8   1   6  
2B13  E2810001           [11] call       7   2   2  
2B17  D8410000           [12] test       7       1    ; to [14] if false
2B1B  1A800280           [13] jmp        11           ; to [25]
2B1F  CE818100           [14] gettable   7   1   6  
2B23  E441C103           [15] self       7   7   261  ; 188678183
2B27  E2810001           [16] call       7   2   2  
2B2B  D8010000           [17] test       7       0    ; to [19] if true
2B2F  1A400180           [18] jmp        6            ; to [25]
2B33  CE818100           [19] gettable   7   1   6  
2B37  1D820100           [20] getglobal  8   6        ; _T
2B3B  0EC24104           [21] gettable   8   8   263  ; "StalkerPlayer"
fail op	35
2B3F  63008203           [22] close      1  
2B43  1A000080           [23] jmp        1            ; to [25]
2B47  83C04001           [24] add        2   2   259  ; 0
2B4B  D480FB7F           [25] forloop    3   -17      ; to [9] if loop
2B4F  DD010000           [26] getglobal  7   0        ; gRegion
2B53  E401C203           [27] self       7   7   264  ; -2071158816
2B57  E2810001           [28] call       7   2   2  
2B5B  19820000           [29] loadk      8   2        ; 0
2B5F  59C20000           [30] loadk      9   3        ; 0
2B63  8A028003           [31] len        10  7      
2B67  D9C20000           [32] loadk      11  3        ; 0
2B6B  50C20380           [33] forprep    9   16       ; to [50]
2B6F  5D030100           [34] getglobal  13  4        ; 1074689893
2B73  8E038303           [35] gettable   14  7   12 
2B77  62830001           [36] call       13  2   2  
2B7B  58430000           [37] test       13      1    ; to [39] if false
2B7F  1A800280           [38] jmp        11           ; to [50]
2B83  4E038303           [39] gettable   13  7   12 
2B87  6443C206           [40] self       13  13  265  ; 1511086594
2B8B  62830001           [41] call       13  2   2  
2B8F  58430000           [42] test       13      1    ; to [44] if false
2B93  1A400180           [43] jmp        6            ; to [50]
2B97  4E038303           [44] gettable   13  7   12 
2B9B  9D830100           [45] getglobal  14  6        ; _T
2B9F  8E834207           [46] gettable   14  14  266  ; "StalkerPlayerAvatar"
fail op	35
2BA3  63808306           [47] close      1  
2BA7  1A000080           [48] jmp        1            ; to [50]
2BAB  03C24004           [49] add        8   8   259  ; 0
2BAF  5482FB7F           [50] forloop    9   -17      ; to [34] if loop
fail op	21
2BB3  15808081           [51] concat     0   259 2  
2BB7  1A800080           [52] jmp        3            ; to [56]
fail op	21
2BBB  15008281           [53] concat     0   259 8  
2BBF  1A000080           [54] jmp        1            ; to [56]
2BC3  1E008000           [55] return     0   1      
2BC7  5DC30200           [56] getglobal  13  11       ; LotusAssist
2BCB  6403C306           [57] self       13  13  268  ; -1923578185
2BCF  D9430300           [58] loadk      15  13       ; "Execute"
2BD3  62438001           [59] call       13  3   1  
2BD7  5D830300           [60] getglobal  13  14       ; portCount
2BDB  6403C306           [61] self       13  13  268  ; -1923578185
2BDF  D9C30300           [62] loadk      15  15       ; "Increment"
2BE3  62438001           [63] call       13  3   1  
2BE7  59C30000           [64] loadk      13  3        ; 0
2BEB  9D030400           [65] getglobal  14  16       ; doortriggers
2BEF  8A030007           [66] len        14  14     
2BF3  D9C30000           [67] loadk      15  3        ; 0
2BF7  50030180           [68] forprep    13  5        ; to [74]
2BFB  5D040400           [69] getglobal  17  16       ; doortriggers
2BFF  4E048408           [70] gettable   17  17  16 
2C03  6404C308           [71] self       17  17  268  ; -1923578185
2C07  D9440400           [72] loadk      19  17       ; "Disable"
2C0B  62448001           [73] call       17  3   1  
2C0F  5443FE7F           [74] forloop    13  -6       ; to [69] if loop
2C13  59C40000           [75] loadk      17  3        ; 0
2C17  9D840400           [76] getglobal  18  18       ; onDoorLights
2C1B  8A040009           [77] len        18  18     
2C1F  D9C40000           [78] loadk      19  3        ; 0
2C23  50040180           [79] forprep    17  5        ; to [85]
2C27  5D850400           [80] getglobal  21  18       ; onDoorLights
2C2B  4E05850A           [81] gettable   21  21  20 
2C2F  6405C30A           [82] self       21  21  268  ; -1923578185
2C33  D9C50400           [83] loadk      23  19       ; "TurnOn"
2C37  62458001           [84] call       21  3   1  
2C3B  5444FE7F           [85] forloop    17  -6       ; to [80] if loop
2C3F  59C50000           [86] loadk      21  3        ; 0
2C43  9D050500           [87] getglobal  22  20       ; offDoorLights
2C47  8A05000B           [88] len        22  22     
2C4B  D9C50000           [89] loadk      23  3        ; 0
2C4F  50050180           [90] forprep    21  5        ; to [96]
2C53  5D060500           [91] getglobal  25  20       ; offDoorLights
2C57  4E06860C           [92] gettable   25  25  24 
2C5B  6406C30C           [93] self       25  25  268  ; -1923578185
2C5F  D9460500           [94] loadk      27  21       ; "TurnOff"
2C63  62468001           [95] call       25  3   1  
2C67  5445FE7F           [96] forloop    21  -6       ; to [91] if loop
2C6B  1E008000           [97] return     0   1      
                         * constants:
2C6F  16                 sizek (22)
2C70  04                 const type 4
2C71  08                 string size (8)
2C72  67526567696F6E00   "gRegion\0"
                         const [0]: "gRegion"
2C7A  01                 const type 3
2C7B  9FE1FB48           const [1]: (1224466847)
2C7F  03                 const type 3
2C80  00000000           const [2]: (0)
2C84  03                 const type 3
2C85  0000803F           const [3]: (0)
2C89  01                 const type 3
2C8A  65770E40           const [4]: (1074689893)
2C8E  01                 const type 3
2C8F  27003F0B           const [5]: (188678183)
2C93  04                 const type 4
2C94  03                 string size (3)
2C95  5F5400             "_T\0"
                         const [6]: "_T"
2C98  04                 const type 4
2C99  0E                 string size (14)
2C9A  5374616C6B657250+  "StalkerP"
2CA2  6C6179657200       "layer\0"
                         const [7]: "StalkerPlayer"
2CA8  01                 const type 3
2CA9  E09F8C84           const [8]: (-2071158816)
2CAD  01                 const type 3
2CAE  025A115A           const [9]: (1511086594)
2CB2  04                 const type 4
2CB3  14                 string size (20)
2CB4  5374616C6B657250+  "StalkerP"
2CBC  6C61796572417661+  "layerAva"
2CC4  74617200           "tar\0"
                         const [10]: "StalkerPlayerAvatar"
2CC8  04                 const type 4
2CC9  0C                 string size (12)
2CCA  4C6F747573417373+  "LotusAss"
2CD2  69737400           "ist\0"
                         const [11]: "LotusAssist"
2CD6  01                 const type 3
2CD7  B786588D           const [12]: (-1923578185)
2CDB  04                 const type 4
2CDC  08                 string size (8)
2CDD  4578656375746500   "Execute\0"
                         const [13]: "Execute"
2CE5  04                 const type 4
2CE6  0A                 string size (10)
2CE7  706F7274436F756E+  "portCoun"
2CEF  7400               "t\0"
                         const [14]: "portCount"
2CF1  04                 const type 4
2CF2  0A                 string size (10)
2CF3  496E6372656D656E+  "Incremen"
2CFB  7400               "t\0"
                         const [15]: "Increment"
2CFD  04                 const type 4
2CFE  0D                 string size (13)
2CFF  646F6F7274726967+  "doortrig"
2D07  6765727300         "gers\0"
                         const [16]: "doortriggers"
2D0C  04                 const type 4
2D0D  08                 string size (8)
2D0E  44697361626C6500   "Disable\0"
                         const [17]: "Disable"
2D16  04                 const type 4
2D17  0D                 string size (13)
2D18  6F6E446F6F724C69+  "onDoorLi"
2D20  6768747300         "ghts\0"
                         const [18]: "onDoorLights"
2D25  04                 const type 4
2D26  07                 string size (7)
2D27  5475726E4F6E00     "TurnOn\0"
                         const [19]: "TurnOn"
2D2E  04                 const type 4
2D2F  0E                 string size (14)
2D30  6F6666446F6F724C+  "offDoorL"
2D38  696768747300       "ights\0"
                         const [20]: "offDoorLights"
2D3E  04                 const type 4
2D3F  08                 string size (8)
2D40  5475726E4F666600   "TurnOff\0"
                         const [21]: "TurnOff"
                         * functions:
2D48  00                 sizep (0)
                         * lines:
2D49  61                 sizelineinfo (97)
                         [pc] (line)
2D4A  DA                 [01] (-38)
2D4B  01                 [02] (-38)
2D4C  00                 [03] (-38)
2D4D  00                 [04] (-37)
2D4E  DA                 [05] (-36)
2D4F  01                 [06] (-36)
2D50  00                 [07] (-36)
2D51  00                 [08] (-36)
2D52  DA                 [09] (-35)
2D53  01                 [10] (-35)
2D54  00                 [11] (-35)
2D55  00                 [12] (-35)
2D56  DB                 [13] (-35)
2D57  01                 [14] (-35)
2D58  00                 [15] (-35)
2D59  00                 [16] (-35)
2D5A  DC                 [17] (-35)
2D5B  01                 [18] (-35)
2D5C  00                 [19] (-35)
2D5D  00                 [20] (-35)
2D5E  DC                 [21] (-35)
2D5F  01                 [22] (-35)
2D60  00                 [23] (-35)
2D61  00                 [24] (-34)
2D62  DC                 [25] (-36)
2D63  01                 [26] (-30)
2D64  00                 [27] (-30)
2D65  00                 [28] (-30)
2D66  DC                 [29] (-29)
2D67  01                 [30] (-27)
2D68  00                 [31] (-27)
2D69  00                 [32] (-27)
2D6A  DD                 [33] (-27)
2D6B  01                 [34] (-26)
2D6C  00                 [35] (-26)
2D6D  00                 [36] (-26)
2D6E  DD                 [37] (-26)
2D6F  01                 [38] (-26)
2D70  00                 [39] (-26)
2D71  00                 [40] (-26)
2D72  DD                 [41] (-26)
2D73  01                 [42] (-26)
2D74  00                 [43] (-26)
2D75  00                 [44] (-26)
2D76  DD                 [45] (-26)
2D77  01                 [46] (-26)
2D78  00                 [47] (-26)
2D79  00                 [48] (-26)
2D7A  DD                 [49] (-25)
2D7B  01                 [50] (-27)
2D7C  00                 [51] (-21)
2D7D  00                 [52] (-21)
2D7E  DD                 [53] (-21)
2D7F  01                 [54] (-21)
2D80  00                 [55] (-20)
2D81  00                 [56] (-17)
2D82  DD                 [57] (-17)
2D83  01                 [58] (-17)
2D84  00                 [59] (-17)
2D85  00                 [60] (-16)
2D86  DD                 [61] (-16)
2D87  01                 [62] (-16)
2D88  00                 [63] (-16)
2D89  00                 [64] (-15)
2D8A  DD                 [65] (-15)
2D8B  01                 [66] (-15)
2D8C  00                 [67] (-15)
2D8D  00                 [68] (-15)
2D8E  DD                 [69] (-14)
2D8F  01                 [70] (-14)
2D90  00                 [71] (-14)
2D91  00                 [72] (-14)
2D92  DD                 [73] (-14)
2D93  01                 [74] (-15)
2D94  00                 [75] (-12)
2D95  00                 [76] (-12)
2D96  DD                 [77] (-12)
2D97  01                 [78] (-12)
2D98  00                 [79] (-12)
2D99  00                 [80] (-11)
2D9A  DD                 [81] (-11)
2D9B  01                 [82] (-11)
2D9C  00                 [83] (-11)
2D9D  00                 [84] (-11)
2D9E  DD                 [85] (-12)
2D9F  01                 [86] (-9)
2DA0  00                 [87] (-9)
2DA1  00                 [88] (-9)
2DA2  DD                 [89] (-9)
2DA3  01                 [90] (-9)
2DA4  00                 [91] (-8)
2DA5  00                 [92] (-8)
2DA6  DE                 [93] (-8)
2DA7  01                 [94] (-8)
2DA8  00                 [95] (-8)
2DA9  00                 [96] (-9)
2DAA  DC                 [97] (-6)
                         * locals:
2ECE  00                 sizelocvars (0)
                         * upvalues:
2ECF  00                 sizeupvalues (0)
                         ** end of function **

                         
2ED0                     ** function [13] definition (level 2)
                         ** start of function **
2ED0  00                 string size (0)
                         source name: (none)
2ED2  03                 line defined (509)
2ED3  98                 last line defined (536)
2ED4  04                 nups (3)
2ED5  03                 numparams (2)
2ED6  02                 is_vararg (0)
2ED7  00                 maxstacksize (10)
                         * code:
2ED9  39                 sizecode (57)
2EDA  92008000           [01] move       2   1      
2EDE  E4004001           [02] self       3   2   256  ; -1421644046
2EE2  5D410000           [03] getglobal  5   1        ; threatProjector
2EE6  9D810000           [04] getglobal  6   2        ; EMPTY_SYMBOL
2EEA  E4C14001           [05] self       7   2   259  ; 1839670529
2EEE  E2810001           [06] call       7   2   2  
2EF2  24024101           [07] self       8   2   260  ; -231049143
2EF6  22020001           [08] call       8   2   0  
2EFA  E2400000           [09] call       3   0   1  
2EFE  E4404101           [10] self       3   2   261  ; 155743781
2F02  59810100           [11] loadk      5   6        ; 0
2F06  E2408001           [12] call       3   3   1  
2F0A  DDC00100           [13] getglobal  3   7        ; gRegion
2F0E  E400C201           [14] self       3   3   264  ; -774964848
2F12  E2800001           [15] call       3   2   2  
2F16  2441C201           [16] self       4   3   265  ; 537471347
2F1A  22810001           [17] call       4   2   2  
2F1E  5D810200           [18] getglobal  5   10       ; gGameRules
2F22  64C1C202           [19] self       5   5   267  ; -803877924
2F26  D3010000           [20] getupval   7   0      
2F2A  19820100           [21] loadk      8   6        ; 0
2F2E  62410002           [22] call       5   4   1  
2F32  5DC10100           [23] getglobal  5   7        ; gRegion
2F36  6401C302           [24] self       5   5   268  ; -1520831144
2F3A  62810001           [25] call       5   2   2  
2F3E  58410000           [26] test       5       1    ; to [28] if false
2F42  1A000080           [27] jmp        1            ; to [29]
2F46  1E008000           [28] return     0   1      
2F4A  53018000           [29] getupval   5   1      
2F4E  9D410300           [30] getglobal  6   13       ; optionalObjective
2F52  62810001           [31] call       5   2   2  
fail op	35
2F56  2380C302           [32] close      0  
2F5A  1A800580           [33] jmp        23           ; to [57]
2F5E  93010001           [34] getupval   6   2      
2F62  8EC14303           [35] gettable   6   6   271  ; 198248041
2F66  A2818000           [36] call       6   1   2  
2F6A  DD010400           [37] getglobal  7   16       ; 1074689893
2F6E  12020002           [38] move       8   4      
2F72  E2810001           [39] call       7   2   2  
2F76  D8410000           [40] test       7       1    ; to [42] if false
2F7A  1AC00280           [41] jmp        12           ; to [54]
2F7E  DD810200           [42] getglobal  7   10       ; gGameRules
2F82  E441C403           [43] self       7   7   273  ; 2051260977
2F86  57028000           [44] loadbool   9   1   0    ; true
2F8A  E2418001           [45] call       7   3   1  
2F8E  DD010400           [46] getglobal  7   16       ; 1074689893
2F92  12020003           [47] move       8   6      
2F96  E2810001           [48] call       7   2   2  
2F9A  D8410000           [49] test       7       1    ; to [51] if false
2F9E  1A800080           [50] jmp        3            ; to [54]
2FA2  E4814402           [51] self       7   4   274  ; -906150570
2FA6  52020003           [52] move       9   6      
2FAA  E2418001           [53] call       7   3   1  
2FAE  DDC10400           [54] getglobal  7   19       ; completeObjScript
2FB2  E401C503           [55] self       7   7   276  ; -636985499
2FB6  E2410001           [56] call       7   2   1  
2FBA  1E008000           [57] return     0   1      
                         * constants:
2FBE  15                 sizek (21)
2FBF  01                 const type 3
2FC0  F26E43AB           const [0]: (-1421644046)
2FC4  04                 const type 4
2FC5  10                 string size (16)
2FC6  7468726561745072+  "threatPr"
2FCE  6F6A6563746F7200   "ojector\0"
                         const [1]: "threatProjector"
2FD6  04                 const type 4
2FD7  0D                 string size (13)
2FD8  454D5054595F5359+  "EMPTY_SY"
2FE0  4D424F4C00         "MBOL\0"
                         const [2]: "EMPTY_SYMBOL"
2FE5  01                 const type 3
2FE6  0125A76D           const [3]: (1839670529)
2FEA  01                 const type 3
2FEB  49783AF2           const [4]: (-231049143)
2FEF  01                 const type 3
2FF0  25764809           const [5]: (155743781)
2FF4  03                 const type 3
2FF5  0000803F           const [6]: (0)
2FF9  04                 const type 4
2FFA  08                 string size (8)
2FFB  67526567696F6E00   "gRegion\0"
                         const [7]: "gRegion"
3003  01                 const type 3
3004  90F9CED1           const [8]: (-774964848)
3008  01                 const type 3
3009  73290920           const [9]: (537471347)
300D  04                 const type 4
300E  0B                 string size (11)
300F  6747616D6552756C+  "gGameRul"
3017  657300             "es\0"
                         const [10]: "gGameRules"
301A  01                 const type 3
301B  DCCB15D0           const [11]: (-803877924)
301F  01                 const type 3
3020  58F559A5           const [12]: (-1520831144)
3024  04                 const type 4
3025  12                 string size (18)
3026  6F7074696F6E616C+  "optional"
302E  4F626A6563746976+  "Objectiv"
3036  6500               "e\0"
                         const [13]: "optionalObjective"
3038  01                 const type 3
3039  00000000           const [14]: (0)
303D  01                 const type 3
303E  6906D10B           const [15]: (198248041)
3042  01                 const type 3
3043  65770E40           const [16]: (1074689893)
3047  01                 const type 3
3048  31C2437A           const [17]: (2051260977)
304C  01                 const type 3
304D  563DFDC9           const [18]: (-906150570)
3051  04                 const type 4
3052  12                 string size (18)
3053  636F6D706C657465+  "complete"
305B  4F626A5363726970+  "ObjScrip"
3063  7400               "t\0"
                         const [19]: "completeObjScript"
3065  01                 const type 3
3066  655F08DA           const [20]: (-636985499)
                         * functions:
306A  00                 sizep (0)
                         * lines:
306B  39                 sizelineinfo (57)
                         [pc] (line)
306C  FF                 [01] (-1)
306D  01                 [02] (0)
306E  00                 [03] (0)
306F  00                 [04] (0)
3070  00                 [05] (0)
3071  02                 [06] (0)
3072  00                 [07] (0)
3073  00                 [08] (0)
3074  00                 [09] (0)
3075  02                 [10] (1)
3076  00                 [11] (1)
3077  00                 [12] (1)
3078  00                 [13] (2)
3079  02                 [14] (2)
307A  00                 [15] (2)
307B  00                 [16] (3)
307C  00                 [17] (3)
307D  02                 [18] (5)
307E  00                 [19] (5)
307F  00                 [20] (5)
3080  00                 [21] (5)
3081  02                 [22] (5)
3082  00                 [23] (7)
3083  00                 [24] (7)
3084  00                 [25] (7)
3085  02                 [26] (7)
3086  00                 [27] (7)
3087  00                 [28] (8)
3088  00                 [29] (11)
3089  02                 [30] (11)
308A  00                 [31] (11)
308B  00                 [32] (13)
308C  00                 [33] (13)
308D  02                 [34] (14)
308E  00                 [35] (14)
308F  00                 [36] (14)
3090  01                 [37] (15)
3091  02                 [38] (15)
3092  00                 [39] (15)
3093  00                 [40] (15)
3094  01                 [41] (15)
3095  02                 [42] (16)
3096  00                 [43] (16)
3097  00                 [44] (16)
3098  01                 [45] (16)
3099  02                 [46] (17)
309A  00                 [47] (17)
309B  00                 [48] (17)
309C  02                 [49] (17)
309D  02                 [50] (17)
309E  00                 [51] (18)
309F  00                 [52] (18)
30A0  02                 [53] (18)
30A1  02                 [54] (21)
30A2  00                 [55] (21)
30A3  00                 [56] (21)
30A4  02                 [57] (24)
                         * locals:
3150  00                 sizelocvars (0)
                         * upvalues:
3151  00                 sizeupvalues (0)
                         ** end of function **

                         
3152                     ** function [14] definition (level 2)
                         ** start of function **
3152  00                 string size (0)
                         source name: (none)
3154  04                 line defined (538)
3155  E6                 last line defined (614)
3156  04                 nups (4)
3157  04                 numparams (0)
3158  00                 is_vararg (0)
3159  00                 maxstacksize (21)
                         * code:
315C  01                 sizecode (241)
315D  1D000000           [001] getglobal  0   0        ; -332969190
3161  59400000           [002] loadk      1   1        ; "NAV_MODULE_STEALER"
3165  22800001           [003] call       0   2   2  
3169  5D800000           [004] getglobal  1   2        ; gRegion
316D  64C0C000           [005] self       1   1   259  ; -774964848
3171  62800001           [006] call       1   2   2  
3175  A400C100           [007] self       2   1   260  ; 537471347
3179  A2800001           [008] call       2   2   2  
317D  DD400100           [009] getglobal  3   5        ; gGameRules
3181  E480C101           [010] self       3   3   262  ; -803877924
3185  53010000           [011] getupval   5   0      
3189  99C10100           [012] loadk      6   7        ; 0
318D  E2400002           [013] call       3   4   1  
3191  DD800000           [014] getglobal  3   2        ; gRegion
3195  E400C201           [015] self       3   3   264  ; -1520831144
3199  E2800001           [016] call       3   2   2  
319D  D8000000           [017] test       3       0    ; to [19] if true
31A1  1AC00780           [018] jmp        32           ; to [51]
31A5  D3008000           [019] getupval   3   1      
31A9  CE40C201           [020] gettable   3   3   265  ; -78033590
31AD  1D810200           [021] getglobal  4   10       ; _T
31B1  0EC14202           [022] gettable   4   4   267  ; "MissionTransmissionSet"
31B5  5D010000           [023] getglobal  5   0        ; -332969190
31B9  99010300           [024] loadk      6   12       ; "GotNavSegment"
31BD  62810001           [025] call       5   2   2  
31C1  99410300           [026] loadk      6   13       ; 0
31C5  E2400002           [027] call       3   4   1  
31C9  D3000001           [028] getupval   3   2      
31CD  CE80C301           [029] gettable   3   3   270  ; 198248041
31D1  E2808000           [030] call       3   1   2  
31D5  1DC10300           [031] getglobal  4   15       ; 1074689893
31D9  52010001           [032] move       5   2      
31DD  22810001           [033] call       4   2   2  
31E1  18410000           [034] test       4       1    ; to [36] if false
31E5  1AC00280           [035] jmp        12           ; to [48]
31E9  1D410100           [036] getglobal  4   5        ; gGameRules
31ED  24014402           [037] self       4   4   272  ; 2051260977
31F1  97018000           [038] loadbool   6   1   0    ; true
31F5  22418001           [039] call       4   3   1  
31F9  1DC10300           [040] getglobal  4   15       ; 1074689893
31FD  52018001           [041] move       5   3      
3201  22810001           [042] call       4   2   2  
3205  18410000           [043] test       4       1    ; to [45] if false
3209  1A800080           [044] jmp        3            ; to [48]
320D  24414401           [045] self       4   2   273  ; -906150570
3211  92018001           [046] move       6   3      
3215  22418001           [047] call       4   3   1  
3219  1D810400           [048] getglobal  4   18       ; completeObjScript
321D  24C14402           [049] self       4   4   275  ; -636985499
3221  22410001           [050] call       4   2   1  
3225  1D010500           [051] getglobal  4   20       ; 538022378
3229  59410500           [052] loadk      5   21       ; 0
322D  22410001           [053] call       4   2   1  
3231  1D810000           [054] getglobal  4   2        ; gRegion
3235  24814502           [055] self       4   4   278  ; 65205951
3239  22810001           [056] call       4   2   2  
323D  46018002           [057] loadnil    5   5      
3241  9D810000           [058] getglobal  6   2        ; gRegion
3245  A4014203           [059] self       6   6   264  ; -1520831144
3249  A2810001           [060] call       6   2   2  
324D  98010000           [061] test       6       0    ; to [63] if true
3251  1A400A80           [062] jmp        42           ; to [105]
3255  A4C14501           [063] self       6   2   279  ; 97782279
3259  17020000           [064] loadbool   8   0   0    ; false
325D  A2418001           [065] call       6   3   1  
3261  9D810000           [066] getglobal  6   2        ; gRegion
3265  A4014603           [067] self       6   6   280  ; 152279552
3269  1D420600           [068] getglobal  8   25       ; lotusNpcAvatarType
326D  64824602           [069] self       9   4   282  ; 1839670529
3271  62820001           [070] call       9   2   2  
3275  99420300           [071] loadk      10  13       ; 0
3279  DDC20600           [072] getglobal  11  27       ; FLT_MAX
327D  A2810003           [073] call       6   6   2  
3281  52010003           [074] move       5   6      
3285  9DC10300           [075] getglobal  6   15       ; 1074689893
3289  D2018002           [076] move       7   5      
328D  A2810001           [077] call       6   2   2  
3291  98410000           [078] test       6       1    ; to [80] if false
3295  1A000680           [079] jmp        25           ; to [105]
3299  8A018002           [080] len        6   5      
fail op	21
329D  15808186           [081] concat     0   269 6  
32A1  1A400580           [082] jmp        22           ; to [105]
32A5  9D010700           [083] getglobal  6   28       ; 1672515847
32A9  D2018002           [084] move       7   5      
32AD  A2010101           [085] call       6   2   4  
32B1  1AC00380           [086] jmp        16           ; to [103]
32B5  DDC20300           [087] getglobal  11  15       ; 1074689893
32B9  12030005           [088] move       12  10     
32BD  E2820001           [089] call       11  2   2  
32C1  D8420000           [090] test       11      1    ; to [92] if false
32C5  1A800280           [091] jmp        11           ; to [103]
32C9  DD820000           [092] getglobal  11  2        ; gRegion
32CD  E402C205           [093] self       11  11  264  ; -1520831144
32D1  E2820001           [094] call       11  2   2  
32D5  D8020000           [095] test       11      0    ; to [97] if true
32D9  1A400180           [096] jmp        6            ; to [103]
32DD  E4424705           [097] self       11  10  285  ; -1411785325
32E1  E2820001           [098] call       11  2   2  
32E5  E482C705           [099] self       11  11  286  ; 1038470555
32E9  57038000           [100] loadbool   13  1   0    ; true
32ED  92030000           [101] move       14  0      
32F1  E2420002           [102] call       11  4   1  
32F5  96810000           [103] tforloop   6       2    ; to [105] if exit
32F9  1A40FB7F           [104] jmp        -18          ; to [87]
32FD  E4C24702           [105] self       11  4   287  ; -1421644046
3301  5D030800           [106] getglobal  13  32       ; MindOuchEffect
3305  9D430800           [107] getglobal  14  33       ; EMPTY_SYMBOL
3309  E2420002           [108] call       11  4   1  
330D  DDC20300           [109] getglobal  11  15       ; 1074689893
3311  12030002           [110] move       12  4      
3315  E2820001           [111] call       11  2   2  
3319  D8420000           [112] test       11      1    ; to [114] if false
331D  1A800880           [113] jmp        35           ; to [149]
3321  E4824802           [114] self       11  4   290  ; -2037488534
3325  5DC30800           [115] getglobal  13  35       ; startSickAnim
3329  97038000           [116] loadbool   14  1   0    ; true
332D  DD030900           [117] getglobal  15  36       ; Engine
3331  CE43C907           [118] gettable   15  15  293  ; "ATMM_ANIMATION_DRIVEN"
3335  1D040900           [119] getglobal  16  36       ; Engine
3339  0E844908           [120] gettable   16  16  294  ; "PRT_ONCE"
333D  57048000           [121] loadbool   17  1   0    ; true
3341  E2428003           [122] call       11  7   1  
3345  E4824802           [123] self       11  4   290  ; -2037488534
3349  5DC30900           [124] getglobal  13  39       ; sickAnim
334D  97030000           [125] loadbool   14  0   0    ; false
3351  DD030900           [126] getglobal  15  36       ; Engine
3355  CE43C907           [127] gettable   15  15  293  ; "ATMM_ANIMATION_DRIVEN"
3359  1D040900           [128] getglobal  16  36       ; Engine
335D  0E044A08           [129] gettable   16  16  296  ; "PRT_LOOP"
3361  57048000           [130] loadbool   17  1   0    ; true
3365  E2428003           [131] call       11  7   1  
3369  E4C24702           [132] self       11  4   287  ; -1421644046
336D  5D430A00           [133] getglobal  13  41       ; threatProjector
3371  9D430800           [134] getglobal  14  33       ; EMPTY_SYMBOL
3375  E4834602           [135] self       15  4   282  ; 1839670529
3379  E2830001           [136] call       15  2   2  
337D  24844A02           [137] self       16  4   298  ; -231049143
3381  22040001           [138] call       16  2   0  
3385  E2420000           [139] call       11  0   1  
3389  E4C24A02           [140] self       11  4   299  ; -1917464545
338D  E2820001           [141] call       11  2   2  
3391  E402CB05           [142] self       11  11  300  ; 991629753
3395  5D430B00           [143] getglobal  13  45       ; Game
3399  4E83CB06           [144] gettable   13  13  302  ; "AVATAR_SHIELD_MAX"
339D  9D430B00           [145] getglobal  14  45       ; Game
33A1  8EC34B07           [146] gettable   14  14  303  ; "MULTIPLY"
33A5  D9030C00           [147] loadk      15  48       ; 0
33A9  E2428002           [148] call       11  5   1  
33AD  DDC20300           [149] getglobal  11  15       ; 1074689893
33B1  12030002           [150] move       12  4      
33B5  E2820001           [151] call       11  2   2  
33B9  D8420000           [152] test       11      1    ; to [154] if false
33BD  1A000280           [153] jmp        9            ; to [163]
33C1  E4824802           [154] self       11  4   290  ; -2037488534
33C5  5D430C00           [155] getglobal  13  49       ; endSickAnim
33C9  97038000           [156] loadbool   14  1   0    ; true
33CD  DD030900           [157] getglobal  15  36       ; Engine
33D1  CE43C907           [158] gettable   15  15  293  ; "ATMM_ANIMATION_DRIVEN"
33D5  1D040900           [159] getglobal  16  36       ; Engine
33D9  0E844908           [160] gettable   16  16  294  ; "PRT_ONCE"
33DD  57048000           [161] loadbool   17  1   0    ; true
33E1  E2428003           [162] call       11  7   1  
33E5  DD820000           [163] getglobal  11  2        ; gRegion
33E9  E402C205           [164] self       11  11  264  ; -1520831144
33ED  E2820001           [165] call       11  2   2  
33F1  D8020000           [166] test       11      0    ; to [168] if true
33F5  1A400A80           [167] jmp        42           ; to [210]
33F9  D3028000           [168] getupval   11  1      
33FD  CE42C205           [169] gettable   11  11  265  ; -78033590
3401  1D830200           [170] getglobal  12  10       ; _T
3405  0EC34206           [171] gettable   12  12  267  ; "MissionTransmissionSet"
3409  5D030000           [172] getglobal  13  0        ; -332969190
340D  99830C00           [173] loadk      14  50       ; "VorTaunt"
3411  62830001           [174] call       13  2   2  
3415  99430300           [175] loadk      14  13       ; 0
3419  E2420002           [176] call       11  4   1  
341D  E4C24501           [177] self       11  2   279  ; 97782279
3421  57038000           [178] loadbool   13  1   0    ; true
3425  E2428001           [179] call       11  3   1  
3429  DDC20300           [180] getglobal  11  15       ; 1074689893
342D  12038002           [181] move       12  5      
3431  E2820001           [182] call       11  2   2  
3435  D8420000           [183] test       11      1    ; to [185] if false
3439  1A000680           [184] jmp        25           ; to [210]
343D  CA028002           [185] len        11  5      
fail op	21
3441  15C08286           [186] concat     0   269 11 
3445  1A400580           [187] jmp        22           ; to [210]
3449  DD020700           [188] getglobal  11  28       ; 1672515847
344D  12038002           [189] move       12  5      
3451  E2020101           [190] call       11  2   4  
3455  1AC00380           [191] jmp        16           ; to [208]
3459  1DC40300           [192] getglobal  16  15       ; 1074689893
345D  52048007           [193] move       17  15     
3461  22840001           [194] call       16  2   2  
3465  18440000           [195] test       16      1    ; to [197] if false
3469  1A800280           [196] jmp        11           ; to [208]
346D  1D840000           [197] getglobal  16  2        ; gRegion
3471  24044208           [198] self       16  16  264  ; -1520831144
3475  22840001           [199] call       16  2   2  
3479  18040000           [200] test       16      0    ; to [202] if true
347D  1A400180           [201] jmp        6            ; to [208]
3481  2444C707           [202] self       16  15  285  ; -1411785325
3485  22840001           [203] call       16  2   2  
3489  24844708           [204] self       16  16  286  ; 1038470555
348D  97040000           [205] loadbool   18  0   0    ; false
3491  D2040000           [206] move       19  0      
3495  22440002           [207] call       16  4   1  
3499  D6820000           [208] tforloop   11      2    ; to [210] if exit
349D  1A40FB7F           [209] jmp        -18          ; to [192]
34A1  1D840200           [210] getglobal  16  10       ; _T
34A5  5D040D00           [211] getglobal  17  52       ; objOneCompleteVo
34A9  0C448499           [212] settable   16  307 17   ; "EndOfMissionVoiceOverride"
34AD  1D440100           [213] getglobal  16  5        ; gGameRules
34B1  24444D08           [214] self       16  16  309  ; -317790213
34B5  9D040000           [215] getglobal  18  0        ; -332969190
34B9  D9840D00           [216] loadk      19  54       ; "ActiveElementalLayerId"
34BD  A2040001           [217] call       18  2   0  
34C1  22840000           [218] call       16  0   2  
fail op	33
34C5  21008483           [219] tforloop   0       16   ; to [221] if exit
34C9  1AC00380           [220] jmp        16           ; to [237]
34CD  1D840200           [221] getglobal  16  10       ; _T
34D1  5DC40D00           [222] getglobal  17  55       ; objTwoCompleteVo
34D5  0C448499           [223] settable   16  307 17   ; "EndOfMissionVoiceOverride"
34D9  1DC40300           [224] getglobal  16  15       ; 1074689893
34DD  52040002           [225] move       17  4      
34E1  22840001           [226] call       16  2   2  
34E5  18440000           [227] test       16      1    ; to [229] if false
34E9  1A800180           [228] jmp        7            ; to [236]
34ED  24C44A02           [229] self       16  4   299  ; -1917464545
34F1  22840001           [230] call       16  2   2  
34F5  24044E08           [231] self       16  16  312  ; -140890631
34F9  99440E00           [232] loadk      18  57       ; 0
34FD  D2040002           [233] move       19  4      
3501  13058001           [234] getupval   20  3      
3505  22448002           [235] call       16  5   1  
3509  1E008000           [236] return     0   1      
350D  1D040500           [237] getglobal  16  20       ; 538022378
3511  59C40100           [238] loadk      17  7        ; 0
3515  22440001           [239] call       16  2   1  
3519  1AC0F87F           [240] jmp        -28          ; to [213]
351D  1E008000           [241] return     0   1      
                         * constants:
3521  3A                 sizek (58)
3522  01                 const type 3
3523  1A4B27EC           const [0]: (-332969190)
3527  04                 const type 4
3528  13                 string size (19)
3529  4E41565F4D4F4455+  "NAV_MODU"
3531  4C455F535445414C+  "LE_STEAL"
3539  455200             "ER\0"
                         const [1]: "NAV_MODULE_STEALER"
353C  04                 const type 4
353D  08                 string size (8)
353E  67526567696F6E00   "gRegion\0"
                         const [2]: "gRegion"
3546  01                 const type 3
3547  90F9CED1           const [3]: (-774964848)
354B  01                 const type 3
354C  73290920           const [4]: (537471347)
3550  04                 const type 4
3551  0B                 string size (11)
3552  6747616D6552756C+  "gGameRul"
355A  657300             "es\0"
                         const [5]: "gGameRules"
355D  01                 const type 3
355E  DCCB15D0           const [6]: (-803877924)
3562  03                 const type 3
3563  0000803F           const [7]: (0)
3567  01                 const type 3
3568  58F559A5           const [8]: (-1520831144)
356C  01                 const type 3
356D  4A4D59FB           const [9]: (-78033590)
3571  04                 const type 4
3572  03                 string size (3)
3573  5F5400             "_T\0"
                         const [10]: "_T"
3576  04                 const type 4
3577  17                 string size (23)
3578  4D697373696F6E54+  "MissionT"
3580  72616E736D697373+  "ransmiss"
3588  696F6E53657400     "ionSet\0"
                         const [11]: "MissionTransmissionSet"
358F  04                 const type 4
3590  0E                 string size (14)
3591  476F744E61765365+  "GotNavSe"
3599  676D656E7400       "gment\0"
                         const [12]: "GotNavSegment"
359F  03                 const type 3
35A0  00000000           const [13]: (0)
35A4  01                 const type 3
35A5  6906D10B           const [14]: (198248041)
35A9  01                 const type 3
35AA  65770E40           const [15]: (1074689893)
35AE  01                 const type 3
35AF  31C2437A           const [16]: (2051260977)
35B3  01                 const type 3
35B4  563DFDC9           const [17]: (-906150570)
35B8  04                 const type 4
35B9  12                 string size (18)
35BA  636F6D706C657465+  "complete"
35C2  4F626A5363726970+  "ObjScrip"
35CA  7400               "t\0"
                         const [18]: "completeObjScript"
35CC  01                 const type 3
35CD  655F08DA           const [19]: (-636985499)
35D1  01                 const type 3
35D2  EA911120           const [20]: (538022378)
35D6  03                 const type 3
35D7  0000C841           const [21]: (0)
35DB  01                 const type 3
35DC  BFF6E203           const [22]: (65205951)
35E0  01                 const type 3
35E1  070AD405           const [23]: (97782279)
35E5  01                 const type 3
35E6  009A1309           const [24]: (152279552)
35EA  04                 const type 4
35EB  13                 string size (19)
35EC  6C6F7475734E7063+  "lotusNpc"
35F4  4176617461725479+  "AvatarTy"
35FC  706500             "pe\0"
                         const [25]: "lotusNpcAvatarType"
35FF  01                 const type 3
3600  0125A76D           const [26]: (1839670529)
3604  04                 const type 4
3605  08                 string size (8)
3606  464C545F4D415800   "FLT_MAX\0"
                         const [27]: "FLT_MAX"
360E  01                 const type 3
360F  0791B063           const [28]: (1672515847)
3613  01                 const type 3
3614  93DDD9AB           const [29]: (-1411785325)
3618  01                 const type 3
3619  9BCDE53D           const [30]: (1038470555)
361D  01                 const type 3
361E  F26E43AB           const [31]: (-1421644046)
3622  04                 const type 4
3623  0F                 string size (15)
3624  4D696E644F756368+  "MindOuch"
362C  45666665637400     "Effect\0"
                         const [32]: "MindOuchEffect"
3633  04                 const type 4
3634  0D                 string size (13)
3635  454D5054595F5359+  "EMPTY_SY"
363D  4D424F4C00         "MBOL\0"
                         const [33]: "EMPTY_SYMBOL"
3642  01                 const type 3
3643  6A648E86           const [34]: (-2037488534)
3647  04                 const type 4
3648  0E                 string size (14)
3649  7374617274536963+  "startSic"
3651  6B416E696D00       "kAnim\0"
                         const [35]: "startSickAnim"
3657  04                 const type 4
3658  07                 string size (7)
3659  456E67696E6500     "Engine\0"
                         const [36]: "Engine"
3660  04                 const type 4
3661  16                 string size (22)
3662  41544D4D5F414E49+  "ATMM_ANI"
366A  4D4154494F4E5F44+  "MATION_D"
3672  524956454E00       "RIVEN\0"
                         const [37]: "ATMM_ANIMATION_DRIVEN"
3678  04                 const type 4
3679  09                 string size (9)
367A  5052545F4F4E4345+  "PRT_ONCE"
3682  00                 "\0"
                         const [38]: "PRT_ONCE"
3683  04                 const type 4
3684  09                 string size (9)
3685  7369636B416E696D+  "sickAnim"
368D  00                 "\0"
                         const [39]: "sickAnim"
368E  04                 const type 4
368F  09                 string size (9)
3690  5052545F4C4F4F50+  "PRT_LOOP"
3698  00                 "\0"
                         const [40]: "PRT_LOOP"
3699  04                 const type 4
369A  10                 string size (16)
369B  7468726561745072+  "threatPr"
36A3  6F6A6563746F7200   "ojector\0"
                         const [41]: "threatProjector"
36AB  01                 const type 3
36AC  49783AF2           const [42]: (-231049143)
36B0  01                 const type 3
36B1  1FD0B58D           const [43]: (-1917464545)
36B5  01                 const type 3
36B6  B9111B3B           const [44]: (991629753)
36BA  04                 const type 4
36BB  05                 string size (5)
36BC  47616D6500         "Game\0"
                         const [45]: "Game"
36C1  04                 const type 4
36C2  12                 string size (18)
36C3  4156415441525F53+  "AVATAR_S"
36CB  4849454C445F4D41+  "HIELD_MA"
36D3  5800               "X\0"
                         const [46]: "AVATAR_SHIELD_MAX"
36D5  04                 const type 4
36D6  09                 string size (9)
36D7  4D554C5449504C59+  "MULTIPLY"
36DF  00                 "\0"
                         const [47]: "MULTIPLY"
36E0  03                 const type 3
36E1  0000003F           const [48]: (0)
36E5  04                 const type 4
36E6  0C                 string size (12)
36E7  656E645369636B41+  "endSickA"
36EF  6E696D00           "nim\0"
                         const [49]: "endSickAnim"
36F3  04                 const type 4
36F4  09                 string size (9)
36F5  566F725461756E74+  "VorTaunt"
36FD  00                 "\0"
                         const [50]: "VorTaunt"
36FE  04                 const type 4
36FF  1A                 string size (26)
3700  456E644F664D6973+  "EndOfMis"
3708  73696F6E566F6963+  "sionVoic"
3710  654F766572726964+  "eOverrid"
3718  6500               "e\0"
                         const [51]: "EndOfMissionVoiceOverride"
371A  04                 const type 4
371B  11                 string size (17)
371C  6F626A4F6E65436F+  "objOneCo"
3724  6D706C657465566F+  "mpleteVo"
372C  00                 "\0"
                         const [52]: "objOneCompleteVo"
372D  01                 const type 3
372E  FBE70EED           const [53]: (-317790213)
3732  04                 const type 4
3733  17                 string size (23)
3734  416374697665456C+  "ActiveEl"
373C  656D656E74616C4C+  "ementalL"
3744  61796572496400     "ayerId\0"
                         const [54]: "ActiveElementalLayerId"
374B  04                 const type 4
374C  11                 string size (17)
374D  6F626A54776F436F+  "objTwoCo"
3755  6D706C657465566F+  "mpleteVo"
375D  00                 "\0"
                         const [55]: "objTwoCompleteVo"
375E  01                 const type 3
375F  F92D9AF7           const [56]: (-140890631)
3763  03                 const type 3
3764  00409C45           const [57]: (0)
                         * functions:
3768  00                 sizep (0)
                         * lines:
376A  01                 sizelineinfo (241)
                         [pc] (line)
376B  1B                 [001] (27)
376C  02                 [002] (27)
376D  00                 [003] (27)
376E  00                 [004] (28)
376F  1B                 [005] (28)
3770  02                 [006] (28)
3771  00                 [007] (29)
3772  00                 [008] (29)
3773  1B                 [009] (31)
3774  02                 [010] (31)
3775  00                 [011] (31)
3776  00                 [012] (31)
3777  1C                 [013] (31)
3778  02                 [014] (33)
3779  00                 [015] (33)
377A  00                 [016] (33)
377B  1C                 [017] (33)
377C  02                 [018] (33)
377D  00                 [019] (34)
377E  00                 [020] (34)
377F  1C                 [021] (34)
3780  02                 [022] (34)
3781  00                 [023] (34)
3782  00                 [024] (34)
3783  1D                 [025] (34)
3784  02                 [026] (34)
3785  00                 [027] (34)
3786  00                 [028] (35)
3787  1D                 [029] (35)
3788  02                 [030] (35)
3789  00                 [031] (36)
378A  00                 [032] (36)
378B  1F                 [033] (36)
378C  02                 [034] (36)
378D  00                 [035] (36)
378E  00                 [036] (37)
378F  1F                 [037] (37)
3790  02                 [038] (37)
3791  00                 [039] (37)
3792  00                 [040] (38)
3793  1F                 [041] (38)
3794  02                 [042] (38)
3795  00                 [043] (38)
3796  00                 [044] (38)
3797  1F                 [045] (39)
3798  02                 [046] (39)
3799  00                 [047] (39)
379A  00                 [048] (42)
379B  1F                 [049] (42)
379C  02                 [050] (42)
379D  00                 [051] (45)
379E  00                 [052] (45)
379F  21                 [053] (45)
37A0  02                 [054] (48)
37A1  00                 [055] (48)
37A2  00                 [056] (48)
37A3  21                 [057] (49)
37A4  02                 [058] (50)
37A5  00                 [059] (50)
37A6  00                 [060] (50)
37A7  21                 [061] (50)
37A8  02                 [062] (50)
37A9  00                 [063] (51)
37AA  00                 [064] (51)
37AB  21                 [065] (51)
37AC  02                 [066] (52)
37AD  00                 [067] (52)
37AE  00                 [068] (52)
37AF  21                 [069] (52)
37B0  02                 [070] (52)
37B1  00                 [071] (52)
37B2  00                 [072] (52)
37B3  22                 [073] (52)
37B4  02                 [074] (52)
37B5  00                 [075] (53)
37B6  00                 [076] (53)
37B7  22                 [077] (53)
37B8  02                 [078] (53)
37B9  00                 [079] (53)
37BA  00                 [080] (53)
37BB  22                 [081] (53)
37BC  02                 [082] (53)
37BD  00                 [083] (54)
37BE  00                 [084] (54)
37BF  22                 [085] (54)
37C0  02                 [086] (54)
37C1  00                 [087] (55)
37C2  00                 [088] (55)
37C3  22                 [089] (55)
37C4  02                 [090] (55)
37C5  00                 [091] (55)
37C6  00                 [092] (56)
37C7  22                 [093] (56)
37C8  02                 [094] (56)
37C9  00                 [095] (56)
37CA  00                 [096] (56)
37CB  22                 [097] (57)
37CC  02                 [098] (57)
37CD  00                 [099] (57)
37CE  00                 [100] (57)
37CF  22                 [101] (57)
37D0  02                 [102] (57)
37D1  00                 [103] (54)
37D2  00                 [104] (59)
37D3  22                 [105] (65)
37D4  02                 [106] (65)
37D5  00                 [107] (65)
37D6  00                 [108] (65)
37D7  23                 [109] (66)
37D8  02                 [110] (66)
37D9  00                 [111] (66)
37DA  00                 [112] (66)
37DB  23                 [113] (66)
37DC  02                 [114] (67)
37DD  00                 [115] (67)
37DE  00                 [116] (67)
37DF  23                 [117] (67)
37E0  02                 [118] (67)
37E1  00                 [119] (67)
37E2  00                 [120] (67)
37E3  24                 [121] (67)
37E4  02                 [122] (67)
37E5  00                 [123] (68)
37E6  00                 [124] (68)
37E7  24                 [125] (68)
37E8  02                 [126] (68)
37E9  00                 [127] (68)
37EA  00                 [128] (68)
37EB  24                 [129] (68)
37EC  02                 [130] (68)
37ED  00                 [131] (68)
37EE  00                 [132] (69)
37EF  24                 [133] (69)
37F0  02                 [134] (69)
37F1  00                 [135] (69)
37F2  00                 [136] (69)
37F3  24                 [137] (69)
37F4  02                 [138] (69)
37F5  00                 [139] (69)
37F6  00                 [140] (70)
37F7  25                 [141] (70)
37F8  02                 [142] (70)
37F9  00                 [143] (70)
37FA  00                 [144] (70)
37FB  25                 [145] (70)
37FC  02                 [146] (70)
37FD  00                 [147] (70)
37FE  00                 [148] (70)
37FF  25                 [149] (72)
3800  02                 [150] (72)
3801  00                 [151] (72)
3802  00                 [152] (72)
3803  25                 [153] (72)
3804  02                 [154] (73)
3805  00                 [155] (73)
3806  00                 [156] (73)
3807  26                 [157] (73)
3808  02                 [158] (73)
3809  00                 [159] (73)
380A  00                 [160] (73)
380B  26                 [161] (73)
380C  02                 [162] (73)
380D  00                 [163] (76)
380E  00                 [164] (76)
380F  26                 [165] (76)
3810  02                 [166] (76)
3811  00                 [167] (76)
3812  00                 [168] (77)
3813  26                 [169] (77)
3814  02                 [170] (77)
3815  00                 [171] (77)
3816  00                 [172] (77)
3817  26                 [173] (77)
3818  02                 [174] (77)
3819  00                 [175] (77)
381A  00                 [176] (77)
381B  27                 [177] (78)
381C  02                 [178] (78)
381D  00                 [179] (78)
381E  00                 [180] (80)
381F  27                 [181] (80)
3820  02                 [182] (80)
3821  00                 [183] (80)
3822  00                 [184] (80)
3823  27                 [185] (80)
3824  02                 [186] (80)
3825  00                 [187] (80)
3826  00                 [188] (81)
3827  2A                 [189] (81)
3828  02                 [190] (81)
3829  00                 [191] (81)
382A  00                 [192] (82)
382B  2A                 [193] (82)
382C  02                 [194] (82)
382D  00                 [195] (82)
382E  00                 [196] (82)
382F  2A                 [197] (83)
3830  02                 [198] (83)
3831  00                 [199] (83)
3832  00                 [200] (83)
3833  2D                 [201] (83)
3834  02                 [202] (84)
3835  00                 [203] (84)
3836  00                 [204] (84)
3837  2D                 [205] (84)
3838  02                 [206] (84)
3839  00                 [207] (84)
383A  00                 [208] (81)
383B  2D                 [209] (86)
383C  02                 [210] (91)
383D  00                 [211] (91)
383E  00                 [212] (91)
383F  30                 [213] (93)
3840  02                 [214] (93)
3841  00                 [215] (93)
3842  00                 [216] (93)
3843  30                 [217] (93)
3844  02                 [218] (93)
3845  00                 [219] (93)
3846  00                 [220] (93)
3847  30                 [221] (94)
3848  02                 [222] (94)
3849  00                 [223] (94)
384A  00                 [224] (95)
384B  31                 [225] (95)
384C  02                 [226] (95)
384D  00                 [227] (95)
384E  00                 [228] (95)
384F  32                 [229] (96)
3850  02                 [230] (96)
3851  00                 [231] (96)
3852  00                 [232] (96)
3853  32                 [233] (96)
3854  02                 [234] (96)
3855  00                 [235] (96)
3856  00                 [236] (98)
3857  32                 [237] (100)
3858  02                 [238] (100)
3859  00                 [239] (100)
385A  00                 [240] (100)
385B  32                 [241] (102)
                         * locals:
3B2F  00                 sizelocvars (0)
                         * upvalues:
3B30  00                 sizeupvalues (0)
                         ** end of function **

                         
3B31                     ** function [15] definition (level 2)
                         ** start of function **
3B31  00                 string size (0)
                         source name: (none)
3B33  04                 line defined (616)
3B34  EC                 last line defined (620)
3B35  04                 nups (0)
3B36  00                 numparams (0)
3B37  00                 is_vararg (0)
3B38  00                 maxstacksize (5)
                         * code:
3B3A  0B                 sizecode (11)
3B3B  1D000000           [01] getglobal  0   0        ; gRegion
3B3F  24404000           [02] self       0   0   257  ; 925677844
3B43  22800001           [03] call       0   2   2  
3B47  64804000           [04] self       1   0   258  ; 1653689631
3B4B  62800001           [05] call       1   2   2  
3B4F  9DC00000           [06] getglobal  2   3        ; gGameRules
3B53  A4004101           [07] self       2   2   260  ; 811734991
3B57  12018000           [08] move       4   1      
3B5B  87008001           [09] tailcall   2   3   0  
3B5F  9E000000           [10] return     2   0      
3B63  1E008000           [11] return     0   1      
                         * constants:
3B67  05                 sizek (5)
3B68  04                 const type 4
3B69  08                 string size (8)
3B6A  67526567696F6E00   "gRegion\0"
                         const [0]: "gRegion"
3B72  01                 const type 3
3B73  14B92C37           const [1]: (925677844)
3B77  01                 const type 3
3B78  1F4D9162           const [2]: (1653689631)
3B7C  04                 const type 4
3B7D  0B                 string size (11)
3B7E  6747616D6552756C+  "gGameRul"
3B86  657300             "es\0"
                         const [3]: "gGameRules"
3B89  01                 const type 3
3B8A  CF176230           const [4]: (811734991)
                         * functions:
3B8E  00                 sizep (0)
                         * lines:
3B8F  0B                 sizelineinfo (11)
                         [pc] (line)
3B90  69                 [01] (105)
3B91  02                 [02] (105)
3B92  00                 [03] (105)
3B93  00                 [04] (106)
3B94  69                 [05] (106)
3B95  02                 [06] (107)
3B96  00                 [07] (107)
3B97  00                 [08] (107)
3B98  69                 [09] (107)
3B99  02                 [10] (107)
3B9A  00                 [11] (108)
                         * locals:
3BBC  00                 sizelocvars (0)
                         * upvalues:
3BBD  00                 sizeupvalues (0)
                         ** end of function **

                         
3BBE                     ** function [16] definition (level 2)
                         ** start of function **
3BBE  00                 string size (0)
                         source name: (none)
3BC0  04                 line defined (624)
3BC1  83                 last line defined (643)
3BC2  05                 nups (1)
3BC3  01                 numparams (1)
3BC4  01                 is_vararg (0)
3BC5  00                 maxstacksize (14)
                         * code:
3BC7  26                 sizecode (38)
3BC8  53000000           [01] getupval   1   0      
3BCC  93000000           [02] getupval   2   0      
3BD0  83000001           [03] add        2   2   0  
3BD4  8D004001           [04] sub        2   2   256  ; 0
3BD8  DD400000           [05] getglobal  3   1        ; gGameRules
3BDC  2481C001           [06] self       4   3   258  ; -1201441975
3BE0  22810001           [07] call       4   2   2  
3BE4  0EC14002           [08] gettable   4   4   259  ; "enemySpec"
3BE8  5D010100           [09] getglobal  5   4        ; 1074689893
3BEC  92010002           [10] move       6   4      
3BF0  62810001           [11] call       5   2   2  
3BF4  58010000           [12] test       5       0    ; to [14] if true
3BF8  1A800080           [13] jmp        3            ; to [17]
3BFC  52010001           [14] move       5   2      
3C00  97010000           [15] loadbool   6   0   0    ; false
3C04  5E018001           [16] return     5   3      
3C08  64414102           [17] self       5   4   261  ; 1891965785
3C0C  62810001           [18] call       5   2   2  
3C10  97010000           [19] loadbool   6   0   0    ; false
3C14  DD810100           [20] getglobal  7   6        ; 248503575
3C18  12028002           [21] move       8   5      
3C1C  E2010101           [22] call       7   2   4  
3C20  1A000280           [23] jmp        9            ; to [33]
3C24  0EC3C105           [24] gettable   12  11  263  ; "tier"
fail op	33
3C28  21008300           [25] tforloop   0       12   ; to [27] if exit
3C2C  1A400180           [26] jmp        6            ; to [33]
3C30  0EC3C105           [27] gettable   12  11  263  ; "tier"
fail op	33
3C34  21800006           [28] tforloop   0       2    ; to [30] if exit
3C38  1A800080           [29] jmp        3            ; to [33]
3C3C  4EC0C105           [30] gettable   1   11  263  ; "tier"
3C40  97018000           [31] loadbool   6   1   0    ; true
3C44  1A400080           [32] jmp        2            ; to [35]
3C48  D6810000           [33] tforloop   7       2    ; to [35] if exit
3C4C  1A00FD7F           [34] jmp        -11          ; to [24]
3C50  12038000           [35] move       12  1      
3C54  52030003           [36] move       13  6      
3C58  1E038001           [37] return     12  3      
3C5C  1E008000           [38] return     0   1      
                         * constants:
3C60  08                 sizek (8)
3C61  03                 const type 3
3C62  0000803F           const [0]: (0)
3C66  04                 const type 4
3C67  0B                 string size (11)
3C68  6747616D6552756C+  "gGameRul"
3C70  657300             "es\0"
                         const [1]: "gGameRules"
3C73  01                 const type 3
3C74  497363B8           const [2]: (-1201441975)
3C78  04                 const type 4
3C79  0A                 string size (10)
3C7A  656E656D79537065+  "enemySpe"
3C82  6300               "c\0"
                         const [3]: "enemySpec"
3C84  01                 const type 3
3C85  65770E40           const [4]: (1074689893)
3C89  01                 const type 3
3C8A  591BC570           const [5]: (1891965785)
3C8E  01                 const type 3
3C8F  17DDCF0E           const [6]: (248503575)
3C93  04                 const type 4
3C94  05                 string size (5)
3C95  7469657200         "tier\0"
                         const [7]: "tier"
                         * functions:
3C9A  00                 sizep (0)
                         * lines:
3C9B  26                 sizelineinfo (38)
                         [pc] (line)
3C9C  71                 [01] (113)
3C9D  02                 [02] (114)
3C9E  00                 [03] (114)
3C9F  00                 [04] (114)
3CA0  72                 [05] (115)
3CA1  02                 [06] (116)
3CA2  00                 [07] (116)
3CA3  00                 [08] (116)
3CA4  72                 [09] (117)
3CA5  02                 [10] (117)
3CA6  00                 [11] (117)
3CA7  00                 [12] (117)
3CA8  72                 [13] (117)
3CA9  02                 [14] (118)
3CAA  00                 [15] (118)
3CAB  00                 [16] (118)
3CAC  73                 [17] (121)
3CAD  02                 [18] (121)
3CAE  00                 [19] (122)
3CAF  00                 [20] (123)
3CB0  74                 [21] (123)
3CB1  02                 [22] (123)
3CB2  00                 [23] (123)
3CB3  00                 [24] (124)
3CB4  74                 [25] (124)
3CB5  02                 [26] (124)
3CB6  00                 [27] (124)
3CB7  00                 [28] (124)
3CB8  74                 [29] (124)
3CB9  02                 [30] (125)
3CBA  00                 [31] (126)
3CBB  00                 [32] (127)
3CBC  75                 [33] (123)
3CBD  02                 [34] (-128)
3CBE  00                 [35] (-126)
3CBF  00                 [36] (-126)
3CC0  75                 [37] (-126)
3CC1  02                 [38] (-125)
                         * locals:
3D34  00                 sizelocvars (0)
                         * upvalues:
3D35  00                 sizeupvalues (0)
                         ** end of function **

                         
3D36                     ** function [17] definition (level 2)
                         ** start of function **
3D36  00                 string size (0)
                         source name: (none)
3D38  05                 line defined (645)
3D39  AA                 last line defined (682)
3D3A  05                 nups (1)
3D3B  01                 numparams (2)
3D3C  02                 is_vararg (0)
3D3D  00                 maxstacksize (26)
                         * code:
3D3F  5E                 sizecode (94)
3D40  9D000000           [01] getglobal  2   0        ; gRegion
3D44  A4404001           [02] self       2   2   257  ; -774964848
3D48  A2800001           [03] call       2   2   2  
3D4C  A4804001           [04] self       2   2   258  ; 537471347
3D50  A2800001           [05] call       2   2   2  
3D54  E4C04001           [06] self       3   2   259  ; 923887430
3D58  E2800001           [07] call       3   2   2  
3D5C  1D010100           [08] getglobal  4   4        ; math
3D60  0E414102           [09] gettable   4   4   261  ; 1710846250
3D64  4381C101           [10] add        5   3   262  ; 0
3D68  99C10100           [11] loadk      6   7        ; 0
3D6C  22818001           [12] call       4   3   2  
3D70  53010000           [13] getupval   5   0      
3D74  92010002           [14] move       6   4      
3D78  62C10001           [15] call       5   2   3  
3D7C  E4014201           [16] self       7   2   264  ; -354168336
3D80  E2810001           [17] call       7   2   2  
3D84  12028003           [18] move       8   7      
fail op	33
3D88  6140C203           [19] tforloop   1       265  ; to [21] if exit
3D8C  1A400080           [20] jmp        2            ; to [23]
3D90  98410000           [21] test       6       1    ; to [23] if false
3D94  1A400180           [22] jmp        6            ; to [29]
3D98  52010002           [23] move       5   4      
fail op	33
3D9C  2180C203           [24] tforloop   0       266  ; to [26] if exit
3DA0  1A400080           [25] jmp        2            ; to [28]
3DA4  97010000           [26] loadbool   6   0   0    ; false
3DA8  1A000080           [27] jmp        1            ; to [29]
3DAC  97018000           [28] loadbool   6   1   0    ; true
3DB0  59C20200           [29] loadk      9   11       ; 0
3DB4  99820100           [30] loadk      10  6        ; 0
3DB8  D2028000           [31] move       11  1      
3DBC  19830100           [32] loadk      12  6        ; 0
3DC0  90820E80           [33] forprep    10  59       ; to [93]
3DC4  86030007           [34] loadnil    14  14     
3DC8  D9030300           [35] loadk      15  12       ; 0
3DCC  12048002           [36] move       16  5      
3DD0  5D440300           [37] getglobal  17  13       ; 1074689893
3DD4  92040007           [38] move       18  14     
3DD8  62840001           [39] call       17  2   2  
3DDC  58040000           [40] test       17      0    ; to [42] if true
3DE0  1A800C80           [41] jmp        51           ; to [93]
fail op	21
3DE4  15408207           [42] concat     0   15  9  
3DE8  1A000C80           [43] jmp        49           ; to [93]
3DEC  4484C304           [44] mul        17  9   270  ; -51
fail op	21
3DF0  15C08308           [45] concat     0   17  15 
3DF4  1A000080           [46] jmp        1            ; to [48]
3DF8  12040002           [47] move       16  4      
3DFC  64C44301           [48] self       17  2   271  ; 1842573415
3E00  DD040400           [49] getglobal  19  16       ; -332969190
3E04  E2848000           [50] call       19  1   2  
3E08  12050004           [51] move       20  8      
3E0C  57058000           [52] loadbool   21  1   0    ; true
3E10  97050000           [53] loadbool   22  0   0    ; false
3E14  D2050008           [54] move       23  16     
3E18  12060003           [55] move       24  6      
3E1C  62840004           [56] call       17  8   2  
3E20  A4444401           [57] self       18  2   273  ; -1642488687
3E24  12058008           [58] move       20  17     
3E28  4605800A           [59] loadnil    21  21     
3E2C  9D050400           [60] getglobal  22  16       ; -332969190
3E30  D9850400           [61] loadk      23  18       ; "RandomTeam"
3E34  A2850001           [62] call       22  2   2  
3E38  D2050004           [63] move       23  8      
3E3C  0606000C           [64] loadnil    24  24     
3E40  5DC60400           [65] getglobal  25  19       ; Engine
3E44  4E06C50C           [66] gettable   25  25  276  ; "EXIMUS"
3E48  A2840004           [67] call       18  8   2  
3E4C  92030009           [68] move       14  18     
3E50  9D440300           [69] getglobal  18  13       ; 1074689893
3E54  D2040007           [70] move       19  14     
3E58  A2840001           [71] call       18  2   2  
3E5C  98040000           [72] test       18      0    ; to [74] if true
3E60  1AC00280           [73] jmp        12           ; to [86]
3E64  A4444401           [74] self       18  2   273  ; -1642488687
3E68  12058008           [75] move       20  17     
3E6C  4605800A           [76] loadnil    21  21     
3E70  9D050400           [77] getglobal  22  16       ; -332969190
3E74  D9850400           [78] loadk      23  18       ; "RandomTeam"
3E78  A2850001           [79] call       22  2   2  
3E7C  D2050004           [80] move       23  8      
3E80  0606000C           [81] loadnil    24  24     
3E84  5DC60400           [82] getglobal  25  19       ; Engine
3E88  4E46C50C           [83] gettable   25  25  277  ; "STANDARD"
3E8C  A2840004           [84] call       18  8   2  
3E90  92030009           [85] move       14  18     
3E94  9D840500           [86] getglobal  18  22       ; 1289681407
3E98  A2848000           [87] call       18  1   2  
3E9C  C3838407           [88] add        15  15  18 
3EA0  9DC40500           [89] getglobal  18  23       ; 538022378
3EA4  D9040300           [90] loadk      19  12       ; 0
3EA8  A2440001           [91] call       18  2   1  
3EAC  1AC0F17F           [92] jmp        -56          ; to [37]
3EB0  94C2F07F           [93] forloop    10  -60      ; to [34] if loop
3EB4  1E008000           [94] return     0   1      
                         * constants:
3EB8  18                 sizek (24)
3EB9  04                 const type 4
3EBA  08                 string size (8)
3EBB  67526567696F6E00   "gRegion\0"
                         const [0]: "gRegion"
3EC3  01                 const type 3
3EC4  90F9CED1           const [1]: (-774964848)
3EC8  01                 const type 3
3EC9  73290920           const [2]: (537471347)
3ECD  01                 const type 3
3ECE  46671137           const [3]: (923887430)
3ED2  04                 const type 4
3ED3  05                 string size (5)
3ED4  6D61746800         "math\0"
                         const [4]: "math"
3ED9  01                 const type 3
3EDA  2A71F965           const [5]: (1710846250)
3EDE  03                 const type 3
3EDF  0000803F           const [6]: (0)
3EE3  03                 const type 3
3EE4  00004040           const [7]: (0)
3EE8  01                 const type 3
3EE9  F0D1E3EA           const [8]: (-354168336)
3EED  03                 const type 3
3EEE  0000A041           const [9]: (0)
3EF2  03                 const type 3
3EF3  00002041           const [10]: (0)
3EF7  03                 const type 3
3EF8  0000003F           const [11]: (0)
3EFC  03                 const type 3
3EFD  00000000           const [12]: (0)
3F01  01                 const type 3
3F02  65770E40           const [13]: (1074689893)
3F06  03                 const type 3
3F07  CDCC4C3F           const [14]: (-51)
3F0B  01                 const type 3
3F0C  6770D36D           const [15]: (1842573415)
3F10  01                 const type 3
3F11  1A4B27EC           const [16]: (-332969190)
3F15  01                 const type 3
3F16  919C199E           const [17]: (-1642488687)
3F1A  04                 const type 4
3F1B  0B                 string size (11)
3F1C  52616E646F6D5465+  "RandomTe"
3F24  616D00             "am\0"
                         const [18]: "RandomTeam"
3F27  04                 const type 4
3F28  07                 string size (7)
3F29  456E67696E6500     "Engine\0"
                         const [19]: "Engine"
3F30  04                 const type 4
3F31  07                 string size (7)
3F32  4558494D555300     "EXIMUS\0"
                         const [20]: "EXIMUS"
3F39  04                 const type 4
3F3A  09                 string size (9)
3F3B  5354414E44415244+  "STANDARD"
3F43  00                 "\0"
                         const [21]: "STANDARD"
3F44  01                 const type 3
3F45  FFF9DE4C           const [22]: (1289681407)
3F49  01                 const type 3
3F4A  EA911120           const [23]: (538022378)
                         * functions:
3F4E  00                 sizep (0)
                         * lines:
3F4F  5E                 sizelineinfo (94)
                         [pc] (line)
3F50  86                 [01] (-122)
3F51  02                 [02] (-122)
3F52  00                 [03] (-122)
3F53  00                 [04] (-122)
3F54  86                 [05] (-122)
3F55  02                 [06] (-121)
3F56  00                 [07] (-121)
3F57  00                 [08] (-120)
3F58  86                 [09] (-120)
3F59  02                 [10] (-120)
3F5A  00                 [11] (-120)
3F5B  00                 [12] (-120)
3F5C  86                 [13] (-119)
3F5D  02                 [14] (-119)
3F5E  00                 [15] (-119)
3F5F  00                 [16] (-118)
3F60  86                 [17] (-118)
3F61  02                 [18] (-117)
3F62  00                 [19] (-113)
3F63  00                 [20] (-113)
3F64  87                 [21] (-113)
3F65  02                 [22] (-113)
3F66  00                 [23] (-112)
3F67  00                 [24] (-111)
3F68  87                 [25] (-111)
3F69  02                 [26] (-110)
3F6A  00                 [27] (-110)
3F6B  00                 [28] (-108)
3F6C  88                 [29] (-104)
3F6D  02                 [30] (-103)
3F6E  00                 [31] (-103)
3F6F  00                 [32] (-103)
3F70  88                 [33] (-103)
3F71  02                 [34] (-102)
3F72  00                 [35] (-101)
3F73  00                 [36] (-100)
3F74  88                 [37] (-99)
3F75  02                 [38] (-99)
3F76  00                 [39] (-99)
3F77  00                 [40] (-99)
3F78  88                 [41] (-99)
3F79  02                 [42] (-99)
3F7A  00                 [43] (-99)
3F7B  00                 [44] (-98)
3F7C  88                 [45] (-98)
3F7D  02                 [46] (-98)
3F7E  00                 [47] (-97)
3F7F  00                 [48] (-95)
3F80  89                 [49] (-95)
3F81  02                 [50] (-95)
3F82  00                 [51] (-95)
3F83  00                 [52] (-95)
3F84  89                 [53] (-95)
3F85  02                 [54] (-95)
3F86  00                 [55] (-95)
3F87  00                 [56] (-95)
3F88  89                 [57] (-94)
3F89  02                 [58] (-94)
3F8A  00                 [59] (-94)
3F8B  00                 [60] (-94)
3F8C  8A                 [61] (-94)
3F8D  02                 [62] (-94)
3F8E  00                 [63] (-94)
3F8F  00                 [64] (-94)
3F90  8A                 [65] (-94)
3F91  02                 [66] (-94)
3F92  00                 [67] (-94)
3F93  00                 [68] (-94)
3F94  8B                 [69] (-93)
3F95  02                 [70] (-93)
3F96  00                 [71] (-93)
3F97  00                 [72] (-93)
3F98  8F                 [73] (-93)
3F99  02                 [74] (-92)
3F9A  00                 [75] (-92)
3F9B  00                 [76] (-92)
3F9C  8F                 [77] (-92)
3F9D  02                 [78] (-92)
3F9E  00                 [79] (-92)
3F9F  00                 [80] (-92)
3FA0  8F                 [81] (-92)
3FA1  02                 [82] (-92)
3FA2  00                 [83] (-92)
3FA3  00                 [84] (-92)
3FA4  8F                 [85] (-92)
3FA5  02                 [86] (-90)
3FA6  00                 [87] (-90)
3FA7  00                 [88] (-90)
3FA8  90                 [89] (-89)
3FA9  02                 [90] (-89)
3FAA  00                 [91] (-89)
3FAB  00                 [92] (-89)
3FAC  91                 [93] (-103)
3FAD  02                 [94] (-86)
                         * locals:
40C8  00                 sizelocvars (0)
                         * upvalues:
40C9  00                 sizeupvalues (0)
                         ** end of function **

                         
40CA                     ** function [18] definition (level 2)
                         ** start of function **
40CA  00                 string size (0)
                         source name: (none)
40CC  05                 line defined (685)
40CD  FE                 last line defined (1150)
40CE  08                 nups (6)
40CF  06                 numparams (0)
40D0  00                 is_vararg (0)
40D1  00                 maxstacksize (63)
                         * code:
40D4  07                 sizecode (1013)
40D5  1D000000           [0001] getglobal  0   0        ; -332969190
40D9  59400000           [0002] loadk      1   1        ; "ExterminateMid"
40DD  22800001           [0003] call       0   2   2  
40E1  5D800000           [0004] getglobal  1   2        ; gGameRules
40E5  93000000           [0005] getupval   2   0      
40E9  A2808000           [0006] call       2   1   2  
40ED  E4C0C000           [0007] self       3   1   259  ; -502414055
40F1  E2800001           [0008] call       3   2   2  
40F5  1D010100           [0009] getglobal  4   4        ; Lotus_Game
40F9  0E414102           [0010] gettable   4   4   261  ; "MT_INTEL"
fail op	35
40FD  23008101           [0011] close      0  
4101  1A400080           [0012] jmp        2            ; to [15]
4105  17018000           [0013] loadbool   4   1   0    ; true
4109  20810100           [0014] setglobal  4   6        ; switchToExterminateObj
410D  1DC10100           [0015] getglobal  4   7        ; isArchwingMission
4111  18010000           [0016] test       4       0    ; to [18] if true
4115  1AC00080           [0017] jmp        4            ; to [22]
4119  1D810100           [0018] getglobal  4   6        ; switchToExterminateObj
411D  18010000           [0019] test       4       0    ; to [21] if true
4121  1A000080           [0020] jmp        1            ; to [22]
4125  1E008000           [0021] return     0   1      
4129  1D810100           [0022] getglobal  4   6        ; switchToExterminateObj
412D  18010000           [0023] test       4       0    ; to [25] if true
4131  1AC00280           [0024] jmp        12           ; to [37]
4135  13018000           [0025] getupval   4   1      
4139  0E014202           [0026] gettable   4   4   264  ; -473869226
413D  22418000           [0027] call       4   1   1  
4141  13018000           [0028] getupval   4   1      
4145  0E414202           [0029] gettable   4   4   265  ; 504400121
4149  22418000           [0030] call       4   1   1  
414D  13018000           [0031] getupval   4   1      
4151  0E814202           [0032] gettable   4   4   266  ; -2050746554
4155  22418000           [0033] call       4   1   1  
4159  13018000           [0034] getupval   4   1      
415D  0EC14202           [0035] gettable   4   4   267  ; 1442206754
4161  22418000           [0036] call       4   1   1  
4165  1D010300           [0037] getglobal  4   12       ; gRegion
4169  24414302           [0038] self       4   4   269  ; 65205951
416D  22810001           [0039] call       4   2   2  
4171  5D810300           [0040] getglobal  5   14       ; 1074689893
4175  92010002           [0041] move       6   4      
4179  62810001           [0042] call       5   2   2  
417D  58410000           [0043] test       5       1    ; to [45] if false
4181  1A000080           [0044] jmp        1            ; to [46]
4185  1AC00080           [0045] jmp        4            ; to [50]
4189  5DC10300           [0046] getglobal  5   15       ; 538022378
418D  99010400           [0047] loadk      6   16       ; 0
4191  62410001           [0048] call       5   2   1  
4195  1A80FC7F           [0049] jmp        -13          ; to [37]
4199  5D810300           [0050] getglobal  5   14       ; 1074689893
419D  92018000           [0051] move       6   1      
41A1  62810001           [0052] call       5   2   2  
41A5  58410000           [0053] test       5       1    ; to [55] if false
41A9  1A000180           [0054] jmp        5            ; to [60]
41AD  5D810300           [0055] getglobal  5   14       ; 1074689893
41B1  92010001           [0056] move       6   2      
41B5  62810001           [0057] call       5   2   2  
41B9  58010000           [0058] test       5       0    ; to [60] if true
41BD  1A000080           [0059] jmp        1            ; to [61]
41C1  1E008000           [0060] return     0   1      
41C5  5D010100           [0061] getglobal  5   4        ; Lotus_Game
41C9  4E41C402           [0062] gettable   5   5   273  ; "MT_PURGE"
fail op	35
41CD  23408101           [0063] close      0  
41D1  1A000080           [0064] jmp        1            ; to [66]
41D5  1E008000           [0065] return     0   1      
41D9  5D010300           [0066] getglobal  5   12       ; gRegion
41DD  6481C402           [0067] self       5   5   274  ; -1520831144
41E1  62810001           [0068] call       5   2   2  
41E5  58010000           [0069] test       5       0    ; to [71] if true
41E9  1A000E80           [0070] jmp        57           ; to [128]
41ED  5D010100           [0071] getglobal  5   4        ; Lotus_Game
41F1  4E41C102           [0072] gettable   5   5   261  ; "MT_INTEL"
fail op	35
41F5  63408101           [0073] close      1  
41F9  1A000D80           [0074] jmp        53           ; to [128]
41FD  5DC10400           [0075] getglobal  5   19       ; _T
4201  4E01C502           [0076] gettable   5   5   276  ; "gTutorialMission"
4205  58410000           [0077] test       5       1    ; to [79] if false
4209  1A000C80           [0078] jmp        49           ; to [128]
420D  5D810300           [0079] getglobal  5   14       ; 1074689893
4211  9DC10400           [0080] getglobal  6   19       ; _T
4215  8E414503           [0081] gettable   6   6   277  ; "MissionTransmissionSet"
4219  62810001           [0082] call       5   2   2  
421D  58410000           [0083] test       5       1    ; to [85] if false
4221  1A800180           [0084] jmp        7            ; to [92]
4225  5D810100           [0085] getglobal  5   6        ; switchToExterminateObj
4229  58010000           [0086] test       5       0    ; to [88] if true
422D  1A800180           [0087] jmp        7            ; to [95]
4231  5DC10400           [0088] getglobal  5   19       ; _T
4235  4E81C502           [0089] gettable   5   5   278  ; "gQuestMission"
4239  58410000           [0090] test       5       1    ; to [92] if false
423D  1A800080           [0091] jmp        3            ; to [95]
4241  5DC10400           [0092] getglobal  5   19       ; _T
4245  9DC10500           [0093] getglobal  6   23       ; transmissionSet
4249  4C81818A           [0094] settable   5   277 6    ; "MissionTransmissionSet"
424D  5D810100           [0095] getglobal  5   6        ; switchToExterminateObj
4251  58410000           [0096] test       5       1    ; to [98] if false
4255  1A000280           [0097] jmp        9            ; to [107]
4259  5DC10400           [0098] getglobal  5   19       ; _T
425D  4E01C602           [0099] gettable   5   5   280  ; "gNemesis"
4261  58010000           [0100] test       5       0    ; to [102] if true
4265  1A800380           [0101] jmp        15           ; to [117]
4269  5DC10400           [0102] getglobal  5   19       ; _T
426D  4E01C602           [0103] gettable   5   5   280  ; "gNemesis"
4271  4E41C602           [0104] gettable   5   5   281  ; "mission"
4275  58010000           [0105] test       5       0    ; to [107] if true
4279  1A400280           [0106] jmp        10           ; to [117]
427D  53010001           [0107] getupval   5   2      
4281  4E81C602           [0108] gettable   5   5   282  ; -78033590
4285  9DC10400           [0109] getglobal  6   19       ; _T
4289  8E414503           [0110] gettable   6   6   277  ; "MissionTransmissionSet"
428D  DD010000           [0111] getglobal  7   0        ; -332969190
4291  19C20600           [0112] loadk      8   27       ; "ObjectiveStart"
4295  E2810001           [0113] call       7   2   2  
4299  19020700           [0114] loadk      8   28       ; 0
429D  62410002           [0115] call       5   4   1  
42A1  1A800280           [0116] jmp        11           ; to [128]
42A5  53010001           [0117] getupval   5   2      
42A9  4E41C702           [0118] gettable   5   5   285  ; 14052933
42AD  9DC10400           [0119] getglobal  6   19       ; _T
42B1  8E414503           [0120] gettable   6   6   277  ; "MissionTransmissionSet"
42B5  DD010000           [0121] getglobal  7   0        ; -332969190
42B9  19C20600           [0122] loadk      8   27       ; "ObjectiveStart"
42BD  E2810001           [0123] call       7   2   2  
42C1  19020700           [0124] loadk      8   28       ; 0
42C5  5DC20400           [0125] getglobal  9   19       ; _T
42C9  4E82C704           [0126] gettable   9   9   286  ; "faction"
42CD  62418002           [0127] call       5   5   1  
42D1  5D010300           [0128] getglobal  5   12       ; gRegion
42D5  64C1C702           [0129] self       5   5   287  ; -774964848
42D9  62810001           [0130] call       5   2   2  
42DD  A401C802           [0131] self       6   5   288  ; 537471347
42E1  A2810001           [0132] call       6   2   2  
42E5  D3018001           [0133] getupval   7   3      
42E9  CE41C803           [0134] gettable   7   7   289  ; 198248041
42ED  E2818000           [0135] call       7   1   2  
42F1  1D820300           [0136] getglobal  8   14       ; 1074689893
42F5  52028003           [0137] move       9   7      
42F9  22820001           [0138] call       8   2   2  
42FD  18420000           [0139] test       8       1    ; to [141] if false
4301  1A800280           [0140] jmp        11           ; to [152]
4305  1D820300           [0141] getglobal  8   14       ; 1074689893
4309  52020003           [0142] move       9   6      
430D  22820001           [0143] call       8   2   2  
4311  18420000           [0144] test       8       1    ; to [146] if false
4315  1A400180           [0145] jmp        6            ; to [152]
4319  24824803           [0146] self       8   6   290  ; -974578778
431D  97028000           [0147] loadbool   10  1   0    ; true
4321  22428001           [0148] call       8   3   1  
4325  24C24803           [0149] self       8   6   291  ; -906150570
4329  92028003           [0150] move       10  7      
432D  22428001           [0151] call       8   3   1  
4331  1D020300           [0152] getglobal  8   12       ; gRegion
4335  24824404           [0153] self       8   8   274  ; -1520831144
4339  22820001           [0154] call       8   2   2  
433D  18420000           [0155] test       8       1    ; to [157] if false
4341  1A000080           [0156] jmp        1            ; to [158]
4345  1E008000           [0157] return     0   1      
4349  1D820100           [0158] getglobal  8   6        ; switchToExterminateObj
434D  18420000           [0159] test       8       1    ; to [161] if false
4351  1AC00080           [0160] jmp        4            ; to [165]
4355  13028001           [0161] getupval   8   3      
4359  0E024904           [0162] gettable   8   8   292  ; 1942291758
435D  22428000           [0163] call       8   1   1  
4361  1AC00180           [0164] jmp        8            ; to [173]
4365  24424903           [0165] self       8   6   293  ; -1249710646
4369  22420001           [0166] call       8   2   1  
436D  24824903           [0167] self       8   6   294  ; 447196028
4371  97028000           [0168] loadbool   10  1   0    ; true
4375  22428001           [0169] call       8   3   1  
4379  1DC20300           [0170] getglobal  8   15       ; 538022378
437D  59020400           [0171] loadk      9   16       ; 0
4381  22420001           [0172] call       8   2   1  
4385  24C2C900           [0173] self       8   1   295  ; -1201441975
4389  22820001           [0174] call       8   2   2  
438D  5D020A00           [0175] getglobal  9   40       ; math
4391  4E42CA04           [0176] gettable   9   9   297  ; -150971781
4395  A4824A03           [0177] self       10  6   298  ; -933610048
4399  A2820001           [0178] call       10  2   2  
439D  9CC24A05           [0179] div        10  10  299  ; 0
43A1  62820001           [0180] call       9   2   2  
43A5  A4024B03           [0181] self       10  6   300  ; 2069913247
43A9  A2820001           [0182] call       10  2   2  
43AD  D9420B00           [0183] loadk      11  45       ; 0
43B1  19830B00           [0184] loadk      12  46       ; -102
43B5  5D830100           [0185] getglobal  13  6        ; switchToExterminateObj
43B9  58030000           [0186] test       13      0    ; to [188] if true
43BD  1A800B80           [0187] jmp        47           ; to [235]
43C1  64C3CB00           [0188] self       13  1   303  ; -317790213
43C5  D2030000           [0189] move       15  0      
43C9  19040700           [0190] loadk      16  28       ; 0
43CD  62830002           [0191] call       13  4   2  
43D1  A4034C03           [0192] self       14  6   304  ; 991298814
43D5  A2830001           [0193] call       14  2   2  
43D9  E4834A03           [0194] self       15  6   298  ; -933610048
43DD  E2830001           [0195] call       15  2   2  
fail op	21
43E1  55808307           [0196] concat     1   15  14 
43E5  1A800180           [0197] jmp        7            ; to [205]
43E9  DD830300           [0198] getglobal  15  14       ; 1074689893
43ED  12040007           [0199] move       16  14     
43F1  E2830001           [0200] call       15  2   2  
43F5  D8430000           [0201] test       15      1    ; to [203] if false
43F9  1A400080           [0202] jmp        2            ; to [205]
fail op	21
43FD  15004707           [0203] concat     0   14  284
4401  1A800180           [0204] jmp        7            ; to [212]
4405  E4034C03           [0205] self       15  6   304  ; 991298814
4409  E2830001           [0206] call       15  2   2  
440D  92038007           [0207] move       14  15     
4411  DDC30300           [0208] getglobal  15  15       ; 538022378
4415  19040700           [0209] loadk      16  28       ; 0
4419  E2430001           [0210] call       15  2   1  
441D  1A40FB7F           [0211] jmp        -18          ; to [194]
fail op	35
4421  2300C706           [0212] close      0  
4425  1A800280           [0213] jmp        11           ; to [225]
4429  DD030A00           [0214] getglobal  15  40       ; math
442D  CE43CA07           [0215] gettable   15  15  297  ; -150971781
4431  1CC44A07           [0216] div        16  14  299  ; 0
4435  E2830001           [0217] call       15  2   2  
4439  52028007           [0218] move       9   15     
443D  92028004           [0219] move       10  9      
4441  E443CC00           [0220] self       15  1   305  ; -803877924
4445  52040000           [0221] move       17  0      
4449  92048004           [0222] move       18  9      
444D  E2430002           [0223] call       15  4   1  
4451  1A400080           [0224] jmp        2            ; to [227]
4455  52028006           [0225] move       9   13     
4459  92028006           [0226] move       10  13     
445D  19030700           [0227] loadk      12  28       ; 0
4461  D2030007           [0228] move       15  14     
4465  24844C03           [0229] self       16  6   306  ; 1047203094
4469  92048007           [0230] move       18  15     
446D  22448001           [0231] call       16  3   1  
4471  24C44C03           [0232] self       16  6   307  ; -110386376
4475  97048000           [0233] loadbool   18  1   0    ; true
4479  22448001           [0234] call       16  3   1  
447D  19040400           [0235] loadk      16  16       ; 0
4481  5DC40400           [0236] getglobal  17  19       ; _T
4485  4E84C708           [0237] gettable   17  17  286  ; "faction"
4489  9D040000           [0238] getglobal  18  0        ; -332969190
448D  D9040D00           [0239] loadk      19  52       ; "Infestation"
4491  A2840001           [0240] call       18  2   2  
fail op	35
4495  23808408           [0241] close      0  
4499  1A000280           [0242] jmp        9            ; to [252]
449D  19840B00           [0243] loadk      16  46       ; -102
44A1  64844903           [0244] self       17  6   294  ; 447196028
44A5  D7048000           [0245] loadbool   19  1   0    ; true
44A9  62448001           [0246] call       17  3   1  
44AD  5D440D00           [0247] getglobal  17  53       ; gChallengeMgr
44B1  6484CD08           [0248] self       17  17  310  ; 1694488284
44B5  D7048000           [0249] loadbool   19  1   0    ; true
44B9  62448001           [0250] call       17  3   1  
44BD  1A000480           [0251] jmp        17           ; to [269]
44C1  5DC40400           [0252] getglobal  17  19       ; _T
44C5  4E84C708           [0253] gettable   17  17  286  ; "faction"
44C9  9D040000           [0254] getglobal  18  0        ; -332969190
44CD  D9C40D00           [0255] loadk      19  55       ; "Orokin"
44D1  A2840001           [0256] call       18  2   2  
fail op	35
44D5  23808408           [0257] close      0  
44D9  1A400080           [0258] jmp        2            ; to [261]
44DD  19840B00           [0259] loadk      16  46       ; -102
44E1  1AC00180           [0260] jmp        8            ; to [269]
44E5  5DC40400           [0261] getglobal  17  19       ; _T
44E9  4E84C708           [0262] gettable   17  17  286  ; "faction"
44ED  9D040000           [0263] getglobal  18  0        ; -332969190
44F1  D9040E00           [0264] loadk      19  56       ; "Sentient"
44F5  A2840001           [0265] call       18  2   2  
fail op	35
44F9  23808408           [0266] close      0  
44FD  1A000080           [0267] jmp        1            ; to [269]
4501  19440E00           [0268] loadk      16  57       ; -102
4505  5D840E00           [0269] getglobal  17  58       ; -1828500651
4509  99C40E00           [0270] loadk      18  59       ; 102
450D  D9840B00           [0271] loadk      19  46       ; -102
4511  0E054F04           [0272] gettable   20  8   316  ; "difficulty"
4515  62840002           [0273] call       17  4   2  
4519  A4444F03           [0274] self       18  6   317  ; -354168336
451D  A2840001           [0275] call       18  2   2  
fail op	21
4521  15804F09           [0276] concat     0   18  318
4525  1A800080           [0277] jmp        3            ; to [281]
4529  44C4CF08           [0278] mul        17  17  319  ; 0
452D  D9020400           [0279] loadk      11  16       ; 0
4531  1AC00080           [0280] jmp        4            ; to [285]
fail op	21
4535  15005009           [0281] concat     0   18  320
4539  1A400080           [0282] jmp        2            ; to [285]
453D  4444D008           [0283] mul        17  17  321  ; -51
4541  D9020400           [0284] loadk      11  16       ; 0
4545  E484D000           [0285] self       19  1   322  ; 37068124
4549  E2840001           [0286] call       19  2   2  
454D  D8040000           [0287] test       19      0    ; to [289] if true
4551  1A000080           [0288] jmp        1            ; to [290]
4555  44C4D008           [0289] mul        17  17  323  ; 0
4559  CE045104           [0290] gettable   19  8   324  ; "forceAllyFaction"
455D  D8040000           [0291] test       19      0    ; to [293] if true
4561  1A000080           [0292] jmp        1            ; to [294]
4565  44C4D008           [0293] mul        17  17  323  ; 0
4569  DDC40100           [0294] getglobal  19  7        ; isArchwingMission
456D  D8040000           [0295] test       19      0    ; to [297] if true
4571  1A000280           [0296] jmp        9            ; to [306]
4575  DD441100           [0297] getglobal  19  69       ; spaceBattleKillCountMultiplier
4579  44C48408           [0298] mul        17  17  19 
457D  E4845103           [0299] self       19  6   326  ; 978868524
4581  59C50F00           [0300] loadk      21  63       ; 0
4585  E2448001           [0301] call       19  3   1  
4589  E4C45103           [0302] self       19  6   327  ; -129759920
458D  59850F00           [0303] loadk      21  62       ; 0
4591  99051200           [0304] loadk      22  72       ; 0
4595  E2440002           [0305] call       19  4   1  
4599  CE445204           [0306] gettable   19  8   329  ; "sortieId"
fail op	35
459D  2380D209           [0307] close      0  
45A1  1A800080           [0308] jmp        3            ; to [312]
45A5  CEC45204           [0309] gettable   19  8   331  ; "nightmare"
45A9  D8040000           [0310] test       19      0    ; to [312] if true
45AD  1A000280           [0311] jmp        9            ; to [321]
45B1  CE045304           [0312] gettable   19  8   332  ; "isSharkwingMission"
45B5  D8040000           [0313] test       19      0    ; to [315] if true
45B9  1A400080           [0314] jmp        2            ; to [317]
45BD  4444D308           [0315] mul        17  17  333  ; 0
45C1  1A000080           [0316] jmp        1            ; to [318]
45C5  4444CB08           [0317] mul        17  17  301  ; 0
45C9  E4844903           [0318] self       19  6   294  ; 447196028
45CD  57058000           [0319] loadbool   21  1   0    ; true
45D1  E2448001           [0320] call       19  3   1  
45D5  DDC40400           [0321] getglobal  19  19       ; _T
45D9  1D050A00           [0322] getglobal  20  40       ; math
45DD  0E454A0A           [0323] gettable   20  20  297  ; -150971781
45E1  5D050A00           [0324] getglobal  21  40       ; math
45E5  4EC5D30A           [0325] gettable   21  21  335  ; -1962864584
45E9  92058004           [0326] move       22  9      
45ED  D2050005           [0327] move       23  10     
45F1  62858001           [0328] call       21  3   2  
45F5  4405840A           [0329] mul        21  21  16 
45F9  4445840A           [0330] mul        21  21  17 
45FD  22850001           [0331] call       20  2   2  
4601  CC0405A7           [0332] settable   19  334 20   ; "MaxEnemyCount"
4605  D7040000           [0333] loadbool   19  0   0    ; false
4609  D8040000           [0334] test       19      0    ; to [336] if true
460D  1A400080           [0335] jmp        2            ; to [338]
4611  DDC40400           [0336] getglobal  19  19       ; _T
4615  CC444BA7           [0337] settable   19  334 301  ; "MaxEnemyCount" 0
4619  DDC40300           [0338] getglobal  19  15       ; 538022378
461D  19050700           [0339] loadk      20  28       ; 0
4621  E2440001           [0340] call       19  2   1  
4625  DD840300           [0341] getglobal  19  14       ; 1074689893
4629  1DC50400           [0342] getglobal  20  19       ; _T
462D  0E05540A           [0343] gettable   20  20  336  ; "EventHardMode"
4631  E2840001           [0344] call       19  2   2  
4635  D8440000           [0345] test       19      1    ; to [347] if false
4639  1AC00280           [0346] jmp        12           ; to [359]
463D  DDC40400           [0347] getglobal  19  19       ; _T
4641  CE04D409           [0348] gettable   19  19  336  ; "EventHardMode"
fail op	35
4645  2340D409           [0349] close      0  
4649  1AC00180           [0350] jmp        8            ; to [359]
464D  DDC40400           [0351] getglobal  19  19       ; _T
4651  1D050A00           [0352] getglobal  20  40       ; math
4655  0E454A0A           [0353] gettable   20  20  297  ; -150971781
4659  5DC50400           [0354] getglobal  21  19       ; _T
465D  4E85D30A           [0355] gettable   21  21  334  ; "MaxEnemyCount"
4661  4445CB0A           [0356] mul        21  21  301  ; 0
4665  22850001           [0357] call       20  2   2  
4669  CC0405A7           [0358] settable   19  334 20   ; "MaxEnemyCount"
466D  E4845403           [0359] self       19  6   338  ; 1527427648
4671  E2840001           [0360] call       19  2   2  
4675  D8040000           [0361] test       19      0    ; to [363] if true
4679  1AC00180           [0362] jmp        8            ; to [371]
467D  DDC40400           [0363] getglobal  19  19       ; _T
4681  1D050A00           [0364] getglobal  20  40       ; math
4685  0E454A0A           [0365] gettable   20  20  297  ; -150971781
4689  5DC50400           [0366] getglobal  21  19       ; _T
468D  4E85D30A           [0367] gettable   21  21  334  ; "MaxEnemyCount"
4691  44C5D40A           [0368] mul        21  21  339  ; 102
4695  22850001           [0369] call       20  2   2  
4699  CC0405A7           [0370] settable   19  334 20   ; "MaxEnemyCount"
469D  DDC40400           [0371] getglobal  19  19       ; _T
46A1  CE84D309           [0372] gettable   19  19  334  ; "MaxEnemyCount"
46A5  24854A03           [0373] self       20  6   298  ; -933610048
46A9  22850001           [0374] call       20  2   2  
46AD  DC048509           [0375] div        19  19  20 
fail op	21
46B1  15C004AA           [0376] concat     0   340 19 
46B5  1AC00380           [0377] jmp        16           ; to [394]
46B9  1D050A00           [0378] getglobal  20  40       ; math
46BD  0EC5530A           [0379] gettable   20  20  335  ; -1962864584
46C1  59451500           [0380] loadk      21  85       ; 0
46C5  9DC50400           [0381] getglobal  22  19       ; _T
46C9  8E85530B           [0382] gettable   22  22  334  ; "MaxEnemyCount"
46CD  DD050A00           [0383] getglobal  23  40       ; math
46D1  CE45CA0B           [0384] gettable   23  23  297  ; -150971781
46D5  1DC60400           [0385] getglobal  24  19       ; _T
46D9  0E86530C           [0386] gettable   24  24  334  ; "MaxEnemyCount"
46DD  5CC604AA           [0387] div        25  340 19   ; -102
46E1  0446060C           [0388] mul        24  24  25 
46E5  E2850001           [0389] call       23  2   2  
46E9  8DC5050B           [0390] sub        22  22  23 
46ED  22858001           [0391] call       20  3   2  
46F1  1203000A           [0392] move       12  20     
46F5  1A000680           [0393] jmp        25           ; to [419]
fail op	21
46F9  1580D509           [0394] concat     0   19  342
46FD  1A400180           [0395] jmp        6            ; to [402]
4701  1D050A00           [0396] getglobal  20  40       ; math
4705  0EC5530A           [0397] gettable   20  20  335  ; -1962864584
4709  59C51000           [0398] loadk      21  67       ; 0
470D  9CC504AB           [0399] div        22  342 19   ; -51
4711  22858001           [0400] call       20  3   2  
4715  1203000A           [0401] move       12  20     
4719  1D050A00           [0402] getglobal  20  40       ; math
471D  0EC5530A           [0403] gettable   20  20  335  ; -1962864584
4721  59C50A00           [0404] loadk      21  43       ; 0
4725  9D050A00           [0405] getglobal  22  40       ; math
4729  8E454A0B           [0406] gettable   22  22  297  ; -150971781
472D  DDC50400           [0407] getglobal  23  19       ; _T
4731  CE85D30B           [0408] gettable   23  23  334  ; "MaxEnemyCount"
4735  0D064406           [0409] sub        24  12  272  ; 0
4739  C405860B           [0410] mul        23  23  24 
473D  A2050001           [0411] call       22  2   0  
4741  22850000           [0412] call       20  0   2  
4745  1203000A           [0413] move       12  20     
4749  1DC50400           [0414] getglobal  20  19       ; _T
474D  5DC50400           [0415] getglobal  21  19       ; _T
4751  4E85D30A           [0416] gettable   21  21  334  ; "MaxEnemyCount"
4755  4305830A           [0417] add        21  21  12 
4759  0C4505A7           [0418] settable   20  334 21   ; "MaxEnemyCount"
475D  19450E00           [0419] loadk      20  57       ; -102
4761  59C51500           [0420] loadk      21  87       ; -102
4765  9D050000           [0421] getglobal  22  0        ; -332969190
4769  D9051600           [0422] loadk      23  88       ; "ExterminateCurrentTier"
476D  A2850001           [0423] call       22  2   2  
4771  DD050000           [0424] getglobal  23  0        ; -332969190
4775  19461600           [0425] loadk      24  89       ; "ExterminateCurrentBossTier"
4779  E2850001           [0426] call       23  2   2  
477D  24C6CB00           [0427] self       24  1   303  ; -317790213
4781  9206000B           [0428] move       26  22     
4785  D9060700           [0429] loadk      27  28       ; 0
4789  22860002           [0430] call       24  4   2  
478D  64C6CB00           [0431] self       25  1   303  ; -317790213
4791  D206800B           [0432] move       27  23     
4795  19070700           [0433] loadk      28  28       ; 0
4799  62860002           [0434] call       25  4   2  
479D  A4865603           [0435] self       26  6   346  ; -207649908
47A1  19070700           [0436] loadk      28  28       ; 0
47A5  A2468001           [0437] call       26  3   1  
47A9  9DC60400           [0438] getglobal  26  19       ; _T
47AD  8EC6560D           [0439] gettable   26  26  347  ; "killCounter"
fail op	35
47B1  2300570D           [0440] close      0  
47B5  1A802480           [0441] jmp        147          ; to [589]
47B9  A4465703           [0442] self       26  6   349  ; 1285722776
47BD  1DC70400           [0443] getglobal  28  19       ; _T
47C1  0E87530E           [0444] gettable   28  28  334  ; "MaxEnemyCount"
47C5  A2468001           [0445] call       26  3   1  
47C9  A4865403           [0446] self       26  6   338  ; 1527427648
47CD  A2860001           [0447] call       26  2   2  
47D1  98060000           [0448] test       26      0    ; to [450] if true
47D5  1A401180           [0449] jmp        70           ; to [520]
47D9  A4865703           [0450] self       26  6   350  ; 1509769188
47DD  19871500           [0451] loadk      28  86       ; -51
47E1  59070700           [0452] loadk      29  28       ; 0
47E5  99C71000           [0453] loadk      30  67       ; 0
47E9  A2468002           [0454] call       26  5   1  
47ED  A4865703           [0455] self       26  6   350  ; 1509769188
47F1  19C71700           [0456] loadk      28  95       ; -113
47F5  59070400           [0457] loadk      29  16       ; 0
47F9  99071800           [0458] loadk      30  96       ; 0
47FD  A2468002           [0459] call       26  5   1  
4801  A4864A03           [0460] self       26  6   298  ; -933610048
4805  A2860001           [0461] call       26  2   2  
4809  E4465803           [0462] self       27  6   353  ; 1514446265
480D  E2860001           [0463] call       27  2   2  
4811  DC86860D           [0464] div        27  27  26 
4815  CDC60688           [0465] sub        27  272 27   ; 0
4819  0DC70688           [0466] sub        28  272 27   ; 0
481D  5D070A00           [0467] getglobal  29  40       ; math
4821  4E87D80E           [0468] gettable   29  29  354  ; 1710846250
4825  9207000E           [0469] move       30  28     
4829  D9C71800           [0470] loadk      31  99       ; -51
482D  62878001           [0471] call       29  3   2  
4831  A4875703           [0472] self       30  6   350  ; 1509769188
4835  04C8CF0E           [0473] mul        32  29  319  ; 0
4839  0D08880D           [0474] sub        32  27  32 
483D  4D48870D           [0475] sub        33  27  29 
4841  99480B00           [0476] loadk      34  45       ; 0
4845  A2478002           [0477] call       30  5   1  
4849  A4875703           [0478] self       30  6   350  ; 1509769188
484D  1208800D           [0479] move       32  27     
4851  5208800D           [0480] move       33  27     
4855  99480B00           [0481] loadk      34  45       ; 0
4859  A2478002           [0482] call       30  5   1  
485D  A4875703           [0483] self       30  6   350  ; 1509769188
4861  04C8CF0E           [0484] mul        32  29  319  ; 0
4865  0308880D           [0485] add        32  27  32 
4869  4348870D           [0486] add        33  27  29 
486D  99C81000           [0487] loadk      34  67       ; 0
4871  A2478002           [0488] call       30  5   1  
4875  5205800D           [0489] move       21  27     
4879  9C47CB0D           [0490] div        30  27  301  ; 0
487D  CD47870D           [0491] sub        31  27  29 
4881  04C8CF0E           [0492] mul        32  29  319  ; 0
4885  0D08880D           [0493] sub        32  27  32 
4889  0D885510           [0494] sub        32  32  342  ; -51
488D  4488870F           [0495] mul        33  31  30 
4891  DC078810           [0496] div        31  33  32 
4895  64885703           [0497] self       33  6   350  ; 1509769188
4899  CD08590F           [0498] sub        35  30  356  ; 10
489D  0D49D90F           [0499] sub        36  31  357  ; 41
48A1  59091800           [0500] loadk      37  96       ; 0
48A5  62488002           [0501] call       33  5   1  
48A9  64885703           [0502] self       33  6   350  ; 1509769188
48AD  D208000F           [0503] move       35  30     
48B1  1209800F           [0504] move       36  31     
48B5  59091800           [0505] loadk      37  96       ; 0
48B9  62488002           [0506] call       33  5   1  
48BD  64885703           [0507] self       33  6   350  ; 1509769188
48C1  C308590F           [0508] add        35  30  356  ; 10
48C5  0389D90F           [0509] add        36  31  358  ; -113
48C9  59490B00           [0510] loadk      37  45       ; 0
48CD  62488002           [0511] call       33  5   1  
48D1  1205000F           [0512] move       20  30     
48D5  64C85903           [0513] self       33  6   359  ; -215508952
48D9  D9081A00           [0514] loadk      35  104      ; 0
48DD  62488001           [0515] call       33  3   1  
48E1  64485A03           [0516] self       33  6   361  ; 200580111
48E5  D7088000           [0517] loadbool   35  1   0    ; true
48E9  62488001           [0518] call       33  3   1  
48ED  1A400E80           [0519] jmp        58           ; to [578]
48F1  5DC80100           [0520] getglobal  33  7        ; isArchwingMission
48F5  58080000           [0521] test       33      0    ; to [523] if true
48F9  1A400180           [0522] jmp        6            ; to [529]
48FD  64885703           [0523] self       33  6   350  ; 1509769188
4901  D9881A00           [0524] loadk      35  106      ; -51
4905  19090700           [0525] loadk      36  28       ; 0
4909  59C91000           [0526] loadk      37  67       ; 0
490D  62488002           [0527] call       33  5   1  
4911  1A000180           [0528] jmp        5            ; to [534]
4915  64885703           [0529] self       33  6   350  ; 1509769188
4919  D9881500           [0530] loadk      35  86       ; -51
491D  19090700           [0531] loadk      36  28       ; 0
4921  59C91000           [0532] loadk      37  67       ; 0
4925  62488002           [0533] call       33  5   1  
4929  64885703           [0534] self       33  6   350  ; 1509769188
492D  D9C81A00           [0535] loadk      35  107      ; -51
4931  19490E00           [0536] loadk      36  57       ; -102
4935  59490B00           [0537] loadk      37  45       ; 0
4939  62488002           [0538] call       33  5   1  
493D  64885703           [0539] self       33  6   350  ; 1509769188
4941  D9081B00           [0540] loadk      35  108      ; 102
4945  19C91A00           [0541] loadk      36  107      ; -51
4949  59490B00           [0542] loadk      37  45       ; 0
494D  62488002           [0543] call       33  5   1  
4951  64885703           [0544] self       33  6   350  ; 1509769188
4955  D9481B00           [0545] loadk      35  109      ; -51
4959  19C91A00           [0546] loadk      36  107      ; -51
495D  59C91000           [0547] loadk      37  67       ; 0
4961  62488002           [0548] call       33  5   1  
4965  64885703           [0549] self       33  6   350  ; 1509769188
4969  D9881B00           [0550] loadk      35  110      ; 51
496D  19091A00           [0551] loadk      36  104      ; 0
4971  59091800           [0552] loadk      37  96       ; 0
4975  62488002           [0553] call       33  5   1  
4979  64885703           [0554] self       33  6   350  ; 1509769188
497D  D9081A00           [0555] loadk      35  104      ; 0
4981  19C91B00           [0556] loadk      36  111      ; -102
4985  59091800           [0557] loadk      37  96       ; 0
4989  62488002           [0558] call       33  5   1  
498D  64885703           [0559] self       33  6   350  ; 1509769188
4991  D9481000           [0560] loadk      35  65       ; -51
4995  19C91B00           [0561] loadk      36  111      ; -102
4999  59490B00           [0562] loadk      37  45       ; 0
499D  62488002           [0563] call       33  5   1  
49A1  5DC80100           [0564] getglobal  33  7        ; isArchwingMission
49A5  58080000           [0565] test       33      0    ; to [567] if true
49A9  1A400180           [0566] jmp        6            ; to [573]
49AD  64885703           [0567] self       33  6   350  ; 1509769188
49B1  D9481000           [0568] loadk      35  65       ; -51
49B5  19090400           [0569] loadk      36  16       ; 0
49B9  59091800           [0570] loadk      37  96       ; 0
49BD  62488002           [0571] call       33  5   1  
49C1  1A000180           [0572] jmp        5            ; to [578]
49C5  64885703           [0573] self       33  6   350  ; 1509769188
49C9  D9C80E00           [0574] loadk      35  59       ; 102
49CD  19090400           [0575] loadk      36  16       ; 0
49D1  59091800           [0576] loadk      37  96       ; 0
49D5  62488002           [0577] call       33  5   1  
49D9  64085C03           [0578] self       33  6   368  ; -823678389
49DD  D7088000           [0579] loadbool   35  1   0    ; true
49E1  62488001           [0580] call       33  3   1  
49E5  64485C03           [0581] self       33  6   369  ; 389448612
49E9  D7088000           [0582] loadbool   35  1   0    ; true
49ED  62488001           [0583] call       33  3   1  
49F1  64485A03           [0584] self       33  6   361  ; 200580111
49F5  D7088000           [0585] loadbool   35  1   0    ; true
49F9  62488001           [0586] call       33  3   1  
49FD  64885C03           [0587] self       33  6   370  ; -882288891
4A01  62480001           [0588] call       33  2   1  
4A05  5DC80400           [0589] getglobal  33  19       ; _T
4A09  4C48D4AD           [0590] settable   33  347 337  ; "killCounter" 1
4A0D  5DC80400           [0591] getglobal  33  19       ; _T
4A11  4C48D4B9           [0592] settable   33  371 337  ; "UseAiDirectorPopulationSpawnCount" 1
4A15  5DC80400           [0593] getglobal  33  19       ; _T
4A19  4E88D310           [0594] gettable   33  33  334  ; "MaxEnemyCount"
4A1D  44C8CF10           [0595] mul        33  33  319  ; 0
4A21  99080700           [0596] loadk      34  28       ; 0
4A25  E4085D01           [0597] self       35  2   372  ; -1428211602
4A29  57098000           [0598] loadbool   37  1   0    ; true
4A2D  E2488001           [0599] call       35  3   1  
4A31  DDC80400           [0600] getglobal  35  19       ; _T
4A35  CE88D311           [0601] gettable   35  35  334  ; "MaxEnemyCount"
4A39  DC48CB11           [0602] div        35  35  301  ; 0
4A3D  17090000           [0603] loadbool   36  0   0    ; false
4A41  5D090A00           [0604] getglobal  37  40       ; math
4A45  4E49CA12           [0605] gettable   37  37  297  ; -150971781
4A49  9DC90400           [0606] getglobal  38  19       ; _T
4A4D  8E895313           [0607] gettable   38  38  334  ; "MaxEnemyCount"
4A51  62890001           [0608] call       37  2   2  
4A55  9DC90400           [0609] getglobal  38  19       ; _T
4A59  8C4989BA           [0610] settable   38  373 37   ; "IniEnemyCount"
4A5D  9D890300           [0611] getglobal  38  14       ; 1074689893
4A61  DDC90400           [0612] getglobal  39  19       ; _T
4A65  CE89DD13           [0613] gettable   39  39  374  ; "gSoftAbortMission"
4A69  A2890001           [0614] call       38  2   2  
4A6D  98090000           [0615] test       38      0    ; to [617] if true
4A71  1A400080           [0616] jmp        2            ; to [619]
4A75  9DC90400           [0617] getglobal  38  19       ; _T
4A79  8CC95DBB           [0618] settable   38  374 375  ; "gSoftAbortMission" 0
4A7D  97090000           [0619] loadbool   38  0   0    ; false
4A81  DD890300           [0620] getglobal  39  14       ; 1074689893
4A85  1DCA0400           [0621] getglobal  40  19       ; _T
4A89  0E0A5E14           [0622] gettable   40  40  376  ; "AddHudTracker"
4A8D  E2890001           [0623] call       39  2   2  
4A91  D8090000           [0624] test       39      0    ; to [626] if true
4A95  1AC00080           [0625] jmp        4            ; to [630]
4A99  DDC90300           [0626] getglobal  39  15       ; 538022378
4A9D  190A0700           [0627] loadk      40  28       ; 0
4AA1  E2490001           [0628] call       39  2   1  
4AA5  1A40FD7F           [0629] jmp        -10          ; to [620]
4AA9  D3098000           [0630] getupval   39  1      
4AAD  CE49DE13           [0631] gettable   39  39  377  ; -694534839
4AB1  198A1E00           [0632] loadk      40  122      ; "/Lotus/Language/Objectives/ExterminateObjective"
4AB5  594A0B00           [0633] loadk      41  45       ; 0
4AB9  E2498001           [0634] call       39  3   1  
4ABD  D3098000           [0635] getupval   39  1      
4AC1  CEC9DE13           [0636] gettable   39  39  379  ; -1079095470
4AC5  190A1F00           [0637] loadk      40  124      ; "/Lotus/Language/Game/EnemyCount"
4AC9  590A0700           [0638] loadk      41  28       ; 0
4ACD  920A8012           [0639] move       42  37     
4AD1  DD4A1F00           [0640] getglobal  43  125      ; exterminateBroadcastIcon
4AD5  E2498002           [0641] call       39  5   1  
4AD9  CE895F04           [0642] gettable   39  8   382  ; "missionType"
4ADD  1D0A0100           [0643] getglobal  40  4        ; Lotus_Game
4AE1  0ECA5F14           [0644] gettable   40  40  383  ; "MT_EXTERMINATION"
fail op	35
4AE5  23008A13           [0645] close      0  
4AE9  1AC00280           [0646] jmp        12           ; to [659]
4AED  130A0002           [0647] getupval   40  4      
4AF1  0E0A6014           [0648] gettable   40  40  384  ; 722494134
4AF5  594A2000           [0649] loadk      41  129      ; "DefenseExterminate"
4AF9  A50A0000           [0650] closure    42  0      
4AFD  13000002           [0651] getupval   0   4      
4B01  12008012           [0652] move       0   37     
4B05  C60A8015           [0653] loadnil    43  43     
4B09  224A0002           [0654] call       40  4   1  
4B0D  130A0002           [0655] getupval   40  4      
4B11  0E8A6014           [0656] gettable   40  40  386  ; 250746749
4B15  570A8000           [0657] loadbool   41  1   0    ; true
4B19  224A0001           [0658] call       40  2   1  
4B1D  190A0700           [0659] loadk      40  28       ; 0
4B21  520A8012           [0660] move       41  37     
4B25  9DCA0400           [0661] getglobal  42  19       ; _T
4B29  8E8A5315           [0662] gettable   42  42  334  ; "MaxEnemyCount"
4B2D  DDCA0400           [0663] getglobal  43  19       ; _T
4B31  24CB6003           [0664] self       44  6   387  ; 290519734
4B35  228B0001           [0665] call       44  2   2  
4B39  0D0B0316           [0666] sub        44  44  12 
4B3D  CC0A0BA7           [0667] settable   43  334 44   ; "MaxEnemyCount"
4B41  E40A6103           [0668] self       43  6   388  ; 1492527831
4B45  E28A0001           [0669] call       43  2   2  
4B49  4D098315           [0670] sub        37  43  12 
4B4D  D30A0002           [0671] getupval   43  4      
4B51  CE4AE115           [0672] gettable   43  43  389  ; 611846917
4B55  194B2000           [0673] loadk      44  129      ; "DefenseExterminate"
4B59  E28A0001           [0674] call       43  2   2  
4B5D  D80A0000           [0675] test       43      0    ; to [677] if true
4B61  1AC00480           [0676] jmp        20           ; to [697]
fail op	35
4B65  23408914           [0677] close      0  
4B69  1AC00080           [0678] jmp        4            ; to [683]
4B6D  DDCA0400           [0679] getglobal  43  19       ; _T
4B71  CE8AD315           [0680] gettable   43  43  334  ; "MaxEnemyCount"
fail op	35
4B75  63C00A15           [0681] close      1  
4B79  1A400380           [0682] jmp        14           ; to [697]
4B7D  D30A0002           [0683] getupval   43  4      
4B81  CE8AE115           [0684] gettable   43  43  390  ; -532707440
4B85  194B2000           [0685] loadk      44  129      ; "DefenseExterminate"
4B89  59CB2100           [0686] loadk      45  135      ; "KillCount"
4B8D  9DCB0400           [0687] getglobal  46  19       ; _T
4B91  8E8B5317           [0688] gettable   46  46  334  ; "MaxEnemyCount"
4B95  8D8B8B12           [0689] sub        46  37  46 
4B99  E24A0002           [0690] call       43  4   1  
4B9D  D30A0002           [0691] getupval   43  4      
4BA1  CE8AE115           [0692] gettable   43  43  390  ; -532707440
4BA5  194B2000           [0693] loadk      44  129      ; "DefenseExterminate"
4BA9  590B2200           [0694] loadk      45  136      ; "KillsRequired"
4BAD  920B8012           [0695] move       46  37     
4BB1  E24A0002           [0696] call       43  4   1  
4BB5  DDCA0400           [0697] getglobal  43  19       ; _T
4BB9  CE8AD315           [0698] gettable   43  43  334  ; "MaxEnemyCount"
fail op	21
4BBD  15408815           [0699] concat     0   43  33 
4BC1  1A400180           [0700] jmp        6            ; to [707]
fail op	21
4BC5  15406211           [0701] concat     0   34  393
4BC9  1AC00080           [0702] jmp        4            ; to [707]
4BCD  E48A6203           [0703] self       43  6   394  ; 117162989
4BD1  594B2200           [0704] loadk      45  137      ; 0
4BD5  E24A8001           [0705] call       43  3   1  
4BD9  99482200           [0706] loadk      34  137      ; 0
4BDD  DD0A0A00           [0707] getglobal  43  40       ; math
4BE1  CE8AD815           [0708] gettable   43  43  354  ; 1710846250
4BE5  240B4C03           [0709] self       44  6   304  ; 991298814
4BE9  228B0001           [0710] call       44  2   2  
4BED  648B4A03           [0711] self       45  6   298  ; -933610048
4BF1  628B0001           [0712] call       45  2   2  
4BF5  1C4B0B16           [0713] div        44  44  45 
4BF9  590B0400           [0714] loadk      45  16       ; 0
4BFD  E28A8001           [0715] call       43  3   2  
4C01  CDCA0A88           [0716] sub        43  272 43   ; 0
4C05  1DCB0100           [0717] getglobal  44  7        ; isArchwingMission
4C09  180B0000           [0718] test       44      0    ; to [720] if true
4C0D  1A801080           [0719] jmp        67           ; to [787]
4C11  248B4903           [0720] self       44  6   294  ; 447196028
4C15  970B8000           [0721] loadbool   46  1   0    ; true
4C19  224B8001           [0722] call       44  3   1  
fail op	21
4C1D  15C0E215           [0723] concat     0   43  395
4C21  1A000180           [0724] jmp        5            ; to [730]
4C25  24CB5103           [0725] self       44  6   327  ; -129759920
4C29  998B0F00           [0726] loadk      46  62       ; 0
4C2D  D90B1200           [0727] loadk      47  72       ; 0
4C31  224B0002           [0728] call       44  4   1  
4C35  1A000680           [0729] jmp        25           ; to [755]
fail op	21
4C39  1500E315           [0730] concat     0   43  396
4C3D  1A000180           [0731] jmp        5            ; to [737]
4C41  24CB5103           [0732] self       44  6   327  ; -129759920
4C45  994B2300           [0733] loadk      46  141      ; 0
4C49  D98B2300           [0734] loadk      47  142      ; 0
4C4D  224B0002           [0735] call       44  4   1  
4C51  1A400480           [0736] jmp        18           ; to [755]
fail op	21
4C55  15C0D515           [0737] concat     0   43  343
4C59  1A000180           [0738] jmp        5            ; to [744]
4C5D  24CB5103           [0739] self       44  6   327  ; -129759920
4C61  998B0F00           [0740] loadk      46  62       ; 0
4C65  D90B1200           [0741] loadk      47  72       ; 0
4C69  224B0002           [0742] call       44  4   1  
4C6D  1A800280           [0743] jmp        11           ; to [755]
fail op	21
4C71  1540D015           [0744] concat     0   43  321
4C75  1A000180           [0745] jmp        5            ; to [751]
4C79  24CB5103           [0746] self       44  6   327  ; -129759920
4C7D  994B2300           [0747] loadk      46  141      ; 0
4C81  D98B2300           [0748] loadk      47  142      ; 0
4C85  224B0002           [0749] call       44  4   1  
4C89  1AC00080           [0750] jmp        4            ; to [755]
4C8D  24CB5103           [0751] self       44  6   327  ; -129759920
4C91  990B1000           [0752] loadk      46  64       ; 0
4C95  D9CB2300           [0753] loadk      47  143      ; 0
4C99  224B0002           [0754] call       44  4   1  
fail op	21
4C9D  15C08A9D           [0755] concat     0   315 43 
4CA1  1A800480           [0756] jmp        19           ; to [776]
4CA5  98490000           [0757] test       38      1    ; to [759] if false
4CA9  1A000480           [0758] jmp        17           ; to [776]
4CAD  97098000           [0759] loadbool   38  1   0    ; true
4CB1  240B6403           [0760] self       44  6   400  ; -1504288900
4CB5  994B2400           [0761] loadk      46  145      ; 0
4CB9  D98B2400           [0762] loadk      47  146      ; 0
4CBD  190C0700           [0763] loadk      48  28       ; 0
4CC1  59CC2400           [0764] loadk      49  147      ; 0
4CC5  970C0000           [0765] loadbool   50  0   0    ; false
4CC9  D70C0000           [0766] loadbool   51  0   0    ; false
4CCD  170D0000           [0767] loadbool   52  0   0    ; false
4CD1  224B8004           [0768] call       44  9   1  
4CD5  240B6503           [0769] self       44  6   404  ; 1022855233
4CD9  970B8000           [0770] loadbool   46  1   0    ; true
4CDD  224B8001           [0771] call       44  3   1  
4CE1  240B5C03           [0772] self       44  6   368  ; -823678389
4CE5  970B0000           [0773] loadbool   46  0   0    ; false
4CE9  224B8001           [0774] call       44  3   1  
4CED  1A800280           [0775] jmp        11           ; to [787]
fail op	21
4CF1  15C0CF15           [0776] concat     0   43  319
4CF5  1A000280           [0777] jmp        9            ; to [787]
4CF9  98090000           [0778] test       38      0    ; to [780] if true
4CFD  1A800180           [0779] jmp        7            ; to [787]
4D01  97090000           [0780] loadbool   38  0   0    ; false
4D05  240B6503           [0781] self       44  6   404  ; 1022855233
4D09  970B0000           [0782] loadbool   46  0   0    ; false
4D0D  224B8001           [0783] call       44  3   1  
4D11  240B5C03           [0784] self       44  6   368  ; -823678389
4D15  970B8000           [0785] loadbool   46  1   0    ; true
4D19  224B8001           [0786] call       44  3   1  
4D1D  1D0B0A00           [0787] getglobal  44  40       ; math
4D21  0ECB5316           [0788] gettable   44  44  335  ; -1962864584
4D25  590B0700           [0789] loadk      45  28       ; 0
4D29  9D0B0A00           [0790] getglobal  46  40       ; math
4D2D  8E4B4A17           [0791] gettable   46  46  297  ; -150971781
4D31  DDCB0400           [0792] getglobal  47  19       ; _T
4D35  CE8BD317           [0793] gettable   47  47  334  ; "MaxEnemyCount"
4D39  CDCB8B12           [0794] sub        47  37  47 
4D3D  A20B0001           [0795] call       46  2   0  
4D41  228B0000           [0796] call       44  0   2  
4D45  5D0B0A00           [0797] getglobal  45  40       ; math
4D49  4E8BD816           [0798] gettable   45  45  354  ; 1710846250
4D4D  920B0016           [0799] move       46  44     
4D51  D20B8012           [0800] move       47  37     
4D55  628B8001           [0801] call       45  3   2  
4D59  120B8016           [0802] move       44  45     
4D5D  530B8000           [0803] getupval   45  1      
4D61  4E4BE516           [0804] gettable   45  45  405  ; 1690657933
4D65  920B0016           [0805] move       46  44     
4D69  D20B8012           [0806] move       47  37     
4D6D  624B8001           [0807] call       45  3   1  
4D71  18490000           [0808] test       36      1    ; to [810] if false
4D75  1AC00380           [0809] jmp        16           ; to [826]
4D79  5DCB0400           [0810] getglobal  45  19       ; _T
4D7D  4E8BD316           [0811] gettable   45  45  334  ; "MaxEnemyCount"
fail op	33
4D81  21C08816           [0812] tforloop   0       35   ; to [814] if exit
4D85  1AC00280           [0813] jmp        12           ; to [826]
4D89  648BE500           [0814] self       45  1   406  ; 952266004
4D8D  D70B8000           [0815] loadbool   47  1   0    ; true
4D91  624B8001           [0816] call       45  3   1  
4D95  5D0B0100           [0817] getglobal  45  4        ; Lotus_Game
4D99  4ECBDF16           [0818] gettable   45  45  383  ; "MT_EXTERMINATION"
fail op	35
4D9D  23408B13           [0819] close      0  
4DA1  1AC00080           [0820] jmp        4            ; to [825]
4DA5  530B0002           [0821] getupval   45  4      
4DA9  4ECBE516           [0822] gettable   45  45  407  ; 387243374
4DAD  994B2000           [0823] loadk      46  129      ; "DefenseExterminate"
4DB1  624B0001           [0824] call       45  2   1  
4DB5  17098000           [0825] loadbool   36  1   0    ; true
4DB9  5DCB0400           [0826] getglobal  45  19       ; _T
4DBD  4E8BD316           [0827] gettable   45  45  334  ; "MaxEnemyCount"
fail op	33
4DC1  6100C716           [0828] tforloop   1       284  ; to [830] if exit
4DC5  1A801380           [0829] jmp        79           ; to [909]
4DC9  5DCB0400           [0830] getglobal  45  19       ; _T
4DCD  4E8BDD16           [0831] gettable   45  45  374  ; "gSoftAbortMission"
4DD1  580B0000           [0832] test       45      0    ; to [834] if true
4DD5  1A000080           [0833] jmp        1            ; to [835]
4DD9  1A401280           [0834] jmp        74           ; to [909]
4DDD  5C4B0916           [0835] div        45  44  37 
4DE1  8B0B8001           [0836] newtable   46  3   0    ; array=3, hash=0
4DE5  D98B1A00           [0837] loadk      47  106      ; -51
4DE9  190C2600           [0838] loadk      48  152      ; -61
4DED  594C2600           [0839] loadk      49  153      ; -61
4DF1  9B4B8001           [0840] setlist    46  3   1    ; index 1 to 3
4DF5  CA0B0017           [0841] len        47  46     
4DF9  190C0400           [0842] loadk      48  16       ; 0
4DFD  598C2600           [0843] loadk      49  154      ; 0
4E01  D04B0380           [0844] forprep    47  14       ; to [859]
fail op	21
4E05  15800C0C           [0845] concat     0   24  50 
4E09  1AC00280           [0846] jmp        12           ; to [859]
4E0D  CE8C0C17           [0847] gettable   51  46  50 
fail op	21
4E11  15408B19           [0848] concat     0   51  45 
4E15  1A000280           [0849] jmp        9            ; to [859]
4E19  E48C5603           [0850] self       51  6   346  ; -207649908
4E1D  520D0019           [0851] move       53  50     
4E21  E24C8001           [0852] call       51  3   1  
4E25  12060019           [0853] move       24  50     
4E29  E44CCC00           [0854] self       51  1   305  ; -803877924
4E2D  520D000B           [0855] move       53  22     
4E31  920D000C           [0856] move       54  24     
4E35  E24C0002           [0857] call       51  4   1  
4E39  1A000080           [0858] jmp        1            ; to [860]
4E3D  D40BFC7F           [0859] forloop    47  -15      ; to [845] if loop
4E41  DDCC0400           [0860] getglobal  51  19       ; _T
4E45  CE0CC519           [0861] gettable   51  51  276  ; "gTutorialMission"
4E49  D84C0000           [0862] test       51      1    ; to [864] if false
4E4D  1A800780           [0863] jmp        31           ; to [895]
4E51  CB0C8001           [0864] newtable   51  3   0    ; array=3, hash=0
4E55  190D2600           [0865] loadk      52  152      ; -61
4E59  594D2600           [0866] loadk      53  153      ; -61
4E5D  99CD2600           [0867] loadk      54  155      ; -92
4E61  DB4C8001           [0868] setlist    51  3   1    ; index 1 to 3
4E65  0A0D0017           [0869] len        52  46     
4E69  590D0400           [0870] loadk      53  16       ; 0
4E6D  998D2600           [0871] loadk      54  154      ; 0
4E71  100D0580           [0872] forprep    52  21       ; to [894]
fail op	21
4E75  15C08D0C           [0873] concat     0   25  55 
4E79  1A800480           [0874] jmp        19           ; to [894]
4E7D  0ECE8D19           [0875] gettable   56  51  55 
fail op	21
4E81  15400B1C           [0876] concat     0   56  45 
4E85  1AC00380           [0877] jmp        16           ; to [894]
4E89  120E801B           [0878] move       56  55     
4E8D  5D0E0A00           [0879] getglobal  57  40       ; math
4E91  4E8ED81C           [0880] gettable   57  57  354  ; 1710846250
4E95  920E801B           [0881] move       58  55     
4E99  D20E8005           [0882] move       59  11     
4E9D  628E8001           [0883] call       57  3   2  
4EA1  930E8002           [0884] getupval   58  5      
4EA5  D20E001C           [0885] move       59  56     
4EA9  120F801C           [0886] move       60  57     
4EAD  A24E8001           [0887] call       58  3   1  
4EB1  5206801B           [0888] move       25  55     
4EB5  A44ECC00           [0889] self       58  1   305  ; -803877924
4EB9  120F800B           [0890] move       60  23     
4EBD  520F800C           [0891] move       61  25     
4EC1  A24E0002           [0892] call       58  4   1  
4EC5  1A000080           [0893] jmp        1            ; to [895]
4EC9  144DFA7F           [0894] forloop    52  -22      ; to [873] if loop
4ECD  9DCE0300           [0895] getglobal  58  15       ; 538022378
4ED1  D98E1A00           [0896] loadk      59  106      ; -51
4ED5  A24E0001           [0897] call       58  2   1  
4ED9  838E5A14           [0898] add        58  40  362  ; -51
4EDD  DD0E2700           [0899] getglobal  59  156      ; 1289681407
4EE1  E28E8000           [0900] call       59  1   2  
4EE5  03CA0E1D           [0901] add        40  58  59 
fail op	21
4EE9  15008AC4           [0902] concat     0   393 40 
4EED  1AC0C27F           [0903] jmp        -244         ; to [660]
4EF1  190A0700           [0904] loadk      40  28       ; 0
4EF5  A44E6703           [0905] self       58  6   413  ; -680726946
4EF9  198F2700           [0906] loadk      60  158      ; 0
4EFD  A24E8001           [0907] call       58  3   1  
4F01  1A80C17F           [0908] jmp        -249         ; to [660]
4F05  9DCE0400           [0909] getglobal  58  19       ; _T
4F09  8E8E5D1D           [0910] gettable   58  58  374  ; "gSoftAbortMission"
4F0D  980E0000           [0911] test       58      0    ; to [913] if true
4F11  1AC00080           [0912] jmp        4            ; to [917]
4F15  930E8000           [0913] getupval   58  1      
4F19  8E4E421D           [0914] gettable   58  58  265  ; 504400121
4F1D  A24E8000           [0915] call       58  1   1  
4F21  1AC00880           [0916] jmp        36           ; to [953]
4F25  9D0E0100           [0917] getglobal  58  4        ; Lotus_Game
4F29  8E4E411D           [0918] gettable   58  58  261  ; "MT_INTEL"
fail op	35
4F2D  23800E04           [0919] close      0  
4F31  1A400280           [0920] jmp        10           ; to [931]
4F35  930E0001           [0921] getupval   58  2      
4F39  8E8E461D           [0922] gettable   58  58  282  ; -78033590
4F3D  DDCE0400           [0923] getglobal  59  19       ; _T
4F41  CE4EC51D           [0924] gettable   59  59  277  ; "MissionTransmissionSet"
4F45  1D0F0000           [0925] getglobal  60  0        ; -332969190
4F49  59CF2700           [0926] loadk      61  159      ; "ExterminateObjectiveComplete"
4F4D  228F0001           [0927] call       60  2   2  
4F51  590F0700           [0928] loadk      61  28       ; 0
4F55  A24E0002           [0929] call       58  4   1  
4F59  1A400580           [0930] jmp        22           ; to [953]
4F5D  930E0001           [0931] getupval   58  2      
4F61  8E4E471D           [0932] gettable   58  58  285  ; 14052933
4F65  DDCE0400           [0933] getglobal  59  19       ; _T
4F69  CE4EC51D           [0934] gettable   59  59  277  ; "MissionTransmissionSet"
4F6D  1D0F0000           [0935] getglobal  60  0        ; -332969190
4F71  590F2800           [0936] loadk      61  160      ; "ObjectiveComplete"
4F75  228F0001           [0937] call       60  2   2  
4F79  590F0700           [0938] loadk      61  28       ; 0
4F7D  9DCF0400           [0939] getglobal  62  19       ; _T
4F81  8E8F471F           [0940] gettable   62  62  286  ; "faction"
4F85  A28E8002           [0941] call       58  5   2  
4F89  984E0000           [0942] test       58      1    ; to [944] if false
4F8D  1A000280           [0943] jmp        9            ; to [953]
4F91  930E0001           [0944] getupval   58  2      
4F95  8E8E461D           [0945] gettable   58  58  282  ; -78033590
4F99  DDCE0400           [0946] getglobal  59  19       ; _T
4F9D  CE4EC51D           [0947] gettable   59  59  277  ; "MissionTransmissionSet"
4FA1  1D0F0000           [0948] getglobal  60  0        ; -332969190
4FA5  590F2800           [0949] loadk      61  160      ; "ObjectiveComplete"
4FA9  228F0001           [0950] call       60  2   2  
4FAD  590F0700           [0951] loadk      61  28       ; 0
4FB1  A24E0002           [0952] call       58  4   1  
4FB5  930E8001           [0953] getupval   58  3      
4FB9  8E4E481D           [0954] gettable   58  58  289  ; 198248041
4FBD  A28E8000           [0955] call       58  1   2  
4FC1  DD8E0300           [0956] getglobal  59  14       ; 1074689893
4FC5  120F001D           [0957] move       60  58     
4FC9  E28E0001           [0958] call       59  2   2  
4FCD  D84E0000           [0959] test       59      1    ; to [961] if false
4FD1  1AC00480           [0960] jmp        20           ; to [981]
4FD5  DD8E0300           [0961] getglobal  59  14       ; 1074689893
4FD9  120F0003           [0962] move       60  6      
4FDD  E28E0001           [0963] call       59  2   2  
4FE1  D84E0000           [0964] test       59      1    ; to [966] if false
4FE5  1A800380           [0965] jmp        15           ; to [981]
4FE9  E4CE4803           [0966] self       59  6   291  ; -906150570
4FED  520F001D           [0967] move       61  58     
4FF1  E24E8001           [0968] call       59  3   1  
4FF5  E44E6803           [0969] self       59  6   417  ; 1511800001
4FF9  594F0B00           [0970] loadk      61  45       ; 0
4FFD  E24E8001           [0971] call       59  3   1  
5001  E48E6803           [0972] self       59  6   418  ; -950977986
5005  5D0F0000           [0973] getglobal  61  0        ; -332969190
5009  99CF2800           [0974] loadk      62  163      ; "MoraleBroken"
500D  628F0001           [0975] call       61  2   2  
5011  920F001D           [0976] move       62  58     
5015  E24E0002           [0977] call       59  4   1  
5019  E40E691D           [0978] self       59  58  420  ; -1923578185
501D  594F2900           [0979] loadk      61  165      ; "Enable"
5021  E24E8001           [0980] call       59  3   1  
5025  E48EE900           [0981] self       59  1   422  ; 2051260977
5029  570F8000           [0982] loadbool   61  1   0    ; true
502D  E24E8001           [0983] call       59  3   1  
5031  D30E8000           [0984] getupval   59  1      
5035  CECEE91D           [0985] gettable   59  59  423  ; -1903315282
5039  E24E8000           [0986] call       59  1   1  
503D  DDCE0400           [0987] getglobal  59  19       ; _T
5041  CE8EDD1D           [0988] gettable   59  59  374  ; "gSoftAbortMission"
5045  D84E0000           [0989] test       59      1    ; to [991] if false
5049  1A400180           [0990] jmp        6            ; to [997]
504D  E40E5D01           [0991] self       59  2   372  ; -1428211602
5051  570F0000           [0992] loadbool   61  0   0    ; false
5055  E24E8001           [0993] call       59  3   1  
5059  E48E5603           [0994] self       59  6   346  ; -207649908
505D  590F0700           [0995] loadk      61  28       ; 0
5061  E24E8001           [0996] call       59  3   1  
5065  DD0E0100           [0997] getglobal  59  4        ; Lotus_Game
5069  CECEDF1D           [0998] gettable   59  59  383  ; "MT_EXTERMINATION"
fail op	35
506D  23C08E13           [0999] close      0  
5071  1A400180           [1000] jmp        6            ; to [1007]
5075  D30E0002           [1001] getupval   59  4      
5079  CE0EEA1D           [1002] gettable   59  59  424  ; -1084877855
507D  194F2000           [1003] loadk      60  129      ; "DefenseExterminate"
5081  530F0002           [1004] getupval   61  4      
5085  4E4FEA1E           [1005] gettable   61  61  425  ; "SUCCESS"
5089  E24E8001           [1006] call       59  3   1  
508D  DDCE0300           [1007] getglobal  59  15       ; 538022378
5091  190F1000           [1008] loadk      60  64       ; 0
5095  E24E0001           [1009] call       59  2   1  
5099  D30E8000           [1010] getupval   59  1      
509D  CE4EC21D           [1011] gettable   59  59  265  ; 504400121
50A1  E24E8000           [1012] call       59  1   1  
50A5  1E008000           [1013] return     0   1      
                         * constants:
50AA  01                 sizek (170)
50AB  01                 const type 3
50AC  1A4B27EC           const [0]: (-332969190)
50B0  04                 const type 4
50B1  0F                 string size (15)
50B2  45787465726D696E+  "Extermin"
50BA  6174654D696400     "ateMid\0"
                         const [1]: "ExterminateMid"
50C1  04                 const type 4
50C2  0B                 string size (11)
50C3  6747616D6552756C+  "gGameRul"
50CB  657300             "es\0"
                         const [2]: "gGameRules"
50CE  01                 const type 3
50CF  19C50DE2           const [3]: (-502414055)
50D3  04                 const type 4
50D4  0B                 string size (11)
50D5  4C6F7475735F4761+  "Lotus_Ga"
50DD  6D6500             "me\0"
                         const [4]: "Lotus_Game"
50E0  04                 const type 4
50E1  09                 string size (9)
50E2  4D545F494E54454C+  "MT_INTEL"
50EA  00                 "\0"
                         const [5]: "MT_INTEL"
50EB  04                 const type 4
50EC  17                 string size (23)
50ED  737769746368546F+  "switchTo"
50F5  45787465726D696E+  "Extermin"
50FD  6174654F626A00     "ateObj\0"
                         const [6]: "switchToExterminateObj"
5104  04                 const type 4
5105  12                 string size (18)
5106  6973417263687769+  "isArchwi"
510E  6E674D697373696F+  "ngMissio"
5116  6E00               "n\0"
                         const [7]: "isArchwingMission"
5118  01                 const type 3
5119  5654C1E3           const [8]: (-473869226)
511D  01                 const type 3
511E  F988101E           const [9]: (504400121)
5122  01                 const type 3
5123  4617C485           const [10]: (-2050746554)
5127  01                 const type 3
5128  2254F655           const [11]: (1442206754)
512C  04                 const type 4
512D  08                 string size (8)
512E  67526567696F6E00   "gRegion\0"
                         const [12]: "gRegion"
5136  01                 const type 3
5137  BFF6E203           const [13]: (65205951)
513B  01                 const type 3
513C  65770E40           const [14]: (1074689893)
5140  01                 const type 3
5141  EA911120           const [15]: (538022378)
5145  03                 const type 3
5146  0000803F           const [16]: (0)
514A  04                 const type 4
514B  09                 string size (9)
514C  4D545F5055524745+  "MT_PURGE"
5154  00                 "\0"
                         const [17]: "MT_PURGE"
5155  01                 const type 3
5156  58F559A5           const [18]: (-1520831144)
515A  04                 const type 4
515B  03                 string size (3)
515C  5F5400             "_T\0"
                         const [19]: "_T"
515F  04                 const type 4
5160  11                 string size (17)
5161  675475746F726961+  "gTutoria"
5169  6C4D697373696F6E+  "lMission"
5171  00                 "\0"
                         const [20]: "gTutorialMission"
5172  04                 const type 4
5173  17                 string size (23)
5174  4D697373696F6E54+  "MissionT"
517C  72616E736D697373+  "ransmiss"
5184  696F6E53657400     "ionSet\0"
                         const [21]: "MissionTransmissionSet"
518B  04                 const type 4
518C  0E                 string size (14)
518D  6751756573744D69+  "gQuestMi"
5195  7373696F6E00       "ssion\0"
                         const [22]: "gQuestMission"
519B  04                 const type 4
519C  10                 string size (16)
519D  7472616E736D6973+  "transmis"
51A5  73696F6E53657400   "sionSet\0"
                         const [23]: "transmissionSet"
51AD  04                 const type 4
51AE  09                 string size (9)
51AF  674E656D65736973+  "gNemesis"
51B7  00                 "\0"
                         const [24]: "gNemesis"
51B8  04                 const type 4
51B9  08                 string size (8)
51BA  6D697373696F6E00   "mission\0"
                         const [25]: "mission"
51C2  01                 const type 3
51C3  4A4D59FB           const [26]: (-78033590)
51C7  04                 const type 4
51C8  0F                 string size (15)
51C9  4F626A6563746976+  "Objectiv"
51D1  65537461727400     "eStart\0"
                         const [27]: "ObjectiveStart"
51D8  03                 const type 3
51D9  00000000           const [28]: (0)
51DD  01                 const type 3
51DE  456ED600           const [29]: (14052933)
51E2  04                 const type 4
51E3  08                 string size (8)
51E4  66616374696F6E00   "faction\0"
                         const [30]: "faction"
51EC  01                 const type 3
51ED  90F9CED1           const [31]: (-774964848)
51F1  01                 const type 3
51F2  73290920           const [32]: (537471347)
51F6  01                 const type 3
51F7  6906D10B           const [33]: (198248041)
51FB  01                 const type 3
51FC  A61BE9C5           const [34]: (-974578778)
5200  01                 const type 3
5201  563DFDC9           const [35]: (-906150570)
5205  01                 const type 3
5206  2E05C573           const [36]: (1942291758)
520A  01                 const type 3
520B  CAED82B5           const [37]: (-1249710646)
520F  01                 const type 3
5210  7CABA71A           const [38]: (447196028)
5214  01                 const type 3
5215  497363B8           const [39]: (-1201441975)
5219  04                 const type 4
521A  05                 string size (5)
521B  6D61746800         "math\0"
                         const [40]: "math"
5220  01                 const type 3
5221  7B5A00F7           const [41]: (-150971781)
5225  01                 const type 3
5226  C03D5AC8           const [42]: (-933610048)
522A  03                 const type 3
522B  00007041           const [43]: (0)
522F  01                 const type 3
5230  9F5E607B           const [44]: (2069913247)
5234  03                 const type 3
5235  00000040           const [45]: (0)
5239  03                 const type 3
523A  9A99993F           const [46]: (-102)
523E  01                 const type 3
523F  FBE70EED           const [47]: (-317790213)
5243  01                 const type 3
5244  FE04163B           const [48]: (991298814)
5248  01                 const type 3
5249  DCCB15D0           const [49]: (-803877924)
524D  01                 const type 3
524E  160D6B3E           const [50]: (1047203094)
5252  01                 const type 3
5253  38A36BF9           const [51]: (-110386376)
5257  04                 const type 4
5258  0C                 string size (12)
5259  496E666573746174+  "Infestat"
5261  696F6E00           "ion\0"
                         const [52]: "Infestation"
5265  04                 const type 4
5266  0E                 string size (14)
5267  674368616C6C656E+  "gChallen"
526F  67654D677200       "geMgr\0"
                         const [53]: "gChallengeMgr"
5275  01                 const type 3
5276  DCD6FF64           const [54]: (1694488284)
527A  04                 const type 4
527B  07                 string size (7)
527C  4F726F6B696E00     "Orokin\0"
                         const [55]: "Orokin"
5283  04                 const type 4
5284  09                 string size (9)
5285  53656E7469656E74+  "Sentient"
528D  00                 "\0"
                         const [56]: "Sentient"
528E  03                 const type 3
528F  9A99993E           const [57]: (-102)
5293  01                 const type 3
5294  554B0393           const [58]: (-1828500651)
5298  03                 const type 3
5299  6666663F           const [59]: (102)
529D  04                 const type 4
529E  0B                 string size (11)
529F  646966666963756C+  "difficul"
52A7  747900             "ty\0"
                         const [60]: "difficulty"
52AA  01                 const type 3
52AB  F0D1E3EA           const [61]: (-354168336)
52AF  03                 const type 3
52B0  0000A040           const [62]: (0)
52B4  03                 const type 3
52B5  0000003F           const [63]: (0)
52B9  03                 const type 3
52BA  00002041           const [64]: (0)
52BE  03                 const type 3
52BF  CDCC4C3F           const [65]: (-51)
52C3  01                 const type 3
52C4  5C9D3502           const [66]: (37068124)
52C8  03                 const type 3
52C9  0000C03F           const [67]: (0)
52CD  04                 const type 4
52CE  11                 string size (17)
52CF  666F726365416C6C+  "forceAll"
52D7  7946616374696F6E+  "yFaction"
52DF  00                 "\0"
                         const [68]: "forceAllyFaction"
52E0  04                 const type 4
52E1  1F                 string size (31)
52E2  7370616365426174+  "spaceBat"
52EA  746C654B696C6C43+  "tleKillC"
52F2  6F756E744D756C74+  "ountMult"
52FA  69706C69657200     "iplier\0"
                         const [69]: "spaceBattleKillCountMultiplier"
5301  01                 const type 3
5302  2C59583A           const [70]: (978868524)
5306  01                 const type 3
5307  500544F8           const [71]: (-129759920)
530B  03                 const type 3
530C  00008041           const [72]: (0)
5310  04                 const type 4
5311  09                 string size (9)
5312  736F727469654964+  "sortieId"
531A  00                 "\0"
                         const [73]: "sortieId"
531B  04                 const type 4
531C  01                 string size (0)
                         const [74]: ""
531E  04                 const type 4
531F  0A                 string size (10)
5320  6E696768746D6172+  "nightmar"
5328  6500               "e\0"
                         const [75]: "nightmare"
532A  04                 const type 4
532B  13                 string size (19)
532C  6973536861726B77+  "isSharkw"
5334  696E674D69737369+  "ingMissi"
533C  6F6E00             "on\0"
                         const [76]: "isSharkwingMission"
533F  03                 const type 3
5340  0000A03F           const [77]: (0)
5344  04                 const type 4
5345  0E                 string size (14)
5346  4D6178456E656D79+  "MaxEnemy"
534E  436F756E7400       "Count\0"
                         const [78]: "MaxEnemyCount"
5354  01                 const type 3
5355  3810018B           const [79]: (-1962864584)
5359  04                 const type 4
535A  0E                 string size (14)
535B  4576656E74486172+  "EventHar"
5363  644D6F646500       "dMode\0"
                         const [80]: "EventHardMode"
5369  01                 const type 3
536A  01000000           const [81]: (1)
536E  01                 const type 3
536F  40B20A5B           const [82]: (1527427648)
5373  03                 const type 3
5374  6666A63F           const [83]: (102)
5378  03                 const type 3
5379  9A99193E           const [84]: (-102)
537D  03                 const type 3
537E  00004842           const [85]: (0)
5382  03                 const type 3
5383  CDCC4C3D           const [86]: (-51)
5387  03                 const type 3
5388  9A99193F           const [87]: (-102)
538C  04                 const type 4
538D  17                 string size (23)
538E  45787465726D696E+  "Extermin"
5396  6174654375727265+  "ateCurre"
539E  6E745469657200     "ntTier\0"
                         const [88]: "ExterminateCurrentTier"
53A5  04                 const type 4
53A6  1B                 string size (27)
53A7  45787465726D696E+  "Extermin"
53AF  6174654375727265+  "ateCurre"
53B7  6E74426F73735469+  "ntBossTi"
53BF  657200             "er\0"
                         const [89]: "ExterminateCurrentBossTier"
53C2  01                 const type 3
53C3  8C839FF3           const [90]: (-207649908)
53C7  04                 const type 4
53C8  0C                 string size (12)
53C9  6B696C6C436F756E+  "killCoun"
53D1  74657200           "ter\0"
                         const [91]: "killCounter"
53D5  00                 const type 0
                         const [92]: nil
53D6  01                 const type 3
53D7  9892A24C           const [93]: (1285722776)
53DB  01                 const type 3
53DC  E43FFD59           const [94]: (1509769188)
53E0  03                 const type 3
53E1  8FC2753F           const [95]: (-113)
53E5  03                 const type 3
53E6  00002040           const [96]: (0)
53EA  01                 const type 3
53EB  B99D445A           const [97]: (1514446265)
53EF  01                 const type 3
53F0  2A71F965           const [98]: (1710846250)
53F4  03                 const type 3
53F5  CDCC4C3E           const [99]: (-51)
53F9  03                 const type 3
53FA  0AD7233D           const [100]: (10)
53FE  03                 const type 3
53FF  295C8F3D           const [101]: (41)
5403  03                 const type 3
5404  8FC2F53C           const [102]: (-113)
5408  01                 const type 3
5409  289827F3           const [103]: (-215508952)
540D  03                 const type 3
540E  0000403F           const [104]: (0)
5412  01                 const type 3
5413  0F9CF40B           const [105]: (200580111)
5417  03                 const type 3
5418  CDCCCC3D           const [106]: (-51)
541C  03                 const type 3
541D  CDCCCC3E           const [107]: (-51)
5421  03                 const type 3
5422  6666E63E           const [108]: (102)
5426  03                 const type 3
5427  CDCC0C3F           const [109]: (-51)
542B  03                 const type 3
542C  3333333F           const [110]: (51)
5430  03                 const type 3
5431  9A99593F           const [111]: (-102)
5435  01                 const type 3
5436  4BAAE7CE           const [112]: (-823678389)
543A  01                 const type 3
543B  A4833617           const [113]: (389448612)
543F  01                 const type 3
5440  055769CB           const [114]: (-882288891)
5444  04                 const type 4
5445  22                 string size (34)
5446  5573654169446972+  "UseAiDir"
544E  6563746F72506F70+  "ectorPop"
5456  756C6174696F6E53+  "ulationS"
545E  7061776E436F756E+  "pawnCoun"
5466  7400               "t\0"
                         const [115]: "UseAiDirectorPopulationSpawnCount"
5468  01                 const type 3
5469  6E38DFAA           const [116]: (-1428211602)
546D  04                 const type 4
546E  0E                 string size (14)
546F  496E69456E656D79+  "IniEnemy"
5477  436F756E7400       "Count\0"
                         const [117]: "IniEnemyCount"
547D  04                 const type 4
547E  12                 string size (18)
547F  67536F667441626F+  "gSoftAbo"
5487  72744D697373696F+  "rtMissio"
548F  6E00               "n\0"
                         const [118]: "gSoftAbortMission"
5491  01                 const type 3
5492  00000000           const [119]: (0)
5496  04                 const type 4
5497  0E                 string size (14)
5498  4164644875645472+  "AddHudTr"
54A0  61636B657200       "acker\0"
                         const [120]: "AddHudTracker"
54A6  01                 const type 3
54A7  493D9AD6           const [121]: (-694534839)
54AB  04                 const type 4
54AC  30                 string size (48)
54AD  2F4C6F7475732F4C+  "/Lotus/L"
54B5  616E67756167652F+  "anguage/"
54BD  4F626A6563746976+  "Objectiv"
54C5  65732F4578746572+  "es/Exter"
54CD  6D696E6174654F62+  "minateOb"
54D5  6A65637469766500   "jective\0"
                         const [122]: "/Lotus/Language/Objectives/ExterminateObjective"
54DD  01                 const type 3
54DE  524FAEBF           const [123]: (-1079095470)
54E2  04                 const type 4
54E3  20                 string size (32)
54E4  2F4C6F7475732F4C+  "/Lotus/L"
54EC  616E67756167652F+  "anguage/"
54F4  47616D652F456E65+  "Game/Ene"
54FC  6D79436F756E7400   "myCount\0"
                         const [124]: "/Lotus/Language/Game/EnemyCount"
5504  04                 const type 4
5505  19                 string size (25)
5506  65787465726D696E+  "extermin"
550E  61746542726F6164+  "ateBroad"
5516  6361737449636F6E+  "castIcon"
551E  00                 "\0"
                         const [125]: "exterminateBroadcastIcon"
551F  04                 const type 4
5520  0C                 string size (12)
5521  6D697373696F6E54+  "missionT"
5529  79706500           "ype\0"
                         const [126]: "missionType"
552D  04                 const type 4
552E  11                 string size (17)
552F  4D545F4558544552+  "MT_EXTER"
5537  4D494E4154494F4E+  "MINATION"
553F  00                 "\0"
                         const [127]: "MT_EXTERMINATION"
5540  01                 const type 3
5541  B662102B           const [128]: (722494134)
5545  04                 const type 4
5546  13                 string size (19)
5547  446566656E736545+  "DefenseE"
554F  787465726D696E61+  "xtermina"
5557  746500             "te\0"
                         const [129]: "DefenseExterminate"
555A  01                 const type 3
555B  7D17F20E           const [130]: (250746749)
555F  01                 const type 3
5560  B6FA5011           const [131]: (290519734)
5564  01                 const type 3
5565  D72AF658           const [132]: (1492527831)
5569  01                 const type 3
556A  050B7824           const [133]: (611846917)
556E  01                 const type 3
556F  90873FE0           const [134]: (-532707440)
5573  04                 const type 4
5574  0A                 string size (10)
5575  4B696C6C436F756E+  "KillCoun"
557D  7400               "t\0"
                         const [135]: "KillCount"
557F  04                 const type 4
5580  0E                 string size (14)
5581  4B696C6C73526571+  "KillsReq"
5589  756972656400       "uired\0"
                         const [136]: "KillsRequired"
558F  03                 const type 3
5590  00004040           const [137]: (0)
5594  01                 const type 3
5595  EDC3FB06           const [138]: (117162989)
5599  03                 const type 3
559A  0000803E           const [139]: (0)
559E  03                 const type 3
559F  3333B33E           const [140]: (51)
55A3  03                 const type 3
55A4  00000041           const [141]: (0)
55A8  03                 const type 3
55A9  0000A041           const [142]: (0)
55AD  03                 const type 3
55AE  0000C041           const [143]: (0)
55B2  01                 const type 3
55B3  7C5F56A6           const [144]: (-1504288900)
55B7  03                 const type 3
55B8  00007042           const [145]: (0)
55BC  03                 const type 3
55BD  00009643           const [146]: (0)
55C1  03                 const type 3
55C2  0000C040           const [147]: (0)
55C6  01                 const type 3
55C7  4188F73C           const [148]: (1022855233)
55CB  01                 const type 3
55CC  8D64C564           const [149]: (1690657933)
55D0  01                 const type 3
55D1  146DC238           const [150]: (952266004)
55D5  01                 const type 3
55D6  6EDD1417           const [151]: (387243374)
55DA  03                 const type 3
55DB  C3F5A83E           const [152]: (-61)
55DF  03                 const type 3
55E0  C3F5283F           const [153]: (-61)
55E4  03                 const type 3
55E5  000080BF           const [154]: (0)
55E9  03                 const type 3
55EA  A4707D3F           const [155]: (-92)
55EE  01                 const type 3
55EF  FFF9DE4C           const [156]: (1289681407)
55F3  01                 const type 3
55F4  5EEE6CD7           const [157]: (-680726946)
55F8  03                 const type 3
55F9  0000C842           const [158]: (0)
55FD  04                 const type 4
55FE  1D                 string size (29)
55FF  45787465726D696E+  "Extermin"
5607  6174654F626A6563+  "ateObjec"
560F  74697665436F6D70+  "tiveComp"
5617  6C65746500         "lete\0"
                         const [159]: "ExterminateObjectiveComplete"
561C  04                 const type 4
561D  12                 string size (18)
561E  4F626A6563746976+  "Objectiv"
5626  65436F6D706C6574+  "eComplet"
562E  6500               "e\0"
                         const [160]: "ObjectiveComplete"
5630  01                 const type 3
5631  C13C1C5A           const [161]: (1511800001)
5635  01                 const type 3
5636  3E3A51C7           const [162]: (-950977986)
563A  04                 const type 4
563B  0D                 string size (13)
563C  4D6F72616C654272+  "MoraleBr"
5644  6F6B656E00         "oken\0"
                         const [163]: "MoraleBroken"
5649  01                 const type 3
564A  B786588D           const [164]: (-1923578185)
564E  04                 const type 4
564F  07                 string size (7)
5650  456E61626C6500     "Enable\0"
                         const [165]: "Enable"
5657  01                 const type 3
5658  31C2437A           const [166]: (2051260977)
565C  01                 const type 3
565D  AEB68D8E           const [167]: (-1903315282)
5661  01                 const type 3
5662  E11356BF           const [168]: (-1084877855)
5666  04                 const type 4
5667  08                 string size (8)
5668  5355434345535300   "SUCCESS\0"
                         const [169]: "SUCCESS"
                         * functions:
5670  01                 sizep (1)
                         
5671                     ** function [0] definition (level 3)
                         ** start of function **
5671  00                 string size (0)
                         source name: (none)
5673  07                 line defined (968)
5674  CB                 last line defined (971)
5675  07                 nups (2)
5676  02                 numparams (0)
5677  00                 is_vararg (0)
5678  00                 maxstacksize (4)
                         * code:
567A  0D                 sizecode (13)
567B  13000000           [01] getupval   0   0      
567F  0E004000           [02] gettable   0   0   256  ; -532707440
5683  59400000           [03] loadk      1   1        ; "DefenseExterminate"
5687  99800000           [04] loadk      2   2        ; "KillCount"
568B  D9C00000           [05] loadk      3   3        ; 0
568F  22400002           [06] call       0   4   1  
5693  13000000           [07] getupval   0   0      
5697  0E004000           [08] gettable   0   0   256  ; -532707440
569B  59400000           [09] loadk      1   1        ; "DefenseExterminate"
569F  99000100           [10] loadk      2   4        ; "KillsRequired"
56A3  D3008000           [11] getupval   3   1      
56A7  22400002           [12] call       0   4   1  
56AB  1E008000           [13] return     0   1      
                         * constants:
56AF  05                 sizek (5)
56B0  01                 const type 3
56B1  90873FE0           const [0]: (-532707440)
56B5  04                 const type 4
56B6  13                 string size (19)
56B7  446566656E736545+  "DefenseE"
56BF  787465726D696E61+  "xtermina"
56C7  746500             "te\0"
                         const [1]: "DefenseExterminate"
56CA  04                 const type 4
56CB  0A                 string size (10)
56CC  4B696C6C436F756E+  "KillCoun"
56D4  7400               "t\0"
                         const [2]: "KillCount"
56D6  03                 const type 3
56D7  00000000           const [3]: (0)
56DB  04                 const type 4
56DC  0E                 string size (14)
56DD  4B696C6C73526571+  "KillsReq"
56E5  756972656400       "uired\0"
                         const [4]: "KillsRequired"
                         * functions:
56EB  00                 sizep (0)
                         * lines:
56EC  0D                 sizelineinfo (13)
                         [pc] (line)
56ED  C9                 [01] (-55)
56EE  03                 [02] (-55)
56EF  00                 [03] (-55)
56F0  00                 [04] (-55)
56F1  C9                 [05] (-55)
56F2  03                 [06] (-55)
56F3  00                 [07] (-54)
56F4  00                 [08] (-54)
56F5  C9                 [09] (-54)
56F6  03                 [10] (-54)
56F7  00                 [11] (-54)
56F8  00                 [12] (-54)
56F9  C9                 [13] (-53)
                         * locals:
5721  00                 sizelocvars (0)
                         * upvalues:
5722  00                 sizeupvalues (0)
                         ** end of function **

                         * lines:
5724  07                 sizelineinfo (1013)
                         [pc] (line)
5725  AF                 [0001] (-81)
5726  02                 [0002] (-81)
5727  00                 [0003] (-81)
5728  00                 [0004] (-80)
5729  AF                 [0005] (-79)
572A  02                 [0006] (-79)
572B  00                 [0007] (-78)
572C  00                 [0008] (-78)
572D  AF                 [0009] (-76)
572E  02                 [0010] (-76)
572F  00                 [0011] (-76)
5730  00                 [0012] (-76)
5731  B0                 [0013] (-75)
5732  02                 [0014] (-75)
5733  00                 [0015] (-72)
5734  00                 [0016] (-72)
5735  B1                 [0017] (-72)
5736  02                 [0018] (-72)
5737  00                 [0019] (-72)
5738  00                 [0020] (-72)
5739  B1                 [0021] (-71)
573A  02                 [0022] (-68)
573B  00                 [0023] (-68)
573C  00                 [0024] (-68)
573D  B2                 [0025] (-67)
573E  02                 [0026] (-67)
573F  00                 [0027] (-67)
5740  00                 [0028] (-66)
5741  B2                 [0029] (-66)
5742  02                 [0030] (-66)
5743  00                 [0031] (-65)
5744  00                 [0032] (-65)
5745  B4                 [0033] (-65)
5746  02                 [0034] (-64)
5747  00                 [0035] (-64)
5748  00                 [0036] (-64)
5749  B4                 [0037] (-59)
574A  02                 [0038] (-59)
574B  00                 [0039] (-59)
574C  00                 [0040] (-58)
574D  B4                 [0041] (-58)
574E  02                 [0042] (-58)
574F  00                 [0043] (-58)
5750  00                 [0044] (-58)
5751  B4                 [0045] (-57)
5752  02                 [0046] (-55)
5753  00                 [0047] (-55)
5754  00                 [0048] (-55)
5755  B5                 [0049] (-55)
5756  02                 [0050] (-52)
5757  00                 [0051] (-52)
5758  00                 [0052] (-52)
5759  B5                 [0053] (-52)
575A  02                 [0054] (-52)
575B  00                 [0055] (-52)
575C  00                 [0056] (-52)
575D  B8                 [0057] (-52)
575E  02                 [0058] (-52)
575F  00                 [0059] (-52)
5760  00                 [0060] (-51)
5761  B8                 [0061] (-47)
5762  02                 [0062] (-47)
5763  00                 [0063] (-47)
5764  00                 [0064] (-47)
5765  B8                 [0065] (-46)
5766  02                 [0066] (-42)
5767  00                 [0067] (-42)
5768  00                 [0068] (-42)
5769  B8                 [0069] (-42)
576A  02                 [0070] (-42)
576B  00                 [0071] (-42)
576C  00                 [0072] (-42)
576D  B8                 [0073] (-42)
576E  02                 [0074] (-42)
576F  00                 [0075] (-42)
5770  00                 [0076] (-42)
5771  B8                 [0077] (-42)
5772  02                 [0078] (-42)
5773  00                 [0079] (-40)
5774  00                 [0080] (-40)
5775  B9                 [0081] (-40)
5776  02                 [0082] (-40)
5777  00                 [0083] (-40)
5778  00                 [0084] (-40)
5779  BC                 [0085] (-40)
577A  02                 [0086] (-40)
577B  00                 [0087] (-40)
577C  00                 [0088] (-40)
577D  BC                 [0089] (-40)
577E  02                 [0090] (-40)
577F  00                 [0091] (-40)
5780  00                 [0092] (-39)
5781  BC                 [0093] (-39)
5782  02                 [0094] (-39)
5783  00                 [0095] (-37)
5784  00                 [0096] (-37)
5785  BD                 [0097] (-37)
5786  02                 [0098] (-37)
5787  00                 [0099] (-37)
5788  00                 [0100] (-37)
5789  BD                 [0101] (-37)
578A  02                 [0102] (-37)
578B  00                 [0103] (-37)
578C  00                 [0104] (-37)
578D  BD                 [0105] (-37)
578E  02                 [0106] (-37)
578F  00                 [0107] (-36)
5790  00                 [0108] (-36)
5791  BE                 [0109] (-36)
5792  02                 [0110] (-36)
5793  00                 [0111] (-36)
5794  00                 [0112] (-36)
5795  BE                 [0113] (-36)
5796  02                 [0114] (-36)
5797  00                 [0115] (-36)
5798  00                 [0116] (-36)
5799  BE                 [0117] (-34)
579A  02                 [0118] (-34)
579B  00                 [0119] (-34)
579C  00                 [0120] (-34)
579D  BF                 [0121] (-34)
579E  02                 [0122] (-34)
579F  00                 [0123] (-34)
57A0  00                 [0124] (-34)
57A1  BF                 [0125] (-34)
57A2  02                 [0126] (-34)
57A3  00                 [0127] (-34)
57A4  00                 [0128] (-27)
57A5  BF                 [0129] (-27)
57A6  02                 [0130] (-27)
57A7  00                 [0131] (-26)
57A8  00                 [0132] (-26)
57A9  C0                 [0133] (-25)
57AA  02                 [0134] (-25)
57AB  00                 [0135] (-25)
57AC  00                 [0136] (-24)
57AD  C0                 [0137] (-24)
57AE  02                 [0138] (-24)
57AF  00                 [0139] (-24)
57B0  00                 [0140] (-24)
57B1  C0                 [0141] (-24)
57B2  02                 [0142] (-24)
57B3  00                 [0143] (-24)
57B4  00                 [0144] (-24)
57B5  C5                 [0145] (-24)
57B6  02                 [0146] (-23)
57B7  00                 [0147] (-23)
57B8  00                 [0148] (-23)
57B9  C5                 [0149] (-22)
57BA  02                 [0150] (-22)
57BB  00                 [0151] (-22)
57BC  00                 [0152] (-19)
57BD  C5                 [0153] (-19)
57BE  02                 [0154] (-19)
57BF  00                 [0155] (-19)
57C0  00                 [0156] (-19)
57C1  C6                 [0157] (-18)
57C2  02                 [0158] (-15)
57C3  00                 [0159] (-15)
57C4  00                 [0160] (-15)
57C5  C6                 [0161] (-14)
57C6  02                 [0162] (-14)
57C7  00                 [0163] (-14)
57C8  00                 [0164] (-14)
57C9  C6                 [0165] (-12)
57CA  02                 [0166] (-12)
57CB  00                 [0167] (-11)
57CC  00                 [0168] (-11)
57CD  C6                 [0169] (-11)
57CE  02                 [0170] (-10)
57CF  00                 [0171] (-10)
57D0  00                 [0172] (-10)
57D1  C6                 [0173] (-7)
57D2  02                 [0174] (-7)
57D3  00                 [0175] (-6)
57D4  00                 [0176] (-6)
57D5  C7                 [0177] (-6)
57D6  02                 [0178] (-6)
57D7  00                 [0179] (-6)
57D8  00                 [0180] (-6)
57D9  C9                 [0181] (-5)
57DA  02                 [0182] (-5)
57DB  00                 [0183] (-4)
57DC  00                 [0184] (-3)
57DD  C9                 [0185] (-1)
57DE  02                 [0186] (-1)
57DF  00                 [0187] (-1)
57E0  00                 [0188] (0)
57E1  C9                 [0189] (0)
57E2  02                 [0190] (0)
57E3  00                 [0191] (0)
57E4  00                 [0192] (1)
57E5  C9                 [0193] (1)
57E6  02                 [0194] (2)
57E7  00                 [0195] (2)
57E8  00                 [0196] (2)
57E9  CC                 [0197] (2)
57EA  02                 [0198] (2)
57EB  00                 [0199] (2)
57EC  00                 [0200] (2)
57ED  CC                 [0201] (2)
57EE  02                 [0202] (2)
57EF  00                 [0203] (2)
57F0  00                 [0204] (2)
57F1  CC                 [0205] (3)
57F2  02                 [0206] (3)
57F3  00                 [0207] (3)
57F4  00                 [0208] (4)
57F5  CC                 [0209] (4)
57F6  02                 [0210] (4)
57F7  00                 [0211] (4)
57F8  00                 [0212] (6)
57F9  CC                 [0213] (6)
57FA  02                 [0214] (7)
57FB  00                 [0215] (7)
57FC  00                 [0216] (7)
57FD  CC                 [0217] (7)
57FE  02                 [0218] (7)
57FF  00                 [0219] (8)
5800  00                 [0220] (9)
5801  CC                 [0221] (9)
5802  02                 [0222] (9)
5803  00                 [0223] (9)
5804  00                 [0224] (9)
5805  CC                 [0225] (11)
5806  02                 [0226] (12)
5807  00                 [0227] (14)
5808  00                 [0228] (15)
5809  CC                 [0229] (16)
580A  02                 [0230] (16)
580B  00                 [0231] (16)
580C  00                 [0232] (17)
580D  CC                 [0233] (17)
580E  02                 [0234] (17)
580F  00                 [0235] (22)
5810  00                 [0236] (23)
5811  CD                 [0237] (23)
5812  02                 [0238] (23)
5813  00                 [0239] (23)
5814  00                 [0240] (23)
5815  D1                 [0241] (23)
5816  02                 [0242] (23)
5817  00                 [0243] (24)
5818  00                 [0244] (25)
5819  D1                 [0245] (25)
581A  02                 [0246] (25)
581B  00                 [0247] (26)
581C  00                 [0248] (26)
581D  D1                 [0249] (26)
581E  02                 [0250] (26)
581F  00                 [0251] (26)
5820  00                 [0252] (27)
5821  D1                 [0253] (27)
5822  02                 [0254] (27)
5823  00                 [0255] (27)
5824  00                 [0256] (27)
5825  D2                 [0257] (27)
5826  02                 [0258] (27)
5827  00                 [0259] (28)
5828  00                 [0260] (28)
5829  D6                 [0261] (29)
582A  02                 [0262] (29)
582B  00                 [0263] (29)
582C  00                 [0264] (29)
582D  D6                 [0265] (29)
582E  02                 [0266] (29)
582F  00                 [0267] (29)
5830  00                 [0268] (30)
5831  D6                 [0269] (32)
5832  02                 [0270] (32)
5833  00                 [0271] (32)
5834  00                 [0272] (32)
5835  D6                 [0273] (32)
5836  02                 [0274] (33)
5837  00                 [0275] (33)
5838  00                 [0276] (34)
5839  D6                 [0277] (34)
583A  02                 [0278] (35)
583B  00                 [0279] (36)
583C  00                 [0280] (36)
583D  D6                 [0281] (37)
583E  02                 [0282] (37)
583F  00                 [0283] (38)
5840  00                 [0284] (39)
5841  D6                 [0285] (41)
5842  02                 [0286] (41)
5843  00                 [0287] (41)
5844  00                 [0288] (41)
5845  D6                 [0289] (42)
5846  02                 [0290] (44)
5847  00                 [0291] (44)
5848  00                 [0292] (44)
5849  D6                 [0293] (45)
584A  02                 [0294] (47)
584B  00                 [0295] (47)
584C  00                 [0296] (47)
584D  D6                 [0297] (49)
584E  02                 [0298] (49)
584F  00                 [0299] (52)
5850  00                 [0300] (52)
5851  D6                 [0301] (52)
5852  02                 [0302] (53)
5853  00                 [0303] (53)
5854  00                 [0304] (53)
5855  D6                 [0305] (53)
5856  02                 [0306] (55)
5857  00                 [0307] (55)
5858  00                 [0308] (55)
5859  D6                 [0309] (55)
585A  02                 [0310] (55)
585B  00                 [0311] (55)
585C  00                 [0312] (56)
585D  D8                 [0313] (56)
585E  02                 [0314] (56)
585F  00                 [0315] (57)
5860  00                 [0316] (57)
5861  D8                 [0317] (59)
5862  02                 [0318] (61)
5863  00                 [0319] (61)
5864  00                 [0320] (61)
5865  D8                 [0321] (63)
5866  02                 [0322] (63)
5867  00                 [0323] (63)
5868  00                 [0324] (63)
5869  D8                 [0325] (63)
586A  02                 [0326] (63)
586B  00                 [0327] (63)
586C  00                 [0328] (63)
586D  D8                 [0329] (63)
586E  02                 [0330] (63)
586F  00                 [0331] (63)
5870  00                 [0332] (63)
5871  D8                 [0333] (65)
5872  02                 [0334] (65)
5873  00                 [0335] (65)
5874  00                 [0336] (66)
5875  D8                 [0337] (66)
5876  02                 [0338] (69)
5877  00                 [0339] (69)
5878  00                 [0340] (69)
5879  D8                 [0341] (70)
587A  02                 [0342] (70)
587B  00                 [0343] (70)
587C  00                 [0344] (70)
587D  D8                 [0345] (70)
587E  02                 [0346] (70)
587F  00                 [0347] (71)
5880  00                 [0348] (71)
5881  D8                 [0349] (71)
5882  02                 [0350] (71)
5883  00                 [0351] (72)
5884  00                 [0352] (72)
5885  D8                 [0353] (72)
5886  02                 [0354] (72)
5887  00                 [0355] (72)
5888  00                 [0356] (72)
5889  D8                 [0357] (72)
588A  02                 [0358] (72)
588B  00                 [0359] (76)
588C  00                 [0360] (76)
588D  D8                 [0361] (76)
588E  02                 [0362] (76)
588F  00                 [0363] (78)
5890  00                 [0364] (78)
5891  D9                 [0365] (78)
5892  02                 [0366] (78)
5893  00                 [0367] (78)
5894  00                 [0368] (78)
5895  D9                 [0369] (78)
5896  02                 [0370] (78)
5897  00                 [0371] (81)
5898  00                 [0372] (81)
5899  D9                 [0373] (81)
589A  02                 [0374] (81)
589B  00                 [0375] (81)
589C  00                 [0376] (82)
589D  DB                 [0377] (82)
589E  02                 [0378] (87)
589F  00                 [0379] (87)
58A0  00                 [0380] (87)
58A1  DB                 [0381] (87)
58A2  02                 [0382] (87)
58A3  00                 [0383] (87)
58A4  00                 [0384] (87)
58A5  DB                 [0385] (87)
58A6  02                 [0386] (87)
58A7  00                 [0387] (87)
58A8  00                 [0388] (87)
58A9  DB                 [0389] (87)
58AA  02                 [0390] (87)
58AB  00                 [0391] (87)
58AC  00                 [0392] (87)
58AD  DB                 [0393] (87)
58AE  02                 [0394] (89)
58AF  00                 [0395] (89)
58B0  00                 [0396] (91)
58B1  DB                 [0397] (91)
58B2  02                 [0398] (91)
58B3  00                 [0399] (91)
58B4  00                 [0400] (91)
58B5  DB                 [0401] (91)
58B6  02                 [0402] (93)
58B7  00                 [0403] (93)
58B8  00                 [0404] (93)
58B9  DB                 [0405] (93)
58BA  02                 [0406] (93)
58BB  00                 [0407] (93)
58BC  00                 [0408] (93)
58BD  DB                 [0409] (93)
58BE  02                 [0410] (93)
58BF  00                 [0411] (93)
58C0  00                 [0412] (93)
58C1  DB                 [0413] (93)
58C2  02                 [0414] (94)
58C3  00                 [0415] (94)
58C4  00                 [0416] (94)
58C5  DB                 [0417] (94)
58C6  02                 [0418] (94)
58C7  00                 [0419] (97)
58C8  00                 [0420] (98)
58C9  DB                 [0421] (99)
58CA  02                 [0422] (99)
58CB  00                 [0423] (99)
58CC  00                 [0424] (100)
58CD  DC                 [0425] (100)
58CE  02                 [0426] (100)
58CF  00                 [0427] (101)
58D0  00                 [0428] (101)
58D1  DC                 [0429] (101)
58D2  02                 [0430] (101)
58D3  00                 [0431] (102)
58D4  00                 [0432] (102)
58D5  DC                 [0433] (102)
58D6  02                 [0434] (102)
58D7  00                 [0435] (103)
58D8  00                 [0436] (103)
58D9  DC                 [0437] (103)
58DA  02                 [0438] (105)
58DB  00                 [0439] (105)
58DC  00                 [0440] (105)
58DD  DC                 [0441] (105)
58DE  02                 [0442] (106)
58DF  00                 [0443] (106)
58E0  00                 [0444] (106)
58E1  DC                 [0445] (106)
58E2  02                 [0446] (108)
58E3  00                 [0447] (108)
58E4  00                 [0448] (108)
58E5  DC                 [0449] (108)
58E6  02                 [0450] (110)
58E7  00                 [0451] (110)
58E8  00                 [0452] (110)
58E9  DC                 [0453] (110)
58EA  02                 [0454] (110)
58EB  00                 [0455] (111)
58EC  00                 [0456] (111)
58ED  DC                 [0457] (111)
58EE  02                 [0458] (111)
58EF  00                 [0459] (111)
58F0  00                 [0460] (113)
58F1  DC                 [0461] (113)
58F2  02                 [0462] (114)
58F3  00                 [0463] (114)
58F4  00                 [0464] (114)
58F5  DE                 [0465] (114)
58F6  02                 [0466] (116)
58F7  00                 [0467] (117)
58F8  00                 [0468] (117)
58F9  DE                 [0469] (117)
58FA  02                 [0470] (117)
58FB  00                 [0471] (117)
58FC  00                 [0472] (118)
58FD  DE                 [0473] (118)
58FE  02                 [0474] (118)
58FF  00                 [0475] (118)
5900  00                 [0476] (118)
5901  DE                 [0477] (118)
5902  02                 [0478] (119)
5903  00                 [0479] (119)
5904  00                 [0480] (119)
5905  DE                 [0481] (119)
5906  02                 [0482] (119)
5907  00                 [0483] (120)
5908  00                 [0484] (120)
5909  DE                 [0485] (120)
590A  02                 [0486] (120)
590B  00                 [0487] (120)
590C  00                 [0488] (120)
590D  DE                 [0489] (121)
590E  02                 [0490] (124)
590F  00                 [0491] (125)
5910  00                 [0492] (126)
5911  DE                 [0493] (126)
5912  02                 [0494] (126)
5913  00                 [0495] (127)
5914  00                 [0496] (127)
5915  DE                 [0497] (-127)
5916  02                 [0498] (-127)
5917  00                 [0499] (-127)
5918  00                 [0500] (-127)
5919  DE                 [0501] (-127)
591A  02                 [0502] (-126)
591B  00                 [0503] (-126)
591C  00                 [0504] (-126)
591D  DE                 [0505] (-126)
591E  02                 [0506] (-126)
591F  00                 [0507] (-125)
5920  00                 [0508] (-125)
5921  E5                 [0509] (-125)
5922  02                 [0510] (-125)
5923  00                 [0511] (-125)
5924  00                 [0512] (-124)
5925  E5                 [0513] (-122)
5926  02                 [0514] (-122)
5927  00                 [0515] (-122)
5928  00                 [0516] (-121)
5929  E5                 [0517] (-121)
592A  02                 [0518] (-121)
592B  00                 [0519] (-121)
592C  00                 [0520] (-118)
592D  E6                 [0521] (-118)
592E  02                 [0522] (-118)
592F  00                 [0523] (-117)
5930  00                 [0524] (-117)
5931  E6                 [0525] (-117)
5932  02                 [0526] (-117)
5933  00                 [0527] (-117)
5934  00                 [0528] (-117)
5935  E7                 [0529] (-115)
5936  02                 [0530] (-115)
5937  00                 [0531] (-115)
5938  00                 [0532] (-115)
5939  E7                 [0533] (-115)
593A  02                 [0534] (-105)
593B  00                 [0535] (-105)
593C  00                 [0536] (-105)
593D  E7                 [0537] (-105)
593E  02                 [0538] (-105)
593F  00                 [0539] (-104)
5940  00                 [0540] (-104)
5941  E8                 [0541] (-104)
5942  02                 [0542] (-104)
5943  00                 [0543] (-104)
5944  00                 [0544] (-103)
5945  E8                 [0545] (-103)
5946  02                 [0546] (-103)
5947  00                 [0547] (-103)
5948  00                 [0548] (-103)
5949  E8                 [0549] (-102)
594A  02                 [0550] (-102)
594B  00                 [0551] (-102)
594C  00                 [0552] (-102)
594D  E8                 [0553] (-102)
594E  02                 [0554] (-101)
594F  00                 [0555] (-101)
5950  00                 [0556] (-101)
5951  E8                 [0557] (-101)
5952  02                 [0558] (-101)
5953  00                 [0559] (-100)
5954  00                 [0560] (-100)
5955  E8                 [0561] (-100)
5956  02                 [0562] (-100)
5957  00                 [0563] (-100)
5958  00                 [0564] (-99)
5959  E8                 [0565] (-99)
595A  02                 [0566] (-99)
595B  00                 [0567] (-98)
595C  00                 [0568] (-98)
595D  E8                 [0569] (-98)
595E  02                 [0570] (-98)
595F  00                 [0571] (-98)
5960  00                 [0572] (-98)
5961  E8                 [0573] (-96)
5962  02                 [0574] (-96)
5963  00                 [0575] (-96)
5964  00                 [0576] (-96)
5965  E8                 [0577] (-96)
5966  02                 [0578] (-92)
5967  00                 [0579] (-92)
5968  00                 [0580] (-92)
5969  E9                 [0581] (-91)
596A  02                 [0582] (-91)
596B  00                 [0583] (-91)
596C  00                 [0584] (-90)
596D  E9                 [0585] (-90)
596E  02                 [0586] (-90)
596F  00                 [0587] (-89)
5970  00                 [0588] (-89)
5971  E9                 [0589] (-87)
5972  02                 [0590] (-87)
5973  00                 [0591] (-85)
5974  00                 [0592] (-85)
5975  EA                 [0593] (-83)
5976  02                 [0594] (-83)
5977  00                 [0595] (-83)
5978  00                 [0596] (-82)
5979  EA                 [0597] (-81)
597A  02                 [0598] (-81)
597B  00                 [0599] (-81)
597C  00                 [0600] (-79)
597D  EA                 [0601] (-79)
597E  02                 [0602] (-79)
597F  00                 [0603] (-78)
5980  00                 [0604] (-76)
5981  ED                 [0605] (-76)
5982  02                 [0606] (-76)
5983  00                 [0607] (-76)
5984  00                 [0608] (-76)
5985  ED                 [0609] (-75)
5986  02                 [0610] (-75)
5987  00                 [0611] (-74)
5988  00                 [0612] (-74)
5989  ED                 [0613] (-74)
598A  02                 [0614] (-74)
598B  00                 [0615] (-74)
598C  00                 [0616] (-74)
598D  ED                 [0617] (-73)
598E  02                 [0618] (-73)
598F  00                 [0619] (-70)
5990  00                 [0620] (-68)
5991  ED                 [0621] (-68)
5992  02                 [0622] (-68)
5993  00                 [0623] (-68)
5994  00                 [0624] (-68)
5995  EE                 [0625] (-68)
5996  02                 [0626] (-67)
5997  00                 [0627] (-67)
5998  00                 [0628] (-67)
5999  F1                 [0629] (-67)
599A  02                 [0630] (-63)
599B  00                 [0631] (-63)
599C  00                 [0632] (-63)
599D  F1                 [0633] (-63)
599E  02                 [0634] (-63)
599F  00                 [0635] (-62)
59A0  00                 [0636] (-62)
59A1  F1                 [0637] (-62)
59A2  02                 [0638] (-62)
59A3  00                 [0639] (-62)
59A4  00                 [0640] (-62)
59A5  F2                 [0641] (-62)
59A6  02                 [0642] (-60)
59A7  00                 [0643] (-59)
59A8  00                 [0644] (-59)
59A9  F2                 [0645] (-59)
59AA  02                 [0646] (-59)
59AB  00                 [0647] (-58)
59AC  00                 [0648] (-58)
59AD  F2                 [0649] (-57)
59AE  02                 [0650] (-53)
59AF  00                 [0651] (-53)
59B0  00                 [0652] (-53)
59B1  F2                 [0653] (-51)
59B2  02                 [0654] (-58)
59B3  00                 [0655] (-50)
59B4  00                 [0656] (-50)
59B5  F4                 [0657] (-50)
59B6  02                 [0658] (-50)
59B7  00                 [0659] (-39)
59B8  00                 [0660] (-37)
59B9  F4                 [0661] (-36)
59BA  02                 [0662] (-36)
59BB  00                 [0663] (-35)
59BC  00                 [0664] (-35)
59BD  F5                 [0665] (-35)
59BE  02                 [0666] (-35)
59BF  00                 [0667] (-35)
59C0  00                 [0668] (-34)
59C1  F5                 [0669] (-34)
59C2  02                 [0670] (-34)
59C3  00                 [0671] (-33)
59C4  00                 [0672] (-33)
59C5  F5                 [0673] (-33)
59C6  02                 [0674] (-33)
59C7  00                 [0675] (-33)
59C8  00                 [0676] (-33)
59C9  F6                 [0677] (-33)
59CA  02                 [0678] (-33)
59CB  00                 [0679] (-33)
59CC  00                 [0680] (-33)
59CD  F6                 [0681] (-33)
59CE  02                 [0682] (-33)
59CF  00                 [0683] (-32)
59D0  00                 [0684] (-32)
59D1  F6                 [0685] (-32)
59D2  02                 [0686] (-32)
59D3  00                 [0687] (-32)
59D4  00                 [0688] (-32)
59D5  F9                 [0689] (-32)
59D6  02                 [0690] (-32)
59D7  00                 [0691] (-31)
59D8  00                 [0692] (-31)
59D9  F9                 [0693] (-31)
59DA  02                 [0694] (-31)
59DB  00                 [0695] (-31)
59DC  00                 [0696] (-31)
59DD  FA                 [0697] (-27)
59DE  02                 [0698] (-27)
59DF  00                 [0699] (-27)
59E0  00                 [0700] (-27)
59E1  FA                 [0701] (-27)
59E2  02                 [0702] (-27)
59E3  00                 [0703] (-25)
59E4  00                 [0704] (-25)
59E5  FA                 [0705] (-25)
59E6  02                 [0706] (-24)
59E7  00                 [0707] (-21)
59E8  00                 [0708] (-21)
59E9  FA                 [0709] (-21)
59EA  02                 [0710] (-21)
59EB  00                 [0711] (-21)
59EC  00                 [0712] (-21)
59ED  FA                 [0713] (-21)
59EE  02                 [0714] (-21)
59EF  00                 [0715] (-21)
59F0  00                 [0716] (-21)
59F1  FA                 [0717] (-20)
59F2  02                 [0718] (-20)
59F3  00                 [0719] (-20)
59F4  00                 [0720] (-19)
59F5  FB                 [0721] (-19)
59F6  02                 [0722] (-19)
59F7  00                 [0723] (-18)
59F8  00                 [0724] (-18)
59F9  FB                 [0725] (-17)
59FA  02                 [0726] (-17)
59FB  00                 [0727] (-17)
59FC  00                 [0728] (-17)
59FD  FC                 [0729] (-17)
59FE  02                 [0730] (-16)
59FF  00                 [0731] (-16)
5A00  00                 [0732] (-15)
5A01  FD                 [0733] (-15)
5A02  02                 [0734] (-15)
5A03  00                 [0735] (-15)
5A04  00                 [0736] (-15)
5A05  FF                 [0737] (-14)
5A06  02                 [0738] (-14)
5A07  00                 [0739] (-13)
5A08  00                 [0740] (-13)
5A09  FF                 [0741] (-13)
5A0A  02                 [0742] (-13)
5A0B  00                 [0743] (-13)
5A0C  00                 [0744] (-12)
5A0D  FF                 [0745] (-12)
5A0E  02                 [0746] (-11)
5A0F  00                 [0747] (-11)
5A10  00                 [0748] (-11)
5A11  00                 [0749] (-11)
5A12  03                 [0750] (-11)
5A13  00                 [0751] (-9)
5A14  00                 [0752] (-9)
5A15  00                 [0753] (-9)
5A16  03                 [0754] (-9)
5A17  00                 [0755] (-6)
5A18  00                 [0756] (-6)
5A19  00                 [0757] (-6)
5A1A  03                 [0758] (-6)
5A1B  00                 [0759] (-3)
5A1C  00                 [0760] (-2)
5A1D  00                 [0761] (-2)
5A1E  03                 [0762] (-2)
5A1F  00                 [0763] (-2)
5A20  00                 [0764] (-2)
5A21  01                 [0765] (-2)
5A22  03                 [0766] (-2)
5A23  00                 [0767] (-2)
5A24  00                 [0768] (-2)
5A25  01                 [0769] (-1)
5A26  03                 [0770] (-1)
5A27  00                 [0771] (-1)
5A28  00                 [0772] (0)
5A29  02                 [0773] (0)
5A2A  03                 [0774] (0)
5A2B  00                 [0775] (0)
5A2C  00                 [0776] (1)
5A2D  02                 [0777] (1)
5A2E  03                 [0778] (1)
5A2F  00                 [0779] (1)
5A30  00                 [0780] (3)
5A31  02                 [0781] (4)
5A32  03                 [0782] (4)
5A33  00                 [0783] (4)
5A34  00                 [0784] (5)
5A35  02                 [0785] (5)
5A36  03                 [0786] (5)
5A37  00                 [0787] (9)
5A38  00                 [0788] (9)
5A39  02                 [0789] (9)
5A3A  03                 [0790] (9)
5A3B  00                 [0791] (9)
5A3C  00                 [0792] (9)
5A3D  02                 [0793] (9)
5A3E  03                 [0794] (9)
5A3F  00                 [0795] (9)
5A40  00                 [0796] (9)
5A41  02                 [0797] (10)
5A42  03                 [0798] (10)
5A43  00                 [0799] (10)
5A44  00                 [0800] (10)
5A45  02                 [0801] (10)
5A46  03                 [0802] (10)
5A47  00                 [0803] (11)
5A48  00                 [0804] (11)
5A49  02                 [0805] (11)
5A4A  03                 [0806] (11)
5A4B  00                 [0807] (11)
5A4C  00                 [0808] (18)
5A4D  02                 [0809] (18)
5A4E  03                 [0810] (18)
5A4F  00                 [0811] (18)
5A50  00                 [0812] (18)
5A51  02                 [0813] (18)
5A52  03                 [0814] (19)
5A53  00                 [0815] (19)
5A54  00                 [0816] (19)
5A55  03                 [0817] (20)
5A56  03                 [0818] (20)
5A57  00                 [0819] (20)
5A58  00                 [0820] (20)
5A59  03                 [0821] (21)
5A5A  03                 [0822] (21)
5A5B  00                 [0823] (21)
5A5C  00                 [0824] (21)
5A5D  03                 [0825] (23)
5A5E  03                 [0826] (26)
5A5F  00                 [0827] (26)
5A60  00                 [0828] (26)
5A61  04                 [0829] (26)
5A62  03                 [0830] (26)
5A63  00                 [0831] (26)
5A64  00                 [0832] (26)
5A65  04                 [0833] (26)
5A66  03                 [0834] (27)
5A67  00                 [0835] (31)
5A68  00                 [0836] (32)
5A69  04                 [0837] (32)
5A6A  03                 [0838] (32)
5A6B  00                 [0839] (32)
5A6C  00                 [0840] (32)
5A6D  04                 [0841] (33)
5A6E  03                 [0842] (33)
5A6F  00                 [0843] (33)
5A70  00                 [0844] (33)
5A71  06                 [0845] (34)
5A72  03                 [0846] (34)
5A73  00                 [0847] (34)
5A74  00                 [0848] (34)
5A75  06                 [0849] (34)
5A76  03                 [0850] (35)
5A77  00                 [0851] (35)
5A78  00                 [0852] (35)
5A79  07                 [0853] (36)
5A7A  03                 [0854] (37)
5A7B  00                 [0855] (37)
5A7C  00                 [0856] (37)
5A7D  07                 [0857] (37)
5A7E  03                 [0858] (38)
5A7F  00                 [0859] (33)
5A80  00                 [0860] (43)
5A81  07                 [0861] (43)
5A82  03                 [0862] (43)
5A83  00                 [0863] (43)
5A84  00                 [0864] (44)
5A85  07                 [0865] (44)
5A86  03                 [0866] (44)
5A87  00                 [0867] (44)
5A88  00                 [0868] (44)
5A89  07                 [0869] (45)
5A8A  03                 [0870] (45)
5A8B  00                 [0871] (45)
5A8C  00                 [0872] (45)
5A8D  08                 [0873] (46)
5A8E  03                 [0874] (46)
5A8F  00                 [0875] (46)
5A90  00                 [0876] (46)
5A91  09                 [0877] (46)
5A92  03                 [0878] (47)
5A93  00                 [0879] (48)
5A94  00                 [0880] (48)
5A95  09                 [0881] (48)
5A96  03                 [0882] (48)
5A97  00                 [0883] (48)
5A98  00                 [0884] (49)
5A99  09                 [0885] (49)
5A9A  03                 [0886] (49)
5A9B  00                 [0887] (49)
5A9C  00                 [0888] (50)
5A9D  09                 [0889] (51)
5A9E  03                 [0890] (51)
5A9F  00                 [0891] (51)
5AA0  00                 [0892] (51)
5AA1  09                 [0893] (52)
5AA2  03                 [0894] (45)
5AA3  00                 [0895] (57)
5AA4  00                 [0896] (57)
5AA5  0B                 [0897] (57)
5AA6  03                 [0898] (58)
5AA7  00                 [0899] (58)
5AA8  00                 [0900] (58)
5AA9  0C                 [0901] (58)
5AAA  03                 [0902] (59)
5AAB  00                 [0903] (59)
5AAC  00                 [0904] (60)
5AAD  0E                 [0905] (61)
5AAE  03                 [0906] (61)
5AAF  00                 [0907] (61)
5AB0  00                 [0908] (62)
5AB1  0F                 [0909] (65)
5AB2  03                 [0910] (65)
5AB3  00                 [0911] (65)
5AB4  00                 [0912] (65)
5AB5  10                 [0913] (69)
5AB6  03                 [0914] (69)
5AB7  00                 [0915] (69)
5AB8  00                 [0916] (69)
5AB9  10                 [0917] (71)
5ABA  03                 [0918] (71)
5ABB  00                 [0919] (71)
5ABC  00                 [0920] (71)
5ABD  10                 [0921] (72)
5ABE  03                 [0922] (72)
5ABF  00                 [0923] (72)
5AC0  00                 [0924] (72)
5AC1  11                 [0925] (72)
5AC2  03                 [0926] (72)
5AC3  00                 [0927] (72)
5AC4  00                 [0928] (72)
5AC5  11                 [0929] (72)
5AC6  03                 [0930] (72)
5AC7  00                 [0931] (74)
5AC8  00                 [0932] (74)
5AC9  11                 [0933] (74)
5ACA  03                 [0934] (74)
5ACB  00                 [0935] (74)
5ACC  00                 [0936] (74)
5ACD  16                 [0937] (74)
5ACE  03                 [0938] (74)
5ACF  00                 [0939] (74)
5AD0  00                 [0940] (74)
5AD1  17                 [0941] (74)
5AD2  03                 [0942] (74)
5AD3  00                 [0943] (74)
5AD4  00                 [0944] (75)
5AD5  17                 [0945] (75)
5AD6  03                 [0946] (75)
5AD7  00                 [0947] (75)
5AD8  00                 [0948] (75)
5AD9  17                 [0949] (75)
5ADA  03                 [0950] (75)
5ADB  00                 [0951] (75)
5ADC  00                 [0952] (75)
5ADD  17                 [0953] (80)
5ADE  03                 [0954] (80)
5ADF  00                 [0955] (80)
5AE0  00                 [0956] (81)
5AE1  17                 [0957] (81)
5AE2  03                 [0958] (81)
5AE3  00                 [0959] (81)
5AE4  00                 [0960] (81)
5AE5  17                 [0961] (81)
5AE6  03                 [0962] (81)
5AE7  00                 [0963] (81)
5AE8  00                 [0964] (81)
5AE9  17                 [0965] (81)
5AEA  03                 [0966] (82)
5AEB  00                 [0967] (82)
5AEC  00                 [0968] (82)
5AED  18                 [0969] (83)
5AEE  03                 [0970] (83)
5AEF  00                 [0971] (83)
5AF0  00                 [0972] (84)
5AF1  19                 [0973] (84)
5AF2  03                 [0974] (84)
5AF3  00                 [0975] (84)
5AF4  00                 [0976] (84)
5AF5  19                 [0977] (84)
5AF6  03                 [0978] (85)
5AF7  00                 [0979] (85)
5AF8  00                 [0980] (85)
5AF9  19                 [0981] (88)
5AFA  03                 [0982] (88)
5AFB  00                 [0983] (88)
5AFC  00                 [0984] (89)
5AFD  1A                 [0985] (89)
5AFE  03                 [0986] (89)
5AFF  00                 [0987] (92)
5B00  00                 [0988] (92)
5B01  1A                 [0989] (92)
5B02  03                 [0990] (92)
5B03  00                 [0991] (93)
5B04  00                 [0992] (93)
5B05  1A                 [0993] (93)
5B06  03                 [0994] (94)
5B07  00                 [0995] (94)
5B08  00                 [0996] (94)
5B09  1A                 [0997] (97)
5B0A  03                 [0998] (97)
5B0B  00                 [0999] (97)
5B0C  00                 [1000] (97)
5B0D  1A                 [1001] (98)
5B0E  03                 [1002] (98)
5B0F  00                 [1003] (98)
5B10  00                 [1004] (98)
5B11  1B                 [1005] (98)
5B12  03                 [1006] (98)
5B13  00                 [1007] (101)
5B14  00                 [1008] (101)
5B15  1B                 [1009] (101)
5B16  03                 [1010] (103)
5B17  00                 [1011] (103)
5B18  00                 [1012] (103)
5B19  1B                 [1013] (126)
                         * locals:
66F9  00                 sizelocvars (0)
                         * upvalues:
66FA  00                 sizeupvalues (0)
                         ** end of function **

                         
66FB                     ** function [19] definition (level 2)
                         ** start of function **
66FB  00                 string size (0)
                         source name: (none)
66FD  09                 line defined (1152)
66FE  A7                 last line defined (1191)
66FF  09                 nups (3)
6700  03                 numparams (0)
6701  00                 is_vararg (0)
6702  00                 maxstacksize (7)
                         * code:
6704  65                 sizecode (101)
6705  1D000000           [001] getglobal  0   0        ; gGameRules
6709  5D400000           [002] getglobal  1   1        ; 1074689893
670D  92000000           [003] move       2   0      
6711  62800001           [004] call       1   2   2  
6715  58000000           [005] test       1       0    ; to [7] if true
6719  1A000080           [006] jmp        1            ; to [8]
671D  1E008000           [007] return     0   1      
6721  5D400000           [008] getglobal  1   1        ; 1074689893
6725  9D800000           [009] getglobal  2   2        ; _T
6729  8EC04001           [010] gettable   2   2   259  ; "AddHudTracker"
672D  62800001           [011] call       1   2   2  
6731  58000000           [012] test       1       0    ; to [14] if true
6735  1AC00080           [013] jmp        4            ; to [18]
6739  5D000100           [014] getglobal  1   4        ; 538022378
673D  99400100           [015] loadk      2   5        ; 0
6741  62400001           [016] call       1   2   1  
6745  1A40FD7F           [017] jmp        -10          ; to [8]
6749  5D400000           [018] getglobal  1   1        ; 1074689893
674D  93000000           [019] getupval   2   0      
6751  62800001           [020] call       1   2   2  
6755  58000000           [021] test       1       0    ; to [23] if true
6759  1A800380           [022] jmp        15           ; to [38]
675D  5D800000           [023] getglobal  1   2        ; _T
6761  4E80C100           [024] gettable   1   1   262  ; 972116663
6765  99C00100           [025] loadk      2   7        ; "TAProgressBar"
6769  D3008000           [026] getupval   3   1      
676D  CE00C201           [027] gettable   3   3   264  ; "HT_PROGRESS_BAR"
6771  19410200           [028] loadk      4   9        ; -51
6775  62800002           [029] call       1   4   2  
fail op	8
6779  48000000           [030] setupval   1   0      
677D  53000000           [031] getupval   1   0      
6781  4E80C200           [032] gettable   1   1   266  ; -440008155
6785  9DC00200           [033] getglobal  2   11       ; _G
6789  8E004301           [034] gettable   2   2   268  ; "UIColor_DarkBlue"
678D  62400001           [035] call       1   2   1  
6791  5D800000           [036] getglobal  1   2        ; _T
6795  4C80C386           [037] settable   1   269 270  ; "HasTAProgressBar" 1
6799  53000000           [038] getupval   1   0      
679D  4EC0C300           [039] gettable   1   1   271  ; 934616952
67A1  99000400           [040] loadk      2   16       ; ""
67A5  62400001           [041] call       1   2   1  
67A9  53000000           [042] getupval   1   0      
67AD  4E40C400           [043] gettable   1   1   273  ; 1731445362
67B1  99800400           [044] loadk      2   18       ; 0
67B5  62400001           [045] call       1   2   1  
67B9  5D800000           [046] getglobal  1   2        ; _T
67BD  4EC0C400           [047] gettable   1   1   275  ; "Waves"
fail op	33
67C1  2140C100           [048] tforloop   0       261  ; to [50] if exit
67C5  1A400080           [049] jmp        2            ; to [52]
67C9  5D800000           [050] getglobal  1   2        ; _T
67CD  4C40C189           [051] settable   1   275 261  ; "Waves" 0
67D1  53000000           [052] getupval   1   0      
67D5  4E00C500           [053] gettable   1   1   276  ; -1455793363
67D9  99400500           [054] loadk      2   21       ; "Waves:  "
67DD  DD800500           [055] getglobal  3   22       ; -1615931716
67E1  1DC10500           [056] getglobal  4   23       ; math
67E5  0E014602           [057] gettable   4   4   280  ; -150971781
67E9  5D810000           [058] getglobal  5   2        ; _T
67ED  4EC1C402           [059] gettable   5   5   275  ; "Waves"
67F1  22010001           [060] call       4   2   0  
67F5  E2800000           [061] call       3   0   2  
67F9  82C00001           [062] concat     2   2   3  
67FD  62400001           [063] call       1   2   1  
6801  5D800000           [064] getglobal  1   2        ; _T
6805  4EC0C400           [065] gettable   1   1   275  ; "Waves"
fail op	33
6809  2140C100           [066] tforloop   0       261  ; to [68] if exit
680D  1A000080           [067] jmp        1            ; to [69]
6811  1AC00080           [068] jmp        4            ; to [73]
6815  5D000100           [069] getglobal  1   4        ; 538022378
6819  99400600           [070] loadk      2   25       ; -51
681D  62400001           [071] call       1   2   1  
6821  1A00F97F           [072] jmp        -27          ; to [46]
6825  5D800600           [073] getglobal  1   26       ; gRegion
6829  64C0C600           [074] self       1   1   283  ; -774964848
682D  62800001           [075] call       1   2   2  
6831  A400C700           [076] self       2   1   284  ; 537471347
6835  A2800001           [077] call       2   2   2  
6839  D3000001           [078] getupval   3   2      
683D  CE40C701           [079] gettable   3   3   285  ; 198248041
6841  E2808000           [080] call       3   1   2  
6845  1D410000           [081] getglobal  4   1        ; 1074689893
6849  52010001           [082] move       5   2      
684D  22810001           [083] call       4   2   2  
6851  18410000           [084] test       4       1    ; to [86] if false
6855  1A800280           [085] jmp        11           ; to [97]
6859  24814700           [086] self       4   0   286  ; 2051260977
685D  97018000           [087] loadbool   6   1   0    ; true
6861  22418001           [088] call       4   3   1  
6865  1D410000           [089] getglobal  4   1        ; 1074689893
6869  52018001           [090] move       5   3      
686D  22810001           [091] call       4   2   2  
6871  18410000           [092] test       4       1    ; to [94] if false
6875  1A800080           [093] jmp        3            ; to [97]
6879  24C14701           [094] self       4   2   287  ; -906150570
687D  92018001           [095] move       6   3      
6881  22418001           [096] call       4   3   1  
6885  1D010800           [097] getglobal  4   32       ; completeObjScript
6889  24414802           [098] self       4   4   289  ; -1923578185
688D  99810800           [099] loadk      6   34       ; "Execute"
6891  22418001           [100] call       4   3   1  
6895  1E008000           [101] return     0   1      
                         * constants:
6899  23                 sizek (35)
689A  04                 const type 4
689B  0B                 string size (11)
689C  6747616D6552756C+  "gGameRul"
68A4  657300             "es\0"
                         const [0]: "gGameRules"
68A7  01                 const type 3
68A8  65770E40           const [1]: (1074689893)
68AC  04                 const type 4
68AD  03                 string size (3)
68AE  5F5400             "_T\0"
                         const [2]: "_T"
68B1  04                 const type 4
68B2  0E                 string size (14)
68B3  4164644875645472+  "AddHudTr"
68BB  61636B657200       "acker\0"
                         const [3]: "AddHudTracker"
68C1  01                 const type 3
68C2  EA911120           const [4]: (538022378)
68C6  03                 const type 3
68C7  00000000           const [5]: (0)
68CB  01                 const type 3
68CC  B752F139           const [6]: (972116663)
68D0  04                 const type 4
68D1  0E                 string size (14)
68D2  544150726F677265+  "TAProgre"
68DA  737342617200       "ssBar\0"
                         const [7]: "TAProgressBar"
68E0  04                 const type 4
68E1  10                 string size (16)
68E2  48545F50524F4752+  "HT_PROGR"
68EA  4553535F42415200   "ESS_BAR\0"
                         const [8]: "HT_PROGRESS_BAR"
68F2  03                 const type 3
68F3  CDCC4C3E           const [9]: (-51)
68F7  01                 const type 3
68F8  2502C6E5           const [10]: (-440008155)
68FC  04                 const type 4
68FD  03                 string size (3)
68FE  5F4700             "_G\0"
                         const [11]: "_G"
6901  04                 const type 4
6902  11                 string size (17)
6903  5549436F6C6F725F+  "UIColor_"
690B  4461726B426C7565+  "DarkBlue"
6913  00                 "\0"
                         const [12]: "UIColor_DarkBlue"
6914  04                 const type 4
6915  11                 string size (17)
6916  486173544150726F+  "HasTAPro"
691E  6772657373426172+  "gressBar"
6926  00                 "\0"
                         const [13]: "HasTAProgressBar"
6927  01                 const type 3
6928  01000000           const [14]: (1)
692C  01                 const type 3
692D  781FB537           const [15]: (934616952)
6931  04                 const type 4
6932  01                 string size (0)
                         const [16]: ""
6934  01                 const type 3
6935  72C23367           const [17]: (1731445362)
6939  03                 const type 3
693A  000080BF           const [18]: (0)
693E  04                 const type 4
693F  06                 string size (6)
6940  576176657300       "Waves\0"
                         const [19]: "Waves"
6946  01                 const type 3
6947  2D5B3AA9           const [20]: (-1455793363)
694B  04                 const type 4
694C  09                 string size (9)
694D  57617665733A2020+  "Waves:  "
6955  00                 "\0"
                         const [21]: "Waves:  "
6956  01                 const type 3
6957  BCD6AE9F           const [22]: (-1615931716)
695B  04                 const type 4
695C  05                 string size (5)
695D  6D61746800         "math\0"
                         const [23]: "math"
6962  01                 const type 3
6963  7B5A00F7           const [24]: (-150971781)
6967  03                 const type 3
6968  CDCCCC3D           const [25]: (-51)
696C  04                 const type 4
696D  08                 string size (8)
696E  67526567696F6E00   "gRegion\0"
                         const [26]: "gRegion"
6976  01                 const type 3
6977  90F9CED1           const [27]: (-774964848)
697B  01                 const type 3
697C  73290920           const [28]: (537471347)
6980  01                 const type 3
6981  6906D10B           const [29]: (198248041)
6985  01                 const type 3
6986  31C2437A           const [30]: (2051260977)
698A  01                 const type 3
698B  563DFDC9           const [31]: (-906150570)
698F  04                 const type 4
6990  12                 string size (18)
6991  636F6D706C657465+  "complete"
6999  4F626A5363726970+  "ObjScrip"
69A1  7400               "t\0"
                         const [32]: "completeObjScript"
69A3  01                 const type 3
69A4  B786588D           const [33]: (-1923578185)
69A8  04                 const type 4
69A9  08                 string size (8)
69AA  4578656375746500   "Execute\0"
                         const [34]: "Execute"
                         * functions:
69B2  00                 sizep (0)
                         * lines:
69B3  65                 sizelineinfo (101)
                         [pc] (line)
69B4  81                 [001] (-127)
69B5  04                 [002] (-126)
69B6  00                 [003] (-126)
69B7  00                 [004] (-126)
69B8  82                 [005] (-126)
69B9  04                 [006] (-126)
69BA  00                 [007] (-125)
69BB  00                 [008] (-122)
69BC  82                 [009] (-122)
69BD  04                 [010] (-122)
69BE  00                 [011] (-122)
69BF  00                 [012] (-122)
69C0  82                 [013] (-122)
69C1  04                 [014] (-121)
69C2  00                 [015] (-121)
69C3  00                 [016] (-121)
69C4  82                 [017] (-121)
69C5  04                 [018] (-118)
69C6  00                 [019] (-118)
69C7  00                 [020] (-118)
69C8  82                 [021] (-118)
69C9  04                 [022] (-118)
69CA  00                 [023] (-117)
69CB  00                 [024] (-117)
69CC  83                 [025] (-117)
69CD  04                 [026] (-117)
69CE  00                 [027] (-117)
69CF  00                 [028] (-117)
69D0  86                 [029] (-117)
69D1  04                 [030] (-117)
69D2  00                 [031] (-116)
69D3  00                 [032] (-116)
69D4  86                 [033] (-116)
69D5  04                 [034] (-116)
69D6  00                 [035] (-116)
69D7  00                 [036] (-115)
69D8  86                 [037] (-115)
69D9  04                 [038] (-113)
69DA  00                 [039] (-113)
69DB  00                 [040] (-113)
69DC  86                 [041] (-113)
69DD  04                 [042] (-112)
69DE  00                 [043] (-112)
69DF  00                 [044] (-112)
69E0  86                 [045] (-112)
69E1  04                 [046] (-109)
69E2  00                 [047] (-109)
69E3  00                 [048] (-109)
69E4  86                 [049] (-109)
69E5  04                 [050] (-108)
69E6  00                 [051] (-108)
69E7  00                 [052] (-106)
69E8  87                 [053] (-106)
69E9  04                 [054] (-106)
69EA  00                 [055] (-106)
69EB  00                 [056] (-106)
69EC  87                 [057] (-106)
69ED  04                 [058] (-106)
69EE  00                 [059] (-106)
69EF  00                 [060] (-106)
69F0  87                 [061] (-106)
69F1  04                 [062] (-106)
69F2  00                 [063] (-106)
69F3  00                 [064] (-105)
69F4  87                 [065] (-105)
69F5  04                 [066] (-105)
69F6  00                 [067] (-105)
69F7  00                 [068] (-104)
69F8  8A                 [069] (-102)
69F9  04                 [070] (-102)
69FA  00                 [071] (-102)
69FB  00                 [072] (-102)
69FC  8A                 [073] (-99)
69FD  04                 [074] (-99)
69FE  00                 [075] (-99)
69FF  00                 [076] (-98)
6A00  8A                 [077] (-98)
6A01  04                 [078] (-97)
6A02  00                 [079] (-97)
6A03  00                 [080] (-97)
6A04  8A                 [081] (-96)
6A05  04                 [082] (-96)
6A06  00                 [083] (-96)
6A07  00                 [084] (-96)
6A08  8A                 [085] (-96)
6A09  04                 [086] (-95)
6A0A  00                 [087] (-95)
6A0B  00                 [088] (-95)
6A0C  8B                 [089] (-94)
6A0D  04                 [090] (-94)
6A0E  00                 [091] (-94)
6A0F  00                 [092] (-94)
6A10  8B                 [093] (-94)
6A11  04                 [094] (-93)
6A12  00                 [095] (-93)
6A13  00                 [096] (-93)
6A14  8B                 [097] (-90)
6A15  04                 [098] (-90)
6A16  00                 [099] (-90)
6A17  00                 [100] (-90)
6A18  8B                 [101] (-89)
                         * locals:
6B48  00                 sizelocvars (0)
                         * upvalues:
6B49  00                 sizeupvalues (0)
                         ** end of function **

                         
6B4A                     ** function [20] definition (level 2)
                         ** start of function **
6B4A  00                 string size (0)
                         source name: (none)
6B4C  09                 line defined (1193)
6B4D  D5                 last line defined (1237)
6B4E  09                 nups (0)
6B4F  00                 numparams (0)
6B50  00                 is_vararg (0)
6B51  00                 maxstacksize (9)
                         * code:
6B53  6C                 sizecode (108)
6B54  1D000000           [001] getglobal  0   0        ; gGameRules
6B58  5D400000           [002] getglobal  1   1        ; 1074689893
6B5C  92000000           [003] move       2   0      
6B60  62800001           [004] call       1   2   2  
6B64  58000000           [005] test       1       0    ; to [7] if true
6B68  1A000080           [006] jmp        1            ; to [8]
6B6C  1E008000           [007] return     0   1      
6B70  64804000           [008] self       1   0   258  ; -502414055
6B74  62800001           [009] call       1   2   2  
6B78  9DC00000           [010] getglobal  2   3        ; Lotus_Game
6B7C  8E004101           [011] gettable   2   2   260  ; "MT_EXTERMINATION"
fail op	35
6B80  23808000           [012] close      0  
6B84  1A400380           [013] jmp        14           ; to [28]
6B88  9D400000           [014] getglobal  2   1        ; 1074689893
6B8C  DD400100           [015] getglobal  3   5        ; doorHint
6B90  A2800001           [016] call       2   2   2  
6B94  98400000           [017] test       2       1    ; to [19] if false
6B98  1AC00180           [018] jmp        8            ; to [27]
6B9C  9D400100           [019] getglobal  2   5        ; doorHint
6BA0  A4804101           [020] self       2   2   262  ; -1923578185
6BA4  19C10100           [021] loadk      4   7        ; "Unlock"
6BA8  A2408001           [022] call       2   3   1  
6BAC  9D400100           [023] getglobal  2   5        ; doorHint
6BB0  A4804101           [024] self       2   2   262  ; -1923578185
6BB4  19010200           [025] loadk      4   8        ; "Open"
6BB8  A2408001           [026] call       2   3   1  
6BBC  1E008000           [027] return     0   1      
6BC0  9D400200           [028] getglobal  2   9        ; gRegion
6BC4  A4804201           [029] self       2   2   266  ; -774964848
6BC8  A2800001           [030] call       2   2   2  
6BCC  E4C04201           [031] self       3   2   267  ; 537471347
6BD0  E2800001           [032] call       3   2   2  
6BD4  1D410000           [033] getglobal  4   1        ; 1074689893
6BD8  52018001           [034] move       5   3      
6BDC  22810001           [035] call       4   2   2  
6BE0  18410000           [036] test       4       1    ; to [38] if false
6BE4  1A000B80           [037] jmp        45           ; to [83]
6BE8  1D410000           [038] getglobal  4   1        ; 1074689893
6BEC  5D410100           [039] getglobal  5   5        ; doorHint
6BF0  22810001           [040] call       4   2   2  
6BF4  18410000           [041] test       4       1    ; to [43] if false
6BF8  1AC00980           [042] jmp        40           ; to [83]
6BFC  1D410100           [043] getglobal  4   5        ; doorHint
6C00  24014302           [044] self       4   4   268  ; 864532941
6C04  22810001           [045] call       4   2   2  
6C08  6441C301           [046] self       5   3   269  ; -287792134
6C0C  62810001           [047] call       5   2   2  
fail op	35
6C10  2380C302           [048] close      0  
6C14  1A000380           [049] jmp        13           ; to [63]
6C18  5DC10300           [050] getglobal  5   15       ; Npc
6C1C  4E01C402           [051] gettable   5   5   272  ; "NpcDoorHint_DS_LOCKED"
fail op	35
6C20  63400102           [052] close      1  
6C24  1A000280           [053] jmp        9            ; to [63]
6C28  5D410100           [054] getglobal  5   5        ; doorHint
6C2C  6481C102           [055] self       5   5   262  ; -1923578185
6C30  D9410400           [056] loadk      7   17       ; "Close"
6C34  62418001           [057] call       5   3   1  
6C38  5D410100           [058] getglobal  5   5        ; doorHint
6C3C  6481C102           [059] self       5   5   262  ; -1923578185
6C40  D9810400           [060] loadk      7   18       ; "Lock"
6C44  62418001           [061] call       5   3   1  
6C48  1AC00480           [062] jmp        20           ; to [83]
6C4C  6441C301           [063] self       5   3   269  ; -287792134
6C50  62810001           [064] call       5   2   2  
fail op	35
6C54  23C0C402           [065] close      0  
6C58  1AC00380           [066] jmp        16           ; to [83]
6C5C  5DC10300           [067] getglobal  5   15       ; Npc
6C60  4E01C402           [068] gettable   5   5   272  ; "NpcDoorHint_DS_LOCKED"
fail op	35
6C64  23400102           [069] close      0  
6C68  1AC00280           [070] jmp        12           ; to [83]
6C6C  5D010500           [071] getglobal  5   20       ; _T
6C70  4E41C502           [072] gettable   5   5   277  ; "ForceLockObjectiveDoor"
6C74  58410000           [073] test       5       1    ; to [75] if false
6C78  1AC00180           [074] jmp        8            ; to [83]
6C7C  5D410100           [075] getglobal  5   5        ; doorHint
6C80  6481C102           [076] self       5   5   262  ; -1923578185
6C84  D9C10100           [077] loadk      7   7        ; "Unlock"
6C88  62418001           [078] call       5   3   1  
6C8C  5D410100           [079] getglobal  5   5        ; doorHint
6C90  6481C102           [080] self       5   5   262  ; -1923578185
6C94  D9010200           [081] loadk      7   8        ; "Open"
6C98  62418001           [082] call       5   3   1  
6C9C  64814500           [083] self       5   0   278  ; -317790213
6CA0  DDC10500           [084] getglobal  7   23       ; -332969190
6CA4  19020600           [085] loadk      8   24       ; "ExterminateMid"
6CA8  E2010001           [086] call       7   2   0  
6CAC  62810000           [087] call       5   0   2  
fail op	35
6CB0  6340C602           [088] close      1  
6CB4  1A400380           [089] jmp        14           ; to [104]
6CB8  5D410000           [090] getglobal  5   1        ; 1074689893
6CBC  9D410100           [091] getglobal  6   5        ; doorHint
6CC0  62810001           [092] call       5   2   2  
6CC4  58410000           [093] test       5       1    ; to [95] if false
6CC8  1AC00180           [094] jmp        8            ; to [103]
6CCC  5D410100           [095] getglobal  5   5        ; doorHint
6CD0  6481C102           [096] self       5   5   262  ; -1923578185
6CD4  D9C10100           [097] loadk      7   7        ; "Unlock"
6CD8  62418001           [098] call       5   3   1  
6CDC  5D410100           [099] getglobal  5   5        ; doorHint
6CE0  6481C102           [100] self       5   5   262  ; -1923578185
6CE4  D9010200           [101] loadk      7   8        ; "Open"
6CE8  62418001           [102] call       5   3   1  
6CEC  1E008000           [103] return     0   1      
6CF0  5D810600           [104] getglobal  5   26       ; 538022378
6CF4  99C10600           [105] loadk      6   27       ; 0
6CF8  62410001           [106] call       5   2   1  
6CFC  1A00ED7F           [107] jmp        -75          ; to [33]
6D00  1E008000           [108] return     0   1      
                         * constants:
6D04  1C                 sizek (28)
6D05  04                 const type 4
6D06  0B                 string size (11)
6D07  6747616D6552756C+  "gGameRul"
6D0F  657300             "es\0"
                         const [0]: "gGameRules"
6D12  01                 const type 3
6D13  65770E40           const [1]: (1074689893)
6D17  01                 const type 3
6D18  19C50DE2           const [2]: (-502414055)
6D1C  04                 const type 4
6D1D  0B                 string size (11)
6D1E  4C6F7475735F4761+  "Lotus_Ga"
6D26  6D6500             "me\0"
                         const [3]: "Lotus_Game"
6D29  04                 const type 4
6D2A  11                 string size (17)
6D2B  4D545F4558544552+  "MT_EXTER"
6D33  4D494E4154494F4E+  "MINATION"
6D3B  00                 "\0"
                         const [4]: "MT_EXTERMINATION"
6D3C  04                 const type 4
6D3D  09                 string size (9)
6D3E  646F6F7248696E74+  "doorHint"
6D46  00                 "\0"
                         const [5]: "doorHint"
6D47  01                 const type 3
6D48  B786588D           const [6]: (-1923578185)
6D4C  04                 const type 4
6D4D  07                 string size (7)
6D4E  556E6C6F636B00     "Unlock\0"
                         const [7]: "Unlock"
6D55  04                 const type 4
6D56  05                 string size (5)
6D57  4F70656E00         "Open\0"
                         const [8]: "Open"
6D5C  04                 const type 4
6D5D  08                 string size (8)
6D5E  67526567696F6E00   "gRegion\0"
                         const [9]: "gRegion"
6D66  01                 const type 3
6D67  90F9CED1           const [10]: (-774964848)
6D6B  01                 const type 3
6D6C  73290920           const [11]: (537471347)
6D70  01                 const type 3
6D71  CDB98733           const [12]: (864532941)
6D75  01                 const type 3
6D76  FAA3D8EE           const [13]: (-287792134)
6D7A  01                 const type 3
6D7B  00000000           const [14]: (0)
6D7F  04                 const type 4
6D80  04                 string size (4)
6D81  4E706300           "Npc\0"
                         const [15]: "Npc"
6D85  04                 const type 4
6D86  16                 string size (22)
6D87  4E7063446F6F7248+  "NpcDoorH"
6D8F  696E745F44535F4C+  "int_DS_L"
6D97  4F434B454400       "OCKED\0"
                         const [16]: "NpcDoorHint_DS_LOCKED"
6D9D  04                 const type 4
6D9E  06                 string size (6)
6D9F  436C6F736500       "Close\0"
                         const [17]: "Close"
6DA5  04                 const type 4
6DA6  05                 string size (5)
6DA7  4C6F636B00         "Lock\0"
                         const [18]: "Lock"
6DAC  01                 const type 3
6DAD  01000000           const [19]: (1)
6DB1  04                 const type 4
6DB2  03                 string size (3)
6DB3  5F5400             "_T\0"
                         const [20]: "_T"
6DB6  04                 const type 4
6DB7  17                 string size (23)
6DB8  466F7263654C6F63+  "ForceLoc"
6DC0  6B4F626A65637469+  "kObjecti"
6DC8  7665446F6F7200     "veDoor\0"
                         const [21]: "ForceLockObjectiveDoor"
6DCF  01                 const type 3
6DD0  FBE70EED           const [22]: (-317790213)
6DD4  01                 const type 3
6DD5  1A4B27EC           const [23]: (-332969190)
6DD9  04                 const type 4
6DDA  0F                 string size (15)
6DDB  45787465726D696E+  "Extermin"
6DE3  6174654D696400     "ateMid\0"
                         const [24]: "ExterminateMid"
6DEA  03                 const type 3
6DEB  00000000           const [25]: (0)
6DEF  01                 const type 3
6DF0  EA911120           const [26]: (538022378)
6DF4  03                 const type 3
6DF5  0000803F           const [27]: (0)
                         * functions:
6DF9  00                 sizep (0)
                         * lines:
6DFA  6C                 sizelineinfo (108)
                         [pc] (line)
6DFB  AA                 [001] (-86)
6DFC  04                 [002] (-85)
6DFD  00                 [003] (-85)
6DFE  00                 [004] (-85)
6DFF  AB                 [005] (-85)
6E00  04                 [006] (-85)
6E01  00                 [007] (-84)
6E02  00                 [008] (-81)
6E03  AB                 [009] (-81)
6E04  04                 [010] (-78)
6E05  00                 [011] (-78)
6E06  00                 [012] (-78)
6E07  AB                 [013] (-78)
6E08  04                 [014] (-77)
6E09  00                 [015] (-77)
6E0A  00                 [016] (-77)
6E0B  AB                 [017] (-77)
6E0C  04                 [018] (-77)
6E0D  00                 [019] (-76)
6E0E  00                 [020] (-76)
6E0F  AB                 [021] (-76)
6E10  04                 [022] (-76)
6E11  00                 [023] (-75)
6E12  00                 [024] (-75)
6E13  AC                 [025] (-75)
6E14  04                 [026] (-75)
6E15  00                 [027] (-73)
6E16  00                 [028] (-70)
6E17  AF                 [029] (-70)
6E18  04                 [030] (-70)
6E19  00                 [031] (-69)
6E1A  00                 [032] (-69)
6E1B  AF                 [033] (-66)
6E1C  04                 [034] (-66)
6E1D  00                 [035] (-66)
6E1E  00                 [036] (-66)
6E1F  B2                 [037] (-66)
6E20  04                 [038] (-65)
6E21  00                 [039] (-65)
6E22  00                 [040] (-65)
6E23  B2                 [041] (-65)
6E24  04                 [042] (-65)
6E25  00                 [043] (-64)
6E26  00                 [044] (-64)
6E27  B2                 [045] (-64)
6E28  04                 [046] (-63)
6E29  00                 [047] (-63)
6E2A  00                 [048] (-63)
6E2B  B2                 [049] (-63)
6E2C  04                 [050] (-63)
6E2D  00                 [051] (-63)
6E2E  00                 [052] (-63)
6E2F  B3                 [053] (-63)
6E30  04                 [054] (-62)
6E31  00                 [055] (-62)
6E32  00                 [056] (-62)
6E33  B3                 [057] (-62)
6E34  04                 [058] (-61)
6E35  00                 [059] (-61)
6E36  00                 [060] (-61)
6E37  B3                 [061] (-61)
6E38  04                 [062] (-61)
6E39  00                 [063] (-60)
6E3A  00                 [064] (-60)
6E3B  B3                 [065] (-60)
6E3C  04                 [066] (-60)
6E3D  00                 [067] (-60)
6E3E  00                 [068] (-60)
6E3F  B3                 [069] (-60)
6E40  04                 [070] (-60)
6E41  00                 [071] (-60)
6E42  00                 [072] (-60)
6E43  B4                 [073] (-60)
6E44  04                 [074] (-60)
6E45  00                 [075] (-59)
6E46  00                 [076] (-59)
6E47  B4                 [077] (-59)
6E48  04                 [078] (-59)
6E49  00                 [079] (-58)
6E4A  00                 [080] (-58)
6E4B  B4                 [081] (-58)
6E4C  04                 [082] (-58)
6E4D  00                 [083] (-54)
6E4E  00                 [084] (-54)
6E4F  B4                 [085] (-54)
6E50  04                 [086] (-54)
6E51  00                 [087] (-54)
6E52  00                 [088] (-54)
6E53  B5                 [089] (-54)
6E54  04                 [090] (-51)
6E55  00                 [091] (-51)
6E56  00                 [092] (-51)
6E57  B5                 [093] (-51)
6E58  04                 [094] (-51)
6E59  00                 [095] (-50)
6E5A  00                 [096] (-50)
6E5B  B5                 [097] (-50)
6E5C  04                 [098] (-50)
6E5D  00                 [099] (-49)
6E5E  00                 [100] (-49)
6E5F  B5                 [101] (-49)
6E60  04                 [102] (-49)
6E61  00                 [103] (-47)
6E62  00                 [104] (-45)
6E63  B7                 [105] (-45)
6E64  04                 [106] (-45)
6E65  00                 [107] (-45)
6E66  00                 [108] (-43)
                         * locals:
6FAB  00                 sizelocvars (0)
                         * upvalues:
6FAC  00                 sizeupvalues (0)
                         ** end of function **

                         
6FAD                     ** function [21] definition (level 2)
                         ** start of function **
6FAD  00                 string size (0)
                         source name: (none)
6FAF  09                 line defined (1239)
6FB0  FC                 last line defined (1276)
6FB1  09                 nups (0)
6FB2  00                 numparams (0)
6FB3  00                 is_vararg (0)
6FB4  00                 maxstacksize (8)
                         * code:
6FB6  58                 sizecode (88)
6FB7  1D000000           [01] getglobal  0   0        ; gGameRules
6FBB  5D400000           [02] getglobal  1   1        ; 1074689893
6FBF  92000000           [03] move       2   0      
6FC3  62800001           [04] call       1   2   2  
6FC7  58000000           [05] test       1       0    ; to [7] if true
6FCB  1A000080           [06] jmp        1            ; to [8]
6FCF  1E008000           [07] return     0   1      
6FD3  64804000           [08] self       1   0   258  ; -502414055
6FD7  62800001           [09] call       1   2   2  
6FDB  9DC00000           [10] getglobal  2   3        ; Lotus_Game
6FDF  8E004101           [11] gettable   2   2   260  ; "MT_EXTERMINATION"
fail op	35
6FE3  23808000           [12] close      0  
6FE7  1A000280           [13] jmp        9            ; to [23]
6FEB  9D400100           [14] getglobal  2   5        ; doorOne
6FEF  A4804101           [15] self       2   2   262  ; -1923578185
6FF3  19C10100           [16] loadk      4   7        ; "Open"
6FF7  A2408001           [17] call       2   3   1  
6FFB  9D000200           [18] getglobal  2   8        ; doorTwo
6FFF  A4804101           [19] self       2   2   262  ; -1923578185
7003  19C10100           [20] loadk      4   7        ; "Open"
7007  A2408001           [21] call       2   3   1  
700B  1E008000           [22] return     0   1      
700F  9D400200           [23] getglobal  2   9        ; gRegion
7013  A4804201           [24] self       2   2   266  ; -774964848
7017  A2800001           [25] call       2   2   2  
701B  E4C04201           [26] self       3   2   267  ; 537471347
701F  E2800001           [27] call       3   2   2  
7023  1D410000           [28] getglobal  4   1        ; 1074689893
7027  52018001           [29] move       5   3      
702B  22810001           [30] call       4   2   2  
702F  18410000           [31] test       4       1    ; to [33] if false
7033  1A800880           [32] jmp        35           ; to [68]
7037  2401C301           [33] self       4   3   268  ; -287792134
703B  22810001           [34] call       4   2   2  
fail op	35
703F  23404302           [35] close      0  
7043  1A400380           [36] jmp        14           ; to [51]
7047  1D410100           [37] getglobal  4   5        ; doorOne
704B  24814302           [38] self       4   4   270  ; -474628222
704F  22810001           [39] call       4   2   2  
fail op	35
7053  23C04302           [40] close      0  
7057  1A000280           [41] jmp        9            ; to [51]
705B  1D410100           [42] getglobal  4   5        ; doorOne
705F  24814102           [43] self       4   4   262  ; -1923578185
7063  99010400           [44] loadk      6   16       ; "Close"
7067  22418001           [45] call       4   3   1  
706B  1D010200           [46] getglobal  4   8        ; doorTwo
706F  24814102           [47] self       4   4   262  ; -1923578185
7073  99010400           [48] loadk      6   16       ; "Close"
7077  22418001           [49] call       4   3   1  
707B  1A000480           [50] jmp        17           ; to [68]
707F  2401C301           [51] self       4   3   268  ; -287792134
7083  22810001           [52] call       4   2   2  
fail op	35
7087  23C04302           [53] close      0  
708B  1A000380           [54] jmp        13           ; to [68]
708F  1D410100           [55] getglobal  4   5        ; doorOne
7093  24814302           [56] self       4   4   270  ; -474628222
7097  22810001           [57] call       4   2   2  
fail op	35
709B  23404302           [58] close      0  
709F  1AC00180           [59] jmp        8            ; to [68]
70A3  1D410100           [60] getglobal  4   5        ; doorOne
70A7  24814102           [61] self       4   4   262  ; -1923578185
70AB  99C10100           [62] loadk      6   7        ; "Open"
70AF  22418001           [63] call       4   3   1  
70B3  1D010200           [64] getglobal  4   8        ; doorTwo
70B7  24814102           [65] self       4   4   262  ; -1923578185
70BB  99C10100           [66] loadk      6   7        ; "Open"
70BF  22418001           [67] call       4   3   1  
70C3  24414400           [68] self       4   0   273  ; -317790213
70C7  9D810400           [69] getglobal  6   18       ; -332969190
70CB  D9C10400           [70] loadk      7   19       ; "ExterminateMid"
70CF  A2010001           [71] call       6   2   0  
70D3  22810000           [72] call       4   0   2  
fail op	35
70D7  63004502           [73] close      1  
70DB  1A000280           [74] jmp        9            ; to [84]
70DF  1D410100           [75] getglobal  4   5        ; doorOne
70E3  24814102           [76] self       4   4   262  ; -1923578185
70E7  99C10100           [77] loadk      6   7        ; "Open"
70EB  22418001           [78] call       4   3   1  
70EF  1D010200           [79] getglobal  4   8        ; doorTwo
70F3  24814102           [80] self       4   4   262  ; -1923578185
70F7  99C10100           [81] loadk      6   7        ; "Open"
70FB  22418001           [82] call       4   3   1  
70FF  1E008000           [83] return     0   1      
7103  1D410500           [84] getglobal  4   21       ; 538022378
7107  59810500           [85] loadk      5   22       ; 0
710B  22410001           [86] call       4   2   1  
710F  1AC0F07F           [87] jmp        -60          ; to [28]
7113  1E008000           [88] return     0   1      
                         * constants:
7117  17                 sizek (23)
7118  04                 const type 4
7119  0B                 string size (11)
711A  6747616D6552756C+  "gGameRul"
7122  657300             "es\0"
                         const [0]: "gGameRules"
7125  01                 const type 3
7126  65770E40           const [1]: (1074689893)
712A  01                 const type 3
712B  19C50DE2           const [2]: (-502414055)
712F  04                 const type 4
7130  0B                 string size (11)
7131  4C6F7475735F4761+  "Lotus_Ga"
7139  6D6500             "me\0"
                         const [3]: "Lotus_Game"
713C  04                 const type 4
713D  11                 string size (17)
713E  4D545F4558544552+  "MT_EXTER"
7146  4D494E4154494F4E+  "MINATION"
714E  00                 "\0"
                         const [4]: "MT_EXTERMINATION"
714F  04                 const type 4
7150  08                 string size (8)
7151  646F6F724F6E6500   "doorOne\0"
                         const [5]: "doorOne"
7159  01                 const type 3
715A  B786588D           const [6]: (-1923578185)
715E  04                 const type 4
715F  05                 string size (5)
7160  4F70656E00         "Open\0"
                         const [7]: "Open"
7165  04                 const type 4
7166  08                 string size (8)
7167  646F6F7254776F00   "doorTwo\0"
                         const [8]: "doorTwo"
716F  04                 const type 4
7170  08                 string size (8)
7171  67526567696F6E00   "gRegion\0"
                         const [9]: "gRegion"
7179  01                 const type 3
717A  90F9CED1           const [10]: (-774964848)
717E  01                 const type 3
717F  73290920           const [11]: (537471347)
7183  01                 const type 3
7184  FAA3D8EE           const [12]: (-287792134)
7188  01                 const type 3
7189  00000000           const [13]: (0)
718D  01                 const type 3
718E  82BFB5E3           const [14]: (-474628222)
7192  01                 const type 3
7193  01000000           const [15]: (1)
7197  04                 const type 4
7198  06                 string size (6)
7199  436C6F736500       "Close\0"
                         const [16]: "Close"
719F  01                 const type 3
71A0  FBE70EED           const [17]: (-317790213)
71A4  01                 const type 3
71A5  1A4B27EC           const [18]: (-332969190)
71A9  04                 const type 4
71AA  0F                 string size (15)
71AB  45787465726D696E+  "Extermin"
71B3  6174654D696400     "ateMid\0"
                         const [19]: "ExterminateMid"
71BA  03                 const type 3
71BB  00000000           const [20]: (0)
71BF  01                 const type 3
71C0  EA911120           const [21]: (538022378)
71C4  03                 const type 3
71C5  0000803F           const [22]: (0)
                         * functions:
71C9  00                 sizep (0)
                         * lines:
71CA  58                 sizelineinfo (88)
                         [pc] (line)
71CB  D8                 [01] (-40)
71CC  04                 [02] (-39)
71CD  00                 [03] (-39)
71CE  00                 [04] (-39)
71CF  D9                 [05] (-39)
71D0  04                 [06] (-39)
71D1  00                 [07] (-38)
71D2  00                 [08] (-35)
71D3  D9                 [09] (-35)
71D4  04                 [10] (-32)
71D5  00                 [11] (-32)
71D6  00                 [12] (-32)
71D7  D9                 [13] (-32)
71D8  04                 [14] (-31)
71D9  00                 [15] (-31)
71DA  00                 [16] (-31)
71DB  D9                 [17] (-31)
71DC  04                 [18] (-30)
71DD  00                 [19] (-30)
71DE  00                 [20] (-30)
71DF  D9                 [21] (-30)
71E0  04                 [22] (-29)
71E1  00                 [23] (-26)
71E2  00                 [24] (-26)
71E3  DA                 [25] (-26)
71E4  04                 [26] (-25)
71E5  00                 [27] (-25)
71E6  00                 [28] (-22)
71E7  DD                 [29] (-22)
71E8  04                 [30] (-22)
71E9  00                 [31] (-22)
71EA  00                 [32] (-22)
71EB  DD                 [33] (-21)
71EC  04                 [34] (-21)
71ED  00                 [35] (-21)
71EE  00                 [36] (-21)
71EF  E0                 [37] (-21)
71F0  04                 [38] (-21)
71F1  00                 [39] (-21)
71F2  00                 [40] (-21)
71F3  E0                 [41] (-21)
71F4  04                 [42] (-20)
71F5  00                 [43] (-20)
71F6  00                 [44] (-20)
71F7  E0                 [45] (-20)
71F8  04                 [46] (-19)
71F9  00                 [47] (-19)
71FA  00                 [48] (-19)
71FB  E0                 [49] (-19)
71FC  04                 [50] (-19)
71FD  00                 [51] (-18)
71FE  00                 [52] (-18)
71FF  E1                 [53] (-18)
7200  04                 [54] (-18)
7201  00                 [55] (-18)
7202  00                 [56] (-18)
7203  E1                 [57] (-18)
7204  04                 [58] (-18)
7205  00                 [59] (-18)
7206  00                 [60] (-17)
7207  E1                 [61] (-17)
7208  04                 [62] (-17)
7209  00                 [63] (-17)
720A  00                 [64] (-16)
720B  E1                 [65] (-16)
720C  04                 [66] (-16)
720D  00                 [67] (-16)
720E  00                 [68] (-13)
720F  E2                 [69] (-13)
7210  04                 [70] (-13)
7211  00                 [71] (-13)
7212  00                 [72] (-13)
7213  E2                 [73] (-13)
7214  04                 [74] (-13)
7215  00                 [75] (-10)
7216  00                 [76] (-10)
7217  E2                 [77] (-10)
7218  04                 [78] (-10)
7219  00                 [79] (-9)
721A  00                 [80] (-9)
721B  E2                 [81] (-9)
721C  04                 [82] (-9)
721D  00                 [83] (-8)
721E  00                 [84] (-6)
721F  E3                 [85] (-6)
7220  04                 [86] (-6)
7221  00                 [87] (-6)
7222  00                 [88] (-4)
                         * locals:
732B  00                 sizelocvars (0)
                         * upvalues:
732C  00                 sizeupvalues (0)
                         ** end of function **

                         
732D                     ** function [22] definition (level 2)
                         ** start of function **
732D  00                 string size (0)
                         source name: (none)
732F  09                 line defined (1278)
7330  A7                 last line defined (1319)
7331  0A                 nups (0)
7332  00                 numparams (0)
7333  00                 is_vararg (0)
7334  00                 maxstacksize (23)
                         * code:
7336  66                 sizecode (102)
7337  1D000000           [001] getglobal  0   0        ; gGameRules
733B  5D400000           [002] getglobal  1   1        ; 1074689893
733F  92000000           [003] move       2   0      
7343  62800001           [004] call       1   2   2  
7347  58000000           [005] test       1       0    ; to [7] if true
734B  1A000080           [006] jmp        1            ; to [8]
734F  1E008000           [007] return     0   1      
7353  64804000           [008] self       1   0   258  ; -502414055
7357  62800001           [009] call       1   2   2  
735B  9DC00000           [010] getglobal  2   3        ; Lotus_Game
735F  8E004101           [011] gettable   2   2   260  ; "MT_EXTERMINATION"
fail op	35
7363  23808000           [012] close      0  
7367  1AC00280           [013] jmp        12           ; to [26]
736B  99400100           [014] loadk      2   5        ; 0
736F  DD800100           [015] getglobal  3   6        ; doors
7373  CA008001           [016] len        3   3      
7377  19410100           [017] loadk      4   5        ; 0
737B  90000180           [018] forprep    2   5        ; to [24]
737F  9D810100           [019] getglobal  6   6        ; doors
7383  8E410103           [020] gettable   6   6   5  
7387  A4C14103           [021] self       6   6   263  ; -1923578185
738B  19020200           [022] loadk      8   8        ; "Open"
738F  A2418001           [023] call       6   3   1  
7393  9440FE7F           [024] forloop    2   -6       ; to [19] if loop
7397  1E008000           [025] return     0   1      
739B  9D410200           [026] getglobal  6   9        ; gRegion
739F  A4814203           [027] self       6   6   266  ; -774964848
73A3  A2810001           [028] call       6   2   2  
73A7  E4C14203           [029] self       7   6   267  ; 537471347
73AB  E2810001           [030] call       7   2   2  
73AF  1D420000           [031] getglobal  8   1        ; 1074689893
73B3  52028003           [032] move       9   7      
73B7  22820001           [033] call       8   2   2  
73BB  18420000           [034] test       8       1    ; to [36] if false
73BF  1A800A80           [035] jmp        43           ; to [79]
73C3  2402C303           [036] self       8   7   268  ; -287792134
73C7  22820001           [037] call       8   2   2  
fail op	35
73CB  23404304           [038] close      0  
73CF  1A400480           [039] jmp        18           ; to [58]
73D3  1D820100           [040] getglobal  8   6        ; doors
73D7  0E424104           [041] gettable   8   8   261  ; 0
73DB  24824304           [042] self       8   8   270  ; -474628222
73DF  22820001           [043] call       8   2   2  
fail op	35
73E3  23C04304           [044] close      0  
73E7  1AC00280           [045] jmp        12           ; to [58]
73EB  19420100           [046] loadk      8   5        ; 0
73EF  5D820100           [047] getglobal  9   6        ; doors
73F3  4A028004           [048] len        9   9      
73F7  99420100           [049] loadk      10  5        ; 0
73FB  10020180           [050] forprep    8   5        ; to [56]
73FF  1D830100           [051] getglobal  12  6        ; doors
7403  0EC30206           [052] gettable   12  12  11 
7407  24C34106           [053] self       12  12  263  ; -1923578185
740B  99030400           [054] loadk      14  16       ; "Close"
740F  22438001           [055] call       12  3   1  
7413  1442FE7F           [056] forloop    8   -6       ; to [51] if loop
7417  1A000580           [057] jmp        21           ; to [79]
741B  2403C303           [058] self       12  7   268  ; -287792134
741F  22830001           [059] call       12  2   2  
fail op	35
7423  23C04306           [060] close      0  
7427  1A000480           [061] jmp        17           ; to [79]
742B  1D830100           [062] getglobal  12  6        ; doors
742F  0E434106           [063] gettable   12  12  261  ; 0
7433  24834306           [064] self       12  12  270  ; -474628222
7437  22830001           [065] call       12  2   2  
fail op	35
743B  23404306           [066] close      0  
743F  1A800280           [067] jmp        11           ; to [79]
7443  19430100           [068] loadk      12  5        ; 0
7447  5D830100           [069] getglobal  13  6        ; doors
744B  4A038006           [070] len        13  13     
744F  99430100           [071] loadk      14  5        ; 0
7453  10030180           [072] forprep    12  5        ; to [78]
7457  1D840100           [073] getglobal  16  6        ; doors
745B  0EC40308           [074] gettable   16  16  15 
745F  24C44108           [075] self       16  16  263  ; -1923578185
7463  99040200           [076] loadk      18  8        ; "Open"
7467  22448001           [077] call       16  3   1  
746B  1443FE7F           [078] forloop    12  -6       ; to [73] if loop
746F  24444400           [079] self       16  0   273  ; -317790213
7473  9D840400           [080] getglobal  18  18       ; -332969190
7477  D9C40400           [081] loadk      19  19       ; "ExterminateMid"
747B  A2040001           [082] call       18  2   0  
747F  22840000           [083] call       16  0   2  
fail op	35
7483  63004508           [084] close      1  
7487  1AC00280           [085] jmp        12           ; to [98]
748B  19440100           [086] loadk      16  5        ; 0
748F  5D840100           [087] getglobal  17  6        ; doors
7493  4A048008           [088] len        17  17     
7497  99440100           [089] loadk      18  5        ; 0
749B  10040180           [090] forprep    16  5        ; to [96]
749F  1D850100           [091] getglobal  20  6        ; doors
74A3  0EC5040A           [092] gettable   20  20  19 
74A7  24C5410A           [093] self       20  20  263  ; -1923578185
74AB  99050200           [094] loadk      22  8        ; "Open"
74AF  22458001           [095] call       20  3   1  
74B3  1444FE7F           [096] forloop    16  -6       ; to [91] if loop
74B7  1E008000           [097] return     0   1      
74BB  1D450500           [098] getglobal  20  21       ; 538022378
74BF  59450100           [099] loadk      21  5        ; 0
74C3  22450001           [100] call       20  2   1  
74C7  1A00EE7F           [101] jmp        -71          ; to [31]
74CB  1E008000           [102] return     0   1      
                         * constants:
74CF  16                 sizek (22)
74D0  04                 const type 4
74D1  0B                 string size (11)
74D2  6747616D6552756C+  "gGameRul"
74DA  657300             "es\0"
                         const [0]: "gGameRules"
74DD  01                 const type 3
74DE  65770E40           const [1]: (1074689893)
74E2  01                 const type 3
74E3  19C50DE2           const [2]: (-502414055)
74E7  04                 const type 4
74E8  0B                 string size (11)
74E9  4C6F7475735F4761+  "Lotus_Ga"
74F1  6D6500             "me\0"
                         const [3]: "Lotus_Game"
74F4  04                 const type 4
74F5  11                 string size (17)
74F6  4D545F4558544552+  "MT_EXTER"
74FE  4D494E4154494F4E+  "MINATION"
7506  00                 "\0"
                         const [4]: "MT_EXTERMINATION"
7507  03                 const type 3
7508  0000803F           const [5]: (0)
750C  04                 const type 4
750D  06                 string size (6)
750E  646F6F727300       "doors\0"
                         const [6]: "doors"
7514  01                 const type 3
7515  B786588D           const [7]: (-1923578185)
7519  04                 const type 4
751A  05                 string size (5)
751B  4F70656E00         "Open\0"
                         const [8]: "Open"
7520  04                 const type 4
7521  08                 string size (8)
7522  67526567696F6E00   "gRegion\0"
                         const [9]: "gRegion"
752A  01                 const type 3
752B  90F9CED1           const [10]: (-774964848)
752F  01                 const type 3
7530  73290920           const [11]: (537471347)
7534  01                 const type 3
7535  FAA3D8EE           const [12]: (-287792134)
7539  01                 const type 3
753A  00000000           const [13]: (0)
753E  01                 const type 3
753F  82BFB5E3           const [14]: (-474628222)
7543  01                 const type 3
7544  01000000           const [15]: (1)
7548  04                 const type 4
7549  06                 string size (6)
754A  436C6F736500       "Close\0"
                         const [16]: "Close"
7550  01                 const type 3
7551  FBE70EED           const [17]: (-317790213)
7555  01                 const type 3
7556  1A4B27EC           const [18]: (-332969190)
755A  04                 const type 4
755B  0F                 string size (15)
755C  45787465726D696E+  "Extermin"
7564  6174654D696400     "ateMid\0"
                         const [19]: "ExterminateMid"
756B  03                 const type 3
756C  00000000           const [20]: (0)
7570  01                 const type 3
7571  EA911120           const [21]: (538022378)
                         * functions:
7575  00                 sizep (0)
                         * lines:
7576  66                 sizelineinfo (102)
                         [pc] (line)
7577  FF                 [001] (-1)
7578  04                 [002] (0)
7579  00                 [003] (0)
757A  00                 [004] (0)
757B  00                 [005] (0)
757C  05                 [006] (0)
757D  00                 [007] (1)
757E  00                 [008] (4)
757F  00                 [009] (4)
7580  05                 [010] (7)
7581  00                 [011] (7)
7582  00                 [012] (7)
7583  00                 [013] (7)
7584  05                 [014] (8)
7585  00                 [015] (8)
7586  00                 [016] (8)
7587  00                 [017] (8)
7588  05                 [018] (8)
7589  00                 [019] (9)
758A  00                 [020] (9)
758B  00                 [021] (9)
758C  05                 [022] (9)
758D  00                 [023] (9)
758E  00                 [024] (8)
758F  01                 [025] (11)
7590  05                 [026] (14)
7591  00                 [027] (14)
7592  00                 [028] (14)
7593  04                 [029] (15)
7594  05                 [030] (15)
7595  00                 [031] (18)
7596  00                 [032] (18)
7597  04                 [033] (18)
7598  05                 [034] (18)
7599  00                 [035] (18)
759A  00                 [036] (19)
759B  07                 [037] (19)
759C  05                 [038] (19)
759D  00                 [039] (19)
759E  00                 [040] (19)
759F  07                 [041] (19)
75A0  05                 [042] (19)
75A1  00                 [043] (19)
75A2  00                 [044] (19)
75A3  07                 [045] (19)
75A4  05                 [046] (20)
75A5  00                 [047] (20)
75A6  00                 [048] (20)
75A7  07                 [049] (20)
75A8  05                 [050] (20)
75A9  00                 [051] (21)
75AA  00                 [052] (21)
75AB  08                 [053] (21)
75AC  05                 [054] (21)
75AD  00                 [055] (21)
75AE  00                 [056] (20)
75AF  08                 [057] (22)
75B0  05                 [058] (23)
75B1  00                 [059] (23)
75B2  00                 [060] (23)
75B3  08                 [061] (23)
75B4  05                 [062] (23)
75B5  00                 [063] (23)
75B6  00                 [064] (23)
75B7  08                 [065] (23)
75B8  05                 [066] (23)
75B9  00                 [067] (23)
75BA  00                 [068] (24)
75BB  08                 [069] (24)
75BC  05                 [070] (24)
75BD  00                 [071] (24)
75BE  00                 [072] (24)
75BF  09                 [073] (25)
75C0  05                 [074] (25)
75C1  00                 [075] (25)
75C2  00                 [076] (25)
75C3  09                 [077] (25)
75C4  05                 [078] (24)
75C5  00                 [079] (29)
75C6  00                 [080] (29)
75C7  09                 [081] (29)
75C8  05                 [082] (29)
75C9  00                 [083] (29)
75CA  00                 [084] (29)
75CB  09                 [085] (29)
75CC  05                 [086] (32)
75CD  00                 [087] (32)
75CE  00                 [088] (32)
75CF  09                 [089] (32)
75D0  05                 [090] (32)
75D1  00                 [091] (33)
75D2  00                 [092] (33)
75D3  08                 [093] (33)
75D4  05                 [094] (33)
75D5  00                 [095] (33)
75D6  00                 [096] (32)
75D7  0B                 [097] (35)
75D8  05                 [098] (37)
75D9  00                 [099] (37)
75DA  00                 [100] (37)
75DB  0E                 [101] (37)
75DC  05                 [102] (39)
                         * locals:
770F  00                 sizelocvars (0)
                         * upvalues:
7710  00                 sizeupvalues (0)
                         ** end of function **

                         
7711                     ** function [23] definition (level 2)
                         ** start of function **
7711  00                 string size (0)
                         source name: (none)
7713  0A                 line defined (1324)
7714  EF                 last line defined (1391)
7715  0A                 nups (5)
7716  05                 numparams (0)
7717  00                 is_vararg (0)
7718  00                 maxstacksize (14)
                         * code:
771B  01                 sizecode (151)
771C  1D000000           [001] getglobal  0   0        ; gGameRules
7720  24404000           [002] self       0   0   257  ; -803877924
7724  93000000           [003] getupval   2   0      
7728  D9800000           [004] loadk      3   2        ; 0
772C  22400002           [005] call       0   4   1  
7730  1DC00000           [006] getglobal  0   3        ; gRegion
7734  24004100           [007] self       0   0   260  ; 65205951
7738  22800001           [008] call       0   2   2  
773C  64404100           [009] self       1   0   261  ; -1917464545
7740  62800001           [010] call       1   2   2  
7744  6480C100           [011] self       1   1   262  ; 1674984496
7748  DDC00100           [012] getglobal  3   7        ; Engine
774C  CE00C201           [013] gettable   3   3   264  ; "SLOT_6"
7750  62808001           [014] call       1   3   2  
7754  9D400200           [015] getglobal  2   9        ; 1074689893
7758  D2008000           [016] move       3   1      
775C  A2800001           [017] call       2   2   2  
7760  98400000           [018] test       2       1    ; to [20] if false
7764  1A000880           [019] jmp        33           ; to [53]
7768  A480C200           [020] self       2   1   266  ; 324408092
776C  A2800001           [021] call       2   2   2  
7770  DDC00200           [022] getglobal  3   11       ; Lotus_Game
7774  CE00C301           [023] gettable   3   3   268  ; "DUAL_MELEE"
fail op	35
7778  23C00001           [024] close      0  
777C  1A000180           [025] jmp        5            ; to [31]
7780  DD400300           [026] getglobal  3   13       ; bossKillCinematicsDualSkana
7784  CA008001           [027] len        3   3      
fail op	21
7788  15C00087           [028] concat     0   270 3  
778C  1A800580           [029] jmp        23           ; to [53]
7790  1A400580           [030] jmp        22           ; to [53]
7794  DDC00200           [031] getglobal  3   11       ; Lotus_Game
7798  CEC0C301           [032] gettable   3   3   271  ; "STAFF"
fail op	35
779C  23C00001           [033] close      0  
77A0  1A000180           [034] jmp        5            ; to [40]
77A4  DD000400           [035] getglobal  3   16       ; bossKillCinematicsBoStaff
77A8  CA008001           [036] len        3   3      
fail op	21
77AC  15C00087           [037] concat     0   270 3  
77B0  1A400380           [038] jmp        14           ; to [53]
77B4  1A000380           [039] jmp        13           ; to [53]
77B8  DDC00200           [040] getglobal  3   11       ; Lotus_Game
77BC  CE40C401           [041] gettable   3   3   273  ; "FIST"
fail op	35
77C0  23C00001           [042] close      0  
77C4  1A000180           [043] jmp        5            ; to [49]
77C8  DD800400           [044] getglobal  3   18       ; bossKillCinematicsGauntlet
77CC  CA008001           [045] len        3   3      
fail op	21
77D0  15C00087           [046] concat     0   270 3  
77D4  1A000180           [047] jmp        5            ; to [53]
77D8  1AC00080           [048] jmp        4            ; to [53]
77DC  DDC00400           [049] getglobal  3   19       ; bossKillCinematicsSword
77E0  CA008001           [050] len        3   3      
fail op	21
77E4  15C00087           [051] concat     0   270 3  
77E8  1AC0FF7F           [052] jmp        0            ; to [53]
77EC  DDC00000           [053] getglobal  3   3        ; gRegion
77F0  E400C501           [054] self       3   3   276  ; -1485896174
77F4  5D410500           [055] getglobal  5   21       ; -332969190
77F8  99810500           [056] loadk      6   22       ; "DoorPortCounter"
77FC  62010001           [057] call       5   2   0  
7800  E2800000           [058] call       3   0   2  
7804  1D410500           [059] getglobal  4   21       ; -332969190
7808  59C10500           [060] loadk      5   23       ; "Objective"
780C  22810001           [061] call       4   2   2  
7810  5D010000           [062] getglobal  5   0        ; gGameRules
7814  6401C602           [063] self       5   5   280  ; -317790213
7818  D3018000           [064] getupval   7   1      
781C  62818001           [065] call       5   3   2  
fail op	33
7820  21400181           [066] tforloop   0       5    ; to [68] if exit
7824  1AC00080           [067] jmp        4            ; to [72]
7828  5D410500           [068] getglobal  5   21       ; -332969190
782C  99410600           [069] loadk      6   25       ; "Boss"
7830  62810001           [070] call       5   2   2  
7834  12018002           [071] move       4   5      
7838  53010001           [072] getupval   5   2      
783C  92010002           [073] move       6   4      
7840  D2018001           [074] move       7   3      
7844  62818001           [075] call       5   3   2  
7848  9D410200           [076] getglobal  6   9        ; 1074689893
784C  D2018002           [077] move       7   5      
7850  A2810001           [078] call       6   2   2  
7854  98410000           [079] test       6       1    ; to [81] if false
7858  1A800080           [080] jmp        3            ; to [84]
785C  A481C602           [081] self       6   5   282  ; -1923578185
7860  19C20600           [082] loadk      8   27       ; "Start"
7864  A2418001           [083] call       6   3   1  
7868  9D410200           [084] getglobal  6   9        ; 1074689893
786C  DD010700           [085] getglobal  7   28       ; objMarkerInst
7870  A2810001           [086] call       6   2   2  
7874  98410000           [087] test       6       1    ; to [89] if false
7878  1A800080           [088] jmp        3            ; to [92]
787C  9D010700           [089] getglobal  6   28       ; objMarkerInst
7880  A4414703           [090] self       6   6   285  ; -725453761
7884  A2410001           [091] call       6   2   1  
7888  9D810700           [092] getglobal  6   30       ; objRemoveScript
788C  A4C14703           [093] self       6   6   287  ; -636985499
7890  A2410001           [094] call       6   2   1  
7894  93018001           [095] getupval   6   3      
7898  A2818000           [096] call       6   1   2  
fail op	35
789C  23004803           [097] close      0  
78A0  1A800880           [098] jmp        35           ; to [134]
78A4  DDC10000           [099] getglobal  7   3        ; gRegion
78A8  E441C803           [100] self       7   7   289  ; -774964848
78AC  E2810001           [101] call       7   2   2  
78B0  2482C803           [102] self       8   7   290  ; 537471347
78B4  22820001           [103] call       8   2   2  
78B8  53020002           [104] getupval   9   4      
78BC  4EC2C804           [105] gettable   9   9   291  ; 198248041
78C0  62828000           [106] call       9   1   2  
78C4  9D420200           [107] getglobal  10  9        ; 1074689893
78C8  D2020004           [108] move       11  8      
78CC  A2820001           [109] call       10  2   2  
78D0  98420000           [110] test       10      1    ; to [112] if false
78D4  1AC00280           [111] jmp        12           ; to [124]
78D8  9D020000           [112] getglobal  10  0        ; gGameRules
78DC  A4024905           [113] self       10  10  292  ; 2051260977
78E0  17038000           [114] loadbool   12  1   0    ; true
78E4  A2428001           [115] call       10  3   1  
78E8  9D420200           [116] getglobal  10  9        ; 1074689893
78EC  D2028004           [117] move       11  9      
78F0  A2820001           [118] call       10  2   2  
78F4  98420000           [119] test       10      1    ; to [121] if false
78F8  1A800080           [120] jmp        3            ; to [124]
78FC  A4424904           [121] self       10  8   293  ; -906150570
7900  12038004           [122] move       12  9      
7904  A2428001           [123] call       10  3   1  
7908  9D020000           [124] getglobal  10  0        ; gGameRules
790C  A4824905           [125] self       10  10  294  ; -502414055
7910  A2820001           [126] call       10  2   2  
7914  DDC20200           [127] getglobal  11  11       ; Lotus_Game
7918  CEC2C905           [128] gettable   11  11  295  ; "MT_RAID"
fail op	35
791C  63C00205           [129] close      1  
7920  1A800080           [130] jmp        3            ; to [134]
7924  9D020A00           [131] getglobal  10  40       ; completeObjScript
7928  A4C24705           [132] self       10  10  287  ; -636985499
792C  A2420001           [133] call       10  2   1  
7930  9DC20000           [134] getglobal  10  3        ; gRegion
7934  A4424805           [135] self       10  10  289  ; -774964848
7938  A2820001           [136] call       10  2   2  
793C  DD420200           [137] getglobal  11  9        ; 1074689893
7940  12030005           [138] move       12  10     
7944  E2820001           [139] call       11  2   2  
7948  D8420000           [140] test       11      1    ; to [142] if false
794C  1A000280           [141] jmp        9            ; to [151]
7950  E4824805           [142] self       11  10  290  ; 537471347
7954  E2820001           [143] call       11  2   2  
7958  1D430200           [144] getglobal  12  9        ; 1074689893
795C  52038005           [145] move       13  11     
7960  22830001           [146] call       12  2   2  
7964  18430000           [147] test       12      1    ; to [149] if false
7968  1A400080           [148] jmp        2            ; to [151]
796C  2443CA05           [149] self       12  11  297  ; -177360333
7970  22430001           [150] call       12  2   1  
7974  1E008000           [151] return     0   1      
                         * constants:
7978  2A                 sizek (42)
7979  04                 const type 4
797A  0B                 string size (11)
797B  6747616D6552756C+  "gGameRul"
7983  657300             "es\0"
                         const [0]: "gGameRules"
7986  01                 const type 3
7987  DCCB15D0           const [1]: (-803877924)
798B  03                 const type 3
798C  0000803F           const [2]: (0)
7990  04                 const type 4
7991  08                 string size (8)
7992  67526567696F6E00   "gRegion\0"
                         const [3]: "gRegion"
799A  01                 const type 3
799B  BFF6E203           const [4]: (65205951)
799F  01                 const type 3
79A0  1FD0B58D           const [5]: (-1917464545)
79A4  01                 const type 3
79A5  303CD663           const [6]: (1674984496)
79A9  04                 const type 4
79AA  07                 string size (7)
79AB  456E67696E6500     "Engine\0"
                         const [7]: "Engine"
79B2  04                 const type 4
79B3  07                 string size (7)
79B4  534C4F545F3600     "SLOT_6\0"
                         const [8]: "SLOT_6"
79BB  01                 const type 3
79BC  65770E40           const [9]: (1074689893)
79C0  01                 const type 3
79C1  1C135613           const [10]: (324408092)
79C5  04                 const type 4
79C6  0B                 string size (11)
79C7  4C6F7475735F4761+  "Lotus_Ga"
79CF  6D6500             "me\0"
                         const [11]: "Lotus_Game"
79D2  04                 const type 4
79D3  0B                 string size (11)
79D4  4455414C5F4D454C+  "DUAL_MEL"
79DC  454500             "EE\0"
                         const [12]: "DUAL_MELEE"
79DF  04                 const type 4
79E0  1C                 string size (28)
79E1  626F73734B696C6C+  "bossKill"
79E9  43696E656D617469+  "Cinemati"
79F1  63734475616C536B+  "csDualSk"
79F9  616E6100           "ana\0"
                         const [13]: "bossKillCinematicsDualSkana"
79FD  03                 const type 3
79FE  00000000           const [14]: (0)
7A02  04                 const type 4
7A03  06                 string size (6)
7A04  535441464600       "STAFF\0"
                         const [15]: "STAFF"
7A0A  04                 const type 4
7A0B  1A                 string size (26)
7A0C  626F73734B696C6C+  "bossKill"
7A14  43696E656D617469+  "Cinemati"
7A1C  6373426F53746166+  "csBoStaf"
7A24  6600               "f\0"
                         const [16]: "bossKillCinematicsBoStaff"
7A26  04                 const type 4
7A27  05                 string size (5)
7A28  4649535400         "FIST\0"
                         const [17]: "FIST"
7A2D  04                 const type 4
7A2E  1B                 string size (27)
7A2F  626F73734B696C6C+  "bossKill"
7A37  43696E656D617469+  "Cinemati"
7A3F  63734761756E746C+  "csGauntl"
7A47  657400             "et\0"
                         const [18]: "bossKillCinematicsGauntlet"
7A4A  04                 const type 4
7A4B  18                 string size (24)
7A4C  626F73734B696C6C+  "bossKill"
7A54  43696E656D617469+  "Cinemati"
7A5C  637353776F726400   "csSword\0"
                         const [19]: "bossKillCinematicsSword"
7A64  01                 const type 3
7A65  12066FA7           const [20]: (-1485896174)
7A69  01                 const type 3
7A6A  1A4B27EC           const [21]: (-332969190)
7A6E  04                 const type 4
7A6F  10                 string size (16)
7A70  446F6F72506F7274+  "DoorPort"
7A78  436F756E74657200   "Counter\0"
                         const [22]: "DoorPortCounter"
7A80  04                 const type 4
7A81  0A                 string size (10)
7A82  4F626A6563746976+  "Objectiv"
7A8A  6500               "e\0"
                         const [23]: "Objective"
7A8C  01                 const type 3
7A8D  FBE70EED           const [24]: (-317790213)
7A91  04                 const type 4
7A92  05                 string size (5)
7A93  426F737300         "Boss\0"
                         const [25]: "Boss"
7A98  01                 const type 3
7A99  B786588D           const [26]: (-1923578185)
7A9D  04                 const type 4
7A9E  06                 string size (6)
7A9F  537461727400       "Start\0"
                         const [27]: "Start"
7AA5  04                 const type 4
7AA6  0E                 string size (14)
7AA7  6F626A4D61726B65+  "objMarke"
7AAF  72496E737400       "rInst\0"
                         const [28]: "objMarkerInst"
7AB5  01                 const type 3
7AB6  3F74C2D4           const [29]: (-725453761)
7ABA  04                 const type 4
7ABB  10                 string size (16)
7ABC  6F626A52656D6F76+  "objRemov"
7AC4  6553637269707400   "eScript\0"
                         const [30]: "objRemoveScript"
7ACC  01                 const type 3
7ACD  655F08DA           const [31]: (-636985499)
7AD1  01                 const type 3
7AD2  00000000           const [32]: (0)
7AD6  01                 const type 3
7AD7  90F9CED1           const [33]: (-774964848)
7ADB  01                 const type 3
7ADC  73290920           const [34]: (537471347)
7AE0  01                 const type 3
7AE1  6906D10B           const [35]: (198248041)
7AE5  01                 const type 3
7AE6  31C2437A           const [36]: (2051260977)
7AEA  01                 const type 3
7AEB  563DFDC9           const [37]: (-906150570)
7AEF  01                 const type 3
7AF0  19C50DE2           const [38]: (-502414055)
7AF4  04                 const type 4
7AF5  08                 string size (8)
7AF6  4D545F5241494400   "MT_RAID\0"
                         const [39]: "MT_RAID"
7AFE  04                 const type 4
7AFF  12                 string size (18)
7B00  636F6D706C657465+  "complete"
7B08  4F626A5363726970+  "ObjScrip"
7B10  7400               "t\0"
                         const [40]: "completeObjScript"
7B12  01                 const type 3
7B13  33B26DF5           const [41]: (-177360333)
                         * functions:
7B17  00                 sizep (0)
                         * lines:
7B19  01                 sizelineinfo (151)
                         [pc] (line)
7B1A  2E                 [001] (46)
7B1B  05                 [002] (46)
7B1C  00                 [003] (46)
7B1D  00                 [004] (46)
7B1E  2E                 [005] (46)
7B1F  05                 [006] (48)
7B20  00                 [007] (48)
7B21  00                 [008] (48)
7B22  2E                 [009] (49)
7B23  05                 [010] (49)
7B24  00                 [011] (49)
7B25  00                 [012] (49)
7B26  2E                 [013] (49)
7B27  05                 [014] (49)
7B28  00                 [015] (51)
7B29  00                 [016] (51)
7B2A  2E                 [017] (51)
7B2B  05                 [018] (51)
7B2C  00                 [019] (51)
7B2D  00                 [020] (52)
7B2E  30                 [021] (52)
7B2F  05                 [022] (53)
7B30  00                 [023] (53)
7B31  00                 [024] (53)
7B32  30                 [025] (53)
7B33  05                 [026] (54)
7B34  00                 [027] (54)
7B35  00                 [028] (54)
7B36  30                 [029] (54)
7B37  05                 [030] (56)
7B38  00                 [031] (57)
7B39  00                 [032] (57)
7B3A  31                 [033] (57)
7B3B  05                 [034] (57)
7B3C  00                 [035] (58)
7B3D  00                 [036] (58)
7B3E  31                 [037] (58)
7B3F  05                 [038] (58)
7B40  00                 [039] (60)
7B41  00                 [040] (61)
7B42  31                 [041] (61)
7B43  05                 [042] (61)
7B44  00                 [043] (61)
7B45  00                 [044] (62)
7B46  31                 [045] (62)
7B47  05                 [046] (62)
7B48  00                 [047] (62)
7B49  00                 [048] (64)
7B4A  31                 [049] (66)
7B4B  05                 [050] (66)
7B4C  00                 [051] (66)
7B4D  00                 [052] (66)
7B4E  31                 [053] (74)
7B4F  05                 [054] (74)
7B50  00                 [055] (74)
7B51  00                 [056] (74)
7B52  33                 [057] (74)
7B53  05                 [058] (74)
7B54  00                 [059] (75)
7B55  00                 [060] (75)
7B56  33                 [061] (75)
7B57  05                 [062] (76)
7B58  00                 [063] (76)
7B59  00                 [064] (76)
7B5A  33                 [065] (76)
7B5B  05                 [066] (76)
7B5C  00                 [067] (76)
7B5D  00                 [068] (77)
7B5E  33                 [069] (77)
7B5F  05                 [070] (77)
7B60  00                 [071] (77)
7B61  00                 [072] (79)
7B62  33                 [073] (79)
7B63  05                 [074] (79)
7B64  00                 [075] (79)
7B65  00                 [076] (80)
7B66  34                 [077] (80)
7B67  05                 [078] (80)
7B68  00                 [079] (80)
7B69  00                 [080] (80)
7B6A  34                 [081] (81)
7B6B  05                 [082] (81)
7B6C  00                 [083] (81)
7B6D  00                 [084] (83)
7B6E  35                 [085] (83)
7B6F  05                 [086] (83)
7B70  00                 [087] (83)
7B71  00                 [088] (83)
7B72  35                 [089] (84)
7B73  05                 [090] (84)
7B74  00                 [091] (84)
7B75  00                 [092] (86)
7B76  35                 [093] (86)
7B77  05                 [094] (86)
7B78  00                 [095] (87)
7B79  00                 [096] (87)
7B7A  35                 [097] (88)
7B7B  05                 [098] (88)
7B7C  00                 [099] (89)
7B7D  00                 [100] (89)
7B7E  36                 [101] (89)
7B7F  05                 [102] (90)
7B80  00                 [103] (90)
7B81  00                 [104] (91)
7B82  36                 [105] (91)
7B83  05                 [106] (91)
7B84  00                 [107] (92)
7B85  00                 [108] (92)
7B86  36                 [109] (92)
7B87  05                 [110] (92)
7B88  00                 [111] (92)
7B89  00                 [112] (93)
7B8A  36                 [113] (93)
7B8B  05                 [114] (93)
7B8C  00                 [115] (93)
7B8D  00                 [116] (94)
7B8E  38                 [117] (94)
7B8F  05                 [118] (94)
7B90  00                 [119] (94)
7B91  00                 [120] (94)
7B92  39                 [121] (95)
7B93  05                 [122] (95)
7B94  00                 [123] (95)
7B95  00                 [124] (98)
7B96  39                 [125] (98)
7B97  05                 [126] (98)
7B98  00                 [127] (98)
7B99  00                 [128] (98)
7B9A  39                 [129] (98)
7B9B  05                 [130] (98)
7B9C  00                 [131] (99)
7B9D  00                 [132] (99)
7B9E  39                 [133] (99)
7B9F  05                 [134] (103)
7BA0  00                 [135] (103)
7BA1  00                 [136] (103)
7BA2  3A                 [137] (104)
7BA3  05                 [138] (104)
7BA4  00                 [139] (104)
7BA5  00                 [140] (104)
7BA6  3A                 [141] (104)
7BA7  05                 [142] (105)
7BA8  00                 [143] (105)
7BA9  00                 [144] (106)
7BAA  3A                 [145] (106)
7BAB  05                 [146] (106)
7BAC  00                 [147] (106)
7BAD  00                 [148] (106)
7BAE  3A                 [149] (107)
7BAF  05                 [150] (107)
7BB0  00                 [151] (111)
                         * locals:
7D76  00                 sizelocvars (0)
                         * upvalues:
7D77  00                 sizeupvalues (0)
                         ** end of function **

                         
7D78                     ** function [24] definition (level 2)
                         ** start of function **
7D78  00                 string size (0)
                         source name: (none)
7D7A  0A                 line defined (1393)
7D7B  CD                 last line defined (1485)
7D7C  0B                 nups (3)
7D7D  03                 numparams (0)
7D7E  00                 is_vararg (0)
7D7F  00                 maxstacksize (27)
                         * code:
7D82  01                 sizecode (190)
7D83  1D000000           [001] getglobal  0   0        ; gGameRules
7D87  64404000           [002] self       1   0   257  ; -1201441975
7D8B  62800001           [003] call       1   2   2  
7D8F  8E80C000           [004] gettable   2   1   258  ; "vipAgent"
7D93  C6008001           [005] loadnil    3   3      
7D97  1DC10000           [006] getglobal  4   3        ; 1074689893
7D9B  52010001           [007] move       5   2      
7D9F  22810001           [008] call       4   2   2  
7DA3  18010000           [009] test       4       0    ; to [11] if true
7DA7  1AC00180           [010] jmp        8            ; to [19]
7DAB  1D010100           [011] getglobal  4   4        ; VIP
7DAF  5D410100           [012] getglobal  5   5        ; 2144646525
7DB3  99810100           [013] loadk      6   6        ; 0
7DB7  DD010100           [014] getglobal  7   4        ; VIP
7DBB  CA018003           [015] len        7   7      
7DBF  62818001           [016] call       5   3   2  
7DC3  CE400102           [017] gettable   3   4   5  
7DC7  1AC00080           [018] jmp        4            ; to [23]
7DCB  1DC10100           [019] getglobal  4   7        ; -895206725
7DCF  52010001           [020] move       5   2      
7DD3  22810001           [021] call       4   2   2  
7DD7  D2000002           [022] move       3   4      
7DDB  1DC10000           [023] getglobal  4   3        ; 1074689893
7DDF  52018001           [024] move       5   3      
7DE3  22810001           [025] call       4   2   2  
7DE7  18010000           [026] test       4       0    ; to [28] if true
7DEB  1AC00080           [027] jmp        4            ; to [32]
7DEF  1D010200           [028] getglobal  4   8        ; -1817107093
7DF3  59410200           [029] loadk      5   9        ; "SpawnVIP failed (no agent)"
7DF7  22410001           [030] call       4   2   1  
7DFB  1E008000           [031] return     0   1      
7DFF  13010000           [032] getupval   4   0      
7E03  0E814202           [033] gettable   4   4   266  ; 1942291758
7E07  22418000           [034] call       4   1   1  
7E0B  1DC10200           [035] getglobal  4   11       ; gRegion
7E0F  24014302           [036] self       4   4   268  ; -774964848
7E13  22810001           [037] call       4   2   2  
7E17  64414302           [038] self       5   4   269  ; 537471347
7E1B  62810001           [039] call       5   2   2  
7E1F  9D810300           [040] getglobal  6   14       ; _T
7E23  8EC14303           [041] gettable   6   6   271  ; "missionAIReady"
7E27  98410000           [042] test       6       1    ; to [44] if false
7E2B  1AC00080           [043] jmp        4            ; to [48]
7E2F  9D010400           [044] getglobal  6   16       ; 538022378
7E33  D9410400           [045] loadk      7   17       ; 0
7E37  A2410001           [046] call       6   2   1  
7E3B  1AC0FD7F           [047] jmp        -8           ; to [40]
7E3F  A481C402           [048] self       6   5   274  ; -354168336
7E43  A2810001           [049] call       6   2   2  
7E47  DDC10200           [050] getglobal  7   11       ; gRegion
7E4B  E4C1C403           [051] self       7   7   275  ; -2071158816
7E4F  E2810001           [052] call       7   2   2  
7E53  0E02C500           [053] gettable   8   1   276  ; "vipLevelModifier"
7E57  03020203           [054] add        8   6   8  
7E5B  4A028003           [055] len        9   7      
fail op	33
7E5F  2140828A           [056] tforloop   0       9    ; to [58] if exit
7E63  1AC00180           [057] jmp        8            ; to [66]
7E67  4E82C500           [058] gettable   9   1   278  ; "sortieId"
fail op	35
7E6B  23C0C504           [059] close      0  
7E6F  1A000180           [060] jmp        5            ; to [66]
7E73  4A028003           [061] len        9   7      
7E77  5C42028C           [062] div        9   280 9    ; 0
7E7B  5C420283           [063] div        9   262 9    ; 0
7E7F  43420283           [064] add        9   262 9    ; 0
7E83  04420204           [065] mul        8   8   9  
7E87  9D420600           [066] getglobal  10  25       ; spawncontrol
7E8B  A4824605           [067] self       10  10  282  ; 117988024
7E8F  12038001           [068] move       12  3      
7E93  A2428001           [069] call       10  3   1  
7E97  9D420600           [070] getglobal  10  25       ; spawncontrol
7E9B  A4C24605           [071] self       10  10  283  ; -1700512036
7E9F  12030004           [072] move       12  8      
7EA3  A2428001           [073] call       10  3   1  
7EA7  9D420600           [074] getglobal  10  25       ; spawncontrol
7EAB  A4024705           [075] self       10  10  284  ; -1139739557
7EAF  A2420001           [076] call       10  2   1  
7EB3  9D420600           [077] getglobal  10  25       ; spawncontrol
7EB7  A4424705           [078] self       10  10  285  ; 803365678
7EBB  A2820001           [079] call       10  2   2  
7EBF  CE824105           [080] gettable   11  10  262  ; 0
7EC3  2483C705           [081] self       12  11  286  ; 2022702902
7EC7  22830001           [082] call       12  2   2  
7ECB  5DC30000           [083] getglobal  13  3        ; 1074689893
7ECF  92030006           [084] move       14  12     
7ED3  62830001           [085] call       13  2   2  
7ED7  58030000           [086] test       13      0    ; to [88] if true
7EDB  1AC00080           [087] jmp        4            ; to [92]
7EDF  5D030200           [088] getglobal  13  8        ; -1817107093
7EE3  99C30700           [089] loadk      14  31       ; "SpawnVIP failed (no avatar)"
7EE7  62430001           [090] call       13  2   1  
7EEB  1E008000           [091] return     0   1      
7EEF  64034806           [092] self       13  12  288  ; -1544157541
7EF3  62830001           [093] call       13  2   2  
7EF7  6443C806           [094] self       13  13  289  ; 1002042730
7EFB  D7038000           [095] loadbool   15  1   0    ; true
7EFF  62438001           [096] call       13  3   1  
7F03  59830100           [097] loadk      13  6        ; 0
7F07  8A038003           [098] len        14  7      
7F0B  D9830100           [099] loadk      15  6        ; 0
7F0F  50430280           [100] forprep    13  10       ; to [111]
7F13  5DC40000           [101] getglobal  17  3        ; 1074689893
7F17  8E048403           [102] gettable   18  7   16 
7F1B  62840001           [103] call       17  2   2  
7F1F  58440000           [104] test       17      1    ; to [106] if false
7F23  1A000180           [105] jmp        5            ; to [111]
7F27  4E048403           [106] gettable   17  7   16 
7F2B  6484C808           [107] self       17  17  290  ; -1460146515
7F2F  E4C4C805           [108] self       19  11  291  ; 1839670529
7F33  E2040001           [109] call       19  2   0  
7F37  62440000           [110] call       17  0   1  
7F3B  5403FD7F           [111] forloop    13  -11      ; to [101] if loop
7F3F  5D840300           [112] getglobal  17  14       ; _T
7F43  4C040392           [113] settable   17  292 12   ; "vipAvatar"
7F47  64444906           [114] self       17  12  293  ; 1009327987
7F4B  62440001           [115] call       17  2   1  
7F4F  64844906           [116] self       17  12  294  ; 1663436040
7F53  DDC40900           [117] getglobal  19  39       ; Lotus_Game
7F57  CE04CA09           [118] gettable   19  19  296  ; "LotusNpcAvatar_DA_DAMAGE_ONLY"
7F5B  62448001           [119] call       17  3   1  
7F5F  4E44CA00           [120] gettable   17  1   297  ; "goalId"
fail op	35
7F63  23C0C508           [121] close      0  
7F67  1A800180           [122] jmp        7            ; to [130]
7F6B  4E84C500           [123] gettable   17  1   278  ; "sortieId"
fail op	35
7F6F  23C0C508           [124] close      0  
7F73  1AC00080           [125] jmp        4            ; to [130]
7F77  4E84CA00           [126] gettable   17  1   298  ; "invasionId"
fail op	35
7F7B  23C0C508           [127] close      0  
7F7F  1A000080           [128] jmp        1            ; to [130]
7F83  57440000           [129] loadbool   17  0   1    ; false, to [131]
7F87  57048000           [130] loadbool   17  1   0    ; true
7F8B  58040000           [131] test       17      0    ; to [133] if true
7F8F  1AC00480           [132] jmp        20           ; to [153]
7F93  A4C4CA02           [133] self       18  5   299  ; 447196028
7F97  17058000           [134] loadbool   20  1   0    ; true
7F9B  A2448001           [135] call       18  3   1  
7F9F  A404CB02           [136] self       18  5   300  ; -1354842897
7FA3  12050006           [137] move       20  12     
7FA7  A2448001           [138] call       18  3   1  
7FAB  A444CB02           [139] self       18  5   301  ; 1888154100
7FAF  A2440001           [140] call       18  2   1  
7FB3  A484CB02           [141] self       18  5   302  ; -1504288900
7FB7  19C50B00           [142] loadk      20  47       ; 0
7FBB  59050C00           [143] loadk      21  48       ; 0
7FBF  99450400           [144] loadk      22  17       ; 0
7FC3  D9450C00           [145] loadk      23  49       ; 0
7FC7  17068000           [146] loadbool   24  1   0    ; true
7FCB  57060000           [147] loadbool   25  0   0    ; false
7FCF  97068000           [148] loadbool   26  1   0    ; true
7FD3  A2448004           [149] call       18  9   1  
7FD7  A484CC02           [150] self       18  5   306  ; 1022855233
7FDB  17058000           [151] loadbool   20  1   0    ; true
7FDF  A2448001           [152] call       18  3   1  
7FE3  9DC40C00           [153] getglobal  18  51       ; useCustomEnemyTier
7FE7  98040000           [154] test       18      0    ; to [156] if true
7FEB  1AC00080           [155] jmp        4            ; to [160]
7FEF  A404CD02           [156] self       18  5   308  ; -207649908
7FF3  1D450D00           [157] getglobal  20  53       ; customEnemyTier
7FF7  57058000           [158] loadbool   21  1   0    ; true
7FFB  A2440002           [159] call       18  4   1  
7FFF  A4844D00           [160] self       18  0   310  ; -803877924
8003  13058000           [161] getupval   20  1      
8007  59850100           [162] loadk      21  6        ; 0
800B  A2440002           [163] call       18  4   1  
800F  9DC40000           [164] getglobal  18  3        ; 1074689893
8013  D2040006           [165] move       19  12     
8017  A2840001           [166] call       18  2   2  
801B  98440000           [167] test       18      1    ; to [169] if false
801F  1AC00180           [168] jmp        8            ; to [177]
8023  A4C44D06           [169] self       18  12  311  ; 796523475
8027  A2840001           [170] call       18  2   2  
fail op	21
802B  15808488           [171] concat     0   273 18 
802F  1AC00080           [172] jmp        4            ; to [177]
8033  9D040400           [173] getglobal  18  16       ; 538022378
8037  D9440400           [174] loadk      19  17       ; 0
803B  A2440001           [175] call       18  2   1  
803F  1A80FC7F           [176] jmp        -13          ; to [164]
8043  93040001           [177] getupval   18  2      
8047  A2448000           [178] call       18  1   1  
804B  9DC40C00           [179] getglobal  18  51       ; useCustomEnemyTier
804F  98040000           [180] test       18      0    ; to [182] if true
8053  1AC00080           [181] jmp        4            ; to [186]
8057  A404CD02           [182] self       18  5   308  ; -207649908
805B  19450400           [183] loadk      20  17       ; 0
805F  57050000           [184] loadbool   21  0   0    ; false
8063  A2440002           [185] call       18  4   1  
8067  58040000           [186] test       17      0    ; to [188] if true
806B  1A400080           [187] jmp        2            ; to [190]
806F  A404CE02           [188] self       18  5   312  ; -1242238484
8073  A2440001           [189] call       18  2   1  
8077  1E008000           [190] return     0   1      
                         * constants:
807B  39                 sizek (57)
807C  04                 const type 4
807D  0B                 string size (11)
807E  6747616D6552756C+  "gGameRul"
8086  657300             "es\0"
                         const [0]: "gGameRules"
8089  01                 const type 3
808A  497363B8           const [1]: (-1201441975)
808E  04                 const type 4
808F  09                 string size (9)
8090  7669704167656E74+  "vipAgent"
8098  00                 "\0"
                         const [2]: "vipAgent"
8099  01                 const type 3
809A  65770E40           const [3]: (1074689893)
809E  04                 const type 4
809F  04                 string size (4)
80A0  56495000           "VIP\0"
                         const [4]: "VIP"
80A4  01                 const type 3
80A5  7DB5D47F           const [5]: (2144646525)
80A9  03                 const type 3
80AA  0000803F           const [6]: (0)
80AE  01                 const type 3
80AF  BB3AA4CA           const [7]: (-895206725)
80B3  01                 const type 3
80B4  6B25B193           const [8]: (-1817107093)
80B8  04                 const type 4
80B9  1B                 string size (27)
80BA  537061776E564950+  "SpawnVIP"
80C2  206661696C656420+  " failed "
80CA  286E6F206167656E+  "(no agen"
80D2  742900             "t)\0"
                         const [9]: "SpawnVIP failed (no agent)"
80D5  01                 const type 3
80D6  2E05C573           const [10]: (1942291758)
80DA  04                 const type 4
80DB  08                 string size (8)
80DC  67526567696F6E00   "gRegion\0"
                         const [11]: "gRegion"
80E4  01                 const type 3
80E5  90F9CED1           const [12]: (-774964848)
80E9  01                 const type 3
80EA  73290920           const [13]: (537471347)
80EE  04                 const type 4
80EF  03                 string size (3)
80F0  5F5400             "_T\0"
                         const [14]: "_T"
80F3  04                 const type 4
80F4  0F                 string size (15)
80F5  6D697373696F6E41+  "missionA"
80FD  49526561647900     "IReady\0"
                         const [15]: "missionAIReady"
8104  01                 const type 3
8105  EA911120           const [16]: (538022378)
8109  03                 const type 3
810A  00000000           const [17]: (0)
810E  01                 const type 3
810F  F0D1E3EA           const [18]: (-354168336)
8113  01                 const type 3
8114  E09F8C84           const [19]: (-2071158816)
8118  04                 const type 4
8119  11                 string size (17)
811A  7669704C6576656C+  "vipLevel"
8122  4D6F646966696572+  "Modifier"
812A  00                 "\0"
                         const [20]: "vipLevelModifier"
812B  03                 const type 3
812C  00000040           const [21]: (0)
8130  04                 const type 4
8131  09                 string size (9)
8132  736F727469654964+  "sortieId"
813A  00                 "\0"
                         const [22]: "sortieId"
813B  04                 const type 4
813C  01                 string size (0)
                         const [23]: ""
813E  03                 const type 3
813F  00000041           const [24]: (0)
8143  04                 const type 4
8144  0D                 string size (13)
8145  737061776E636F6E+  "spawncon"
814D  74726F6C00         "trol\0"
                         const [25]: "spawncontrol"
8152  01                 const type 3
8153  B85A0807           const [26]: (117988024)
8157  01                 const type 3
8158  DC3EA49A           const [27]: (-1700512036)
815C  01                 const type 3
815D  5BF410BC           const [28]: (-1139739557)
8161  01                 const type 3
8162  2E63E22F           const [29]: (803365678)
8166  01                 const type 3
8167  36FF8F78           const [30]: (2022702902)
816B  04                 const type 4
816C  1C                 string size (28)
816D  537061776E564950+  "SpawnVIP"
8175  206661696C656420+  " failed "
817D  286E6F2061766174+  "(no avat"
8185  61722900           "ar)\0"
                         const [31]: "SpawnVIP failed (no avatar)"
8189  01                 const type 3
818A  9B06F6A3           const [32]: (-1544157541)
818E  01                 const type 3
818F  6AF5B93B           const [33]: (1002042730)
8193  01                 const type 3
8194  ADEEF7A8           const [34]: (-1460146515)
8198  01                 const type 3
8199  0125A76D           const [35]: (1839670529)
819D  04                 const type 4
819E  0A                 string size (10)
819F  7669704176617461+  "vipAvata"
81A7  7200               "r\0"
                         const [36]: "vipAvatar"
81A9  01                 const type 3
81AA  731F293C           const [37]: (1009327987)
81AE  01                 const type 3
81AF  08052663           const [38]: (1663436040)
81B3  04                 const type 4
81B4  0B                 string size (11)
81B5  4C6F7475735F4761+  "Lotus_Ga"
81BD  6D6500             "me\0"
                         const [39]: "Lotus_Game"
81C0  04                 const type 4
81C1  1E                 string size (30)
81C2  4C6F7475734E7063+  "LotusNpc"
81CA  4176617461725F44+  "Avatar_D"
81D2  415F44414D414745+  "A_DAMAGE"
81DA  5F4F4E4C5900       "_ONLY\0"
                         const [40]: "LotusNpcAvatar_DA_DAMAGE_ONLY"
81E0  04                 const type 4
81E1  07                 string size (7)
81E2  676F616C496400     "goalId\0"
                         const [41]: "goalId"
81E9  04                 const type 4
81EA  0B                 string size (11)
81EB  696E766173696F6E+  "invasion"
81F3  496400             "Id\0"
                         const [42]: "invasionId"
81F6  01                 const type 3
81F7  7CABA71A           const [43]: (447196028)
81FB  01                 const type 3
81FC  EFBC3EAF           const [44]: (-1354842897)
8200  01                 const type 3
8201  F4F18A70           const [45]: (1888154100)
8205  01                 const type 3
8206  7C5F56A6           const [46]: (-1504288900)
820A  03                 const type 3
820B  00002041           const [47]: (0)
820F  03                 const type 3
8210  00009643           const [48]: (0)
8214  03                 const type 3
8215  0000C040           const [49]: (0)
8219  01                 const type 3
821A  4188F73C           const [50]: (1022855233)
821E  04                 const type 4
821F  13                 string size (19)
8220  757365437573746F+  "useCusto"
8228  6D456E656D795469+  "mEnemyTi"
8230  657200             "er\0"
                         const [51]: "useCustomEnemyTier"
8233  01                 const type 3
8234  8C839FF3           const [52]: (-207649908)
8238  04                 const type 4
8239  10                 string size (16)
823A  637573746F6D456E+  "customEn"
8242  656D795469657200   "emyTier\0"
                         const [53]: "customEnemyTier"
824A  01                 const type 3
824B  DCCB15D0           const [54]: (-803877924)
824F  01                 const type 3
8250  D3FB792F           const [55]: (796523475)
8254  01                 const type 3
8255  ECF1F4B5           const [56]: (-1242238484)
                         * functions:
8259  00                 sizep (0)
                         * lines:
825B  01                 sizelineinfo (190)
                         [pc] (line)
825C  74                 [001] (116)
825D  05                 [002] (117)
825E  00                 [003] (117)
825F  00                 [004] (118)
8260  75                 [005] (119)
8261  05                 [006] (120)
8262  00                 [007] (120)
8263  00                 [008] (120)
8264  75                 [009] (120)
8265  05                 [010] (120)
8266  00                 [011] (121)
8267  00                 [012] (121)
8268  76                 [013] (121)
8269  05                 [014] (121)
826A  00                 [015] (121)
826B  00                 [016] (121)
826C  77                 [017] (121)
826D  05                 [018] (121)
826E  00                 [019] (123)
826F  00                 [020] (123)
8270  78                 [021] (123)
8271  05                 [022] (123)
8272  00                 [023] (126)
8273  00                 [024] (126)
8274  78                 [025] (126)
8275  05                 [026] (126)
8276  00                 [027] (126)
8277  00                 [028] (127)
8278  78                 [029] (127)
8279  05                 [030] (127)
827A  00                 [031] (-128)
827B  00                 [032] (-125)
827C  78                 [033] (-125)
827D  05                 [034] (-125)
827E  00                 [035] (-123)
827F  00                 [036] (-123)
8280  78                 [037] (-123)
8281  05                 [038] (-122)
8282  00                 [039] (-122)
8283  00                 [040] (-118)
8284  79                 [041] (-118)
8285  05                 [042] (-118)
8286  00                 [043] (-118)
8287  00                 [044] (-117)
8288  79                 [045] (-117)
8289  05                 [046] (-117)
828A  00                 [047] (-117)
828B  00                 [048] (-114)
828C  79                 [049] (-114)
828D  05                 [050] (-113)
828E  00                 [051] (-113)
828F  00                 [052] (-113)
8290  79                 [053] (-111)
8291  05                 [054] (-111)
8292  00                 [055] (-110)
8293  00                 [056] (-110)
8294  79                 [057] (-110)
8295  05                 [058] (-110)
8296  00                 [059] (-110)
8297  00                 [060] (-110)
8298  79                 [061] (-109)
8299  05                 [062] (-109)
829A  00                 [063] (-109)
829B  00                 [064] (-109)
829C  79                 [065] (-107)
829D  05                 [066] (-104)
829E  00                 [067] (-104)
829F  00                 [068] (-104)
82A0  79                 [069] (-104)
82A1  05                 [070] (-103)
82A2  00                 [071] (-103)
82A3  00                 [072] (-103)
82A4  7B                 [073] (-103)
82A5  05                 [074] (-102)
82A6  00                 [075] (-102)
82A7  00                 [076] (-102)
82A8  7B                 [077] (-101)
82A9  05                 [078] (-101)
82AA  00                 [079] (-101)
82AB  00                 [080] (-100)
82AC  7B                 [081] (-99)
82AD  05                 [082] (-99)
82AE  00                 [083] (-97)
82AF  00                 [084] (-97)
82B0  7B                 [085] (-97)
82B1  05                 [086] (-97)
82B2  00                 [087] (-97)
82B3  00                 [088] (-96)
82B4  7E                 [089] (-96)
82B5  05                 [090] (-96)
82B6  00                 [091] (-95)
82B7  00                 [092] (-92)
82B8  7E                 [093] (-92)
82B9  05                 [094] (-92)
82BA  00                 [095] (-92)
82BB  00                 [096] (-92)
82BC  7E                 [097] (-90)
82BD  05                 [098] (-90)
82BE  00                 [099] (-90)
82BF  00                 [100] (-90)
82C0  7E                 [101] (-89)
82C1  05                 [102] (-89)
82C2  00                 [103] (-89)
82C3  00                 [104] (-89)
82C4  7E                 [105] (-89)
82C5  05                 [106] (-88)
82C6  00                 [107] (-88)
82C7  00                 [108] (-88)
82C8  7F                 [109] (-88)
82C9  05                 [110] (-88)
82CA  00                 [111] (-90)
82CB  00                 [112] (-84)
82CC  7F                 [113] (-84)
82CD  05                 [114] (-83)
82CE  00                 [115] (-83)
82CF  00                 [116] (-82)
82D0  7F                 [117] (-82)
82D1  05                 [118] (-82)
82D2  00                 [119] (-82)
82D3  00                 [120] (-80)
82D4  80                 [121] (-80)
82D5  05                 [122] (-80)
82D6  00                 [123] (-80)
82D7  00                 [124] (-80)
82D8  83                 [125] (-80)
82D9  05                 [126] (-80)
82DA  00                 [127] (-80)
82DB  00                 [128] (-80)
82DC  83                 [129] (-80)
82DD  05                 [130] (-80)
82DE  00                 [131] (-78)
82DF  00                 [132] (-78)
82E0  83                 [133] (-77)
82E1  05                 [134] (-77)
82E2  00                 [135] (-77)
82E3  00                 [136] (-76)
82E4  85                 [137] (-76)
82E5  05                 [138] (-76)
82E6  00                 [139] (-75)
82E7  00                 [140] (-75)
82E8  85                 [141] (-74)
82E9  05                 [142] (-74)
82EA  00                 [143] (-74)
82EB  00                 [144] (-74)
82EC  85                 [145] (-74)
82ED  05                 [146] (-74)
82EE  00                 [147] (-74)
82EF  00                 [148] (-74)
82F0  86                 [149] (-74)
82F1  05                 [150] (-73)
82F2  00                 [151] (-73)
82F3  00                 [152] (-73)
82F4  86                 [153] (-70)
82F5  05                 [154] (-70)
82F6  00                 [155] (-70)
82F7  00                 [156] (-69)
82F8  8A                 [157] (-69)
82F9  05                 [158] (-69)
82FA  00                 [159] (-69)
82FB  00                 [160] (-66)
82FC  8A                 [161] (-66)
82FD  05                 [162] (-66)
82FE  00                 [163] (-66)
82FF  00                 [164] (-64)
8300  8A                 [165] (-64)
8301  05                 [166] (-64)
8302  00                 [167] (-64)
8303  00                 [168] (-64)
8304  8A                 [169] (-64)
8305  05                 [170] (-64)
8306  00                 [171] (-64)
8307  00                 [172] (-64)
8308  8B                 [173] (-63)
8309  05                 [174] (-63)
830A  00                 [175] (-63)
830B  00                 [176] (-63)
830C  8B                 [177] (-60)
830D  05                 [178] (-60)
830E  00                 [179] (-58)
830F  00                 [180] (-58)
8310  8B                 [181] (-58)
8311  05                 [182] (-57)
8312  00                 [183] (-57)
8313  00                 [184] (-57)
8314  8B                 [185] (-57)
8315  05                 [186] (-54)
8316  00                 [187] (-54)
8317  00                 [188] (-53)
8318  8E                 [189] (-53)
8319  05                 [190] (-51)
                         * locals:
8554  00                 sizelocvars (0)
                         * upvalues:
8555  00                 sizeupvalues (0)
                         ** end of function **

                         
8556                     ** function [25] definition (level 2)
                         ** start of function **
8556  00                 string size (0)
                         source name: (none)
8558  0B                 line defined (1487)
8559  F7                 last line defined (1527)
855A  0B                 nups (3)
855B  03                 numparams (0)
855C  00                 is_vararg (0)
855D  00                 maxstacksize (9)
                         * code:
855F  54                 sizecode (84)
8560  1D000000           [01] getglobal  0   0        ; gGameRules
8564  5D400000           [02] getglobal  1   1        ; gRegion
8568  6480C000           [03] self       1   1   258  ; -774964848
856C  62800001           [04] call       1   2   2  
8570  A4C0C000           [05] self       2   1   259  ; 537471347
8574  A2800001           [06] call       2   2   2  
8578  E4004100           [07] self       3   0   260  ; -317790213
857C  53010000           [08] getupval   5   0      
8580  E2808001           [09] call       3   3   2  
fail op	35
8584  6340C101           [10] close      1  
8588  1A000180           [11] jmp        5            ; to [17]
858C  E4004100           [12] self       3   0   260  ; -317790213
8590  53018000           [13] getupval   5   1      
8594  E2808001           [14] call       3   3   2  
fail op	35
8598  2380C101           [15] close      0  
859C  1A000280           [16] jmp        9            ; to [26]
85A0  DDC00100           [17] getglobal  3   7        ; 1074689893
85A4  12010001           [18] move       4   2      
85A8  E2800001           [19] call       3   2   2  
85AC  D8400000           [20] test       3       1    ; to [22] if false
85B0  1A800080           [21] jmp        3            ; to [25]
85B4  E4004201           [22] self       3   2   264  ; -974578778
85B8  57018000           [23] loadbool   5   1   0    ; true
85BC  E2408001           [24] call       3   3   1  
85C0  1E008000           [25] return     0   1      
85C4  E4404200           [26] self       3   0   265  ; -502414055
85C8  E2800001           [27] call       3   2   2  
85CC  1D810200           [28] getglobal  4   10       ; Lotus_Game
85D0  0EC14202           [29] gettable   4   4   267  ; "MT_RAID"
fail op	35
85D4  23008101           [30] close      0  
85D8  1A000080           [31] jmp        1            ; to [33]
85DC  1E008000           [32] return     0   1      
85E0  E4004301           [33] self       3   2   268  ; -287792134
85E4  E2800001           [34] call       3   2   2  
85E8  D8000000           [35] test       3       0    ; to [37] if true
85EC  1A000080           [36] jmp        1            ; to [38]
85F0  1E008000           [37] return     0   1      
85F4  DD400300           [38] getglobal  3   13       ; spawncontrol
85F8  E480C301           [39] self       3   3   270  ; 803365678
85FC  E2800001           [40] call       3   2   2  
8600  0E81C101           [41] gettable   4   3   262  ; 0
8604  64C14302           [42] self       5   4   271  ; 2022702902
8608  62810001           [43] call       5   2   2  
860C  9DC10100           [44] getglobal  6   7        ; 1074689893
8610  D2018002           [45] move       7   5      
8614  A2810001           [46] call       6   2   2  
8618  98010000           [47] test       6       0    ; to [49] if true
861C  1A800180           [48] jmp        7            ; to [56]
8620  A4C14302           [49] self       6   4   271  ; 2022702902
8624  A2810001           [50] call       6   2   2  
8628  52010003           [51] move       5   6      
862C  9D010400           [52] getglobal  6   16       ; 538022378
8630  D9410400           [53] loadk      7   17       ; -51
8634  A2410001           [54] call       6   2   1  
8638  1AC0FC7F           [55] jmp        -12          ; to [44]
863C  A481C402           [56] self       6   5   274  ; -1544157541
8640  A2810001           [57] call       6   2   2  
8644  A4C14403           [58] self       6   6   275  ; 1002042730
8648  17028000           [59] loadbool   8   1   0    ; true
864C  A2418001           [60] call       6   3   1  
8650  9D010500           [61] getglobal  6   20       ; _T
8654  8C41818A           [62] settable   6   277 5    ; "vipAvatar"
8658  A481C502           [63] self       6   5   278  ; 1009327987
865C  A2410001           [64] call       6   2   1  
8660  A4C1C502           [65] self       6   5   279  ; 1663436040
8664  1D820200           [66] getglobal  8   10       ; Lotus_Game
8668  0E024604           [67] gettable   8   8   280  ; "LotusNpcAvatar_DA_DAMAGE_ONLY"
866C  A2418001           [68] call       6   3   1  
8670  9DC10100           [69] getglobal  6   7        ; 1074689893
8674  D2018002           [70] move       7   5      
8678  A2810001           [71] call       6   2   2  
867C  98410000           [72] test       6       1    ; to [74] if false
8680  1AC00180           [73] jmp        8            ; to [82]
8684  A441C602           [74] self       6   5   281  ; 796523475
8688  A2810001           [75] call       6   2   2  
fail op	21
868C  15808182           [76] concat     0   261 6  
8690  1AC00080           [77] jmp        4            ; to [82]
8694  9D010400           [78] getglobal  6   16       ; 538022378
8698  D9410100           [79] loadk      7   5        ; 0
869C  A2410001           [80] call       6   2   1  
86A0  1A80FC7F           [81] jmp        -13          ; to [69]
86A4  93010001           [82] getupval   6   2      
86A8  A2418000           [83] call       6   1   1  
86AC  1E008000           [84] return     0   1      
                         * constants:
86B0  1A                 sizek (26)
86B1  04                 const type 4
86B2  0B                 string size (11)
86B3  6747616D6552756C+  "gGameRul"
86BB  657300             "es\0"
                         const [0]: "gGameRules"
86BE  04                 const type 4
86BF  08                 string size (8)
86C0  67526567696F6E00   "gRegion\0"
                         const [1]: "gRegion"
86C8  01                 const type 3
86C9  90F9CED1           const [2]: (-774964848)
86CD  01                 const type 3
86CE  73290920           const [3]: (537471347)
86D2  01                 const type 3
86D3  FBE70EED           const [4]: (-317790213)
86D7  03                 const type 3
86D8  00000000           const [5]: (0)
86DC  03                 const type 3
86DD  0000803F           const [6]: (0)
86E1  01                 const type 3
86E2  65770E40           const [7]: (1074689893)
86E6  01                 const type 3
86E7  A61BE9C5           const [8]: (-974578778)
86EB  01                 const type 3
86EC  19C50DE2           const [9]: (-502414055)
86F0  04                 const type 4
86F1  0B                 string size (11)
86F2  4C6F7475735F4761+  "Lotus_Ga"
86FA  6D6500             "me\0"
                         const [10]: "Lotus_Game"
86FD  04                 const type 4
86FE  08                 string size (8)
86FF  4D545F5241494400   "MT_RAID\0"
                         const [11]: "MT_RAID"
8707  01                 const type 3
8708  FAA3D8EE           const [12]: (-287792134)
870C  04                 const type 4
870D  0D                 string size (13)
870E  737061776E636F6E+  "spawncon"
8716  74726F6C00         "trol\0"
                         const [13]: "spawncontrol"
871B  01                 const type 3
871C  2E63E22F           const [14]: (803365678)
8720  01                 const type 3
8721  36FF8F78           const [15]: (2022702902)
8725  01                 const type 3
8726  EA911120           const [16]: (538022378)
872A  03                 const type 3
872B  CDCCCC3D           const [17]: (-51)
872F  01                 const type 3
8730  9B06F6A3           const [18]: (-1544157541)
8734  01                 const type 3
8735  6AF5B93B           const [19]: (1002042730)
8739  04                 const type 4
873A  03                 string size (3)
873B  5F5400             "_T\0"
                         const [20]: "_T"
873E  04                 const type 4
873F  0A                 string size (10)
8740  7669704176617461+  "vipAvata"
8748  7200               "r\0"
                         const [21]: "vipAvatar"
874A  01                 const type 3
874B  731F293C           const [22]: (1009327987)
874F  01                 const type 3
8750  08052663           const [23]: (1663436040)
8754  04                 const type 4
8755  1E                 string size (30)
8756  4C6F7475734E7063+  "LotusNpc"
875E  4176617461725F44+  "Avatar_D"
8766  415F44414D414745+  "A_DAMAGE"
876E  5F4F4E4C5900       "_ONLY\0"
                         const [24]: "LotusNpcAvatar_DA_DAMAGE_ONLY"
8774  01                 const type 3
8775  D3FB792F           const [25]: (796523475)
                         * functions:
8779  00                 sizep (0)
                         * lines:
877A  54                 sizelineinfo (84)
                         [pc] (line)
877B  D1                 [01] (-47)
877C  05                 [02] (-46)
877D  00                 [03] (-46)
877E  00                 [04] (-46)
877F  D2                 [05] (-45)
8780  05                 [06] (-45)
8781  00                 [07] (-43)
8782  00                 [08] (-43)
8783  D2                 [09] (-43)
8784  05                 [10] (-43)
8785  00                 [11] (-43)
8786  00                 [12] (-43)
8787  D2                 [13] (-43)
8788  05                 [14] (-43)
8789  00                 [15] (-43)
878A  00                 [16] (-43)
878B  D3                 [17] (-42)
878C  05                 [18] (-42)
878D  00                 [19] (-42)
878E  00                 [20] (-42)
878F  D3                 [21] (-42)
8790  05                 [22] (-41)
8791  00                 [23] (-41)
8792  00                 [24] (-41)
8793  D5                 [25] (-39)
8794  05                 [26] (-36)
8795  00                 [27] (-36)
8796  00                 [28] (-36)
8797  D5                 [29] (-36)
8798  05                 [30] (-36)
8799  00                 [31] (-36)
879A  00                 [32] (-35)
879B  D5                 [33] (-32)
879C  05                 [34] (-32)
879D  00                 [35] (-32)
879E  00                 [36] (-32)
879F  D5                 [37] (-31)
87A0  05                 [38] (-28)
87A1  00                 [39] (-28)
87A2  00                 [40] (-28)
87A3  D5                 [41] (-27)
87A4  05                 [42] (-26)
87A5  00                 [43] (-26)
87A6  00                 [44] (-25)
87A7  D5                 [45] (-25)
87A8  05                 [46] (-25)
87A9  00                 [47] (-25)
87AA  00                 [48] (-25)
87AB  D5                 [49] (-24)
87AC  05                 [50] (-24)
87AD  00                 [51] (-24)
87AE  00                 [52] (-23)
87AF  D5                 [53] (-23)
87B0  05                 [54] (-23)
87B1  00                 [55] (-23)
87B2  00                 [56] (-20)
87B3  D5                 [57] (-20)
87B4  05                 [58] (-20)
87B5  00                 [59] (-20)
87B6  00                 [60] (-20)
87B7  D5                 [61] (-18)
87B8  05                 [62] (-18)
87B9  00                 [63] (-17)
87BA  00                 [64] (-17)
87BB  D6                 [65] (-16)
87BC  05                 [66] (-16)
87BD  00                 [67] (-16)
87BE  00                 [68] (-16)
87BF  D6                 [69] (-14)
87C0  05                 [70] (-14)
87C1  00                 [71] (-14)
87C2  00                 [72] (-14)
87C3  D6                 [73] (-14)
87C4  05                 [74] (-14)
87C5  00                 [75] (-14)
87C6  00                 [76] (-14)
87C7  D6                 [77] (-14)
87C8  05                 [78] (-13)
87C9  00                 [79] (-13)
87CA  00                 [80] (-13)
87CB  D6                 [81] (-13)
87CC  05                 [82] (-10)
87CD  00                 [83] (-10)
87CE  00                 [84] (-9)
                         * locals:
88CB  00                 sizelocvars (0)
                         * upvalues:
88CC  00                 sizeupvalues (0)
                         ** end of function **

                         
88CD                     ** function [26] definition (level 2)
                         ** start of function **
88CD  00                 string size (0)
                         source name: (none)
88CF  0B                 line defined (1530)
88D0  8E                 last line defined (1550)
88D1  0C                 nups (2)
88D2  02                 numparams (1)
88D3  01                 is_vararg (0)
88D4  00                 maxstacksize (10)
                         * code:
88D6  2E                 sizecode (46)
88D7  64004000           [01] self       1   0   256  ; -2135866365
88DB  62800001           [02] call       1   2   2  
88DF  9D400000           [03] getglobal  2   1        ; gRegion
88E3  A4804001           [04] self       2   2   258  ; -1485896174
88E7  1DC10000           [05] getglobal  4   3        ; objMark
88EB  A2808001           [06] call       2   3   2  
88EF  DD000100           [07] getglobal  3   4        ; -332969190
88F3  19410100           [08] loadk      4   5        ; "Objective"
88F7  E2800001           [09] call       3   2   2  
88FB  1D810100           [10] getglobal  4   6        ; gGameRules
88FF  24C14102           [11] self       4   4   263  ; -317790213
8903  93010000           [12] getupval   6   0      
8907  22818001           [13] call       4   3   2  
fail op	33
890B  21000184           [14] tforloop   0       4    ; to [16] if exit
890F  1AC00080           [15] jmp        4            ; to [20]
8913  1D010100           [16] getglobal  4   4        ; -332969190
8917  59410200           [17] loadk      5   9        ; "Boss"
891B  22810001           [18] call       4   2   2  
891F  D2000002           [19] move       3   4      
8923  13018000           [20] getupval   4   1      
8927  52018001           [21] move       5   3      
892B  92010001           [22] move       6   2      
892F  22818001           [23] call       4   3   2  
8933  5D810200           [24] getglobal  5   10       ; 1074689893
8937  92010002           [25] move       6   4      
893B  62810001           [26] call       5   2   2  
893F  58410000           [27] test       5       1    ; to [29] if false
8943  1A800080           [28] jmp        3            ; to [32]
8947  64C14202           [29] self       5   4   267  ; 766584623
894B  62410001           [30] call       5   2   1  
894F  1A800080           [31] jmp        3            ; to [35]
8953  5D010300           [32] getglobal  5   12       ; -1817107093
8957  99410300           [33] loadk      6   13       ; "NULL MARKER"
895B  62410001           [34] call       5   2   1  
895F  64814300           [35] self       5   0   270  ; 1134900326
8963  62810001           [36] call       5   2   2  
8967  58410000           [37] test       5       1    ; to [39] if false
896B  1A800180           [38] jmp        7            ; to [46]
896F  64C1C300           [39] self       5   1   271  ; -1421644046
8973  DD010400           [40] getglobal  7   16       ; bossMarkerType
8977  1D020100           [41] getglobal  8   4        ; -332969190
897B  59420400           [42] loadk      9   17       ; "GAME_C1_SPINE1"
897F  22820001           [43] call       8   2   2  
8983  5D820400           [44] getglobal  9   18       ; bossMarkerOffset
8987  62418002           [45] call       5   5   1  
898B  1E008000           [46] return     0   1      
                         * constants:
898F  13                 sizek (19)
8990  01                 const type 3
8991  0344B180           const [0]: (-2135866365)
8995  04                 const type 4
8996  08                 string size (8)
8997  67526567696F6E00   "gRegion\0"
                         const [1]: "gRegion"
899F  01                 const type 3
89A0  12066FA7           const [2]: (-1485896174)
89A4  04                 const type 4
89A5  08                 string size (8)
89A6  6F626A4D61726B00   "objMark\0"
                         const [3]: "objMark"
89AE  01                 const type 3
89AF  1A4B27EC           const [4]: (-332969190)
89B3  04                 const type 4
89B4  0A                 string size (10)
89B5  4F626A6563746976+  "Objectiv"
89BD  6500               "e\0"
                         const [5]: "Objective"
89BF  04                 const type 4
89C0  0B                 string size (11)
89C1  6747616D6552756C+  "gGameRul"
89C9  657300             "es\0"
                         const [6]: "gGameRules"
89CC  01                 const type 3
89CD  FBE70EED           const [7]: (-317790213)
89D1  03                 const type 3
89D2  0000803F           const [8]: (0)
89D6  04                 const type 4
89D7  05                 string size (5)
89D8  426F737300         "Boss\0"
                         const [9]: "Boss"
89DD  01                 const type 3
89DE  65770E40           const [10]: (1074689893)
89E2  01                 const type 3
89E3  2F27B12D           const [11]: (766584623)
89E7  01                 const type 3
89E8  6B25B193           const [12]: (-1817107093)
89EC  04                 const type 4
89ED  0C                 string size (12)
89EE  4E554C4C204D4152+  "NULL MAR"
89F6  4B455200           "KER\0"
                         const [13]: "NULL MARKER"
89FA  01                 const type 3
89FB  6634A543           const [14]: (1134900326)
89FF  01                 const type 3
8A00  F26E43AB           const [15]: (-1421644046)
8A04  04                 const type 4
8A05  0F                 string size (15)
8A06  626F73734D61726B+  "bossMark"
8A0E  65725479706500     "erType\0"
                         const [16]: "bossMarkerType"
8A15  04                 const type 4
8A16  0F                 string size (15)
8A17  47414D455F43315F+  "GAME_C1_"
8A1F  5350494E453100     "SPINE1\0"
                         const [17]: "GAME_C1_SPINE1"
8A26  04                 const type 4
8A27  11                 string size (17)
8A28  626F73734D61726B+  "bossMark"
8A30  65724F6666736574+  "erOffset"
8A38  00                 "\0"
                         const [18]: "bossMarkerOffset"
                         * functions:
8A39  00                 sizep (0)
                         * lines:
8A3A  2E                 sizelineinfo (46)
                         [pc] (line)
8A3B  FC                 [01] (-4)
8A3C  05                 [02] (-4)
8A3D  00                 [03] (-3)
8A3E  00                 [04] (-3)
8A3F  FC                 [05] (-3)
8A40  05                 [06] (-3)
8A41  00                 [07] (-2)
8A42  00                 [08] (-2)
8A43  FD                 [09] (-2)
8A44  05                 [10] (-1)
8A45  00                 [11] (-1)
8A46  00                 [12] (-1)
8A47  FD                 [13] (-1)
8A48  05                 [14] (-1)
8A49  00                 [15] (-1)
8A4A  00                 [16] (0)
8A4B  FD                 [17] (0)
8A4C  05                 [18] (0)
8A4D  00                 [19] (0)
8A4E  00                 [20] (2)
8A4F  FD                 [21] (2)
8A50  05                 [22] (2)
8A51  00                 [23] (2)
8A52  00                 [24] (3)
8A53  FE                 [25] (3)
8A54  05                 [26] (3)
8A55  00                 [27] (3)
8A56  00                 [28] (3)
8A57  FE                 [29] (6)
8A58  05                 [30] (6)
8A59  00                 [31] (6)
8A5A  00                 [32] (8)
8A5B  FE                 [33] (8)
8A5C  05                 [34] (8)
8A5D  00                 [35] (11)
8A5E  00                 [36] (11)
8A5F  FF                 [37] (11)
8A60  05                 [38] (11)
8A61  00                 [39] (12)
8A62  00                 [40] (12)
8A63  FF                 [41] (12)
8A64  05                 [42] (12)
8A65  00                 [43] (12)
8A66  00                 [44] (12)
8A67  FF                 [45] (12)
8A68  05                 [46] (14)
                         * locals:
8AF3  00                 sizelocvars (0)
                         * upvalues:
8AF4  00                 sizeupvalues (0)
                         ** end of function **

                         
8AF5                     ** function [27] definition (level 2)
                         ** start of function **
8AF5  00                 string size (0)
                         source name: (none)
8AF7  0C                 line defined (1552)
8AF8  C2                 last line defined (1602)
8AF9  0C                 nups (5)
8AFA  05                 numparams (0)
8AFB  00                 is_vararg (0)
8AFC  00                 maxstacksize (18)
                         * code:
8AFF  01                 sizecode (134)
8B00  1D000000           [001] getglobal  0   0        ; gRegion
8B04  24404000           [002] self       0   0   257  ; -1485896174
8B08  9D800000           [003] getglobal  2   2        ; -332969190
8B0C  D9C00000           [004] loadk      3   3        ; "Hostage"
8B10  A2000001           [005] call       2   2   0  
8B14  22800000           [006] call       0   0   2  
8B18  4E004100           [007] gettable   1   0   260  ; 0
8B1C  9D000000           [008] getglobal  2   0        ; gRegion
8B20  A4404001           [009] self       2   2   257  ; -1485896174
8B24  1D410100           [010] getglobal  4   5        ; objMark
8B28  A2808001           [011] call       2   3   2  
8B2C  DD800100           [012] getglobal  3   6        ; gGameRules
8B30  1DC10100           [013] getglobal  4   7        ; gPromotedToHost
8B34  18010000           [014] test       4       0    ; to [16] if true
8B38  1A400180           [015] jmp        6            ; to [22]
8B3C  2401C201           [016] self       4   3   264  ; -317790213
8B40  93010000           [017] getupval   6   0      
8B44  22818001           [018] call       4   3   2  
fail op	35
8B48  63404202           [019] close      1  
8B4C  1A000080           [020] jmp        1            ; to [22]
8B50  1E008000           [021] return     0   1      
8B54  1D010000           [022] getglobal  4   0        ; gRegion
8B58  24414002           [023] self       4   4   257  ; -1485896174
8B5C  9D810000           [024] getglobal  6   2        ; -332969190
8B60  D9810200           [025] loadk      7   10       ; "ObjectiveMarker"
8B64  A2010001           [026] call       6   2   0  
8B68  22810000           [027] call       4   0   2  
8B6C  5D810000           [028] getglobal  5   2        ; -332969190
8B70  99C10200           [029] loadk      6   11       ; "Objective"
8B74  62810001           [030] call       5   2   2  
8B78  9D810100           [031] getglobal  6   6        ; gGameRules
8B7C  A4014203           [032] self       6   6   264  ; -317790213
8B80  13028000           [033] getupval   8   1      
8B84  A2818001           [034] call       6   3   2  
fail op	33
8B88  61800182           [035] tforloop   1       6    ; to [37] if exit
8B8C  1AC00080           [036] jmp        4            ; to [41]
8B90  9D010300           [037] getglobal  6   12       ; _T
8B94  8E414303           [038] gettable   6   6   269  ; "TransitionLevel"
8B98  98010000           [039] test       6       0    ; to [41] if true
8B9C  1AC00080           [040] jmp        4            ; to [45]
8BA0  9D810000           [041] getglobal  6   2        ; -332969190
8BA4  D9810300           [042] loadk      7   14       ; "Boss"
8BA8  A2810001           [043] call       6   2   2  
8BAC  52010003           [044] move       5   6      
8BB0  93010001           [045] getupval   6   2      
8BB4  D2018002           [046] move       7   5      
8BB8  12020002           [047] move       8   4      
8BBC  A2818001           [048] call       6   3   2  
8BC0  DDC10300           [049] getglobal  7   15       ; 1074689893
8BC4  12020003           [050] move       8   6      
8BC8  E2810001           [051] call       7   2   2  
8BCC  D8410000           [052] test       7       1    ; to [54] if false
8BD0  1A800080           [053] jmp        3            ; to [57]
8BD4  E4014403           [054] self       7   6   272  ; -1923578185
8BD8  59420400           [055] loadk      9   17       ; "Disable"
8BDC  E2418001           [056] call       7   3   1  
8BE0  DD810400           [057] getglobal  7   18       ; 538022378
8BE4  19020100           [058] loadk      8   4        ; 0
8BE8  E2410001           [059] call       7   2   1  
8BEC  D3010001           [060] getupval   7   2      
8BF0  12028002           [061] move       8   5      
8BF4  52020001           [062] move       9   2      
8BF8  E2818001           [063] call       7   3   2  
8BFC  1DC20300           [064] getglobal  8   15       ; 1074689893
8C00  52028003           [065] move       9   7      
8C04  22820001           [066] call       8   2   2  
8C08  18420000           [067] test       8       1    ; to [69] if false
8C0C  1A000280           [068] jmp        9            ; to [78]
8C10  24C2C403           [069] self       8   7   275  ; 1146685999
8C14  92028000           [070] move       10  1      
8C18  DD820000           [071] getglobal  11  2        ; -332969190
8C1C  19030500           [072] loadk      12  20       ; "GAME_C1_SPINE1"
8C20  E2020001           [073] call       11  2   0  
8C24  22420000           [074] call       8   0   1  
8C28  2402C403           [075] self       8   7   272  ; -1923578185
8C2C  99420500           [076] loadk      10  21       ; "Enable"
8C30  22428001           [077] call       8   3   1  
8C34  2482C501           [078] self       8   3   278  ; -803877924
8C38  93020000           [079] getupval   10  0      
8C3C  D9020100           [080] loadk      11  4        ; 0
8C40  22420002           [081] call       8   4   1  
8C44  1D020000           [082] getglobal  8   0        ; gRegion
8C48  24424004           [083] self       8   8   257  ; -1485896174
8C4C  9D820000           [084] getglobal  10  2        ; -332969190
8C50  D9C20500           [085] loadk      11  23       ; "ObjRemove"
8C54  A2020001           [086] call       10  2   0  
8C58  22820000           [087] call       8   0   2  
8C5C  53020001           [088] getupval   9   2      
8C60  92028002           [089] move       10  5      
8C64  D2020004           [090] move       11  8      
8C68  62828001           [091] call       9   3   2  
8C6C  A402C604           [092] self       10  9   280  ; -636985499
8C70  A2420001           [093] call       10  2   1  
8C74  93028001           [094] getupval   10  3      
8C78  A2828000           [095] call       10  1   2  
fail op	35
8C7C  23404605           [096] close      0  
8C80  1AC00880           [097] jmp        36           ; to [134]
8C84  DD020000           [098] getglobal  11  0        ; gRegion
8C88  E482C605           [099] self       11  11  282  ; -774964848
8C8C  E2820001           [100] call       11  2   2  
8C90  24C3C605           [101] self       12  11  283  ; 537471347
8C94  22830001           [102] call       12  2   2  
8C98  53030002           [103] getupval   13  4      
8C9C  4E03C706           [104] gettable   13  13  284  ; 198248041
8CA0  62838000           [105] call       13  1   2  
8CA4  9DC30300           [106] getglobal  14  15       ; 1074689893
8CA8  D2030006           [107] move       15  12     
8CAC  A2830001           [108] call       14  2   2  
8CB0  98430000           [109] test       14      1    ; to [111] if false
8CB4  1A800280           [110] jmp        11           ; to [122]
8CB8  A443C701           [111] self       14  3   285  ; 2051260977
8CBC  17048000           [112] loadbool   16  1   0    ; true
8CC0  A2438001           [113] call       14  3   1  
8CC4  9DC30300           [114] getglobal  14  15       ; 1074689893
8CC8  D2038006           [115] move       15  13     
8CCC  A2830001           [116] call       14  2   2  
8CD0  98430000           [117] test       14      1    ; to [119] if false
8CD4  1A800080           [118] jmp        3            ; to [122]
8CD8  A4834706           [119] self       14  12  286  ; -906150570
8CDC  12048006           [120] move       16  13     
8CE0  A2438001           [121] call       14  3   1  
8CE4  9D030000           [122] getglobal  14  0        ; gRegion
8CE8  A4434007           [123] self       14  14  257  ; -1485896174
8CEC  1D840000           [124] getglobal  16  2        ; -332969190
8CF0  59C40700           [125] loadk      17  31       ; "ObjComplete"
8CF4  22040001           [126] call       16  2   0  
8CF8  A2830000           [127] call       14  0   2  
8CFC  D3030001           [128] getupval   15  2      
8D00  12048002           [129] move       16  5      
8D04  52040007           [130] move       17  14     
8D08  E2838001           [131] call       15  3   2  
8D0C  2404C607           [132] self       16  15  280  ; -636985499
8D10  22440001           [133] call       16  2   1  
8D14  1E008000           [134] return     0   1      
                         * constants:
8D18  20                 sizek (32)
8D19  04                 const type 4
8D1A  08                 string size (8)
8D1B  67526567696F6E00   "gRegion\0"
                         const [0]: "gRegion"
8D23  01                 const type 3
8D24  12066FA7           const [1]: (-1485896174)
8D28  01                 const type 3
8D29  1A4B27EC           const [2]: (-332969190)
8D2D  04                 const type 4
8D2E  08                 string size (8)
8D2F  486F737461676500   "Hostage\0"
                         const [3]: "Hostage"
8D37  03                 const type 3
8D38  0000803F           const [4]: (0)
8D3C  04                 const type 4
8D3D  08                 string size (8)
8D3E  6F626A4D61726B00   "objMark\0"
                         const [5]: "objMark"
8D46  04                 const type 4
8D47  0B                 string size (11)
8D48  6747616D6552756C+  "gGameRul"
8D50  657300             "es\0"
                         const [6]: "gGameRules"
8D53  04                 const type 4
8D54  10                 string size (16)
8D55  6750726F6D6F7465+  "gPromote"
8D5D  64546F486F737400   "dToHost\0"
                         const [7]: "gPromotedToHost"
8D65  01                 const type 3
8D66  FBE70EED           const [8]: (-317790213)
8D6A  03                 const type 3
8D6B  00000000           const [9]: (0)
8D6F  04                 const type 4
8D70  10                 string size (16)
8D71  4F626A6563746976+  "Objectiv"
8D79  654D61726B657200   "eMarker\0"
                         const [10]: "ObjectiveMarker"
8D81  04                 const type 4
8D82  0A                 string size (10)
8D83  4F626A6563746976+  "Objectiv"
8D8B  6500               "e\0"
                         const [11]: "Objective"
8D8D  04                 const type 4
8D8E  03                 string size (3)
8D8F  5F5400             "_T\0"
                         const [12]: "_T"
8D92  04                 const type 4
8D93  10                 string size (16)
8D94  5472616E73697469+  "Transiti"
8D9C  6F6E4C6576656C00   "onLevel\0"
                         const [13]: "TransitionLevel"
8DA4  04                 const type 4
8DA5  05                 string size (5)
8DA6  426F737300         "Boss\0"
                         const [14]: "Boss"
8DAB  01                 const type 3
8DAC  65770E40           const [15]: (1074689893)
8DB0  01                 const type 3
8DB1  B786588D           const [16]: (-1923578185)
8DB5  04                 const type 4
8DB6  08                 string size (8)
8DB7  44697361626C6500   "Disable\0"
                         const [17]: "Disable"
8DBF  01                 const type 3
8DC0  EA911120           const [18]: (538022378)
8DC4  01                 const type 3
8DC5  2F0A5944           const [19]: (1146685999)
8DC9  04                 const type 4
8DCA  0F                 string size (15)
8DCB  47414D455F43315F+  "GAME_C1_"
8DD3  5350494E453100     "SPINE1\0"
                         const [20]: "GAME_C1_SPINE1"
8DDA  04                 const type 4
8DDB  07                 string size (7)
8DDC  456E61626C6500     "Enable\0"
                         const [21]: "Enable"
8DE3  01                 const type 3
8DE4  DCCB15D0           const [22]: (-803877924)
8DE8  04                 const type 4
8DE9  0A                 string size (10)
8DEA  4F626A52656D6F76+  "ObjRemov"
8DF2  6500               "e\0"
                         const [23]: "ObjRemove"
8DF4  01                 const type 3
8DF5  655F08DA           const [24]: (-636985499)
8DF9  01                 const type 3
8DFA  00000000           const [25]: (0)
8DFE  01                 const type 3
8DFF  90F9CED1           const [26]: (-774964848)
8E03  01                 const type 3
8E04  73290920           const [27]: (537471347)
8E08  01                 const type 3
8E09  6906D10B           const [28]: (198248041)
8E0D  01                 const type 3
8E0E  31C2437A           const [29]: (2051260977)
8E12  01                 const type 3
8E13  563DFDC9           const [30]: (-906150570)
8E17  04                 const type 4
8E18  0C                 string size (12)
8E19  4F626A436F6D706C+  "ObjCompl"
8E21  65746500           "ete\0"
                         const [31]: "ObjComplete"
                         * functions:
8E25  00                 sizep (0)
                         * lines:
8E27  01                 sizelineinfo (134)
                         [pc] (line)
8E28  11                 [001] (17)
8E29  06                 [002] (17)
8E2A  00                 [003] (17)
8E2B  00                 [004] (17)
8E2C  11                 [005] (17)
8E2D  06                 [006] (17)
8E2E  00                 [007] (18)
8E2F  00                 [008] (19)
8E30  11                 [009] (19)
8E31  06                 [010] (19)
8E32  00                 [011] (19)
8E33  00                 [012] (21)
8E34  11                 [013] (22)
8E35  06                 [014] (22)
8E36  00                 [015] (22)
8E37  00                 [016] (22)
8E38  11                 [017] (22)
8E39  06                 [018] (22)
8E3A  00                 [019] (22)
8E3B  00                 [020] (22)
8E3C  11                 [021] (23)
8E3D  06                 [022] (26)
8E3E  00                 [023] (26)
8E3F  00                 [024] (26)
8E40  12                 [025] (26)
8E41  06                 [026] (26)
8E42  00                 [027] (26)
8E43  00                 [028] (28)
8E44  13                 [029] (28)
8E45  06                 [030] (28)
8E46  00                 [031] (29)
8E47  00                 [032] (29)
8E48  13                 [033] (29)
8E49  06                 [034] (29)
8E4A  00                 [035] (29)
8E4B  00                 [036] (29)
8E4C  13                 [037] (29)
8E4D  06                 [038] (29)
8E4E  00                 [039] (29)
8E4F  00                 [040] (29)
8E50  13                 [041] (30)
8E51  06                 [042] (30)
8E52  00                 [043] (30)
8E53  00                 [044] (30)
8E54  15                 [045] (33)
8E55  06                 [046] (33)
8E56  00                 [047] (33)
8E57  00                 [048] (33)
8E58  16                 [049] (34)
8E59  06                 [050] (34)
8E5A  00                 [051] (34)
8E5B  00                 [052] (34)
8E5C  16                 [053] (34)
8E5D  06                 [054] (35)
8E5E  00                 [055] (35)
8E5F  00                 [056] (35)
8E60  16                 [057] (39)
8E61  06                 [058] (39)
8E62  00                 [059] (39)
8E63  00                 [060] (40)
8E64  16                 [061] (40)
8E65  06                 [062] (40)
8E66  00                 [063] (40)
8E67  00                 [064] (41)
8E68  16                 [065] (41)
8E69  06                 [066] (41)
8E6A  00                 [067] (41)
8E6B  00                 [068] (41)
8E6C  16                 [069] (42)
8E6D  06                 [070] (42)
8E6E  00                 [071] (42)
8E6F  00                 [072] (42)
8E70  16                 [073] (42)
8E71  06                 [074] (42)
8E72  00                 [075] (43)
8E73  00                 [076] (43)
8E74  16                 [077] (43)
8E75  06                 [078] (45)
8E76  00                 [079] (45)
8E77  00                 [080] (45)
8E78  17                 [081] (45)
8E79  06                 [082] (47)
8E7A  00                 [083] (47)
8E7B  00                 [084] (47)
8E7C  1A                 [085] (47)
8E7D  06                 [086] (47)
8E7E  00                 [087] (47)
8E7F  00                 [088] (48)
8E80  1A                 [089] (48)
8E81  06                 [090] (48)
8E82  00                 [091] (48)
8E83  00                 [092] (49)
8E84  1A                 [093] (49)
8E85  06                 [094] (50)
8E86  00                 [095] (50)
8E87  00                 [096] (51)
8E88  1A                 [097] (51)
8E89  06                 [098] (52)
8E8A  00                 [099] (52)
8E8B  00                 [100] (52)
8E8C  1A                 [101] (53)
8E8D  06                 [102] (53)
8E8E  00                 [103] (54)
8E8F  00                 [104] (54)
8E90  1A                 [105] (54)
8E91  06                 [106] (55)
8E92  00                 [107] (55)
8E93  00                 [108] (55)
8E94  1C                 [109] (55)
8E95  06                 [110] (55)
8E96  00                 [111] (56)
8E97  00                 [112] (56)
8E98  1C                 [113] (56)
8E99  06                 [114] (57)
8E9A  00                 [115] (57)
8E9B  00                 [116] (57)
8E9C  1C                 [117] (57)
8E9D  06                 [118] (57)
8E9E  00                 [119] (58)
8E9F  00                 [120] (58)
8EA0  1D                 [121] (58)
8EA1  06                 [122] (61)
8EA2  00                 [123] (61)
8EA3  00                 [124] (61)
8EA4  1D                 [125] (61)
8EA5  06                 [126] (61)
8EA6  00                 [127] (61)
8EA7  00                 [128] (62)
8EA8  1D                 [129] (62)
8EA9  06                 [130] (62)
8EAA  00                 [131] (62)
8EAB  00                 [132] (63)
8EAC  1D                 [133] (63)
8EAD  06                 [134] (66)
                         * locals:
9040  00                 sizelocvars (0)
                         * upvalues:
9041  00                 sizeupvalues (0)
                         ** end of function **

                         
9042                     ** function [28] definition (level 2)
                         ** start of function **
9042  00                 string size (0)
                         source name: (none)
9044  0C                 line defined (1604)
9045  E5                 last line defined (1637)
9046  0C                 nups (1)
9047  01                 numparams (0)
9048  00                 is_vararg (0)
9049  00                 maxstacksize (9)
                         * code:
904B  44                 sizecode (68)
904C  1D000000           [01] getglobal  0   0        ; gRegion
9050  24404000           [02] self       0   0   257  ; -1520831144
9054  22800001           [03] call       0   2   2  
9058  18400000           [04] test       0       1    ; to [6] if false
905C  1A000080           [05] jmp        1            ; to [7]
9060  1E008000           [06] return     0   1      
9064  1D800000           [07] getglobal  0   2        ; gGameRules
9068  46000001           [08] loadnil    1   2      
906C  DDC00000           [09] getglobal  3   3        ; 1074689893
9070  12018000           [10] move       4   1      
9074  E2800001           [11] call       3   2   2  
9078  D8000000           [12] test       3       0    ; to [14] if true
907C  1AC00180           [13] jmp        8            ; to [22]
9080  DD000100           [14] getglobal  3   4        ; VIP
9084  1D410100           [15] getglobal  4   5        ; 2144646525
9088  59810100           [16] loadk      5   6        ; 0
908C  9D010100           [17] getglobal  6   4        ; VIP
9090  8A010003           [18] len        6   6      
9094  22818001           [19] call       4   3   2  
9098  8E008101           [20] gettable   2   3   4  
909C  1AC00080           [21] jmp        4            ; to [26]
90A0  DDC00100           [22] getglobal  3   7        ; -895206725
90A4  12018000           [23] move       4   1      
90A8  E2800001           [24] call       3   2   2  
90AC  92008001           [25] move       2   3      
90B0  DD000200           [26] getglobal  3   8        ; spawnControl
90B4  E440C201           [27] self       3   3   265  ; 117988024
90B8  52010001           [28] move       5   2      
90BC  E2408001           [29] call       3   3   1  
90C0  DD000200           [30] getglobal  3   8        ; spawnControl
90C4  E480C201           [31] self       3   3   266  ; -1139739557
90C8  E2400001           [32] call       3   2   1  
90CC  DD000200           [33] getglobal  3   8        ; spawnControl
90D0  E4C0C201           [34] self       3   3   267  ; 803365678
90D4  E2800001           [35] call       3   2   2  
90D8  0E81C101           [36] gettable   4   3   262  ; 0
90DC  24014302           [37] self       4   4   268  ; 2022702902
90E0  22810001           [38] call       4   2   2  
90E4  5DC10000           [39] getglobal  5   3        ; 1074689893
90E8  92010002           [40] move       6   4      
90EC  62810001           [41] call       5   2   2  
90F0  58010000           [42] test       5       0    ; to [44] if true
90F4  1AC00080           [43] jmp        4            ; to [48]
90F8  5D410300           [44] getglobal  5   13       ; -1817107093
90FC  99810300           [45] loadk      6   14       ; "No Avatar Spawned!"
9100  62410001           [46] call       5   2   1  
9104  1E008000           [47] return     0   1      
9108  64C14300           [48] self       5   0   271  ; -803877924
910C  D3010000           [49] getupval   7   0      
9110  19820100           [50] loadk      8   6        ; 0
9114  62410002           [51] call       5   4   1  
9118  64014402           [52] self       5   4   272  ; 155743781
911C  D9410400           [53] loadk      7   17       ; 0
9120  62418001           [54] call       5   3   1  
9124  64814402           [55] self       5   4   274  ; 796523475
9128  62810001           [56] call       5   2   2  
fail op	21
912C  15408189           [57] concat     0   275 5  
9130  1AC00080           [58] jmp        4            ; to [63]
9134  5D010500           [59] getglobal  5   20       ; 538022378
9138  99C10400           [60] loadk      6   19       ; 0
913C  62410001           [61] call       5   2   1  
9140  1AC0FD7F           [62] jmp        -8           ; to [55]
9144  5D810000           [63] getglobal  5   2        ; gGameRules
9148  6441C502           [64] self       5   5   277  ; -34409044
914C  DD810500           [65] getglobal  7   22       ; Engine
9150  CEC1C503           [66] gettable   7   7   279  ; "GameRules_GS_FAILURE"
9154  62418001           [67] call       5   3   1  
9158  1E008000           [68] return     0   1      
                         * constants:
915C  18                 sizek (24)
915D  04                 const type 4
915E  08                 string size (8)
915F  67526567696F6E00   "gRegion\0"
                         const [0]: "gRegion"
9167  01                 const type 3
9168  58F559A5           const [1]: (-1520831144)
916C  04                 const type 4
916D  0B                 string size (11)
916E  6747616D6552756C+  "gGameRul"
9176  657300             "es\0"
                         const [2]: "gGameRules"
9179  01                 const type 3
917A  65770E40           const [3]: (1074689893)
917E  04                 const type 4
917F  04                 string size (4)
9180  56495000           "VIP\0"
                         const [4]: "VIP"
9184  01                 const type 3
9185  7DB5D47F           const [5]: (2144646525)
9189  03                 const type 3
918A  0000803F           const [6]: (0)
918E  01                 const type 3
918F  BB3AA4CA           const [7]: (-895206725)
9193  04                 const type 4
9194  0D                 string size (13)
9195  737061776E436F6E+  "spawnCon"
919D  74726F6C00         "trol\0"
                         const [8]: "spawnControl"
91A2  01                 const type 3
91A3  B85A0807           const [9]: (117988024)
91A7  01                 const type 3
91A8  5BF410BC           const [10]: (-1139739557)
91AC  01                 const type 3
91AD  2E63E22F           const [11]: (803365678)
91B1  01                 const type 3
91B2  36FF8F78           const [12]: (2022702902)
91B6  01                 const type 3
91B7  6B25B193           const [13]: (-1817107093)
91BB  04                 const type 4
91BC  13                 string size (19)
91BD  4E6F204176617461+  "No Avata"
91C5  7220537061776E65+  "r Spawne"
91CD  642100             "d!\0"
                         const [14]: "No Avatar Spawned!"
91D0  01                 const type 3
91D1  DCCB15D0           const [15]: (-803877924)
91D5  01                 const type 3
91D6  25764809           const [16]: (155743781)
91DA  03                 const type 3
91DB  000040C0           const [17]: (0)
91DF  01                 const type 3
91E0  D3FB792F           const [18]: (796523475)
91E4  03                 const type 3
91E5  00000000           const [19]: (0)
91E9  01                 const type 3
91EA  EA911120           const [20]: (538022378)
91EE  01                 const type 3
91EF  ACF5F2FD           const [21]: (-34409044)
91F3  04                 const type 4
91F4  07                 string size (7)
91F5  456E67696E6500     "Engine\0"
                         const [22]: "Engine"
91FC  04                 const type 4
91FD  15                 string size (21)
91FE  47616D6552756C65+  "GameRule"
9206  735F47535F464149+  "s_GS_FAI"
920E  4C55524500         "LURE\0"
                         const [23]: "GameRules_GS_FAILURE"
                         * functions:
9213  00                 sizep (0)
                         * lines:
9214  44                 sizelineinfo (68)
                         [pc] (line)
9215  46                 [01] (70)
9216  06                 [02] (70)
9217  00                 [03] (70)
9218  00                 [04] (70)
9219  46                 [05] (70)
921A  06                 [06] (71)
921B  00                 [07] (75)
921C  00                 [08] (76)
921D  46                 [09] (78)
921E  06                 [10] (78)
921F  00                 [11] (78)
9220  00                 [12] (78)
9221  46                 [13] (78)
9222  06                 [14] (79)
9223  00                 [15] (79)
9224  00                 [16] (79)
9225  46                 [17] (79)
9226  06                 [18] (79)
9227  00                 [19] (79)
9228  00                 [20] (79)
9229  47                 [21] (79)
922A  06                 [22] (81)
922B  00                 [23] (81)
922C  00                 [24] (81)
922D  4B                 [25] (81)
922E  06                 [26] (83)
922F  00                 [27] (83)
9230  00                 [28] (83)
9231  4C                 [29] (83)
9232  06                 [30] (84)
9233  00                 [31] (84)
9234  00                 [32] (84)
9235  4E                 [33] (86)
9236  06                 [34] (86)
9237  00                 [35] (86)
9238  00                 [36] (87)
9239  4E                 [37] (87)
923A  06                 [38] (87)
923B  00                 [39] (89)
923C  00                 [40] (89)
923D  4E                 [41] (89)
923E  06                 [42] (89)
923F  00                 [43] (89)
9240  00                 [44] (90)
9241  4E                 [45] (90)
9242  06                 [46] (90)
9243  00                 [47] (91)
9244  00                 [48] (94)
9245  4E                 [49] (94)
9246  06                 [50] (94)
9247  00                 [51] (94)
9248  00                 [52] (96)
9249  4F                 [53] (96)
924A  06                 [54] (96)
924B  00                 [55] (97)
924C  00                 [56] (97)
924D  4F                 [57] (97)
924E  06                 [58] (97)
924F  00                 [59] (98)
9250  00                 [60] (98)
9251  4F                 [61] (98)
9252  06                 [62] (98)
9253  00                 [63] (100)
9254  00                 [64] (100)
9255  4F                 [65] (100)
9256  06                 [66] (100)
9257  00                 [67] (100)
9258  00                 [68] (101)
                         * locals:
9325  00                 sizelocvars (0)
                         * upvalues:
9326  00                 sizeupvalues (0)
                         ** end of function **

                         
9327                     ** function [29] definition (level 2)
                         ** start of function **
9327  00                 string size (0)
                         source name: (none)
9329  0C                 line defined (1639)
932A  A5                 last line defined (1701)
932B  0D                 nups (3)
932C  03                 numparams (0)
932D  00                 is_vararg (0)
932E  00                 maxstacksize (30)
                         * code:
9331  01                 sizecode (139)
9332  1D000000           [001] getglobal  0   0        ; gGameRules
9336  24404000           [002] self       0   0   257  ; -317790213
933A  93000000           [003] getupval   2   0      
933E  22808001           [004] call       0   3   2  
fail op	33
9342  21000081           [005] tforloop   0       0    ; to [7] if exit
9346  1AC00180           [006] jmp        8            ; to [15]
934A  1D000000           [007] getglobal  0   0        ; gGameRules
934E  24404000           [008] self       0   0   257  ; -317790213
9352  93008000           [009] getupval   2   1      
9356  22808001           [010] call       0   3   2  
fail op	35
935A  23804000           [011] close      0  
935E  1A400180           [012] jmp        6            ; to [19]
9362  1E008000           [013] return     0   1      
9366  1AC00080           [014] jmp        4            ; to [19]
936A  1DC00000           [015] getglobal  0   3        ; gPromotedToHost
936E  18000000           [016] test       0       0    ; to [18] if true
9372  1A000080           [017] jmp        1            ; to [19]
9376  1E008000           [018] return     0   1      
937A  1D000100           [019] getglobal  0   4        ; -332969190
937E  59400100           [020] loadk      1   5        ; "Objective"
9382  22800001           [021] call       0   2   2  
9386  5D000000           [022] getglobal  1   0        ; gGameRules
938A  6440C000           [023] self       1   1   257  ; -317790213
938E  D3000000           [024] getupval   3   0      
9392  62808001           [025] call       1   3   2  
fail op	33
9396  61400081           [026] tforloop   1       1    ; to [28] if exit
939A  1AC00080           [027] jmp        4            ; to [32]
939E  5D800100           [028] getglobal  1   6        ; _T
93A2  4EC0C100           [029] gettable   1   1   263  ; "TransitionLevel"
93A6  58000000           [030] test       1       0    ; to [32] if true
93AA  1AC00080           [031] jmp        4            ; to [36]
93AE  5D000100           [032] getglobal  1   4        ; -332969190
93B2  99000200           [033] loadk      2   8        ; "Boss"
93B6  62800001           [034] call       1   2   2  
93BA  12008000           [035] move       0   1      
93BE  5D400200           [036] getglobal  1   9        ; gRegion
93C2  6480C200           [037] self       1   1   266  ; -1485896174
93C6  DD000100           [038] getglobal  3   4        ; -332969190
93CA  19C10200           [039] loadk      4   11       ; "hDoorScript"
93CE  E2000001           [040] call       3   2   0  
93D2  62800000           [041] call       1   0   2  
93D6  93000001           [042] getupval   2   2      
93DA  D2000000           [043] move       3   0      
93DE  12018000           [044] move       4   1      
93E2  A2808001           [045] call       2   3   2  
93E6  DD000300           [046] getglobal  3   12       ; 2144646525
93EA  1D410300           [047] getglobal  4   13       ; minCellDoorsOpen
93EE  5D810300           [048] getglobal  5   14       ; maxCellDoorsOpen
93F2  E2808001           [049] call       3   3   2  
93F6  0B010000           [050] newtable   4   0   0    ; array=0, hash=0
93FA  59810000           [051] loadk      5   2        ; 0
93FE  92018001           [052] move       6   3      
9402  D9810000           [053] loadk      7   2        ; 0
9406  50410380           [054] forprep    5   14       ; to [69]
940A  5D020300           [055] getglobal  9   12       ; 2144646525
940E  99820000           [056] loadk      10  2        ; 0
9412  CA020001           [057] len        11  2      
9416  62828001           [058] call       9   3   2  
941A  9DC20300           [059] getglobal  10  15       ; table
941E  8E024405           [060] gettable   10  10  272  ; -431682403
9422  D2020002           [061] move       11  4      
9426  0E430201           [062] gettable   12  2   9  
942A  A2428001           [063] call       10  3   1  
942E  9DC20300           [064] getglobal  10  15       ; table
9432  8E424405           [065] gettable   10  10  273  ; -843973282
9436  D2020001           [066] move       11  2      
943A  12038004           [067] move       12  9      
943E  A2428001           [068] call       10  3   1  
9442  5401FC7F           [069] forloop    5   -15      ; to [55] if loop
9446  99820000           [070] loadk      10  2        ; 0
944A  CA020002           [071] len        11  4      
944E  19830000           [072] loadk      12  2        ; 0
9452  90C20080           [073] forprep    10  4        ; to [78]
9456  8E430302           [074] gettable   14  4   13 
945A  A4834407           [075] self       14  14  274  ; -1923578185
945E  19C40400           [076] loadk      16  19       ; "Execute"
9462  A2438001           [077] call       14  3   1  
9466  9482FE7F           [078] forloop    10  -5       ; to [74] if loop
946A  9D430200           [079] getglobal  14  9        ; gRegion
946E  A4834207           [080] self       14  14  266  ; -1485896174
9472  1D040100           [081] getglobal  16  4        ; -332969190
9476  59040500           [082] loadk      17  20       ; "hSpawnScript"
947A  22040001           [083] call       16  2   0  
947E  A2830000           [084] call       14  0   2  
9482  D3030001           [085] getupval   15  2      
9486  12040000           [086] move       16  0      
948A  52040007           [087] move       17  14     
948E  E2838001           [088] call       15  3   2  
9492  0B040000           [089] newtable   16  0   0    ; array=0, hash=0
9496  4A040008           [090] len        17  16     
fail op	21
949A  15C08008           [091] concat     0   17  3  
949E  1A000580           [092] jmp        21           ; to [114]
94A2  4B040000           [093] newtable   17  0   0    ; array=0, hash=0
94A6  12048008           [094] move       16  17     
94AA  59840000           [095] loadk      17  2        ; 0
94AE  8A048007           [096] len        18  15     
94B2  D9840000           [097] loadk      19  2        ; 0
94B6  50440280           [098] forprep    17  10       ; to [109]
94BA  4E058507           [099] gettable   21  15  20 
94BE  6445C50A           [100] self       21  21  277  ; -1318948062
94C2  62850001           [101] call       21  2   2  
94C6  58050000           [102] test       21      0    ; to [104] if true
94CA  1A000180           [103] jmp        5            ; to [109]
94CE  5DC50300           [104] getglobal  21  15       ; table
94D2  4E05C40A           [105] gettable   21  21  272  ; -431682403
94D6  92050008           [106] move       22  16     
94DA  CE058507           [107] gettable   23  15  20 
94DE  62458001           [108] call       21  3   1  
94E2  5404FD7F           [109] forloop    17  -11      ; to [99] if loop
94E6  5D850500           [110] getglobal  21  22       ; 538022378
94EA  99C50500           [111] loadk      22  23       ; 0
94EE  62450001           [112] call       21  2   1  
94F2  1AC0F97F           [113] jmp        -24          ; to [90]
94F6  5D050300           [114] getglobal  21  12       ; 2144646525
94FA  99850000           [115] loadk      22  2        ; 0
94FE  CA050008           [116] len        23  16     
9502  62858001           [117] call       21  3   2  
9506  99850000           [118] loadk      22  2        ; 0
950A  CA050008           [119] len        23  16     
950E  19860000           [120] loadk      24  2        ; 0
9512  90050180           [121] forprep    22  5        ; to [127]
fail op	35
9516  6340850C           [122] close      1  
951A  1A800080           [123] jmp        3            ; to [127]
951E  8E460608           [124] gettable   26  16  25 
9522  A406460D           [125] self       26  26  280  ; 766584623
9526  A2460001           [126] call       26  2   1  
952A  9445FE7F           [127] forloop    22  -6       ; to [122] if loop
952E  9D060000           [128] getglobal  26  0        ; gGameRules
9532  A446400D           [129] self       26  26  257  ; -317790213
9536  13070000           [130] getupval   28  0      
953A  A2868001           [131] call       26  3   2  
fail op	33
953E  21800681           [132] tforloop   0       26   ; to [134] if exit
9542  1A000180           [133] jmp        5            ; to [139]
9546  9D060000           [134] getglobal  26  0        ; gGameRules
954A  A446460D           [135] self       26  26  281  ; -803877924
954E  13078000           [136] getupval   28  1      
9552  59870000           [137] loadk      29  2        ; 0
9556  A2460002           [138] call       26  4   1  
955A  1E008000           [139] return     0   1      
                         * constants:
955E  1A                 sizek (26)
955F  04                 const type 4
9560  0B                 string size (11)
9561  6747616D6552756C+  "gGameRul"
9569  657300             "es\0"
                         const [0]: "gGameRules"
956C  01                 const type 3
956D  FBE70EED           const [1]: (-317790213)
9571  03                 const type 3
9572  0000803F           const [2]: (0)
9576  04                 const type 4
9577  10                 string size (16)
9578  6750726F6D6F7465+  "gPromote"
9580  64546F486F737400   "dToHost\0"
                         const [3]: "gPromotedToHost"
9588  01                 const type 3
9589  1A4B27EC           const [4]: (-332969190)
958D  04                 const type 4
958E  0A                 string size (10)
958F  4F626A6563746976+  "Objectiv"
9597  6500               "e\0"
                         const [5]: "Objective"
9599  04                 const type 4
959A  03                 string size (3)
959B  5F5400             "_T\0"
                         const [6]: "_T"
959E  04                 const type 4
959F  10                 string size (16)
95A0  5472616E73697469+  "Transiti"
95A8  6F6E4C6576656C00   "onLevel\0"
                         const [7]: "TransitionLevel"
95B0  04                 const type 4
95B1  05                 string size (5)
95B2  426F737300         "Boss\0"
                         const [8]: "Boss"
95B7  04                 const type 4
95B8  08                 string size (8)
95B9  67526567696F6E00   "gRegion\0"
                         const [9]: "gRegion"
95C1  01                 const type 3
95C2  12066FA7           const [10]: (-1485896174)
95C6  04                 const type 4
95C7  0C                 string size (12)
95C8  68446F6F72536372+  "hDoorScr"
95D0  69707400           "ipt\0"
                         const [11]: "hDoorScript"
95D4  01                 const type 3
95D5  7DB5D47F           const [12]: (2144646525)
95D9  04                 const type 4
95DA  11                 string size (17)
95DB  6D696E43656C6C44+  "minCellD"
95E3  6F6F72734F70656E+  "oorsOpen"
95EB  00                 "\0"
                         const [13]: "minCellDoorsOpen"
95EC  04                 const type 4
95ED  11                 string size (17)
95EE  6D617843656C6C44+  "maxCellD"
95F6  6F6F72734F70656E+  "oorsOpen"
95FE  00                 "\0"
                         const [14]: "maxCellDoorsOpen"
95FF  04                 const type 4
9600  06                 string size (6)
9601  7461626C6500       "table\0"
                         const [15]: "table"
9607  01                 const type 3
9608  9D0C45E6           const [16]: (-431682403)
960C  01                 const type 3
960D  5EFDB1CD           const [17]: (-843973282)
9611  01                 const type 3
9612  B786588D           const [18]: (-1923578185)
9616  04                 const type 4
9617  08                 string size (8)
9618  4578656375746500   "Execute\0"
                         const [19]: "Execute"
9620  04                 const type 4
9621  0D                 string size (13)
9622  68537061776E5363+  "hSpawnSc"
962A  7269707400         "ript\0"
                         const [20]: "hSpawnScript"
962F  01                 const type 3
9630  227362B1           const [21]: (-1318948062)
9634  01                 const type 3
9635  EA911120           const [22]: (538022378)
9639  03                 const type 3
963A  00000000           const [23]: (0)
963E  01                 const type 3
963F  2F27B12D           const [24]: (766584623)
9643  01                 const type 3
9644  DCCB15D0           const [25]: (-803877924)
                         * functions:
9648  00                 sizep (0)
                         * lines:
964A  01                 sizelineinfo (139)
                         [pc] (line)
964B  6A                 [001] (106)
964C  06                 [002] (106)
964D  00                 [003] (106)
964E  00                 [004] (106)
964F  6A                 [005] (106)
9650  06                 [006] (106)
9651  00                 [007] (107)
9652  00                 [008] (107)
9653  6A                 [009] (107)
9654  06                 [010] (107)
9655  00                 [011] (107)
9656  00                 [012] (107)
9657  6A                 [013] (108)
9658  06                 [014] (109)
9659  00                 [015] (110)
965A  00                 [016] (110)
965B  6A                 [017] (110)
965C  06                 [018] (111)
965D  00                 [019] (115)
965E  00                 [020] (115)
965F  6A                 [021] (115)
9660  06                 [022] (116)
9661  00                 [023] (116)
9662  00                 [024] (116)
9663  6B                 [025] (116)
9664  06                 [026] (116)
9665  00                 [027] (116)
9666  00                 [028] (116)
9667  6B                 [029] (116)
9668  06                 [030] (116)
9669  00                 [031] (116)
966A  00                 [032] (117)
966B  6B                 [033] (117)
966C  06                 [034] (117)
966D  00                 [035] (117)
966E  00                 [036] (121)
966F  6B                 [037] (121)
9670  06                 [038] (121)
9671  00                 [039] (121)
9672  00                 [040] (121)
9673  6B                 [041] (121)
9674  06                 [042] (122)
9675  00                 [043] (122)
9676  00                 [044] (122)
9677  6B                 [045] (122)
9678  06                 [046] (125)
9679  00                 [047] (125)
967A  00                 [048] (125)
967B  6C                 [049] (125)
967C  06                 [050] (126)
967D  00                 [051] (127)
967E  00                 [052] (127)
967F  6D                 [053] (127)
9680  06                 [054] (127)
9681  00                 [055] (-128)
9682  00                 [056] (-128)
9683  6E                 [057] (-128)
9684  06                 [058] (-128)
9685  00                 [059] (-127)
9686  00                 [060] (-127)
9687  6E                 [061] (-127)
9688  06                 [062] (-127)
9689  00                 [063] (-127)
968A  00                 [064] (-126)
968B  6E                 [065] (-126)
968C  06                 [066] (-126)
968D  00                 [067] (-126)
968E  00                 [068] (-126)
968F  6F                 [069] (127)
9690  06                 [070] (-122)
9691  00                 [071] (-122)
9692  00                 [072] (-122)
9693  73                 [073] (-122)
9694  06                 [074] (-121)
9695  00                 [075] (-121)
9696  00                 [076] (-121)
9697  73                 [077] (-121)
9698  06                 [078] (-122)
9699  00                 [079] (-117)
969A  00                 [080] (-117)
969B  73                 [081] (-117)
969C  06                 [082] (-117)
969D  00                 [083] (-117)
969E  00                 [084] (-117)
969F  74                 [085] (-116)
96A0  06                 [086] (-116)
96A1  00                 [087] (-116)
96A2  00                 [088] (-116)
96A3  74                 [089] (-115)
96A4  06                 [090] (-113)
96A5  00                 [091] (-113)
96A6  00                 [092] (-113)
96A7  74                 [093] (-112)
96A8  06                 [094] (-112)
96A9  00                 [095] (-111)
96AA  00                 [096] (-111)
96AB  74                 [097] (-111)
96AC  06                 [098] (-111)
96AD  00                 [099] (-110)
96AE  00                 [100] (-110)
96AF  74                 [101] (-110)
96B0  06                 [102] (-110)
96B1  00                 [103] (-110)
96B2  00                 [104] (-109)
96B3  74                 [105] (-109)
96B4  06                 [106] (-109)
96B5  00                 [107] (-109)
96B6  00                 [108] (-109)
96B7  74                 [109] (-111)
96B8  06                 [110] (-106)
96B9  00                 [111] (-106)
96BA  00                 [112] (-106)
96BB  74                 [113] (-106)
96BC  06                 [114] (-102)
96BD  00                 [115] (-102)
96BE  00                 [116] (-102)
96BF  74                 [117] (-102)
96C0  06                 [118] (-101)
96C1  00                 [119] (-101)
96C2  00                 [120] (-101)
96C3  74                 [121] (-101)
96C4  06                 [122] (-100)
96C5  00                 [123] (-100)
96C6  00                 [124] (-99)
96C7  75                 [125] (-99)
96C8  06                 [126] (-99)
96C9  00                 [127] (-101)
96CA  00                 [128] (-94)
96CB  75                 [129] (-94)
96CC  06                 [130] (-94)
96CD  00                 [131] (-94)
96CE  00                 [132] (-94)
96CF  75                 [133] (-94)
96D0  06                 [134] (-93)
96D1  00                 [135] (-93)
96D2  00                 [136] (-93)
96D3  75                 [137] (-93)
96D4  06                 [138] (-93)
96D5  00                 [139] (-91)
                         * locals:
9877  00                 sizelocvars (0)
                         * upvalues:
9878  00                 sizeupvalues (0)
                         ** end of function **

                         
9879                     ** function [30] definition (level 2)
                         ** start of function **
9879  00                 string size (0)
                         source name: (none)
987B  0D                 line defined (1703)
987C  D0                 last line defined (1744)
987D  0D                 nups (3)
987E  03                 numparams (0)
987F  00                 is_vararg (0)
9880  00                 maxstacksize (15)
                         * code:
9882  50                 sizecode (80)
9883  1D000000           [01] getglobal  0   0        ; gGameRules
9887  64404000           [02] self       1   0   257  ; -317790213
988B  D3000000           [03] getupval   3   0      
988F  62808001           [04] call       1   3   2  
fail op	35
9893  2380C000           [05] close      0  
9897  1A000080           [06] jmp        1            ; to [8]
989B  1E008000           [07] return     0   1      
989F  5DC00000           [08] getglobal  1   3        ; -332969190
98A3  99000100           [09] loadk      2   4        ; "Objective"
98A7  62800001           [10] call       1   2   2  
98AB  9D000000           [11] getglobal  2   0        ; gGameRules
98AF  A4404001           [12] self       2   2   257  ; -317790213
98B3  13018000           [13] getupval   4   1      
98B7  A2808001           [14] call       2   3   2  
fail op	33
98BB  21808082           [15] tforloop   0       2    ; to [17] if exit
98BF  1AC00080           [16] jmp        4            ; to [21]
98C3  9DC00000           [17] getglobal  2   3        ; -332969190
98C7  D9800100           [18] loadk      3   6        ; "Boss"
98CB  A2800001           [19] call       2   2   2  
98CF  52000001           [20] move       1   2      
98D3  9DC00100           [21] getglobal  2   7        ; gRegion
98D7  A4004201           [22] self       2   2   264  ; -1485896174
98DB  1DC10000           [23] getglobal  4   3        ; -332969190
98DF  59410200           [24] loadk      5   9        ; "hSpawn"
98E3  22010001           [25] call       4   2   0  
98E7  A2800000           [26] call       2   0   2  
98EB  D3000001           [27] getupval   3   2      
98EF  12018000           [28] move       4   1      
98F3  52010001           [29] move       5   2      
98F7  E2808001           [30] call       3   3   2  
98FB  06018002           [31] loadnil    4   5      
98FF  99410100           [32] loadk      6   5        ; 0
9903  CA018001           [33] len        7   3      
9907  19420100           [34] loadk      8   5        ; 0
990B  90410280           [35] forprep    6   10       ; to [46]
990F  8E428201           [36] gettable   10  3   9  
9913  A4824205           [37] self       10  10  266  ; -1318948062
9917  A2820001           [38] call       10  2   2  
991B  98020000           [39] test       10      0    ; to [41] if true
991F  1A000180           [40] jmp        5            ; to [46]
9923  0E418201           [41] gettable   4   3   9  
9927  A4C24202           [42] self       10  4   267  ; 803365678
992B  A2820001           [43] call       10  2   2  
992F  52010005           [44] move       5   10     
9933  1A000080           [45] jmp        1            ; to [47]
9937  9401FD7F           [46] forloop    6   -11      ; to [36] if loop
993B  86020005           [47] loadnil    10  10     
993F  CE42C102           [48] gettable   11  5   261  ; 0
9943  1D030300           [49] getglobal  12  12       ; 1074689893
9947  52030005           [50] move       13  10     
994B  22830001           [51] call       12  2   2  
994F  18030000           [52] test       12      0    ; to [54] if true
9953  1A800180           [53] jmp        7            ; to [61]
9957  2443C305           [54] self       12  11  269  ; 2022702902
995B  22830001           [55] call       12  2   2  
995F  92020006           [56] move       10  12     
9963  1D830300           [57] getglobal  12  14       ; 538022378
9967  59C30300           [58] loadk      13  15       ; -51
996B  22430001           [59] call       12  2   1  
996F  1AC0FC7F           [60] jmp        -12          ; to [49]
9973  1D030400           [61] getglobal  12  16       ; -1817107093
9977  59430400           [62] loadk      13  17       ; "InitializeRescueAfterMigration - hostage found"
997B  22430001           [63] call       12  2   1  
997F  24834405           [64] self       12  10  274  ; 155743781
9983  99C30400           [65] loadk      14  19       ; 0
9987  22438001           [66] call       12  3   1  
998B  24034505           [67] self       12  10  276  ; 796523475
998F  22830001           [68] call       12  2   2  
fail op	21
9993  15000381           [69] concat     0   258 12 
9997  1AC00080           [70] jmp        4            ; to [75]
999B  1D830300           [71] getglobal  12  14       ; 538022378
999F  59830000           [72] loadk      13  2        ; 0
99A3  22430001           [73] call       12  2   1  
99A7  1AC0FD7F           [74] jmp        -8           ; to [67]
99AB  1D030000           [75] getglobal  12  0        ; gGameRules
99AF  24434506           [76] self       12  12  277  ; -34409044
99B3  9D830500           [77] getglobal  14  22       ; Engine
99B7  8EC34507           [78] gettable   14  14  279  ; "GameRules_GS_FAILURE"
99BB  22438001           [79] call       12  3   1  
99BF  1E008000           [80] return     0   1      
                         * constants:
99C3  18                 sizek (24)
99C4  04                 const type 4
99C5  0B                 string size (11)
99C6  6747616D6552756C+  "gGameRul"
99CE  657300             "es\0"
                         const [0]: "gGameRules"
99D1  01                 const type 3
99D2  FBE70EED           const [1]: (-317790213)
99D6  03                 const type 3
99D7  00000000           const [2]: (0)
99DB  01                 const type 3
99DC  1A4B27EC           const [3]: (-332969190)
99E0  04                 const type 4
99E1  0A                 string size (10)
99E2  4F626A6563746976+  "Objectiv"
99EA  6500               "e\0"
                         const [4]: "Objective"
99EC  03                 const type 3
99ED  0000803F           const [5]: (0)
99F1  04                 const type 4
99F2  05                 string size (5)
99F3  426F737300         "Boss\0"
                         const [6]: "Boss"
99F8  04                 const type 4
99F9  08                 string size (8)
99FA  67526567696F6E00   "gRegion\0"
                         const [7]: "gRegion"
9A02  01                 const type 3
9A03  12066FA7           const [8]: (-1485896174)
9A07  04                 const type 4
9A08  07                 string size (7)
9A09  68537061776E00     "hSpawn\0"
                         const [9]: "hSpawn"
9A10  01                 const type 3
9A11  227362B1           const [10]: (-1318948062)
9A15  01                 const type 3
9A16  2E63E22F           const [11]: (803365678)
9A1A  01                 const type 3
9A1B  65770E40           const [12]: (1074689893)
9A1F  01                 const type 3
9A20  36FF8F78           const [13]: (2022702902)
9A24  01                 const type 3
9A25  EA911120           const [14]: (538022378)
9A29  03                 const type 3
9A2A  CDCC4C3E           const [15]: (-51)
9A2E  01                 const type 3
9A2F  6B25B193           const [16]: (-1817107093)
9A33  04                 const type 4
9A34  2F                 string size (47)
9A35  496E697469616C69+  "Initiali"
9A3D  7A65526573637565+  "zeRescue"
9A45  41667465724D6967+  "AfterMig"
9A4D  726174696F6E202D+  "ration -"
9A55  20686F7374616765+  " hostage"
9A5D  20666F756E6400     " found\0"
                         const [17]: "InitializeRescueAfterMigration - hostage found"
9A64  01                 const type 3
9A65  25764809           const [18]: (155743781)
9A69  03                 const type 3
9A6A  000040C0           const [19]: (0)
9A6E  01                 const type 3
9A6F  D3FB792F           const [20]: (796523475)
9A73  01                 const type 3
9A74  ACF5F2FD           const [21]: (-34409044)
9A78  04                 const type 4
9A79  07                 string size (7)
9A7A  456E67696E6500     "Engine\0"
                         const [22]: "Engine"
9A81  04                 const type 4
9A82  15                 string size (21)
9A83  47616D6552756C65+  "GameRule"
9A8B  735F47535F464149+  "s_GS_FAI"
9A93  4C55524500         "LURE\0"
                         const [23]: "GameRules_GS_FAILURE"
                         * functions:
9A98  00                 sizep (0)
                         * lines:
9A99  50                 sizelineinfo (80)
                         [pc] (line)
9A9A  A8                 [01] (-88)
9A9B  06                 [02] (-87)
9A9C  00                 [03] (-87)
9A9D  00                 [04] (-87)
9A9E  A9                 [05] (-87)
9A9F  06                 [06] (-87)
9AA0  00                 [07] (-86)
9AA1  00                 [08] (-82)
9AA2  A9                 [09] (-82)
9AA3  06                 [10] (-82)
9AA4  00                 [11] (-81)
9AA5  00                 [12] (-81)
9AA6  A9                 [13] (-81)
9AA7  06                 [14] (-81)
9AA8  00                 [15] (-81)
9AA9  00                 [16] (-81)
9AAA  A9                 [17] (-80)
9AAB  06                 [18] (-80)
9AAC  00                 [19] (-80)
9AAD  00                 [20] (-80)
9AAE  A9                 [21] (-76)
9AAF  06                 [22] (-76)
9AB0  00                 [23] (-76)
9AB1  00                 [24] (-76)
9AB2  AA                 [25] (-76)
9AB3  06                 [26] (-76)
9AB4  00                 [27] (-75)
9AB5  00                 [28] (-75)
9AB6  AE                 [29] (-75)
9AB7  06                 [30] (-75)
9AB8  00                 [31] (-74)
9AB9  00                 [32] (-71)
9ABA  AE                 [33] (-71)
9ABB  06                 [34] (-71)
9ABC  00                 [35] (-71)
9ABD  00                 [36] (-70)
9ABE  AE                 [37] (-70)
9ABF  06                 [38] (-70)
9AC0  00                 [39] (-70)
9AC1  00                 [40] (-70)
9AC2  AF                 [41] (-69)
9AC3  06                 [42] (-68)
9AC4  00                 [43] (-68)
9AC5  00                 [44] (-68)
9AC6  AF                 [45] (-67)
9AC7  06                 [46] (-71)
9AC8  00                 [47] (-62)
9AC9  00                 [48] (-61)
9ACA  AF                 [49] (-60)
9ACB  06                 [50] (-60)
9ACC  00                 [51] (-60)
9ACD  00                 [52] (-60)
9ACE  AF                 [53] (-60)
9ACF  06                 [54] (-59)
9AD0  00                 [55] (-59)
9AD1  00                 [56] (-59)
9AD2  AF                 [57] (-58)
9AD3  06                 [58] (-58)
9AD4  00                 [59] (-58)
9AD5  00                 [60] (-58)
9AD6  AF                 [61] (-55)
9AD7  06                 [62] (-55)
9AD8  00                 [63] (-55)
9AD9  00                 [64] (-53)
9ADA  B0                 [65] (-53)
9ADB  06                 [66] (-53)
9ADC  00                 [67] (-52)
9ADD  00                 [68] (-52)
9ADE  B0                 [69] (-52)
9ADF  06                 [70] (-52)
9AE0  00                 [71] (-51)
9AE1  00                 [72] (-51)
9AE2  B0                 [73] (-51)
9AE3  06                 [74] (-51)
9AE4  00                 [75] (-49)
9AE5  00                 [76] (-49)
9AE6  B0                 [77] (-49)
9AE7  06                 [78] (-49)
9AE8  00                 [79] (-49)
9AE9  00                 [80] (-48)
                         * locals:
9BDA  00                 sizelocvars (0)
                         * upvalues:
9BDB  00                 sizeupvalues (0)
                         ** end of function **

                         
9BDC                     ** function [31] definition (level 2)
                         ** start of function **
9BDC  00                 string size (0)
                         source name: (none)
9BDE  0D                 line defined (1750)
9BDF  CF                 last line defined (1871)
9BE0  0E                 nups (7)
9BE1  07                 numparams (0)
9BE2  00                 is_vararg (0)
9BE3  00                 maxstacksize (34)
                         * code:
9BE6  02                 sizecode (292)
9BE7  1D000000           [001] getglobal  0   0        ; _T
9BEB  0C80C080           [002] settable   0   257 258  ; "IntelKill" 0
9BEF  1DC00000           [003] getglobal  0   3        ; gRegion
9BF3  24004100           [004] self       0   0   260  ; -774964848
9BF7  22800001           [005] call       0   2   2  
9BFB  64404100           [006] self       1   0   261  ; 537471347
9BFF  62800001           [007] call       1   2   2  
9C03  93000000           [008] getupval   2   0      
9C07  8E804101           [009] gettable   2   2   262  ; 198248041
9C0B  A2808000           [010] call       2   1   2  
9C0F  E4C0C100           [011] self       3   1   263  ; -906150570
9C13  52010001           [012] move       5   2      
9C17  E2408001           [013] call       3   3   1  
9C1B  DD000200           [014] getglobal  3   8        ; gGameRules
9C1F  E440C201           [015] self       3   3   265  ; 2051260977
9C23  57018000           [016] loadbool   5   1   0    ; true
9C27  97010000           [017] loadbool   6   0   0    ; false
9C2B  E2400002           [018] call       3   4   1  
9C2F  DDC00000           [019] getglobal  3   3        ; gRegion
9C33  E480C201           [020] self       3   3   266  ; -1485896174
9C37  5DC10200           [021] getglobal  5   11       ; -332969190
9C3B  99010300           [022] loadk      6   12       ; "BossDoorHint"
9C3F  62010001           [023] call       5   2   0  
9C43  E2800000           [024] call       3   0   2  
9C47  0A018001           [025] len        4   3      
fail op	21
9C4B  15008186           [026] concat     0   269 4  
9C4F  1AC00080           [027] jmp        4            ; to [32]
9C53  0E81C301           [028] gettable   4   3   270  ; 0
9C57  24C14302           [029] self       4   4   271  ; -1923578185
9C5B  99010400           [030] loadk      6   16       ; "Unlock"
9C5F  22418001           [031] call       4   3   1  
9C63  1D410400           [032] getglobal  4   17       ; 538022378
9C67  59810300           [033] loadk      5   14       ; 0
9C6B  22410001           [034] call       4   2   1  
9C6F  1D010200           [035] getglobal  4   8        ; gGameRules
9C73  5D810400           [036] getglobal  5   18       ; 1074689893
9C77  92010002           [037] move       6   4      
9C7B  62810001           [038] call       5   2   2  
9C7F  58010000           [039] test       5       0    ; to [41] if true
9C83  1A000080           [040] jmp        1            ; to [42]
9C87  1E008000           [041] return     0   1      
9C8B  4B010000           [042] newtable   5   0   0    ; array=0, hash=0
9C8F  9DC10400           [043] getglobal  6   19       ; -421772368
9C93  D9010500           [044] loadk      7   20       ; "/Lotus/Language/Game/DataTerminalCount"
9C97  12028002           [045] move       8   5      
9C9B  A2818001           [046] call       6   3   2  
9C9F  E4414502           [047] self       7   4   277  ; -317790213
9CA3  53028000           [048] getupval   9   1      
9CA7  99420300           [049] loadk      10  13       ; 0
9CAB  E2810002           [050] call       7   4   2  
9CAF  13020001           [051] getupval   8   2      
fail op	33
9CB3  21C00104           [052] tforloop   0       7    ; to [54] if exit
9CB7  1AC00B80           [053] jmp        48           ; to [102]
9CBB  1D820400           [054] getglobal  8   18       ; 1074689893
9CBF  5D020000           [055] getglobal  9   0        ; _T
9CC3  4E82C504           [056] gettable   9   9   278  ; "AddHudTracker"
9CC7  22820001           [057] call       8   2   2  
9CCB  18020000           [058] test       8       0    ; to [60] if true
9CCF  1AC00080           [059] jmp        4            ; to [64]
9CD3  1D420400           [060] getglobal  8   17       ; 538022378
9CD7  59420300           [061] loadk      9   13       ; 0
9CDB  22420001           [062] call       8   2   1  
9CDF  1A40FD7F           [063] jmp        -10          ; to [54]
9CE3  1D820400           [064] getglobal  8   18       ; 1074689893
9CE7  53028001           [065] getupval   9   3      
9CEB  22820001           [066] call       8   2   2  
9CEF  18020000           [067] test       8       0    ; to [69] if true
9CF3  1A800380           [068] jmp        15           ; to [84]
9CF7  1D020000           [069] getglobal  8   0        ; _T
9CFB  0EC24504           [070] gettable   8   8   279  ; 972116663
9CFF  59020600           [071] loadk      9   24       ; "TAProgressBar"
9D03  93020002           [072] getupval   10  4      
9D07  8E424605           [073] gettable   10  10  281  ; "HT_PROGRESS_BAR"
9D0B  D9820600           [074] loadk      11  26       ; -51
9D0F  22820002           [075] call       8   4   2  
fail op	8
9D13  08028001           [076] setupval   8   3      
9D17  13028001           [077] getupval   8   3      
9D1B  0EC24604           [078] gettable   8   8   283  ; -440008155
9D1F  5D020700           [079] getglobal  9   28       ; _G
9D23  4E42C704           [080] gettable   9   9   285  ; "UIColor_DarkBlue"
9D27  22420001           [081] call       8   2   1  
9D2B  1D020000           [082] getglobal  8   0        ; _T
9D2F  0CC2478F           [083] settable   8   286 287  ; "HasTAProgressBar" 1
9D33  13028001           [084] getupval   8   3      
9D37  0E024804           [085] gettable   8   8   288  ; 934616952
9D3B  59420800           [086] loadk      9   33       ; ""
9D3F  22420001           [087] call       8   2   1  
9D43  13028001           [088] getupval   8   3      
9D47  0E824804           [089] gettable   8   8   290  ; -1455793363
9D4B  53028001           [090] getupval   9   3      
9D4F  4EC2C404           [091] gettable   9   9   275  ; -421772368
9D53  99020500           [092] loadk      10  20       ; "/Lotus/Language/Game/DataTerminalCount"
9D57  62820001           [093] call       9   2   2  
9D5B  99C20800           [094] loadk      10  35       ; "  0"
9D5F  42828204           [095] concat     9   9   10 
9D63  22420001           [096] call       8   2   1  
9D67  13028001           [097] getupval   8   3      
9D6B  0E024904           [098] gettable   8   8   292  ; 1731445362
9D6F  59420900           [099] loadk      9   37       ; 0
9D73  22420001           [100] call       8   2   1  
9D77  1E008000           [101] return     0   1      
9D7B  1D820900           [102] getglobal  8   38       ; -1817107093
9D7F  59C20900           [103] loadk      9   39       ; "IntelCounter - intel points before: "
9D83  9D020A00           [104] getglobal  10  40       ; -1615931716
9D87  D2028003           [105] move       11  7      
9D8B  A2820001           [106] call       10  2   2  
9D8F  42828204           [107] concat     9   9   10 
9D93  22420001           [108] call       8   2   1  
fail op	35
9D97  2340C303           [109] close      0  
9D9B  1A801180           [110] jmp        71           ; to [182]
9D9F  2442CA00           [111] self       8   1   297  ; -175412982
9DA3  9DC20200           [112] getglobal  10  11       ; -332969190
9DA7  D9820A00           [113] loadk      11  42       ; "IntelStations"
9DAB  A2820001           [114] call       10  2   2  
9DAF  DDC20A00           [115] getglobal  11  43       ; minDistFromPlayers
9DB3  1D030B00           [116] getglobal  12  44       ; maxDistFromPlayers
9DB7  22828002           [117] call       8   5   2  
9DBB  64424B02           [118] self       9   4   301  ; -803877924
9DBF  D3028000           [119] getupval   11  1      
9DC3  19830B00           [120] loadk      12  46       ; 0
9DC7  62420002           [121] call       9   4   1  
9DCB  4B020000           [122] newtable   9   0   0    ; array=0, hash=0
9DCF  99820B00           [123] loadk      10  46       ; 0
9DD3  CA020004           [124] len        11  8      
fail op	21
9DD7  15808205           [125] concat     0   11  10 
9DDB  1AC00280           [126] jmp        12           ; to [139]
9DDF  8A020004           [127] len        10  8      
9DE3  D9820300           [128] loadk      11  14       ; 0
9DE7  12030005           [129] move       12  10     
9DEB  59830300           [130] loadk      13  14       ; 0
9DEF  D0020180           [131] forprep    11  5        ; to [137]
9DF3  DDC30B00           [132] getglobal  15  47       ; table
9DF7  CE03CC07           [133] gettable   15  15  304  ; -431682403
9DFB  12048004           [134] move       16  9      
9DFF  4E840304           [135] gettable   17  8   14 
9E03  E2438001           [136] call       15  3   1  
9E07  D442FE7F           [137] forloop    11  -6       ; to [132] if loop
9E0B  1A800480           [138] jmp        19           ; to [158]
9E0F  D9830300           [139] loadk      15  14       ; 0
9E13  12040005           [140] move       16  10     
9E17  59840300           [141] loadk      17  14       ; 0
9E1B  D0430380           [142] forprep    15  14       ; to [157]
9E1F  DD440C00           [143] getglobal  19  49       ; 2144646525
9E23  19850300           [144] loadk      20  14       ; 0
9E27  4A050004           [145] len        21  8      
9E2B  E2848001           [146] call       19  3   2  
9E2F  1DC50B00           [147] getglobal  20  47       ; table
9E33  0E054C0A           [148] gettable   20  20  304  ; -431682403
9E37  52058004           [149] move       21  9      
9E3B  8EC50404           [150] gettable   22  8   19 
9E3F  22458001           [151] call       20  3   1  
9E43  1DC50B00           [152] getglobal  20  47       ; table
9E47  0E854C0A           [153] gettable   20  20  306  ; -843973282
9E4B  52050004           [154] move       21  8      
9E4F  92058009           [155] move       22  19     
9E53  22458001           [156] call       20  3   1  
9E57  D403FC7F           [157] forloop    15  -15      ; to [143] if loop
9E5B  24454B02           [158] self       20  4   301  ; -803877924
9E5F  93058000           [159] getupval   22  1      
9E63  CA058004           [160] len        23  9      
9E67  22450002           [161] call       20  4   1  
9E6B  19850300           [162] loadk      20  14       ; 0
9E6F  4A058004           [163] len        21  9      
9E73  99850300           [164] loadk      22  14       ; 0
9E77  10C50080           [165] forprep    20  4        ; to [170]
9E7B  0EC68504           [166] gettable   24  9   23 
9E7F  24C6430C           [167] self       24  24  271  ; -1923578185
9E83  99C60C00           [168] loadk      26  51       ; "Enable"
9E87  22468001           [169] call       24  3   1  
9E8B  1485FE7F           [170] forloop    20  -5       ; to [166] if loop
9E8F  1D060200           [171] getglobal  24  8        ; gGameRules
9E93  2446450C           [172] self       24  24  277  ; -317790213
9E97  93068002           [173] getupval   26  5      
9E9B  D9460300           [174] loadk      27  13       ; 0
9E9F  22860002           [175] call       24  4   2  
9EA3  4A068004           [176] len        25  9      
9EA7  0346060C           [177] add        24  24  25 
9EAB  64464B02           [178] self       25  4   301  ; -803877924
9EAF  D3068002           [179] getupval   27  5      
9EB3  1207000C           [180] move       28  24     
9EB7  62460002           [181] call       25  4   1  
9EBB  5D860400           [182] getglobal  25  18       ; 1074689893
9EBF  9D060000           [183] getglobal  26  0        ; _T
9EC3  8E86450D           [184] gettable   26  26  278  ; "AddHudTracker"
9EC7  62860001           [185] call       25  2   2  
9ECB  58060000           [186] test       25      0    ; to [188] if true
9ECF  1AC00080           [187] jmp        4            ; to [192]
9ED3  5D460400           [188] getglobal  25  17       ; 538022378
9ED7  99460300           [189] loadk      26  13       ; 0
9EDB  62460001           [190] call       25  2   1  
9EDF  1A40FD7F           [191] jmp        -10          ; to [182]
9EE3  5D060000           [192] getglobal  25  0        ; _T
9EE7  4E46C00C           [193] gettable   25  25  257  ; "IntelKill"
fail op	35
9EEB  23C0C70C           [194] close      0  
9EEF  1A000080           [195] jmp        1            ; to [197]
9EF3  1E008000           [196] return     0   1      
9EF7  64464502           [197] self       25  4   277  ; -317790213
9EFB  D3068000           [198] getupval   27  1      
9EFF  19870B00           [199] loadk      28  46       ; 0
9F03  62860002           [200] call       25  4   2  
9F07  9D860400           [201] getglobal  26  18       ; 1074689893
9F0B  D3068001           [202] getupval   27  3      
9F0F  A2860001           [203] call       26  2   2  
9F13  98060000           [204] test       26      0    ; to [206] if true
9F17  1A800380           [205] jmp        15           ; to [221]
9F1B  9D060000           [206] getglobal  26  0        ; _T
9F1F  8EC6450D           [207] gettable   26  26  279  ; 972116663
9F23  D9060600           [208] loadk      27  24       ; "TAProgressBar"
9F27  13070002           [209] getupval   28  4      
9F2B  0E47460E           [210] gettable   28  28  281  ; "HT_PROGRESS_BAR"
9F2F  59870600           [211] loadk      29  26       ; -51
9F33  A2860002           [212] call       26  4   2  
fail op	8
9F37  88068001           [213] setupval   26  3      
9F3B  93068001           [214] getupval   26  3      
9F3F  8EC6460D           [215] gettable   26  26  283  ; -440008155
9F43  DD060700           [216] getglobal  27  28       ; _G
9F47  CE46C70D           [217] gettable   27  27  285  ; "UIColor_DarkBlue"
9F4B  A2460001           [218] call       26  2   1  
9F4F  9D060000           [219] getglobal  26  0        ; _T
9F53  8CC6478F           [220] settable   26  286 287  ; "HasTAProgressBar" 1
9F57  93068001           [221] getupval   26  3      
9F5B  8E06480D           [222] gettable   26  26  288  ; 934616952
9F5F  D9460800           [223] loadk      27  33       ; ""
9F63  A2460001           [224] call       26  2   1  
9F67  93068001           [225] getupval   26  3      
9F6B  8E86480D           [226] gettable   26  26  290  ; -1455793363
9F6F  D3068001           [227] getupval   27  3      
9F73  CEC6C40D           [228] gettable   27  27  275  ; -421772368
9F77  19070500           [229] loadk      28  20       ; "/Lotus/Language/Game/DataTerminalCount"
9F7B  57070000           [230] loadbool   29  0   0    ; false
9F7F  E2868001           [231] call       27  3   2  
9F83  19070D00           [232] loadk      28  52       ; " "
9F87  5D070A00           [233] getglobal  29  40       ; -1615931716
9F8B  9D470D00           [234] getglobal  30  53       ; math
9F8F  8E874D0F           [235] gettable   30  30  310  ; -150971781
9F93  D207800C           [236] move       31  25     
9F97  A2070001           [237] call       30  2   0  
9F9B  62870000           [238] call       29  0   2  
9F9F  C246870D           [239] concat     27  27  29 
9FA3  A2460001           [240] call       26  2   1  
9FA7  93068001           [241] getupval   26  3      
9FAB  8E06490D           [242] gettable   26  26  292  ; 1731445362
9FAF  D9460900           [243] loadk      27  37       ; 0
9FB3  A2460001           [244] call       26  2   1  
fail op	33
9FB7  2140C30C           [245] tforloop   0       269  ; to [247] if exit
9FBB  1A000080           [246] jmp        1            ; to [248]
9FBF  1AC00080           [247] jmp        4            ; to [252]
9FC3  9D460400           [248] getglobal  26  17       ; 538022378
9FC7  D9C60D00           [249] loadk      27  55       ; -51
9FCB  A2460001           [250] call       26  2   1  
9FCF  1AC0F07F           [251] jmp        -60          ; to [192]
9FD3  93060003           [252] getupval   26  6      
9FD7  A2868000           [253] call       26  1   2  
9FDB  DD060E00           [254] getglobal  27  56       ; objRemoveScript
9FDF  E4C6C30D           [255] self       27  27  271  ; -1923578185
9FE3  59470E00           [256] loadk      29  57       ; "Execute"
9FE7  E2468001           [257] call       27  3   1  
fail op	35
9FEB  2380400D           [258] close      0  
9FEF  1AC00780           [259] jmp        32           ; to [292]
9FF3  DDC60000           [260] getglobal  27  3        ; gRegion
9FF7  E406C10D           [261] self       27  27  260  ; -774964848
9FFB  E2860001           [262] call       27  2   2  
9FFF  2447C10D           [263] self       28  27  261  ; 537471347
A003  22870001           [264] call       28  2   2  
A007  53070000           [265] getupval   29  0      
A00B  4E87C10E           [266] gettable   29  29  262  ; 198248041
A00F  62878000           [267] call       29  1   2  
A013  A4474B02           [268] self       30  4   301  ; -803877924
A017  13088000           [269] getupval   32  1      
A01B  53080001           [270] getupval   33  2      
A01F  A2470002           [271] call       30  4   1  
A023  9D870400           [272] getglobal  30  18       ; 1074689893
A027  D207000E           [273] move       31  28     
A02B  A2870001           [274] call       30  2   2  
A02F  98470000           [275] test       30      1    ; to [277] if false
A033  1A800280           [276] jmp        11           ; to [288]
A037  A4474202           [277] self       30  4   265  ; 2051260977
A03B  17088000           [278] loadbool   32  1   0    ; true
A03F  A2478001           [279] call       30  3   1  
A043  9D870400           [280] getglobal  30  18       ; 1074689893
A047  D207800E           [281] move       31  29     
A04B  A2870001           [282] call       30  2   2  
A04F  98470000           [283] test       30      1    ; to [285] if false
A053  1A800080           [284] jmp        3            ; to [288]
A057  A4C7410E           [285] self       30  28  263  ; -906150570
A05B  1208800E           [286] move       32  29     
A05F  A2478001           [287] call       30  3   1  
A063  9D870E00           [288] getglobal  30  58       ; completeObjScript
A067  A4C7430F           [289] self       30  30  271  ; -1923578185
A06B  19480E00           [290] loadk      32  57       ; "Execute"
A06F  A2478001           [291] call       30  3   1  
A073  1E008000           [292] return     0   1      
                         * constants:
A077  3B                 sizek (59)
A078  04                 const type 4
A079  03                 string size (3)
A07A  5F5400             "_T\0"
                         const [0]: "_T"
A07D  04                 const type 4
A07E  0A                 string size (10)
A07F  496E74656C4B696C+  "IntelKil"
A087  6C00               "l\0"
                         const [1]: "IntelKill"
A089  01                 const type 3
A08A  00000000           const [2]: (0)
A08E  04                 const type 4
A08F  08                 string size (8)
A090  67526567696F6E00   "gRegion\0"
                         const [3]: "gRegion"
A098  01                 const type 3
A099  90F9CED1           const [4]: (-774964848)
A09D  01                 const type 3
A09E  73290920           const [5]: (537471347)
A0A2  01                 const type 3
A0A3  6906D10B           const [6]: (198248041)
A0A7  01                 const type 3
A0A8  563DFDC9           const [7]: (-906150570)
A0AC  04                 const type 4
A0AD  0B                 string size (11)
A0AE  6747616D6552756C+  "gGameRul"
A0B6  657300             "es\0"
                         const [8]: "gGameRules"
A0B9  01                 const type 3
A0BA  31C2437A           const [9]: (2051260977)
A0BE  01                 const type 3
A0BF  12066FA7           const [10]: (-1485896174)
A0C3  01                 const type 3
A0C4  1A4B27EC           const [11]: (-332969190)
A0C8  04                 const type 4
A0C9  0D                 string size (13)
A0CA  426F7373446F6F72+  "BossDoor"
A0D2  48696E7400         "Hint\0"
                         const [12]: "BossDoorHint"
A0D7  03                 const type 3
A0D8  00000000           const [13]: (0)
A0DC  03                 const type 3
A0DD  0000803F           const [14]: (0)
A0E1  01                 const type 3
A0E2  B786588D           const [15]: (-1923578185)
A0E6  04                 const type 4
A0E7  07                 string size (7)
A0E8  556E6C6F636B00     "Unlock\0"
                         const [16]: "Unlock"
A0EF  01                 const type 3
A0F0  EA911120           const [17]: (538022378)
A0F4  01                 const type 3
A0F5  65770E40           const [18]: (1074689893)
A0F9  01                 const type 3
A0FA  B043DCE6           const [19]: (-421772368)
A0FE  04                 const type 4
A0FF  27                 string size (39)
A100  2F4C6F7475732F4C+  "/Lotus/L"
A108  616E67756167652F+  "anguage/"
A110  47616D652F446174+  "Game/Dat"
A118  615465726D696E61+  "aTermina"
A120  6C436F756E7400     "lCount\0"
                         const [20]: "/Lotus/Language/Game/DataTerminalCount"
A127  01                 const type 3
A128  FBE70EED           const [21]: (-317790213)
A12C  04                 const type 4
A12D  0E                 string size (14)
A12E  4164644875645472+  "AddHudTr"
A136  61636B657200       "acker\0"
                         const [22]: "AddHudTracker"
A13C  01                 const type 3
A13D  B752F139           const [23]: (972116663)
A141  04                 const type 4
A142  0E                 string size (14)
A143  544150726F677265+  "TAProgre"
A14B  737342617200       "ssBar\0"
                         const [24]: "TAProgressBar"
A151  04                 const type 4
A152  10                 string size (16)
A153  48545F50524F4752+  "HT_PROGR"
A15B  4553535F42415200   "ESS_BAR\0"
                         const [25]: "HT_PROGRESS_BAR"
A163  03                 const type 3
A164  CDCC4C3E           const [26]: (-51)
A168  01                 const type 3
A169  2502C6E5           const [27]: (-440008155)
A16D  04                 const type 4
A16E  03                 string size (3)
A16F  5F4700             "_G\0"
                         const [28]: "_G"
A172  04                 const type 4
A173  11                 string size (17)
A174  5549436F6C6F725F+  "UIColor_"
A17C  4461726B426C7565+  "DarkBlue"
A184  00                 "\0"
                         const [29]: "UIColor_DarkBlue"
A185  04                 const type 4
A186  11                 string size (17)
A187  486173544150726F+  "HasTAPro"
A18F  6772657373426172+  "gressBar"
A197  00                 "\0"
                         const [30]: "HasTAProgressBar"
A198  01                 const type 3
A199  01000000           const [31]: (1)
A19D  01                 const type 3
A19E  781FB537           const [32]: (934616952)
A1A2  04                 const type 4
A1A3  01                 string size (0)
                         const [33]: ""
A1A5  01                 const type 3
A1A6  2D5B3AA9           const [34]: (-1455793363)
A1AA  04                 const type 4
A1AB  04                 string size (4)
A1AC  20203000           "  0\0"
                         const [35]: "  0"
A1B0  01                 const type 3
A1B1  72C23367           const [36]: (1731445362)
A1B5  03                 const type 3
A1B6  000080BF           const [37]: (0)
A1BA  01                 const type 3
A1BB  6B25B193           const [38]: (-1817107093)
A1BF  04                 const type 4
A1C0  25                 string size (37)
A1C1  496E74656C436F75+  "IntelCou"
A1C9  6E746572202D2069+  "nter - i"
A1D1  6E74656C20706F69+  "ntel poi"
A1D9  6E7473206265666F+  "nts befo"
A1E1  72653A2000         "re: \0"
                         const [39]: "IntelCounter - intel points before: "
A1E6  01                 const type 3
A1E7  BCD6AE9F           const [40]: (-1615931716)
A1EB  01                 const type 3
A1EC  0A698BF5           const [41]: (-175412982)
A1F0  04                 const type 4
A1F1  0E                 string size (14)
A1F2  496E74656C537461+  "IntelSta"
A1FA  74696F6E7300       "tions\0"
                         const [42]: "IntelStations"
A200  04                 const type 4
A201  13                 string size (19)
A202  6D696E4469737446+  "minDistF"
A20A  726F6D506C617965+  "romPlaye"
A212  727300             "rs\0"
                         const [43]: "minDistFromPlayers"
A215  04                 const type 4
A216  13                 string size (19)
A217  6D61784469737446+  "maxDistF"
A21F  726F6D506C617965+  "romPlaye"
A227  727300             "rs\0"
                         const [44]: "maxDistFromPlayers"
A22A  01                 const type 3
A22B  DCCB15D0           const [45]: (-803877924)
A22F  03                 const type 3
A230  00008040           const [46]: (0)
A234  04                 const type 4
A235  06                 string size (6)
A236  7461626C6500       "table\0"
                         const [47]: "table"
A23C  01                 const type 3
A23D  9D0C45E6           const [48]: (-431682403)
A241  01                 const type 3
A242  7DB5D47F           const [49]: (2144646525)
A246  01                 const type 3
A247  5EFDB1CD           const [50]: (-843973282)
A24B  04                 const type 4
A24C  07                 string size (7)
A24D  456E61626C6500     "Enable\0"
                         const [51]: "Enable"
A254  04                 const type 4
A255  02                 string size (2)
A256  2000               " \0"
                         const [52]: " "
A258  04                 const type 4
A259  05                 string size (5)
A25A  6D61746800         "math\0"
                         const [53]: "math"
A25F  01                 const type 3
A260  7B5A00F7           const [54]: (-150971781)
A264  03                 const type 3
A265  CDCCCC3D           const [55]: (-51)
A269  04                 const type 4
A26A  10                 string size (16)
A26B  6F626A52656D6F76+  "objRemov"
A273  6553637269707400   "eScript\0"
                         const [56]: "objRemoveScript"
A27B  04                 const type 4
A27C  08                 string size (8)
A27D  4578656375746500   "Execute\0"
                         const [57]: "Execute"
A285  04                 const type 4
A286  12                 string size (18)
A287  636F6D706C657465+  "complete"
A28F  4F626A5363726970+  "ObjScrip"
A297  7400               "t\0"
                         const [58]: "completeObjScript"
                         * functions:
A299  00                 sizep (0)
                         * lines:
A29B  02                 sizelineinfo (292)
                         [pc] (line)
A29C  D7                 [001] (-41)
A29D  06                 [002] (-41)
A29E  00                 [003] (-40)
A29F  00                 [004] (-40)
A2A0  D7                 [005] (-40)
A2A1  06                 [006] (-39)
A2A2  00                 [007] (-39)
A2A3  00                 [008] (-35)
A2A4  D8                 [009] (-35)
A2A5  06                 [010] (-35)
A2A6  00                 [011] (-34)
A2A7  00                 [012] (-34)
A2A8  D8                 [013] (-34)
A2A9  06                 [014] (-33)
A2AA  00                 [015] (-33)
A2AB  00                 [016] (-33)
A2AC  D8                 [017] (-33)
A2AD  06                 [018] (-33)
A2AE  00                 [019] (-32)
A2AF  00                 [020] (-32)
A2B0  D9                 [021] (-32)
A2B1  06                 [022] (-32)
A2B2  00                 [023] (-32)
A2B3  00                 [024] (-32)
A2B4  D9                 [025] (-31)
A2B5  06                 [026] (-31)
A2B6  00                 [027] (-31)
A2B7  00                 [028] (-30)
A2B8  DD                 [029] (-30)
A2B9  06                 [030] (-30)
A2BA  00                 [031] (-30)
A2BB  00                 [032] (-27)
A2BC  DD                 [033] (-27)
A2BD  06                 [034] (-27)
A2BE  00                 [035] (-25)
A2BF  00                 [036] (-24)
A2C0  DD                 [037] (-24)
A2C1  06                 [038] (-24)
A2C2  00                 [039] (-24)
A2C3  00                 [040] (-24)
A2C4  DE                 [041] (-23)
A2C5  06                 [042] (-20)
A2C6  00                 [043] (-19)
A2C7  00                 [044] (-19)
A2C8  DE                 [045] (-19)
A2C9  06                 [046] (-19)
A2CA  00                 [047] (-18)
A2CB  00                 [048] (-18)
A2CC  DE                 [049] (-18)
A2CD  06                 [050] (-18)
A2CE  00                 [051] (-16)
A2CF  00                 [052] (-16)
A2D0  DF                 [053] (-16)
A2D1  06                 [054] (-15)
A2D2  00                 [055] (-15)
A2D3  00                 [056] (-15)
A2D4  DF                 [057] (-15)
A2D5  06                 [058] (-15)
A2D6  00                 [059] (-15)
A2D7  00                 [060] (-14)
A2D8  DF                 [061] (-14)
A2D9  06                 [062] (-14)
A2DA  00                 [063] (-14)
A2DB  00                 [064] (-12)
A2DC  DF                 [065] (-12)
A2DD  06                 [066] (-12)
A2DE  00                 [067] (-12)
A2DF  00                 [068] (-12)
A2E0  DF                 [069] (-11)
A2E1  06                 [070] (-11)
A2E2  00                 [071] (-11)
A2E3  00                 [072] (-11)
A2E4  E0                 [073] (-11)
A2E5  06                 [074] (-11)
A2E6  00                 [075] (-11)
A2E7  00                 [076] (-11)
A2E8  E0                 [077] (-10)
A2E9  06                 [078] (-10)
A2EA  00                 [079] (-10)
A2EB  00                 [080] (-10)
A2EC  E0                 [081] (-10)
A2ED  06                 [082] (-9)
A2EE  00                 [083] (-9)
A2EF  00                 [084] (-7)
A2F0  E0                 [085] (-7)
A2F1  06                 [086] (-7)
A2F2  00                 [087] (-7)
A2F3  00                 [088] (-6)
A2F4  E0                 [089] (-6)
A2F5  06                 [090] (-6)
A2F6  00                 [091] (-6)
A2F7  00                 [092] (-6)
A2F8  E0                 [093] (-6)
A2F9  06                 [094] (-6)
A2FA  00                 [095] (-6)
A2FB  00                 [096] (-6)
A2FC  E1                 [097] (-5)
A2FD  06                 [098] (-5)
A2FE  00                 [099] (-5)
A2FF  00                 [100] (-5)
A300  E1                 [101] (-3)
A301  06                 [102] (0)
A302  00                 [103] (0)
A303  00                 [104] (0)
A304  E1                 [105] (0)
A305  06                 [106] (0)
A306  00                 [107] (0)
A307  00                 [108] (0)
A308  E2                 [109] (5)
A309  06                 [110] (5)
A30A  00                 [111] (6)
A30B  00                 [112] (6)
A30C  E2                 [113] (6)
A30D  06                 [114] (6)
A30E  00                 [115] (6)
A30F  00                 [116] (6)
A310  E2                 [117] (6)
A311  06                 [118] (7)
A312  00                 [119] (7)
A313  00                 [120] (7)
A314  E2                 [121] (7)
A315  06                 [122] (9)
A316  00                 [123] (11)
A317  00                 [124] (12)
A318  E5                 [125] (12)
A319  06                 [126] (12)
A31A  00                 [127] (13)
A31B  00                 [128] (14)
A31C  E5                 [129] (14)
A31D  06                 [130] (14)
A31E  00                 [131] (14)
A31F  00                 [132] (15)
A320  E5                 [133] (15)
A321  06                 [134] (15)
A322  00                 [135] (15)
A323  00                 [136] (15)
A324  E7                 [137] (14)
A325  06                 [138] (17)
A326  00                 [139] (19)
A327  00                 [140] (19)
A328  E8                 [141] (19)
A329  06                 [142] (19)
A32A  00                 [143] (20)
A32B  00                 [144] (20)
A32C  E8                 [145] (20)
A32D  06                 [146] (20)
A32E  00                 [147] (21)
A32F  00                 [148] (21)
A330  E8                 [149] (21)
A331  06                 [150] (21)
A332  00                 [151] (21)
A333  00                 [152] (22)
A334  E8                 [153] (22)
A335  06                 [154] (22)
A336  00                 [155] (22)
A337  00                 [156] (22)
A338  E8                 [157] (19)
A339  06                 [158] (26)
A33A  00                 [159] (26)
A33B  00                 [160] (26)
A33C  E9                 [161] (26)
A33D  06                 [162] (28)
A33E  00                 [163] (28)
A33F  00                 [164] (28)
A340  EC                 [165] (28)
A341  06                 [166] (29)
A342  00                 [167] (29)
A343  00                 [168] (29)
A344  ED                 [169] (29)
A345  06                 [170] (28)
A346  00                 [171] (34)
A347  00                 [172] (34)
A348  ED                 [173] (34)
A349  06                 [174] (34)
A34A  00                 [175] (34)
A34B  00                 [176] (35)
A34C  ED                 [177] (35)
A34D  06                 [178] (36)
A34E  00                 [179] (36)
A34F  00                 [180] (36)
A350  ED                 [181] (36)
A351  06                 [182] (40)
A352  00                 [183] (40)
A353  00                 [184] (40)
A354  EE                 [185] (40)
A355  06                 [186] (40)
A356  00                 [187] (40)
A357  00                 [188] (41)
A358  EE                 [189] (41)
A359  06                 [190] (41)
A35A  00                 [191] (41)
A35B  00                 [192] (44)
A35C  EE                 [193] (44)
A35D  06                 [194] (44)
A35E  00                 [195] (44)
A35F  00                 [196] (45)
A360  EE                 [197] (48)
A361  06                 [198] (48)
A362  00                 [199] (48)
A363  00                 [200] (48)
A364  F0                 [201] (50)
A365  06                 [202] (50)
A366  00                 [203] (50)
A367  00                 [204] (50)
A368  F0                 [205] (50)
A369  06                 [206] (51)
A36A  00                 [207] (51)
A36B  00                 [208] (51)
A36C  F0                 [209] (51)
A36D  06                 [210] (51)
A36E  00                 [211] (51)
A36F  00                 [212] (51)
A370  F1                 [213] (51)
A371  06                 [214] (52)
A372  00                 [215] (52)
A373  00                 [216] (52)
A374  F1                 [217] (52)
A375  06                 [218] (52)
A376  00                 [219] (53)
A377  00                 [220] (53)
A378  F1                 [221] (55)
A379  06                 [222] (55)
A37A  00                 [223] (55)
A37B  00                 [224] (55)
A37C  F1                 [225] (56)
A37D  06                 [226] (56)
A37E  00                 [227] (56)
A37F  00                 [228] (56)
A380  F1                 [229] (56)
A381  06                 [230] (56)
A382  00                 [231] (56)
A383  00                 [232] (56)
A384  F1                 [233] (56)
A385  06                 [234] (56)
A386  00                 [235] (56)
A387  00                 [236] (56)
A388  F2                 [237] (56)
A389  06                 [238] (56)
A38A  00                 [239] (56)
A38B  00                 [240] (56)
A38C  F2                 [241] (57)
A38D  06                 [242] (57)
A38E  00                 [243] (57)
A38F  00                 [244] (57)
A390  F2                 [245] (59)
A391  06                 [246] (59)
A392  00                 [247] (60)
A393  00                 [248] (62)
A394  F2                 [249] (62)
A395  06                 [250] (62)
A396  00                 [251] (62)
A397  00                 [252] (64)
A398  F4                 [253] (64)
A399  06                 [254] (65)
A39A  00                 [255] (65)
A39B  00                 [256] (65)
A39C  F4                 [257] (65)
A39D  06                 [258] (66)
A39E  00                 [259] (66)
A39F  00                 [260] (67)
A3A0  F4                 [261] (67)
A3A1  06                 [262] (67)
A3A2  00                 [263] (68)
A3A3  00                 [264] (68)
A3A4  F4                 [265] (69)
A3A5  06                 [266] (69)
A3A6  00                 [267] (69)
A3A7  00                 [268] (70)
A3A8  F4                 [269] (70)
A3A9  06                 [270] (70)
A3AA  00                 [271] (70)
A3AB  00                 [272] (71)
A3AC  F5                 [273] (71)
A3AD  06                 [274] (71)
A3AE  00                 [275] (71)
A3AF  00                 [276] (71)
A3B0  F5                 [277] (72)
A3B1  06                 [278] (72)
A3B2  00                 [279] (72)
A3B3  00                 [280] (73)
A3B4  F5                 [281] (73)
A3B5  06                 [282] (73)
A3B6  00                 [283] (73)
A3B7  00                 [284] (73)
A3B8  F5                 [285] (74)
A3B9  06                 [286] (74)
A3BA  00                 [287] (74)
A3BB  00                 [288] (77)
A3BC  F5                 [289] (77)
A3BD  06                 [290] (77)
A3BE  00                 [291] (77)
A3BF  00                 [292] (79)
                         * locals:
A72C  00                 sizelocvars (0)
                         * upvalues:
A72D  00                 sizeupvalues (0)
                         ** end of function **

                         
A72E                     ** function [32] definition (level 2)
                         ** start of function **
A72E  00                 string size (0)
                         source name: (none)
A730  0E                 line defined (1873)
A731  FC                 last line defined (1916)
A732  0E                 nups (1)
A733  01                 numparams (0)
A734  00                 is_vararg (0)
A735  00                 maxstacksize (12)
                         * code:
A737  5A                 sizecode (90)
A738  1D000000           [01] getglobal  0   0        ; gRegion
A73C  24404000           [02] self       0   0   257  ; -1485896174
A740  9D800000           [03] getglobal  2   2        ; -332969190
A744  D9C00000           [04] loadk      3   3        ; "dSpawn"
A748  A2000001           [05] call       2   2   0  
A74C  22800000           [06] call       0   0   2  
A750  4E404100           [07] gettable   1   0   261  ; 0
A754  60000100           [08] setglobal  1   4        ; spawncontrol
A758  5D000100           [09] getglobal  1   4        ; spawncontrol
A75C  6480C100           [10] self       1   1   262  ; 803365678
A760  62800001           [11] call       1   2   2  
A764  8E40C100           [12] gettable   2   1   261  ; 0
A768  D7000000           [13] loadbool   3   0   0    ; false
A76C  1DC10100           [14] getglobal  4   7        ; gPromotedToHost
A770  18010000           [15] test       4       0    ; to [17] if true
A774  1A000780           [16] jmp        29           ; to [46]
A778  19010200           [17] loadk      4   8        ; 0
A77C  59410200           [18] loadk      5   9        ; 0
A780  A4814201           [19] self       6   2   266  ; 2022702902
A784  A2810001           [20] call       6   2   2  
A788  DDC10200           [21] getglobal  7   11       ; 1074689893
A78C  12020003           [22] move       8   6      
A790  E2810001           [23] call       7   2   2  
A794  D8010000           [24] test       7       0    ; to [26] if true
A798  1A400280           [25] jmp        10           ; to [36]
fail op	21
A79C  15400102           [26] concat     0   4   5  
A7A0  1AC00180           [27] jmp        8            ; to [36]
A7A4  E4814201           [28] self       7   2   266  ; 2022702902
A7A8  E2810001           [29] call       7   2   2  
A7AC  92018003           [30] move       6   7      
A7B0  DD010300           [31] getglobal  7   12       ; 538022378
A7B4  19020200           [32] loadk      8   8        ; 0
A7B8  E2410001           [33] call       7   2   1  
A7BC  03414102           [34] add        4   4   261  ; 0
A7C0  1A00FC7F           [35] jmp        -15          ; to [21]
A7C4  DDC10200           [36] getglobal  7   11       ; 1074689893
A7C8  12020003           [37] move       8   6      
A7CC  E2810001           [38] call       7   2   2  
A7D0  D8410000           [39] test       7       1    ; to [41] if false
A7D4  1A400080           [40] jmp        2            ; to [43]
A7D8  D7008000           [41] loadbool   3   1   0    ; true
A7DC  1A800080           [42] jmp        3            ; to [46]
A7E0  DD410300           [43] getglobal  7   13       ; -1817107093
A7E4  19820300           [44] loadk      8   14       ; "*** FATAL MIGRATION ERROR -- could not find defense agent!"
A7E8  E2410001           [45] call       7   2   1  
A7EC  D8400000           [46] test       3       1    ; to [48] if false
A7F0  1A800180           [47] jmp        7            ; to [55]
A7F4  DD010100           [48] getglobal  7   4        ; spawncontrol
A7F8  E4C1C303           [49] self       7   7   271  ; 117988024
A7FC  5D020400           [50] getglobal  9   16       ; defenseSpawnType
A800  E2418001           [51] call       7   3   1  
A804  DD010100           [52] getglobal  7   4        ; spawncontrol
A808  E441C403           [53] self       7   7   273  ; -1139739557
A80C  E2410001           [54] call       7   2   1  
A810  E4814201           [55] self       7   2   266  ; 2022702902
A814  E2810001           [56] call       7   2   2  
A818  1D820400           [57] getglobal  8   18       ; gGameRules
A81C  24C24404           [58] self       8   8   275  ; 2035260829
A820  92028003           [59] move       10  7      
A824  22428001           [60] call       8   3   1  
A828  1D020500           [61] getglobal  8   20       ; _T
A82C  0E424504           [62] gettable   8   8   277  ; 972116663
A830  59820500           [63] loadk      9   22       ; "TADefenseTracker"
A834  93020000           [64] getupval   10  0      
A838  8EC24505           [65] gettable   10  10  279  ; "HT_HEALTH_TRACKER"
A83C  D9020600           [66] loadk      11  24       ; 0
A840  22820002           [67] call       8   4   2  
A844  4E424604           [68] gettable   9   8   281  ; 171649145
A848  92028003           [69] move       10  7      
A84C  62420001           [70] call       9   2   1  
A850  4E824604           [71] gettable   9   8   282  ; -1532099522
A854  99C20600           [72] loadk      10  27       ; 0
A858  62420001           [73] call       9   2   1  
A85C  4E024704           [74] gettable   9   8   284  ; -290006412
A860  97028000           [75] loadbool   10  1   0    ; true
A864  62420001           [76] call       9   2   1  
A868  6442C703           [77] self       9   7   285  ; 796523475
A86C  62820001           [78] call       9   2   2  
fail op	21
A870  15400284           [79] concat     0   264 9  
A874  1AC00080           [80] jmp        4            ; to [85]
A878  5D020300           [81] getglobal  9   12       ; 538022378
A87C  99020200           [82] loadk      10  8        ; 0
A880  62420001           [83] call       9   2   1  
A884  1AC0FD7F           [84] jmp        -8           ; to [77]
A888  5D820400           [85] getglobal  9   18       ; gGameRules
A88C  6482C704           [86] self       9   9   286  ; -34409044
A890  DDC20700           [87] getglobal  11  31       ; Engine
A894  CE02C805           [88] gettable   11  11  288  ; "GameRules_GS_FAILURE"
A898  62428001           [89] call       9   3   1  
A89C  1E008000           [90] return     0   1      
                         * constants:
A8A0  21                 sizek (33)
A8A1  04                 const type 4
A8A2  08                 string size (8)
A8A3  67526567696F6E00   "gRegion\0"
                         const [0]: "gRegion"
A8AB  01                 const type 3
A8AC  12066FA7           const [1]: (-1485896174)
A8B0  01                 const type 3
A8B1  1A4B27EC           const [2]: (-332969190)
A8B5  04                 const type 4
A8B6  07                 string size (7)
A8B7  64537061776E00     "dSpawn\0"
                         const [3]: "dSpawn"
A8BE  04                 const type 4
A8BF  0D                 string size (13)
A8C0  737061776E636F6E+  "spawncon"
A8C8  74726F6C00         "trol\0"
                         const [4]: "spawncontrol"
A8CD  03                 const type 3
A8CE  0000803F           const [5]: (0)
A8D2  01                 const type 3
A8D3  2E63E22F           const [6]: (803365678)
A8D7  04                 const type 4
A8D8  10                 string size (16)
A8D9  6750726F6D6F7465+  "gPromote"
A8E1  64546F486F737400   "dToHost\0"
                         const [7]: "gPromotedToHost"
A8E9  03                 const type 3
A8EA  00000000           const [8]: (0)
A8EE  03                 const type 3
A8EF  0000F041           const [9]: (0)
A8F3  01                 const type 3
A8F4  36FF8F78           const [10]: (2022702902)
A8F8  01                 const type 3
A8F9  65770E40           const [11]: (1074689893)
A8FD  01                 const type 3
A8FE  EA911120           const [12]: (538022378)
A902  01                 const type 3
A903  6B25B193           const [13]: (-1817107093)
A907  04                 const type 4
A908  3B                 string size (59)
A909  2A2A2A2046415441+  "*** FATA"
A911  4C204D4947524154+  "L MIGRAT"
A919  494F4E204552524F+  "ION ERRO"
A921  52202D2D20636F75+  "R -- cou"
A929  6C64206E6F742066+  "ld not f"
A931  696E642064656665+  "ind defe"
A939  6E7365206167656E+  "nse agen"
A941  742100             "t!\0"
                         const [14]: "*** FATAL MIGRATION ERROR -- could not find defense agent!"
A944  01                 const type 3
A945  B85A0807           const [15]: (117988024)
A949  04                 const type 4
A94A  11                 string size (17)
A94B  646566656E736553+  "defenseS"
A953  7061776E54797065+  "pawnType"
A95B  00                 "\0"
                         const [16]: "defenseSpawnType"
A95C  01                 const type 3
A95D  5BF410BC           const [17]: (-1139739557)
A961  04                 const type 4
A962  0B                 string size (11)
A963  6747616D6552756C+  "gGameRul"
A96B  657300             "es\0"
                         const [18]: "gGameRules"
A96E  01                 const type 3
A96F  9D9D4F79           const [19]: (2035260829)
A973  04                 const type 4
A974  03                 string size (3)
A975  5F5400             "_T\0"
                         const [20]: "_T"
A978  01                 const type 3
A979  B752F139           const [21]: (972116663)
A97D  04                 const type 4
A97E  11                 string size (17)
A97F  5441446566656E73+  "TADefens"
A987  65547261636B6572+  "eTracker"
A98F  00                 "\0"
                         const [22]: "TADefenseTracker"
A990  04                 const type 4
A991  12                 string size (18)
A992  48545F4845414C54+  "HT_HEALT"
A99A  485F545241434B45+  "H_TRACKE"
A9A2  5200               "R\0"
                         const [23]: "HT_HEALTH_TRACKER"
A9A4  03                 const type 3
A9A5  0000003F           const [24]: (0)
A9A9  01                 const type 3
A9AA  79283B0A           const [25]: (171649145)
A9AE  01                 const type 3
A9AF  3E04AEA4           const [26]: (-1532099522)
A9B3  03                 const type 3
A9B4  0000A041           const [27]: (0)
A9B8  01                 const type 3
A9B9  74DAB6EE           const [28]: (-290006412)
A9BD  01                 const type 3
A9BE  D3FB792F           const [29]: (796523475)
A9C2  01                 const type 3
A9C3  ACF5F2FD           const [30]: (-34409044)
A9C7  04                 const type 4
A9C8  07                 string size (7)
A9C9  456E67696E6500     "Engine\0"
                         const [31]: "Engine"
A9D0  04                 const type 4
A9D1  15                 string size (21)
A9D2  47616D6552756C65+  "GameRule"
A9DA  735F47535F464149+  "s_GS_FAI"
A9E2  4C55524500         "LURE\0"
                         const [32]: "GameRules_GS_FAILURE"
                         * functions:
A9E7  00                 sizep (0)
                         * lines:
A9E8  5A                 sizelineinfo (90)
                         [pc] (line)
A9E9  52                 [01] (82)
A9EA  07                 [02] (82)
A9EB  00                 [03] (82)
A9EC  00                 [04] (82)
A9ED  52                 [05] (82)
A9EE  07                 [06] (82)
A9EF  00                 [07] (83)
A9F0  00                 [08] (83)
A9F1  52                 [09] (84)
A9F2  07                 [10] (84)
A9F3  00                 [11] (84)
A9F4  00                 [12] (85)
A9F5  52                 [13] (87)
A9F6  07                 [14] (88)
A9F7  00                 [15] (88)
A9F8  00                 [16] (88)
A9F9  52                 [17] (92)
A9FA  07                 [18] (93)
A9FB  00                 [19] (94)
A9FC  00                 [20] (94)
A9FD  52                 [21] (95)
A9FE  07                 [22] (95)
A9FF  00                 [23] (95)
AA00  00                 [24] (95)
AA01  53                 [25] (95)
AA02  07                 [26] (95)
AA03  00                 [27] (95)
AA04  00                 [28] (96)
AA05  53                 [29] (96)
AA06  07                 [30] (96)
AA07  00                 [31] (97)
AA08  00                 [32] (97)
AA09  54                 [33] (97)
AA0A  07                 [34] (98)
AA0B  00                 [35] (98)
AA0C  00                 [36] (101)
AA0D  54                 [37] (101)
AA0E  07                 [38] (101)
AA0F  00                 [39] (101)
AA10  00                 [40] (101)
AA11  54                 [41] (102)
AA12  07                 [42] (102)
AA13  00                 [43] (104)
AA14  00                 [44] (104)
AA15  55                 [45] (104)
AA16  07                 [46] (108)
AA17  00                 [47] (108)
AA18  00                 [48] (109)
AA19  57                 [49] (109)
AA1A  07                 [50] (109)
AA1B  00                 [51] (109)
AA1C  00                 [52] (110)
AA1D  58                 [53] (110)
AA1E  07                 [54] (110)
AA1F  00                 [55] (113)
AA20  00                 [56] (113)
AA21  58                 [57] (114)
AA22  07                 [58] (114)
AA23  00                 [59] (114)
AA24  00                 [60] (114)
AA25  58                 [61] (115)
AA26  07                 [62] (115)
AA27  00                 [63] (115)
AA28  00                 [64] (115)
AA29  5C                 [65] (115)
AA2A  07                 [66] (115)
AA2B  00                 [67] (115)
AA2C  00                 [68] (116)
AA2D  5D                 [69] (116)
AA2E  07                 [70] (116)
AA2F  00                 [71] (117)
AA30  00                 [72] (117)
AA31  5E                 [73] (117)
AA32  07                 [74] (118)
AA33  00                 [75] (118)
AA34  00                 [76] (118)
AA35  5E                 [77] (119)
AA36  07                 [78] (119)
AA37  00                 [79] (119)
AA38  00                 [80] (119)
AA39  5F                 [81] (120)
AA3A  07                 [82] (120)
AA3B  00                 [83] (120)
AA3C  00                 [84] (120)
AA3D  5F                 [85] (122)
AA3E  07                 [86] (122)
AA3F  00                 [87] (122)
AA40  00                 [88] (122)
AA41  5F                 [89] (122)
AA42  07                 [90] (124)
                         * locals:
AB51  00                 sizelocvars (0)
                         * upvalues:
AB52  00                 sizeupvalues (0)
                         ** end of function **

                         
AB53                     ** function [33] definition (level 2)
                         ** start of function **
AB53  00                 string size (0)
                         source name: (none)
AB55  0E                 line defined (1919)
AB56  A7                 last line defined (1959)
AB57  0F                 nups (2)
AB58  02                 numparams (0)
AB59  00                 is_vararg (0)
AB5A  00                 maxstacksize (21)
                         * code:
AB5C  57                 sizecode (87)
AB5D  1D000000           [01] getglobal  0   0        ; gPromotedToHost
AB61  18000000           [02] test       0       0    ; to [4] if true
AB65  1A800180           [03] jmp        7            ; to [11]
AB69  1D400000           [04] getglobal  0   1        ; gGameRules
AB6D  24804000           [05] self       0   0   258  ; -317790213
AB71  93000000           [06] getupval   2   0      
AB75  22808001           [07] call       0   3   2  
fail op	35
AB79  63C04000           [08] close      1  
AB7D  1A000080           [09] jmp        1            ; to [11]
AB81  1E008000           [10] return     0   1      
AB85  0B000000           [11] newtable   0   0   0    ; array=0, hash=0
AB89  5D000100           [12] getglobal  1   4        ; 572299008
AB8D  62808000           [13] call       1   1   2  
AB91  9D400000           [14] getglobal  2   1        ; gGameRules
AB95  A4804001           [15] self       2   2   258  ; -317790213
AB99  13018000           [16] getupval   4   1      
AB9D  A2808001           [17] call       2   3   2  
fail op	35
ABA1  23404101           [18] close      0  
ABA5  1AC00380           [19] jmp        16           ; to [36]
ABA9  9D800100           [20] getglobal  2   6        ; gRegion
ABAD  A4C04101           [21] self       2   2   263  ; -2071158816
ABB1  A2800001           [22] call       2   2   2  
ABB5  DD000200           [23] getglobal  3   8        ; 2144646525
ABB9  19410100           [24] loadk      4   5        ; 0
ABBD  4A010001           [25] len        5   2      
ABC1  E2808001           [26] call       3   3   2  
ABC5  CEC00001           [27] gettable   3   2   3  
ABC9  0B018000           [28] newtable   4   1   0    ; array=1, hash=0
ABCD  52018001           [29] move       5   3      
ABD1  1B418000           [30] setlist    4   1   1    ; index 1 to 1
ABD5  12000002           [31] move       0   4      
ABD9  2441C201           [32] self       4   3   265  ; 1670276879
ABDD  22810001           [33] call       4   2   2  
ABE1  44804202           [34] mul        1   4   266  ; 0
ABE5  1A800180           [35] jmp        7            ; to [43]
ABE9  1D810100           [36] getglobal  4   6        ; gRegion
ABED  24C14202           [37] self       4   4   267  ; -1485896174
ABF1  9D010300           [38] getglobal  6   12       ; -332969190
ABF5  D9410300           [39] loadk      7   13       ; "Bomb"
ABF9  A2010001           [40] call       6   2   0  
ABFD  22810000           [41] call       4   0   2  
AC01  12000002           [42] move       0   4      
AC05  1D410000           [43] getglobal  4   1        ; gGameRules
AC09  24814302           [44] self       4   4   270  ; -803877924
AC0D  93010000           [45] getupval   6   0      
AC11  D9410100           [46] loadk      7   5        ; 0
AC15  22410002           [47] call       4   4   1  
AC19  0A010000           [48] len        4   0      
fail op	21
AC1D  15008181           [49] concat     0   259 4  
AC21  1AC00880           [50] jmp        36           ; to [87]
AC25  0E414100           [51] gettable   4   0   261  ; 0
AC29  64C14302           [52] self       5   4   271  ; 1839670529
AC2D  62810001           [53] call       5   2   2  
AC31  43418002           [54] add        5   5   1  
AC35  A4014402           [55] self       6   4   272  ; -231049143
AC39  A2810001           [56] call       6   2   2  
AC3D  DD810100           [57] getglobal  7   6        ; gRegion
AC41  E441C403           [58] self       7   7   273  ; -774964848
AC45  E2810001           [59] call       7   2   2  
AC49  2482C403           [60] self       8   7   274  ; -682771662
AC4D  92028002           [61] move       10  5      
AC51  D9820200           [62] loadk      11  10       ; 0
AC55  22420002           [63] call       8   4   1  
AC59  1D020100           [64] getglobal  8   4        ; 572299008
AC5D  59C20000           [65] loadk      9   3        ; 0
AC61  99C20400           [66] loadk      10  19       ; 0
AC65  D9C20000           [67] loadk      11  3        ; 0
AC69  22820002           [68] call       8   4   2  
AC6D  52028002           [69] move       9   5      
AC71  86028005           [70] loadnil    10  11     
AC75  17038000           [71] loadbool   12  1   0    ; true
AC79  5D830100           [72] getglobal  13  6        ; gRegion
AC7D  6403C506           [73] self       13  13  276  ; 187283819
AC81  C3038202           [74] add        15  5   8  
AC85  12048002           [75] move       16  5      
AC89  52048005           [76] move       17  11     
AC8D  92040005           [77] move       18  10     
AC91  D2048004           [78] move       19  9      
AC95  12050006           [79] move       20  12     
AC99  62430004           [80] call       13  8   1  
AC9D  5D830100           [81] getglobal  13  6        ; gRegion
ACA1  6443C506           [82] self       13  13  277  ; -1110225722
ACA5  DD830500           [83] getglobal  15  22       ; bombType
ACA9  03048204           [84] add        16  9   8  
ACAD  52040003           [85] move       17  6      
ACB1  62438002           [86] call       13  5   1  
ACB5  1E008000           [87] return     0   1      
                         * constants:
ACB9  17                 sizek (23)
ACBA  04                 const type 4
ACBB  10                 string size (16)
ACBC  6750726F6D6F7465+  "gPromote"
ACC4  64546F486F737400   "dToHost\0"
                         const [0]: "gPromotedToHost"
ACCC  04                 const type 4
ACCD  0B                 string size (11)
ACCE  6747616D6552756C+  "gGameRul"
ACD6  657300             "es\0"
                         const [1]: "gGameRules"
ACD9  01                 const type 3
ACDA  FBE70EED           const [2]: (-317790213)
ACDE  03                 const type 3
ACDF  00000000           const [3]: (0)
ACE3  01                 const type 3
ACE4  00971C22           const [4]: (572299008)
ACE8  03                 const type 3
ACE9  0000803F           const [5]: (0)
ACED  04                 const type 4
ACEE  08                 string size (8)
ACEF  67526567696F6E00   "gRegion\0"
                         const [6]: "gRegion"
ACF7  01                 const type 3
ACF8  E09F8C84           const [7]: (-2071158816)
ACFC  01                 const type 3
ACFD  7DB5D47F           const [8]: (2144646525)
AD01  01                 const type 3
AD02  0F678E63           const [9]: (1670276879)
AD06  03                 const type 3
AD07  00004040           const [10]: (0)
AD0B  01                 const type 3
AD0C  12066FA7           const [11]: (-1485896174)
AD10  01                 const type 3
AD11  1A4B27EC           const [12]: (-332969190)
AD15  04                 const type 4
AD16  05                 string size (5)
AD17  426F6D6200         "Bomb\0"
                         const [13]: "Bomb"
AD1C  01                 const type 3
AD1D  DCCB15D0           const [14]: (-803877924)
AD21  01                 const type 3
AD22  0125A76D           const [15]: (1839670529)
AD26  01                 const type 3
AD27  49783AF2           const [16]: (-231049143)
AD2B  01                 const type 3
AD2C  90F9CED1           const [17]: (-774964848)
AD30  01                 const type 3
AD31  32BB4DD7           const [18]: (-682771662)
AD35  03                 const type 3
AD36  0000003F           const [19]: (0)
AD3A  01                 const type 3
AD3B  6BB9290B           const [20]: (187283819)
AD3F  01                 const type 3
AD40  C64CD3BD           const [21]: (-1110225722)
AD44  04                 const type 4
AD45  09                 string size (9)
AD46  626F6D6254797065+  "bombType"
AD4E  00                 "\0"
                         const [22]: "bombType"
                         * functions:
AD4F  00                 sizep (0)
                         * lines:
AD50  57                 sizelineinfo (87)
                         [pc] (line)
AD51  81                 [01] (-127)
AD52  07                 [02] (-127)
AD53  00                 [03] (-127)
AD54  00                 [04] (-127)
AD55  81                 [05] (-127)
AD56  07                 [06] (-127)
AD57  00                 [07] (-127)
AD58  00                 [08] (-127)
AD59  81                 [09] (-127)
AD5A  07                 [10] (-126)
AD5B  00                 [11] (-123)
AD5C  00                 [12] (-122)
AD5D  81                 [13] (-122)
AD5E  07                 [14] (-120)
AD5F  00                 [15] (-120)
AD60  00                 [16] (-120)
AD61  81                 [17] (-120)
AD62  07                 [18] (-120)
AD63  00                 [19] (-120)
AD64  00                 [20] (-117)
AD65  81                 [21] (-117)
AD66  07                 [22] (-117)
AD67  00                 [23] (-116)
AD68  00                 [24] (-116)
AD69  81                 [25] (-116)
AD6A  07                 [26] (-116)
AD6B  00                 [27] (-116)
AD6C  00                 [28] (-115)
AD6D  81                 [29] (-115)
AD6E  07                 [30] (-115)
AD6F  00                 [31] (-115)
AD70  00                 [32] (-113)
AD71  81                 [33] (-113)
AD72  07                 [34] (-113)
AD73  00                 [35] (-113)
AD74  00                 [36] (-111)
AD75  82                 [37] (-111)
AD76  07                 [38] (-111)
AD77  00                 [39] (-111)
AD78  00                 [40] (-111)
AD79  85                 [41] (-111)
AD7A  07                 [42] (-111)
AD7B  00                 [43] (-108)
AD7C  00                 [44] (-108)
AD7D  86                 [45] (-108)
AD7E  07                 [46] (-108)
AD7F  00                 [47] (-108)
AD80  00                 [48] (-106)
AD81  86                 [49] (-106)
AD82  07                 [50] (-106)
AD83  00                 [51] (-105)
AD84  00                 [52] (-104)
AD85  88                 [53] (-104)
AD86  07                 [54] (-104)
AD87  00                 [55] (-103)
AD88  00                 [56] (-103)
AD89  88                 [57] (-102)
AD8A  07                 [58] (-102)
AD8B  00                 [59] (-102)
AD8C  00                 [60] (-101)
AD8D  88                 [61] (-101)
AD8E  07                 [62] (-101)
AD8F  00                 [63] (-101)
AD90  00                 [64] (-98)
AD91  88                 [65] (-98)
AD92  07                 [66] (-98)
AD93  00                 [67] (-98)
AD94  00                 [68] (-98)
AD95  88                 [69] (-97)
AD96  07                 [70] (-96)
AD97  00                 [71] (-94)
AD98  00                 [72] (-93)
AD99  88                 [73] (-93)
AD9A  07                 [74] (-93)
AD9B  00                 [75] (-93)
AD9C  00                 [76] (-93)
AD9D  8B                 [77] (-93)
AD9E  07                 [78] (-93)
AD9F  00                 [79] (-93)
ADA0  00                 [80] (-93)
ADA1  8B                 [81] (-92)
ADA2  07                 [82] (-92)
ADA3  00                 [83] (-92)
ADA4  00                 [84] (-92)
ADA5  8B                 [85] (-92)
ADA6  07                 [86] (-92)
ADA7  00                 [87] (-89)
                         * locals:
AEAD  00                 sizelocvars (0)
                         * upvalues:
AEAE  00                 sizeupvalues (0)
                         ** end of function **

                         
AEAF                     ** function [34] definition (level 2)
                         ** start of function **
AEAF  00                 string size (0)
                         source name: (none)
AEB1  0F                 line defined (1964)
AEB2  C8                 last line defined (1992)
AEB3  0F                 nups (1)
AEB4  01                 numparams (2)
AEB5  02                 is_vararg (0)
AEB6  00                 maxstacksize (10)
                         * code:
AEB8  19                 sizecode (25)
AEB9  9D000000           [01] getglobal  2   0        ; gGameRules
AEBD  DD400000           [02] getglobal  3   1        ; gRegion
AEC1  E480C001           [03] self       3   3   258  ; -1520831144
AEC5  E2800001           [04] call       3   2   2  
AEC9  D8000000           [05] test       3       0    ; to [7] if true
AECD  1AC00080           [06] jmp        4            ; to [11]
AED1  E4C04001           [07] self       3   2   259  ; -803877924
AED5  53010000           [08] getupval   5   0      
AED9  99010100           [09] loadk      6   4        ; 0
AEDD  E2400002           [10] call       3   4   1  
AEE1  DD400100           [11] getglobal  3   5        ; 1074689893
AEE5  12018000           [12] move       4   1      
AEE9  E2800001           [13] call       3   2   2  
AEED  D8400000           [14] test       3       1    ; to [16] if false
AEF1  1A000280           [15] jmp        9            ; to [25]
AEF5  E480C100           [16] self       3   1   262  ; -2037488534
AEF9  5DC10100           [17] getglobal  5   7        ; activateAnim
AEFD  97010000           [18] loadbool   6   0   0    ; false
AF01  DD010200           [19] getglobal  7   8        ; Engine
AF05  CE41C203           [20] gettable   7   7   265  ; "ATMM_ANIMATION_DRIVEN"
AF09  1D020200           [21] getglobal  8   8        ; Engine
AF0D  0E824204           [22] gettable   8   8   266  ; "PRT_ONCE"
AF11  57028000           [23] loadbool   9   1   0    ; true
AF15  E2408003           [24] call       3   7   1  
AF19  1E008000           [25] return     0   1      
                         * constants:
AF1D  0B                 sizek (11)
AF1E  04                 const type 4
AF1F  0B                 string size (11)
AF20  6747616D6552756C+  "gGameRul"
AF28  657300             "es\0"
                         const [0]: "gGameRules"
AF2B  04                 const type 4
AF2C  08                 string size (8)
AF2D  67526567696F6E00   "gRegion\0"
                         const [1]: "gRegion"
AF35  01                 const type 3
AF36  58F559A5           const [2]: (-1520831144)
AF3A  01                 const type 3
AF3B  DCCB15D0           const [3]: (-803877924)
AF3F  03                 const type 3
AF40  0000803F           const [4]: (0)
AF44  01                 const type 3
AF45  65770E40           const [5]: (1074689893)
AF49  01                 const type 3
AF4A  6A648E86           const [6]: (-2037488534)
AF4E  04                 const type 4
AF4F  0D                 string size (13)
AF50  6163746976617465+  "activate"
AF58  416E696D00         "Anim\0"
                         const [7]: "activateAnim"
AF5D  04                 const type 4
AF5E  07                 string size (7)
AF5F  456E67696E6500     "Engine\0"
                         const [8]: "Engine"
AF66  04                 const type 4
AF67  16                 string size (22)
AF68  41544D4D5F414E49+  "ATMM_ANI"
AF70  4D4154494F4E5F44+  "MATION_D"
AF78  524956454E00       "RIVEN\0"
                         const [9]: "ATMM_ANIMATION_DRIVEN"
AF7E  04                 const type 4
AF7F  09                 string size (9)
AF80  5052545F4F4E4345+  "PRT_ONCE"
AF88  00                 "\0"
                         const [10]: "PRT_ONCE"
                         * functions:
AF89  00                 sizep (0)
                         * lines:
AF8A  19                 sizelineinfo (25)
                         [pc] (line)
AF8B  AD                 [01] (-83)
AF8C  07                 [02] (-82)
AF8D  00                 [03] (-82)
AF8E  00                 [04] (-82)
AF8F  AE                 [05] (-82)
AF90  07                 [06] (-82)
AF91  00                 [07] (-81)
AF92  00                 [08] (-81)
AF93  AE                 [09] (-81)
AF94  07                 [10] (-81)
AF95  00                 [11] (-79)
AF96  00                 [12] (-79)
AF97  AE                 [13] (-79)
AF98  07                 [14] (-79)
AF99  00                 [15] (-79)
AF9A  00                 [16] (-78)
AF9B  AE                 [17] (-78)
AF9C  07                 [18] (-78)
AF9D  00                 [19] (-78)
AF9E  00                 [20] (-78)
AF9F  AE                 [21] (-78)
AFA0  07                 [22] (-78)
AFA1  00                 [23] (-78)
AFA2  00                 [24] (-78)
AFA3  AF                 [25] (-56)
                         * locals:
AFEF  00                 sizelocvars (0)
                         * upvalues:
AFF0  00                 sizeupvalues (0)
                         ** end of function **

                         
AFF1                     ** function [35] definition (level 2)
                         ** start of function **
AFF1  00                 string size (0)
                         source name: (none)
AFF3  0F                 line defined (1994)
AFF4  F4                 last line defined (2036)
AFF5  0F                 nups (0)
AFF6  00                 numparams (0)
AFF7  00                 is_vararg (0)
AFF8  00                 maxstacksize (13)
                         * code:
AFFA  53                 sizecode (83)
AFFB  1D000000           [01] getglobal  0   0        ; _T
AFFF  0C80C080           [02] settable   0   257 258  ; "reactorDestroyed" 0
B003  1D000000           [03] getglobal  0   0        ; _T
B007  0C80C081           [04] settable   0   259 258  ; "reactorVisible" 0
B00B  19000100           [05] loadk      0   4        ; 0
B00F  5D400100           [06] getglobal  1   5        ; gRegion
B013  6480C100           [07] self       1   1   262  ; -1485896174
B017  DDC00100           [08] getglobal  3   7        ; -332969190
B01B  19010200           [09] loadk      4   8        ; "ReactorProng"
B01F  E2000001           [10] call       3   2   0  
B023  62800000           [11] call       1   0   2  
B027  99000100           [12] loadk      2   4        ; 0
B02B  DD400200           [13] getglobal  3   9        ; totalNumCoreProngs
B02F  0A018000           [14] len        4   1      
fail op	21
B033  15C00002           [15] concat     0   4   3  
B037  1AC00080           [16] jmp        4            ; to [21]
B03B  DD400200           [17] getglobal  3   9        ; totalNumCoreProngs
B03F  0A018000           [18] len        4   1      
B043  CD008101           [19] sub        3   3   4  
B047  03C00000           [20] add        0   0   3  
B04B  19810200           [21] loadk      4   10       ; 0
B04F  4A018000           [22] len        5   1      
B053  99810200           [23] loadk      6   10       ; 0
B057  10C10280           [24] forprep    4   12       ; to [37]
B05B  0EC28100           [25] gettable   8   1   7  
B05F  24C24204           [26] self       8   8   267  ; 796523475
B063  22820001           [27] call       8   2   2  
fail op	33
B067  21004104           [28] tforloop   0       260  ; to [30] if exit
B06B  1A000080           [29] jmp        1            ; to [31]
B06F  03804200           [30] add        0   0   266  ; 0
B073  0EC28100           [31] gettable   8   1   7  
B077  24024304           [32] self       8   8   268  ; -1944400657
B07B  22820001           [33] call       8   2   2  
B07F  18020000           [34] test       8       0    ; to [36] if true
B083  1A000080           [35] jmp        1            ; to [37]
B087  83804201           [36] add        2   2   266  ; 0
B08B  1481FC7F           [37] forloop    4   -13      ; to [25] if loop
B08F  1D020000           [38] getglobal  8   0        ; _T
fail op	21
B093  55800082           [39] concat     1   260 2  
B097  1A000080           [40] jmp        1            ; to [42]
B09B  57420000           [41] loadbool   9   0   1    ; false, to [43]
B09F  57028000           [42] loadbool   9   1   0    ; true
B0A3  0C428281           [43] settable   8   259 9    ; "reactorVisible"
B0A7  1D420300           [44] getglobal  8   13       ; -1817107093
B0AB  59820300           [45] loadk      9   14       ; "InitializeReactorAfterMigration - "
B0AF  9DC20300           [46] getglobal  10  15       ; -1615931716
B0B3  D2020000           [47] move       11  0      
B0B7  A2820001           [48] call       10  2   2  
B0BB  D9020400           [49] loadk      11  16       ; " prong(s) destroyed"
B0BF  42C28204           [50] concat     9   9   11 
B0C3  22420001           [51] call       8   2   1  
B0C7  1D420300           [52] getglobal  8   13       ; -1817107093
B0CB  59420400           [53] loadk      9   17       ; "Reactor visible: "
B0CF  9DC20300           [54] getglobal  10  15       ; -1615931716
B0D3  DD020000           [55] getglobal  11  0        ; _T
B0D7  CEC2C005           [56] gettable   11  11  259  ; "reactorVisible"
B0DB  A2820001           [57] call       10  2   2  
B0DF  42828204           [58] concat     9   9   10 
B0E3  22420001           [59] call       8   2   1  
B0E7  1D420200           [60] getglobal  8   9        ; totalNumCoreProngs
fail op	35
B0EB  63000200           [61] close      1  
B0EF  1A000080           [62] jmp        1            ; to [64]
B0F3  17420000           [63] loadbool   8   0   1    ; false, to [65]
B0F7  17028000           [64] loadbool   8   1   0    ; true
B0FB  18020000           [65] test       8       0    ; to [67] if true
B0FF  1A800080           [66] jmp        3            ; to [70]
B103  5D020000           [67] getglobal  9   0        ; _T
B107  4C82C480           [68] settable   9   257 274  ; "reactorDestroyed" 1
B10B  1A000380           [69] jmp        13           ; to [83]
B10F  5D420100           [70] getglobal  9   5        ; gRegion
B113  6482C104           [71] self       9   9   262  ; -1485896174
B117  DDC20100           [72] getglobal  11  7        ; -332969190
B11B  19C30400           [73] loadk      12  19       ; "ReactorPortCounter"
B11F  E2020001           [74] call       11  2   0  
B123  62820000           [75] call       9   0   2  
B127  8A028004           [76] len        10  9      
fail op	21
B12B  15800282           [77] concat     0   260 10 
B12F  1AC00080           [78] jmp        4            ; to [83]
B133  8E82C204           [79] gettable   10  9   266  ; 0
B137  A4024505           [80] self       10  10  276  ; 1836567670
B13B  12030000           [81] move       12  0      
B13F  A2428001           [82] call       10  3   1  
B143  1E008000           [83] return     0   1      
                         * constants:
B147  15                 sizek (21)
B148  04                 const type 4
B149  03                 string size (3)
B14A  5F5400             "_T\0"
                         const [0]: "_T"
B14D  04                 const type 4
B14E  11                 string size (17)
B14F  72656163746F7244+  "reactorD"
B157  657374726F796564+  "estroyed"
B15F  00                 "\0"
                         const [1]: "reactorDestroyed"
B160  01                 const type 3
B161  00000000           const [2]: (0)
B165  04                 const type 4
B166  0F                 string size (15)
B167  72656163746F7256+  "reactorV"
B16F  697369626C6500     "isible\0"
                         const [3]: "reactorVisible"
B176  03                 const type 3
B177  00000000           const [4]: (0)
B17B  04                 const type 4
B17C  08                 string size (8)
B17D  67526567696F6E00   "gRegion\0"
                         const [5]: "gRegion"
B185  01                 const type 3
B186  12066FA7           const [6]: (-1485896174)
B18A  01                 const type 3
B18B  1A4B27EC           const [7]: (-332969190)
B18F  04                 const type 4
B190  0D                 string size (13)
B191  52656163746F7250+  "ReactorP"
B199  726F6E6700         "rong\0"
                         const [8]: "ReactorProng"
B19E  04                 const type 4
B19F  13                 string size (19)
B1A0  746F74616C4E756D+  "totalNum"
B1A8  436F726550726F6E+  "CorePron"
B1B0  677300             "gs\0"
                         const [9]: "totalNumCoreProngs"
B1B3  03                 const type 3
B1B4  0000803F           const [10]: (0)
B1B8  01                 const type 3
B1B9  D3FB792F           const [11]: (796523475)
B1BD  01                 const type 3
B1BE  EFCC1A8C           const [12]: (-1944400657)
B1C2  01                 const type 3
B1C3  6B25B193           const [13]: (-1817107093)
B1C7  04                 const type 4
B1C8  23                 string size (35)
B1C9  496E697469616C69+  "Initiali"
B1D1  7A6552656163746F+  "zeReacto"
B1D9  7241667465724D69+  "rAfterMi"
B1E1  67726174696F6E20+  "gration "
B1E9  2D2000             "- \0"
                         const [14]: "InitializeReactorAfterMigration - "
B1EC  01                 const type 3
B1ED  BCD6AE9F           const [15]: (-1615931716)
B1F1  04                 const type 4
B1F2  14                 string size (20)
B1F3  2070726F6E672873+  " prong(s"
B1FB  292064657374726F+  ") destro"
B203  79656400           "yed\0"
                         const [16]: " prong(s) destroyed"
B207  04                 const type 4
B208  12                 string size (18)
B209  52656163746F7220+  "Reactor "
B211  76697369626C653A+  "visible:"
B219  2000               " \0"
                         const [17]: "Reactor visible: "
B21B  01                 const type 3
B21C  01000000           const [18]: (1)
B220  04                 const type 4
B221  13                 string size (19)
B222  52656163746F7250+  "ReactorP"
B22A  6F7274436F756E74+  "ortCount"
B232  657200             "er\0"
                         const [19]: "ReactorPortCounter"
B235  01                 const type 3
B236  76CC776D           const [20]: (1836567670)
                         * functions:
B23A  00                 sizep (0)
                         * lines:
B23B  53                 sizelineinfo (83)
                         [pc] (line)
B23C  CC                 [01] (-52)
B23D  07                 [02] (-52)
B23E  00                 [03] (-51)
B23F  00                 [04] (-51)
B240  CC                 [05] (-49)
B241  07                 [06] (-46)
B242  00                 [07] (-46)
B243  00                 [08] (-46)
B244  CD                 [09] (-46)
B245  07                 [10] (-46)
B246  00                 [11] (-46)
B247  00                 [12] (-45)
B248  CD                 [13] (-43)
B249  07                 [14] (-43)
B24A  00                 [15] (-43)
B24B  00                 [16] (-43)
B24C  CF                 [17] (-42)
B24D  07                 [18] (-42)
B24E  00                 [19] (-42)
B24F  00                 [20] (-41)
B250  D2                 [21] (-37)
B251  07                 [22] (-37)
B252  00                 [23] (-37)
B253  00                 [24] (-37)
B254  D2                 [25] (-36)
B255  07                 [26] (-36)
B256  00                 [27] (-36)
B257  00                 [28] (-36)
B258  D2                 [29] (-36)
B259  07                 [30] (-35)
B25A  00                 [31] (-33)
B25B  00                 [32] (-33)
B25C  D2                 [33] (-33)
B25D  07                 [34] (-33)
B25E  00                 [35] (-33)
B25F  00                 [36] (-32)
B260  D2                 [37] (-37)
B261  07                 [38] (-28)
B262  00                 [39] (-28)
B263  00                 [40] (-28)
B264  D2                 [41] (-28)
B265  07                 [42] (-28)
B266  00                 [43] (-28)
B267  00                 [44] (-26)
B268  D3                 [45] (-26)
B269  07                 [46] (-26)
B26A  00                 [47] (-26)
B26B  00                 [48] (-26)
B26C  D5                 [49] (-26)
B26D  07                 [50] (-26)
B26E  00                 [51] (-26)
B26F  00                 [52] (-25)
B270  D5                 [53] (-25)
B271  07                 [54] (-25)
B272  00                 [55] (-25)
B273  00                 [56] (-25)
B274  D5                 [57] (-25)
B275  07                 [58] (-25)
B276  00                 [59] (-25)
B277  00                 [60] (-23)
B278  D5                 [61] (-23)
B279  07                 [62] (-23)
B27A  00                 [63] (-23)
B27B  00                 [64] (-23)
B27C  D6                 [65] (-21)
B27D  07                 [66] (-21)
B27E  00                 [67] (-20)
B27F  00                 [68] (-20)
B280  D6                 [69] (-20)
B281  07                 [70] (-18)
B282  00                 [71] (-18)
B283  00                 [72] (-18)
B284  D6                 [73] (-18)
B285  07                 [74] (-18)
B286  00                 [75] (-18)
B287  00                 [76] (-17)
B288  D7                 [77] (-17)
B289  07                 [78] (-17)
B28A  00                 [79] (-16)
B28B  00                 [80] (-16)
B28C  DB                 [81] (-16)
B28D  07                 [82] (-16)
B28E  00                 [83] (-12)
                         * locals:
B388  00                 sizelocvars (0)
                         * upvalues:
B389  00                 sizeupvalues (0)
                         ** end of function **

                         
B38A                     ** function [36] definition (level 2)
                         ** start of function **
B38A  00                 string size (0)
                         source name: (none)
B38C  0F                 line defined (2038)
B38D  86                 last line defined (2054)
B38E  10                 nups (1)
B38F  01                 numparams (0)
B390  00                 is_vararg (0)
B391  00                 maxstacksize (13)
                         * code:
B393  22                 sizecode (34)
B394  1D000000           [01] getglobal  0   0        ; gGameRules
B398  24404000           [02] self       0   0   257  ; -317790213
B39C  93000000           [03] getupval   2   0      
B3A0  22808001           [04] call       0   3   2  
fail op	35
B3A4  23804000           [05] close      0  
B3A8  1A000080           [06] jmp        1            ; to [8]
B3AC  1E008000           [07] return     0   1      
B3B0  1DC00000           [08] getglobal  0   3        ; gRegion
B3B4  24004100           [09] self       0   0   260  ; -2071158816
B3B8  22800001           [10] call       0   2   2  
B3BC  59400100           [11] loadk      1   5        ; 0
B3C0  8A000000           [12] len        2   0      
B3C4  D9400100           [13] loadk      3   5        ; 0
B3C8  50400480           [14] forprep    1   18       ; to [33]
B3CC  4E010100           [15] gettable   5   0   4  
B3D0  9D810100           [16] getglobal  6   6        ; 1074689893
B3D4  D2018002           [17] move       7   5      
B3D8  A2810001           [18] call       6   2   2  
B3DC  98410000           [19] test       6       1    ; to [21] if false
B3E0  1AC00280           [20] jmp        12           ; to [33]
B3E4  A4C1C102           [21] self       6   5   263  ; -1421644046
B3E8  1D020200           [22] getglobal  8   8        ; threatProjector
B3EC  5D420200           [23] getglobal  9   9        ; EMPTY_SYMBOL
B3F0  A482C202           [24] self       10  5   266  ; 1839670529
B3F4  A2820001           [25] call       10  2   2  
B3F8  E4C2C202           [26] self       11  5   267  ; -231049143
B3FC  E2020001           [27] call       11  2   0  
B400  A2410000           [28] call       6   0   1  
B404  A401C302           [29] self       6   5   268  ; 155743781
B408  19420100           [30] loadk      8   5        ; 0
B40C  A2418001           [31] call       6   3   1  
B410  1A000080           [32] jmp        1            ; to [34]
B414  5400FB7F           [33] forloop    1   -19      ; to [15] if loop
B418  1E008000           [34] return     0   1      
                         * constants:
B41C  0D                 sizek (13)
B41D  04                 const type 4
B41E  0B                 string size (11)
B41F  6747616D6552756C+  "gGameRul"
B427  657300             "es\0"
                         const [0]: "gGameRules"
B42A  01                 const type 3
B42B  FBE70EED           const [1]: (-317790213)
B42F  03                 const type 3
B430  00000000           const [2]: (0)
B434  04                 const type 4
B435  08                 string size (8)
B436  67526567696F6E00   "gRegion\0"
                         const [3]: "gRegion"
B43E  01                 const type 3
B43F  E09F8C84           const [4]: (-2071158816)
B443  03                 const type 3
B444  0000803F           const [5]: (0)
B448  01                 const type 3
B449  65770E40           const [6]: (1074689893)
B44D  01                 const type 3
B44E  F26E43AB           const [7]: (-1421644046)
B452  04                 const type 4
B453  10                 string size (16)
B454  7468726561745072+  "threatPr"
B45C  6F6A6563746F7200   "ojector\0"
                         const [8]: "threatProjector"
B464  04                 const type 4
B465  0D                 string size (13)
B466  454D5054595F5359+  "EMPTY_SY"
B46E  4D424F4C00         "MBOL\0"
                         const [9]: "EMPTY_SYMBOL"
B473  01                 const type 3
B474  0125A76D           const [10]: (1839670529)
B478  01                 const type 3
B479  49783AF2           const [11]: (-231049143)
B47D  01                 const type 3
B47E  25764809           const [12]: (155743781)
                         * functions:
B482  00                 sizep (0)
                         * lines:
B483  22                 sizelineinfo (34)
                         [pc] (line)
B484  F8                 [01] (-8)
B485  07                 [02] (-8)
B486  00                 [03] (-8)
B487  00                 [04] (-8)
B488  F8                 [05] (-8)
B489  07                 [06] (-8)
B48A  00                 [07] (-7)
B48B  00                 [08] (-4)
B48C  F8                 [09] (-4)
B48D  07                 [10] (-4)
B48E  00                 [11] (-3)
B48F  00                 [12] (-3)
B490  F8                 [13] (-3)
B491  07                 [14] (-3)
B492  00                 [15] (-2)
B493  00                 [16] (-1)
B494  F8                 [17] (-1)
B495  07                 [18] (-1)
B496  00                 [19] (-1)
B497  00                 [20] (-1)
B498  F8                 [21] (0)
B499  07                 [22] (0)
B49A  00                 [23] (0)
B49B  00                 [24] (0)
B49C  F9                 [25] (0)
B49D  07                 [26] (0)
B49E  00                 [27] (0)
B49F  00                 [28] (0)
B4A0  FC                 [29] (1)
B4A1  07                 [30] (1)
B4A2  00                 [31] (1)
B4A3  00                 [32] (2)
B4A4  FC                 [33] (-3)
B4A5  07                 [34] (6)
                         * locals:
B50C  00                 sizelocvars (0)
                         * upvalues:
B50D  00                 sizeupvalues (0)
                         ** end of function **

                         
B50E                     ** function [37] definition (level 2)
                         ** start of function **
B50E  00                 string size (0)
                         source name: (none)
B510  10                 line defined (2059)
B511  F1                 last line defined (2161)
B512  10                 nups (6)
B513  06                 numparams (0)
B514  00                 is_vararg (0)
B515  00                 maxstacksize (30)
                         * code:
B518  01                 sizecode (252)
B519  1D000000           [001] getglobal  0   0        ; gRegion
B51D  24404000           [002] self       0   0   257  ; -774964848
B521  22800001           [003] call       0   2   2  
B525  64804000           [004] self       1   0   258  ; 537471347
B529  62800001           [005] call       1   2   2  
B52D  9DC00000           [006] getglobal  2   3        ; gGameRules
B531  DD000100           [007] getglobal  3   4        ; 1074689893
B535  12010001           [008] move       4   2      
B539  E2800001           [009] call       3   2   2  
B53D  D8000000           [010] test       3       0    ; to [12] if true
B541  1A000080           [011] jmp        1            ; to [13]
B545  1E008000           [012] return     0   1      
B549  E4404101           [013] self       3   2   261  ; -317790213
B54D  53010000           [014] getupval   5   0      
B551  99810100           [015] loadk      6   6        ; 0
B555  E2800002           [016] call       3   4   2  
fail op	35
B559  6380C101           [017] close      1  
B55D  1AC00080           [018] jmp        4            ; to [23]
B561  DDC00100           [019] getglobal  3   7        ; -1817107093
B565  19010200           [020] loadk      4   8        ; "Sabotage completed"
B569  E2400001           [021] call       3   2   1  
B56D  1E008000           [022] return     0   1      
B571  D3008000           [023] getupval   3   1      
B575  CE40C201           [024] gettable   3   3   265  ; 198248041
B579  E2808000           [025] call       3   1   2  
B57D  2481C200           [026] self       4   1   266  ; -906150570
B581  92018001           [027] move       6   3      
B585  22418001           [028] call       4   3   1  
B589  1DC10000           [029] getglobal  4   3        ; gGameRules
B58D  24C14202           [030] self       4   4   267  ; 2051260977
B591  97010000           [031] loadbool   6   0   0    ; false
B595  22418001           [032] call       4   3   1  
B599  1D010000           [033] getglobal  4   0        ; gRegion
B59D  24014302           [034] self       4   4   268  ; -1485896174
B5A1  9D410300           [035] getglobal  6   13       ; -332969190
B5A5  D9810300           [036] loadk      7   14       ; "BossDoorHint"
B5A9  A2010001           [037] call       6   2   0  
B5AD  22810000           [038] call       4   0   2  
B5B1  4A010002           [039] len        5   4      
fail op	21
B5B5  15400183           [040] concat     0   262 5  
B5B9  1AC00080           [041] jmp        4            ; to [46]
B5BD  4EC14302           [042] gettable   5   4   271  ; 0
B5C1  6401C402           [043] self       5   5   272  ; -1923578185
B5C5  D9410400           [044] loadk      7   17       ; "Unlock"
B5C9  62418001           [045] call       5   3   1  
B5CD  64414101           [046] self       5   2   261  ; -317790213
B5D1  D3010001           [047] getupval   7   2      
B5D5  19820100           [048] loadk      8   6        ; 0
B5D9  62810002           [049] call       5   4   2  
fail op	35
B5DD  2380C102           [050] close      0  
B5E1  1A401680           [051] jmp        90           ; to [142]
B5E5  9D810400           [052] getglobal  6   18       ; _T
B5E9  8C01C589           [053] settable   6   275 276  ; "IntelKill" 0
B5ED  9D410500           [054] getglobal  6   21       ; 538022378
B5F1  D9C10300           [055] loadk      7   15       ; 0
B5F5  A2410001           [056] call       6   2   1  
B5F9  A481C500           [057] self       6   1   278  ; -175412982
B5FD  1D420300           [058] getglobal  8   13       ; -332969190
B601  59C20500           [059] loadk      9   23       ; "TankSpawn"
B605  22820001           [060] call       8   2   2  
B609  5D020600           [061] getglobal  9   24       ; minDistFromPlayers
B60D  9D420600           [062] getglobal  10  25       ; maxDistFromPlayers
B611  A2818002           [063] call       6   5   2  
B615  DD010100           [064] getglobal  7   4        ; 1074689893
B619  12020003           [065] move       8   6      
B61D  E2810001           [066] call       7   2   2  
B621  D8410000           [067] test       7       1    ; to [69] if false
B625  1A800080           [068] jmp        3            ; to [72]
B629  CA010003           [069] len        7   6      
fail op	21
B62D  15C0C303           [070] concat     0   7   271
B631  1A800180           [071] jmp        7            ; to [79]
B635  DD010000           [072] getglobal  7   0        ; gRegion
B639  E401C303           [073] self       7   7   268  ; -1485896174
B63D  5D420300           [074] getglobal  9   13       ; -332969190
B641  99C20500           [075] loadk      10  23       ; "TankSpawn"
B645  62020001           [076] call       9   2   0  
B649  E2810000           [077] call       7   0   2  
B64D  92018003           [078] move       6   7      
B651  E4814601           [079] self       7   2   282  ; -803877924
B655  53020001           [080] getupval   9   2      
B659  99C20600           [081] loadk      10  27       ; 0
B65D  E2410002           [082] call       7   4   1  
B661  CB010000           [083] newtable   7   0   0    ; array=0, hash=0
B665  19C20600           [084] loadk      8   27       ; 0
B669  4A020003           [085] len        9   6      
fail op	21
B66D  15008204           [086] concat     0   9   8  
B671  1AC00280           [087] jmp        12           ; to [100]
B675  0A020003           [088] len        8   6      
B679  59C20300           [089] loadk      9   15       ; 0
B67D  92020004           [090] move       10  8      
B681  D9C20300           [091] loadk      11  15       ; 0
B685  50020180           [092] forprep    9   5        ; to [98]
B689  5D030700           [093] getglobal  13  28       ; table
B68D  4E43C706           [094] gettable   13  13  285  ; -431682403
B691  92038003           [095] move       14  7      
B695  CE030303           [096] gettable   15  6   12 
B699  62438001           [097] call       13  3   1  
B69D  5442FE7F           [098] forloop    9   -6       ; to [93] if loop
B6A1  1A800480           [099] jmp        19           ; to [119]
B6A5  59C30300           [100] loadk      13  15       ; 0
B6A9  92030004           [101] move       14  8      
B6AD  D9C30300           [102] loadk      15  15       ; 0
B6B1  50430380           [103] forprep    13  14       ; to [118]
B6B5  5D840700           [104] getglobal  17  30       ; 2144646525
B6B9  99C40300           [105] loadk      18  15       ; 0
B6BD  CA040003           [106] len        19  6      
B6C1  62848001           [107] call       17  3   2  
B6C5  9D040700           [108] getglobal  18  28       ; table
B6C9  8E444709           [109] gettable   18  18  285  ; -431682403
B6CD  D2048003           [110] move       19  7      
B6D1  0E450403           [111] gettable   20  6   17 
B6D5  A2448001           [112] call       18  3   1  
B6D9  9D040700           [113] getglobal  18  28       ; table
B6DD  8EC44709           [114] gettable   18  18  287  ; -843973282
B6E1  D2040003           [115] move       19  6      
B6E5  12058008           [116] move       20  17     
B6E9  A2448001           [117] call       18  3   1  
B6ED  5403FC7F           [118] forloop    13  -15      ; to [104] if loop
B6F1  A4844601           [119] self       18  2   282  ; -803877924
B6F5  13050001           [120] getupval   20  2      
B6F9  4A058003           [121] len        21  7      
B6FD  A2440002           [122] call       18  4   1  
B701  99C40300           [123] loadk      18  15       ; 0
B705  CA048003           [124] len        19  7      
B709  19C50300           [125] loadk      20  15       ; 0
B70D  90440380           [126] forprep    18  14       ; to [141]
B711  9D050000           [127] getglobal  22  0        ; gRegion
B715  A405480B           [128] self       22  22  288  ; -1110225722
B719  1D460800           [129] getglobal  24  33       ; sabType
B71D  4E468503           [130] gettable   25  7   21 
B721  6486C80C           [131] self       25  25  290  ; 1839670529
B725  62860001           [132] call       25  2   2  
B729  8E468503           [133] gettable   26  7   21 
B72D  A4C6480D           [134] self       26  26  291  ; -231049143
B731  A2060001           [135] call       26  2   0  
B735  A2450000           [136] call       22  0   1  
B739  8E458503           [137] gettable   22  7   21 
B73D  A405440B           [138] self       22  22  272  ; -1923578185
B741  19060900           [139] loadk      24  36       ; "Disable"
B745  A2458001           [140] call       22  3   1  
B749  9404FC7F           [141] forloop    18  -15      ; to [127] if loop
B74D  9D050100           [142] getglobal  22  4        ; 1074689893
B751  DD850400           [143] getglobal  23  18       ; _T
B755  CE45C90B           [144] gettable   23  23  293  ; "AddHudTracker"
B759  A2850001           [145] call       22  2   2  
B75D  98050000           [146] test       22      0    ; to [148] if true
B761  1AC00080           [147] jmp        4            ; to [152]
B765  9D450500           [148] getglobal  22  21       ; 538022378
B769  D9850100           [149] loadk      23  6        ; 0
B76D  A2450001           [150] call       22  2   1  
B771  1A40FD7F           [151] jmp        -10          ; to [142]
B775  9D850400           [152] getglobal  22  18       ; _T
B779  8EC5440B           [153] gettable   22  22  275  ; "IntelKill"
fail op	35
B77D  2380490B           [154] close      0  
B781  1A000080           [155] jmp        1            ; to [157]
B785  1E008000           [156] return     0   1      
B789  A4454101           [157] self       22  2   261  ; -317790213
B78D  13060001           [158] getupval   24  2      
B791  59C60600           [159] loadk      25  27       ; 0
B795  A2850002           [160] call       22  4   2  
B799  DD050100           [161] getglobal  23  4        ; 1074689893
B79D  13068001           [162] getupval   24  3      
B7A1  E2850001           [163] call       23  2   2  
B7A5  D8050000           [164] test       23      0    ; to [166] if true
B7A9  1A800380           [165] jmp        15           ; to [181]
B7AD  DD850400           [166] getglobal  23  18       ; _T
B7B1  CEC5C90B           [167] gettable   23  23  295  ; 972116663
B7B5  19060A00           [168] loadk      24  40       ; "TAProgressBar"
B7B9  53060002           [169] getupval   25  4      
B7BD  4E46CA0C           [170] gettable   25  25  297  ; "HT_PROGRESS_BAR"
B7C1  99860A00           [171] loadk      26  42       ; -51
B7C5  E2850002           [172] call       23  4   2  
fail op	8
B7C9  C8058001           [173] setupval   23  3      
B7CD  D3058001           [174] getupval   23  3      
B7D1  CEC5CA0B           [175] gettable   23  23  299  ; -440008155
B7D5  1D060B00           [176] getglobal  24  44       ; _G
B7D9  0E464B0C           [177] gettable   24  24  301  ; "UIColor_DarkBlue"
B7DD  E2450001           [178] call       23  2   1  
B7E1  DD850400           [179] getglobal  23  18       ; _T
B7E5  CC854997           [180] settable   23  302 294  ; "HasTAProgressBar" 1
B7E9  D3058001           [181] getupval   23  3      
B7ED  CEC5CB0B           [182] gettable   23  23  303  ; 934616952
B7F1  19060C00           [183] loadk      24  48       ; ""
B7F5  E2450001           [184] call       23  2   1  
B7F9  D3058001           [185] getupval   23  3      
B7FD  CE45CC0B           [186] gettable   23  23  305  ; -1455793363
B801  13068001           [187] getupval   24  3      
B805  0E864C0C           [188] gettable   24  24  306  ; -421772368
B809  59C60C00           [189] loadk      25  51       ; "/Lotus/Language/Game/MiningMachineCount"
B80D  97060000           [190] loadbool   26  0   0    ; false
B811  22868001           [191] call       24  3   2  
B815  59060D00           [192] loadk      25  52       ; " "
B819  9D460D00           [193] getglobal  26  53       ; -1615931716
B81D  DD860D00           [194] getglobal  27  54       ; math
B821  CEC6CD0D           [195] gettable   27  27  311  ; -150971781
B825  1207000B           [196] move       28  22     
B829  E2060001           [197] call       27  2   0  
B82D  A2860000           [198] call       26  0   2  
B831  0286060C           [199] concat     24  24  26 
B835  E2450001           [200] call       23  2   1  
B839  D3058001           [201] getupval   23  3      
B83D  CE05CE0B           [202] gettable   23  23  312  ; 1731445362
B841  19460E00           [203] loadk      24  57       ; 0
B845  E2450001           [204] call       23  2   1  
fail op	33
B849  2180410B           [205] tforloop   0       262  ; to [207] if exit
B84D  1A000080           [206] jmp        1            ; to [208]
B851  1AC00080           [207] jmp        4            ; to [212]
B855  DD450500           [208] getglobal  23  21       ; 538022378
B859  19860E00           [209] loadk      24  58       ; -51
B85D  E2450001           [210] call       23  2   1  
B861  1AC0F07F           [211] jmp        -60          ; to [152]
B865  E4854601           [212] self       23  2   282  ; -803877924
B869  53060000           [213] getupval   25  0      
B86D  99C60300           [214] loadk      26  15       ; 0
B871  E2450002           [215] call       23  4   1  
B875  D3058002           [216] getupval   23  5      
B879  E2858000           [217] call       23  1   2  
B87D  1DC60E00           [218] getglobal  24  59       ; objRemoveScript
B881  2406440C           [219] self       24  24  272  ; -1923578185
B885  99060F00           [220] loadk      26  60       ; "Execute"
B889  22468001           [221] call       24  3   1  
fail op	35
B88D  2300C50B           [222] close      0  
B891  1AC00680           [223] jmp        28           ; to [252]
B895  1D060000           [224] getglobal  24  0        ; gRegion
B899  2446400C           [225] self       24  24  257  ; -774964848
B89D  22860001           [226] call       24  2   2  
B8A1  6486400C           [227] self       25  24  258  ; 537471347
B8A5  62860001           [228] call       25  2   2  
B8A9  93068000           [229] getupval   26  1      
B8AD  8E46420D           [230] gettable   26  26  265  ; 198248041
B8B1  A2868000           [231] call       26  1   2  
B8B5  DD060100           [232] getglobal  27  4        ; 1074689893
B8B9  1207800C           [233] move       28  25     
B8BD  E2860001           [234] call       27  2   2  
B8C1  D8460000           [235] test       27      1    ; to [237] if false
B8C5  1A800280           [236] jmp        11           ; to [248]
B8C9  E4C64201           [237] self       27  2   267  ; 2051260977
B8CD  57078000           [238] loadbool   29  1   0    ; true
B8D1  E2468001           [239] call       27  3   1  
B8D5  DD060100           [240] getglobal  27  4        ; 1074689893
B8D9  1207000D           [241] move       28  26     
B8DD  E2860001           [242] call       27  2   2  
B8E1  D8460000           [243] test       27      1    ; to [245] if false
B8E5  1A800080           [244] jmp        3            ; to [248]
B8E9  E486C20C           [245] self       27  25  266  ; -906150570
B8ED  5207000D           [246] move       29  26     
B8F1  E2468001           [247] call       27  3   1  
B8F5  DD460F00           [248] getglobal  27  61       ; completeObjScript
B8F9  E406C40D           [249] self       27  27  272  ; -1923578185
B8FD  59070F00           [250] loadk      29  60       ; "Execute"
B901  E2468001           [251] call       27  3   1  
B905  1E008000           [252] return     0   1      
                         * constants:
B909  3E                 sizek (62)
B90A  04                 const type 4
B90B  08                 string size (8)
B90C  67526567696F6E00   "gRegion\0"
                         const [0]: "gRegion"
B914  01                 const type 3
B915  90F9CED1           const [1]: (-774964848)
B919  01                 const type 3
B91A  73290920           const [2]: (537471347)
B91E  04                 const type 4
B91F  0B                 string size (11)
B920  6747616D6552756C+  "gGameRul"
B928  657300             "es\0"
                         const [3]: "gGameRules"
B92B  01                 const type 3
B92C  65770E40           const [4]: (1074689893)
B930  01                 const type 3
B931  FBE70EED           const [5]: (-317790213)
B935  03                 const type 3
B936  00000000           const [6]: (0)
B93A  01                 const type 3
B93B  6B25B193           const [7]: (-1817107093)
B93F  04                 const type 4
B940  13                 string size (19)
B941  5361626F74616765+  "Sabotage"
B949  20636F6D706C6574+  " complet"
B951  656400             "ed\0"
                         const [8]: "Sabotage completed"
B954  01                 const type 3
B955  6906D10B           const [9]: (198248041)
B959  01                 const type 3
B95A  563DFDC9           const [10]: (-906150570)
B95E  01                 const type 3
B95F  31C2437A           const [11]: (2051260977)
B963  01                 const type 3
B964  12066FA7           const [12]: (-1485896174)
B968  01                 const type 3
B969  1A4B27EC           const [13]: (-332969190)
B96D  04                 const type 4
B96E  0D                 string size (13)
B96F  426F7373446F6F72+  "BossDoor"
B977  48696E7400         "Hint\0"
                         const [14]: "BossDoorHint"
B97C  03                 const type 3
B97D  0000803F           const [15]: (0)
B981  01                 const type 3
B982  B786588D           const [16]: (-1923578185)
B986  04                 const type 4
B987  07                 string size (7)
B988  556E6C6F636B00     "Unlock\0"
                         const [17]: "Unlock"
B98F  04                 const type 4
B990  03                 string size (3)
B991  5F5400             "_T\0"
                         const [18]: "_T"
B994  04                 const type 4
B995  0A                 string size (10)
B996  496E74656C4B696C+  "IntelKil"
B99E  6C00               "l\0"
                         const [19]: "IntelKill"
B9A0  01                 const type 3
B9A1  00000000           const [20]: (0)
B9A5  01                 const type 3
B9A6  EA911120           const [21]: (538022378)
B9AA  01                 const type 3
B9AB  0A698BF5           const [22]: (-175412982)
B9AF  04                 const type 4
B9B0  0A                 string size (10)
B9B1  54616E6B53706177+  "TankSpaw"
B9B9  6E00               "n\0"
                         const [23]: "TankSpawn"
B9BB  04                 const type 4
B9BC  13                 string size (19)
B9BD  6D696E4469737446+  "minDistF"
B9C5  726F6D506C617965+  "romPlaye"
B9CD  727300             "rs\0"
                         const [24]: "minDistFromPlayers"
B9D0  04                 const type 4
B9D1  13                 string size (19)
B9D2  6D61784469737446+  "maxDistF"
B9DA  726F6D506C617965+  "romPlaye"
B9E2  727300             "rs\0"
                         const [25]: "maxDistFromPlayers"
B9E5  01                 const type 3
B9E6  DCCB15D0           const [26]: (-803877924)
B9EA  03                 const type 3
B9EB  00008040           const [27]: (0)
B9EF  04                 const type 4
B9F0  06                 string size (6)
B9F1  7461626C6500       "table\0"
                         const [28]: "table"
B9F7  01                 const type 3
B9F8  9D0C45E6           const [29]: (-431682403)
B9FC  01                 const type 3
B9FD  7DB5D47F           const [30]: (2144646525)
BA01  01                 const type 3
BA02  5EFDB1CD           const [31]: (-843973282)
BA06  01                 const type 3
BA07  C64CD3BD           const [32]: (-1110225722)
BA0B  04                 const type 4
BA0C  08                 string size (8)
BA0D  7361625479706500   "sabType\0"
                         const [33]: "sabType"
BA15  01                 const type 3
BA16  0125A76D           const [34]: (1839670529)
BA1A  01                 const type 3
BA1B  49783AF2           const [35]: (-231049143)
BA1F  04                 const type 4
BA20  08                 string size (8)
BA21  44697361626C6500   "Disable\0"
                         const [36]: "Disable"
BA29  04                 const type 4
BA2A  0E                 string size (14)
BA2B  4164644875645472+  "AddHudTr"
BA33  61636B657200       "acker\0"
                         const [37]: "AddHudTracker"
BA39  01                 const type 3
BA3A  01000000           const [38]: (1)
BA3E  01                 const type 3
BA3F  B752F139           const [39]: (972116663)
BA43  04                 const type 4
BA44  0E                 string size (14)
BA45  544150726F677265+  "TAProgre"
BA4D  737342617200       "ssBar\0"
                         const [40]: "TAProgressBar"
BA53  04                 const type 4
BA54  10                 string size (16)
BA55  48545F50524F4752+  "HT_PROGR"
BA5D  4553535F42415200   "ESS_BAR\0"
                         const [41]: "HT_PROGRESS_BAR"
BA65  03                 const type 3
BA66  CDCC4C3E           const [42]: (-51)
BA6A  01                 const type 3
BA6B  2502C6E5           const [43]: (-440008155)
BA6F  04                 const type 4
BA70  03                 string size (3)
BA71  5F4700             "_G\0"
                         const [44]: "_G"
BA74  04                 const type 4
BA75  11                 string size (17)
BA76  5549436F6C6F725F+  "UIColor_"
BA7E  4461726B426C7565+  "DarkBlue"
BA86  00                 "\0"
                         const [45]: "UIColor_DarkBlue"
BA87  04                 const type 4
BA88  11                 string size (17)
BA89  486173544150726F+  "HasTAPro"
BA91  6772657373426172+  "gressBar"
BA99  00                 "\0"
                         const [46]: "HasTAProgressBar"
BA9A  01                 const type 3
BA9B  781FB537           const [47]: (934616952)
BA9F  04                 const type 4
BAA0  01                 string size (0)
                         const [48]: ""
BAA2  01                 const type 3
BAA3  2D5B3AA9           const [49]: (-1455793363)
BAA7  01                 const type 3
BAA8  B043DCE6           const [50]: (-421772368)
BAAC  04                 const type 4
BAAD  28                 string size (40)
BAAE  2F4C6F7475732F4C+  "/Lotus/L"
BAB6  616E67756167652F+  "anguage/"
BABE  47616D652F4D696E+  "Game/Min"
BAC6  696E674D61636869+  "ingMachi"
BACE  6E65436F756E7400   "neCount\0"
                         const [51]: "/Lotus/Language/Game/MiningMachineCount"
BAD6  04                 const type 4
BAD7  02                 string size (2)
BAD8  2000               " \0"
                         const [52]: " "
BADA  01                 const type 3
BADB  BCD6AE9F           const [53]: (-1615931716)
BADF  04                 const type 4
BAE0  05                 string size (5)
BAE1  6D61746800         "math\0"
                         const [54]: "math"
BAE6  01                 const type 3
BAE7  7B5A00F7           const [55]: (-150971781)
BAEB  01                 const type 3
BAEC  72C23367           const [56]: (1731445362)
BAF0  03                 const type 3
BAF1  000080BF           const [57]: (0)
BAF5  03                 const type 3
BAF6  CDCCCC3D           const [58]: (-51)
BAFA  04                 const type 4
BAFB  10                 string size (16)
BAFC  6F626A52656D6F76+  "objRemov"
BB04  6553637269707400   "eScript\0"
                         const [59]: "objRemoveScript"
BB0C  04                 const type 4
BB0D  08                 string size (8)
BB0E  4578656375746500   "Execute\0"
                         const [60]: "Execute"
BB16  04                 const type 4
BB17  12                 string size (18)
BB18  636F6D706C657465+  "complete"
BB20  4F626A5363726970+  "ObjScrip"
BB28  7400               "t\0"
                         const [61]: "completeObjScript"
                         * functions:
BB2A  00                 sizep (0)
                         * lines:
BB2C  01                 sizelineinfo (252)
                         [pc] (line)
BB2D  0C                 [001] (12)
BB2E  08                 [002] (12)
BB2F  00                 [003] (12)
BB30  00                 [004] (13)
BB31  0C                 [005] (13)
BB32  08                 [006] (15)
BB33  00                 [007] (16)
BB34  00                 [008] (16)
BB35  0C                 [009] (16)
BB36  08                 [010] (16)
BB37  00                 [011] (16)
BB38  00                 [012] (17)
BB39  0D                 [013] (20)
BB3A  08                 [014] (20)
BB3B  00                 [015] (20)
BB3C  00                 [016] (20)
BB3D  0D                 [017] (20)
BB3E  08                 [018] (20)
BB3F  00                 [019] (21)
BB40  00                 [020] (21)
BB41  0F                 [021] (21)
BB42  08                 [022] (22)
BB43  00                 [023] (25)
BB44  00                 [024] (25)
BB45  10                 [025] (25)
BB46  08                 [026] (26)
BB47  00                 [027] (26)
BB48  00                 [028] (26)
BB49  10                 [029] (27)
BB4A  08                 [030] (27)
BB4B  00                 [031] (27)
BB4C  00                 [032] (27)
BB4D  10                 [033] (28)
BB4E  08                 [034] (28)
BB4F  00                 [035] (28)
BB50  00                 [036] (28)
BB51  10                 [037] (28)
BB52  08                 [038] (28)
BB53  00                 [039] (29)
BB54  00                 [040] (29)
BB55  10                 [041] (29)
BB56  08                 [042] (30)
BB57  00                 [043] (30)
BB58  00                 [044] (30)
BB59  11                 [045] (30)
BB5A  08                 [046] (33)
BB5B  00                 [047] (33)
BB5C  00                 [048] (33)
BB5D  14                 [049] (33)
BB5E  08                 [050] (34)
BB5F  00                 [051] (34)
BB60  00                 [052] (35)
BB61  14                 [053] (35)
BB62  08                 [054] (39)
BB63  00                 [055] (39)
BB64  00                 [056] (39)
BB65  14                 [057] (40)
BB66  08                 [058] (40)
BB67  00                 [059] (40)
BB68  00                 [060] (40)
BB69  14                 [061] (40)
BB6A  08                 [062] (40)
BB6B  00                 [063] (40)
BB6C  00                 [064] (41)
BB6D  14                 [065] (41)
BB6E  08                 [066] (41)
BB6F  00                 [067] (41)
BB70  00                 [068] (41)
BB71  14                 [069] (41)
BB72  08                 [070] (41)
BB73  00                 [071] (41)
BB74  00                 [072] (42)
BB75  15                 [073] (42)
BB76  08                 [074] (42)
BB77  00                 [075] (42)
BB78  00                 [076] (42)
BB79  15                 [077] (42)
BB7A  08                 [078] (42)
BB7B  00                 [079] (44)
BB7C  00                 [080] (44)
BB7D  15                 [081] (44)
BB7E  08                 [082] (44)
BB7F  00                 [083] (46)
BB80  00                 [084] (48)
BB81  16                 [085] (49)
BB82  08                 [086] (49)
BB83  00                 [087] (49)
BB84  00                 [088] (50)
BB85  19                 [089] (51)
BB86  08                 [090] (51)
BB87  00                 [091] (51)
BB88  00                 [092] (51)
BB89  19                 [093] (52)
BB8A  08                 [094] (52)
BB8B  00                 [095] (52)
BB8C  00                 [096] (52)
BB8D  19                 [097] (52)
BB8E  08                 [098] (51)
BB8F  00                 [099] (54)
BB90  00                 [100] (56)
BB91  1A                 [101] (56)
BB92  08                 [102] (56)
BB93  00                 [103] (56)
BB94  00                 [104] (57)
BB95  1A                 [105] (57)
BB96  08                 [106] (57)
BB97  00                 [107] (57)
BB98  00                 [108] (58)
BB99  1A                 [109] (58)
BB9A  08                 [110] (58)
BB9B  00                 [111] (58)
BB9C  00                 [112] (58)
BB9D  1B                 [113] (59)
BB9E  08                 [114] (59)
BB9F  00                 [115] (59)
BBA0  00                 [116] (59)
BBA1  1B                 [117] (59)
BBA2  08                 [118] (56)
BBA3  00                 [119] (63)
BBA4  00                 [120] (63)
BBA5  1B                 [121] (63)
BBA6  08                 [122] (63)
BBA7  00                 [123] (66)
BBA8  00                 [124] (66)
BBA9  1B                 [125] (66)
BBAA  08                 [126] (66)
BBAB  00                 [127] (68)
BBAC  00                 [128] (68)
BBAD  1C                 [129] (68)
BBAE  08                 [130] (68)
BBAF  00                 [131] (68)
BBB0  00                 [132] (68)
BBB1  1C                 [133] (68)
BBB2  08                 [134] (68)
BBB3  00                 [135] (68)
BBB4  00                 [136] (68)
BBB5  1C                 [137] (69)
BBB6  08                 [138] (69)
BBB7  00                 [139] (69)
BBB8  00                 [140] (69)
BBB9  1C                 [141] (66)
BBBA  08                 [142] (73)
BBBB  00                 [143] (73)
BBBC  00                 [144] (73)
BBBD  1C                 [145] (73)
BBBE  08                 [146] (73)
BBBF  00                 [147] (73)
BBC0  00                 [148] (74)
BBC1  1C                 [149] (74)
BBC2  08                 [150] (74)
BBC3  00                 [151] (74)
BBC4  00                 [152] (77)
BBC5  1D                 [153] (77)
BBC6  08                 [154] (77)
BBC7  00                 [155] (77)
BBC8  00                 [156] (78)
BBC9  1D                 [157] (80)
BBCA  08                 [158] (80)
BBCB  00                 [159] (80)
BBCC  00                 [160] (80)
BBCD  1D                 [161] (82)
BBCE  08                 [162] (82)
BBCF  00                 [163] (82)
BBD0  00                 [164] (82)
BBD1  1E                 [165] (82)
BBD2  08                 [166] (83)
BBD3  00                 [167] (83)
BBD4  00                 [168] (83)
BBD5  1E                 [169] (83)
BBD6  08                 [170] (83)
BBD7  00                 [171] (83)
BBD8  00                 [172] (83)
BBD9  1E                 [173] (83)
BBDA  08                 [174] (84)
BBDB  00                 [175] (84)
BBDC  00                 [176] (84)
BBDD  1E                 [177] (84)
BBDE  08                 [178] (84)
BBDF  00                 [179] (85)
BBE0  00                 [180] (85)
BBE1  21                 [181] (87)
BBE2  08                 [182] (87)
BBE3  00                 [183] (87)
BBE4  00                 [184] (87)
BBE5  21                 [185] (88)
BBE6  08                 [186] (88)
BBE7  00                 [187] (88)
BBE8  00                 [188] (88)
BBE9  21                 [189] (88)
BBEA  08                 [190] (88)
BBEB  00                 [191] (88)
BBEC  00                 [192] (88)
BBED  21                 [193] (88)
BBEE  08                 [194] (88)
BBEF  00                 [195] (88)
BBF0  00                 [196] (88)
BBF1  22                 [197] (88)
BBF2  08                 [198] (88)
BBF3  00                 [199] (88)
BBF4  00                 [200] (88)
BBF5  22                 [201] (89)
BBF6  08                 [202] (89)
BBF7  00                 [203] (89)
BBF8  00                 [204] (89)
BBF9  23                 [205] (91)
BBFA  08                 [206] (91)
BBFB  00                 [207] (92)
BBFC  00                 [208] (94)
BBFD  23                 [209] (94)
BBFE  08                 [210] (94)
BBFF  00                 [211] (94)
BC00  00                 [212] (97)
BC01  27                 [213] (97)
BC02  08                 [214] (97)
BC03  00                 [215] (97)
BC04  00                 [216] (99)
BC05  27                 [217] (99)
BC06  08                 [218] (100)
BC07  00                 [219] (100)
BC08  00                 [220] (100)
BC09  27                 [221] (100)
BC0A  08                 [222] (101)
BC0B  00                 [223] (101)
BC0C  00                 [224] (102)
BC0D  28                 [225] (102)
BC0E  08                 [226] (102)
BC0F  00                 [227] (103)
BC10  00                 [228] (103)
BC11  28                 [229] (104)
BC12  08                 [230] (104)
BC13  00                 [231] (104)
BC14  00                 [232] (105)
BC15  28                 [233] (105)
BC16  08                 [234] (105)
BC17  00                 [235] (105)
BC18  00                 [236] (105)
BC19  28                 [237] (106)
BC1A  08                 [238] (106)
BC1B  00                 [239] (106)
BC1C  00                 [240] (107)
BC1D  28                 [241] (107)
BC1E  08                 [242] (107)
BC1F  00                 [243] (107)
BC20  00                 [244] (107)
BC21  28                 [245] (108)
BC22  08                 [246] (108)
BC23  00                 [247] (108)
BC24  00                 [248] (111)
BC25  28                 [249] (111)
BC26  08                 [250] (111)
BC27  00                 [251] (111)
BC28  00                 [252] (113)
                         * locals:
BF1D  00                 sizelocvars (0)
                         * upvalues:
BF1E  00                 sizeupvalues (0)
                         ** end of function **

                         
BF1F                     ** function [38] definition (level 2)
                         ** start of function **
BF1F  00                 string size (0)
                         source name: (none)
BF21  10                 line defined (2163)
BF22  F5                 last line defined (2165)
BF23  10                 nups (0)
BF24  00                 numparams (0)
BF25  00                 is_vararg (0)
BF26  00                 maxstacksize (2)
                         * code:
BF28  03                 sizecode (3)
BF29  1D000000           [1] getglobal  0   0        ; _T
BF2D  0C80C080           [2] settable   0   257 258  ; "gSoftAbortMission" 1
BF31  1E008000           [3] return     0   1      
                         * constants:
BF35  03                 sizek (3)
BF36  04                 const type 4
BF37  03                 string size (3)
BF38  5F5400             "_T\0"
                         const [0]: "_T"
BF3B  04                 const type 4
BF3C  12                 string size (18)
BF3D  67536F667441626F+  "gSoftAbo"
BF45  72744D697373696F+  "rtMissio"
BF4D  6E00               "n\0"
                         const [1]: "gSoftAbortMission"
BF4F  01                 const type 3
BF50  01000000           const [2]: (1)
                         * functions:
BF54  00                 sizep (0)
                         * lines:
BF55  03                 sizelineinfo (3)
                         [pc] (line)
BF56  74                 [1] (116)
BF57  08                 [2] (116)
BF58  00                 [3] (117)
                         * locals:
BF62  00                 sizelocvars (0)
                         * upvalues:
BF63  00                 sizeupvalues (0)
                         ** end of function **

                         
BF64                     ** function [39] definition (level 2)
                         ** start of function **
BF64  00                 string size (0)
                         source name: (none)
BF66  10                 line defined (2167)
BF67  80                 last line defined (2176)
BF68  11                 nups (1)
BF69  01                 numparams (0)
BF6A  00                 is_vararg (0)
BF6B  00                 maxstacksize (5)
                         * code:
BF6D  14                 sizecode (20)
BF6E  1D000000           [01] getglobal  0   0        ; 1074689893
BF72  53000000           [02] getupval   1   0      
BF76  22800001           [03] call       0   2   2  
BF7A  18400000           [04] test       0       1    ; to [6] if false
BF7E  1A400180           [05] jmp        6            ; to [12]
BF82  1D400000           [06] getglobal  0   1        ; _T
BF86  0E804000           [07] gettable   0   0   258  ; 327577324
BF8A  53000000           [08] getupval   1   0      
BF8E  22400001           [09] call       0   2   1  
BF92  06000000           [10] loadnil    0   0      
fail op	8
BF96  08000000           [11] setupval   0   0      
BF9A  1DC00000           [12] getglobal  0   3        ; gRegion
BF9E  24004100           [13] self       0   0   260  ; 925677844
BFA2  22800001           [14] call       0   2   2  
BFA6  64404100           [15] self       1   0   261  ; -278808677
BFAA  62800001           [16] call       1   2   2  
BFAE  A480C100           [17] self       2   1   262  ; 736827839
BFB2  17010000           [18] loadbool   4   0   0    ; false
BFB6  A2408001           [19] call       2   3   1  
BFBA  1E008000           [20] return     0   1      
                         * constants:
BFBE  07                 sizek (7)
BFBF  01                 const type 3
BFC0  65770E40           const [0]: (1074689893)
BFC4  04                 const type 4
BFC5  03                 string size (3)
BFC6  5F5400             "_T\0"
                         const [1]: "_T"
BFC9  01                 const type 3
BFCA  EC6E8613           const [2]: (327577324)
BFCE  04                 const type 4
BFCF  08                 string size (8)
BFD0  67526567696F6E00   "gRegion\0"
                         const [3]: "gRegion"
BFD8  01                 const type 3
BFD9  14B92C37           const [4]: (925677844)
BFDD  01                 const type 3
BFDE  9BB761EF           const [5]: (-278808677)
BFE2  01                 const type 3
BFE3  BF19EB2B           const [6]: (736827839)
                         * functions:
BFE7  00                 sizep (0)
                         * lines:
BFE8  14                 sizelineinfo (20)
                         [pc] (line)
BFE9  78                 [01] (120)
BFEA  08                 [02] (120)
BFEB  00                 [03] (120)
BFEC  00                 [04] (120)
BFED  78                 [05] (120)
BFEE  08                 [06] (121)
BFEF  00                 [07] (121)
BFF0  00                 [08] (121)
BFF1  78                 [09] (121)
BFF2  08                 [10] (122)
BFF3  00                 [11] (122)
BFF4  00                 [12] (124)
BFF5  78                 [13] (124)
BFF6  08                 [14] (124)
BFF7  00                 [15] (125)
BFF8  00                 [16] (125)
BFF9  78                 [17] (127)
BFFA  08                 [18] (127)
BFFB  00                 [19] (127)
BFFC  00                 [20] (-128)
                         * locals:
C039  00                 sizelocvars (0)
                         * upvalues:
C03A  00                 sizeupvalues (0)
                         ** end of function **

                         * lines:
C03C  01                 sizelineinfo (231)
                         [pc] (line)
C03D  43                 [001] (67)
C03E  00                 [002] (67)
C03F  00                 [003] (67)
C040  00                 [004] (68)
C041  43                 [005] (68)
C042  00                 [006] (68)
C043  00                 [007] (69)
C044  00                 [008] (69)
C045  43                 [009] (69)
C046  00                 [010] (70)
C047  00                 [011] (70)
C048  00                 [012] (70)
C049  44                 [013] (71)
C04A  00                 [014] (71)
C04B  00                 [015] (71)
C04C  00                 [016] (74)
C04D  44                 [017] (74)
C04E  00                 [018] (74)
C04F  00                 [019] (76)
C050  00                 [020] (76)
C051  44                 [021] (76)
C052  00                 [022] (77)
C053  00                 [023] (77)
C054  00                 [024] (77)
C055  45                 [025] (78)
C056  00                 [026] (78)
C057  00                 [027] (78)
C058  00                 [028] (79)
C059  45                 [029] (79)
C05A  00                 [030] (79)
C05B  00                 [031] (81)
C05C  00                 [032] (84)
C05D  45                 [033] (84)
C05E  00                 [034] (83)
C05F  00                 [035] (87)
C060  00                 [036] (87)
C061  46                 [037] (86)
C062  00                 [038] (-98)
C063  00                 [039] (-98)
C064  00                 [040] (89)
C065  46                 [041] (-75)
C066  00                 [042] (-75)
C067  00                 [043] (-96)
C068  00                 [044] (-52)
C069  46                 [045] (-37)
C06A  00                 [046] (-21)
C06B  00                 [047] (0)
C06C  00                 [048] (0)
C06D  47                 [049] (59)
C06E  00                 [050] (59)
C06F  00                 [051] (59)
C070  00                 [052] (59)
C071  47                 [053] (59)
C072  00                 [054] (102)
C073  00                 [055] (102)
C074  00                 [056] (63)
C075  47                 [057] (-58)
C076  00                 [058] (-58)
C077  00                 [059] (-58)
C078  00                 [060] (-58)
C079  4A                 [061] (-58)
C07A  00                 [062] (104)
C07B  00                 [063] (-42)
C07C  00                 [064] (-42)
C07D  4A                 [065] (-42)
C07E  00                 [066] (-56)
C07F  00                 [067] (-6)
C080  00                 [068] (-6)
C081  4A                 [069] (-40)
C082  00                 [070] (-4)
C083  00                 [071] (-4)
C084  00                 [072] (-4)
C085  4C                 [073] (24)
C086  00                 [074] (24)
C087  00                 [075] (24)
C088  00                 [076] (24)
C089  4C                 [077] (24)
C08A  00                 [078] (-3)
C08B  00                 [079] (102)
C08C  00                 [080] (102)
C08D  4C                 [081] (102)
C08E  00                 [082] (102)
C08F  00                 [083] (102)
C090  00                 [084] (102)
C091  4D                 [085] (26)
C092  00                 [086] (108)
C093  00                 [087] (110)
C094  00                 [088] (-125)
C095  4D                 [089] (-125)
C096  00                 [090] (-86)
C097  00                 [091] (-86)
C098  00                 [092] (126)
C099  4D                 [093] (126)
C09A  00                 [094] (126)
C09B  00                 [095] (126)
C09C  00                 [096] (126)
C09D  4E                 [097] (126)
C09E  00                 [098] (126)
C09F  00                 [099] (126)
C0A0  00                 [100] (-83)
C0A1  4E                 [101] (-89)
C0A2  00                 [102] (-89)
C0A3  00                 [103] (-89)
C0A4  00                 [104] (-89)
C0A5  4E                 [105] (-89)
C0A6  00                 [106] (-128)
C0A7  00                 [107] (-43)
C0A8  00                 [108] (-43)
C0A9  4F                 [109] (-87)
C0AA  00                 [110] (-4)
C0AB  00                 [111] (-4)
C0AC  00                 [112] (-41)
C0AD  4F                 [113] (39)
C0AE  00                 [114] (39)
C0AF  00                 [115] (-2)
C0B0  00                 [116] (41)
C0B1  4F                 [117] (41)
C0B2  00                 [118] (41)
C0B3  00                 [119] (42)
C0B4  00                 [120] (42)
C0B5  51                 [121] (42)
C0B6  00                 [122] (111)
C0B7  00                 [123] (111)
C0B8  00                 [124] (111)
C0B9  54                 [125] (111)
C0BA  00                 [126] (111)
C0BB  00                 [127] (111)
C0BC  00                 [128] (-51)
C0BD  54                 [129] (-51)
C0BE  00                 [130] (-51)
C0BF  00                 [131] (-51)
C0C0  00                 [132] (-51)
C0C1  53                 [133] (113)
C0C2  00                 [134] (-9)
C0C3  00                 [135] (-9)
C0C4  00                 [136] (-9)
C0C5  57                 [137] (-9)
C0C6  00                 [138] (-9)
C0C7  00                 [139] (-49)
C0C8  00                 [140] (14)
C0C9  57                 [141] (14)
C0CA  00                 [142] (14)
C0CB  00                 [143] (14)
C0CC  00                 [144] (-6)
C0CD  56                 [145] (66)
C0CE  00                 [146] (66)
C0CF  00                 [147] (66)
C0D0  00                 [148] (66)
C0D1  9E                 [149] (66)
C0D2  00                 [150] (66)
C0D3  00                 [151] (66)
C0D4  00                 [152] (16)
C0D5  9E                 [153] (101)
C0D6  00                 [154] (101)
C0D7  00                 [155] (101)
C0D8  00                 [156] (68)
C0D9  59                 [157] (-91)
C0DA  00                 [158] (-91)
C0DB  00                 [159] (-91)
C0DC  00                 [160] (-91)
C0DD  B5                 [161] (-91)
C0DE  00                 [162] (103)
C0DF  00                 [163] (-48)
C0E0  00                 [164] (-48)
C0E1  B5                 [165] (-48)
C0E2  00                 [166] (-48)
C0E3  00                 [167] (-48)
C0E4  00                 [168] (-89)
C0E5  A0                 [169] (-46)
C0E6  00                 [170] (-46)
C0E7  00                 [171] (-46)
C0E8  00                 [172] (-45)
C0E9  CC                 [173] (-45)
C0EA  00                 [174] (-45)
C0EB  00                 [175] (-44)
C0EC  00                 [176] (79)
C0ED  DB                 [177] (79)
C0EE  00                 [178] (79)
C0EF  00                 [179] (79)
C0F0  00                 [180] (79)
C0F1  EB                 [181] (79)
C0F2  00                 [182] (79)
C0F3  00                 [183] (79)
C0F4  00                 [184] (79)
C0F5  00                 [185] (-42)
C0F6  01                 [186] (124)
C0F7  00                 [187] (124)
C0F8  00                 [188] (124)
C0F9  00                 [189] (81)
C0FA  01                 [190] (-89)
C0FB  00                 [191] (-89)
C0FC  00                 [192] (-89)
C0FD  3B                 [193] (-89)
C0FE  01                 [194] (127)
C0FF  00                 [195] (-87)
C100  00                 [196] (-87)
C101  3B                 [197] (-87)
C102  01                 [198] (-56)
C103  00                 [199] (-56)
C104  00                 [200] (-56)
C105  3B                 [201] (-84)
C106  01                 [202] (-12)
C107  00                 [203] (-12)
C108  00                 [204] (-54)
C109  3B                 [205] (6)
C10A  01                 [206] (6)
C10B  00                 [207] (6)
C10C  00                 [208] (-10)
C10D  3B                 [209] (8)
C10E  01                 [210] (8)
C10F  00                 [211] (8)
C110  00                 [212] (9)
C111  66                 [213] (9)
C112  01                 [214] (9)
C113  00                 [215] (113)
C114  00                 [216] (113)
C115  66                 [217] (113)
C116  01                 [218] (113)
C117  00                 [219] (113)
C118  00                 [220] (113)
C119  3F                 [221] (113)
C11A  01                 [222] (113)
C11B  00                 [223] (11)
C11C  00                 [224] (117)
C11D  C6                 [225] (117)
C11E  01                 [226] (115)
C11F  00                 [227] (-128)
C120  00                 [228] (-128)
C121  C6                 [229] (-128)
C122  01                 [230] (119)
C123  00                 [231] (-128)
                         * locals:
C3D9  00                 sizelocvars (0)
                         * upvalues:
C3DA  00                 sizeupvalues (0)
                         ** end of function **

C3DB                     ** end of chunk **
