1	C:\wlua_dump\path\Lotus\ScriptsMutators.lua
Pos   Hex Data           Description or Code
------------------------------------------------------------------------
0000                     ** source chunk: C:\wlua_dump\path\Lotus\ScriptsMutators.lua
                         ** global header start **
0000  7F                 header signature: ""
0001  00                 version (major:minor hex digits)
0002  00                 format (0=official)
0003  00                 endianness (1=little endian)
0004  00                 size of int (bytes)
0005  00                 size of size_t (bytes)
0006  02                 size of Instruction (bytes)
0007  1B                 size of number (bytes)
0008  82                 integral (1=integral)
4130
                         * number type: single
                         * x86 standard (32-bit, little endian, doubles)
                         ** global header end **
Lotus.Interface.LotusUtilities
Lotus.Scripts.Libs.ObjectiveText
/Lotus/Language/Game/NightmareModeTimer
/Lotus/Language/Objectives/ObjectiveTimeLimit
NightmareMode
HEADSHOTS_ONLY_TORSO

HEADSHOTS_ONLY_ARM_LEFT
HEADSHOTS_ONLY_ARM_RIGHT
HEADSHOTS_ONLY_LEG_LEFT
HEADSHOTS_ONLY_LEG_RIGHT
HeadshotsOnly
ExplodingCorpses
FriendlyFire
MeleeOnly
SideArmOnly
LongGunOnly
PowersOnly
ExtraDamage
CloseRange
FarRange
OnPlayerSpawned
OnDeath
RollMutators
OnGameRulesMasterInit
OnUpdate
gGameRules
Lotus_Game
LotusBaseGameRules_NM_VAMPIRE
gRegion
math
vampireModeHealthRegenPcnt
gGameRules
Lotus_Game
LotusBaseGameRules_NM_TIMED
_T
NMTimer
HT_TIMER
Data
Time
/Lotus/Language/Game/SurvivalTimeAdded
timedModeIncrement
gGameRules
gRegion
math
vampireModeHealthDegenPcnt
gGameRules
gRegion
gRegion
Engine
HEAD
EMPTY_SYMBOL
ANY_PART
DT_ANY
weaponAttachmentType
Engine
MAIN_HAND
SLOT_6
EXTRA2
SLOT_1
InventoryControllerBase_ES_INSTANT_EQUIP
SLOT_2
_T
gHealthRegen
math
_T
gShieldRegen
math
Engine
SLOT_2
Engine
SLOT_1
Engine
SLOT_6
gRegion
table
Engine
MAIN_HAND
gRegion
MutatorDoubleDamage
Engine
DT_ANY
ANY_PART
table
gRegion
gLotusNpcAvatarType
gRegion
gGameRules

alertId
Lotus_Game
MT_RETRIEVAL
LotusBaseGameRules_NM_ENERGY_DRAIN
/Lotus/Language/Game/NightmareModeEnergyDrain
LotusBaseGameRules_NM_NO_SHIELD
/Lotus/Language/Game/NightmareModeNoShield
MT_RAID
LotusBaseGameRules_NM_CUSTOM


/Lotus/Language/Game/NightmareMode_Exclamation
MODE
LotusBaseGameRules_NM_LOW_GRAVITY
y
_T
ShowImpactMessage
LotusBaseGameRules_NM_VAMPIRE
LotusBaseGameRules_NM_TIMED
AddHudTracker
NMTimer
HT_TIMER
Data
Time
Engine
GameRules_GS_FAILURE
LotusBaseGameRules_NM_NO_HUD
gGameRules
Lotus_Game
LotusBaseGameRules_NM_CUSTOM
Engine
DT_ANY
ANY_PART
gLotusNpcAvatarType
gGameRules
gChallengeMgr
                         
0001                     ** function [0] definition (level 1)
                         ** start of function **
0001  00                 string size (0)
                         source name: (none)
0002  00                 line defined (0)
0003  00                 last line defined (0)
0004  00                 nups (0)
0005  00                 numparams (0)
0006  02                 is_vararg (2)
0007  1B                 maxstacksize (27)
                         * code:
0009  01                 sizecode (130)
000A  1D000000           [001] getglobal  0   0        ; 849075268
000E  59400000           [002] loadk      1   1        ; "Lotus.Interface.LotusUtilities"
0012  22800001           [003] call       0   2   2  
0016  5D000000           [004] getglobal  1   0        ; 849075268
001A  99800000           [005] loadk      2   2        ; "Lotus.Scripts.Libs.ObjectiveText"
001E  62800001           [006] call       1   2   2  
0022  99C00000           [007] loadk      2   3        ; 0
0026  D9000100           [008] loadk      3   4        ; 0
002A  0B010000           [009] newtable   4   0   0    ; array=0, hash=0
002E  5D410100           [010] getglobal  5   5        ; -421772368
0032  99810100           [011] loadk      6   6        ; "/Lotus/Language/Game/NightmareModeTimer"
0036  D2010002           [012] move       7   4      
003A  62818001           [013] call       5   3   2  
003E  9DC10100           [014] getglobal  6   7        ; -332969190
0042  D2018002           [015] move       7   5      
0046  A2810001           [016] call       6   2   2  
004A  D9010200           [017] loadk      7   8        ; "/Lotus/Language/Objectives/ObjectiveTimeLimit"
004E  17020000           [018] loadbool   8   0   0    ; false
0052  5DC20100           [019] getglobal  9   7        ; -332969190
0056  99420200           [020] loadk      10  9        ; "NightmareMode"
005A  62820001           [021] call       9   2   2  
005E  A5020000           [022] closure    10  0      
0062  E5420000           [023] closure    11  1      
0066  12008000           [024] move       0   1      
006A  12000000           [025] move       0   0      
006E  12008003           [026] move       0   7      
0072  25830000           [027] closure    12  2      
0076  12000001           [028] move       0   2      
007A  65C30000           [029] closure    13  3      
007E  A5030100           [030] closure    14  4      
0082  CB038002           [031] newtable   15  5   0    ; array=5, hash=0
0086  1DC40100           [032] getglobal  16  7        ; -332969190
008A  59840200           [033] loadk      17  10       ; "HEADSHOTS_ONLY_TORSO"
008E  22840001           [034] call       16  2   2  
0092  59C40200           [035] loadk      17  11       ; ""
0096  9DC40100           [036] getglobal  18  7        ; -332969190
009A  D9040300           [037] loadk      19  12       ; "HEADSHOTS_ONLY_ARM_LEFT"
009E  A2840001           [038] call       18  2   2  
00A2  DDC40100           [039] getglobal  19  7        ; -332969190
00A6  19450300           [040] loadk      20  13       ; "HEADSHOTS_ONLY_ARM_RIGHT"
00AA  E2840001           [041] call       19  2   2  
00AE  1DC50100           [042] getglobal  20  7        ; -332969190
00B2  59850300           [043] loadk      21  14       ; "HEADSHOTS_ONLY_LEG_LEFT"
00B6  22850001           [044] call       20  2   2  
00BA  5DC50100           [045] getglobal  21  7        ; -332969190
00BE  99C50300           [046] loadk      22  15       ; "HEADSHOTS_ONLY_LEG_RIGHT"
00C2  62050001           [047] call       21  2   0  
00C6  DB430000           [048] setlist    15  0   1    ; index 1 to top
00CA  25440100           [049] closure    16  5      
00CE  12008007           [050] move       0   15     
00D2  20040400           [051] setglobal  16  16       ; HeadshotsOnly
00D6  20440400           [052] setglobal  16  17       ; 1552566443
00DA  25840100           [053] closure    16  6      
00DE  20840400           [054] setglobal  16  18       ; ExplodingCorpses
00E2  20C40400           [055] setglobal  16  19       ; 901694001
00E6  25C40100           [056] closure    16  7      
00EA  20040500           [057] setglobal  16  20       ; FriendlyFire
00EE  20440500           [058] setglobal  16  21       ; -2084292080
00F2  25040200           [059] closure    16  8      
00F6  65440200           [060] closure    17  9      
00FA  A5840200           [061] closure    18  10     
00FE  E5C40200           [062] closure    19  11     
0102  25050300           [063] closure    20  12     
0106  12000008           [064] move       0   16     
010A  65450300           [065] closure    21  13     
010E  12000008           [066] move       0   16     
0112  A5850300           [067] closure    22  14     
0116  12000008           [068] move       0   16     
011A  E5C50300           [069] closure    23  15     
011E  12000008           [070] move       0   16     
0122  12008008           [071] move       0   17     
0126  25060400           [072] closure    24  16     
012A  1200000B           [073] move       0   22     
012E  20860500           [074] setglobal  24  22       ; MeleeOnly
0132  20C60500           [075] setglobal  24  23       ; -1989691914
0136  25460400           [076] closure    24  17     
013A  1200800A           [077] move       0   21     
013E  20060600           [078] setglobal  24  24       ; SideArmOnly
0142  20460600           [079] setglobal  24  25       ; -2027165098
0146  25860400           [080] closure    24  18     
014A  1200000A           [081] move       0   20     
014E  20860600           [082] setglobal  24  26       ; LongGunOnly
0152  20C60600           [083] setglobal  24  27       ; -1346718159
0156  25C60400           [084] closure    24  19     
015A  1200800B           [085] move       0   23     
015E  20060700           [086] setglobal  24  28       ; PowersOnly
0162  20460700           [087] setglobal  24  29       ; -1377971305
0166  25060500           [088] closure    24  20     
016A  12000009           [089] move       0   18     
016E  20860700           [090] setglobal  24  30       ; ExtraDamage
0172  20C60700           [091] setglobal  24  31       ; 143939627
0176  25460500           [092] closure    24  21     
017A  12008009           [093] move       0   19     
017E  65860500           [094] closure    25  22     
0182  1200000C           [095] move       0   24     
0186  60060800           [096] setglobal  25  32       ; CloseRange
018A  60460800           [097] setglobal  25  33       ; 216748550
018E  65C60500           [098] closure    25  23     
0192  1200000C           [099] move       0   24     
0196  60860800           [100] setglobal  25  34       ; FarRange
019A  60C60800           [101] setglobal  25  35       ; -195579021
019E  65060600           [102] closure    25  24     
01A2  12000000           [103] move       0   0      
01A6  12000006           [104] move       0   12     
01AA  12008000           [105] move       0   1      
01AE  12000003           [106] move       0   6      
01B2  12008001           [107] move       0   3      
01B6  12008003           [108] move       0   7      
01BA  12000001           [109] move       0   2      
01BE  A5460600           [110] closure    26  25     
01C2  12008004           [111] move       0   9      
01C6  A0060900           [112] setglobal  26  36       ; OnPlayerSpawned
01CA  A0460900           [113] setglobal  26  37       ; -2127358586
01CE  A5860600           [114] closure    26  26     
01D2  12000005           [115] move       0   10     
01D6  12008005           [116] move       0   11     
01DA  A0860900           [117] setglobal  26  38       ; OnDeath
01DE  A0C60900           [118] setglobal  26  39       ; -988143666
01E2  A5C60600           [119] closure    26  27     
01E6  1200800C           [120] move       0   25     
01EA  A0060A00           [121] setglobal  26  40       ; RollMutators
01EE  A0460A00           [122] setglobal  26  41       ; -1118798539
01F2  A5060700           [123] closure    26  28     
01F6  A0860A00           [124] setglobal  26  42       ; OnGameRulesMasterInit
01FA  A0C60A00           [125] setglobal  26  43       ; -1815460199
01FE  A5460700           [126] closure    26  29     
0202  12000004           [127] move       0   8      
0206  A0060B00           [128] setglobal  26  44       ; OnUpdate
020A  A0460B00           [129] setglobal  26  45       ; -1493290172
020E  1E008000           [130] return     0   1      
                         * constants:
0212  2E                 sizek (46)
0213  01                 const type 3
0214  44DC9B32           const [0]: (849075268)
0218  04                 const type 4
0219  1F                 string size (31)
021A  4C6F7475732E496E+  "Lotus.In"
0222  746572666163652E+  "terface."
022A  4C6F747573557469+  "LotusUti"
0232  6C697469657300     "lities\0"
                         const [1]: "Lotus.Interface.LotusUtilities"
0239  04                 const type 4
023A  21                 string size (33)
023B  4C6F7475732E5363+  "Lotus.Sc"
0243  72697074732E4C69+  "ripts.Li"
024B  62732E4F626A6563+  "bs.Objec"
0253  7469766554657874+  "tiveText"
025B  00                 "\0"
                         const [2]: "Lotus.Scripts.Libs.ObjectiveText"
025C  03                 const type 3
025D  00000000           const [3]: (0)
0261  03                 const type 3
0262  00009643           const [4]: (0)
0266  01                 const type 3
0267  B043DCE6           const [5]: (-421772368)
026B  04                 const type 4
026C  28                 string size (40)
026D  2F4C6F7475732F4C+  "/Lotus/L"
0275  616E67756167652F+  "anguage/"
027D  47616D652F4E6967+  "Game/Nig"
0285  68746D6172654D6F+  "htmareMo"
028D  646554696D657200   "deTimer\0"
                         const [6]: "/Lotus/Language/Game/NightmareModeTimer"
0295  01                 const type 3
0296  1A4B27EC           const [7]: (-332969190)
029A  04                 const type 4
029B  2E                 string size (46)
029C  2F4C6F7475732F4C+  "/Lotus/L"
02A4  616E67756167652F+  "anguage/"
02AC  4F626A6563746976+  "Objectiv"
02B4  65732F4F626A6563+  "es/Objec"
02BC  7469766554696D65+  "tiveTime"
02C4  4C696D697400       "Limit\0"
                         const [8]: "/Lotus/Language/Objectives/ObjectiveTimeLimit"
02CA  04                 const type 4
02CB  0E                 string size (14)
02CC  4E696768746D6172+  "Nightmar"
02D4  654D6F646500       "eMode\0"
                         const [9]: "NightmareMode"
02DA  04                 const type 4
02DB  15                 string size (21)
02DC  4845414453484F54+  "HEADSHOT"
02E4  535F4F4E4C595F54+  "S_ONLY_T"
02EC  4F52534F00         "ORSO\0"
                         const [10]: "HEADSHOTS_ONLY_TORSO"
02F1  04                 const type 4
02F2  01                 string size (0)
                         const [11]: ""
02F4  04                 const type 4
02F5  18                 string size (24)
02F6  4845414453484F54+  "HEADSHOT"
02FE  535F4F4E4C595F41+  "S_ONLY_A"
0306  524D5F4C45465400   "RM_LEFT\0"
                         const [12]: "HEADSHOTS_ONLY_ARM_LEFT"
030E  04                 const type 4
030F  19                 string size (25)
0310  4845414453484F54+  "HEADSHOT"
0318  535F4F4E4C595F41+  "S_ONLY_A"
0320  524D5F5249474854+  "RM_RIGHT"
0328  00                 "\0"
                         const [13]: "HEADSHOTS_ONLY_ARM_RIGHT"
0329  04                 const type 4
032A  18                 string size (24)
032B  4845414453484F54+  "HEADSHOT"
0333  535F4F4E4C595F4C+  "S_ONLY_L"
033B  45475F4C45465400   "EG_LEFT\0"
                         const [14]: "HEADSHOTS_ONLY_LEG_LEFT"
0343  04                 const type 4
0344  19                 string size (25)
0345  4845414453484F54+  "HEADSHOT"
034D  535F4F4E4C595F4C+  "S_ONLY_L"
0355  45475F5249474854+  "EG_RIGHT"
035D  00                 "\0"
                         const [15]: "HEADSHOTS_ONLY_LEG_RIGHT"
035E  04                 const type 4
035F  0E                 string size (14)
0360  4865616473686F74+  "Headshot"
0368  734F6E6C7900       "sOnly\0"
                         const [16]: "HeadshotsOnly"
036E  01                 const type 3
036F  AB488A5C           const [17]: (1552566443)
0373  04                 const type 4
0374  11                 string size (17)
0375  4578706C6F64696E+  "Explodin"
037D  67436F7270736573+  "gCorpses"
0385  00                 "\0"
                         const [18]: "ExplodingCorpses"
0386  01                 const type 3
0387  31C2BE35           const [19]: (901694001)
038B  04                 const type 4
038C  0D                 string size (13)
038D  467269656E646C79+  "Friendly"
0395  4669726500         "Fire\0"
                         const [20]: "FriendlyFire"
039A  01                 const type 3
039B  103AC483           const [21]: (-2084292080)
039F  04                 const type 4
03A0  0A                 string size (10)
03A1  4D656C65654F6E6C+  "MeleeOnl"
03A9  7900               "y\0"
                         const [22]: "MeleeOnly"
03AB  01                 const type 3
03AC  F6B56789           const [23]: (-1989691914)
03B0  04                 const type 4
03B1  0C                 string size (12)
03B2  5369646541726D4F+  "SideArmO"
03BA  6E6C7900           "nly\0"
                         const [24]: "SideArmOnly"
03BE  01                 const type 3
03BF  56EA2B87           const [25]: (-2027165098)
03C3  04                 const type 4
03C4  0C                 string size (12)
03C5  4C6F6E6747756E4F+  "LongGunO"
03CD  6E6C7900           "nly\0"
                         const [26]: "LongGunOnly"
03D1  01                 const type 3
03D2  31B6BAAF           const [27]: (-1346718159)
03D6  04                 const type 4
03D7  0B                 string size (11)
03D8  506F776572734F6E+  "PowersOn"
03E0  6C7900             "ly\0"
                         const [28]: "PowersOnly"
03E3  01                 const type 3
03E4  97D3DDAD           const [29]: (-1377971305)
03E8  04                 const type 4
03E9  0C                 string size (12)
03EA  457874726144616D+  "ExtraDam"
03F2  61676500           "age\0"
                         const [30]: "ExtraDamage"
03F6  01                 const type 3
03F7  2B589408           const [31]: (143939627)
03FB  04                 const type 4
03FC  0B                 string size (11)
03FD  436C6F736552616E+  "CloseRan"
0405  676500             "ge\0"
                         const [32]: "CloseRange"
0408  01                 const type 3
0409  0652EB0C           const [33]: (216748550)
040D  04                 const type 4
040E  09                 string size (9)
040F  46617252616E6765+  "FarRange"
0417  00                 "\0"
                         const [34]: "FarRange"
0418  01                 const type 3
0419  73B357F4           const [35]: (-195579021)
041D  04                 const type 4
041E  10                 string size (16)
041F  4F6E506C61796572+  "OnPlayer"
0427  537061776E656400   "Spawned\0"
                         const [36]: "OnPlayerSpawned"
042F  01                 const type 3
0430  86153381           const [37]: (-2127358586)
0434  04                 const type 4
0435  08                 string size (8)
0436  4F6E446561746800   "OnDeath\0"
                         const [38]: "OnDeath"
043E  01                 const type 3
043F  CE1F1AC5           const [39]: (-988143666)
0443  04                 const type 4
0444  0D                 string size (13)
0445  526F6C6C4D757461+  "RollMuta"
044D  746F727300         "tors\0"
                         const [40]: "RollMutators"
0452  01                 const type 3
0453  357D50BD           const [41]: (-1118798539)
0457  04                 const type 4
0458  16                 string size (22)
0459  4F6E47616D655275+  "OnGameRu"
0461  6C65734D61737465+  "lesMaste"
0469  72496E697400       "rInit\0"
                         const [42]: "OnGameRulesMasterInit"
046F  01                 const type 3
0470  9946CA93           const [43]: (-1815460199)
0474  04                 const type 4
0475  09                 string size (9)
0476  4F6E557064617465+  "OnUpdate"
047E  00                 "\0"
                         const [44]: "OnUpdate"
047F  01                 const type 3
0480  4433FEA6           const [45]: (-1493290172)
                         * functions:
0484  1E                 sizep (30)
                         
0485                     ** function [0] definition (level 2)
                         ** start of function **
0485  00                 string size (0)
                         source name: (none)
0486  1B                 line defined (27)
0487  2E                 last line defined (46)
0488  00                 nups (0)
0489  00                 numparams (0)
048A  00                 is_vararg (0)
048B  0B                 maxstacksize (11)
                         * code:
048C  2E                 sizecode (46)
048D  1D000000           [01] getglobal  0   0        ; gGameRules
0491  24404000           [02] self       0   0   257  ; -346169016
0495  9D800000           [03] getglobal  2   2        ; Lotus_Game
0499  8EC04001           [04] gettable   2   2   259  ; "LotusBaseGameRules_NM_VAMPIRE"
049D  22808001           [05] call       0   3   2  
04A1  18400000           [06] test       0       1    ; to [8] if false
04A5  1A000080           [07] jmp        1            ; to [9]
04A9  1E008000           [08] return     0   1      
04AD  1D000100           [09] getglobal  0   4        ; gRegion
04B1  24404100           [10] self       0   0   261  ; -2071158816
04B5  22800001           [11] call       0   2   2  
04B9  59800100           [12] loadk      1   6        ; 0
04BD  8A000000           [13] len        2   0      
04C1  D9800100           [14] loadk      3   6        ; 0
04C5  50000780           [15] forprep    1   29       ; to [45]
04C9  4E010100           [16] gettable   5   0   4  
04CD  64C1C102           [17] self       5   5   263  ; 796523475
04D1  62810001           [18] call       5   2   2  
04D5  8E010100           [19] gettable   6   0   4  
04D9  A4014203           [20] self       6   6   264  ; 945541886
04DD  A2810001           [21] call       6   2   2  
fail op	35
04E1  63808102           [22] close      1  
04E5  1A000580           [23] jmp        21           ; to [45]
04E9  CE010100           [24] gettable   7   0   4  
04ED  E441C203           [25] self       7   7   265  ; 1511086594
04F1  E2810001           [26] call       7   2   2  
04F5  D8410000           [27] test       7       1    ; to [29] if false
04F9  1AC00380           [28] jmp        16           ; to [45]
04FD  CE010100           [29] gettable   7   0   4  
0501  E481C203           [30] self       7   7   266  ; -1519595333
0505  E2810001           [31] call       7   2   2  
0509  D8410000           [32] test       7       1    ; to [34] if false
050D  1A800280           [33] jmp        11           ; to [45]
0511  DDC10200           [34] getglobal  7   11       ; math
0515  CE01C303           [35] gettable   7   7   268  ; -1962864584
0519  1D420300           [36] getglobal  8   13       ; vampireModeHealthRegenPcnt
051D  04020203           [37] mul        8   6   8  
0521  03028202           [38] add        8   5   8  
0525  59820100           [39] loadk      9   6        ; 0
0529  E2818001           [40] call       7   3   2  
052D  0E020100           [41] gettable   8   0   4  
0531  24824304           [42] self       8   8   270  ; 1992436207
0535  92028003           [43] move       10  7      
0539  22428001           [44] call       8   3   1  
053D  5440F87F           [45] forloop    1   -30      ; to [16] if loop
0541  1E008000           [46] return     0   1      
                         * constants:
0545  0F                 sizek (15)
0546  04                 const type 4
0547  0B                 string size (11)
0548  6747616D6552756C+  "gGameRul"
0550  657300             "es\0"
                         const [0]: "gGameRules"
0553  01                 const type 3
0554  48E15DEB           const [1]: (-346169016)
0558  04                 const type 4
0559  0B                 string size (11)
055A  4C6F7475735F4761+  "Lotus_Ga"
0562  6D6500             "me\0"
                         const [2]: "Lotus_Game"
0565  04                 const type 4
0566  1E                 string size (30)
0567  4C6F747573426173+  "LotusBas"
056F  6547616D6552756C+  "eGameRul"
0577  65735F4E4D5F5641+  "es_NM_VA"
057F  4D5049524500       "MPIRE\0"
                         const [3]: "LotusBaseGameRules_NM_VAMPIRE"
0585  04                 const type 4
0586  08                 string size (8)
0587  67526567696F6E00   "gRegion\0"
                         const [4]: "gRegion"
058F  01                 const type 3
0590  E09F8C84           const [5]: (-2071158816)
0594  03                 const type 3
0595  0000803F           const [6]: (0)
0599  01                 const type 3
059A  D3FB792F           const [7]: (796523475)
059E  01                 const type 3
059F  FED25B38           const [8]: (945541886)
05A3  01                 const type 3
05A4  025A115A           const [9]: (1511086594)
05A8  01                 const type 3
05A9  BBD06CA5           const [10]: (-1519595333)
05AD  04                 const type 4
05AE  05                 string size (5)
05AF  6D61746800         "math\0"
                         const [11]: "math"
05B4  01                 const type 3
05B5  3810018B           const [12]: (-1962864584)
05B9  04                 const type 4
05BA  1B                 string size (27)
05BB  76616D706972654D+  "vampireM"
05C3  6F64654865616C74+  "odeHealt"
05CB  68526567656E5063+  "hRegenPc"
05D3  6E7400             "nt\0"
                         const [13]: "vampireModeHealthRegenPcnt"
05D6  01                 const type 3
05D7  EF29C276           const [14]: (1992436207)
                         * functions:
05DB  00                 sizep (0)
                         * lines:
05DC  2E                 sizelineinfo (46)
                         [pc] (line)
05DD  1D                 [01] (29)
05DE  00                 [02] (29)
05DF  00                 [03] (29)
05E0  00                 [04] (29)
05E1  1D                 [05] (29)
05E2  00                 [06] (29)
05E3  00                 [07] (29)
05E4  00                 [08] (30)
05E5  1D                 [09] (33)
05E6  00                 [10] (33)
05E7  00                 [11] (33)
05E8  00                 [12] (35)
05E9  1D                 [13] (35)
05EA  00                 [14] (35)
05EB  00                 [15] (35)
05EC  00                 [16] (36)
05ED  1D                 [17] (36)
05EE  00                 [18] (36)
05EF  00                 [19] (37)
05F0  00                 [20] (37)
05F1  1D                 [21] (37)
05F2  00                 [22] (39)
05F3  00                 [23] (39)
05F4  00                 [24] (39)
05F5  1D                 [25] (39)
05F6  00                 [26] (39)
05F7  00                 [27] (39)
05F8  00                 [28] (39)
05F9  1E                 [29] (39)
05FA  00                 [30] (39)
05FB  00                 [31] (39)
05FC  00                 [32] (39)
05FD  21                 [33] (39)
05FE  00                 [34] (41)
05FF  00                 [35] (41)
0600  00                 [36] (41)
0601  21                 [37] (41)
0602  00                 [38] (41)
0603  00                 [39] (41)
0604  00                 [40] (41)
0605  21                 [41] (42)
0606  00                 [42] (42)
0607  00                 [43] (42)
0608  00                 [44] (42)
0609  23                 [45] (35)
060A  00                 [46] (46)
                         * locals:
0695  00                 sizelocvars (0)
                         * upvalues:
0696  00                 sizeupvalues (0)
                         ** end of function **

                         
0697                     ** function [1] definition (level 2)
                         ** start of function **
0697  00                 string size (0)
                         source name: (none)
0698  30                 line defined (48)
0699  46                 last line defined (70)
069A  03                 nups (3)
069B  00                 numparams (0)
069C  00                 is_vararg (0)
069D  0A                 maxstacksize (10)
                         * code:
069E  3A                 sizecode (58)
069F  1D000000           [01] getglobal  0   0        ; gGameRules
06A3  24404000           [02] self       0   0   257  ; -346169016
06A7  9D800000           [03] getglobal  2   2        ; Lotus_Game
06AB  8EC04001           [04] gettable   2   2   259  ; "LotusBaseGameRules_NM_TIMED"
06AF  22808001           [05] call       0   3   2  
06B3  18400000           [06] test       0       1    ; to [8] if false
06B7  1A000080           [07] jmp        1            ; to [9]
06BB  1E008000           [08] return     0   1      
06BF  1D000100           [09] getglobal  0   4        ; _T
06C3  0E404100           [10] gettable   0   0   261  ; 1515565072
06C7  59800100           [11] loadk      1   6        ; "NMTimer"
06CB  22800001           [12] call       0   2   2  
06CF  5DC00100           [13] getglobal  1   7        ; 1074689893
06D3  92000000           [14] move       2   0      
06D7  62800001           [15] call       1   2   2  
06DB  58000000           [16] test       1       0    ; to [18] if true
06DF  1AC00580           [17] jmp        24           ; to [42]
06E3  53000000           [18] getupval   1   0      
06E7  4E00C200           [19] gettable   1   1   264  ; 28862632
06EB  62808000           [20] call       1   1   2  
06EF  4340C200           [21] add        1   1   265  ; 0
06F3  93000000           [22] getupval   2   0      
06F7  8E804201           [23] gettable   2   2   266  ; -95499506
06FB  A2C08000           [24] call       2   1   3  
06FF  1D010100           [25] getglobal  4   4        ; _T
0703  0EC14202           [26] gettable   4   4   267  ; 972116663
0707  59810100           [27] loadk      5   6        ; "NMTimer"
070B  93018000           [28] getupval   6   1      
070F  8E014303           [29] gettable   6   6   268  ; "HT_TIMER"
0713  D9410300           [30] loadk      7   13       ; 0
0717  12028000           [31] move       8   1      
071B  22818002           [32] call       4   5   2  
071F  12000002           [33] move       0   4      
0723  0E814300           [34] gettable   4   0   270  ; 934616952
0727  53010001           [35] getupval   5   2      
072B  22410001           [36] call       4   2   1  
072F  0EC14300           [37] gettable   4   0   271  ; -632628974
0733  52010001           [38] move       5   2      
0737  92018001           [39] move       6   3      
073B  D7018000           [40] loadbool   7   1   0    ; true
073F  22410002           [41] call       4   4   1  
0743  0E014400           [42] gettable   4   0   272  ; "Data"
0747  0E414402           [43] gettable   4   4   273  ; "Time"
fail op	35
074B  23804402           [44] close      0  
074F  1A000080           [45] jmp        1            ; to [47]
0753  19C10400           [46] loadk      4   19       ; 0
0757  4E014500           [47] gettable   5   0   276  ; 185724978
075B  99410500           [48] loadk      6   21       ; "/Lotus/Language/Game/SurvivalTimeAdded"
075F  D9810500           [49] loadk      7   22       ; 0
0763  62418001           [50] call       5   3   1  
0767  4EC14500           [51] gettable   5   0   279  ; -805743707
076B  9D010600           [52] getglobal  6   24       ; timedModeIncrement
076F  83810102           [53] add        6   4   6  
0773  D7010000           [54] loadbool   7   0   0    ; false
0777  17028000           [55] loadbool   8   1   0    ; true
077B  57028000           [56] loadbool   9   1   0    ; true
077F  62418002           [57] call       5   5   1  
0783  1E008000           [58] return     0   1      
                         * constants:
0787  19                 sizek (25)
0788  04                 const type 4
0789  0B                 string size (11)
078A  6747616D6552756C+  "gGameRul"
0792  657300             "es\0"
                         const [0]: "gGameRules"
0795  01                 const type 3
0796  48E15DEB           const [1]: (-346169016)
079A  04                 const type 4
079B  0B                 string size (11)
079C  4C6F7475735F4761+  "Lotus_Ga"
07A4  6D6500             "me\0"
                         const [2]: "Lotus_Game"
07A7  04                 const type 4
07A8  1C                 string size (28)
07A9  4C6F747573426173+  "LotusBas"
07B1  6547616D6552756C+  "eGameRul"
07B9  65735F4E4D5F5449+  "es_NM_TI"
07C1  4D454400           "MED\0"
                         const [3]: "LotusBaseGameRules_NM_TIMED"
07C5  04                 const type 4
07C6  03                 string size (3)
07C7  5F5400             "_T\0"
                         const [4]: "_T"
07CA  01                 const type 3
07CB  10B0555A           const [5]: (1515565072)
07CF  04                 const type 4
07D0  08                 string size (8)
07D1  4E4D54696D657200   "NMTimer\0"
                         const [6]: "NMTimer"
07D9  01                 const type 3
07DA  65770E40           const [7]: (1074689893)
07DE  01                 const type 3
07DF  A868B801           const [8]: (28862632)
07E3  03                 const type 3
07E4  0000C040           const [9]: (0)
07E8  01                 const type 3
07E9  0ECB4EFA           const [10]: (-95499506)
07ED  01                 const type 3
07EE  B752F139           const [11]: (972116663)
07F2  04                 const type 4
07F3  09                 string size (9)
07F4  48545F54494D4552+  "HT_TIMER"
07FC  00                 "\0"
                         const [12]: "HT_TIMER"
07FD  03                 const type 3
07FE  0000803E           const [13]: (0)
0802  01                 const type 3
0803  781FB537           const [14]: (934616952)
0807  01                 const type 3
0808  12D94ADA           const [15]: (-632628974)
080C  04                 const type 4
080D  05                 string size (5)
080E  4461746100         "Data\0"
                         const [16]: "Data"
0813  04                 const type 4
0814  05                 string size (5)
0815  54696D6500         "Time\0"
                         const [17]: "Time"
081A  00                 const type 0
                         const [18]: nil
081B  03                 const type 3
081C  00000000           const [19]: (0)
0820  01                 const type 3
0821  32F0110B           const [20]: (185724978)
0825  04                 const type 4
0826  27                 string size (39)
0827  2F4C6F7475732F4C+  "/Lotus/L"
082F  616E67756167652F+  "anguage/"
0837  47616D652F537572+  "Game/Sur"
083F  766976616C54696D+  "vivalTim"
0847  65416464656400     "eAdded\0"
                         const [21]: "/Lotus/Language/Game/SurvivalTimeAdded"
084E  03                 const type 3
084F  0000A040           const [22]: (0)
0853  01                 const type 3
0854  A553F9CF           const [23]: (-805743707)
0858  04                 const type 4
0859  13                 string size (19)
085A  74696D65644D6F64+  "timedMod"
0862  65496E6372656D65+  "eIncreme"
086A  6E7400             "nt\0"
                         const [24]: "timedModeIncrement"
                         * functions:
086D  00                 sizep (0)
                         * lines:
086E  3A                 sizelineinfo (58)
                         [pc] (line)
086F  32                 [01] (50)
0870  00                 [02] (50)
0871  00                 [03] (50)
0872  00                 [04] (50)
0873  32                 [05] (50)
0874  00                 [06] (50)
0875  00                 [07] (50)
0876  00                 [08] (51)
0877  32                 [09] (55)
0878  00                 [10] (55)
0879  00                 [11] (55)
087A  00                 [12] (55)
087B  32                 [13] (56)
087C  00                 [14] (56)
087D  00                 [15] (56)
087E  00                 [16] (56)
087F  32                 [17] (56)
0880  00                 [18] (57)
0881  00                 [19] (57)
0882  00                 [20] (57)
0883  32                 [21] (57)
0884  00                 [22] (58)
0885  00                 [23] (58)
0886  00                 [24] (58)
0887  32                 [25] (59)
0888  00                 [26] (59)
0889  00                 [27] (59)
088A  00                 [28] (59)
088B  33                 [29] (59)
088C  00                 [30] (59)
088D  00                 [31] (59)
088E  00                 [32] (59)
088F  37                 [33] (59)
0890  00                 [34] (60)
0891  00                 [35] (60)
0892  00                 [36] (60)
0893  37                 [37] (61)
0894  00                 [38] (61)
0895  00                 [39] (61)
0896  00                 [40] (61)
0897  37                 [41] (61)
0898  00                 [42] (63)
0899  00                 [43] (63)
089A  00                 [44] (64)
089B  37                 [45] (64)
089C  00                 [46] (65)
089D  00                 [47] (67)
089E  00                 [48] (67)
089F  38                 [49] (67)
08A0  00                 [50] (67)
08A1  00                 [51] (68)
08A2  00                 [52] (68)
08A3  38                 [53] (68)
08A4  00                 [54] (68)
08A5  00                 [55] (68)
08A6  00                 [56] (68)
08A7  38                 [57] (68)
08A8  00                 [58] (70)
                         * locals:
0957  00                 sizelocvars (0)
                         * upvalues:
0958  00                 sizeupvalues (0)
                         ** end of function **

                         
0959                     ** function [2] definition (level 2)
                         ** start of function **
0959  00                 string size (0)
                         source name: (none)
095A  48                 line defined (72)
095B  66                 last line defined (102)
095C  01                 nups (1)
095D  00                 numparams (0)
095E  00                 is_vararg (0)
095F  0E                 maxstacksize (14)
                         * code:
0960  3E                 sizecode (62)
0961  13000000           [01] getupval   0   0      
fail op	21
0965  15004000           [02] concat     0   0   256
0969  1A000080           [03] jmp        1            ; to [5]
096D  1E008000           [04] return     0   1      
0971  1D400000           [05] getglobal  0   1        ; gGameRules
0975  64804000           [06] self       1   0   258  ; 1398776580
0979  62800001           [07] call       1   2   2  
097D  58000000           [08] test       1       0    ; to [10] if true
0981  1A000080           [09] jmp        1            ; to [11]
0985  1E008000           [10] return     0   1      
0989  5DC00000           [11] getglobal  1   3        ; gRegion
098D  6400C100           [12] self       1   1   260  ; -2071158816
0991  62800001           [13] call       1   2   2  
0995  99000000           [14] loadk      2   0        ; 0
0999  CA008000           [15] len        3   1      
099D  19010000           [16] loadk      4   0        ; 0
09A1  90000A80           [17] forprep    2   41       ; to [59]
09A5  8E418100           [18] gettable   6   1   5  
09A9  A4414103           [19] self       6   6   261  ; -1544157541
09AD  A2810001           [20] call       6   2   2  
09B1  CE418100           [21] gettable   7   1   5  
09B5  E481C103           [22] self       7   7   262  ; -1903333237
09B9  E2810001           [23] call       7   2   2  
09BD  0E428100           [24] gettable   8   1   5  
09C1  24C24104           [25] self       8   8   263  ; 796523475
09C5  22820001           [26] call       8   2   2  
09C9  4E428100           [27] gettable   9   1   5  
09CD  6402C204           [28] self       9   9   264  ; 945541886
09D1  62820001           [29] call       9   2   2  
fail op	21
09D5  15008284           [30] concat     0   265 8  
09D9  1A800680           [31] jmp        27           ; to [59]
09DD  8E428100           [32] gettable   10  1   5  
09E1  A4824205           [33] self       10  10  266  ; 1511086594
09E5  A2820001           [34] call       10  2   2  
09E9  98420000           [35] test       10      1    ; to [37] if false
09ED  1A400580           [36] jmp        22           ; to [59]
09F1  8E428100           [37] gettable   10  1   5  
09F5  A4C24205           [38] self       10  10  267  ; -1519595333
09F9  A2820001           [39] call       10  2   2  
09FD  98420000           [40] test       10      1    ; to [42] if false
0A01  1A000480           [41] jmp        17           ; to [59]
0A05  9D020300           [42] getglobal  10  12       ; math
0A09  8E424305           [43] gettable   10  10  269  ; -1962864584
0A0D  DD820300           [44] getglobal  11  14       ; vampireModeHealthDegenPcnt
0A11  C4C28204           [45] mul        11  9   11 
0A15  CDC20204           [46] sub        11  8   11 
0A19  19C30300           [47] loadk      12  15       ; 0
0A1D  A2828001           [48] call       10  3   2  
fail op	33
0A21  21C04305           [49] tforloop   0       271  ; to [51] if exit
0A25  1AC00080           [50] jmp        4            ; to [55]
0A29  DD020400           [51] getglobal  11  16       ; 538022378
0A2D  19430200           [52] loadk      12  9        ; 0
0A31  E2420001           [53] call       11  2   1  
0A35  1AC00080           [54] jmp        4            ; to [59]
0A39  CE428100           [55] gettable   11  1   5  
0A3D  E442C405           [56] self       11  11  273  ; 1992436207
0A41  52030005           [57] move       13  10     
0A45  E2428001           [58] call       11  3   1  
0A49  9440F57F           [59] forloop    2   -42      ; to [18] if loop
0A4D  D9420200           [60] loadk      11  9        ; 0
fail op	8
0A51  C8020000           [61] setupval   11  0      
0A55  1E008000           [62] return     0   1      
                         * constants:
0A59  12                 sizek (18)
0A5A  03                 const type 3
0A5B  0000803F           const [0]: (0)
0A5F  04                 const type 4
0A60  0B                 string size (11)
0A61  6747616D6552756C+  "gGameRul"
0A69  657300             "es\0"
                         const [1]: "gGameRules"
0A6C  01                 const type 3
0A6D  04A35F53           const [2]: (1398776580)
0A71  04                 const type 4
0A72  08                 string size (8)
0A73  67526567696F6E00   "gRegion\0"
                         const [3]: "gRegion"
0A7B  01                 const type 3
0A7C  E09F8C84           const [4]: (-2071158816)
0A80  01                 const type 3
0A81  9B06F6A3           const [5]: (-1544157541)
0A85  01                 const type 3
0A86  8B708D8E           const [6]: (-1903333237)
0A8A  01                 const type 3
0A8B  D3FB792F           const [7]: (796523475)
0A8F  01                 const type 3
0A90  FED25B38           const [8]: (945541886)
0A94  03                 const type 3
0A95  00000000           const [9]: (0)
0A99  01                 const type 3
0A9A  025A115A           const [10]: (1511086594)
0A9E  01                 const type 3
0A9F  BBD06CA5           const [11]: (-1519595333)
0AA3  04                 const type 4
0AA4  05                 string size (5)
0AA5  6D61746800         "math\0"
                         const [12]: "math"
0AAA  01                 const type 3
0AAB  3810018B           const [13]: (-1962864584)
0AAF  04                 const type 4
0AB0  1B                 string size (27)
0AB1  76616D706972654D+  "vampireM"
0AB9  6F64654865616C74+  "odeHealt"
0AC1  68446567656E5063+  "hDegenPc"
0AC9  6E7400             "nt\0"
                         const [14]: "vampireModeHealthDegenPcnt"
0ACC  03                 const type 3
0ACD  00000040           const [15]: (0)
0AD1  01                 const type 3
0AD2  EA911120           const [16]: (538022378)
0AD6  01                 const type 3
0AD7  EF29C276           const [17]: (1992436207)
                         * functions:
0ADB  00                 sizep (0)
                         * lines:
0ADC  3E                 sizelineinfo (62)
                         [pc] (line)
0ADD  4A                 [01] (74)
0ADE  00                 [02] (74)
0ADF  00                 [03] (74)
0AE0  00                 [04] (75)
0AE1  4A                 [05] (78)
0AE2  00                 [06] (79)
0AE3  00                 [07] (79)
0AE4  00                 [08] (79)
0AE5  4A                 [09] (79)
0AE6  00                 [10] (80)
0AE7  00                 [11] (83)
0AE8  00                 [12] (83)
0AE9  4B                 [13] (83)
0AEA  00                 [14] (84)
0AEB  00                 [15] (84)
0AEC  00                 [16] (84)
0AED  4E                 [17] (84)
0AEE  00                 [18] (85)
0AEF  00                 [19] (85)
0AF0  00                 [20] (85)
0AF1  4F                 [21] (86)
0AF2  00                 [22] (86)
0AF3  00                 [23] (86)
0AF4  00                 [24] (87)
0AF5  4F                 [25] (87)
0AF6  00                 [26] (87)
0AF7  00                 [27] (88)
0AF8  00                 [28] (88)
0AF9  4F                 [29] (88)
0AFA  00                 [30] (89)
0AFB  00                 [31] (89)
0AFC  00                 [32] (89)
0AFD  4F                 [33] (89)
0AFE  00                 [34] (89)
0AFF  00                 [35] (89)
0B00  00                 [36] (89)
0B01  50                 [37] (89)
0B02  00                 [38] (89)
0B03  00                 [39] (89)
0B04  00                 [40] (89)
0B05  53                 [41] (89)
0B06  00                 [42] (91)
0B07  00                 [43] (91)
0B08  00                 [44] (91)
0B09  53                 [45] (91)
0B0A  00                 [46] (91)
0B0B  00                 [47] (91)
0B0C  00                 [48] (91)
0B0D  53                 [49] (92)
0B0E  00                 [50] (92)
0B0F  00                 [51] (94)
0B10  00                 [52] (94)
0B11  54                 [53] (94)
0B12  00                 [54] (94)
0B13  00                 [55] (96)
0B14  00                 [56] (96)
0B15  54                 [57] (96)
0B16  00                 [58] (96)
0B17  00                 [59] (84)
0B18  00                 [60] (101)
0B19  54                 [61] (101)
0B1A  00                 [62] (102)
                         * locals:
0BD5  00                 sizelocvars (0)
                         * upvalues:
0BD6  00                 sizeupvalues (0)
                         ** end of function **

                         
0BD7                     ** function [3] definition (level 2)
                         ** start of function **
0BD7  00                 string size (0)
                         source name: (none)
0BD8  68                 line defined (104)
0BD9  7A                 last line defined (122)
0BDA  00                 nups (0)
0BDB  00                 numparams (0)
0BDC  00                 is_vararg (0)
0BDD  0B                 maxstacksize (11)
                         * code:
0BDE  22                 sizecode (34)
0BDF  1D000000           [01] getglobal  0   0        ; gGameRules
0BE3  64404000           [02] self       1   0   257  ; 1398776580
0BE7  62800001           [03] call       1   2   2  
0BEB  58000000           [04] test       1       0    ; to [6] if true
0BEF  1A000080           [05] jmp        1            ; to [7]
0BF3  1E008000           [06] return     0   1      
0BF7  5D800000           [07] getglobal  1   2        ; gRegion
0BFB  64C0C000           [08] self       1   1   259  ; -2071158816
0BFF  62800001           [09] call       1   2   2  
0C03  99000100           [10] loadk      2   4        ; 0
0C07  CA008000           [11] len        3   1      
0C0B  19010100           [12] loadk      4   4        ; 0
0C0F  90C00380           [13] forprep    2   16       ; to [30]
0C13  9D410100           [14] getglobal  6   5        ; 1074689893
0C17  CE418100           [15] gettable   7   1   5  
0C1B  A2810001           [16] call       6   2   2  
0C1F  98410000           [17] test       6       1    ; to [19] if false
0C23  1A800280           [18] jmp        11           ; to [30]
0C27  8E418100           [19] gettable   6   1   5  
0C2B  A4814103           [20] self       6   6   262  ; -1917464545
0C2F  A2810001           [21] call       6   2   2  
0C33  A4C14103           [22] self       6   6   263  ; 1769516121
0C37  A2810001           [23] call       6   2   2  
0C3B  E4014203           [24] self       7   6   264  ; -11213033
0C3F  E2810001           [25] call       7   2   2  
0C43  24424203           [26] self       8   6   265  ; -338878752
fail op	0
0C47  80028003           [27] move       10  7      
0C4B  84824205           [28] mul        10  10  266  ; 111
0C4F  22428001           [29] call       8   3   1  
0C53  9480FB7F           [30] forloop    2   -17      ; to [14] if loop
0C57  1DC20200           [31] getglobal  8   11       ; 538022378
0C5B  59020300           [32] loadk      9   12       ; 0
0C5F  22420001           [33] call       8   2   1  
0C63  1E008000           [34] return     0   1      
                         * constants:
0C67  0D                 sizek (13)
0C68  04                 const type 4
0C69  0B                 string size (11)
0C6A  6747616D6552756C+  "gGameRul"
0C72  657300             "es\0"
                         const [0]: "gGameRules"
0C75  01                 const type 3
0C76  04A35F53           const [1]: (1398776580)
0C7A  04                 const type 4
0C7B  08                 string size (8)
0C7C  67526567696F6E00   "gRegion\0"
                         const [2]: "gRegion"
0C84  01                 const type 3
0C85  E09F8C84           const [3]: (-2071158816)
0C89  03                 const type 3
0C8A  0000803F           const [4]: (0)
0C8E  01                 const type 3
0C8F  65770E40           const [5]: (1074689893)
0C93  01                 const type 3
0C94  1FD0B58D           const [6]: (-1917464545)
0C98  01                 const type 3
0C99  59AC7869           const [7]: (1769516121)
0C9D  01                 const type 3
0C9E  17E754FF           const [8]: (-11213033)
0CA2  01                 const type 3
0CA3  E01ECDEB           const [9]: (-338878752)
0CA7  03                 const type 3
0CA8  6F12033A           const [10]: (111)
0CAC  01                 const type 3
0CAD  EA911120           const [11]: (538022378)
0CB1  03                 const type 3
0CB2  00000000           const [12]: (0)
                         * functions:
0CB6  00                 sizep (0)
                         * lines:
0CB7  22                 sizelineinfo (34)
                         [pc] (line)
0CB8  6A                 [01] (106)
0CB9  00                 [02] (107)
0CBA  00                 [03] (107)
0CBB  00                 [04] (107)
0CBC  6B                 [05] (107)
0CBD  00                 [06] (108)
0CBE  00                 [07] (111)
0CBF  00                 [08] (111)
0CC0  6B                 [09] (111)
0CC1  00                 [10] (112)
0CC2  00                 [11] (112)
0CC3  00                 [12] (112)
0CC4  6B                 [13] (112)
0CC5  00                 [14] (113)
0CC6  00                 [15] (113)
0CC7  00                 [16] (113)
0CC8  6B                 [17] (113)
0CC9  00                 [18] (113)
0CCA  00                 [19] (114)
0CCB  00                 [20] (114)
0CCC  6C                 [21] (114)
0CCD  00                 [22] (114)
0CCE  00                 [23] (114)
0CCF  00                 [24] (115)
0CD0  6F                 [25] (115)
0CD1  00                 [26] (116)
0CD2  00                 [27] (116)
0CD3  00                 [28] (116)
0CD4  6F                 [29] (116)
0CD5  00                 [30] (112)
0CD6  00                 [31] (120)
0CD7  00                 [32] (120)
0CD8  6F                 [33] (120)
0CD9  00                 [34] (122)
                         * locals:
0D40  00                 sizelocvars (0)
                         * upvalues:
0D41  00                 sizeupvalues (0)
                         ** end of function **

                         
0D42                     ** function [4] definition (level 2)
                         ** start of function **
0D42  00                 string size (0)
                         source name: (none)
0D43  7C                 line defined (124)
0D44  8B                 last line defined (139)
0D45  01                 nups (0)
0D46  00                 numparams (0)
0D47  00                 is_vararg (0)
0D48  00                 maxstacksize (9)
                         * code:
0D4A  2E                 sizecode (46)
0D4B  1D000000           [01] getglobal  0   0        ; gRegion
0D4F  24404000           [02] self       0   0   257  ; -2071158816
0D53  22800001           [03] call       0   2   2  
0D57  59800000           [04] loadk      1   2        ; 0
0D5B  8A000000           [05] len        2   0      
0D5F  D9800000           [06] loadk      3   2        ; 0
0D63  50000980           [07] forprep    1   37       ; to [45]
0D67  5DC10000           [08] getglobal  5   3        ; 1074689893
0D6B  8E010100           [09] gettable   6   0   4  
0D6F  62810001           [10] call       5   2   2  
0D73  58410000           [11] test       5       1    ; to [13] if false
0D77  1AC00780           [12] jmp        32           ; to [45]
0D7B  4E010100           [13] gettable   5   0   4  
0D7F  6401C102           [14] self       5   5   260  ; -1544157541
0D83  62810001           [15] call       5   2   2  
0D87  6441C102           [16] self       5   5   261  ; -1814078075
0D8B  D9810100           [17] loadk      7   6        ; 0
0D8F  62418001           [18] call       5   3   1  
0D93  4E010100           [19] gettable   5   0   4  
0D97  6401C102           [20] self       5   5   260  ; -1544157541
0D9B  62810001           [21] call       5   2   2  
0D9F  64C1C102           [22] self       5   5   263  ; -1992773175
0DA3  D9810100           [23] loadk      7   6        ; 0
0DA7  62418001           [24] call       5   3   1  
0DAB  4E010100           [25] gettable   5   0   4  
0DAF  6401C202           [26] self       5   5   264  ; -1917464545
0DB3  62810001           [27] call       5   2   2  
0DB7  6441C202           [28] self       5   5   265  ; -2021369130
0DBB  62810001           [29] call       5   2   2  
0DBF  9DC10000           [30] getglobal  6   3        ; 1074689893
0DC3  D2018002           [31] move       7   5      
0DC7  A2810001           [32] call       6   2   2  
0DCB  98410000           [33] test       6       1    ; to [35] if false
0DCF  1A400280           [34] jmp        10           ; to [45]
0DD3  A401C102           [35] self       6   5   260  ; -1544157541
0DD7  A2810001           [36] call       6   2   2  
0DDB  A4414103           [37] self       6   6   261  ; -1814078075
0DDF  19820100           [38] loadk      8   6        ; 0
0DE3  A2418001           [39] call       6   3   1  
0DE7  A401C102           [40] self       6   5   260  ; -1544157541
0DEB  A2810001           [41] call       6   2   2  
0DEF  A4C14103           [42] self       6   6   263  ; -1992773175
0DF3  19820100           [43] loadk      8   6        ; 0
0DF7  A2418001           [44] call       6   3   1  
0DFB  5440F67F           [45] forloop    1   -38      ; to [8] if loop
0DFF  1E008000           [46] return     0   1      
                         * constants:
0E03  0A                 sizek (10)
0E04  04                 const type 4
0E05  08                 string size (8)
0E06  67526567696F6E00   "gRegion\0"
                         const [0]: "gRegion"
0E0E  01                 const type 3
0E0F  E09F8C84           const [1]: (-2071158816)
0E13  03                 const type 3
0E14  0000803F           const [2]: (0)
0E18  01                 const type 3
0E19  65770E40           const [3]: (1074689893)
0E1D  01                 const type 3
0E1E  9B06F6A3           const [4]: (-1544157541)
0E22  01                 const type 3
0E23  855DDF93           const [5]: (-1814078075)
0E27  03                 const type 3
0E28  00000000           const [6]: (0)
0E2C  01                 const type 3
0E2D  C9B13889           const [7]: (-1992773175)
0E31  01                 const type 3
0E32  1FD0B58D           const [8]: (-1917464545)
0E36  01                 const type 3
0E37  D65A8487           const [9]: (-2021369130)
                         * functions:
0E3B  00                 sizep (0)
                         * lines:
0E3C  2E                 sizelineinfo (46)
                         [pc] (line)
0E3D  7E                 [01] (126)
0E3E  00                 [02] (126)
0E3F  00                 [03] (126)
0E40  00                 [04] (127)
0E41  7E                 [05] (127)
0E42  00                 [06] (127)
0E43  00                 [07] (127)
0E44  00                 [08] (-128)
0E45  7E                 [09] (-128)
0E46  00                 [10] (-128)
0E47  00                 [11] (-128)
0E48  00                 [12] (-128)
0E49  7F                 [13] (-127)
0E4A  00                 [14] (-127)
0E4B  00                 [15] (-127)
0E4C  00                 [16] (-127)
0E4D  7F                 [17] (-127)
0E4E  00                 [18] (-127)
0E4F  00                 [19] (-126)
0E50  00                 [20] (-126)
0E51  7F                 [21] (-126)
0E52  00                 [22] (-126)
0E53  00                 [23] (-126)
0E54  00                 [24] (-126)
0E55  7F                 [25] (-125)
0E56  00                 [26] (-125)
0E57  00                 [27] (-125)
0E58  00                 [28] (-125)
0E59  80                 [29] (-125)
0E5A  00                 [30] (-124)
0E5B  00                 [31] (-124)
0E5C  00                 [32] (-124)
0E5D  80                 [33] (-124)
0E5E  00                 [34] (-124)
0E5F  00                 [35] (-123)
0E60  00                 [36] (-123)
0E61  80                 [37] (-123)
0E62  00                 [38] (-123)
0E63  00                 [39] (-123)
0E64  00                 [40] (-122)
0E65  80                 [41] (-122)
0E66  00                 [42] (-122)
0E67  00                 [43] (-122)
0E68  00                 [44] (-122)
0E69  80                 [45] (127)
0E6A  00                 [46] (-117)
                         * locals:
0EF5  00                 sizelocvars (0)
                         * upvalues:
0EF6  00                 sizeupvalues (0)
                         ** end of function **

                         
0EF7                     ** function [5] definition (level 2)
                         ** start of function **
0EF7  00                 string size (0)
                         source name: (none)
0EF9  01                 line defined (143)
0EFA  9A                 last line defined (154)
0EFB  01                 nups (1)
0EFC  01                 numparams (4)
0EFD  04                 is_vararg (0)
0EFE  00                 maxstacksize (14)
                         * code:
0F00  21                 sizecode (33)
0F01  2401C000           [01] self       4   1   256  ; -1544157541
0F05  22810001           [02] call       4   2   2  
0F09  24414002           [03] self       4   4   257  ; 384745901
0F0D  9D810000           [04] getglobal  6   2        ; Engine
0F11  8EC14003           [05] gettable   6   6   259  ; "HEAD"
0F15  22818001           [06] call       4   3   2  
0F19  5D010100           [07] getglobal  5   4        ; EMPTY_SYMBOL
fail op	35
0F1D  23400102           [08] close      0  
0F21  1A000080           [09] jmp        1            ; to [11]
0F25  1E008000           [10] return     0   1      
0F29  19410100           [11] loadk      4   5        ; 0
0F2D  5D810000           [12] getglobal  5   2        ; Engine
0F31  4E81C102           [13] gettable   5   5   262  ; "ANY_PART"
0F35  4DC1C102           [14] sub        5   5   263  ; 0
0F39  99C10100           [15] loadk      6   7        ; 0
0F3D  10810380           [16] forprep    4   15       ; to [32]
0F41  1D820000           [17] getglobal  8   2        ; Engine
0F45  0EC24004           [18] gettable   8   8   259  ; "HEAD"
fail op	35
0F49  63008203           [19] close      1  
0F4D  1A800280           [20] jmp        11           ; to [32]
0F51  2402C000           [21] self       8   1   256  ; -1544157541
0F55  22820001           [22] call       8   2   2  
0F59  24024204           [23] self       8   8   264  ; -1844106636
0F5D  93020000           [24] getupval   10  0      
0F61  C3C2C103           [25] add        11  7   263  ; 0
0F65  8EC20205           [26] gettable   10  10  11 
0F69  DD820000           [27] getglobal  11  2        ; Engine
0F6D  CE42C205           [28] gettable   11  11  265  ; "DT_ANY"
0F71  12038003           [29] move       12  7      
0F75  59430100           [30] loadk      13  5        ; 0
0F79  22420003           [31] call       8   6   1  
0F7D  14C1FB7F           [32] forloop    4   -16      ; to [17] if loop
0F81  1E008000           [33] return     0   1      
                         * constants:
0F85  0A                 sizek (10)
0F86  01                 const type 3
0F87  9B06F6A3           const [0]: (-1544157541)
0F8B  01                 const type 3
0F8C  ADC1EE16           const [1]: (384745901)
0F90  04                 const type 4
0F91  07                 string size (7)
0F92  456E67696E6500     "Engine\0"
                         const [2]: "Engine"
0F99  04                 const type 4
0F9A  05                 string size (5)
0F9B  4845414400         "HEAD\0"
                         const [3]: "HEAD"
0FA0  04                 const type 4
0FA1  0D                 string size (13)
0FA2  454D5054595F5359+  "EMPTY_SY"
0FAA  4D424F4C00         "MBOL\0"
                         const [4]: "EMPTY_SYMBOL"
0FAF  03                 const type 3
0FB0  00000000           const [5]: (0)
0FB4  04                 const type 4
0FB5  09                 string size (9)
0FB6  414E595F50415254+  "ANY_PART"
0FBE  00                 "\0"
                         const [6]: "ANY_PART"
0FBF  03                 const type 3
0FC0  0000803F           const [7]: (0)
0FC4  01                 const type 3
0FC5  742A1592           const [8]: (-1844106636)
0FC9  04                 const type 4
0FCA  07                 string size (7)
0FCB  44545F414E5900     "DT_ANY\0"
                         const [9]: "DT_ANY"
                         * functions:
0FD2  00                 sizep (0)
                         * lines:
0FD3  21                 sizelineinfo (33)
                         [pc] (line)
0FD4  91                 [01] (-111)
0FD5  00                 [02] (-111)
0FD6  00                 [03] (-111)
0FD7  00                 [04] (-111)
0FD8  91                 [05] (-111)
0FD9  00                 [06] (-111)
0FDA  00                 [07] (-111)
0FDB  00                 [08] (-111)
0FDC  91                 [09] (-111)
0FDD  00                 [10] (-110)
0FDE  00                 [11] (-107)
0FDF  00                 [12] (-107)
0FE0  91                 [13] (-107)
0FE1  00                 [14] (-107)
0FE2  00                 [15] (-107)
0FE3  00                 [16] (-107)
0FE4  91                 [17] (-106)
0FE5  00                 [18] (-106)
0FE6  00                 [19] (-106)
0FE7  00                 [20] (-106)
0FE8  91                 [21] (-105)
0FE9  00                 [22] (-105)
0FEA  00                 [23] (-105)
0FEB  00                 [24] (-105)
0FEC  91                 [25] (-105)
0FED  00                 [26] (-105)
0FEE  00                 [27] (-105)
0FEF  00                 [28] (-105)
0FF0  91                 [29] (-105)
0FF1  00                 [30] (-105)
0FF2  00                 [31] (-105)
0FF3  00                 [32] (-107)
0FF4  91                 [33] (-102)
                         * locals:
1058  00                 sizelocvars (0)
                         * upvalues:
1059  00                 sizeupvalues (0)
                         ** end of function **

                         
105A                     ** function [6] definition (level 2)
                         ** start of function **
105A  00                 string size (0)
                         source name: (none)
105C  01                 line defined (156)
105D  A7                 last line defined (167)
105E  01                 nups (0)
105F  00                 numparams (4)
1060  04                 is_vararg (0)
1061  00                 maxstacksize (10)
                         * code:
1063  1A                 sizecode (26)
1064  2401C000           [01] self       4   1   256  ; -1544157541
1068  22810001           [02] call       4   2   2  
106C  24414002           [03] self       4   4   257  ; -1547655606
1070  22810001           [04] call       4   2   2  
1074  6481C000           [05] self       5   1   258  ; 945541886
1078  62810001           [06] call       5   2   2  
107C  44C1C002           [07] mul        5   5   259  ; 0
fail op	21
1080  15400102           [08] concat     0   4   5  
1084  1A000180           [09] jmp        5            ; to [15]
1088  A401C000           [10] self       6   1   256  ; -1544157541
108C  A2810001           [11] call       6   2   2  
1090  A4014103           [12] self       6   6   260  ; -1993207888
1094  12028002           [13] move       8   5      
1098  A2418001           [14] call       6   3   1  
109C  A401C000           [15] self       6   1   256  ; -1544157541
10A0  A2810001           [16] call       6   2   2  
10A4  A4414103           [17] self       6   6   261  ; -1994300457
10A8  A2810001           [18] call       6   2   2  
fail op	21
10AC  15804103           [19] concat     0   6   262
10B0  1A000180           [20] jmp        5            ; to [26]
10B4  E401C000           [21] self       7   1   256  ; -1544157541
10B8  E2810001           [22] call       7   2   2  
10BC  E4C1C103           [23] self       7   7   263  ; -456750710
10C0  59820100           [24] loadk      9   6        ; 0
10C4  E2418001           [25] call       7   3   1  
10C8  1E008000           [26] return     0   1      
                         * constants:
10CC  08                 sizek (8)
10CD  01                 const type 3
10CE  9B06F6A3           const [0]: (-1544157541)
10D2  01                 const type 3
10D3  4AA6C0A3           const [1]: (-1547655606)
10D7  01                 const type 3
10D8  FED25B38           const [2]: (945541886)
10DC  03                 const type 3
10DD  0000003F           const [3]: (0)
10E1  01                 const type 3
10E2  B00F3289           const [4]: (-1993207888)
10E6  01                 const type 3
10E7  D7632189           const [5]: (-1994300457)
10EB  03                 const type 3
10EC  00000040           const [6]: (0)
10F0  01                 const type 3
10F1  8A89C6E4           const [7]: (-456750710)
                         * functions:
10F5  00                 sizep (0)
                         * lines:
10F6  1A                 sizelineinfo (26)
                         [pc] (line)
10F7  9D                 [01] (-99)
10F8  00                 [02] (-99)
10F9  00                 [03] (-99)
10FA  00                 [04] (-99)
10FB  9D                 [05] (-98)
10FC  00                 [06] (-98)
10FD  00                 [07] (-98)
10FE  00                 [08] (-97)
10FF  9D                 [09] (-97)
1100  00                 [10] (-96)
1101  00                 [11] (-96)
1102  00                 [12] (-96)
1103  9D                 [13] (-96)
1104  00                 [14] (-96)
1105  00                 [15] (-93)
1106  00                 [16] (-93)
1107  9E                 [17] (-93)
1108  00                 [18] (-93)
1109  00                 [19] (-92)
110A  00                 [20] (-92)
110B  9E                 [21] (-91)
110C  00                 [22] (-91)
110D  00                 [23] (-91)
110E  00                 [24] (-91)
110F  9E                 [25] (-91)
1110  00                 [26] (-89)
                         * locals:
115F  00                 sizelocvars (0)
                         * upvalues:
1160  00                 sizeupvalues (0)
                         ** end of function **

                         
1161                     ** function [7] definition (level 2)
                         ** start of function **
1161  00                 string size (0)
                         source name: (none)
1163  01                 line defined (169)
1164  AF                 last line defined (175)
1165  01                 nups (0)
1166  00                 numparams (4)
1167  04                 is_vararg (0)
1168  00                 maxstacksize (8)
                         * code:
116A  14                 sizecode (20)
116B  2401C000           [01] self       4   1   256  ; -1544157541
116F  22810001           [02] call       4   2   2  
1173  24414002           [03] self       4   4   257  ; 144116188
1177  97010000           [04] loadbool   6   0   0    ; false
117B  22418001           [05] call       4   3   1  
117F  2481C000           [06] self       4   1   258  ; -1917464545
1183  22810001           [07] call       4   2   2  
1187  24C14002           [08] self       4   4   259  ; -2021369130
118B  22810001           [09] call       4   2   2  
118F  5D010100           [10] getglobal  5   4        ; 1074689893
1193  92010002           [11] move       6   4      
1197  62810001           [12] call       5   2   2  
119B  58410000           [13] test       5       1    ; to [15] if false
119F  1A000180           [14] jmp        5            ; to [20]
11A3  64014002           [15] self       5   4   256  ; -1544157541
11A7  62810001           [16] call       5   2   2  
11AB  6441C002           [17] self       5   5   257  ; 144116188
11AF  D7010000           [18] loadbool   7   0   0    ; false
11B3  62418001           [19] call       5   3   1  
11B7  1E008000           [20] return     0   1      
                         * constants:
11BB  05                 sizek (5)
11BC  01                 const type 3
11BD  9B06F6A3           const [0]: (-1544157541)
11C1  01                 const type 3
11C2  DC099708           const [1]: (144116188)
11C6  01                 const type 3
11C7  1FD0B58D           const [2]: (-1917464545)
11CB  01                 const type 3
11CC  D65A8487           const [3]: (-2021369130)
11D0  01                 const type 3
11D1  65770E40           const [4]: (1074689893)
                         * functions:
11D5  00                 sizep (0)
                         * lines:
11D6  14                 sizelineinfo (20)
                         [pc] (line)
11D7  AA                 [01] (-86)
11D8  00                 [02] (-86)
11D9  00                 [03] (-86)
11DA  00                 [04] (-86)
11DB  AA                 [05] (-86)
11DC  00                 [06] (-85)
11DD  00                 [07] (-85)
11DE  00                 [08] (-85)
11DF  AA                 [09] (-85)
11E0  00                 [10] (-84)
11E1  00                 [11] (-84)
11E2  00                 [12] (-84)
11E3  AA                 [13] (-84)
11E4  00                 [14] (-84)
11E5  00                 [15] (-83)
11E6  00                 [16] (-83)
11E7  AA                 [17] (-83)
11E8  00                 [18] (-83)
11E9  00                 [19] (-83)
11EA  00                 [20] (-81)
                         * locals:
1227  00                 sizelocvars (0)
                         * upvalues:
1228  00                 sizeupvalues (0)
                         ** end of function **

                         
1229                     ** function [8] definition (level 2)
                         ** start of function **
1229  00                 string size (0)
                         source name: (none)
122B  01                 line defined (177)
122C  DF                 last line defined (223)
122D  01                 nups (0)
122E  00                 numparams (2)
122F  02                 is_vararg (0)
1230  00                 maxstacksize (16)
                         * code:
1233  01                 sizecode (132)
1234  9D000000           [001] getglobal  2   0        ; 1074689893
1238  D2008000           [002] move       3   1      
123C  A2800001           [003] call       2   2   2  
1240  98000000           [004] test       2       0    ; to [6] if true
1244  1A000080           [005] jmp        1            ; to [7]
1248  1E008000           [006] return     0   1      
124C  A440C000           [007] self       2   1   257  ; 366271214
1250  1D810000           [008] getglobal  4   2        ; weaponAttachmentType
1254  A2808001           [009] call       2   3   2  
1258  E4C0C000           [010] self       3   1   259  ; -1917464545
125C  E2800001           [011] call       3   2   2  
1260  2401C100           [012] self       4   1   260  ; 1408791382
1264  22810001           [013] call       4   2   2  
1268  46018002           [014] loadnil    5   5      
126C  9D010000           [015] getglobal  6   0        ; 1074689893
1270  D2010000           [016] move       7   0      
1274  A2810001           [017] call       6   2   2  
1278  98010000           [018] test       6       0    ; to [20] if true
127C  1A400180           [019] jmp        6            ; to [26]
1280  A441C101           [020] self       6   3   261  ; 1856017039
1284  1D820100           [021] getglobal  8   6        ; Engine
1288  0EC24104           [022] gettable   8   8   263  ; "MAIN_HAND"
128C  A2818001           [023] call       6   3   2  
1290  52010003           [024] move       5   6      
1294  1AC00080           [025] jmp        4            ; to [30]
1298  A401C201           [026] self       6   3   264  ; 1674984496
129C  12020000           [027] move       8   0      
12A0  A2818001           [028] call       6   3   2  
12A4  52010003           [029] move       5   6      
12A8  9D010000           [030] getglobal  6   0        ; 1074689893
12AC  D2018002           [031] move       7   5      
12B0  A2810001           [032] call       6   2   2  
12B4  98410000           [033] test       6       1    ; to [35] if false
12B8  1A400280           [034] jmp        10           ; to [45]
12BC  9D810100           [035] getglobal  6   6        ; Engine
12C0  8E414203           [036] gettable   6   6   265  ; "SLOT_6"
fail op	35
12C4  23800100           [037] close      0  
12C8  1AC00480           [038] jmp        20           ; to [59]
12CC  A481C202           [039] self       6   5   266  ; -227172805
12D0  A2810001           [040] call       6   2   2  
12D4  DD810100           [041] getglobal  7   6        ; Engine
12D8  CEC1C203           [042] gettable   7   7   267  ; "EXTRA2"
fail op	35
12DC  63C00103           [043] close      1  
12E0  1A400380           [044] jmp        14           ; to [59]
12E4  9D010300           [045] getglobal  6   12       ; 538022378
12E8  D9410300           [046] loadk      7   13       ; 0
12EC  A2410001           [047] call       6   2   1  
12F0  9D010000           [048] getglobal  6   0        ; 1074689893
12F4  D2018002           [049] move       7   5      
12F8  A2810001           [050] call       6   2   2  
12FC  98010000           [051] test       6       0    ; to [53] if true
1300  1A00FA7F           [052] jmp        -23          ; to [30]
1304  A441C101           [053] self       6   3   261  ; 1856017039
1308  1D820100           [054] getglobal  8   6        ; Engine
130C  0EC24104           [055] gettable   8   8   263  ; "MAIN_HAND"
1310  A2818001           [056] call       6   3   2  
1314  52010003           [057] move       5   6      
1318  1A80F87F           [058] jmp        -29          ; to [30]
131C  99810300           [059] loadk      6   14       ; 0
1320  CA010001           [060] len        7   2      
1324  19820300           [061] loadk      8   14       ; 0
1328  90C10380           [062] forprep    6   16       ; to [79]
132C  8E420201           [063] gettable   10  2   9  
1330  A4C24305           [064] self       10  10  271  ; 421792552
1334  A2820001           [065] call       10  2   2  
1338  DD020000           [066] getglobal  11  0        ; 1074689893
133C  12030005           [067] move       12  10     
1340  E2820001           [068] call       11  2   2  
1344  D8420000           [069] test       11      1    ; to [71] if false
1348  1AC00180           [070] jmp        8            ; to [79]
134C  E4024405           [071] self       11  10  272  ; -1057537912
1350  E2820001           [072] call       11  2   2  
fail op	35
1354  63008005           [073] close      1  
1358  1AC00080           [074] jmp        4            ; to [79]
135C  CE420201           [075] gettable   11  2   9  
1360  E442C405           [076] self       11  11  273  ; 1344228817
1364  57038000           [077] loadbool   13  1   0    ; true
1368  E2428001           [078] call       11  3   1  
136C  9481FB7F           [079] forloop    6   -17      ; to [63] if loop
1370  E482C401           [080] self       11  3   274  ; 1630514237
1374  5D830100           [081] getglobal  13  6        ; Engine
1378  4EC3C406           [082] gettable   13  13  275  ; "SLOT_1"
137C  9D830100           [083] getglobal  14  6        ; Engine
1380  8E034507           [084] gettable   14  14  276  ; "InventoryControllerBase_ES_INSTANT_EQUIP"
1384  E2420002           [085] call       11  4   1  
1388  E482C401           [086] self       11  3   274  ; 1630514237
138C  5D830100           [087] getglobal  13  6        ; Engine
1390  4E43C506           [088] gettable   13  13  277  ; "SLOT_2"
1394  9D830100           [089] getglobal  14  6        ; Engine
1398  8E034507           [090] gettable   14  14  276  ; "InventoryControllerBase_ES_INSTANT_EQUIP"
139C  E2420002           [091] call       11  4   1  
13A0  E482C401           [092] self       11  3   274  ; 1630514237
13A4  5D830100           [093] getglobal  13  6        ; Engine
13A8  4E43C206           [094] gettable   13  13  265  ; "SLOT_6"
13AC  9D830100           [095] getglobal  14  6        ; Engine
13B0  8E034507           [096] gettable   14  14  276  ; "InventoryControllerBase_ES_INSTANT_EQUIP"
13B4  E2420002           [097] call       11  4   1  
13B8  DD820100           [098] getglobal  11  6        ; Engine
13BC  CE42C205           [099] gettable   11  11  265  ; "SLOT_6"
fail op	35
13C0  23C00200           [100] close      0  
13C4  1AC00180           [101] jmp        8            ; to [110]
13C8  E482C501           [102] self       11  3   278  ; 688774453
13CC  52030000           [103] move       13  0      
13D0  9D830100           [104] getglobal  14  6        ; Engine
13D4  8EC34207           [105] gettable   14  14  267  ; "EXTRA2"
13D8  DD830100           [106] getglobal  15  6        ; Engine
13DC  CE03C507           [107] gettable   15  15  276  ; "InventoryControllerBase_ES_INSTANT_EQUIP"
13E0  E2428002           [108] call       11  5   1  
13E4  1A800480           [109] jmp        19           ; to [129]
13E8  DD020000           [110] getglobal  11  0        ; 1074689893
13EC  12030000           [111] move       12  0      
13F0  E2820001           [112] call       11  2   2  
13F4  D8020000           [113] test       11      0    ; to [115] if true
13F8  1AC00080           [114] jmp        4            ; to [119]
13FC  E4C24502           [115] self       11  4   279  ; 286467361
1400  57030000           [116] loadbool   13  0   0    ; false
1404  E2428001           [117] call       11  3   1  
1408  1A400280           [118] jmp        10           ; to [129]
140C  E4C24502           [119] self       11  4   279  ; 286467361
1410  57030000           [120] loadbool   13  0   0    ; false
1414  E2428001           [121] call       11  3   1  
1418  E482C501           [122] self       11  3   278  ; 688774453
141C  52030000           [123] move       13  0      
1420  9D830100           [124] getglobal  14  6        ; Engine
1424  8EC34107           [125] gettable   14  14  263  ; "MAIN_HAND"
1428  DD830100           [126] getglobal  15  6        ; Engine
142C  CE03C507           [127] gettable   15  15  276  ; "InventoryControllerBase_ES_INSTANT_EQUIP"
1430  E2428002           [128] call       11  5   1  
1434  E402C601           [129] self       11  3   280  ; -1331347373
1438  57030000           [130] loadbool   13  0   0    ; false
143C  E2428001           [131] call       11  3   1  
1440  1E008000           [132] return     0   1      
                         * constants:
1444  19                 sizek (25)
1445  01                 const type 3
1446  65770E40           const [0]: (1074689893)
144A  01                 const type 3
144B  EEDAD415           const [1]: (366271214)
144F  04                 const type 4
1450  15                 string size (21)
1451  776561706F6E4174+  "weaponAt"
1459  746163686D656E74+  "tachment"
1461  5479706500         "Type\0"
                         const [2]: "weaponAttachmentType"
1466  01                 const type 3
1467  1FD0B58D           const [3]: (-1917464545)
146B  01                 const type 3
146C  5673F853           const [4]: (1408791382)
1470  01                 const type 3
1471  8F92A06E           const [5]: (1856017039)
1475  04                 const type 4
1476  07                 string size (7)
1477  456E67696E6500     "Engine\0"
                         const [6]: "Engine"
147E  04                 const type 4
147F  0A                 string size (10)
1480  4D41494E5F48414E+  "MAIN_HAN"
1488  4400               "D\0"
                         const [7]: "MAIN_HAND"
148A  01                 const type 3
148B  303CD663           const [8]: (1674984496)
148F  04                 const type 4
1490  07                 string size (7)
1491  534C4F545F3600     "SLOT_6\0"
                         const [9]: "SLOT_6"
1498  01                 const type 3
1499  3B9E75F2           const [10]: (-227172805)
149D  04                 const type 4
149E  07                 string size (7)
149F  45585452413200     "EXTRA2\0"
                         const [11]: "EXTRA2"
14A6  01                 const type 3
14A7  EA911120           const [12]: (538022378)
14AB  03                 const type 3
14AC  00000000           const [13]: (0)
14B0  03                 const type 3
14B1  0000803F           const [14]: (0)
14B5  01                 const type 3
14B6  280B2419           const [15]: (421792552)
14BA  01                 const type 3
14BB  8840F7C0           const [16]: (-1057537912)
14BF  01                 const type 3
14C0  D14D1F50           const [17]: (1344228817)
14C4  01                 const type 3
14C5  3DAC2F61           const [18]: (1630514237)
14C9  04                 const type 4
14CA  07                 string size (7)
14CB  534C4F545F3100     "SLOT_1\0"
                         const [19]: "SLOT_1"
14D2  04                 const type 4
14D3  29                 string size (41)
14D4  496E76656E746F72+  "Inventor"
14DC  79436F6E74726F6C+  "yControl"
14E4  6C6572426173655F+  "lerBase_"
14EC  45535F494E535441+  "ES_INSTA"
14F4  4E545F4551554950+  "NT_EQUIP"
14FC  00                 "\0"
                         const [20]: "InventoryControllerBase_ES_INSTANT_EQUIP"
14FD  04                 const type 4
14FE  07                 string size (7)
14FF  534C4F545F3200     "SLOT_2\0"
                         const [21]: "SLOT_2"
1506  01                 const type 3
1507  35DD0D29           const [22]: (688774453)
150B  01                 const type 3
150C  21251311           const [23]: (286467361)
1510  01                 const type 3
1511  5340A5B0           const [24]: (-1331347373)
                         * functions:
1515  00                 sizep (0)
                         * lines:
1517  01                 sizelineinfo (132)
                         [pc] (line)
1518  B3                 [001] (-77)
1519  00                 [002] (-77)
151A  00                 [003] (-77)
151B  00                 [004] (-77)
151C  B3                 [005] (-77)
151D  00                 [006] (-76)
151E  00                 [007] (-73)
151F  00                 [008] (-73)
1520  B3                 [009] (-73)
1521  00                 [010] (-72)
1522  00                 [011] (-72)
1523  00                 [012] (-71)
1524  B3                 [013] (-71)
1525  00                 [014] (-70)
1526  00                 [015] (-68)
1527  00                 [016] (-68)
1528  B3                 [017] (-68)
1529  00                 [018] (-68)
152A  00                 [019] (-68)
152B  00                 [020] (-67)
152C  B4                 [021] (-67)
152D  00                 [022] (-67)
152E  00                 [023] (-67)
152F  00                 [024] (-67)
1530  B7                 [025] (-67)
1531  00                 [026] (-65)
1532  00                 [027] (-65)
1533  00                 [028] (-65)
1534  B7                 [029] (-65)
1535  00                 [030] (-62)
1536  00                 [031] (-62)
1537  00                 [032] (-62)
1538  B7                 [033] (-62)
1539  00                 [034] (-62)
153A  00                 [035] (-62)
153B  00                 [036] (-62)
153C  B8                 [037] (-62)
153D  00                 [038] (-62)
153E  00                 [039] (-62)
153F  00                 [040] (-62)
1540  B8                 [041] (-62)
1541  00                 [042] (-62)
1542  00                 [043] (-62)
1543  00                 [044] (-62)
1544  B9                 [045] (-61)
1545  00                 [046] (-61)
1546  00                 [047] (-61)
1547  00                 [048] (-60)
1548  B9                 [049] (-60)
1549  00                 [050] (-60)
154A  00                 [051] (-60)
154B  00                 [052] (-60)
154C  BA                 [053] (-59)
154D  00                 [054] (-59)
154E  00                 [055] (-59)
154F  00                 [056] (-59)
1550  BC                 [057] (-59)
1551  00                 [058] (-58)
1552  00                 [059] (-55)
1553  00                 [060] (-55)
1554  BC                 [061] (-55)
1555  00                 [062] (-55)
1556  00                 [063] (-54)
1557  00                 [064] (-54)
1558  BC                 [065] (-54)
1559  00                 [066] (-52)
155A  00                 [067] (-52)
155B  00                 [068] (-52)
155C  BC                 [069] (-52)
155D  00                 [070] (-52)
155E  00                 [071] (-52)
155F  00                 [072] (-52)
1560  BC                 [073] (-52)
1561  00                 [074] (-52)
1562  00                 [075] (-51)
1563  00                 [076] (-51)
1564  BD                 [077] (-51)
1565  00                 [078] (-51)
1566  00                 [079] (-55)
1567  00                 [080] (-47)
1568  BD                 [081] (-47)
1569  00                 [082] (-47)
156A  00                 [083] (-47)
156B  00                 [084] (-47)
156C  BD                 [085] (-47)
156D  00                 [086] (-46)
156E  00                 [087] (-46)
156F  00                 [088] (-46)
1570  BD                 [089] (-46)
1571  00                 [090] (-46)
1572  00                 [091] (-46)
1573  00                 [092] (-45)
1574  BD                 [093] (-45)
1575  00                 [094] (-45)
1576  00                 [095] (-45)
1577  00                 [096] (-45)
1578  BD                 [097] (-45)
1579  00                 [098] (-43)
157A  00                 [099] (-43)
157B  00                 [100] (-43)
157C  BF                 [101] (-43)
157D  00                 [102] (-42)
157E  00                 [103] (-42)
157F  00                 [104] (-42)
1580  BF                 [105] (-42)
1581  00                 [106] (-42)
1582  00                 [107] (-42)
1583  00                 [108] (-42)
1584  BF                 [109] (-42)
1585  00                 [110] (-41)
1586  00                 [111] (-41)
1587  00                 [112] (-41)
1588  BF                 [113] (-41)
1589  00                 [114] (-41)
158A  00                 [115] (-40)
158B  00                 [116] (-40)
158C  C2                 [117] (-40)
158D  00                 [118] (-40)
158E  00                 [119] (-38)
158F  00                 [120] (-38)
1590  C2                 [121] (-38)
1591  00                 [122] (-37)
1592  00                 [123] (-37)
1593  00                 [124] (-37)
1594  C2                 [125] (-37)
1595  00                 [126] (-37)
1596  00                 [127] (-37)
1597  00                 [128] (-37)
1598  C2                 [129] (-35)
1599  00                 [130] (-35)
159A  00                 [131] (-35)
159B  00                 [132] (-33)
                         * locals:
1728  00                 sizelocvars (0)
                         * upvalues:
1729  00                 sizeupvalues (0)
                         ** end of function **

                         
172A                     ** function [9] definition (level 2)
                         ** start of function **
172A  00                 string size (0)
                         source name: (none)
172C  01                 line defined (225)
172D  E6                 last line defined (230)
172E  01                 nups (0)
172F  00                 numparams (2)
1730  02                 is_vararg (0)
1731  00                 maxstacksize (7)
                         * code:
1733  0A                 sizecode (10)
1734  A4004000           [01] self       2   0   256  ; -11213033
1738  A2800001           [02] call       2   2   2  
173C  DD400000           [03] getglobal  3   1        ; 1289681407
1740  E2808000           [04] call       3   1   2  
1744  C4C00001           [05] mul        3   2   3  
1748  C4408001           [06] mul        3   3   1  
174C  24814000           [07] self       4   0   258  ; -338878752
1750  92018001           [08] move       6   3      
1754  22418001           [09] call       4   3   1  
1758  1E008000           [10] return     0   1      
                         * constants:
175C  03                 sizek (3)
175D  01                 const type 3
175E  17E754FF           const [0]: (-11213033)
1762  01                 const type 3
1763  FFF9DE4C           const [1]: (1289681407)
1767  01                 const type 3
1768  E01ECDEB           const [2]: (-338878752)
                         * functions:
176C  00                 sizep (0)
                         * lines:
176D  0A                 sizelineinfo (10)
                         [pc] (line)
176E  E2                 [01] (-30)
176F  00                 [02] (-30)
1770  00                 [03] (-29)
1771  00                 [04] (-29)
1772  E2                 [05] (-29)
1773  00                 [06] (-29)
1774  00                 [07] (-27)
1775  00                 [08] (-27)
1776  E3                 [09] (-27)
1777  00                 [10] (-26)
                         * locals:
1796  00                 sizelocvars (0)
                         * upvalues:
1797  00                 sizeupvalues (0)
                         ** end of function **

                         
1798                     ** function [10] definition (level 2)
                         ** start of function **
1798  00                 string size (0)
                         source name: (none)
179A  01                 line defined (232)
179B  FB                 last line defined (251)
179C  01                 nups (0)
179D  00                 numparams (2)
179E  02                 is_vararg (0)
179F  00                 maxstacksize (11)
                         * code:
17A1  3F                 sizecode (63)
17A2  A4004000           [01] self       2   0   256  ; 455421500
17A6  A2800001           [02] call       2   2   2  
17AA  E4404000           [03] self       3   0   257  ; 945541886
17AE  E2800001           [04] call       3   2   2  
17B2  24814000           [05] self       4   0   258  ; 796523475
17B6  22810001           [06] call       4   2   2  
17BA  5DC10000           [07] getglobal  5   3        ; 1289681407
17BE  62818000           [08] call       5   1   2  
17C2  44418101           [09] mul        5   3   5  
17C6  44418002           [10] mul        5   5   1  
17CA  9D010100           [11] getglobal  6   4        ; 1074689893
17CE  DD410100           [12] getglobal  7   5        ; _T
17D2  CE81C103           [13] gettable   7   7   262  ; "gHealthRegen"
17D6  A2810001           [14] call       6   2   2  
17DA  98010000           [15] test       6       0    ; to [17] if true
17DE  1A800080           [16] jmp        3            ; to [20]
17E2  9D410100           [17] getglobal  6   5        ; _T
17E6  CB010000           [18] newtable   7   0   0    ; array=0, hash=0
17EA  8CC10183           [19] settable   6   262 7    ; "gHealthRegen"
17EE  9D010100           [20] getglobal  6   4        ; 1074689893
17F2  DD410100           [21] getglobal  7   5        ; _T
17F6  CE81C103           [22] gettable   7   7   262  ; "gHealthRegen"
17FA  CE818003           [23] gettable   7   7   2  
17FE  A2810001           [24] call       6   2   2  
1802  98010000           [25] test       6       0    ; to [27] if true
1806  1A800080           [26] jmp        3            ; to [30]
180A  9D410100           [27] getglobal  6   5        ; _T
180E  8E814103           [28] gettable   6   6   262  ; "gHealthRegen"
1812  8CC14101           [29] settable   6   2   263  ; 0
1816  9D410100           [30] getglobal  6   5        ; _T
181A  8E814103           [31] gettable   6   6   262  ; "gHealthRegen"
181E  DD410100           [32] getglobal  7   5        ; _T
1822  CE81C103           [33] gettable   7   7   262  ; "gHealthRegen"
1826  CE818003           [34] gettable   7   7   2  
182A  C3418103           [35] add        7   7   5  
182E  8CC10101           [36] settable   6   2   7  
1832  9D410100           [37] getglobal  6   5        ; _T
1836  8E814103           [38] gettable   6   6   262  ; "gHealthRegen"
183A  8E810003           [39] gettable   6   6   2  
fail op	21
183E  15800184           [40] concat     0   264 6  
1842  1A000580           [41] jmp        21           ; to [63]
1846  A4414200           [42] self       6   0   265  ; 1511086594
184A  A2810001           [43] call       6   2   2  
184E  98410000           [44] test       6       1    ; to [46] if false
1852  1A000480           [45] jmp        17           ; to [63]
1856  A4814200           [46] self       6   0   266  ; -1519595333
185A  A2810001           [47] call       6   2   2  
185E  98410000           [48] test       6       1    ; to [50] if false
1862  1A000380           [49] jmp        13           ; to [63]
1866  A4C14200           [50] self       6   0   267  ; 1992436207
186A  1D020300           [51] getglobal  8   12       ; math
186E  0E424304           [52] gettable   8   8   269  ; 1710846250
1872  52028001           [53] move       9   3      
1876  9D420100           [54] getglobal  10  5        ; _T
187A  8E824105           [55] gettable   10  10  262  ; "gHealthRegen"
187E  8E820005           [56] gettable   10  10  2  
1882  83820202           [57] add        10  4   10 
1886  22028001           [58] call       8   3   0  
188A  A2410000           [59] call       6   0   1  
188E  9D410100           [60] getglobal  6   5        ; _T
1892  8E814103           [61] gettable   6   6   262  ; "gHealthRegen"
1896  8CC14101           [62] settable   6   2   263  ; 0
189A  1E008000           [63] return     0   1      
                         * constants:
189E  0E                 sizek (14)
189F  01                 const type 3
18A0  3C2E251B           const [0]: (455421500)
18A4  01                 const type 3
18A5  FED25B38           const [1]: (945541886)
18A9  01                 const type 3
18AA  D3FB792F           const [2]: (796523475)
18AE  01                 const type 3
18AF  FFF9DE4C           const [3]: (1289681407)
18B3  01                 const type 3
18B4  65770E40           const [4]: (1074689893)
18B8  04                 const type 4
18B9  03                 string size (3)
18BA  5F5400             "_T\0"
                         const [5]: "_T"
18BD  04                 const type 4
18BE  0D                 string size (13)
18BF  674865616C746852+  "gHealthR"
18C7  6567656E00         "egen\0"
                         const [6]: "gHealthRegen"
18CC  03                 const type 3
18CD  00000000           const [7]: (0)
18D1  03                 const type 3
18D2  0000803F           const [8]: (0)
18D6  01                 const type 3
18D7  025A115A           const [9]: (1511086594)
18DB  01                 const type 3
18DC  BBD06CA5           const [10]: (-1519595333)
18E0  01                 const type 3
18E1  EF29C276           const [11]: (1992436207)
18E5  04                 const type 4
18E6  05                 string size (5)
18E7  6D61746800         "math\0"
                         const [12]: "math"
18EC  01                 const type 3
18ED  2A71F965           const [13]: (1710846250)
                         * functions:
18F1  00                 sizep (0)
                         * lines:
18F2  3F                 sizelineinfo (63)
                         [pc] (line)
18F3  E9                 [01] (-23)
18F4  00                 [02] (-23)
18F5  00                 [03] (-22)
18F6  00                 [04] (-22)
18F7  E9                 [05] (-21)
18F8  00                 [06] (-21)
18F9  00                 [07] (-20)
18FA  00                 [08] (-20)
18FB  EA                 [09] (-20)
18FC  00                 [10] (-20)
18FD  00                 [11] (-18)
18FE  00                 [12] (-18)
18FF  EA                 [13] (-18)
1900  00                 [14] (-18)
1901  00                 [15] (-18)
1902  00                 [16] (-18)
1903  EB                 [17] (-17)
1904  00                 [18] (-17)
1905  00                 [19] (-17)
1906  00                 [20] (-14)
1907  EB                 [21] (-14)
1908  00                 [22] (-14)
1909  00                 [23] (-14)
190A  00                 [24] (-14)
190B  EC                 [25] (-14)
190C  00                 [26] (-14)
190D  00                 [27] (-13)
190E  00                 [28] (-13)
190F  EC                 [29] (-13)
1910  00                 [30] (-10)
1911  00                 [31] (-10)
1912  00                 [32] (-10)
1913  EC                 [33] (-10)
1914  00                 [34] (-10)
1915  00                 [35] (-10)
1916  00                 [36] (-10)
1917  EC                 [37] (-9)
1918  00                 [38] (-9)
1919  00                 [39] (-9)
191A  00                 [40] (-9)
191B  EE                 [41] (-9)
191C  00                 [42] (-9)
191D  00                 [43] (-9)
191E  00                 [44] (-9)
191F  EE                 [45] (-9)
1920  00                 [46] (-9)
1921  00                 [47] (-9)
1922  00                 [48] (-9)
1923  EE                 [49] (-9)
1924  00                 [50] (-8)
1925  00                 [51] (-8)
1926  00                 [52] (-8)
1927  EE                 [53] (-8)
1928  00                 [54] (-8)
1929  00                 [55] (-8)
192A  00                 [56] (-8)
192B  EE                 [57] (-8)
192C  00                 [58] (-8)
192D  00                 [59] (-8)
192E  00                 [60] (-7)
192F  EE                 [61] (-7)
1930  00                 [62] (-7)
1931  00                 [63] (-5)
                         * locals:
19EF  00                 sizelocvars (0)
                         * upvalues:
19F0  00                 sizeupvalues (0)
                         ** end of function **

                         
19F1                     ** function [11] definition (level 2)
                         ** start of function **
19F1  00                 string size (0)
                         source name: (none)
19F3  01                 line defined (253)
19F4  91                 last line defined (273)
19F5  02                 nups (0)
19F6  00                 numparams (2)
19F7  02                 is_vararg (0)
19F8  00                 maxstacksize (12)
                         * code:
19FA  3C                 sizecode (60)
19FB  A4004000           [01] self       2   0   256  ; -1544157541
19FF  A2800001           [02] call       2   2   2  
1A03  E4404000           [03] self       3   0   257  ; 455421500
1A07  E2800001           [04] call       3   2   2  
1A0B  24814001           [05] self       4   2   258  ; -227502409
1A0F  22810001           [06] call       4   2   2  
1A13  64C14001           [07] self       5   2   259  ; -1583259949
1A17  62810001           [08] call       5   2   2  
1A1B  9D010100           [09] getglobal  6   4        ; 1289681407
1A1F  A2818000           [10] call       6   1   2  
1A23  84810102           [11] mul        6   4   6  
1A27  84410003           [12] mul        6   6   1  
1A2B  DD410100           [13] getglobal  7   5        ; 1074689893
1A2F  1D820100           [14] getglobal  8   6        ; _T
1A33  0EC24104           [15] gettable   8   8   263  ; "gShieldRegen"
1A37  E2810001           [16] call       7   2   2  
1A3B  D8010000           [17] test       7       0    ; to [19] if true
1A3F  1A800080           [18] jmp        3            ; to [22]
1A43  DD810100           [19] getglobal  7   6        ; _T
1A47  0B020000           [20] newtable   8   0   0    ; array=0, hash=0
1A4B  CC018283           [21] settable   7   263 8    ; "gShieldRegen"
1A4F  DD410100           [22] getglobal  7   5        ; 1074689893
1A53  1D820100           [23] getglobal  8   6        ; _T
1A57  0EC24104           [24] gettable   8   8   263  ; "gShieldRegen"
1A5B  0EC20004           [25] gettable   8   8   3  
1A5F  E2810001           [26] call       7   2   2  
1A63  D8010000           [27] test       7       0    ; to [29] if true
1A67  1A800080           [28] jmp        3            ; to [32]
1A6B  DD810100           [29] getglobal  7   6        ; _T
1A6F  CEC1C103           [30] gettable   7   7   263  ; "gShieldRegen"
1A73  CC01C201           [31] settable   7   3   264  ; 0
1A77  DD810100           [32] getglobal  7   6        ; _T
1A7B  CEC1C103           [33] gettable   7   7   263  ; "gShieldRegen"
1A7F  1D820100           [34] getglobal  8   6        ; _T
1A83  0EC24104           [35] gettable   8   8   263  ; "gShieldRegen"
1A87  0EC20004           [36] gettable   8   8   3  
1A8B  03820104           [37] add        8   8   6  
1A8F  CC018201           [38] settable   7   3   8  
1A93  DD410200           [39] getglobal  7   9        ; math
1A97  CE81C203           [40] gettable   7   7   266  ; -113279800
1A9B  1D820100           [41] getglobal  8   6        ; _T
1A9F  0EC24104           [42] gettable   8   8   263  ; "gShieldRegen"
1AA3  0EC20004           [43] gettable   8   8   3  
1AA7  E2810001           [44] call       7   2   2  
fail op	21
1AAB  15C08185           [45] concat     0   267 7  
1AAF  1A000380           [46] jmp        13           ; to [60]
1AB3  E4014301           [47] self       7   2   268  ; -1992773175
1AB7  5D420200           [48] getglobal  9   9        ; math
1ABB  4E42C304           [49] gettable   9   9   269  ; 1710846250
1ABF  92020002           [50] move       10  4      
1AC3  DD820100           [51] getglobal  11  6        ; _T
1AC7  CEC2C105           [52] gettable   11  11  263  ; "gShieldRegen"
1ACB  CEC28005           [53] gettable   11  11  3  
1ACF  C3C28202           [54] add        11  5   11 
1AD3  62028001           [55] call       9   3   0  
1AD7  E2410000           [56] call       7   0   1  
1ADB  DD810100           [57] getglobal  7   6        ; _T
1ADF  CEC1C103           [58] gettable   7   7   263  ; "gShieldRegen"
1AE3  CC01C201           [59] settable   7   3   264  ; 0
1AE7  1E008000           [60] return     0   1      
                         * constants:
1AEB  0E                 sizek (14)
1AEC  01                 const type 3
1AED  9B06F6A3           const [0]: (-1544157541)
1AF1  01                 const type 3
1AF2  3C2E251B           const [1]: (455421500)
1AF6  01                 const type 3
1AF7  B79670F2           const [2]: (-227502409)
1AFB  01                 const type 3
1AFC  D35EA1A1           const [3]: (-1583259949)
1B00  01                 const type 3
1B01  FFF9DE4C           const [4]: (1289681407)
1B05  01                 const type 3
1B06  65770E40           const [5]: (1074689893)
1B0A  04                 const type 4
1B0B  03                 string size (3)
1B0C  5F5400             "_T\0"
                         const [6]: "_T"
1B0F  04                 const type 4
1B10  0D                 string size (13)
1B11  67536869656C6452+  "gShieldR"
1B19  6567656E00         "egen\0"
                         const [7]: "gShieldRegen"
1B1E  03                 const type 3
1B1F  00000000           const [8]: (0)
1B23  04                 const type 4
1B24  05                 string size (5)
1B25  6D61746800         "math\0"
                         const [9]: "math"
1B2A  01                 const type 3
1B2B  C87C3FF9           const [10]: (-113279800)
1B2F  03                 const type 3
1B30  0000803F           const [11]: (0)
1B34  01                 const type 3
1B35  C9B13889           const [12]: (-1992773175)
1B39  01                 const type 3
1B3A  2A71F965           const [13]: (1710846250)
                         * functions:
1B3E  00                 sizep (0)
                         * lines:
1B3F  3C                 sizelineinfo (60)
                         [pc] (line)
1B40  FE                 [01] (-2)
1B41  00                 [02] (-2)
1B42  00                 [03] (-1)
1B43  00                 [04] (-1)
1B44  FE                 [05] (0)
1B45  00                 [06] (0)
1B46  00                 [07] (1)
1B47  00                 [08] (1)
1B48  FF                 [09] (2)
1B49  00                 [10] (2)
1B4A  00                 [11] (2)
1B4B  00                 [12] (2)
1B4C  FF                 [13] (4)
1B4D  00                 [14] (4)
1B4E  00                 [15] (4)
1B4F  00                 [16] (4)
1B50  00                 [17] (4)
1B51  01                 [18] (4)
1B52  00                 [19] (5)
1B53  00                 [20] (5)
1B54  00                 [21] (5)
1B55  01                 [22] (8)
1B56  00                 [23] (8)
1B57  00                 [24] (8)
1B58  01                 [25] (8)
1B59  01                 [26] (8)
1B5A  00                 [27] (8)
1B5B  00                 [28] (8)
1B5C  01                 [29] (9)
1B5D  01                 [30] (9)
1B5E  00                 [31] (9)
1B5F  00                 [32] (12)
1B60  02                 [33] (12)
1B61  01                 [34] (12)
1B62  00                 [35] (12)
1B63  00                 [36] (12)
1B64  02                 [37] (12)
1B65  01                 [38] (12)
1B66  00                 [39] (13)
1B67  00                 [40] (13)
1B68  02                 [41] (13)
1B69  01                 [42] (13)
1B6A  00                 [43] (13)
1B6B  00                 [44] (13)
1B6C  02                 [45] (13)
1B6D  01                 [46] (13)
1B6E  00                 [47] (14)
1B6F  00                 [48] (14)
1B70  04                 [49] (14)
1B71  01                 [50] (14)
1B72  00                 [51] (14)
1B73  00                 [52] (14)
1B74  04                 [53] (14)
1B75  01                 [54] (14)
1B76  00                 [55] (14)
1B77  00                 [56] (14)
1B78  04                 [57] (15)
1B79  01                 [58] (15)
1B7A  00                 [59] (15)
1B7B  00                 [60] (17)
                         * locals:
1C30  00                 sizelocvars (0)
                         * upvalues:
1C31  00                 sizeupvalues (0)
                         ** end of function **

                         
1C32                     ** function [12] definition (level 2)
                         ** start of function **
1C32  00                 string size (0)
                         source name: (none)
1C34  02                 line defined (275)
1C35  98                 last line defined (280)
1C36  02                 nups (1)
1C37  01                 numparams (1)
1C38  01                 is_vararg (0)
1C39  00                 maxstacksize (4)
                         * code:
1C3B  0C                 sizecode (12)
1C3C  5D000000           [01] getglobal  1   0        ; 1074689893
1C40  92000000           [02] move       2   0      
1C44  62800001           [03] call       1   2   2  
1C48  58000000           [04] test       1       0    ; to [6] if true
1C4C  1A000080           [05] jmp        1            ; to [7]
1C50  1E008000           [06] return     0   1      
1C54  53000000           [07] getupval   1   0      
1C58  9D400000           [08] getglobal  2   1        ; Engine
1C5C  8E804001           [09] gettable   2   2   258  ; "SLOT_2"
1C60  D2000000           [10] move       3   0      
1C64  62408001           [11] call       1   3   1  
1C68  1E008000           [12] return     0   1      
                         * constants:
1C6C  03                 sizek (3)
1C6D  01                 const type 3
1C6E  65770E40           const [0]: (1074689893)
1C72  04                 const type 4
1C73  07                 string size (7)
1C74  456E67696E6500     "Engine\0"
                         const [1]: "Engine"
1C7B  04                 const type 4
1C7C  07                 string size (7)
1C7D  534C4F545F3200     "SLOT_2\0"
                         const [2]: "SLOT_2"
                         * functions:
1C84  00                 sizep (0)
                         * lines:
1C85  0C                 sizelineinfo (12)
                         [pc] (line)
1C86  14                 [01] (20)
1C87  01                 [02] (20)
1C88  00                 [03] (20)
1C89  00                 [04] (20)
1C8A  14                 [05] (20)
1C8B  01                 [06] (21)
1C8C  00                 [07] (23)
1C8D  00                 [08] (23)
1C8E  14                 [09] (23)
1C8F  01                 [10] (23)
1C90  00                 [11] (23)
1C91  00                 [12] (24)
                         * locals:
1CB6  00                 sizelocvars (0)
                         * upvalues:
1CB7  00                 sizeupvalues (0)
                         ** end of function **

                         
1CB8                     ** function [13] definition (level 2)
                         ** start of function **
1CB8  00                 string size (0)
                         source name: (none)
1CBA  02                 line defined (282)
1CBB  9F                 last line defined (287)
1CBC  02                 nups (1)
1CBD  01                 numparams (1)
1CBE  01                 is_vararg (0)
1CBF  00                 maxstacksize (4)
                         * code:
1CC1  0C                 sizecode (12)
1CC2  5D000000           [01] getglobal  1   0        ; 1074689893
1CC6  92000000           [02] move       2   0      
1CCA  62800001           [03] call       1   2   2  
1CCE  58000000           [04] test       1       0    ; to [6] if true
1CD2  1A000080           [05] jmp        1            ; to [7]
1CD6  1E008000           [06] return     0   1      
1CDA  53000000           [07] getupval   1   0      
1CDE  9D400000           [08] getglobal  2   1        ; Engine
1CE2  8E804001           [09] gettable   2   2   258  ; "SLOT_1"
1CE6  D2000000           [10] move       3   0      
1CEA  62408001           [11] call       1   3   1  
1CEE  1E008000           [12] return     0   1      
                         * constants:
1CF2  03                 sizek (3)
1CF3  01                 const type 3
1CF4  65770E40           const [0]: (1074689893)
1CF8  04                 const type 4
1CF9  07                 string size (7)
1CFA  456E67696E6500     "Engine\0"
                         const [1]: "Engine"
1D01  04                 const type 4
1D02  07                 string size (7)
1D03  534C4F545F3100     "SLOT_1\0"
                         const [2]: "SLOT_1"
                         * functions:
1D0A  00                 sizep (0)
                         * lines:
1D0B  0C                 sizelineinfo (12)
                         [pc] (line)
1D0C  1B                 [01] (27)
1D0D  01                 [02] (27)
1D0E  00                 [03] (27)
1D0F  00                 [04] (27)
1D10  1B                 [05] (27)
1D11  01                 [06] (28)
1D12  00                 [07] (30)
1D13  00                 [08] (30)
1D14  1B                 [09] (30)
1D15  01                 [10] (30)
1D16  00                 [11] (30)
1D17  00                 [12] (31)
                         * locals:
1D3C  00                 sizelocvars (0)
                         * upvalues:
1D3D  00                 sizeupvalues (0)
                         ** end of function **

                         
1D3E                     ** function [14] definition (level 2)
                         ** start of function **
1D3E  00                 string size (0)
                         source name: (none)
1D40  02                 line defined (289)
1D41  A6                 last line defined (294)
1D42  02                 nups (1)
1D43  01                 numparams (1)
1D44  01                 is_vararg (0)
1D45  00                 maxstacksize (4)
                         * code:
1D47  0C                 sizecode (12)
1D48  5D000000           [01] getglobal  1   0        ; 1074689893
1D4C  92000000           [02] move       2   0      
1D50  62800001           [03] call       1   2   2  
1D54  58000000           [04] test       1       0    ; to [6] if true
1D58  1A000080           [05] jmp        1            ; to [7]
1D5C  1E008000           [06] return     0   1      
1D60  53000000           [07] getupval   1   0      
1D64  9D400000           [08] getglobal  2   1        ; Engine
1D68  8E804001           [09] gettable   2   2   258  ; "SLOT_6"
1D6C  D2000000           [10] move       3   0      
1D70  62408001           [11] call       1   3   1  
1D74  1E008000           [12] return     0   1      
                         * constants:
1D78  03                 sizek (3)
1D79  01                 const type 3
1D7A  65770E40           const [0]: (1074689893)
1D7E  04                 const type 4
1D7F  07                 string size (7)
1D80  456E67696E6500     "Engine\0"
                         const [1]: "Engine"
1D87  04                 const type 4
1D88  07                 string size (7)
1D89  534C4F545F3600     "SLOT_6\0"
                         const [2]: "SLOT_6"
                         * functions:
1D90  00                 sizep (0)
                         * lines:
1D91  0C                 sizelineinfo (12)
                         [pc] (line)
1D92  22                 [01] (34)
1D93  01                 [02] (34)
1D94  00                 [03] (34)
1D95  00                 [04] (34)
1D96  22                 [05] (34)
1D97  01                 [06] (35)
1D98  00                 [07] (37)
1D99  00                 [08] (37)
1D9A  22                 [09] (37)
1D9B  01                 [10] (37)
1D9C  00                 [11] (37)
1D9D  00                 [12] (38)
                         * locals:
1DC2  00                 sizelocvars (0)
                         * upvalues:
1DC3  00                 sizeupvalues (0)
                         ** end of function **

                         
1DC4                     ** function [15] definition (level 2)
                         ** start of function **
1DC4  00                 string size (0)
                         source name: (none)
1DC6  02                 line defined (296)
1DC7  D0                 last line defined (336)
1DC8  02                 nups (2)
1DC9  02                 numparams (0)
1DCA  00                 is_vararg (0)
1DCB  00                 maxstacksize (24)
                         * code:
1DCD  5B                 sizecode (91)
1DCE  1D000000           [01] getglobal  0   0        ; gRegion
1DD2  24404000           [02] self       0   0   257  ; -2071158816
1DD6  22800001           [03] call       0   2   2  
1DDA  4B000000           [04] newtable   1   0   0    ; array=0, hash=0
1DDE  99800000           [05] loadk      2   2        ; -51
1DE2  D7000000           [06] loadbool   3   0   0    ; false
1DE6  0A010000           [07] len        4   0      
1DEA  5DC10000           [08] getglobal  5   3        ; 1672515847
1DEE  92010000           [09] move       6   0      
1DF2  62010101           [10] call       5   2   4  
1DF6  1AC00280           [11] jmp        12           ; to [24]
1DFA  93020000           [12] getupval   10  0      
1DFE  C6028005           [13] loadnil    11  11     
1E02  12038004           [14] move       12  9      
1E06  A2428001           [15] call       10  3   1  
1E0A  9D020100           [16] getglobal  10  4        ; table
1E0E  8E424105           [17] gettable   10  10  261  ; -431682403
1E12  D2028000           [18] move       11  1      
1E16  2483C104           [19] self       12  9   262  ; -1917464545
1E1A  22830001           [20] call       12  2   2  
1E1E  24C34106           [21] self       12  12  263  ; 1769516121
1E22  22030001           [22] call       12  2   0  
1E26  A2420000           [23] call       10  0   1  
1E2A  56810000           [24] tforloop   5       2    ; to [26] if exit
1E2E  1A40FC7F           [25] jmp        -14          ; to [12]
1E32  8A020000           [26] len        10  0      
fail op	21
1E36  15800284           [27] concat     0   264 10 
1E3A  1A400F80           [28] jmp        62           ; to [91]
1E3E  9D020000           [29] getglobal  10  0        ; gRegion
1E42  A4424005           [30] self       10  10  257  ; -2071158816
1E46  A2820001           [31] call       10  2   2  
1E4A  12000005           [32] move       0   10     
1E4E  8A020000           [33] len        10  0      
fail op	35
1E52  63000105           [34] close      1  
1E56  1A400080           [35] jmp        2            ; to [38]
1E5A  D7008000           [36] loadbool   3   1   0    ; true
1E5E  0A010000           [37] len        4   0      
1E62  9DC20000           [38] getglobal  10  3        ; 1672515847
1E66  D2028000           [39] move       11  1      
1E6A  A2020101           [40] call       10  2   4  
1E6E  1A800280           [41] jmp        11           ; to [53]
1E72  DD430200           [42] getglobal  15  9        ; 1074689893
1E76  12040007           [43] move       16  14     
1E7A  E2830001           [44] call       15  2   2  
1E7E  D8430000           [45] test       15      1    ; to [47] if false
1E82  1A000180           [46] jmp        5            ; to [52]
1E86  D3038000           [47] getupval   15  1      
1E8A  12040007           [48] move       16  14     
1E8E  52040001           [49] move       17  2      
1E92  E2438001           [50] call       15  3   1  
1E96  1A000080           [51] jmp        1            ; to [53]
1E9A  D7008000           [52] loadbool   3   1   0    ; true
1E9E  96820000           [53] tforloop   10      2    ; to [55] if exit
1EA2  1A80FC7F           [54] jmp        -13          ; to [42]
1EA6  D8000000           [55] test       3       0    ; to [57] if true
1EAA  1A400780           [56] jmp        30           ; to [87]
1EAE  CB030000           [57] newtable   15  0   0    ; array=0, hash=0
1EB2  52008007           [58] move       1   15     
1EB6  DDC30000           [59] getglobal  15  3        ; 1672515847
1EBA  12040000           [60] move       16  0      
1EBE  E2030101           [61] call       15  2   4  
1EC2  1A400580           [62] jmp        22           ; to [85]
1EC6  1D450200           [63] getglobal  20  9        ; 1074689893
1ECA  6485C109           [64] self       21  19  262  ; -1917464545
1ECE  62850001           [65] call       21  2   2  
1ED2  6485C20A           [66] self       21  21  266  ; 1856017039
1ED6  DDC50200           [67] getglobal  23  11       ; Engine
1EDA  CE05C30B           [68] gettable   23  23  268  ; "MAIN_HAND"
1EDE  62058001           [69] call       21  3   0  
1EE2  22850000           [70] call       20  0   2  
1EE6  18450000           [71] test       20      1    ; to [73] if false
1EEA  1AC00080           [72] jmp        4            ; to [77]
1EEE  13050000           [73] getupval   20  0      
1EF2  4605800A           [74] loadnil    21  21     
1EF6  92058009           [75] move       22  19     
1EFA  22458001           [76] call       20  3   1  
1EFE  1D050100           [77] getglobal  20  4        ; table
1F02  0E45410A           [78] gettable   20  20  261  ; -431682403
1F06  52058000           [79] move       21  1      
1F0A  A485C109           [80] self       22  19  262  ; -1917464545
1F0E  A2850001           [81] call       22  2   2  
1F12  A4C5410B           [82] self       22  22  263  ; 1769516121
1F16  A2050001           [83] call       22  2   0  
1F1A  22450000           [84] call       20  0   1  
1F1E  D6830000           [85] tforloop   15      2    ; to [87] if exit
1F22  1AC0F97F           [86] jmp        -24          ; to [63]
1F26  1D450300           [87] getglobal  20  13       ; 538022378
1F2A  59050200           [88] loadk      21  8        ; 0
1F2E  22450001           [89] call       20  2   1  
1F32  1A80EF7F           [90] jmp        -65          ; to [26]
1F36  1E008000           [91] return     0   1      
                         * constants:
1F3A  0E                 sizek (14)
1F3B  04                 const type 4
1F3C  08                 string size (8)
1F3D  67526567696F6E00   "gRegion\0"
                         const [0]: "gRegion"
1F45  01                 const type 3
1F46  E09F8C84           const [1]: (-2071158816)
1F4A  03                 const type 3
1F4B  CDCC4C3D           const [2]: (-51)
1F4F  01                 const type 3
1F50  0791B063           const [3]: (1672515847)
1F54  04                 const type 4
1F55  06                 string size (6)
1F56  7461626C6500       "table\0"
                         const [4]: "table"
1F5C  01                 const type 3
1F5D  9D0C45E6           const [5]: (-431682403)
1F61  01                 const type 3
1F62  1FD0B58D           const [6]: (-1917464545)
1F66  01                 const type 3
1F67  59AC7869           const [7]: (1769516121)
1F6B  03                 const type 3
1F6C  00000000           const [8]: (0)
1F70  01                 const type 3
1F71  65770E40           const [9]: (1074689893)
1F75  01                 const type 3
1F76  8F92A06E           const [10]: (1856017039)
1F7A  04                 const type 4
1F7B  07                 string size (7)
1F7C  456E67696E6500     "Engine\0"
                         const [11]: "Engine"
1F83  04                 const type 4
1F84  0A                 string size (10)
1F85  4D41494E5F48414E+  "MAIN_HAN"
1F8D  4400               "D\0"
                         const [12]: "MAIN_HAND"
1F8F  01                 const type 3
1F90  EA911120           const [13]: (538022378)
                         * functions:
1F94  00                 sizep (0)
                         * lines:
1F95  5B                 sizelineinfo (91)
                         [pc] (line)
1F96  29                 [01] (41)
1F97  01                 [02] (41)
1F98  00                 [03] (41)
1F99  00                 [04] (42)
1F9A  29                 [05] (43)
1F9B  01                 [06] (44)
1F9C  00                 [07] (45)
1F9D  00                 [08] (48)
1F9E  29                 [09] (48)
1F9F  01                 [10] (48)
1FA0  00                 [11] (48)
1FA1  00                 [12] (49)
1FA2  2A                 [13] (49)
1FA3  01                 [14] (49)
1FA4  00                 [15] (49)
1FA5  00                 [16] (50)
1FA6  2B                 [17] (50)
1FA7  01                 [18] (50)
1FA8  00                 [19] (50)
1FA9  00                 [20] (50)
1FAA  2C                 [21] (50)
1FAB  01                 [22] (50)
1FAC  00                 [23] (50)
1FAD  00                 [24] (48)
1FAE  2D                 [25] (50)
1FAF  01                 [26] (53)
1FB0  00                 [27] (53)
1FB1  00                 [28] (53)
1FB2  30                 [29] (54)
1FB3  01                 [30] (54)
1FB4  00                 [31] (54)
1FB5  00                 [32] (54)
1FB6  30                 [33] (55)
1FB7  01                 [34] (55)
1FB8  00                 [35] (55)
1FB9  00                 [36] (57)
1FBA  30                 [37] (58)
1FBB  01                 [38] (61)
1FBC  00                 [39] (61)
1FBD  00                 [40] (61)
1FBE  30                 [41] (61)
1FBF  01                 [42] (62)
1FC0  00                 [43] (62)
1FC1  00                 [44] (62)
1FC2  31                 [45] (62)
1FC3  01                 [46] (62)
1FC4  00                 [47] (63)
1FC5  00                 [48] (63)
1FC6  31                 [49] (63)
1FC7  01                 [50] (63)
1FC8  00                 [51] (63)
1FC9  00                 [52] (65)
1FCA  31                 [53] (61)
1FCB  01                 [54] (66)
1FCC  00                 [55] (69)
1FCD  00                 [56] (69)
1FCE  31                 [57] (70)
1FCF  01                 [58] (70)
1FD0  00                 [59] (71)
1FD1  00                 [60] (71)
1FD2  32                 [61] (71)
1FD3  01                 [62] (71)
1FD4  00                 [63] (72)
1FD5  00                 [64] (72)
1FD6  32                 [65] (72)
1FD7  01                 [66] (72)
1FD8  00                 [67] (72)
1FD9  00                 [68] (72)
1FDA  32                 [69] (72)
1FDB  01                 [70] (72)
1FDC  00                 [71] (72)
1FDD  00                 [72] (72)
1FDE  32                 [73] (73)
1FDF  01                 [74] (73)
1FE0  00                 [75] (73)
1FE1  00                 [76] (73)
1FE2  32                 [77] (75)
1FE3  01                 [78] (75)
1FE4  00                 [79] (75)
1FE5  00                 [80] (75)
1FE6  32                 [81] (75)
1FE7  01                 [82] (75)
1FE8  00                 [83] (75)
1FE9  00                 [84] (75)
1FEA  32                 [85] (71)
1FEB  01                 [86] (75)
1FEC  00                 [87] (78)
1FED  00                 [88] (78)
1FEE  32                 [89] (78)
1FEF  01                 [90] (78)
1FF0  00                 [91] (80)
                         * locals:
2102  00                 sizelocvars (0)
                         * upvalues:
2103  00                 sizeupvalues (0)
                         ** end of function **

                         
2104                     ** function [16] definition (level 2)
                         ** start of function **
2104  00                 string size (0)
                         source name: (none)
2106  02                 line defined (338)
2107  D4                 last line defined (340)
2108  02                 nups (1)
2109  01                 numparams (0)
210A  00                 is_vararg (0)
210B  00                 maxstacksize (2)
                         * code:
210D  03                 sizecode (3)
210E  13000000           [1] getupval   0   0      
2112  22408000           [2] call       0   1   1  
2116  1E008000           [3] return     0   1      
                         * constants:
211A  00                 sizek (0)
                         * functions:
211B  00                 sizep (0)
                         * lines:
211C  03                 sizelineinfo (3)
                         [pc] (line)
211D  53                 [1] (83)
211E  01                 [2] (83)
211F  00                 [3] (84)
                         * locals:
2129  00                 sizelocvars (0)
                         * upvalues:
212A  00                 sizeupvalues (0)
                         ** end of function **

                         
212B                     ** function [17] definition (level 2)
                         ** start of function **
212B  00                 string size (0)
                         source name: (none)
212D  02                 line defined (342)
212E  D8                 last line defined (344)
212F  02                 nups (1)
2130  01                 numparams (0)
2131  00                 is_vararg (0)
2132  00                 maxstacksize (2)
                         * code:
2134  03                 sizecode (3)
2135  13000000           [1] getupval   0   0      
2139  22408000           [2] call       0   1   1  
213D  1E008000           [3] return     0   1      
                         * constants:
2141  00                 sizek (0)
                         * functions:
2142  00                 sizep (0)
                         * lines:
2143  03                 sizelineinfo (3)
                         [pc] (line)
2144  57                 [1] (87)
2145  01                 [2] (87)
2146  00                 [3] (88)
                         * locals:
2150  00                 sizelocvars (0)
                         * upvalues:
2151  00                 sizeupvalues (0)
                         ** end of function **

                         
2152                     ** function [18] definition (level 2)
                         ** start of function **
2152  00                 string size (0)
                         source name: (none)
2154  02                 line defined (346)
2155  DC                 last line defined (348)
2156  02                 nups (1)
2157  01                 numparams (0)
2158  00                 is_vararg (0)
2159  00                 maxstacksize (2)
                         * code:
215B  03                 sizecode (3)
215C  13000000           [1] getupval   0   0      
2160  22408000           [2] call       0   1   1  
2164  1E008000           [3] return     0   1      
                         * constants:
2168  00                 sizek (0)
                         * functions:
2169  00                 sizep (0)
                         * lines:
216A  03                 sizelineinfo (3)
                         [pc] (line)
216B  5B                 [1] (91)
216C  01                 [2] (91)
216D  00                 [3] (92)
                         * locals:
2177  00                 sizelocvars (0)
                         * upvalues:
2178  00                 sizeupvalues (0)
                         ** end of function **

                         
2179                     ** function [19] definition (level 2)
                         ** start of function **
2179  00                 string size (0)
                         source name: (none)
217B  02                 line defined (350)
217C  E0                 last line defined (352)
217D  02                 nups (1)
217E  01                 numparams (0)
217F  00                 is_vararg (0)
2180  00                 maxstacksize (2)
                         * code:
2182  03                 sizecode (3)
2183  13000000           [1] getupval   0   0      
2187  22408000           [2] call       0   1   1  
218B  1E008000           [3] return     0   1      
                         * constants:
218F  00                 sizek (0)
                         * functions:
2190  00                 sizep (0)
                         * lines:
2191  03                 sizelineinfo (3)
                         [pc] (line)
2192  5F                 [1] (95)
2193  01                 [2] (95)
2194  00                 [3] (96)
                         * locals:
219E  00                 sizelocvars (0)
                         * upvalues:
219F  00                 sizeupvalues (0)
                         ** end of function **

                         
21A0                     ** function [20] definition (level 2)
                         ** start of function **
21A0  00                 string size (0)
                         source name: (none)
21A2  02                 line defined (354)
21A3  87                 last line defined (391)
21A4  03                 nups (1)
21A5  01                 numparams (0)
21A6  00                 is_vararg (0)
21A7  00                 maxstacksize (27)
                         * code:
21A9  62                 sizecode (98)
21AA  1D000000           [01] getglobal  0   0        ; gRegion
21AE  24404000           [02] self       0   0   257  ; -2071158816
21B2  22800001           [03] call       0   2   2  
21B6  4B000000           [04] newtable   1   0   0    ; array=0, hash=0
21BA  99800000           [05] loadk      2   2        ; 10
21BE  D7000000           [06] loadbool   3   0   0    ; false
21C2  0A010000           [07] len        4   0      
21C6  59C10000           [08] loadk      5   3        ; 0
21CA  9D010100           [09] getglobal  6   4        ; 1672515847
21CE  D2010000           [10] move       7   0      
21D2  A2010101           [11] call       6   2   4  
21D6  1AC00480           [12] jmp        20           ; to [33]
21DA  E4424105           [13] self       11  10  261  ; -1544157541
21DE  E2820001           [14] call       11  2   2  
21E2  E482C105           [15] self       11  11  262  ; -1844106636
21E6  5DC30100           [16] getglobal  13  7        ; -332969190
21EA  99030200           [17] loadk      14  8        ; "MutatorDoubleDamage"
21EE  62830001           [18] call       13  2   2  
21F2  9D430200           [19] getglobal  14  9        ; Engine
21F6  8E834207           [20] gettable   14  14  266  ; "DT_ANY"
21FA  DD430200           [21] getglobal  15  9        ; Engine
21FE  CEC3C207           [22] gettable   15  15  267  ; "ANY_PART"
2202  12048002           [23] move       16  5      
2206  E2420003           [24] call       11  6   1  
220A  DD020300           [25] getglobal  11  12       ; table
220E  CE42C305           [26] gettable   11  11  269  ; -431682403
2212  12038000           [27] move       12  1      
2216  64834305           [28] self       13  10  270  ; -1917464545
221A  62830001           [29] call       13  2   2  
221E  64C3C306           [30] self       13  13  271  ; 1769516121
2222  62030001           [31] call       13  2   0  
2226  E2420000           [32] call       11  0   1  
222A  96810000           [33] tforloop   6       2    ; to [35] if exit
222E  1A40FA7F           [34] jmp        -22          ; to [13]
2232  CA020000           [35] len        11  0      
fail op	21
2236  15C00288           [36] concat     0   272 11 
223A  1AC00E80           [37] jmp        60           ; to [98]
223E  DD020000           [38] getglobal  11  0        ; gRegion
2242  E442C005           [39] self       11  11  257  ; -2071158816
2246  E2820001           [40] call       11  2   2  
224A  12008005           [41] move       0   11     
224E  CA020000           [42] len        11  0      
fail op	35
2252  63008105           [43] close      1  
2256  1A400080           [44] jmp        2            ; to [47]
225A  D7008000           [45] loadbool   3   1   0    ; true
225E  0A010000           [46] len        4   0      
2262  DD020100           [47] getglobal  11  4        ; 1672515847
2266  12030000           [48] move       12  0      
226A  E2020101           [49] call       11  2   4  
226E  1A800280           [50] jmp        11           ; to [62]
2272  1D440400           [51] getglobal  16  17       ; 1074689893
2276  52048007           [52] move       17  15     
227A  22840001           [53] call       16  2   2  
227E  18440000           [54] test       16      1    ; to [56] if false
2282  1A000180           [55] jmp        5            ; to [61]
2286  13040000           [56] getupval   16  0      
228A  52048007           [57] move       17  15     
228E  92040001           [58] move       18  2      
2292  22448001           [59] call       16  3   1  
2296  1A000080           [60] jmp        1            ; to [62]
229A  D7008000           [61] loadbool   3   1   0    ; true
229E  D6820000           [62] tforloop   11      2    ; to [64] if exit
22A2  1A80FC7F           [63] jmp        -13          ; to [51]
22A6  D8000000           [64] test       3       0    ; to [66] if true
22AA  1AC00680           [65] jmp        28           ; to [94]
22AE  0B040000           [66] newtable   16  0   0    ; array=0, hash=0
22B2  52000008           [67] move       1   16     
22B6  1D040100           [68] getglobal  16  4        ; 1672515847
22BA  52040000           [69] move       17  0      
22BE  22040101           [70] call       16  2   4  
22C2  1AC00480           [71] jmp        20           ; to [92]
22C6  6445410A           [72] self       21  20  261  ; -1544157541
22CA  62850001           [73] call       21  2   2  
22CE  6485C10A           [74] self       21  21  262  ; -1844106636
22D2  DDC50100           [75] getglobal  23  7        ; -332969190
22D6  19060200           [76] loadk      24  8        ; "MutatorDoubleDamage"
22DA  E2850001           [77] call       23  2   2  
22DE  1D460200           [78] getglobal  24  9        ; Engine
22E2  0E86420C           [79] gettable   24  24  266  ; "DT_ANY"
22E6  5D460200           [80] getglobal  25  9        ; Engine
22EA  4EC6C20C           [81] gettable   25  25  267  ; "ANY_PART"
22EE  92068002           [82] move       26  5      
22F2  62450003           [83] call       21  6   1  
22F6  5D050300           [84] getglobal  21  12       ; table
22FA  4E45C30A           [85] gettable   21  21  269  ; -431682403
22FE  92058000           [86] move       22  1      
2302  E485430A           [87] self       23  20  270  ; -1917464545
2306  E2850001           [88] call       23  2   2  
230A  E4C5C30B           [89] self       23  23  271  ; 1769516121
230E  E2050001           [90] call       23  2   0  
2312  62450000           [91] call       21  0   1  
2316  16840000           [92] tforloop   16      2    ; to [94] if exit
231A  1A40FA7F           [93] jmp        -22          ; to [72]
231E  5D850400           [94] getglobal  21  18       ; 538022378
2322  99050400           [95] loadk      22  16       ; 0
2326  62450001           [96] call       21  2   1  
232A  1A00F07F           [97] jmp        -63          ; to [35]
232E  1E008000           [98] return     0   1      
                         * constants:
2332  13                 sizek (19)
2333  04                 const type 4
2334  08                 string size (8)
2335  67526567696F6E00   "gRegion\0"
                         const [0]: "gRegion"
233D  01                 const type 3
233E  E09F8C84           const [1]: (-2071158816)
2342  03                 const type 3
2343  0AD7A33C           const [2]: (10)
2347  03                 const type 3
2348  00000040           const [3]: (0)
234C  01                 const type 3
234D  0791B063           const [4]: (1672515847)
2351  01                 const type 3
2352  9B06F6A3           const [5]: (-1544157541)
2356  01                 const type 3
2357  742A1592           const [6]: (-1844106636)
235B  01                 const type 3
235C  1A4B27EC           const [7]: (-332969190)
2360  04                 const type 4
2361  14                 string size (20)
2362  4D757461746F7244+  "MutatorD"
236A  6F75626C6544616D+  "oubleDam"
2372  61676500           "age\0"
                         const [8]: "MutatorDoubleDamage"
2376  04                 const type 4
2377  07                 string size (7)
2378  456E67696E6500     "Engine\0"
                         const [9]: "Engine"
237F  04                 const type 4
2380  07                 string size (7)
2381  44545F414E5900     "DT_ANY\0"
                         const [10]: "DT_ANY"
2388  04                 const type 4
2389  09                 string size (9)
238A  414E595F50415254+  "ANY_PART"
2392  00                 "\0"
                         const [11]: "ANY_PART"
2393  04                 const type 4
2394  06                 string size (6)
2395  7461626C6500       "table\0"
                         const [12]: "table"
239B  01                 const type 3
239C  9D0C45E6           const [13]: (-431682403)
23A0  01                 const type 3
23A1  1FD0B58D           const [14]: (-1917464545)
23A5  01                 const type 3
23A6  59AC7869           const [15]: (1769516121)
23AA  03                 const type 3
23AB  00000000           const [16]: (0)
23AF  01                 const type 3
23B0  65770E40           const [17]: (1074689893)
23B4  01                 const type 3
23B5  EA911120           const [18]: (538022378)
                         * functions:
23B9  00                 sizep (0)
                         * lines:
23BA  62                 sizelineinfo (98)
                         [pc] (line)
23BB  63                 [01] (99)
23BC  01                 [02] (99)
23BD  00                 [03] (99)
23BE  00                 [04] (100)
23BF  63                 [05] (101)
23C0  01                 [06] (102)
23C1  00                 [07] (103)
23C2  00                 [08] (104)
23C3  63                 [09] (106)
23C4  01                 [10] (106)
23C5  00                 [11] (106)
23C6  00                 [12] (106)
23C7  64                 [13] (107)
23C8  01                 [14] (107)
23C9  00                 [15] (107)
23CA  00                 [16] (107)
23CB  65                 [17] (107)
23CC  01                 [18] (107)
23CD  00                 [19] (107)
23CE  00                 [20] (107)
23CF  66                 [21] (107)
23D0  01                 [22] (107)
23D1  00                 [23] (107)
23D2  00                 [24] (107)
23D3  67                 [25] (108)
23D4  01                 [26] (108)
23D5  00                 [27] (108)
23D6  00                 [28] (108)
23D7  68                 [29] (108)
23D8  01                 [30] (108)
23D9  00                 [31] (108)
23DA  00                 [32] (108)
23DB  6A                 [33] (106)
23DC  01                 [34] (108)
23DD  00                 [35] (111)
23DE  00                 [36] (111)
23DF  6A                 [37] (111)
23E0  01                 [38] (112)
23E1  00                 [39] (112)
23E2  00                 [40] (112)
23E3  6A                 [41] (112)
23E4  01                 [42] (113)
23E5  00                 [43] (113)
23E6  00                 [44] (113)
23E7  6A                 [45] (114)
23E8  01                 [46] (115)
23E9  00                 [47] (118)
23EA  00                 [48] (118)
23EB  6B                 [49] (118)
23EC  01                 [50] (118)
23ED  00                 [51] (119)
23EE  00                 [52] (119)
23EF  6B                 [53] (119)
23F0  01                 [54] (119)
23F1  00                 [55] (119)
23F2  00                 [56] (120)
23F3  6B                 [57] (120)
23F4  01                 [58] (120)
23F5  00                 [59] (120)
23F6  00                 [60] (120)
23F7  6B                 [61] (122)
23F8  01                 [62] (118)
23F9  00                 [63] (123)
23FA  00                 [64] (126)
23FB  6B                 [65] (126)
23FC  01                 [66] (127)
23FD  00                 [67] (127)
23FE  00                 [68] (-128)
23FF  6B                 [69] (-128)
2400  01                 [70] (-128)
2401  00                 [71] (-128)
2402  00                 [72] (-127)
2403  6B                 [73] (-127)
2404  01                 [74] (-127)
2405  00                 [75] (-127)
2406  00                 [76] (-127)
2407  6B                 [77] (-127)
2408  01                 [78] (-127)
2409  00                 [79] (-127)
240A  00                 [80] (-127)
240B  6B                 [81] (-127)
240C  01                 [82] (-127)
240D  00                 [83] (-127)
240E  00                 [84] (-126)
240F  6B                 [85] (-126)
2410  01                 [86] (-126)
2411  00                 [87] (-126)
2412  00                 [88] (-126)
2413  6B                 [89] (-126)
2414  01                 [90] (-126)
2415  00                 [91] (-126)
2416  00                 [92] (-128)
2417  6B                 [93] (-126)
2418  01                 [94] (-123)
2419  00                 [95] (-123)
241A  00                 [96] (-123)
241B  6C                 [97] (-123)
241C  01                 [98] (-121)
                         * locals:
2543  00                 sizelocvars (0)
                         * upvalues:
2544  00                 sizeupvalues (0)
                         ** end of function **

                         
2545                     ** function [21] definition (level 2)
                         ** start of function **
2545  00                 string size (0)
                         source name: (none)
2547  03                 line defined (393)
2548  A4                 last line defined (420)
2549  03                 nups (1)
254A  01                 numparams (3)
254B  03                 is_vararg (0)
254C  00                 maxstacksize (20)
                         * code:
254E  3C                 sizecode (60)
254F  DD000000           [01] getglobal  3   0        ; gRegion
2553  E440C001           [02] self       3   3   257  ; -2071158816
2557  E2800001           [03] call       3   2   2  
255B  19810000           [04] loadk      4   2        ; 0
255F  4A018001           [05] len        5   3      
fail op	21
2563  15408181           [06] concat     0   259 5  
2567  1AC00C80           [07] jmp        52           ; to [60]
256B  5D010000           [08] getglobal  5   0        ; gRegion
256F  6441C002           [09] self       5   5   257  ; -2071158816
2573  62810001           [10] call       5   2   2  
2577  D2008002           [11] move       3   5      
257B  46018002           [12] loadnil    5   5      
257F  9D010100           [13] getglobal  6   4        ; 1672515847
2583  D2018001           [14] move       7   3      
2587  A2010101           [15] call       6   2   4  
258B  1A000980           [16] jmp        37           ; to [54]
258F  57010000           [17] loadbool   5   0   0    ; false
2593  DD020000           [18] getglobal  11  0        ; gRegion
2597  E442C105           [19] self       11  11  261  ; 152279552
259B  5D830100           [20] getglobal  13  6        ; gLotusNpcAvatarType
259F  A4C34105           [21] self       14  10  263  ; 1839670529
25A3  A2830001           [22] call       14  2   2  
25A7  D9C30000           [23] loadk      15  3        ; 0
25AB  12040002           [24] move       16  4      
25AF  E2820003           [25] call       11  6   2  
25B3  1D030100           [26] getglobal  12  4        ; 1672515847
25B7  52038005           [27] move       13  11     
25BB  22030101           [28] call       12  2   4  
25BF  1A400180           [29] jmp        6            ; to [36]
25C3  64044208           [30] self       17  16  264  ; 1800191191
25C7  D2040005           [31] move       19  10     
25CB  62848001           [32] call       17  3   2  
25CF  58440000           [33] test       17      1    ; to [35] if false
25D3  1A000080           [34] jmp        1            ; to [36]
25D7  57018000           [35] loadbool   5   1   0    ; true
25DB  16830000           [36] tforloop   12      2    ; to [38] if exit
25DF  1AC0FD7F           [37] jmp        -8           ; to [30]
25E3  5D440200           [38] getglobal  17  9        ; 1074689893
25E7  92040005           [39] move       18  10     
25EB  62840001           [40] call       17  2   2  
25EF  58440000           [41] test       17      1    ; to [43] if false
25F3  1A800180           [42] jmp        7            ; to [50]
25F7  58010000           [43] test       5       0    ; to [45] if true
25FB  1A000180           [44] jmp        5            ; to [50]
25FF  53040000           [45] getupval   17  0      
2603  92040005           [46] move       18  10     
2607  D2040001           [47] move       19  2      
260B  62448001           [48] call       17  3   1  
260F  1AC00080           [49] jmp        4            ; to [54]
2613  53040000           [50] getupval   17  0      
2617  92040005           [51] move       18  10     
261B  D2048000           [52] move       19  1      
261F  62448001           [53] call       17  3   1  
2623  96810000           [54] tforloop   6       2    ; to [56] if exit
2627  1A00F67F           [55] jmp        -39          ; to [17]
262B  5D840200           [56] getglobal  17  10       ; 538022378
262F  99C40000           [57] loadk      18  3        ; 0
2633  62440001           [58] call       17  2   1  
2637  1A00F27F           [59] jmp        -55          ; to [5]
263B  1E008000           [60] return     0   1      
                         * constants:
263F  0B                 sizek (11)
2640  04                 const type 4
2641  08                 string size (8)
2642  67526567696F6E00   "gRegion\0"
                         const [0]: "gRegion"
264A  01                 const type 3
264B  E09F8C84           const [1]: (-2071158816)
264F  03                 const type 3
2650  00002041           const [2]: (0)
2654  03                 const type 3
2655  00000000           const [3]: (0)
2659  01                 const type 3
265A  0791B063           const [4]: (1672515847)
265E  01                 const type 3
265F  009A1309           const [5]: (152279552)
2663  04                 const type 4
2664  14                 string size (20)
2665  674C6F7475734E70+  "gLotusNp"
266D  6341766174617254+  "cAvatarT"
2675  79706500           "ype\0"
                         const [6]: "gLotusNpcAvatarType"
2679  01                 const type 3
267A  0125A76D           const [7]: (1839670529)
267E  01                 const type 3
267F  D7BC4C6B           const [8]: (1800191191)
2683  01                 const type 3
2684  65770E40           const [9]: (1074689893)
2688  01                 const type 3
2689  EA911120           const [10]: (538022378)
                         * functions:
268D  00                 sizep (0)
                         * lines:
268E  3C                 sizelineinfo (60)
                         [pc] (line)
268F  8A                 [01] (-118)
2690  01                 [02] (-118)
2691  00                 [03] (-118)
2692  00                 [04] (-117)
2693  8A                 [05] (-115)
2694  01                 [06] (-115)
2695  00                 [07] (-115)
2696  00                 [08] (-114)
2697  8A                 [09] (-114)
2698  01                 [10] (-114)
2699  00                 [11] (-114)
269A  00                 [12] (-113)
269B  8B                 [13] (-111)
269C  01                 [14] (-111)
269D  00                 [15] (-111)
269E  00                 [16] (-111)
269F  8D                 [17] (-110)
26A0  01                 [18] (-109)
26A1  00                 [19] (-109)
26A2  00                 [20] (-109)
26A3  8D                 [21] (-109)
26A4  01                 [22] (-109)
26A5  00                 [23] (-109)
26A6  00                 [24] (-109)
26A7  8D                 [25] (-109)
26A8  01                 [26] (-107)
26A9  00                 [27] (-107)
26AA  00                 [28] (-107)
26AB  8E                 [29] (-107)
26AC  01                 [30] (-106)
26AD  00                 [31] (-106)
26AE  00                 [32] (-106)
26AF  8E                 [33] (-106)
26B0  01                 [34] (-106)
26B1  00                 [35] (-105)
26B2  00                 [36] (-107)
26B3  8E                 [37] (-104)
26B4  01                 [38] (-101)
26B5  00                 [39] (-101)
26B6  00                 [40] (-101)
26B7  8E                 [41] (-101)
26B8  01                 [42] (-101)
26B9  00                 [43] (-101)
26BA  00                 [44] (-101)
26BB  8F                 [45] (-100)
26BC  01                 [46] (-100)
26BD  00                 [47] (-100)
26BE  00                 [48] (-100)
26BF  91                 [49] (-100)
26C0  01                 [50] (-98)
26C1  00                 [51] (-98)
26C2  00                 [52] (-98)
26C3  91                 [53] (-98)
26C4  01                 [54] (-111)
26C5  00                 [55] (-97)
26C6  00                 [56] (-94)
26C7  91                 [57] (-94)
26C8  01                 [58] (-94)
26C9  00                 [59] (-94)
26CA  00                 [60] (-92)
                         * locals:
277F  00                 sizelocvars (0)
                         * upvalues:
2780  00                 sizeupvalues (0)
                         ** end of function **

                         
2781                     ** function [22] definition (level 2)
                         ** start of function **
2781  00                 string size (0)
                         source name: (none)
2783  03                 line defined (423)
2784  AD                 last line defined (429)
2785  03                 nups (1)
2786  01                 numparams (0)
2787  00                 is_vararg (0)
2788  00                 maxstacksize (7)
                         * code:
278A  09                 sizecode (9)
278B  19000000           [1] loadk      0   0        ; 10
278F  59400000           [2] loadk      1   1        ; 10
2793  99800000           [3] loadk      2   2        ; 0
2797  D3000000           [4] getupval   3   0      
279B  12010001           [5] move       4   2      
279F  52018000           [6] move       5   1      
27A3  92010000           [7] move       6   0      
27A7  E2400002           [8] call       3   4   1  
27AB  1E008000           [9] return     0   1      
                         * constants:
27AF  03                 sizek (3)
27B0  03                 const type 3
27B1  0AD7A33C           const [0]: (10)
27B5  03                 const type 3
27B6  0AD7A3BC           const [1]: (10)
27BA  03                 const type 3
27BB  00002041           const [2]: (0)
                         * functions:
27BF  00                 sizep (0)
                         * lines:
27C0  09                 sizelineinfo (9)
                         [pc] (line)
27C1  A8                 [1] (-88)
27C2  01                 [2] (-87)
27C3  00                 [3] (-86)
27C4  00                 [4] (-84)
27C5  A9                 [5] (-84)
27C6  01                 [6] (-84)
27C7  00                 [7] (-84)
27C8  00                 [8] (-84)
27C9  AA                 [9] (-83)
                         * locals:
27E5  00                 sizelocvars (0)
                         * upvalues:
27E6  00                 sizeupvalues (0)
                         ** end of function **

                         
27E7                     ** function [23] definition (level 2)
                         ** start of function **
27E7  00                 string size (0)
                         source name: (none)
27E9  03                 line defined (432)
27EA  B6                 last line defined (438)
27EB  03                 nups (1)
27EC  01                 numparams (0)
27ED  00                 is_vararg (0)
27EE  00                 maxstacksize (7)
                         * code:
27F0  09                 sizecode (9)
27F1  19000000           [1] loadk      0   0        ; 10
27F5  59400000           [2] loadk      1   1        ; 0
27F9  99800000           [3] loadk      2   2        ; 0
27FD  D3000000           [4] getupval   3   0      
2801  12010001           [5] move       4   2      
2805  52018000           [6] move       5   1      
2809  92010000           [7] move       6   0      
280D  E2400002           [8] call       3   4   1  
2811  1E008000           [9] return     0   1      
                         * constants:
2815  03                 sizek (3)
2816  03                 const type 3
2817  0AD7A3BC           const [0]: (10)
281B  03                 const type 3
281C  00000000           const [1]: (0)
2820  03                 const type 3
2821  00002041           const [2]: (0)
                         * functions:
2825  00                 sizep (0)
                         * lines:
2826  09                 sizelineinfo (9)
                         [pc] (line)
2827  B1                 [1] (-79)
2828  01                 [2] (-78)
2829  00                 [3] (-77)
282A  00                 [4] (-75)
282B  B2                 [5] (-75)
282C  01                 [6] (-75)
282D  00                 [7] (-75)
282E  00                 [8] (-75)
282F  B3                 [9] (-74)
                         * locals:
284B  00                 sizelocvars (0)
                         * upvalues:
284C  00                 sizeupvalues (0)
                         ** end of function **

                         
284D                     ** function [24] definition (level 2)
                         ** start of function **
284D  00                 string size (0)
                         source name: (none)
284F  03                 line defined (441)
2850  A6                 last line defined (550)
2851  04                 nups (7)
2852  07                 numparams (0)
2853  00                 is_vararg (0)
2854  00                 maxstacksize (29)
                         * code:
2857  01                 sizecode (254)
2858  1D000000           [001] getglobal  0   0        ; gRegion
285C  24404000           [002] self       0   0   257  ; -156454186
2860  22800001           [003] call       0   2   2  
2864  5D800000           [004] getglobal  1   2        ; gGameRules
2868  A4C0C000           [005] self       2   1   259  ; -502414055
286C  A2800001           [006] call       2   2   2  
2870  E400C100           [007] self       3   1   260  ; -1201441975
2874  E2800001           [008] call       3   2   2  
2878  2441C100           [009] self       4   1   261  ; 37068124
287C  22810001           [010] call       4   2   2  
2880  18410000           [011] test       4       1    ; to [13] if false
2884  1A402280           [012] jmp        138          ; to [151]
2888  2481C100           [013] self       4   1   262  ; 1564664530
288C  97018000           [014] loadbool   6   1   0    ; true
2890  22418001           [015] call       4   3   1  
2894  19C10100           [016] loadk      4   7        ; ""
2898  4E01C201           [017] gettable   5   3   264  ; "alertId"
fail op	35
289C  63C0C102           [018] close      1  
28A0  1AC00680           [019] jmp        28           ; to [48]
28A4  5D410200           [020] getglobal  5   9        ; Lotus_Game
28A8  4E81C202           [021] gettable   5   5   266  ; "MT_RETRIEVAL"
fail op	35
28AC  23400101           [022] close      0  
28B0  1AC00280           [023] jmp        12           ; to [36]
28B4  64C1C200           [024] self       5   1   267  ; -1263172313
28B8  DD410200           [025] getglobal  7   9        ; Lotus_Game
28BC  CE01C303           [026] gettable   7   7   268  ; "LotusBaseGameRules_NM_ENERGY_DRAIN"
28C0  17028000           [027] loadbool   8   1   0    ; true
28C4  62410002           [028] call       5   4   1  
28C8  52010002           [029] move       5   4      
28CC  9D410300           [030] getglobal  6   13       ; -421772368
28D0  D9810300           [031] loadk      7   14       ; "/Lotus/Language/Game/NightmareModeEnergyDrain"
28D4  0B020000           [032] newtable   8   0   0    ; array=0, hash=0
28D8  A2818001           [033] call       6   3   2  
28DC  02818102           [034] concat     4   5   6  
28E0  1A800F80           [035] jmp        63           ; to [99]
28E4  64C1C200           [036] self       5   1   267  ; -1263172313
28E8  DD410200           [037] getglobal  7   9        ; Lotus_Game
28EC  CEC1C303           [038] gettable   7   7   271  ; "LotusBaseGameRules_NM_NO_SHIELD"
28F0  17028000           [039] loadbool   8   1   0    ; true
28F4  62410002           [040] call       5   4   1  
28F8  52010002           [041] move       5   4      
28FC  9D410300           [042] getglobal  6   13       ; -421772368
2900  D9010400           [043] loadk      7   16       ; "/Lotus/Language/Game/NightmareModeNoShield"
2904  0B020000           [044] newtable   8   0   0    ; array=0, hash=0
2908  A2818001           [045] call       6   3   2  
290C  02818102           [046] concat     4   5   6  
2910  1A800C80           [047] jmp        51           ; to [99]
2914  5D410200           [048] getglobal  5   9        ; Lotus_Game
2918  4E41C402           [049] gettable   5   5   273  ; "MT_RAID"
fail op	35
291C  23400101           [050] close      0  
2920  1A400180           [051] jmp        6            ; to [58]
2924  64C1C200           [052] self       5   1   267  ; -1263172313
2928  DD410200           [053] getglobal  7   9        ; Lotus_Game
292C  CE81C403           [054] gettable   7   7   274  ; "LotusBaseGameRules_NM_CUSTOM"
2930  17028000           [055] loadbool   8   1   0    ; true
2934  62410002           [056] call       5   4   1  
2938  1A000A80           [057] jmp        41           ; to [99]
293C  53010000           [058] getupval   5   0      
2940  4EC1C402           [059] gettable   5   5   275  ; -321380071
2944  A401C100           [060] self       6   1   260  ; -1201441975
2948  A2010001           [061] call       6   2   0  
294C  62810000           [062] call       5   0   2  
2950  9D010500           [063] getglobal  6   20       ; 1672515847
2954  D2018002           [064] move       7   5      
2958  A2010101           [065] call       6   2   4  
295C  1A400780           [066] jmp        30           ; to [97]
2960  E4C2C200           [067] self       11  1   267  ; -1263172313
2964  4E434505           [068] gettable   13  10  277  ; 0
2968  97038000           [069] loadbool   14  1   0    ; true
296C  E2420002           [070] call       11  4   1  
2970  CE824505           [071] gettable   11  10  278  ; 0
fail op	35
2974  6340C504           [072] close      1  
2978  1A800080           [073] jmp        3            ; to [77]
297C  12030002           [074] move       12  4      
2980  59C30500           [075] loadk      13  23       ; "\r\n"
2984  02410306           [076] concat     4   12  13 
2988  1D430300           [077] getglobal  12  13       ; -421772368
298C  52038005           [078] move       13  11     
2990  8B030000           [079] newtable   14  0   0    ; array=0, hash=0
2994  22838001           [080] call       12  3   2  
2998  52030002           [081] move       13  4      
299C  9D430300           [082] getglobal  14  13       ; -421772368
29A0  D9030600           [083] loadk      15  24       ; "/Lotus/Language/Game/NightmareMode_Exclamation"
29A4  0B440000           [084] newtable   16  0   1    ; array=0, hash=1
29A8  0C04838C           [085] settable   16  281 12   ; "MODE"
29AC  A2838001           [086] call       14  3   2  
29B0  02818306           [087] concat     4   13  14 
29B4  4E434505           [088] gettable   13  10  277  ; 0
29B8  9D430200           [089] getglobal  14  9        ; Lotus_Game
29BC  8E834607           [090] gettable   14  14  282  ; "LotusBaseGameRules_NM_LOW_GRAVITY"
fail op	35
29C0  23808306           [091] close      0  
29C4  1AC00080           [092] jmp        4            ; to [97]
29C8  64C3C600           [093] self       13  1   283  ; 1994439211
29CC  CE034700           [094] gettable   15  0   284  ; "y"
29D0  C443C707           [095] mul        15  15  285  ; 0
29D4  62438001           [096] call       13  3   1  
29D8  96810000           [097] tforloop   6       2    ; to [99] if exit
29DC  1AC0F77F           [098] jmp        -32          ; to [67]
29E0  5D030000           [099] getglobal  13  0        ; gRegion
29E4  6483C706           [100] self       13  13  286  ; -1456226250
29E8  62830001           [101] call       13  2   2  
29EC  9DC30700           [102] getglobal  14  31       ; 1074689893
29F0  D2038006           [103] move       15  13     
29F4  A2830001           [104] call       14  2   2  
29F8  98030000           [105] test       14      0    ; to [107] if true
29FC  1AC00180           [106] jmp        8            ; to [115]
2A00  9D030800           [107] getglobal  14  32       ; 538022378
2A04  D9430500           [108] loadk      15  21       ; 0
2A08  A2430001           [109] call       14  2   1  
2A0C  9D030000           [110] getglobal  14  0        ; gRegion
2A10  A4834707           [111] self       14  14  286  ; -1456226250
2A14  A2830001           [112] call       14  2   2  
2A18  52030007           [113] move       13  14     
2A1C  1A80FC7F           [114] jmp        -13          ; to [102]
2A20  9D430800           [115] getglobal  14  33       ; _T
2A24  8E834807           [116] gettable   14  14  290  ; "ShowImpactMessage"
2A28  98030000           [117] test       14      0    ; to [119] if true
2A2C  1A000280           [118] jmp        9            ; to [128]
2A30  9D030000           [119] getglobal  14  0        ; gRegion
2A34  A4C34807           [120] self       14  14  291  ; 2066713391
2A38  A2830001           [121] call       14  2   2  
2A3C  98430000           [122] test       14      1    ; to [124] if false
2A40  1AC00080           [123] jmp        4            ; to [128]
2A44  A403C906           [124] self       14  13  292  ; 152824360
2A48  A2830001           [125] call       14  2   2  
fail op	35
2A4C  63404907           [126] close      1  
2A50  1AC00080           [127] jmp        4            ; to [132]
2A54  9D030800           [128] getglobal  14  32       ; 538022378
2A58  D9430500           [129] loadk      15  21       ; 0
2A5C  A2430001           [130] call       14  2   1  
2A60  1A80FB7F           [131] jmp        -17          ; to [115]
fail op	35
2A64  63C04102           [132] close      1  
2A68  1A000480           [133] jmp        17           ; to [151]
2A6C  9D030000           [134] getglobal  14  0        ; gRegion
2A70  A4834907           [135] self       14  14  294  ; 1224466847
2A74  A2830001           [136] call       14  2   2  
2A78  DD030500           [137] getglobal  15  20       ; 1672515847
2A7C  12040007           [138] move       16  14     
2A80  E2030101           [139] call       15  2   4  
2A84  1AC00180           [140] jmp        8            ; to [149]
2A88  24C5C900           [141] self       20  1   295  ; 908734006
2A8C  92058009           [142] move       22  19     
2A90  D2050002           [143] move       23  4      
2A94  19C60100           [144] loadk      24  7        ; ""
2A98  59460900           [145] loadk      25  37       ; 0
2A9C  99060A00           [146] loadk      26  40       ; 0
2AA0  D7068000           [147] loadbool   27  1   0    ; true
2AA4  22450004           [148] call       20  8   1  
2AA8  D6830000           [149] tforloop   15      2    ; to [151] if exit
2AAC  1A40FD7F           [150] jmp        -10          ; to [141]
2AB0  2445CA00           [151] self       20  1   297  ; -346169016
2AB4  9D450200           [152] getglobal  22  9        ; Lotus_Game
2AB8  8E85440B           [153] gettable   22  22  274  ; "LotusBaseGameRules_NM_CUSTOM"
2ABC  22858001           [154] call       20  3   2  
2AC0  18050000           [155] test       20      0    ; to [157] if true
2AC4  1A000080           [156] jmp        1            ; to [158]
2AC8  1E008000           [157] return     0   1      
2ACC  0605000A           [158] loadnil    20  20     
2AD0  6445CA00           [159] self       21  1   297  ; -346169016
2AD4  DD450200           [160] getglobal  23  9        ; Lotus_Game
2AD8  CE85CA0B           [161] gettable   23  23  298  ; "LotusBaseGameRules_NM_VAMPIRE"
2ADC  62858001           [162] call       21  3   2  
2AE0  58050000           [163] test       21      0    ; to [165] if true
2AE4  1A400080           [164] jmp        2            ; to [167]
2AE8  53058000           [165] getupval   21  1      
2AEC  62458000           [166] call       21  1   1  
2AF0  6445CA00           [167] self       21  1   297  ; -346169016
2AF4  DD450200           [168] getglobal  23  9        ; Lotus_Game
2AF8  CEC5CA0B           [169] gettable   23  23  299  ; "LotusBaseGameRules_NM_TIMED"
2AFC  62858001           [170] call       21  3   2  
2B00  58050000           [171] test       21      0    ; to [173] if true
2B04  1A401080           [172] jmp        66           ; to [239]
2B08  5DC50700           [173] getglobal  21  31       ; 1074689893
2B0C  9205000A           [174] move       22  20     
2B10  62850001           [175] call       21  2   2  
2B14  58050000           [176] test       21      0    ; to [178] if true
2B18  1A400A80           [177] jmp        42           ; to [220]
2B1C  5DC50700           [178] getglobal  21  31       ; 1074689893
2B20  9D450800           [179] getglobal  22  33       ; _T
2B24  8E054B0B           [180] gettable   22  22  300  ; "AddHudTracker"
2B28  62850001           [181] call       21  2   2  
2B2C  58450000           [182] test       21      1    ; to [184] if false
2B30  1A800D80           [183] jmp        55           ; to [239]
2B34  53050001           [184] getupval   21  2      
2B38  4E45CB0A           [185] gettable   21  21  301  ; 28862632
2B3C  62858000           [186] call       21  1   2  
2B40  4385CB0A           [187] add        21  21  302  ; 0
2B44  93050001           [188] getupval   22  2      
2B48  8EC54B0B           [189] gettable   22  22  303  ; -95499506
2B4C  A2C58000           [190] call       22  1   3  
2B50  1D460800           [191] getglobal  24  33       ; _T
2B54  0E064C0C           [192] gettable   24  24  304  ; 972116663
2B58  59460C00           [193] loadk      25  49       ; "NMTimer"
2B5C  93060000           [194] getupval   26  0      
2B60  8E864C0D           [195] gettable   26  26  306  ; "HT_TIMER"
2B64  D9C60C00           [196] loadk      27  51       ; 0
2B68  1207800A           [197] move       28  21     
2B6C  22868002           [198] call       24  5   2  
2B70  1205000C           [199] move       20  24     
2B74  0E064D0A           [200] gettable   24  20  308  ; 185724978
2B78  5D460D00           [201] getglobal  25  53       ; -1615931716
2B7C  93068001           [202] getupval   26  3      
2B80  62860001           [203] call       25  2   2  
2B84  99860D00           [204] loadk      26  54       ; 0
2B88  22468001           [205] call       24  3   1  
2B8C  0EC64D0A           [206] gettable   24  20  311  ; -805743707
2B90  53060002           [207] getupval   25  4      
2B94  97060000           [208] loadbool   26  0   0    ; false
2B98  D7068000           [209] loadbool   27  1   0    ; true
2B9C  22460002           [210] call       24  4   1  
2BA0  0E064E0A           [211] gettable   24  20  312  ; 934616952
2BA4  53068002           [212] getupval   25  5      
2BA8  22460001           [213] call       24  2   1  
2BAC  0E464E0A           [214] gettable   24  20  313  ; -632628974
2BB0  5206000B           [215] move       25  22     
2BB4  9206800B           [216] move       26  23     
2BB8  D7068000           [217] loadbool   27  1   0    ; true
2BBC  22460002           [218] call       24  4   1  
2BC0  1A800480           [219] jmp        19           ; to [239]
2BC4  1D860000           [220] getglobal  24  2        ; gGameRules
2BC8  24864E0C           [221] self       24  24  314  ; -1563739195
2BCC  22860001           [222] call       24  2   2  
2BD0  18460000           [223] test       24      1    ; to [225] if false
2BD4  1A400380           [224] jmp        14           ; to [239]
2BD8  1D860000           [225] getglobal  24  2        ; gGameRules
2BDC  24C64E0C           [226] self       24  24  315  ; -2002867451
2BE0  22860001           [227] call       24  2   2  
2BE4  18460000           [228] test       24      1    ; to [230] if false
2BE8  1A000280           [229] jmp        9            ; to [239]
2BEC  0E064F0A           [230] gettable   24  20  316  ; "Data"
2BF0  0E464F0C           [231] gettable   24  24  317  ; "Time"
fail op	33
2BF4  2140490C           [232] tforloop   0       293  ; to [234] if exit
2BF8  1A000180           [233] jmp        5            ; to [239]
2BFC  1D860000           [234] getglobal  24  2        ; gGameRules
2C00  24864F0C           [235] self       24  24  318  ; -34409044
2C04  9DC60F00           [236] getglobal  26  63       ; Engine
2C08  8E06500D           [237] gettable   26  26  320  ; "GameRules_GS_FAILURE"
2C0C  22468001           [238] call       24  3   1  
2C10  2446CA00           [239] self       24  1   297  ; -346169016
2C14  9D460200           [240] getglobal  26  9        ; Lotus_Game
2C18  8E46500D           [241] gettable   26  26  321  ; "LotusBaseGameRules_NM_NO_HUD"
2C1C  22868001           [242] call       24  3   2  
2C20  18060000           [243] test       24      0    ; to [245] if true
2C24  1AC0FF7F           [244] jmp        0            ; to [245]
2C28  13060003           [245] getupval   24  6      
2C2C  5D861000           [246] getglobal  25  66       ; 1289681407
2C30  62868000           [247] call       25  1   2  
2C34  0346060C           [248] add        24  24  25 
fail op	8
2C38  08060003           [249] setupval   24  6      
2C3C  1D060800           [250] getglobal  24  32       ; 538022378
2C40  59460900           [251] loadk      25  37       ; 0
2C44  22460001           [252] call       24  2   1  
2C48  1A00E87F           [253] jmp        -95          ; to [159]
2C4C  1E008000           [254] return     0   1      
                         * constants:
2C50  43                 sizek (67)
2C51  04                 const type 4
2C52  08                 string size (8)
2C53  67526567696F6E00   "gRegion\0"
                         const [0]: "gRegion"
2C5B  01                 const type 3
2C5C  D6B2ACF6           const [1]: (-156454186)
2C60  04                 const type 4
2C61  0B                 string size (11)
2C62  6747616D6552756C+  "gGameRul"
2C6A  657300             "es\0"
                         const [2]: "gGameRules"
2C6D  01                 const type 3
2C6E  19C50DE2           const [3]: (-502414055)
2C72  01                 const type 3
2C73  497363B8           const [4]: (-1201441975)
2C77  01                 const type 3
2C78  5C9D3502           const [5]: (37068124)
2C7C  01                 const type 3
2C7D  D2E2425D           const [6]: (1564664530)
2C81  04                 const type 4
2C82  01                 string size (0)
                         const [7]: ""
2C84  04                 const type 4
2C85  08                 string size (8)
2C86  616C657274496400   "alertId\0"
                         const [8]: "alertId"
2C8E  04                 const type 4
2C8F  0B                 string size (11)
2C90  4C6F7475735F4761+  "Lotus_Ga"
2C98  6D6500             "me\0"
                         const [9]: "Lotus_Game"
2C9B  04                 const type 4
2C9C  0D                 string size (13)
2C9D  4D545F5245545249+  "MT_RETRI"
2CA5  4556414C00         "EVAL\0"
                         const [10]: "MT_RETRIEVAL"
2CAA  01                 const type 3
2CAB  2785B5B4           const [11]: (-1263172313)
2CAF  04                 const type 4
2CB0  23                 string size (35)
2CB1  4C6F747573426173+  "LotusBas"
2CB9  6547616D6552756C+  "eGameRul"
2CC1  65735F4E4D5F454E+  "es_NM_EN"
2CC9  455247595F445241+  "ERGY_DRA"
2CD1  494E00             "IN\0"
                         const [12]: "LotusBaseGameRules_NM_ENERGY_DRAIN"
2CD4  01                 const type 3
2CD5  B043DCE6           const [13]: (-421772368)
2CD9  04                 const type 4
2CDA  2E                 string size (46)
2CDB  2F4C6F7475732F4C+  "/Lotus/L"
2CE3  616E67756167652F+  "anguage/"
2CEB  47616D652F4E6967+  "Game/Nig"
2CF3  68746D6172654D6F+  "htmareMo"
2CFB  6465456E65726779+  "deEnergy"
2D03  447261696E00       "Drain\0"
                         const [14]: "/Lotus/Language/Game/NightmareModeEnergyDrain"
2D09  04                 const type 4
2D0A  20                 string size (32)
2D0B  4C6F747573426173+  "LotusBas"
2D13  6547616D6552756C+  "eGameRul"
2D1B  65735F4E4D5F4E4F+  "es_NM_NO"
2D23  5F534849454C4400   "_SHIELD\0"
                         const [15]: "LotusBaseGameRules_NM_NO_SHIELD"
2D2B  04                 const type 4
2D2C  2B                 string size (43)
2D2D  2F4C6F7475732F4C+  "/Lotus/L"
2D35  616E67756167652F+  "anguage/"
2D3D  47616D652F4E6967+  "Game/Nig"
2D45  68746D6172654D6F+  "htmareMo"
2D4D  64654E6F53686965+  "deNoShie"
2D55  6C6400             "ld\0"
                         const [16]: "/Lotus/Language/Game/NightmareModeNoShield"
2D58  04                 const type 4
2D59  08                 string size (8)
2D5A  4D545F5241494400   "MT_RAID\0"
                         const [17]: "MT_RAID"
2D62  04                 const type 4
2D63  1D                 string size (29)
2D64  4C6F747573426173+  "LotusBas"
2D6C  6547616D6552756C+  "eGameRul"
2D74  65735F4E4D5F4355+  "es_NM_CU"
2D7C  53544F4D00         "STOM\0"
                         const [18]: "LotusBaseGameRules_NM_CUSTOM"
2D81  01                 const type 3
2D82  1921D8EC           const [19]: (-321380071)
2D86  01                 const type 3
2D87  0791B063           const [20]: (1672515847)
2D8B  03                 const type 3
2D8C  0000803F           const [21]: (0)
2D90  03                 const type 3
2D91  00000040           const [22]: (0)
2D95  04                 const type 4
2D96  03                 string size (3)
2D97  0D0A00             "\r\n\0"
                         const [23]: "\r\n"
2D9A  04                 const type 4
2D9B  2F                 string size (47)
2D9C  2F4C6F7475732F4C+  "/Lotus/L"
2DA4  616E67756167652F+  "anguage/"
2DAC  47616D652F4E6967+  "Game/Nig"
2DB4  68746D6172654D6F+  "htmareMo"
2DBC  64655F4578636C61+  "de_Excla"
2DC4  6D6174696F6E00     "mation\0"
                         const [24]: "/Lotus/Language/Game/NightmareMode_Exclamation"
2DCB  04                 const type 4
2DCC  05                 string size (5)
2DCD  4D4F444500         "MODE\0"
                         const [25]: "MODE"
2DD2  04                 const type 4
2DD3  22                 string size (34)
2DD4  4C6F747573426173+  "LotusBas"
2DDC  6547616D6552756C+  "eGameRul"
2DE4  65735F4E4D5F4C4F+  "es_NM_LO"
2DEC  575F475241564954+  "W_GRAVIT"
2DF4  5900               "Y\0"
                         const [26]: "LotusBaseGameRules_NM_LOW_GRAVITY"
2DF6  01                 const type 3
2DF7  2BBAE076           const [27]: (1994439211)
2DFB  04                 const type 4
2DFC  02                 string size (2)
2DFD  7900               "y\0"
                         const [28]: "y"
2DFF  03                 const type 3
2E00  0000003F           const [29]: (0)
2E04  01                 const type 3
2E05  36C033A9           const [30]: (-1456226250)
2E09  01                 const type 3
2E0A  65770E40           const [31]: (1074689893)
2E0E  01                 const type 3
2E0F  EA911120           const [32]: (538022378)
2E13  04                 const type 4
2E14  03                 string size (3)
2E15  5F5400             "_T\0"
                         const [33]: "_T"
2E18  04                 const type 4
2E19  12                 string size (18)
2E1A  53686F77496D7061+  "ShowImpa"
2E22  63744D6573736167+  "ctMessag"
2E2A  6500               "e\0"
                         const [34]: "ShowImpactMessage"
2E2C  01                 const type 3
2E2D  2F8B2F7B           const [35]: (2066713391)
2E31  01                 const type 3
2E32  28EA1B09           const [36]: (152824360)
2E36  03                 const type 3
2E37  00000000           const [37]: (0)
2E3B  01                 const type 3
2E3C  9FE1FB48           const [38]: (1224466847)
2E40  01                 const type 3
2E41  362E2A36           const [39]: (908734006)
2E45  03                 const type 3
2E46  00004040           const [40]: (0)
2E4A  01                 const type 3
2E4B  48E15DEB           const [41]: (-346169016)
2E4F  04                 const type 4
2E50  1E                 string size (30)
2E51  4C6F747573426173+  "LotusBas"
2E59  6547616D6552756C+  "eGameRul"
2E61  65735F4E4D5F5641+  "es_NM_VA"
2E69  4D5049524500       "MPIRE\0"
                         const [42]: "LotusBaseGameRules_NM_VAMPIRE"
2E6F  04                 const type 4
2E70  1C                 string size (28)
2E71  4C6F747573426173+  "LotusBas"
2E79  6547616D6552756C+  "eGameRul"
2E81  65735F4E4D5F5449+  "es_NM_TI"
2E89  4D454400           "MED\0"
                         const [43]: "LotusBaseGameRules_NM_TIMED"
2E8D  04                 const type 4
2E8E  0E                 string size (14)
2E8F  4164644875645472+  "AddHudTr"
2E97  61636B657200       "acker\0"
                         const [44]: "AddHudTracker"
2E9D  01                 const type 3
2E9E  A868B801           const [45]: (28862632)
2EA2  03                 const type 3
2EA3  0000C040           const [46]: (0)
2EA7  01                 const type 3
2EA8  0ECB4EFA           const [47]: (-95499506)
2EAC  01                 const type 3
2EAD  B752F139           const [48]: (972116663)
2EB1  04                 const type 4
2EB2  08                 string size (8)
2EB3  4E4D54696D657200   "NMTimer\0"
                         const [49]: "NMTimer"
2EBB  04                 const type 4
2EBC  09                 string size (9)
2EBD  48545F54494D4552+  "HT_TIMER"
2EC5  00                 "\0"
                         const [50]: "HT_TIMER"
2EC6  03                 const type 3
2EC7  0000803E           const [51]: (0)
2ECB  01                 const type 3
2ECC  32F0110B           const [52]: (185724978)
2ED0  01                 const type 3
2ED1  BCD6AE9F           const [53]: (-1615931716)
2ED5  03                 const type 3
2ED6  0000A040           const [54]: (0)
2EDA  01                 const type 3
2EDB  A553F9CF           const [55]: (-805743707)
2EDF  01                 const type 3
2EE0  781FB537           const [56]: (934616952)
2EE4  01                 const type 3
2EE5  12D94ADA           const [57]: (-632628974)
2EE9  01                 const type 3
2EEA  C53BCBA2           const [58]: (-1563739195)
2EEE  01                 const type 3
2EEF  05AB9E88           const [59]: (-2002867451)
2EF3  04                 const type 4
2EF4  05                 string size (5)
2EF5  4461746100         "Data\0"
                         const [60]: "Data"
2EFA  04                 const type 4
2EFB  05                 string size (5)
2EFC  54696D6500         "Time\0"
                         const [61]: "Time"
2F01  01                 const type 3
2F02  ACF5F2FD           const [62]: (-34409044)
2F06  04                 const type 4
2F07  07                 string size (7)
2F08  456E67696E6500     "Engine\0"
                         const [63]: "Engine"
2F0F  04                 const type 4
2F10  15                 string size (21)
2F11  47616D6552756C65+  "GameRule"
2F19  735F47535F464149+  "s_GS_FAI"
2F21  4C55524500         "LURE\0"
                         const [64]: "GameRules_GS_FAILURE"
2F26  04                 const type 4
2F27  1D                 string size (29)
2F28  4C6F747573426173+  "LotusBas"
2F30  6547616D6552756C+  "eGameRul"
2F38  65735F4E4D5F4E4F+  "es_NM_NO"
2F40  5F48554400         "_HUD\0"
                         const [65]: "LotusBaseGameRules_NM_NO_HUD"
2F45  01                 const type 3
2F46  FFF9DE4C           const [66]: (1289681407)
                         * functions:
2F4A  00                 sizep (0)
                         * lines:
2F4C  01                 sizelineinfo (254)
                         [pc] (line)
2F4D  BB                 [001] (-69)
2F4E  01                 [002] (-69)
2F4F  00                 [003] (-69)
2F50  00                 [004] (-68)
2F51  BB                 [005] (-67)
2F52  01                 [006] (-67)
2F53  00                 [007] (-66)
2F54  00                 [008] (-66)
2F55  BB                 [009] (-56)
2F56  01                 [010] (-56)
2F57  00                 [011] (-56)
2F58  00                 [012] (-56)
2F59  BC                 [013] (-55)
2F5A  01                 [014] (-55)
2F5B  00                 [015] (-55)
2F5C  00                 [016] (-54)
2F5D  BD                 [017] (-52)
2F5E  01                 [018] (-52)
2F5F  00                 [019] (-52)
2F60  00                 [020] (-50)
2F61  BD                 [021] (-50)
2F62  01                 [022] (-50)
2F63  00                 [023] (-50)
2F64  00                 [024] (-48)
2F65  BE                 [025] (-48)
2F66  01                 [026] (-48)
2F67  00                 [027] (-48)
2F68  00                 [028] (-48)
2F69  BE                 [029] (-47)
2F6A  01                 [030] (-47)
2F6B  00                 [031] (-47)
2F6C  00                 [032] (-47)
2F6D  C8                 [033] (-47)
2F6E  01                 [034] (-47)
2F6F  00                 [035] (-47)
2F70  00                 [036] (-45)
2F71  C8                 [037] (-45)
2F72  01                 [038] (-45)
2F73  00                 [039] (-45)
2F74  00                 [040] (-45)
2F75  C8                 [041] (-44)
2F76  01                 [042] (-44)
2F77  00                 [043] (-44)
2F78  00                 [044] (-44)
2F79  C8                 [045] (-44)
2F7A  01                 [046] (-44)
2F7B  00                 [047] (-43)
2F7C  00                 [048] (-41)
2F7D  C9                 [049] (-41)
2F7E  01                 [050] (-41)
2F7F  00                 [051] (-41)
2F80  00                 [052] (-40)
2F81  C9                 [053] (-40)
2F82  01                 [054] (-40)
2F83  00                 [055] (-40)
2F84  00                 [056] (-40)
2F85  C9                 [057] (-40)
2F86  01                 [058] (-38)
2F87  00                 [059] (-38)
2F88  00                 [060] (-38)
2F89  CA                 [061] (-38)
2F8A  01                 [062] (-38)
2F8B  00                 [063] (-36)
2F8C  00                 [064] (-36)
2F8D  CC                 [065] (-36)
2F8E  01                 [066] (-36)
2F8F  00                 [067] (-35)
2F90  00                 [068] (-35)
2F91  CC                 [069] (-35)
2F92  01                 [070] (-35)
2F93  00                 [071] (-33)
2F94  00                 [072] (-31)
2F95  CC                 [073] (-31)
2F96  01                 [074] (-30)
2F97  00                 [075] (-30)
2F98  00                 [076] (-30)
2F99  CE                 [077] (-28)
2F9A  01                 [078] (-28)
2F9B  00                 [079] (-28)
2F9C  00                 [080] (-28)
2F9D  CE                 [081] (-27)
2F9E  01                 [082] (-27)
2F9F  00                 [083] (-27)
2FA0  00                 [084] (-27)
2FA1  CE                 [085] (-27)
2FA2  01                 [086] (-27)
2FA3  00                 [087] (-27)
2FA4  00                 [088] (-25)
2FA5  CE                 [089] (-25)
2FA6  01                 [090] (-25)
2FA7  00                 [091] (-25)
2FA8  00                 [092] (-25)
2FA9  D0                 [093] (-24)
2FAA  01                 [094] (-24)
2FAB  00                 [095] (-24)
2FAC  00                 [096] (-24)
2FAD  D0                 [097] (-36)
2FAE  01                 [098] (-23)
2FAF  00                 [099] (-18)
2FB0  00                 [100] (-18)
2FB1  D0                 [101] (-18)
2FB2  01                 [102] (-17)
2FB3  00                 [103] (-17)
2FB4  00                 [104] (-17)
2FB5  D0                 [105] (-17)
2FB6  01                 [106] (-17)
2FB7  00                 [107] (-16)
2FB8  00                 [108] (-16)
2FB9  D0                 [109] (-16)
2FBA  01                 [110] (-15)
2FBB  00                 [111] (-15)
2FBC  00                 [112] (-15)
2FBD  D1                 [113] (-15)
2FBE  01                 [114] (-15)
2FBF  00                 [115] (-12)
2FC0  00                 [116] (-12)
2FC1  D1                 [117] (-12)
2FC2  01                 [118] (-12)
2FC3  00                 [119] (-12)
2FC4  00                 [120] (-12)
2FC5  D1                 [121] (-12)
2FC6  01                 [122] (-12)
2FC7  00                 [123] (-12)
2FC8  00                 [124] (-12)
2FC9  D1                 [125] (-12)
2FCA  01                 [126] (-12)
2FCB  00                 [127] (-12)
2FCC  00                 [128] (-11)
2FCD  D1                 [129] (-11)
2FCE  01                 [130] (-11)
2FCF  00                 [131] (-11)
2FD0  00                 [132] (-8)
2FD1  D1                 [133] (-8)
2FD2  01                 [134] (-7)
2FD3  00                 [135] (-7)
2FD4  00                 [136] (-7)
2FD5  D1                 [137] (-6)
2FD6  01                 [138] (-6)
2FD7  00                 [139] (-6)
2FD8  00                 [140] (-6)
2FD9  D3                 [141] (-5)
2FDA  01                 [142] (-5)
2FDB  00                 [143] (-5)
2FDC  00                 [144] (-5)
2FDD  D3                 [145] (-5)
2FDE  01                 [146] (-5)
2FDF  00                 [147] (-5)
2FE0  00                 [148] (-5)
2FE1  D3                 [149] (-6)
2FE2  01                 [150] (-5)
2FE3  00                 [151] (0)
2FE4  00                 [152] (0)
2FE5  D3                 [153] (0)
2FE6  01                 [154] (0)
2FE7  00                 [155] (0)
2FE8  00                 [156] (0)
2FE9  D3                 [157] (1)
2FEA  01                 [158] (5)
2FEB  00                 [159] (8)
2FEC  00                 [160] (8)
2FED  D4                 [161] (8)
2FEE  01                 [162] (8)
2FEF  00                 [163] (8)
2FF0  00                 [164] (8)
2FF1  D4                 [165] (9)
2FF2  01                 [166] (9)
2FF3  00                 [167] (12)
2FF4  00                 [168] (12)
2FF5  D4                 [169] (12)
2FF6  01                 [170] (12)
2FF7  00                 [171] (12)
2FF8  00                 [172] (12)
2FF9  D4                 [173] (13)
2FFA  01                 [174] (13)
2FFB  00                 [175] (13)
2FFC  00                 [176] (13)
2FFD  D4                 [177] (13)
2FFE  01                 [178] (14)
2FFF  00                 [179] (14)
3000  00                 [180] (14)
3001  D4                 [181] (14)
3002  01                 [182] (14)
3003  00                 [183] (14)
3004  00                 [184] (15)
3005  D5                 [185] (15)
3006  01                 [186] (15)
3007  00                 [187] (15)
3008  00                 [188] (16)
3009  D7                 [189] (16)
300A  01                 [190] (16)
300B  00                 [191] (17)
300C  00                 [192] (17)
300D  D7                 [193] (17)
300E  01                 [194] (17)
300F  00                 [195] (17)
3010  00                 [196] (17)
3011  D7                 [197] (17)
3012  01                 [198] (17)
3013  00                 [199] (17)
3014  00                 [200] (18)
3015  D7                 [201] (18)
3016  01                 [202] (18)
3017  00                 [203] (18)
3018  00                 [204] (18)
3019  D8                 [205] (18)
301A  01                 [206] (19)
301B  00                 [207] (19)
301C  00                 [208] (19)
301D  D8                 [209] (19)
301E  01                 [210] (19)
301F  00                 [211] (20)
3020  00                 [212] (20)
3021  D8                 [213] (20)
3022  01                 [214] (21)
3023  00                 [215] (21)
3024  00                 [216] (21)
3025  D8                 [217] (21)
3026  01                 [218] (21)
3027  00                 [219] (22)
3028  00                 [220] (23)
3029  D8                 [221] (23)
302A  01                 [222] (23)
302B  00                 [223] (23)
302C  00                 [224] (23)
302D  D8                 [225] (23)
302E  01                 [226] (23)
302F  00                 [227] (23)
3030  00                 [228] (23)
3031  DA                 [229] (23)
3032  01                 [230] (24)
3033  00                 [231] (24)
3034  00                 [232] (24)
3035  DA                 [233] (24)
3036  01                 [234] (25)
3037  00                 [235] (25)
3038  00                 [236] (25)
3039  DA                 [237] (25)
303A  01                 [238] (25)
303B  00                 [239] (30)
303C  00                 [240] (30)
303D  DA                 [241] (30)
303E  01                 [242] (30)
303F  00                 [243] (30)
3040  00                 [244] (30)
3041  DA                 [245] (34)
3042  01                 [246] (34)
3043  00                 [247] (34)
3044  00                 [248] (34)
3045  DC                 [249] (34)
3046  01                 [250] (35)
3047  00                 [251] (35)
3048  00                 [252] (35)
3049  DC                 [253] (35)
304A  01                 [254] (38)
                         * locals:
3345  00                 sizelocvars (0)
                         * upvalues:
3346  00                 sizeupvalues (0)
                         ** end of function **

                         
3347                     ** function [25] definition (level 2)
                         ** start of function **
3347  00                 string size (0)
                         source name: (none)
3349  04                 line defined (555)
334A  D9                 last line defined (601)
334B  04                 nups (1)
334C  01                 numparams (2)
334D  02                 is_vararg (0)
334E  00                 maxstacksize (11)
                         * code:
3350  1E                 sizecode (30)
3351  A400C000           [01] self       2   1   256  ; -2135866365
3355  A2800001           [02] call       2   2   2  
3359  DD400000           [03] getglobal  3   1        ; 1074689893
335D  12010001           [04] move       4   2      
3361  E2800001           [05] call       3   2   2  
3365  D8000000           [06] test       3       0    ; to [8] if true
3369  1A000080           [07] jmp        1            ; to [9]
336D  1E008000           [08] return     0   1      
3371  E4804001           [09] self       3   2   258  ; -1544157541
3375  E2800001           [10] call       3   2   2  
3379  E4C0C001           [11] self       3   3   259  ; 84325392
337D  E2800001           [12] call       3   2   2  
3381  24814001           [13] self       4   2   258  ; -1544157541
3385  22810001           [14] call       4   2   2  
3389  5D010100           [15] getglobal  5   4        ; gGameRules
338D  6441C102           [16] self       5   5   261  ; -346169016
3391  DD810100           [17] getglobal  7   6        ; Lotus_Game
3395  CEC1C103           [18] gettable   7   7   263  ; "LotusBaseGameRules_NM_CUSTOM"
3399  62818001           [19] call       5   3   2  
339D  58410000           [20] test       5       1    ; to [22] if false
33A1  1AC00180           [21] jmp        8            ; to [30]
33A5  64014202           [22] self       5   4   264  ; -1844106636
33A9  D3010000           [23] getupval   7   0      
33AD  1D420200           [24] getglobal  8   9        ; Engine
33B1  0E824204           [25] gettable   8   8   266  ; "DT_ANY"
33B5  5D420200           [26] getglobal  9   9        ; Engine
33B9  4EC2C204           [27] gettable   9   9   267  ; "ANY_PART"
33BD  99020300           [28] loadk      10  12       ; 0
33C1  62410003           [29] call       5   6   1  
33C5  1E008000           [30] return     0   1      
                         * constants:
33C9  0D                 sizek (13)
33CA  01                 const type 3
33CB  0344B180           const [0]: (-2135866365)
33CF  01                 const type 3
33D0  65770E40           const [1]: (1074689893)
33D4  01                 const type 3
33D5  9B06F6A3           const [2]: (-1544157541)
33D9  01                 const type 3
33DA  10B40605           const [3]: (84325392)
33DE  04                 const type 4
33DF  0B                 string size (11)
33E0  6747616D6552756C+  "gGameRul"
33E8  657300             "es\0"
                         const [4]: "gGameRules"
33EB  01                 const type 3
33EC  48E15DEB           const [5]: (-346169016)
33F0  04                 const type 4
33F1  0B                 string size (11)
33F2  4C6F7475735F4761+  "Lotus_Ga"
33FA  6D6500             "me\0"
                         const [6]: "Lotus_Game"
33FD  04                 const type 4
33FE  1D                 string size (29)
33FF  4C6F747573426173+  "LotusBas"
3407  6547616D6552756C+  "eGameRul"
340F  65735F4E4D5F4355+  "es_NM_CU"
3417  53544F4D00         "STOM\0"
                         const [7]: "LotusBaseGameRules_NM_CUSTOM"
341C  01                 const type 3
341D  742A1592           const [8]: (-1844106636)
3421  04                 const type 4
3422  07                 string size (7)
3423  456E67696E6500     "Engine\0"
                         const [9]: "Engine"
342A  04                 const type 4
342B  07                 string size (7)
342C  44545F414E5900     "DT_ANY\0"
                         const [10]: "DT_ANY"
3433  04                 const type 4
3434  09                 string size (9)
3435  414E595F50415254+  "ANY_PART"
343D  00                 "\0"
                         const [11]: "ANY_PART"
343E  03                 const type 3
343F  00004040           const [12]: (0)
                         * functions:
3443  00                 sizep (0)
                         * lines:
3444  1E                 sizelineinfo (30)
                         [pc] (line)
3445  2D                 [01] (45)
3446  02                 [02] (45)
3447  00                 [03] (47)
3448  00                 [04] (47)
3449  2D                 [05] (47)
344A  02                 [06] (47)
344B  00                 [07] (47)
344C  00                 [08] (48)
344D  2F                 [09] (52)
344E  02                 [10] (52)
344F  00                 [11] (52)
3450  00                 [12] (52)
3451  2F                 [13] (53)
3452  02                 [14] (53)
3453  00                 [15] (55)
3454  00                 [16] (55)
3455  2F                 [17] (55)
3456  02                 [18] (55)
3457  00                 [19] (55)
3458  00                 [20] (55)
3459  2F                 [21] (55)
345A  02                 [22] (56)
345B  00                 [23] (56)
345C  00                 [24] (56)
345D  2F                 [25] (56)
345E  02                 [26] (56)
345F  00                 [27] (56)
3460  00                 [28] (56)
3461  30                 [29] (56)
3462  02                 [30] (89)
                         * locals:
34BD  00                 sizelocvars (0)
                         * upvalues:
34BE  00                 sizeupvalues (0)
                         ** end of function **

                         
34BF                     ** function [26] definition (level 2)
                         ** start of function **
34BF  00                 string size (0)
                         source name: (none)
34C1  04                 line defined (606)
34C2  E3                 last line defined (611)
34C3  04                 nups (2)
34C4  02                 numparams (5)
34C5  05                 is_vararg (0)
34C6  00                 maxstacksize (8)
                         * code:
34C8  0F                 sizecode (15)
34C9  5D010000           [01] getglobal  5   0        ; 1074689893
34CD  92018000           [02] move       6   1      
34D1  62810001           [03] call       5   2   2  
34D5  58410000           [04] test       5       1    ; to [6] if false
34D9  1A000280           [05] jmp        9            ; to [15]
34DD  6441C000           [06] self       5   1   257  ; -1957065004
34E1  DD810000           [07] getglobal  7   2        ; gLotusNpcAvatarType
34E5  62818001           [08] call       5   3   2  
34E9  58010000           [09] test       5       0    ; to [11] if true
34ED  1AC00080           [10] jmp        4            ; to [15]
34F1  53010000           [11] getupval   5   0      
34F5  62418000           [12] call       5   1   1  
34F9  53018000           [13] getupval   5   1      
34FD  62418000           [14] call       5   1   1  
3501  1E008000           [15] return     0   1      
                         * constants:
3505  03                 sizek (3)
3506  01                 const type 3
3507  65770E40           const [0]: (1074689893)
350B  01                 const type 3
350C  D48E598B           const [1]: (-1957065004)
3510  04                 const type 4
3511  14                 string size (20)
3512  674C6F7475734E70+  "gLotusNp"
351A  6341766174617254+  "cAvatarT"
3522  79706500           "ype\0"
                         const [2]: "gLotusNpcAvatarType"
                         * functions:
3526  00                 sizep (0)
                         * lines:
3527  0F                 sizelineinfo (15)
                         [pc] (line)
3528  5F                 [01] (95)
3529  02                 [02] (95)
352A  00                 [03] (95)
352B  00                 [04] (95)
352C  5F                 [05] (95)
352D  02                 [06] (95)
352E  00                 [07] (95)
352F  00                 [08] (95)
3530  5F                 [09] (95)
3531  02                 [10] (95)
3532  00                 [11] (96)
3533  00                 [12] (96)
3534  5F                 [13] (97)
3535  02                 [14] (97)
3536  00                 [15] (99)
                         * locals:
3564  00                 sizelocvars (0)
                         * upvalues:
3565  00                 sizeupvalues (0)
                         ** end of function **

                         
3566                     ** function [27] definition (level 2)
                         ** start of function **
3566  00                 string size (0)
                         source name: (none)
3568  04                 line defined (615)
3569  E9                 last line defined (617)
356A  04                 nups (1)
356B  01                 numparams (0)
356C  00                 is_vararg (0)
356D  00                 maxstacksize (2)
                         * code:
356F  03                 sizecode (3)
3570  13000000           [1] getupval   0   0      
3574  22408000           [2] call       0   1   1  
3578  1E008000           [3] return     0   1      
                         * constants:
357C  00                 sizek (0)
                         * functions:
357D  00                 sizep (0)
                         * lines:
357E  03                 sizelineinfo (3)
                         [pc] (line)
357F  68                 [1] (104)
3580  02                 [2] (104)
3581  00                 [3] (105)
                         * locals:
358B  00                 sizelocvars (0)
                         * upvalues:
358C  00                 sizeupvalues (0)
                         ** end of function **

                         
358D                     ** function [28] definition (level 2)
                         ** start of function **
358D  00                 string size (0)
                         source name: (none)
358F  04                 line defined (619)
3590  EC                 last line defined (620)
3591  04                 nups (0)
3592  00                 numparams (0)
3593  00                 is_vararg (0)
3594  00                 maxstacksize (2)
                         * code:
3596  01                 sizecode (1)
3597  1E008000           [1] return     0   1      
                         * constants:
359B  00                 sizek (0)
                         * functions:
359C  00                 sizep (0)
                         * lines:
359D  01                 sizelineinfo (1)
                         [pc] (line)
359E  6C                 [1] (108)
                         * locals:
35A2  00                 sizelocvars (0)
                         * upvalues:
35A3  00                 sizeupvalues (0)
                         ** end of function **

                         
35A4                     ** function [29] definition (level 2)
                         ** start of function **
35A4  00                 string size (0)
                         source name: (none)
35A6  04                 line defined (622)
35A7  F3                 last line defined (627)
35A8  04                 nups (1)
35A9  01                 numparams (0)
35AA  00                 is_vararg (0)
35AB  00                 maxstacksize (2)
                         * code:
35AD  0E                 sizecode (14)
35AE  13000000           [01] getupval   0   0      
35B2  18400000           [02] test       0       1    ; to [4] if false
35B6  1A400280           [03] jmp        10           ; to [14]
35BA  1D000000           [04] getglobal  0   0        ; gGameRules
35BE  24404000           [05] self       0   0   257  ; -163852551
35C2  22800001           [06] call       0   2   2  
35C6  18000000           [07] test       0       0    ; to [9] if true
35CA  1A000180           [08] jmp        5            ; to [14]
35CE  1D800000           [09] getglobal  0   2        ; gChallengeMgr
35D2  24C04000           [10] self       0   0   259  ; 1885907665
35D6  22400001           [11] call       0   2   1  
35DA  17008000           [12] loadbool   0   1   0    ; true
fail op	8
35DE  08000000           [13] setupval   0   0      
35E2  1E008000           [14] return     0   1      
                         * constants:
35E6  04                 sizek (4)
35E7  04                 const type 4
35E8  0B                 string size (11)
35E9  6747616D6552756C+  "gGameRul"
35F1  657300             "es\0"
                         const [0]: "gGameRules"
35F4  01                 const type 3
35F5  F9CE3BF6           const [1]: (-163852551)
35F9  04                 const type 4
35FA  0E                 string size (14)
35FB  674368616C6C656E+  "gChallen"
3603  67654D677200       "geMgr\0"
                         const [2]: "gChallengeMgr"
3609  01                 const type 3
360A  D1AA6870           const [3]: (1885907665)
                         * functions:
360E  00                 sizep (0)
                         * lines:
360F  0E                 sizelineinfo (14)
                         [pc] (line)
3610  6F                 [01] (111)
3611  02                 [02] (111)
3612  00                 [03] (111)
3613  00                 [04] (111)
3614  6F                 [05] (111)
3615  02                 [06] (111)
3616  00                 [07] (111)
3617  00                 [08] (111)
3618  6F                 [09] (112)
3619  02                 [10] (112)
361A  00                 [11] (112)
361B  00                 [12] (113)
361C  6F                 [13] (113)
361D  02                 [14] (115)
                         * locals:
3648  00                 sizelocvars (0)
                         * upvalues:
3649  00                 sizeupvalues (0)
                         ** end of function **

                         * lines:
364B  01                 sizelineinfo (130)
                         [pc] (line)
364C  02                 [001] (2)
364D  00                 [002] (2)
364E  00                 [003] (2)
364F  00                 [004] (3)
3650  02                 [005] (3)
3651  00                 [006] (3)
3652  00                 [007] (12)
3653  00                 [008] (13)
3654  02                 [009] (15)
3655  00                 [010] (16)
3656  00                 [011] (16)
3657  00                 [012] (16)
3658  03                 [013] (16)
3659  00                 [014] (17)
365A  00                 [015] (17)
365B  00                 [016] (17)
365C  03                 [017] (18)
365D  00                 [018] (23)
365E  00                 [019] (25)
365F  00                 [020] (25)
3660  03                 [021] (25)
3661  00                 [022] (46)
3662  00                 [023] (70)
3663  00                 [024] (70)
3664  0C                 [025] (70)
3665  00                 [026] (70)
3666  00                 [027] (102)
3667  00                 [028] (102)
3668  0D                 [029] (122)
3669  00                 [030] (-117)
366A  00                 [031] (-115)
366B  00                 [032] (-115)
366C  0F                 [033] (-115)
366D  00                 [034] (-115)
366E  00                 [035] (-115)
366F  00                 [036] (-115)
3670  10                 [037] (-115)
3671  00                 [038] (-115)
3672  00                 [039] (-115)
3673  00                 [040] (-115)
3674  10                 [041] (-115)
3675  00                 [042] (-115)
3676  00                 [043] (-115)
3677  00                 [044] (-115)
3678  10                 [045] (-115)
3679  00                 [046] (-115)
367A  00                 [047] (-115)
367B  00                 [048] (-115)
367C  10                 [049] (-102)
367D  00                 [050] (-102)
367E  00                 [051] (-102)
367F  00                 [052] (-113)
3680  11                 [053] (-89)
3681  00                 [054] (-89)
3682  00                 [055] (-100)
3683  00                 [056] (-81)
3684  11                 [057] (-81)
3685  00                 [058] (-87)
3686  00                 [059] (-33)
3687  00                 [060] (-26)
3688  11                 [061] (-5)
3689  00                 [062] (17)
368A  00                 [063] (24)
368B  00                 [064] (24)
368C  12                 [065] (31)
368D  00                 [066] (31)
368E  00                 [067] (38)
368F  00                 [068] (38)
3690  17                 [069] (80)
3691  00                 [070] (80)
3692  00                 [071] (80)
3693  00                 [072] (84)
3694  19                 [073] (84)
3695  00                 [074] (84)
3696  00                 [075] (82)
3697  00                 [076] (88)
3698  19                 [077] (88)
3699  00                 [078] (88)
369A  00                 [079] (86)
369B  00                 [080] (92)
369C  19                 [081] (92)
369D  00                 [082] (92)
369E  00                 [083] (90)
369F  00                 [084] (96)
36A0  2E                 [085] (96)
36A1  00                 [086] (96)
36A2  00                 [087] (94)
36A3  00                 [088] (-121)
36A4  46                 [089] (-121)
36A5  00                 [090] (-121)
36A6  00                 [091] (98)
36A7  00                 [092] (-92)
36A8  46                 [093] (-92)
36A9  00                 [094] (-83)
36AA  00                 [095] (-83)
36AB  00                 [096] (-83)
36AC  46                 [097] (-89)
36AD  00                 [098] (-74)
36AE  00                 [099] (-74)
36AF  00                 [100] (-74)
36B0  46                 [101] (-80)
36B1  00                 [102] (38)
36B2  00                 [103] (38)
36B3  00                 [104] (38)
36B4  66                 [105] (38)
36B5  00                 [106] (38)
36B6  00                 [107] (38)
36B7  00                 [108] (38)
36B8  66                 [109] (38)
36B9  00                 [110] (89)
36BA  00                 [111] (89)
36BB  00                 [112] (89)
36BC  7A                 [113] (43)
36BD  00                 [114] (99)
36BE  00                 [115] (99)
36BF  00                 [116] (99)
36C0  8B                 [117] (99)
36C1  00                 [118] (94)
36C2  00                 [119] (105)
36C3  00                 [120] (105)
36C4  8D                 [121] (105)
36C5  00                 [122] (103)
36C6  00                 [123] (108)
36C7  00                 [124] (108)
36C8  8D                 [125] (107)
36C9  00                 [126] (115)
36CA  00                 [127] (115)
36CB  00                 [128] (115)
36CC  8D                 [129] (110)
36CD  00                 [130] (115)
                         * locals:
3854  00                 sizelocvars (0)
                         * upvalues:
3855  00                 sizeupvalues (0)
                         ** end of function **

3856                     ** end of chunk **
