1	C:\wlua_dump\path\Lotus\ScriptsOperatorVoidMode.lua
Pos   Hex Data           Description or Code
------------------------------------------------------------------------
0000                     ** source chunk: C:\wlua_dump\path\Lotus\ScriptsOperatorVoidMode.lua
                         ** global header start **
0000  7F                 header signature: ""
0001  00                 version (major:minor hex digits)
0002  00                 format (0=official)
0003  00                 endianness (1=little endian)
0004  00                 size of int (bytes)
0005  00                 size of size_t (bytes)
0006  02                 size of Instruction (bytes)
0007  21                 size of number (bytes)
0008  A1                 integral (1=integral)
4161
                         * number type: single
                         * x86 standard (32-bit, little endian, doubles)
                         ** global header end **
Lotus.Powersuits.Operator.OperatorLib
Lotus.Scripts.Libs.AbilitiesLib
UnlitAtten
vScales
tag
CloakBlind
duration
radius
energyCost
CloakAttackCharge
percentIncreasePerSecond
energyDrain
numAttacks
DashFire
damage
CloakHeal
healRate
CloakShield
growTime
DashShockwave
speed
distance
CloakStatic
CloakPull
DashBubble
regen
buffTime
maxInstances
DashElectricity
range
CloakMeleeCrit
maxCrit
buildTime
degradeTime
CloakReveal
fadeTime
DashWave
CloakReduceDamage
dmgRed
CloakAllyCloak
DashReduceArmour
armourRed
DashReduceDamage
GetDescriptionInfo
HelperScript
TriggerWait
CloakMeleeCritUpgrade
SetBeamEndPoint
BonusDamage
VoidMode
EnterCloakReduceDamageUpgrade
ExitCloakReduceDamageUpgrade
EnterCloakAllyCloakUpgrade
ExitCloakAllyCloakUpgrade
OnDashHit
DashBubbleLifeSpan
EnterDashBubbleTrigger
DashDecoSize
tag
DURATION
duration
RADIUS
radius
ENERGY
energyCost
PERCENT
math
percentIncreasePerSecond
energyDrain
ATTACKS
numAttacks
DAMAGE
damage
DashFinisher
mValues
DashDamage
DashWave
MoreAmmo
RegenAmmo
HEAL
healRate
growTime
DISTANCE
distance
DashImmunity
INVULN
HealthRegen
INCREASE
REGEN
regen
BUFFTIME
buffTime
range
CRIT
maxCrit
BUILDUP
buildTime
DEGRADE
degradeTime
RANGE
fadeTime
MoveSpeed
DashSpeed
dmgRed
armourRed
ArmourIncrease
BlastRadius
EnergyRestore
EnergyPool
cjson
math
gRegion
dashFireHelperType
ZERO_ROTATION
dashFireTriggerType
y
z
Update
gRegion
dashFireTriggerType
dashFireEffect
EMPTY_SYMBOL
ZERO_VECTOR
ZERO_ROTATION
tag
damage
Engine
baseAmount
DT_FIRE
TORSO
dashFireTriggerType
Lotus_Game
AR_IMMUNE_ALL
tag
damage
duration
x
gGameRules
/EE/Types/Effects/Spawner
EXCALIBUR_BLIND
GAME_C1_HEAD1
gRegion
gLotusNpcAvatarType
radius
Lotus_Game
AR_IMMUNE_ALL
Engine
PM_CLOAK
tag
duration
blindProjector
AR_RESIST_ALL
ATMM_ANIMATION_DRIVEN
PRT_ONCE
cloakStaticTriggerType
EMPTY_SYMBOL
ZERO_VECTOR
ZERO_ROTATION
radius
Engine
baseAmount
damage
DT_ELECTRICITY
Update
Terminate
Engine
PM_IN_AIR
cloakStaticEffectType
EMPTY_SYMBOL
ZERO_VECTOR
ZERO_ROTATION
Lotus_Game
AR_IMMUNE_ALL
cloakPulseEndSound
tag
maxCrit
buildTime
degradeTime
Lotus_Game
instigator
affected
buffType
BT_PERCENT
abilityType
/Lotus/Upgrades/Focus/Tactic/Active/CloakMeleeCritFocusUpgrade
math
Game
WEAPON_CRIT_CHANCE
ADD
gLotusMeleeWeaponType
buffData
range
fadeTime
Update
Terminate
gRegion
gLotusAvatarType
Lotus_Game
AR_IMMUNE_ALL
cloakRevealType
EMPTY_SYMBOL
ZERO_VECTOR
ZERO_ROTATION
gRegion
_T
dashBubbleUpgrade
maxInstances
table
dashBubbleTriggerType
ZERO_ROTATION
gRegion
beamType
GAME_C1_HIP1
ZERO_VECTOR
ZERO_ROTATION
gRegion
beamFx
gRegion
tag
range
speed
duration
damage
y
gLotusNpcAvatarType
Lotus_Game
AR_IMMUNE_ALL
gGameRules
Engine
TORSO
DT_ELECTRICITY
zapSound
table
beam
target
_T
dashElectricityUpgrade
maxInstances
table
y
gRegion
dashElectricBallType
ZERO_ROTATION
tag
radius
y
gRegion
shockwaveType
ZERO_VECTOR
speed
distance
target
distanceRatio
table
Engine
baseAmount
DT_IMPACT
Game
PT_STUNNED
_T
voidStrike
buffData
math
multiplier
buffDataExtra
numAttacks
instigator
affected
_T
voidStrike
numAttacks
multiplier
Lotus_Game
buffType
BT_AMOUNT_STACK
abilityType
/Lotus/Upgrades/Focus/Attack/Active/CloakAttackChargeFocusUpgrade
_T
voidStrike
numAttacks
math
multiplier
needsUpdate
instigator
affected
gRegion
postProcess
fade
cameraColorCorrection
lightning
exitVoidLocalSound
inVoidLocalSequencer
exitVoidSound
inVoidSequencer
exitVoidEffect
ZERO_ROTATION
gRegion
Lotus_Game
AP_ATTACK
tag
duration
percentIncreasePerSecond
damage
energyDrainRate
energyDrain
AP_DEFENSE
healRate
radius
AP_POWER
range
AP_TACTIC
maxCrit
AP_WARD
armourRed
dmgRed
cloakPullTriggerType
EMPTY_SYMBOL
ZERO_VECTOR
ZERO_ROTATION
cloakAllyCloakAuraType
cjson
lvl
Game
AVATAR_HEAL_RATE
ADD
instigator
affected
buffData
buffType
BT_AMOUNT
abilityType
/Lotus/Upgrades/Focus/Defense/Active/CloakHealFocusUpgrade
cloakShieldType
GAME_C1_HIP1
cloakReduceDamageAuraType
math
BT_PERCENT
/Lotus/Upgrades/Focus/Ward/Active/CloakReduceDamageFocusUpgrade
cloakProjector
enterVoidEffect
/Lotus/Objects/Cinematics/TWW/KuvaStaffAttachment
postProcess
fade
cameraColorCorrection
lightning
enterVoidLocalSound
inVoidLocalSequencer
enterVoidSound
inVoidSequencer
OperatorAvatar is null in void mode!
OnDashHit
gGameRules
NotifyAbilityActivateError
/Lotus/Language/Game/AbilityNeedMoreEnergy
dashWaveType
dashWaveSound
growTime
CloakMeleeCritUpgrade
startDashFireSound
_T
voidDashCount
energyCost
DashShockwave
blindBurst
blindBurstSound
voidStrike
needsUpdate
multiplier
numAttacks
BonusDamage
Lotus_Game
instigator
affected
buffData
math
buffType
BT_PERCENT
abilityType
/Lotus/Upgrades/Focus/Ward/Active/CloakReduceDamageFocusUpgrade
Lotus_Game
instigator
affected
abilityType
/Lotus/Upgrades/Focus/Ward/Active/CloakReduceDamageFocusUpgrade
cloakProjector
Lotus_Game
instigator
affected
buffType
BT_STATIC
abilityType
/Lotus/Upgrades/Focus/Ward/Active/CloakAllyCloakFocusUpgrade
cloakProjector
Lotus_Game
instigator
affected
abilityType
/Lotus/Upgrades/Focus/Ward/Active/CloakAllyCloakFocusUpgrade
Lotus_Game
AR_IMMUNE_ALL
AP_WARD
gRegion
tag
armourRed
Game
AVATAR_ARMOUR
MULTIPLY
dmgRed
WEAPON_DAMAGE_AMOUNT
gLotusAvatarType
gLotusEffectDecorationType
gRegion
duration
buffTime
regen
gLotusOperatorAvatarType
tag
Game
AVATAR_POWER_RATE
ADD
Lotus_Game
instigator
affected
buffType
BT_AMOUNT
abilityType
/Lotus/Upgrades/Focus/Power/Active/DashBubbleFocusUpgrade
buffData
BT_AMOUNT_TIMER
buffDataExtra
tag
radius
                         
0001                     ** function [0] definition (level 1)
                         ** start of function **
0001  00                 string size (0)
                         source name: (none)
0002  00                 line defined (0)
0003  00                 last line defined (0)
0004  00                 nups (0)
0005  00                 numparams (0)
0006  02                 is_vararg (2)
0007  21                 maxstacksize (33)
                         * code:
0009  04                 sizecode (545)
000A  1D000000           [001] getglobal  0   0        ; 849075268
000E  59400000           [002] loadk      1   1        ; "Lotus.Powersuits.Operator.OperatorLib"
0012  22800001           [003] call       0   2   2  
0016  5D000000           [004] getglobal  1   0        ; 849075268
001A  99800000           [005] loadk      2   2        ; "Lotus.Scripts.Libs.AbilitiesLib"
001E  62800001           [006] call       1   2   2  
0022  9DC00000           [007] getglobal  2   3        ; -332969190
0026  D9000100           [008] loadk      3   4        ; "UnlitAtten"
002A  A2800001           [009] call       2   2   2  
002E  DDC00000           [010] getglobal  3   3        ; -332969190
0032  19410100           [011] loadk      4   5        ; "vScales"
0036  E2800001           [012] call       3   2   2  
003A  0B010100           [013] newtable   4   0   4    ; array=0, hash=4
003E  5DC10000           [014] getglobal  5   3        ; -332969190
0042  99C10100           [015] loadk      6   7        ; "CloakBlind"
0046  62810001           [016] call       5   2   2  
004A  0C410183           [017] settable   4   262 5    ; "tag"
004E  4B010002           [018] newtable   5   4   0    ; array=4, hash=0
0052  99410200           [019] loadk      6   9        ; 0
0056  D9810200           [020] loadk      7   10       ; 0
005A  19C20200           [021] loadk      8   11       ; 0
005E  59020300           [022] loadk      9   12       ; 0
0062  5B410002           [023] setlist    5   4   1    ; index 1 to 4
0066  0C410184           [024] settable   4   264 5    ; "duration"
006A  4B010002           [025] newtable   5   4   0    ; array=4, hash=0
006E  99C10200           [026] loadk      6   11       ; 0
0072  D9810300           [027] loadk      7   14       ; 0
0076  19C20300           [028] loadk      8   15       ; 0
007A  59020400           [029] loadk      9   16       ; 0
007E  5B410002           [030] setlist    5   4   1    ; index 1 to 4
0082  0C418186           [031] settable   4   269 5    ; "radius"
0086  4B010002           [032] newtable   5   4   0    ; array=4, hash=0
008A  99810400           [033] loadk      6   18       ; 0
008E  D9C10400           [034] loadk      7   19       ; 0
0092  19020500           [035] loadk      8   20       ; 0
0096  59420500           [036] loadk      9   21       ; 0
009A  5B410002           [037] setlist    5   4   1    ; index 1 to 4
009E  0C418188           [038] settable   4   273 5    ; "energyCost"
00A2  4B010100           [039] newtable   5   0   4    ; array=0, hash=4
00A6  9DC10000           [040] getglobal  6   3        ; -332969190
00AA  D9810500           [041] loadk      7   22       ; "CloakAttackCharge"
00AE  A2810001           [042] call       6   2   2  
00B2  4C810183           [043] settable   5   262 6    ; "tag"
00B6  8B010003           [044] newtable   6   6   0    ; array=6, hash=0
00BA  D9010600           [045] loadk      7   24       ; -51
00BE  19420600           [046] loadk      8   25       ; 41
00C2  59820600           [047] loadk      9   26       ; 10
00C6  99C20600           [048] loadk      10  27       ; -51
00CA  D9020700           [049] loadk      11  28       ; -82
00CE  19430700           [050] loadk      12  29       ; -113
00D2  9B410003           [051] setlist    6   6   1    ; index 1 to 6
00D6  4C81818B           [052] settable   5   279 6    ; "percentIncreasePerSecond"
00DA  8B010003           [053] newtable   6   6   0    ; array=6, hash=0
00DE  D9410200           [054] loadk      7   9        ; 0
00E2  19420200           [055] loadk      8   9        ; 0
00E6  59420200           [056] loadk      9   9        ; 0
00EA  99420200           [057] loadk      10  9        ; 0
00EE  D9420200           [058] loadk      11  9        ; 0
00F2  19430200           [059] loadk      12  9        ; 0
00F6  9B410003           [060] setlist    6   6   1    ; index 1 to 6
00FA  4C81018F           [061] settable   5   286 6    ; "energyDrain"
00FE  8B010003           [062] newtable   6   6   0    ; array=6, hash=0
0102  D9010800           [063] loadk      7   32       ; 0
0106  19020800           [064] loadk      8   32       ; 0
010A  59420200           [065] loadk      9   9        ; 0
010E  99C20200           [066] loadk      10  11       ; 0
0112  D9820300           [067] loadk      11  14       ; 0
0116  19C30300           [068] loadk      12  15       ; 0
011A  9B410003           [069] setlist    6   6   1    ; index 1 to 6
011E  4C81818F           [070] settable   5   287 6    ; "numAttacks"
0122  8BC10000           [071] newtable   6   0   3    ; array=0, hash=3
0126  DDC10000           [072] getglobal  7   3        ; -332969190
012A  19420800           [073] loadk      8   33       ; "DashFire"
012E  E2810001           [074] call       7   2   2  
0132  8CC10183           [075] settable   6   262 7    ; "tag"
0136  CB010003           [076] newtable   7   6   0    ; array=6, hash=0
013A  19C20800           [077] loadk      8   35       ; 0
013E  59020900           [078] loadk      9   36       ; 0
0142  99420900           [079] loadk      10  37       ; 0
0146  D9820900           [080] loadk      11  38       ; 0
014A  19C30900           [081] loadk      12  39       ; 0
014E  59030A00           [082] loadk      13  40       ; 0
0152  DB410003           [083] setlist    7   6   1    ; index 1 to 6
0156  8CC10191           [084] settable   6   290 7    ; "damage"
015A  CB010003           [085] newtable   7   6   0    ; array=6, hash=0
015E  19820200           [086] loadk      8   10       ; 0
0162  59820300           [087] loadk      9   14       ; 0
0166  99420A00           [088] loadk      10  41       ; 0
016A  D9820A00           [089] loadk      11  42       ; 0
016E  19830A00           [090] loadk      12  42       ; 0
0172  59C30A00           [091] loadk      13  43       ; 0
0176  DB410003           [092] setlist    7   6   1    ; index 1 to 6
017A  8CC10184           [093] settable   6   264 7    ; "duration"
017E  CBC10000           [094] newtable   7   0   3    ; array=0, hash=3
0182  1DC20000           [095] getglobal  8   3        ; -332969190
0186  59020B00           [096] loadk      9   44       ; "CloakHeal"
018A  22820001           [097] call       8   2   2  
018E  CC010283           [098] settable   7   262 8    ; "tag"
0192  0B020002           [099] newtable   8   4   0    ; array=4, hash=0
0196  59C20200           [100] loadk      9   11       ; 0
019A  99C20300           [101] loadk      10  15       ; 0
019E  D9820B00           [102] loadk      11  46       ; 0
01A2  19830400           [103] loadk      12  18       ; 0
01A6  1B420002           [104] setlist    8   4   1    ; index 1 to 4
01AA  CC018296           [105] settable   7   301 8    ; "healRate"
01AE  0B020002           [106] newtable   8   4   0    ; array=4, hash=0
01B2  59420200           [107] loadk      9   9        ; 0
01B6  99420200           [108] loadk      10  9        ; 0
01BA  D9420200           [109] loadk      11  9        ; 0
01BE  19430200           [110] loadk      12  9        ; 0
01C2  1B420002           [111] setlist    8   4   1    ; index 1 to 4
01C6  CC01028F           [112] settable   7   286 8    ; "energyDrain"
01CA  0B020100           [113] newtable   8   0   4    ; array=0, hash=4
01CE  5DC20000           [114] getglobal  9   3        ; -332969190
01D2  99C20B00           [115] loadk      10  47       ; "CloakShield"
01D6  62820001           [116] call       9   2   2  
01DA  0C420283           [117] settable   8   262 9    ; "tag"
01DE  4B020002           [118] newtable   9   4   0    ; array=4, hash=0
01E2  99020300           [119] loadk      10  12       ; 0
01E6  D9C20300           [120] loadk      11  15       ; 0
01EA  19030400           [121] loadk      12  16       ; 0
01EE  59830A00           [122] loadk      13  42       ; 0
01F2  5B420002           [123] setlist    9   4   1    ; index 1 to 4
01F6  0C428286           [124] settable   8   269 9    ; "radius"
01FA  0C024398           [125] settable   8   304 268  ; "growTime" 0
01FE  4B020002           [126] newtable   9   4   0    ; array=4, hash=0
0202  99420200           [127] loadk      10  9        ; 0
0206  D9420200           [128] loadk      11  9        ; 0
020A  19430200           [129] loadk      12  9        ; 0
020E  59430200           [130] loadk      13  9        ; 0
0212  5B420002           [131] setlist    9   4   1    ; index 1 to 4
0216  0C42028F           [132] settable   8   286 9    ; "energyDrain"
021A  4B020100           [133] newtable   9   0   4    ; array=0, hash=4
021E  9DC20000           [134] getglobal  10  3        ; -332969190
0222  D9420C00           [135] loadk      11  49       ; "DashShockwave"
0226  A2820001           [136] call       10  2   2  
022A  4C820283           [137] settable   9   262 10   ; "tag"
022E  4C824A99           [138] settable   9   306 298  ; "speed" 0
0232  8B020002           [139] newtable   10  4   0    ; array=4, hash=0
0236  D9C20200           [140] loadk      11  11       ; 0
023A  19030300           [141] loadk      12  12       ; 0
023E  59830300           [142] loadk      13  14       ; 0
0242  99C30C00           [143] loadk      14  51       ; 0
0246  9B420002           [144] setlist    10  4   1    ; index 1 to 4
024A  4C828286           [145] settable   9   269 10   ; "radius"
024E  8B020002           [146] newtable   10  4   0    ; array=4, hash=0
0252  D9420200           [147] loadk      11  9        ; 0
0256  19C30200           [148] loadk      12  11       ; 0
025A  59830300           [149] loadk      13  14       ; 0
025E  99C30300           [150] loadk      14  15       ; 0
0262  9B420002           [151] setlist    10  4   1    ; index 1 to 4
0266  4C82029A           [152] settable   9   308 10   ; "distance"
026A  8B020100           [153] newtable   10  0   4    ; array=0, hash=4
026E  DDC20000           [154] getglobal  11  3        ; -332969190
0272  19430D00           [155] loadk      12  53       ; "CloakStatic"
0276  E2820001           [156] call       11  2   2  
027A  8CC20283           [157] settable   10  262 11   ; "tag"
027E  CB020002           [158] newtable   11  4   0    ; array=4, hash=0
0282  19C30300           [159] loadk      12  15       ; 0
0286  59030400           [160] loadk      13  16       ; 0
028A  99830A00           [161] loadk      14  42       ; 0
028E  D9830D00           [162] loadk      15  54       ; 0
0292  DB420002           [163] setlist    11  4   1    ; index 1 to 4
0296  8CC28286           [164] settable   10  269 11   ; "radius"
029A  CB020002           [165] newtable   11  4   0    ; array=4, hash=0
029E  19030900           [166] loadk      12  36       ; 0
02A2  59430900           [167] loadk      13  37       ; 0
02A6  99830900           [168] loadk      14  38       ; 0
02AA  D9C30D00           [169] loadk      15  55       ; 0
02AE  DB420002           [170] setlist    11  4   1    ; index 1 to 4
02B2  8CC20291           [171] settable   10  290 11   ; "damage"
02B6  CB020002           [172] newtable   11  4   0    ; array=4, hash=0
02BA  19430200           [173] loadk      12  9        ; 0
02BE  59430200           [174] loadk      13  9        ; 0
02C2  99430200           [175] loadk      14  9        ; 0
02C6  D9030800           [176] loadk      15  32       ; 0
02CA  DB420002           [177] setlist    11  4   1    ; index 1 to 4
02CE  8CC2028F           [178] settable   10  286 11   ; "energyDrain"
02D2  CBC20000           [179] newtable   11  0   3    ; array=0, hash=3
02D6  1DC30000           [180] getglobal  12  3        ; -332969190
02DA  59030E00           [181] loadk      13  56       ; "CloakPull"
02DE  22830001           [182] call       12  2   2  
02E2  CC020383           [183] settable   11  262 12   ; "tag"
02E6  0B030002           [184] newtable   12  4   0    ; array=4, hash=0
02EA  59030400           [185] loadk      13  16       ; 0
02EE  99830A00           [186] loadk      14  42       ; 0
02F2  D9830D00           [187] loadk      15  54       ; 0
02F6  19440E00           [188] loadk      16  57       ; 0
02FA  1B430002           [189] setlist    12  4   1    ; index 1 to 4
02FE  CC028386           [190] settable   11  269 12   ; "radius"
0302  0B030002           [191] newtable   12  4   0    ; array=4, hash=0
0306  59430200           [192] loadk      13  9        ; 0
030A  99430200           [193] loadk      14  9        ; 0
030E  D9430200           [194] loadk      15  9        ; 0
0312  19440200           [195] loadk      16  9        ; 0
0316  1B430002           [196] setlist    12  4   1    ; index 1 to 4
031A  CC02038F           [197] settable   11  286 12   ; "energyDrain"
031E  0B430100           [198] newtable   12  0   5    ; array=0, hash=5
0322  5DC30000           [199] getglobal  13  3        ; -332969190
0326  99830E00           [200] loadk      14  58       ; "DashBubble"
032A  62830001           [201] call       13  2   2  
032E  0C430383           [202] settable   12  262 13   ; "tag"
0332  4B030003           [203] newtable   13  6   0    ; array=6, hash=0
0336  99C30200           [204] loadk      14  11       ; 0
033A  D9C30200           [205] loadk      15  11       ; 0
033E  19040300           [206] loadk      16  12       ; 0
0342  59040300           [207] loadk      17  12       ; 0
0346  99840300           [208] loadk      18  14       ; 0
034A  D9C40300           [209] loadk      19  15       ; 0
034E  5B430003           [210] setlist    13  6   1    ; index 1 to 6
0352  0C430384           [211] settable   12  264 13   ; "duration"
0356  4B030003           [212] newtable   13  6   0    ; array=6, hash=0
035A  99830200           [213] loadk      14  10       ; 0
035E  D9830200           [214] loadk      15  10       ; 0
0362  19C40200           [215] loadk      16  11       ; 0
0366  59C40200           [216] loadk      17  11       ; 0
036A  99040300           [217] loadk      18  12       ; 0
036E  D9040300           [218] loadk      19  12       ; 0
0372  5B430003           [219] setlist    13  6   1    ; index 1 to 6
0376  0C43839D           [220] settable   12  315 13   ; "regen"
037A  4B030003           [221] newtable   13  6   0    ; array=6, hash=0
037E  99030400           [222] loadk      14  16       ; 0
0382  D9830D00           [223] loadk      15  54       ; 0
0386  19440E00           [224] loadk      16  57       ; 0
038A  59440F00           [225] loadk      17  61       ; 0
038E  99840400           [226] loadk      18  18       ; 0
0392  D9C40400           [227] loadk      19  19       ; 0
0396  5B430003           [228] setlist    13  6   1    ; index 1 to 6
039A  0C43039E           [229] settable   12  316 13   ; "buffTime"
039E  0C03489F           [230] settable   12  318 288  ; "maxInstances" 0
03A2  4BC30100           [231] newtable   13  0   7    ; array=0, hash=7
03A6  9DC30000           [232] getglobal  14  3        ; -332969190
03AA  D9C30F00           [233] loadk      15  63       ; "DashElectricity"
03AE  A2830001           [234] call       14  2   2  
03B2  4C830383           [235] settable   13  262 14   ; "tag"
03B6  4C834384           [236] settable   13  264 270  ; "duration" 0
03BA  4C035099           [237] settable   13  306 320  ; "speed" 0
03BE  8B030002           [238] newtable   14  4   0    ; array=4, hash=0
03C2  D9C30200           [239] loadk      15  11       ; 0
03C6  19C40300           [240] loadk      16  15       ; 0
03CA  59840A00           [241] loadk      17  42       ; 0
03CE  99840B00           [242] loadk      18  46       ; 0
03D2  9B430002           [243] setlist    14  4   1    ; index 1 to 4
03D6  4C8383A0           [244] settable   13  321 14   ; "range"
03DA  8B030002           [245] newtable   14  4   0    ; array=4, hash=0
03DE  D9030900           [246] loadk      15  36       ; 0
03E2  19840900           [247] loadk      16  38       ; 0
03E6  59C40900           [248] loadk      17  39       ; 0
03EA  99841000           [249] loadk      18  66       ; 0
03EE  9B430002           [250] setlist    14  4   1    ; index 1 to 4
03F2  4C830391           [251] settable   13  290 14   ; "damage"
03F6  4C83429F           [252] settable   13  318 266  ; "maxInstances" 0
03FA  8B030002           [253] newtable   14  4   0    ; array=4, hash=0
03FE  D9030400           [254] loadk      15  16       ; 0
0402  19040400           [255] loadk      16  16       ; 0
0406  59040400           [256] loadk      17  16       ; 0
040A  99040400           [257] loadk      18  16       ; 0
040E  9B430002           [258] setlist    14  4   1    ; index 1 to 4
0412  4C838388           [259] settable   13  273 14   ; "energyCost"
0416  8B430100           [260] newtable   14  0   5    ; array=0, hash=5
041A  DDC30000           [261] getglobal  15  3        ; -332969190
041E  19C41000           [262] loadk      16  67       ; "CloakMeleeCrit"
0422  E2830001           [263] call       15  2   2  
0426  8CC30383           [264] settable   14  262 15   ; "tag"
042A  CB030002           [265] newtable   15  4   0    ; array=4, hash=0
042E  19441100           [266] loadk      16  69       ; -51
0432  59841100           [267] loadk      17  70       ; -102
0436  99C41100           [268] loadk      18  71       ; -51
043A  D9041200           [269] loadk      19  72       ; 0
043E  DB430002           [270] setlist    15  4   1    ; index 1 to 4
0442  8CC303A2           [271] settable   14  324 15   ; "maxCrit"
0446  CB030002           [272] newtable   15  4   0    ; array=4, hash=0
044A  19040300           [273] loadk      16  12       ; 0
044E  59040300           [274] loadk      17  12       ; 0
0452  99040300           [275] loadk      18  12       ; 0
0456  D9040300           [276] loadk      19  12       ; 0
045A  DB430002           [277] setlist    15  4   1    ; index 1 to 4
045E  8CC383A4           [278] settable   14  329 15   ; "buildTime"
0462  CB030002           [279] newtable   15  4   0    ; array=4, hash=0
0466  19040300           [280] loadk      16  12       ; 0
046A  59040400           [281] loadk      17  16       ; 0
046E  99840D00           [282] loadk      18  54       ; 0
0472  D9440E00           [283] loadk      19  57       ; 0
0476  DB430002           [284] setlist    15  4   1    ; index 1 to 4
047A  8CC303A5           [285] settable   14  330 15   ; "degradeTime"
047E  CB030002           [286] newtable   15  4   0    ; array=4, hash=0
0482  19040800           [287] loadk      16  32       ; 0
0486  59440200           [288] loadk      17  9        ; 0
048A  99840200           [289] loadk      18  10       ; 0
048E  D9C40200           [290] loadk      19  11       ; 0
0492  DB430002           [291] setlist    15  4   1    ; index 1 to 4
0496  8CC3038F           [292] settable   14  286 15   ; "energyDrain"
049A  CB030100           [293] newtable   15  0   4    ; array=0, hash=4
049E  1DC40000           [294] getglobal  16  3        ; -332969190
04A2  59C41200           [295] loadk      17  75       ; "CloakReveal"
04A6  22840001           [296] call       16  2   2  
04AA  CC030483           [297] settable   15  262 16   ; "tag"
04AE  0B040002           [298] newtable   16  4   0    ; array=4, hash=0
04B2  59040400           [299] loadk      17  16       ; 0
04B6  99840A00           [300] loadk      18  42       ; 0
04BA  D9041300           [301] loadk      19  76       ; 0
04BE  19850400           [302] loadk      20  18       ; 0
04C2  1B440002           [303] setlist    16  4   1    ; index 1 to 4
04C6  CC0384A0           [304] settable   15  321 16   ; "range"
04CA  0B040002           [305] newtable   16  4   0    ; array=4, hash=0
04CE  59440200           [306] loadk      17  9        ; 0
04D2  99440200           [307] loadk      18  9        ; 0
04D6  D9040800           [308] loadk      19  32       ; 0
04DA  19050800           [309] loadk      20  32       ; 0
04DE  1B440002           [310] setlist    16  4   1    ; index 1 to 4
04E2  CC03048F           [311] settable   15  286 16   ; "energyDrain"
04E6  0B040002           [312] newtable   16  4   0    ; array=4, hash=0
04EA  59440200           [313] loadk      17  9        ; 0
04EE  99840200           [314] loadk      18  10       ; 0
04F2  D9C40200           [315] loadk      19  11       ; 0
04F6  19050300           [316] loadk      20  12       ; 0
04FA  1B440002           [317] setlist    16  4   1    ; index 1 to 4
04FE  CC0384A6           [318] settable   15  333 16   ; "fadeTime"
0502  0BC40000           [319] newtable   16  0   3    ; array=0, hash=3
0506  5DC40000           [320] getglobal  17  3        ; -332969190
050A  99841300           [321] loadk      18  78       ; "DashWave"
050E  62840001           [322] call       17  2   2  
0512  0C440483           [323] settable   16  262 17   ; "tag"
0516  4B040002           [324] newtable   17  4   0    ; array=4, hash=0
051A  99040300           [325] loadk      18  12       ; 0
051E  D9040400           [326] loadk      19  16       ; 0
0522  19850D00           [327] loadk      20  54       ; 0
0526  59450E00           [328] loadk      21  57       ; 0
052A  5B440002           [329] setlist    17  4   1    ; index 1 to 4
052E  0C4484A0           [330] settable   16  321 17   ; "range"
0532  4B040002           [331] newtable   17  4   0    ; array=4, hash=0
0536  99040800           [332] loadk      18  32       ; 0
053A  D9440200           [333] loadk      19  9        ; 0
053E  19850200           [334] loadk      20  10       ; 0
0542  59C50200           [335] loadk      21  11       ; 0
0546  5B440002           [336] setlist    17  4   1    ; index 1 to 4
054A  0C44048F           [337] settable   16  286 17   ; "energyDrain"
054E  4B040100           [338] newtable   17  0   4    ; array=0, hash=4
0552  9DC40000           [339] getglobal  18  3        ; -332969190
0556  D9C41300           [340] loadk      19  79       ; "CloakReduceDamage"
055A  A2840001           [341] call       18  2   2  
055E  4C840483           [342] settable   17  262 18   ; "tag"
0562  8B040002           [343] newtable   18  4   0    ; array=4, hash=0
0566  D9040800           [344] loadk      19  32       ; 0
056A  19450200           [345] loadk      20  9        ; 0
056E  59850200           [346] loadk      21  10       ; 0
0572  99C50200           [347] loadk      22  11       ; 0
0576  9B440002           [348] setlist    18  4   1    ; index 1 to 4
057A  4C84048F           [349] settable   17  286 18   ; "energyDrain"
057E  8B040002           [350] newtable   18  4   0    ; array=4, hash=0
0582  D9441100           [351] loadk      19  69       ; -51
0586  19C51100           [352] loadk      20  71       ; -51
058A  59451400           [353] loadk      21  81       ; -102
058E  99851400           [354] loadk      22  82       ; -51
0592  9B440002           [355] setlist    18  4   1    ; index 1 to 4
0596  4C8404A8           [356] settable   17  336 18   ; "dmgRed"
059A  8B040002           [357] newtable   18  4   0    ; array=4, hash=0
059E  D9040400           [358] loadk      19  16       ; 0
05A2  19850D00           [359] loadk      20  54       ; 0
05A6  59450E00           [360] loadk      21  57       ; 0
05AA  99850400           [361] loadk      22  18       ; 0
05AE  9B440002           [362] setlist    18  4   1    ; index 1 to 4
05B2  4C848486           [363] settable   17  269 18   ; "radius"
05B6  8BC40000           [364] newtable   18  0   3    ; array=0, hash=3
05BA  DDC40000           [365] getglobal  19  3        ; -332969190
05BE  19C51400           [366] loadk      20  83       ; "CloakAllyCloak"
05C2  E2840001           [367] call       19  2   2  
05C6  8CC40483           [368] settable   18  262 19   ; "tag"
05CA  CB040002           [369] newtable   19  4   0    ; array=4, hash=0
05CE  19050800           [370] loadk      20  32       ; 0
05D2  59450200           [371] loadk      21  9        ; 0
05D6  99850200           [372] loadk      22  10       ; 0
05DA  D9C50200           [373] loadk      23  11       ; 0
05DE  DB440002           [374] setlist    19  4   1    ; index 1 to 4
05E2  8CC4048F           [375] settable   18  286 19   ; "energyDrain"
05E6  CB040002           [376] newtable   19  4   0    ; array=4, hash=0
05EA  19050400           [377] loadk      20  16       ; 0
05EE  59850D00           [378] loadk      21  54       ; 0
05F2  99450E00           [379] loadk      22  57       ; 0
05F6  D9850400           [380] loadk      23  18       ; 0
05FA  DB440002           [381] setlist    19  4   1    ; index 1 to 4
05FE  8CC48486           [382] settable   18  269 19   ; "radius"
0602  CB840000           [383] newtable   19  0   2    ; array=0, hash=2
0606  1DC50000           [384] getglobal  20  3        ; -332969190
060A  59051500           [385] loadk      21  84       ; "DashReduceArmour"
060E  22850001           [386] call       20  2   2  
0612  CC040583           [387] settable   19  262 20   ; "tag"
0616  0B050003           [388] newtable   20  6   0    ; array=6, hash=0
061A  59C50600           [389] loadk      21  27       ; -51
061E  99451100           [390] loadk      22  69       ; -51
0622  D9851100           [391] loadk      23  70       ; -102
0626  19C61100           [392] loadk      24  71       ; -51
062A  59061200           [393] loadk      25  72       ; 0
062E  99861500           [394] loadk      26  86       ; 0
0632  1B450003           [395] setlist    20  6   1    ; index 1 to 6
0636  CC0485AA           [396] settable   19  341 20   ; "armourRed"
063A  0B850000           [397] newtable   20  0   2    ; array=0, hash=2
063E  5DC50000           [398] getglobal  21  3        ; -332969190
0642  99C51500           [399] loadk      22  87       ; "DashReduceDamage"
0646  62850001           [400] call       21  2   2  
064A  0C450583           [401] settable   20  262 21   ; "tag"
064E  4B050003           [402] newtable   21  6   0    ; array=6, hash=0
0652  99451100           [403] loadk      22  69       ; -51
0656  D9851100           [404] loadk      23  70       ; -102
065A  19C61100           [405] loadk      24  71       ; -51
065E  59061200           [406] loadk      25  72       ; 0
0662  99461400           [407] loadk      26  81       ; -102
0666  D9061600           [408] loadk      27  88       ; 51
066A  5B450003           [409] setlist    21  6   1    ; index 1 to 6
066E  0C4505A8           [410] settable   20  336 21   ; "dmgRed"
0672  65050000           [411] closure    21  0      
0676  12000002           [412] move       0   4      
067A  12008002           [413] move       0   5      
067E  12000003           [414] move       0   6      
0682  12008003           [415] move       0   7      
0686  12000004           [416] move       0   8      
068A  12008004           [417] move       0   9      
068E  12000005           [418] move       0   10     
0692  12008005           [419] move       0   11     
0696  12000006           [420] move       0   12     
069A  12008006           [421] move       0   13     
069E  12000007           [422] move       0   14     
06A2  12008007           [423] move       0   15     
06A6  12008008           [424] move       0   17     
06AA  12000009           [425] move       0   18     
06AE  12008009           [426] move       0   19     
06B2  1200000A           [427] move       0   20     
06B6  60451600           [428] setglobal  21  89       ; GetDescriptionInfo
06BA  60851600           [429] setglobal  21  90       ; 504423499
06BE  65450000           [430] closure    21  1      
06C2  A5850000           [431] closure    22  2      
06C6  E5C50000           [432] closure    23  3      
06CA  12000000           [433] move       0   0      
06CE  12000003           [434] move       0   6      
06D2  1200800A           [435] move       0   21     
06D6  E0C51600           [436] setglobal  23  91       ; HelperScript
06DA  E0051700           [437] setglobal  23  92       ; 1642963218
06DE  E5050100           [438] closure    23  4      
06E2  12000000           [439] move       0   0      
06E6  12000003           [440] move       0   6      
06EA  E0451700           [441] setglobal  23  93       ; TriggerWait
06EE  E0851700           [442] setglobal  23  94       ; -149908588
06F2  E5450100           [443] closure    23  5      
06F6  12000002           [444] move       0   4      
06FA  25860100           [445] closure    24  6      
06FE  12000005           [446] move       0   10     
0702  65C60100           [447] closure    25  7      
0706  12000000           [448] move       0   0      
070A  12000007           [449] move       0   14     
070E  60C61700           [450] setglobal  25  95       ; CloakMeleeCritUpgrade
0712  60061800           [451] setglobal  25  96       ; 1093820574
0716  65060200           [452] closure    25  8      
071A  12008007           [453] move       0   15     
071E  A5460200           [454] closure    26  9      
0722  12000006           [455] move       0   12     
0726  E5860200           [456] closure    27  10     
072A  E0461800           [457] setglobal  27  97       ; SetBeamEndPoint
072E  E0861800           [458] setglobal  27  98       ; 1681296185
0732  E5C60200           [459] closure    27  11     
0736  25070300           [460] closure    28  12     
073A  12000000           [461] move       0   0      
073E  12008006           [462] move       0   13     
0742  1200800D           [463] move       0   27     
0746  20C70F00           [464] setglobal  28  63       ; DashElectricity
074A  20C71800           [465] setglobal  28  99       ; -1609064106
074E  25470300           [466] closure    28  13     
0752  12008006           [467] move       0   13     
0756  65870300           [468] closure    29  14     
075A  12000000           [469] move       0   0      
075E  12008004           [470] move       0   9      
0762  12000001           [471] move       0   2      
0766  60470C00           [472] setglobal  29  49       ; DashShockwave
076A  60071900           [473] setglobal  29  100      ; -984716907
076E  65C70300           [474] closure    29  15     
0772  A5070400           [475] closure    30  16     
0776  E5470400           [476] closure    31  17     
077A  1200800E           [477] move       0   29     
077E  1200000F           [478] move       0   30     
0782  E0471900           [479] setglobal  31  101      ; BonusDamage
0786  E0871900           [480] setglobal  31  102      ; -222223064
078A  E5870400           [481] closure    31  18     
078E  25C80400           [482] closure    32  19     
0792  12000000           [483] move       0   0      
0796  12000002           [484] move       0   4      
079A  12008002           [485] move       0   5      
079E  12000003           [486] move       0   6      
07A2  12008003           [487] move       0   7      
07A6  12000004           [488] move       0   8      
07AA  12008004           [489] move       0   9      
07AE  12000005           [490] move       0   10     
07B2  12008005           [491] move       0   11     
07B6  12000006           [492] move       0   12     
07BA  12008006           [493] move       0   13     
07BE  12000007           [494] move       0   14     
07C2  12008007           [495] move       0   15     
07C6  12000008           [496] move       0   16     
07CA  12008008           [497] move       0   17     
07CE  12000009           [498] move       0   18     
07D2  12008009           [499] move       0   19     
07D6  1200000A           [500] move       0   20     
07DA  1200000C           [501] move       0   24     
07DE  1200800C           [502] move       0   25     
07E2  12008000           [503] move       0   1      
07E6  1200000B           [504] move       0   22     
07EA  1200000D           [505] move       0   26     
07EE  1200000E           [506] move       0   28     
07F2  1200800F           [507] move       0   31     
07F6  1200800B           [508] move       0   23     
07FA  20C81900           [509] setglobal  32  103      ; VoidMode
07FE  20081A00           [510] setglobal  32  104      ; 34160630
0802  25080500           [511] closure    32  20     
0806  20481A00           [512] setglobal  32  105      ; EnterCloakReduceDamageUpgrade
080A  20881A00           [513] setglobal  32  106      ; 1625583215
080E  25480500           [514] closure    32  21     
0812  20C81A00           [515] setglobal  32  107      ; ExitCloakReduceDamageUpgrade
0816  20081B00           [516] setglobal  32  108      ; -995151195
081A  25880500           [517] closure    32  22     
081E  12008000           [518] move       0   1      
0822  20481B00           [519] setglobal  32  109      ; EnterCloakAllyCloakUpgrade
0826  20881B00           [520] setglobal  32  110      ; 235957708
082A  25C80500           [521] closure    32  23     
082E  12008000           [522] move       0   1      
0832  20C81B00           [523] setglobal  32  111      ; ExitCloakAllyCloakUpgrade
0836  20081C00           [524] setglobal  32  112      ; 768768768
083A  25080600           [525] closure    32  24     
083E  12000000           [526] move       0   0      
0842  12008009           [527] move       0   19     
0846  1200000A           [528] move       0   20     
084A  20481C00           [529] setglobal  32  113      ; OnDashHit
084E  20881C00           [530] setglobal  32  114      ; -1207110851
0852  25480600           [531] closure    32  25     
0856  12000006           [532] move       0   12     
085A  20C81C00           [533] setglobal  32  115      ; DashBubbleLifeSpan
085E  20081D00           [534] setglobal  32  116      ; 1085833953
0862  25880600           [535] closure    32  26     
0866  12000006           [536] move       0   12     
086A  20481D00           [537] setglobal  32  117      ; EnterDashBubbleTrigger
086E  20881D00           [538] setglobal  32  118      ; 440347344
0872  25C80600           [539] closure    32  27     
0876  12000000           [540] move       0   0      
087A  12008004           [541] move       0   9      
087E  12008001           [542] move       0   3      
0882  20C81D00           [543] setglobal  32  119      ; DashDecoSize
0886  20081E00           [544] setglobal  32  120      ; -114104609
088A  1E008000           [545] return     0   1      
                         * constants:
088E  79                 sizek (121)
088F  01                 const type 3
0890  44DC9B32           const [0]: (849075268)
0894  04                 const type 4
0895  26                 string size (38)
0896  4C6F7475732E506F+  "Lotus.Po"
089E  7765727375697473+  "wersuits"
08A6  2E4F70657261746F+  ".Operato"
08AE  722E4F7065726174+  "r.Operat"
08B6  6F724C696200       "orLib\0"
                         const [1]: "Lotus.Powersuits.Operator.OperatorLib"
08BC  04                 const type 4
08BD  20                 string size (32)
08BE  4C6F7475732E5363+  "Lotus.Sc"
08C6  72697074732E4C69+  "ripts.Li"
08CE  62732E4162696C69+  "bs.Abili"
08D6  746965734C696200   "tiesLib\0"
                         const [2]: "Lotus.Scripts.Libs.AbilitiesLib"
08DE  01                 const type 3
08DF  1A4B27EC           const [3]: (-332969190)
08E3  04                 const type 4
08E4  0B                 string size (11)
08E5  556E6C6974417474+  "UnlitAtt"
08ED  656E00             "en\0"
                         const [4]: "UnlitAtten"
08F0  04                 const type 4
08F1  08                 string size (8)
08F2  765363616C657300   "vScales\0"
                         const [5]: "vScales"
08FA  04                 const type 4
08FB  04                 string size (4)
08FC  74616700           "tag\0"
                         const [6]: "tag"
0900  04                 const type 4
0901  0B                 string size (11)
0902  436C6F616B426C69+  "CloakBli"
090A  6E6400             "nd\0"
                         const [7]: "CloakBlind"
090D  04                 const type 4
090E  09                 string size (9)
090F  6475726174696F6E+  "duration"
0917  00                 "\0"
                         const [8]: "duration"
0918  03                 const type 3
0919  00000040           const [9]: (0)
091D  03                 const type 3
091E  00004040           const [10]: (0)
0922  03                 const type 3
0923  00008040           const [11]: (0)
0927  03                 const type 3
0928  0000A040           const [12]: (0)
092C  04                 const type 4
092D  07                 string size (7)
092E  72616469757300     "radius\0"
                         const [13]: "radius"
0935  03                 const type 3
0936  0000C040           const [14]: (0)
093A  03                 const type 3
093B  00000041           const [15]: (0)
093F  03                 const type 3
0940  00002041           const [16]: (0)
0944  04                 const type 4
0945  0B                 string size (11)
0946  656E65726779436F+  "energyCo"
094E  737400             "st\0"
                         const [17]: "energyCost"
0951  03                 const type 3
0952  0000C841           const [18]: (0)
0956  03                 const type 3
0957  0000F041           const [19]: (0)
095B  03                 const type 3
095C  00003442           const [20]: (0)
0960  03                 const type 3
0961  00004842           const [21]: (0)
0965  04                 const type 4
0966  12                 string size (18)
0967  436C6F616B417474+  "CloakAtt"
096F  61636B4368617267+  "ackCharg"
0977  6500               "e\0"
                         const [22]: "CloakAttackCharge"
0979  04                 const type 4
097A  19                 string size (25)
097B  70657263656E7449+  "percentI"
0983  6E63726561736550+  "ncreaseP"
098B  65725365636F6E64+  "erSecond"
0993  00                 "\0"
                         const [23]: "percentIncreasePerSecond"
0994  03                 const type 3
0995  CDCC4C3D           const [24]: (-51)
0999  03                 const type 3
099A  295C8F3D           const [25]: (41)
099E  03                 const type 3
099F  0AD7A33D           const [26]: (10)
09A3  03                 const type 3
09A4  CDCCCC3D           const [27]: (-51)
09A8  03                 const type 3
09A9  AE47E13D           const [28]: (-82)
09AD  03                 const type 3
09AE  8FC2F53D           const [29]: (-113)
09B2  04                 const type 4
09B3  0C                 string size (12)
09B4  656E657267794472+  "energyDr"
09BC  61696E00           "ain\0"
                         const [30]: "energyDrain"
09C0  04                 const type 4
09C1  0B                 string size (11)
09C2  6E756D4174746163+  "numAttac"
09CA  6B7300             "ks\0"
                         const [31]: "numAttacks"
09CD  03                 const type 3
09CE  0000803F           const [32]: (0)
09D2  04                 const type 4
09D3  09                 string size (9)
09D4  4461736846697265+  "DashFire"
09DC  00                 "\0"
                         const [33]: "DashFire"
09DD  04                 const type 4
09DE  07                 string size (7)
09DF  64616D61676500     "damage\0"
                         const [34]: "damage"
09E6  03                 const type 3
09E7  0000C842           const [35]: (0)
09EB  03                 const type 3
09EC  00004843           const [36]: (0)
09F0  03                 const type 3
09F1  00009643           const [37]: (0)
09F5  03                 const type 3
09F6  0000C843           const [38]: (0)
09FA  03                 const type 3
09FB  00001644           const [39]: (0)
09FF  03                 const type 3
0A00  00007A44           const [40]: (0)
0A04  03                 const type 3
0A05  00001041           const [41]: (0)
0A09  03                 const type 3
0A0A  00004041           const [42]: (0)
0A0E  03                 const type 3
0A0F  00006041           const [43]: (0)
0A13  04                 const type 4
0A14  0A                 string size (10)
0A15  436C6F616B486561+  "CloakHea"
0A1D  6C00               "l\0"
                         const [44]: "CloakHeal"
0A1F  04                 const type 4
0A20  09                 string size (9)
0A21  6865616C52617465+  "healRate"
0A29  00                 "\0"
                         const [45]: "healRate"
0A2A  03                 const type 3
0A2B  00008041           const [46]: (0)
0A2F  04                 const type 4
0A30  0C                 string size (12)
0A31  436C6F616B536869+  "CloakShi"
0A39  656C6400           "eld\0"
                         const [47]: "CloakShield"
0A3D  04                 const type 4
0A3E  09                 string size (9)
0A3F  67726F7754696D65+  "growTime"
0A47  00                 "\0"
                         const [48]: "growTime"
0A48  04                 const type 4
0A49  0E                 string size (14)
0A4A  4461736853686F63+  "DashShoc"
0A52  6B7761766500       "kwave\0"
                         const [49]: "DashShockwave"
0A58  04                 const type 4
0A59  06                 string size (6)
0A5A  737065656400       "speed\0"
                         const [50]: "speed"
0A60  03                 const type 3
0A61  0000E040           const [51]: (0)
0A65  04                 const type 4
0A66  09                 string size (9)
0A67  64697374616E6365+  "distance"
0A6F  00                 "\0"
                         const [52]: "distance"
0A70  04                 const type 4
0A71  0C                 string size (12)
0A72  436C6F616B537461+  "CloakSta"
0A7A  74696300           "tic\0"
                         const [53]: "CloakStatic"
0A7E  03                 const type 3
0A7F  00007041           const [54]: (0)
0A83  03                 const type 3
0A84  0000FA43           const [55]: (0)
0A88  04                 const type 4
0A89  0A                 string size (10)
0A8A  436C6F616B50756C+  "CloakPul"
0A92  6C00               "l\0"
                         const [56]: "CloakPull"
0A94  03                 const type 3
0A95  0000A041           const [57]: (0)
0A99  04                 const type 4
0A9A  0B                 string size (11)
0A9B  4461736842756262+  "DashBubb"
0AA3  6C6500             "le\0"
                         const [58]: "DashBubble"
0AA6  04                 const type 4
0AA7  06                 string size (6)
0AA8  726567656E00       "regen\0"
                         const [59]: "regen"
0AAE  04                 const type 4
0AAF  09                 string size (9)
0AB0  6275666654696D65+  "buffTime"
0AB8  00                 "\0"
                         const [60]: "buffTime"
0AB9  03                 const type 3
0ABA  0000B041           const [61]: (0)
0ABE  04                 const type 4
0ABF  0D                 string size (13)
0AC0  6D6178496E737461+  "maxInsta"
0AC8  6E63657300         "nces\0"
                         const [62]: "maxInstances"
0ACD  04                 const type 4
0ACE  10                 string size (16)
0ACF  44617368456C6563+  "DashElec"
0AD7  7472696369747900   "tricity\0"
                         const [63]: "DashElectricity"
0ADF  03                 const type 3
0AE0  0000C03F           const [64]: (0)
0AE4  04                 const type 4
0AE5  06                 string size (6)
0AE6  72616E676500       "range\0"
                         const [65]: "range"
0AEC  03                 const type 3
0AED  00004844           const [66]: (0)
0AF1  04                 const type 4
0AF2  0F                 string size (15)
0AF3  436C6F616B4D656C+  "CloakMel"
0AFB  65654372697400     "eeCrit\0"
                         const [67]: "CloakMeleeCrit"
0B02  04                 const type 4
0B03  08                 string size (8)
0B04  6D61784372697400   "maxCrit\0"
                         const [68]: "maxCrit"
0B0C  03                 const type 3
0B0D  CDCC4C3E           const [69]: (-51)
0B11  03                 const type 3
0B12  9A99993E           const [70]: (-102)
0B16  03                 const type 3
0B17  CDCCCC3E           const [71]: (-51)
0B1B  03                 const type 3
0B1C  0000003F           const [72]: (0)
0B20  04                 const type 4
0B21  0A                 string size (10)
0B22  6275696C6454696D+  "buildTim"
0B2A  6500               "e\0"
                         const [73]: "buildTime"
0B2C  04                 const type 4
0B2D  0C                 string size (12)
0B2E  6465677261646554+  "degradeT"
0B36  696D6500           "ime\0"
                         const [74]: "degradeTime"
0B3A  04                 const type 4
0B3B  0C                 string size (12)
0B3C  436C6F616B526576+  "CloakRev"
0B44  65616C00           "eal\0"
                         const [75]: "CloakReveal"
0B48  03                 const type 3
0B49  00009041           const [76]: (0)
0B4D  04                 const type 4
0B4E  09                 string size (9)
0B4F  6661646554696D65+  "fadeTime"
0B57  00                 "\0"
                         const [77]: "fadeTime"
0B58  04                 const type 4
0B59  09                 string size (9)
0B5A  4461736857617665+  "DashWave"
0B62  00                 "\0"
                         const [78]: "DashWave"
0B63  04                 const type 4
0B64  12                 string size (18)
0B65  436C6F616B526564+  "CloakRed"
0B6D  75636544616D6167+  "uceDamag"
0B75  6500               "e\0"
                         const [79]: "CloakReduceDamage"
0B77  04                 const type 4
0B78  07                 string size (7)
0B79  646D6752656400     "dmgRed\0"
                         const [80]: "dmgRed"
0B80  03                 const type 3
0B81  9A99193F           const [81]: (-102)
0B85  03                 const type 3
0B86  CDCC4C3F           const [82]: (-51)
0B8A  04                 const type 4
0B8B  0F                 string size (15)
0B8C  436C6F616B416C6C+  "CloakAll"
0B94  79436C6F616B00     "yCloak\0"
                         const [83]: "CloakAllyCloak"
0B9B  04                 const type 4
0B9C  11                 string size (17)
0B9D  4461736852656475+  "DashRedu"
0BA5  636541726D6F7572+  "ceArmour"
0BAD  00                 "\0"
                         const [84]: "DashReduceArmour"
0BAE  04                 const type 4
0BAF  0A                 string size (10)
0BB0  61726D6F75725265+  "armourRe"
0BB8  6400               "d\0"
                         const [85]: "armourRed"
0BBA  03                 const type 3
0BBB  0000403F           const [86]: (0)
0BBF  04                 const type 4
0BC0  11                 string size (17)
0BC1  4461736852656475+  "DashRedu"
0BC9  636544616D616765+  "ceDamage"
0BD1  00                 "\0"
                         const [87]: "DashReduceDamage"
0BD2  03                 const type 3
0BD3  3333333F           const [88]: (51)
0BD7  04                 const type 4
0BD8  13                 string size (19)
0BD9  4765744465736372+  "GetDescr"
0BE1  697074696F6E496E+  "iptionIn"
0BE9  666F00             "fo\0"
                         const [89]: "GetDescriptionInfo"
0BEC  01                 const type 3
0BED  4BE4101E           const [90]: (504423499)
0BF1  04                 const type 4
0BF2  0D                 string size (13)
0BF3  48656C7065725363+  "HelperSc"
0BFB  7269707400         "ript\0"
                         const [91]: "HelperScript"
0C00  01                 const type 3
0C01  12A1ED61           const [92]: (1642963218)
0C05  04                 const type 4
0C06  0C                 string size (12)
0C07  5472696767657257+  "TriggerW"
0C0F  61697400           "ait\0"
                         const [93]: "TriggerWait"
0C13  01                 const type 3
0C14  949310F7           const [94]: (-149908588)
0C18  04                 const type 4
0C19  16                 string size (22)
0C1A  436C6F616B4D656C+  "CloakMel"
0C22  6565437269745570+  "eeCritUp"
0C2A  677261646500       "grade\0"
                         const [95]: "CloakMeleeCritUpgrade"
0C30  01                 const type 3
0C31  9E603241           const [96]: (1093820574)
0C35  04                 const type 4
0C36  10                 string size (16)
0C37  5365744265616D45+  "SetBeamE"
0C3F  6E64506F696E7400   "ndPoint\0"
                         const [97]: "SetBeamEndPoint"
0C47  01                 const type 3
0C48  398B3664           const [98]: (1681296185)
0C4C  01                 const type 3
0C4D  56A117A0           const [99]: (-1609064106)
0C51  01                 const type 3
0C52  95694EC5           const [100]: (-984716907)
0C56  04                 const type 4
0C57  0C                 string size (12)
0C58  426F6E757344616D+  "BonusDam"
0C60  61676500           "age\0"
                         const [101]: "BonusDamage"
0C64  01                 const type 3
0C65  2825C1F2           const [102]: (-222223064)
0C69  04                 const type 4
0C6A  09                 string size (9)
0C6B  566F69644D6F6465+  "VoidMode"
0C73  00                 "\0"
                         const [103]: "VoidMode"
0C74  01                 const type 3
0C75  F63F0902           const [104]: (34160630)
0C79  04                 const type 4
0C7A  1E                 string size (30)
0C7B  456E746572436C6F+  "EnterClo"
0C83  616B526564756365+  "akReduce"
0C8B  44616D6167655570+  "DamageUp"
0C93  677261646500       "grade\0"
                         const [105]: "EnterCloakReduceDamageUpgrade"
0C99  01                 const type 3
0C9A  6F6EE460           const [106]: (1625583215)
0C9E  04                 const type 4
0C9F  1D                 string size (29)
0CA0  45786974436C6F61+  "ExitCloa"
0CA8  6B52656475636544+  "kReduceD"
0CB0  616D616765557067+  "amageUpg"
0CB8  7261646500         "rade\0"
                         const [107]: "ExitCloakReduceDamageUpgrade"
0CBD  01                 const type 3
0CBE  A532AFC4           const [108]: (-995151195)
0CC2  04                 const type 4
0CC3  1B                 string size (27)
0CC4  456E746572436C6F+  "EnterClo"
0CCC  616B416C6C79436C+  "akAllyCl"
0CD4  6F616B5570677261+  "oakUpgra"
0CDC  646500             "de\0"
                         const [109]: "EnterCloakAllyCloakUpgrade"
0CDF  01                 const type 3
0CE0  CC6D100E           const [110]: (235957708)
0CE4  04                 const type 4
0CE5  1A                 string size (26)
0CE6  45786974436C6F61+  "ExitCloa"
0CEE  6B416C6C79436C6F+  "kAllyClo"
0CF6  616B557067726164+  "akUpgrad"
0CFE  6500               "e\0"
                         const [111]: "ExitCloakAllyCloakUpgrade"
0D00  01                 const type 3
0D01  007BD22D           const [112]: (768768768)
0D05  04                 const type 4
0D06  0A                 string size (10)
0D07  4F6E446173684869+  "OnDashHi"
0D0F  7400               "t\0"
                         const [113]: "OnDashHit"
0D11  01                 const type 3
0D12  3DF30CB8           const [114]: (-1207110851)
0D16  04                 const type 4
0D17  13                 string size (19)
0D18  4461736842756262+  "DashBubb"
0D20  6C654C6966655370+  "leLifeSp"
0D28  616E00             "an\0"
                         const [115]: "DashBubbleLifeSpan"
0D2B  01                 const type 3
0D2C  E182B840           const [116]: (1085833953)
0D30  04                 const type 4
0D31  17                 string size (23)
0D32  456E746572446173+  "EnterDas"
0D3A  68427562626C6554+  "hBubbleT"
0D42  72696767657200     "rigger\0"
                         const [117]: "EnterDashBubbleTrigger"
0D49  01                 const type 3
0D4A  D02A3F1A           const [118]: (440347344)
0D4E  04                 const type 4
0D4F  0D                 string size (13)
0D50  446173684465636F+  "DashDeco"
0D58  53697A6500         "Size\0"
                         const [119]: "DashDecoSize"
0D5D  01                 const type 3
0D5E  DFE632F9           const [120]: (-114104609)
                         * functions:
0D62  1C                 sizep (28)
                         
0D63                     ** function [0] definition (level 2)
                         ** start of function **
0D63  00                 string size (0)
                         source name: (none)
0D65  01                 line defined (204)
0D66  E0                 last line defined (352)
0D67  02                 nups (16)
0D68  10                 numparams (3)
0D69  03                 is_vararg (0)
0D6A  00                 maxstacksize (13)
                         * code:
0D6D  04                 sizecode (574)
0D6E  CB000000           [001] newtable   3   0   0    ; array=0, hash=0
0D72  25010000           [002] closure    4   0      
0D76  12008000           [003] move       0   1      
0D7A  5D010000           [004] getglobal  5   0        ; -332969190
0D7E  92010000           [005] move       6   0      
0D82  62810001           [006] call       5   2   2  
0D86  93010000           [007] getupval   6   0      
0D8A  8E414003           [008] gettable   6   6   257  ; "tag"
fail op	35
0D8E  23808102           [009] close      0  
0D92  1A400480           [010] jmp        18           ; to [29]
0D96  8BC10000           [011] newtable   6   0   3    ; array=0, hash=3
0D9A  D2010002           [012] move       7   4      
0D9E  13020000           [013] getupval   8   0      
0DA2  0EC24004           [014] gettable   8   8   259  ; "duration"
0DA6  E2810001           [015] call       7   2   2  
0DAA  8CC10181           [016] settable   6   258 7    ; "DURATION"
0DAE  D2010002           [017] move       7   4      
0DB2  13020000           [018] getupval   8   0      
0DB6  0E424104           [019] gettable   8   8   261  ; "radius"
0DBA  E2810001           [020] call       7   2   2  
0DBE  8CC10182           [021] settable   6   260 7    ; "RADIUS"
0DC2  D2010002           [022] move       7   4      
0DC6  13020000           [023] getupval   8   0      
0DCA  0EC24104           [024] gettable   8   8   263  ; "energyCost"
0DCE  E2810001           [025] call       7   2   2  
0DD2  8CC10183           [026] settable   6   262 7    ; "ENERGY"
0DD6  D2000003           [027] move       3   6      
0DDA  1AC08680           [028] jmp        540          ; to [569]
0DDE  93018000           [029] getupval   6   1      
0DE2  8E414003           [030] gettable   6   6   257  ; "tag"
fail op	35
0DE6  23808102           [031] close      0  
0DEA  1A400580           [032] jmp        22           ; to [55]
0DEE  8BC10000           [033] newtable   6   0   3    ; array=0, hash=3
0DF2  DD410200           [034] getglobal  7   9        ; math
0DF6  CE81C203           [035] gettable   7   7   266  ; -150971781
0DFA  12020002           [036] move       8   4      
0DFE  53028000           [037] getupval   9   1      
0E02  4EC2C204           [038] gettable   9   9   267  ; "percentIncreasePerSecond"
0E06  22820001           [039] call       8   2   2  
0E0A  04024304           [040] mul        8   8   268  ; 0
0E0E  E2810001           [041] call       7   2   2  
0E12  8CC10184           [042] settable   6   264 7    ; "PERCENT"
0E16  D2010002           [043] move       7   4      
0E1A  13028000           [044] getupval   8   1      
0E1E  0E424304           [045] gettable   8   8   269  ; "energyDrain"
0E22  E2810001           [046] call       7   2   2  
0E26  8CC10183           [047] settable   6   262 7    ; "ENERGY"
0E2A  D2010002           [048] move       7   4      
0E2E  13028000           [049] getupval   8   1      
0E32  0EC24304           [050] gettable   8   8   271  ; "numAttacks"
0E36  E2810001           [051] call       7   2   2  
0E3A  8CC10187           [052] settable   6   270 7    ; "ATTACKS"
0E3E  D2000003           [053] move       3   6      
0E42  1A408080           [054] jmp        514          ; to [569]
0E46  93010001           [055] getupval   6   2      
0E4A  8E414003           [056] gettable   6   6   257  ; "tag"
fail op	35
0E4E  23808102           [057] close      0  
0E52  1A000380           [058] jmp        13           ; to [72]
0E56  8B810000           [059] newtable   6   0   2    ; array=0, hash=2
0E5A  D2010002           [060] move       7   4      
0E5E  13020001           [061] getupval   8   2      
0E62  0E424404           [062] gettable   8   8   273  ; "damage"
0E66  E2810001           [063] call       7   2   2  
0E6A  8CC10188           [064] settable   6   272 7    ; "DAMAGE"
0E6E  D2010002           [065] move       7   4      
0E72  13020001           [066] getupval   8   2      
0E76  0EC24004           [067] gettable   8   8   259  ; "duration"
0E7A  E2810001           [068] call       7   2   2  
0E7E  8CC10181           [069] settable   6   258 7    ; "DURATION"
0E82  D2000003           [070] move       3   6      
0E86  1A007C80           [071] jmp        497          ; to [569]
0E8A  9D010000           [072] getglobal  6   0        ; -332969190
0E8E  D9810400           [073] loadk      7   18       ; "DashFinisher"
0E92  A2810001           [074] call       6   2   2  
fail op	35
0E96  23808102           [075] close      0  
0E9A  1A400380           [076] jmp        14           ; to [91]
0E9E  A4C14401           [077] self       6   2   275  ; -703980441
0EA2  A2810001           [078] call       6   2   2  
0EA6  CB410000           [079] newtable   7   0   1    ; array=0, hash=1
0EAA  1D420200           [080] getglobal  8   9        ; math
0EAE  0E824204           [081] gettable   8   8   266  ; -150971781
0EB2  52020002           [082] move       9   4      
0EB6  8E024503           [083] gettable   10  6   276  ; 0
0EBA  8E424505           [084] gettable   10  10  277  ; "mValues"
0EBE  62820001           [085] call       9   2   2  
0EC2  4402C304           [086] mul        9   9   268  ; 0
0EC6  22820001           [087] call       8   2   2  
0ECA  CC010288           [088] settable   7   272 8    ; "DAMAGE"
0ECE  D2008003           [089] move       3   7      
0ED2  1A407780           [090] jmp        478          ; to [569]
0ED6  DD010000           [091] getglobal  7   0        ; -332969190
0EDA  19820500           [092] loadk      8   22       ; "DashDamage"
0EDE  E2810001           [093] call       7   2   2  
fail op	35
0EE2  23C08102           [094] close      0  
0EE6  1A400280           [095] jmp        10           ; to [106]
0EEA  CB410000           [096] newtable   7   0   1    ; array=0, hash=1
0EEE  24C24501           [097] self       8   2   279  ; 955459000
0EF2  99020600           [098] loadk      10  24       ; 0
0EF6  22828001           [099] call       8   3   2  
0EFA  24424604           [100] self       8   8   281  ; -1378524997
0EFE  22820001           [101] call       8   2   2  
0F02  04420004           [102] mul        8   8   1  
0F06  CC010288           [103] settable   7   272 8    ; "DAMAGE"
0F0A  D2008003           [104] move       3   7      
0F0E  1A807380           [105] jmp        463          ; to [569]
0F12  DD010000           [106] getglobal  7   0        ; -332969190
0F16  19820600           [107] loadk      8   26       ; "DashWave"
0F1A  E2810001           [108] call       7   2   2  
fail op	35
0F1E  23C08102           [109] close      0  
0F22  1AC00580           [110] jmp        24           ; to [135]
0F26  CB810000           [111] newtable   7   0   2    ; array=0, hash=2
0F2A  1D420200           [112] getglobal  8   9        ; math
0F2E  0E824204           [113] gettable   8   8   266  ; -150971781
0F32  64C24501           [114] self       9   2   279  ; 955459000
0F36  D9020600           [115] loadk      11  24       ; 0
0F3A  62828001           [116] call       9   3   2  
0F3E  6442C604           [117] self       9   9   281  ; -1378524997
0F42  62820001           [118] call       9   2   2  
0F46  44428004           [119] mul        9   9   1  
0F4A  4402C304           [120] mul        9   9   268  ; 0
0F4E  22820001           [121] call       8   2   2  
0F52  CC010288           [122] settable   7   272 8    ; "DAMAGE"
0F56  1D420200           [123] getglobal  8   9        ; math
0F5A  0E824204           [124] gettable   8   8   266  ; -150971781
0F5E  64C24501           [125] self       9   2   279  ; 955459000
0F62  D9020500           [126] loadk      11  20       ; 0
0F66  62828001           [127] call       9   3   2  
0F6A  6442C604           [128] self       9   9   281  ; -1378524997
0F6E  62820001           [129] call       9   2   2  
0F72  44428004           [130] mul        9   9   1  
0F76  22820001           [131] call       8   2   2  
0F7A  CC010282           [132] settable   7   260 8    ; "RADIUS"
0F7E  D2008003           [133] move       3   7      
0F82  1A406C80           [134] jmp        434          ; to [569]
0F86  DD010000           [135] getglobal  7   0        ; -332969190
0F8A  19C20600           [136] loadk      8   27       ; "MoreAmmo"
0F8E  E2810001           [137] call       7   2   2  
fail op	35
0F92  63C08102           [138] close      1  
0F96  1A000180           [139] jmp        5            ; to [145]
0F9A  DD010000           [140] getglobal  7   0        ; -332969190
0F9E  19020700           [141] loadk      8   28       ; "RegenAmmo"
0FA2  E2810001           [142] call       7   2   2  
fail op	35
0FA6  23C08102           [143] close      0  
0FAA  1A400380           [144] jmp        14           ; to [159]
0FAE  CB410000           [145] newtable   7   0   1    ; array=0, hash=1
0FB2  1D420200           [146] getglobal  8   9        ; math
0FB6  0E824204           [147] gettable   8   8   266  ; -150971781
0FBA  64C24501           [148] self       9   2   279  ; 955459000
0FBE  D9020600           [149] loadk      11  24       ; 0
0FC2  62828001           [150] call       9   3   2  
0FC6  6442C604           [151] self       9   9   281  ; -1378524997
0FCA  62820001           [152] call       9   2   2  
0FCE  44428004           [153] mul        9   9   1  
0FD2  4402C304           [154] mul        9   9   268  ; 0
0FD6  22820001           [155] call       8   2   2  
0FDA  CC010284           [156] settable   7   264 8    ; "PERCENT"
0FDE  D2008003           [157] move       3   7      
0FE2  1A406680           [158] jmp        410          ; to [569]
0FE6  D3018001           [159] getupval   7   3      
0FEA  CE41C003           [160] gettable   7   7   257  ; "tag"
fail op	35
0FEE  23C08102           [161] close      0  
0FF2  1A000380           [162] jmp        13           ; to [176]
0FF6  CB810000           [163] newtable   7   0   2    ; array=0, hash=2
0FFA  12020002           [164] move       8   4      
0FFE  53028001           [165] getupval   9   3      
1002  4E82C704           [166] gettable   9   9   286  ; "healRate"
1006  22820001           [167] call       8   2   2  
100A  CC01828E           [168] settable   7   285 8    ; "HEAL"
100E  12020002           [169] move       8   4      
1012  53028001           [170] getupval   9   3      
1016  4E42C304           [171] gettable   9   9   269  ; "energyDrain"
101A  22820001           [172] call       8   2   2  
101E  CC010283           [173] settable   7   262 8    ; "ENERGY"
1022  D2008003           [174] move       3   7      
1026  1A006280           [175] jmp        393          ; to [569]
102A  D3010002           [176] getupval   7   4      
102E  CE41C003           [177] gettable   7   7   257  ; "tag"
fail op	35
1032  23C08102           [178] close      0  
1036  1AC00380           [179] jmp        16           ; to [196]
103A  CBC10000           [180] newtable   7   0   3    ; array=0, hash=3
103E  12020002           [181] move       8   4      
1042  53020002           [182] getupval   9   4      
1046  4E42C104           [183] gettable   9   9   261  ; "radius"
104A  22820001           [184] call       8   2   2  
104E  CC010282           [185] settable   7   260 8    ; "RADIUS"
1052  13020002           [186] getupval   8   4      
1056  0EC24704           [187] gettable   8   8   287  ; "growTime"
105A  CC010281           [188] settable   7   258 8    ; "DURATION"
105E  12020002           [189] move       8   4      
1062  53020002           [190] getupval   9   4      
1066  4E42C304           [191] gettable   9   9   269  ; "energyDrain"
106A  22820001           [192] call       8   2   2  
106E  CC010283           [193] settable   7   262 8    ; "ENERGY"
1072  D2008003           [194] move       3   7      
1076  1A005D80           [195] jmp        373          ; to [569]
107A  D3018002           [196] getupval   7   5      
107E  CE41C003           [197] gettable   7   7   257  ; "tag"
fail op	35
1082  23C08102           [198] close      0  
1086  1A400380           [199] jmp        14           ; to [214]
108A  CB810000           [200] newtable   7   0   2    ; array=0, hash=2
108E  12020002           [201] move       8   4      
1092  53028002           [202] getupval   9   5      
1096  4E42C104           [203] gettable   9   9   261  ; "radius"
109A  22820001           [204] call       8   2   2  
109E  04024804           [205] mul        8   8   288  ; 0
10A2  CC010282           [206] settable   7   260 8    ; "RADIUS"
10A6  12020002           [207] move       8   4      
10AA  53028002           [208] getupval   9   5      
10AE  4E82C804           [209] gettable   9   9   290  ; "distance"
10B2  22820001           [210] call       8   2   2  
10B6  CC018290           [211] settable   7   289 8    ; "DISTANCE"
10BA  D2008003           [212] move       3   7      
10BE  1A805880           [213] jmp        355          ; to [569]
10C2  DD010000           [214] getglobal  7   0        ; -332969190
10C6  19C20800           [215] loadk      8   35       ; "DashImmunity"
10CA  E2810001           [216] call       7   2   2  
fail op	35
10CE  23C08102           [217] close      0  
10D2  1AC00580           [218] jmp        24           ; to [243]
10D6  E4C14401           [219] self       7   2   275  ; -703980441
10DA  E2810001           [220] call       7   2   2  
10DE  0BC20000           [221] newtable   8   0   3    ; array=0, hash=3
10E2  52020002           [222] move       9   4      
10E6  8E02C503           [223] gettable   10  7   276  ; 0
10EA  8E424505           [224] gettable   10  10  277  ; "mValues"
10EE  62820001           [225] call       9   2   2  
10F2  0C420292           [226] settable   8   292 9    ; "INVULN"
10F6  5D420200           [227] getglobal  9   9        ; math
10FA  4E82C204           [228] gettable   9   9   266  ; -150971781
10FE  92020002           [229] move       10  4      
1102  CE02C803           [230] gettable   11  7   288  ; 0
1106  CE42C505           [231] gettable   11  11  277  ; "mValues"
110A  A2820001           [232] call       10  2   2  
110E  84024305           [233] mul        10  10  268  ; 0
1112  62820001           [234] call       9   2   2  
1116  0C420284           [235] settable   8   264 9    ; "PERCENT"
111A  52020002           [236] move       9   4      
111E  8E42C903           [237] gettable   10  7   293  ; 0
1122  8E424505           [238] gettable   10  10  277  ; "mValues"
1126  62820001           [239] call       9   2   2  
112A  0C420281           [240] settable   8   258 9    ; "DURATION"
112E  D2000004           [241] move       3   8      
1132  1A405180           [242] jmp        326          ; to [569]
1136  1D020000           [243] getglobal  8   0        ; -332969190
113A  59820900           [244] loadk      9   38       ; "HealthRegen"
113E  22820001           [245] call       8   2   2  
fail op	35
1142  23008202           [246] close      0  
1146  1A400280           [247] jmp        10           ; to [258]
114A  0B420000           [248] newtable   8   0   1    ; array=0, hash=1
114E  64C24501           [249] self       9   2   279  ; 955459000
1152  D9020600           [250] loadk      11  24       ; 0
1156  62828001           [251] call       9   3   2  
115A  6442C604           [252] self       9   9   281  ; -1378524997
115E  62820001           [253] call       9   2   2  
1162  44428004           [254] mul        9   9   1  
1166  0C428293           [255] settable   8   295 9    ; "INCREASE"
116A  D2000004           [256] move       3   8      
116E  1A804D80           [257] jmp        311          ; to [569]
1172  13020003           [258] getupval   8   6      
1176  0E424004           [259] gettable   8   8   257  ; "tag"
fail op	35
117A  23008202           [260] close      0  
117E  1A400480           [261] jmp        18           ; to [280]
1182  0BC20000           [262] newtable   8   0   3    ; array=0, hash=3
1186  52020002           [263] move       9   4      
118A  93020003           [264] getupval   10  6      
118E  8E424105           [265] gettable   10  10  261  ; "radius"
1192  62820001           [266] call       9   2   2  
1196  0C420282           [267] settable   8   260 9    ; "RADIUS"
119A  52020002           [268] move       9   4      
119E  93020003           [269] getupval   10  6      
11A2  8E424405           [270] gettable   10  10  273  ; "damage"
11A6  62820001           [271] call       9   2   2  
11AA  0C420288           [272] settable   8   272 9    ; "DAMAGE"
11AE  52020002           [273] move       9   4      
11B2  93020003           [274] getupval   10  6      
11B6  8E424305           [275] gettable   10  10  269  ; "energyDrain"
11BA  62820001           [276] call       9   2   2  
11BE  0C420283           [277] settable   8   262 9    ; "ENERGY"
11C2  D2000004           [278] move       3   8      
11C6  1A004880           [279] jmp        289          ; to [569]
11CA  13028003           [280] getupval   8   7      
11CE  0E424004           [281] gettable   8   8   257  ; "tag"
fail op	35
11D2  23008202           [282] close      0  
11D6  1A000380           [283] jmp        13           ; to [297]
11DA  0B820000           [284] newtable   8   0   2    ; array=0, hash=2
11DE  52020002           [285] move       9   4      
11E2  93028003           [286] getupval   10  7      
11E6  8E424105           [287] gettable   10  10  261  ; "radius"
11EA  62820001           [288] call       9   2   2  
11EE  0C420282           [289] settable   8   260 9    ; "RADIUS"
11F2  52020002           [290] move       9   4      
11F6  93028003           [291] getupval   10  7      
11FA  8E424305           [292] gettable   10  10  269  ; "energyDrain"
11FE  62820001           [293] call       9   2   2  
1202  0C420283           [294] settable   8   262 9    ; "ENERGY"
1206  D2000004           [295] move       3   8      
120A  1AC04380           [296] jmp        272          ; to [569]
120E  13020004           [297] getupval   8   8      
1212  0E424004           [298] gettable   8   8   257  ; "tag"
fail op	35
1216  23008202           [299] close      0  
121A  1A400480           [300] jmp        18           ; to [319]
121E  0BC20000           [301] newtable   8   0   3    ; array=0, hash=3
1222  52020002           [302] move       9   4      
1226  93020004           [303] getupval   10  8      
122A  8EC24005           [304] gettable   10  10  259  ; "duration"
122E  62820001           [305] call       9   2   2  
1232  0C420281           [306] settable   8   258 9    ; "DURATION"
1236  52020002           [307] move       9   4      
123A  93020004           [308] getupval   10  8      
123E  8E424A05           [309] gettable   10  10  297  ; "regen"
1242  62820001           [310] call       9   2   2  
1246  0C420294           [311] settable   8   296 9    ; "REGEN"
124A  52020002           [312] move       9   4      
124E  93020004           [313] getupval   10  8      
1252  8EC24A05           [314] gettable   10  10  299  ; "buffTime"
1256  62820001           [315] call       9   2   2  
125A  0C420295           [316] settable   8   298 9    ; "BUFFTIME"
125E  D2000004           [317] move       3   8      
1262  1A403E80           [318] jmp        250          ; to [569]
1266  13028004           [319] getupval   8   9      
126A  0E424004           [320] gettable   8   8   257  ; "tag"
fail op	35
126E  23008202           [321] close      0  
1272  1A400480           [322] jmp        18           ; to [341]
1276  0BC20000           [323] newtable   8   0   3    ; array=0, hash=3
127A  52020002           [324] move       9   4      
127E  93028004           [325] getupval   10  9      
1282  8E024B05           [326] gettable   10  10  300  ; "range"
1286  62820001           [327] call       9   2   2  
128A  0C420282           [328] settable   8   260 9    ; "RADIUS"
128E  52020002           [329] move       9   4      
1292  93028004           [330] getupval   10  9      
1296  8E424405           [331] gettable   10  10  273  ; "damage"
129A  62820001           [332] call       9   2   2  
129E  0C420288           [333] settable   8   272 9    ; "DAMAGE"
12A2  52020002           [334] move       9   4      
12A6  93028004           [335] getupval   10  9      
12AA  8EC24105           [336] gettable   10  10  263  ; "energyCost"
12AE  62820001           [337] call       9   2   2  
12B2  0C420283           [338] settable   8   262 9    ; "ENERGY"
12B6  D2000004           [339] move       3   8      
12BA  1AC03880           [340] jmp        228          ; to [569]
12BE  13020005           [341] getupval   8   10     
12C2  0E424004           [342] gettable   8   8   257  ; "tag"
fail op	35
12C6  23008202           [343] close      0  
12CA  1A800680           [344] jmp        27           ; to [372]
12CE  0B020100           [345] newtable   8   0   4    ; array=0, hash=4
12D2  5D420200           [346] getglobal  9   9        ; math
12D6  4E82C204           [347] gettable   9   9   266  ; -150971781
12DA  92020002           [348] move       10  4      
12DE  D3020005           [349] getupval   11  10     
12E2  CE82CB05           [350] gettable   11  11  302  ; "maxCrit"
12E6  A2820001           [351] call       10  2   2  
12EA  84024305           [352] mul        10  10  268  ; 0
12EE  62820001           [353] call       9   2   2  
12F2  0C428296           [354] settable   8   301 9    ; "CRIT"
12F6  52020002           [355] move       9   4      
12FA  93020005           [356] getupval   10  10     
12FE  8E024C05           [357] gettable   10  10  304  ; "buildTime"
1302  62820001           [358] call       9   2   2  
1306  0C428297           [359] settable   8   303 9    ; "BUILDUP"
130A  52020002           [360] move       9   4      
130E  93020005           [361] getupval   10  10     
1312  8E824C05           [362] gettable   10  10  306  ; "degradeTime"
1316  62820001           [363] call       9   2   2  
131A  0C428298           [364] settable   8   305 9    ; "DEGRADE"
131E  52020002           [365] move       9   4      
1322  93020005           [366] getupval   10  10     
1326  8E424305           [367] gettable   10  10  269  ; "energyDrain"
132A  62820001           [368] call       9   2   2  
132E  0C420283           [369] settable   8   262 9    ; "ENERGY"
1332  D2000004           [370] move       3   8      
1336  1A003180           [371] jmp        197          ; to [569]
133A  13028005           [372] getupval   8   11     
133E  0E424004           [373] gettable   8   8   257  ; "tag"
fail op	35
1342  23008202           [374] close      0  
1346  1A400480           [375] jmp        18           ; to [394]
134A  0BC20000           [376] newtable   8   0   3    ; array=0, hash=3
134E  52020002           [377] move       9   4      
1352  93028005           [378] getupval   10  11     
1356  8E024B05           [379] gettable   10  10  300  ; "range"
135A  62820001           [380] call       9   2   2  
135E  0C428299           [381] settable   8   307 9    ; "RANGE"
1362  52020002           [382] move       9   4      
1366  93028005           [383] getupval   10  11     
136A  8E424305           [384] gettable   10  10  269  ; "energyDrain"
136E  62820001           [385] call       9   2   2  
1372  0C420283           [386] settable   8   262 9    ; "ENERGY"
1376  52020002           [387] move       9   4      
137A  93028005           [388] getupval   10  11     
137E  8E024D05           [389] gettable   10  10  308  ; "fadeTime"
1382  62820001           [390] call       9   2   2  
1386  0C428298           [391] settable   8   305 9    ; "DEGRADE"
138A  D2000004           [392] move       3   8      
138E  1A802B80           [393] jmp        175          ; to [569]
1392  1D020000           [394] getglobal  8   0        ; -332969190
1396  59420D00           [395] loadk      9   53       ; "MoveSpeed"
139A  22820001           [396] call       8   2   2  
fail op	35
139E  63008202           [397] close      1  
13A2  1A000180           [398] jmp        5            ; to [404]
13A6  1D020000           [399] getglobal  8   0        ; -332969190
13AA  59820D00           [400] loadk      9   54       ; "DashSpeed"
13AE  22820001           [401] call       8   2   2  
fail op	35
13B2  23008202           [402] close      0  
13B6  1A400380           [403] jmp        14           ; to [418]
13BA  0B420000           [404] newtable   8   0   1    ; array=0, hash=1
13BE  5D420200           [405] getglobal  9   9        ; math
13C2  4E82C204           [406] gettable   9   9   266  ; -150971781
13C6  A4C24501           [407] self       10  2   279  ; 955459000
13CA  19030600           [408] loadk      12  24       ; 0
13CE  A2828001           [409] call       10  3   2  
13D2  A4424605           [410] self       10  10  281  ; -1378524997
13D6  A2820001           [411] call       10  2   2  
13DA  84420005           [412] mul        10  10  1  
13DE  84024305           [413] mul        10  10  268  ; 0
13E2  62820001           [414] call       9   2   2  
13E6  0C420284           [415] settable   8   264 9    ; "PERCENT"
13EA  D2000004           [416] move       3   8      
13EE  1A802580           [417] jmp        151          ; to [569]
13F2  13020006           [418] getupval   8   12     
13F6  0E424004           [419] gettable   8   8   257  ; "tag"
fail op	35
13FA  23008202           [420] close      0  
13FE  1A400580           [421] jmp        22           ; to [444]
1402  0BC20000           [422] newtable   8   0   3    ; array=0, hash=3
1406  5D420200           [423] getglobal  9   9        ; math
140A  4E82C204           [424] gettable   9   9   266  ; -150971781
140E  92020002           [425] move       10  4      
1412  D3020006           [426] getupval   11  12     
1416  CEC2CD05           [427] gettable   11  11  311  ; "dmgRed"
141A  A2820001           [428] call       10  2   2  
141E  84024305           [429] mul        10  10  268  ; 0
1422  62820001           [430] call       9   2   2  
1426  0C420284           [431] settable   8   264 9    ; "PERCENT"
142A  52020002           [432] move       9   4      
142E  93020006           [433] getupval   10  12     
1432  8E424105           [434] gettable   10  10  261  ; "radius"
1436  62820001           [435] call       9   2   2  
143A  0C420282           [436] settable   8   260 9    ; "RADIUS"
143E  52020002           [437] move       9   4      
1442  93020006           [438] getupval   10  12     
1446  8E424305           [439] gettable   10  10  269  ; "energyDrain"
144A  62820001           [440] call       9   2   2  
144E  0C420283           [441] settable   8   262 9    ; "ENERGY"
1452  D2000004           [442] move       3   8      
1456  1A001F80           [443] jmp        125          ; to [569]
145A  13028006           [444] getupval   8   13     
145E  0E424004           [445] gettable   8   8   257  ; "tag"
fail op	35
1462  23008202           [446] close      0  
1466  1A000380           [447] jmp        13           ; to [461]
146A  0B820000           [448] newtable   8   0   2    ; array=0, hash=2
146E  52020002           [449] move       9   4      
1472  93028006           [450] getupval   10  13     
1476  8E424105           [451] gettable   10  10  261  ; "radius"
147A  62820001           [452] call       9   2   2  
147E  0C420282           [453] settable   8   260 9    ; "RADIUS"
1482  52020002           [454] move       9   4      
1486  93028006           [455] getupval   10  13     
148A  8E424305           [456] gettable   10  10  269  ; "energyDrain"
148E  62820001           [457] call       9   2   2  
1492  0C420283           [458] settable   8   262 9    ; "ENERGY"
1496  D2000004           [459] move       3   8      
149A  1AC01A80           [460] jmp        108          ; to [569]
149E  13020007           [461] getupval   8   14     
14A2  0E424004           [462] gettable   8   8   257  ; "tag"
fail op	35
14A6  23008202           [463] close      0  
14AA  1AC00280           [464] jmp        12           ; to [477]
14AE  0B420000           [465] newtable   8   0   1    ; array=0, hash=1
14B2  5D420200           [466] getglobal  9   9        ; math
14B6  4E82C204           [467] gettable   9   9   266  ; -150971781
14BA  92020002           [468] move       10  4      
14BE  D3020007           [469] getupval   11  14     
14C2  CE02CE05           [470] gettable   11  11  312  ; "armourRed"
14C6  A2820001           [471] call       10  2   2  
14CA  84024305           [472] mul        10  10  268  ; 0
14CE  62820001           [473] call       9   2   2  
14D2  0C420284           [474] settable   8   264 9    ; "PERCENT"
14D6  D2000004           [475] move       3   8      
14DA  1AC01680           [476] jmp        92           ; to [569]
14DE  13028007           [477] getupval   8   15     
14E2  0E424004           [478] gettable   8   8   257  ; "tag"
fail op	35
14E6  23008202           [479] close      0  
14EA  1AC00280           [480] jmp        12           ; to [493]
14EE  0B420000           [481] newtable   8   0   1    ; array=0, hash=1
14F2  5D420200           [482] getglobal  9   9        ; math
14F6  4E82C204           [483] gettable   9   9   266  ; -150971781
14FA  92020002           [484] move       10  4      
14FE  D3028007           [485] getupval   11  15     
1502  CEC2CD05           [486] gettable   11  11  311  ; "dmgRed"
1506  A2820001           [487] call       10  2   2  
150A  84024305           [488] mul        10  10  268  ; 0
150E  62820001           [489] call       9   2   2  
1512  0C420284           [490] settable   8   264 9    ; "PERCENT"
1516  D2000004           [491] move       3   8      
151A  1AC01280           [492] jmp        76           ; to [569]
151E  1D020000           [493] getglobal  8   0        ; -332969190
1522  59420E00           [494] loadk      9   57       ; "ArmourIncrease"
1526  22820001           [495] call       8   2   2  
fail op	35
152A  23008202           [496] close      0  
152E  1A800380           [497] jmp        15           ; to [513]
1532  0B420000           [498] newtable   8   0   1    ; array=0, hash=1
1536  5D420200           [499] getglobal  9   9        ; math
153A  4E82CE04           [500] gettable   9   9   314  ; -1124579617
153E  A4C24501           [501] self       10  2   279  ; 955459000
1542  19030600           [502] loadk      12  24       ; 0
1546  A2828001           [503] call       10  3   2  
154A  A4424605           [504] self       10  10  281  ; -1378524997
154E  A2820001           [505] call       10  2   2  
1552  8D024505           [506] sub        10  10  276  ; 0
1556  84420005           [507] mul        10  10  1  
155A  84024305           [508] mul        10  10  268  ; 0
155E  62820001           [509] call       9   2   2  
1562  0C428293           [510] settable   8   295 9    ; "INCREASE"
1566  D2000004           [511] move       3   8      
156A  1AC00D80           [512] jmp        56           ; to [569]
156E  1D020000           [513] getglobal  8   0        ; -332969190
1572  59C20E00           [514] loadk      9   59       ; "BlastRadius"
1576  22820001           [515] call       8   2   2  
fail op	35
157A  23008202           [516] close      0  
157E  1A400380           [517] jmp        14           ; to [532]
1582  0B420000           [518] newtable   8   0   1    ; array=0, hash=1
1586  5D420200           [519] getglobal  9   9        ; math
158A  4E82C204           [520] gettable   9   9   266  ; -150971781
158E  A4C24501           [521] self       10  2   279  ; 955459000
1592  19030600           [522] loadk      12  24       ; 0
1596  A2828001           [523] call       10  3   2  
159A  A4424605           [524] self       10  10  281  ; -1378524997
159E  A2820001           [525] call       10  2   2  
15A2  84420005           [526] mul        10  10  1  
15A6  84024305           [527] mul        10  10  268  ; 0
15AA  62820001           [528] call       9   2   2  
15AE  0C420284           [529] settable   8   264 9    ; "PERCENT"
15B2  D2000004           [530] move       3   8      
15B6  1A000980           [531] jmp        37           ; to [569]
15BA  1D020000           [532] getglobal  8   0        ; -332969190
15BE  59020F00           [533] loadk      9   60       ; "EnergyRestore"
15C2  22820001           [534] call       8   2   2  
fail op	35
15C6  23008202           [535] close      0  
15CA  1A400380           [536] jmp        14           ; to [551]
15CE  0B420000           [537] newtable   8   0   1    ; array=0, hash=1
15D2  5D420200           [538] getglobal  9   9        ; math
15D6  4E82C204           [539] gettable   9   9   266  ; -150971781
15DA  A4C24501           [540] self       10  2   279  ; 955459000
15DE  19030600           [541] loadk      12  24       ; 0
15E2  A2828001           [542] call       10  3   2  
15E6  A4424605           [543] self       10  10  281  ; -1378524997
15EA  A2820001           [544] call       10  2   2  
15EE  84420005           [545] mul        10  10  1  
15F2  84024305           [546] mul        10  10  268  ; 0
15F6  62820001           [547] call       9   2   2  
15FA  0C420284           [548] settable   8   264 9    ; "PERCENT"
15FE  D2000004           [549] move       3   8      
1602  1A400480           [550] jmp        18           ; to [569]
1606  1D020000           [551] getglobal  8   0        ; -332969190
160A  59420F00           [552] loadk      9   61       ; "EnergyPool"
160E  22820001           [553] call       8   2   2  
fail op	35
1612  23008202           [554] close      0  
1616  1A000380           [555] jmp        13           ; to [569]
161A  0B420000           [556] newtable   8   0   1    ; array=0, hash=1
161E  5D420200           [557] getglobal  9   9        ; math
1622  4E82C204           [558] gettable   9   9   266  ; -150971781
1626  A4C24501           [559] self       10  2   279  ; 955459000
162A  19030600           [560] loadk      12  24       ; 0
162E  A2828001           [561] call       10  3   2  
1632  A4424605           [562] self       10  10  281  ; -1378524997
1636  A2820001           [563] call       10  2   2  
163A  84420005           [564] mul        10  10  1  
163E  84024305           [565] mul        10  10  268  ; 0
1642  62820001           [566] call       9   2   2  
1646  0C420284           [567] settable   8   264 9    ; "PERCENT"
164A  D2000004           [568] move       3   8      
164E  1D820F00           [569] getglobal  8   62       ; cjson
1652  0EC24F04           [570] gettable   8   8   319  ; -1916729509
1656  52028001           [571] move       9   3      
165A  07020001           [572] tailcall   8   2   0  
165E  1E020000           [573] return     8   0      
1662  1E008000           [574] return     0   1      
                         * constants:
1666  40                 sizek (64)
1667  01                 const type 3
1668  1A4B27EC           const [0]: (-332969190)
166C  04                 const type 4
166D  04                 string size (4)
166E  74616700           "tag\0"
                         const [1]: "tag"
1672  04                 const type 4
1673  09                 string size (9)
1674  4455524154494F4E+  "DURATION"
167C  00                 "\0"
                         const [2]: "DURATION"
167D  04                 const type 4
167E  09                 string size (9)
167F  6475726174696F6E+  "duration"
1687  00                 "\0"
                         const [3]: "duration"
1688  04                 const type 4
1689  07                 string size (7)
168A  52414449555300     "RADIUS\0"
                         const [4]: "RADIUS"
1691  04                 const type 4
1692  07                 string size (7)
1693  72616469757300     "radius\0"
                         const [5]: "radius"
169A  04                 const type 4
169B  07                 string size (7)
169C  454E4552475900     "ENERGY\0"
                         const [6]: "ENERGY"
16A3  04                 const type 4
16A4  0B                 string size (11)
16A5  656E65726779436F+  "energyCo"
16AD  737400             "st\0"
                         const [7]: "energyCost"
16B0  04                 const type 4
16B1  08                 string size (8)
16B2  50455243454E5400   "PERCENT\0"
                         const [8]: "PERCENT"
16BA  04                 const type 4
16BB  05                 string size (5)
16BC  6D61746800         "math\0"
                         const [9]: "math"
16C1  01                 const type 3
16C2  7B5A00F7           const [10]: (-150971781)
16C6  04                 const type 4
16C7  19                 string size (25)
16C8  70657263656E7449+  "percentI"
16D0  6E63726561736550+  "ncreaseP"
16D8  65725365636F6E64+  "erSecond"
16E0  00                 "\0"
                         const [11]: "percentIncreasePerSecond"
16E1  03                 const type 3
16E2  0000C842           const [12]: (0)
16E6  04                 const type 4
16E7  0C                 string size (12)
16E8  656E657267794472+  "energyDr"
16F0  61696E00           "ain\0"
                         const [13]: "energyDrain"
16F4  04                 const type 4
16F5  08                 string size (8)
16F6  41545441434B5300   "ATTACKS\0"
                         const [14]: "ATTACKS"
16FE  04                 const type 4
16FF  0B                 string size (11)
1700  6E756D4174746163+  "numAttac"
1708  6B7300             "ks\0"
                         const [15]: "numAttacks"
170B  04                 const type 4
170C  07                 string size (7)
170D  44414D41474500     "DAMAGE\0"
                         const [16]: "DAMAGE"
1714  04                 const type 4
1715  07                 string size (7)
1716  64616D61676500     "damage\0"
                         const [17]: "damage"
171D  04                 const type 4
171E  0D                 string size (13)
171F  4461736846696E69+  "DashFini"
1727  7368657200         "sher\0"
                         const [18]: "DashFinisher"
172C  01                 const type 3
172D  671C0AD6           const [19]: (-703980441)
1731  03                 const type 3
1732  0000803F           const [20]: (0)
1736  04                 const type 4
1737  08                 string size (8)
1738  6D56616C75657300   "mValues\0"
                         const [21]: "mValues"
1740  04                 const type 4
1741  0B                 string size (11)
1742  4461736844616D61+  "DashDama"
174A  676500             "ge\0"
                         const [22]: "DashDamage"
174D  01                 const type 3
174E  B825F338           const [23]: (955459000)
1752  03                 const type 3
1753  00000000           const [24]: (0)
1757  01                 const type 3
1758  BB60D5AD           const [25]: (-1378524997)
175C  04                 const type 4
175D  09                 string size (9)
175E  4461736857617665+  "DashWave"
1766  00                 "\0"
                         const [26]: "DashWave"
1767  04                 const type 4
1768  09                 string size (9)
1769  4D6F7265416D6D6F+  "MoreAmmo"
1771  00                 "\0"
                         const [27]: "MoreAmmo"
1772  04                 const type 4
1773  0A                 string size (10)
1774  526567656E416D6D+  "RegenAmm"
177C  6F00               "o\0"
                         const [28]: "RegenAmmo"
177E  04                 const type 4
177F  05                 string size (5)
1780  4845414C00         "HEAL\0"
                         const [29]: "HEAL"
1785  04                 const type 4
1786  09                 string size (9)
1787  6865616C52617465+  "healRate"
178F  00                 "\0"
                         const [30]: "healRate"
1790  04                 const type 4
1791  09                 string size (9)
1792  67726F7754696D65+  "growTime"
179A  00                 "\0"
                         const [31]: "growTime"
179B  03                 const type 3
179C  00000040           const [32]: (0)
17A0  04                 const type 4
17A1  09                 string size (9)
17A2  44495354414E4345+  "DISTANCE"
17AA  00                 "\0"
                         const [33]: "DISTANCE"
17AB  04                 const type 4
17AC  09                 string size (9)
17AD  64697374616E6365+  "distance"
17B5  00                 "\0"
                         const [34]: "distance"
17B6  04                 const type 4
17B7  0D                 string size (13)
17B8  44617368496D6D75+  "DashImmu"
17C0  6E69747900         "nity\0"
                         const [35]: "DashImmunity"
17C5  04                 const type 4
17C6  07                 string size (7)
17C7  494E56554C4E00     "INVULN\0"
                         const [36]: "INVULN"
17CE  03                 const type 3
17CF  00004040           const [37]: (0)
17D3  04                 const type 4
17D4  0C                 string size (12)
17D5  4865616C74685265+  "HealthRe"
17DD  67656E00           "gen\0"
                         const [38]: "HealthRegen"
17E1  04                 const type 4
17E2  09                 string size (9)
17E3  494E435245415345+  "INCREASE"
17EB  00                 "\0"
                         const [39]: "INCREASE"
17EC  04                 const type 4
17ED  06                 string size (6)
17EE  524547454E00       "REGEN\0"
                         const [40]: "REGEN"
17F4  04                 const type 4
17F5  06                 string size (6)
17F6  726567656E00       "regen\0"
                         const [41]: "regen"
17FC  04                 const type 4
17FD  09                 string size (9)
17FE  4255464654494D45+  "BUFFTIME"
1806  00                 "\0"
                         const [42]: "BUFFTIME"
1807  04                 const type 4
1808  09                 string size (9)
1809  6275666654696D65+  "buffTime"
1811  00                 "\0"
                         const [43]: "buffTime"
1812  04                 const type 4
1813  06                 string size (6)
1814  72616E676500       "range\0"
                         const [44]: "range"
181A  04                 const type 4
181B  05                 string size (5)
181C  4352495400         "CRIT\0"
                         const [45]: "CRIT"
1821  04                 const type 4
1822  08                 string size (8)
1823  6D61784372697400   "maxCrit\0"
                         const [46]: "maxCrit"
182B  04                 const type 4
182C  08                 string size (8)
182D  4255494C44555000   "BUILDUP\0"
                         const [47]: "BUILDUP"
1835  04                 const type 4
1836  0A                 string size (10)
1837  6275696C6454696D+  "buildTim"
183F  6500               "e\0"
                         const [48]: "buildTime"
1841  04                 const type 4
1842  08                 string size (8)
1843  4445475241444500   "DEGRADE\0"
                         const [49]: "DEGRADE"
184B  04                 const type 4
184C  0C                 string size (12)
184D  6465677261646554+  "degradeT"
1855  696D6500           "ime\0"
                         const [50]: "degradeTime"
1859  04                 const type 4
185A  06                 string size (6)
185B  52414E474500       "RANGE\0"
                         const [51]: "RANGE"
1861  04                 const type 4
1862  09                 string size (9)
1863  6661646554696D65+  "fadeTime"
186B  00                 "\0"
                         const [52]: "fadeTime"
186C  04                 const type 4
186D  0A                 string size (10)
186E  4D6F766553706565+  "MoveSpee"
1876  6400               "d\0"
                         const [53]: "MoveSpeed"
1878  04                 const type 4
1879  0A                 string size (10)
187A  4461736853706565+  "DashSpee"
1882  6400               "d\0"
                         const [54]: "DashSpeed"
1884  04                 const type 4
1885  07                 string size (7)
1886  646D6752656400     "dmgRed\0"
                         const [55]: "dmgRed"
188D  04                 const type 4
188E  0A                 string size (10)
188F  61726D6F75725265+  "armourRe"
1897  6400               "d\0"
                         const [56]: "armourRed"
1899  04                 const type 4
189A  0F                 string size (15)
189B  41726D6F7572496E+  "ArmourIn"
18A3  63726561736500     "crease\0"
                         const [57]: "ArmourIncrease"
18AA  01                 const type 3
18AB  DF46F8BC           const [58]: (-1124579617)
18AF  04                 const type 4
18B0  0C                 string size (12)
18B1  426C617374526164+  "BlastRad"
18B9  69757300           "ius\0"
                         const [59]: "BlastRadius"
18BD  04                 const type 4
18BE  0E                 string size (14)
18BF  456E657267795265+  "EnergyRe"
18C7  73746F726500       "store\0"
                         const [60]: "EnergyRestore"
18CD  04                 const type 4
18CE  0B                 string size (11)
18CF  456E65726779506F+  "EnergyPo"
18D7  6F6C00             "ol\0"
                         const [61]: "EnergyPool"
18DA  04                 const type 4
18DB  06                 string size (6)
18DC  636A736F6E00       "cjson\0"
                         const [62]: "cjson"
18E2  01                 const type 3
18E3  5B07C18D           const [63]: (-1916729509)
                         * functions:
18E7  01                 sizep (1)
                         
18E8                     ** function [0] definition (level 3)
                         ** start of function **
18E8  00                 string size (0)
                         source name: (none)
18EA  01                 line defined (207)
18EB  D1                 last line defined (209)
18EC  01                 nups (1)
18ED  01                 numparams (1)
18EE  01                 is_vararg (0)
18EF  00                 maxstacksize (4)
                         * code:
18F1  08                 sizecode (8)
18F2  5D000000           [1] getglobal  1   0        ; math
18F6  4E40C000           [2] gettable   1   1   257  ; 1710846250
18FA  93000000           [3] getupval   2   0      
18FE  CA000000           [4] len        3   0      
1902  62808001           [5] call       1   3   2  
1906  4E400000           [6] gettable   1   0   1  
190A  5E000001           [7] return     1   2      
190E  1E008000           [8] return     0   1      
                         * constants:
1912  02                 sizek (2)
1913  04                 const type 4
1914  05                 string size (5)
1915  6D61746800         "math\0"
                         const [0]: "math"
191A  01                 const type 3
191B  2A71F965           const [1]: (1710846250)
                         * functions:
191F  00                 sizep (0)
                         * lines:
1920  08                 sizelineinfo (8)
                         [pc] (line)
1921  D0                 [1] (-48)
1922  00                 [2] (-48)
1923  00                 [3] (-48)
1924  00                 [4] (-48)
1925  D0                 [5] (-48)
1926  00                 [6] (-48)
1927  00                 [7] (-48)
1928  00                 [8] (-47)
                         * locals:
1941  00                 sizelocvars (0)
                         * upvalues:
1942  00                 sizeupvalues (0)
                         ** end of function **

                         * lines:
1944  04                 sizelineinfo (574)
                         [pc] (line)
1945  CD                 [001] (-51)
1946  00                 [002] (-47)
1947  00                 [003] (-47)
1948  00                 [004] (-45)
1949  D1                 [005] (-45)
194A  00                 [006] (-45)
194B  00                 [007] (-44)
194C  00                 [008] (-44)
194D  D1                 [009] (-44)
194E  00                 [010] (-44)
194F  00                 [011] (-43)
1950  00                 [012] (-42)
1951  D3                 [013] (-42)
1952  00                 [014] (-42)
1953  00                 [015] (-42)
1954  00                 [016] (-42)
1955  D3                 [017] (-41)
1956  00                 [018] (-41)
1957  00                 [019] (-41)
1958  00                 [020] (-41)
1959  D3                 [021] (-41)
195A  00                 [022] (-40)
195B  00                 [023] (-40)
195C  00                 [024] (-40)
195D  D4                 [025] (-40)
195E  00                 [026] (-40)
195F  00                 [027] (-39)
1960  00                 [028] (-39)
1961  D4                 [029] (-38)
1962  00                 [030] (-38)
1963  00                 [031] (-38)
1964  00                 [032] (-38)
1965  D4                 [033] (-37)
1966  00                 [034] (-36)
1967  00                 [035] (-36)
1968  00                 [036] (-36)
1969  D4                 [037] (-36)
196A  00                 [038] (-36)
196B  00                 [039] (-36)
196C  00                 [040] (-36)
196D  D5                 [041] (-36)
196E  00                 [042] (-36)
196F  00                 [043] (-35)
1970  00                 [044] (-35)
1971  D6                 [045] (-35)
1972  00                 [046] (-35)
1973  00                 [047] (-35)
1974  00                 [048] (-34)
1975  D6                 [049] (-34)
1976  00                 [050] (-34)
1977  00                 [051] (-34)
1978  00                 [052] (-34)
1979  D6                 [053] (-33)
197A  00                 [054] (-33)
197B  00                 [055] (-32)
197C  00                 [056] (-32)
197D  D6                 [057] (-32)
197E  00                 [058] (-32)
197F  00                 [059] (-31)
1980  00                 [060] (-30)
1981  D6                 [061] (-30)
1982  00                 [062] (-30)
1983  00                 [063] (-30)
1984  00                 [064] (-30)
1985  D7                 [065] (-29)
1986  00                 [066] (-29)
1987  00                 [067] (-29)
1988  00                 [068] (-29)
1989  D7                 [069] (-29)
198A  00                 [070] (-28)
198B  00                 [071] (-28)
198C  00                 [072] (-27)
198D  D7                 [073] (-27)
198E  00                 [074] (-27)
198F  00                 [075] (-27)
1990  00                 [076] (-27)
1991  D7                 [077] (-26)
1992  00                 [078] (-26)
1993  00                 [079] (-25)
1994  00                 [080] (-24)
1995  D7                 [081] (-24)
1996  00                 [082] (-24)
1997  00                 [083] (-24)
1998  00                 [084] (-24)
1999  D8                 [085] (-24)
199A  00                 [086] (-24)
199B  00                 [087] (-24)
199C  00                 [088] (-24)
199D  D8                 [089] (-23)
199E  00                 [090] (-23)
199F  00                 [091] (-22)
19A0  00                 [092] (-22)
19A1  D8                 [093] (-22)
19A2  00                 [094] (-22)
19A3  00                 [095] (-22)
19A4  00                 [096] (-21)
19A5  D8                 [097] (-20)
19A6  00                 [098] (-20)
19A7  00                 [099] (-20)
19A8  00                 [100] (-20)
19A9  D8                 [101] (-20)
19AA  00                 [102] (-20)
19AB  00                 [103] (-20)
19AC  00                 [104] (-19)
19AD  D9                 [105] (-19)
19AE  00                 [106] (-18)
19AF  00                 [107] (-18)
19B0  00                 [108] (-18)
19B1  D9                 [109] (-18)
19B2  00                 [110] (-18)
19B3  00                 [111] (-17)
19B4  00                 [112] (-16)
19B5  DA                 [113] (-16)
19B6  00                 [114] (-16)
19B7  00                 [115] (-16)
19B8  00                 [116] (-16)
19B9  DA                 [117] (-16)
19BA  00                 [118] (-16)
19BB  00                 [119] (-16)
19BC  00                 [120] (-16)
19BD  DA                 [121] (-16)
19BE  00                 [122] (-16)
19BF  00                 [123] (-15)
19C0  00                 [124] (-15)
19C1  DA                 [125] (-15)
19C2  00                 [126] (-15)
19C3  00                 [127] (-15)
19C4  00                 [128] (-15)
19C5  DB                 [129] (-15)
19C6  00                 [130] (-15)
19C7  00                 [131] (-15)
19C8  00                 [132] (-15)
19C9  DC                 [133] (-14)
19CA  00                 [134] (-14)
19CB  00                 [135] (-13)
19CC  00                 [136] (-13)
19CD  DC                 [137] (-13)
19CE  00                 [138] (-13)
19CF  00                 [139] (-13)
19D0  00                 [140] (-13)
19D1  DC                 [141] (-13)
19D2  00                 [142] (-13)
19D3  00                 [143] (-13)
19D4  00                 [144] (-13)
19D5  DC                 [145] (-12)
19D6  00                 [146] (-11)
19D7  00                 [147] (-11)
19D8  00                 [148] (-11)
19D9  DC                 [149] (-11)
19DA  00                 [150] (-11)
19DB  00                 [151] (-11)
19DC  00                 [152] (-11)
19DD  DC                 [153] (-11)
19DE  00                 [154] (-11)
19DF  00                 [155] (-11)
19E0  00                 [156] (-11)
19E1  DC                 [157] (-10)
19E2  00                 [158] (-10)
19E3  00                 [159] (-9)
19E4  00                 [160] (-9)
19E5  DC                 [161] (-9)
19E6  00                 [162] (-9)
19E7  00                 [163] (-8)
19E8  00                 [164] (-7)
19E9  DC                 [165] (-7)
19EA  00                 [166] (-7)
19EB  00                 [167] (-7)
19EC  00                 [168] (-7)
19ED  DD                 [169] (-6)
19EE  00                 [170] (-6)
19EF  00                 [171] (-6)
19F0  00                 [172] (-6)
19F1  DD                 [173] (-6)
19F2  00                 [174] (-5)
19F3  00                 [175] (-5)
19F4  00                 [176] (-4)
19F5  DD                 [177] (-4)
19F6  00                 [178] (-4)
19F7  00                 [179] (-4)
19F8  00                 [180] (-3)
19F9  DD                 [181] (-2)
19FA  00                 [182] (-2)
19FB  00                 [183] (-2)
19FC  00                 [184] (-2)
19FD  DD                 [185] (-2)
19FE  00                 [186] (-1)
19FF  00                 [187] (-1)
1A00  00                 [188] (-1)
1A01  DE                 [189] (0)
1A02  00                 [190] (0)
1A03  00                 [191] (0)
1A04  00                 [192] (0)
1A05  DE                 [193] (0)
1A06  00                 [194] (1)
1A07  00                 [195] (1)
1A08  00                 [196] (2)
1A09  DE                 [197] (2)
1A0A  00                 [198] (2)
1A0B  00                 [199] (2)
1A0C  00                 [200] (3)
1A0D  DE                 [201] (4)
1A0E  00                 [202] (4)
1A0F  00                 [203] (4)
1A10  00                 [204] (4)
1A11  DE                 [205] (4)
1A12  00                 [206] (4)
1A13  00                 [207] (5)
1A14  00                 [208] (5)
1A15  DF                 [209] (5)
1A16  00                 [210] (5)
1A17  00                 [211] (5)
1A18  00                 [212] (6)
1A19  DF                 [213] (6)
1A1A  00                 [214] (7)
1A1B  00                 [215] (7)
1A1C  00                 [216] (7)
1A1D  E0                 [217] (7)
1A1E  00                 [218] (7)
1A1F  00                 [219] (8)
1A20  00                 [220] (8)
1A21  E0                 [221] (9)
1A22  00                 [222] (10)
1A23  00                 [223] (10)
1A24  00                 [224] (10)
1A25  E0                 [225] (10)
1A26  00                 [226] (10)
1A27  00                 [227] (11)
1A28  00                 [228] (11)
1A29  E0                 [229] (11)
1A2A  00                 [230] (11)
1A2B  00                 [231] (11)
1A2C  00                 [232] (11)
1A2D  E1                 [233] (11)
1A2E  00                 [234] (11)
1A2F  00                 [235] (11)
1A30  00                 [236] (12)
1A31  E2                 [237] (12)
1A32  00                 [238] (12)
1A33  00                 [239] (12)
1A34  00                 [240] (12)
1A35  E2                 [241] (13)
1A36  00                 [242] (13)
1A37  00                 [243] (14)
1A38  00                 [244] (14)
1A39  E2                 [245] (14)
1A3A  00                 [246] (14)
1A3B  00                 [247] (14)
1A3C  00                 [248] (15)
1A3D  E2                 [249] (16)
1A3E  00                 [250] (16)
1A3F  00                 [251] (16)
1A40  00                 [252] (16)
1A41  E2                 [253] (16)
1A42  00                 [254] (16)
1A43  00                 [255] (16)
1A44  00                 [256] (17)
1A45  E3                 [257] (17)
1A46  00                 [258] (18)
1A47  00                 [259] (18)
1A48  00                 [260] (18)
1A49  E3                 [261] (18)
1A4A  00                 [262] (19)
1A4B  00                 [263] (20)
1A4C  00                 [264] (20)
1A4D  E3                 [265] (20)
1A4E  00                 [266] (20)
1A4F  00                 [267] (20)
1A50  00                 [268] (21)
1A51  E3                 [269] (21)
1A52  00                 [270] (21)
1A53  00                 [271] (21)
1A54  00                 [272] (21)
1A55  E3                 [273] (22)
1A56  00                 [274] (22)
1A57  00                 [275] (22)
1A58  00                 [276] (22)
1A59  E4                 [277] (22)
1A5A  00                 [278] (23)
1A5B  00                 [279] (23)
1A5C  00                 [280] (24)
1A5D  E4                 [281] (24)
1A5E  00                 [282] (24)
1A5F  00                 [283] (24)
1A60  00                 [284] (25)
1A61  E5                 [285] (26)
1A62  00                 [286] (26)
1A63  00                 [287] (26)
1A64  00                 [288] (26)
1A65  E5                 [289] (26)
1A66  00                 [290] (27)
1A67  00                 [291] (27)
1A68  00                 [292] (27)
1A69  E5                 [293] (27)
1A6A  00                 [294] (27)
1A6B  00                 [295] (28)
1A6C  00                 [296] (28)
1A6D  E5                 [297] (29)
1A6E  00                 [298] (29)
1A6F  00                 [299] (29)
1A70  00                 [300] (29)
1A71  E5                 [301] (30)
1A72  00                 [302] (31)
1A73  00                 [303] (31)
1A74  00                 [304] (31)
1A75  E6                 [305] (31)
1A76  00                 [306] (31)
1A77  00                 [307] (32)
1A78  00                 [308] (32)
1A79  E6                 [309] (32)
1A7A  00                 [310] (32)
1A7B  00                 [311] (32)
1A7C  00                 [312] (33)
1A7D  E7                 [313] (33)
1A7E  00                 [314] (33)
1A7F  00                 [315] (33)
1A80  00                 [316] (33)
1A81  E8                 [317] (34)
1A82  00                 [318] (34)
1A83  00                 [319] (35)
1A84  00                 [320] (35)
1A85  E8                 [321] (35)
1A86  00                 [322] (35)
1A87  00                 [323] (36)
1A88  00                 [324] (37)
1A89  E8                 [325] (37)
1A8A  00                 [326] (37)
1A8B  00                 [327] (37)
1A8C  00                 [328] (37)
1A8D  E8                 [329] (38)
1A8E  00                 [330] (38)
1A8F  00                 [331] (38)
1A90  00                 [332] (38)
1A91  E8                 [333] (38)
1A92  00                 [334] (39)
1A93  00                 [335] (39)
1A94  00                 [336] (39)
1A95  E8                 [337] (39)
1A96  00                 [338] (39)
1A97  00                 [339] (40)
1A98  00                 [340] (40)
1A99  E8                 [341] (41)
1A9A  00                 [342] (41)
1A9B  00                 [343] (41)
1A9C  00                 [344] (41)
1A9D  E8                 [345] (42)
1A9E  00                 [346] (43)
1A9F  00                 [347] (43)
1AA0  00                 [348] (43)
1AA1  E8                 [349] (43)
1AA2  00                 [350] (43)
1AA3  00                 [351] (43)
1AA4  00                 [352] (43)
1AA5  E9                 [353] (43)
1AA6  00                 [354] (43)
1AA7  00                 [355] (44)
1AA8  00                 [356] (44)
1AA9  E9                 [357] (44)
1AAA  00                 [358] (44)
1AAB  00                 [359] (44)
1AAC  00                 [360] (45)
1AAD  EA                 [361] (45)
1AAE  00                 [362] (45)
1AAF  00                 [363] (45)
1AB0  00                 [364] (45)
1AB1  EA                 [365] (46)
1AB2  00                 [366] (46)
1AB3  00                 [367] (46)
1AB4  00                 [368] (46)
1AB5  EA                 [369] (46)
1AB6  00                 [370] (47)
1AB7  00                 [371] (47)
1AB8  00                 [372] (48)
1AB9  EA                 [373] (48)
1ABA  00                 [374] (48)
1ABB  00                 [375] (48)
1ABC  00                 [376] (49)
1ABD  EA                 [377] (50)
1ABE  00                 [378] (50)
1ABF  00                 [379] (50)
1AC0  00                 [380] (50)
1AC1  EB                 [381] (50)
1AC2  00                 [382] (51)
1AC3  00                 [383] (51)
1AC4  00                 [384] (51)
1AC5  EC                 [385] (51)
1AC6  00                 [386] (51)
1AC7  00                 [387] (52)
1AC8  00                 [388] (52)
1AC9  EC                 [389] (52)
1ACA  00                 [390] (52)
1ACB  00                 [391] (52)
1ACC  00                 [392] (53)
1ACD  EC                 [393] (53)
1ACE  00                 [394] (54)
1ACF  00                 [395] (54)
1AD0  00                 [396] (54)
1AD1  EC                 [397] (54)
1AD2  00                 [398] (54)
1AD3  00                 [399] (54)
1AD4  00                 [400] (54)
1AD5  EC                 [401] (54)
1AD6  00                 [402] (54)
1AD7  00                 [403] (54)
1AD8  00                 [404] (55)
1AD9  EC                 [405] (56)
1ADA  00                 [406] (56)
1ADB  00                 [407] (56)
1ADC  00                 [408] (56)
1ADD  EC                 [409] (56)
1ADE  00                 [410] (56)
1ADF  00                 [411] (56)
1AE0  00                 [412] (56)
1AE1  ED                 [413] (56)
1AE2  00                 [414] (56)
1AE3  00                 [415] (56)
1AE4  00                 [416] (57)
1AE5  ED                 [417] (57)
1AE6  00                 [418] (58)
1AE7  00                 [419] (58)
1AE8  00                 [420] (58)
1AE9  EE                 [421] (58)
1AEA  00                 [422] (59)
1AEB  00                 [423] (60)
1AEC  00                 [424] (60)
1AED  EE                 [425] (60)
1AEE  00                 [426] (60)
1AEF  00                 [427] (60)
1AF0  00                 [428] (60)
1AF1  EE                 [429] (60)
1AF2  00                 [430] (60)
1AF3  00                 [431] (60)
1AF4  00                 [432] (61)
1AF5  EE                 [433] (61)
1AF6  00                 [434] (61)
1AF7  00                 [435] (61)
1AF8  00                 [436] (61)
1AF9  EE                 [437] (62)
1AFA  00                 [438] (62)
1AFB  00                 [439] (62)
1AFC  00                 [440] (62)
1AFD  EF                 [441] (62)
1AFE  00                 [442] (63)
1AFF  00                 [443] (63)
1B00  00                 [444] (64)
1B01  F0                 [445] (64)
1B02  00                 [446] (64)
1B03  00                 [447] (64)
1B04  00                 [448] (65)
1B05  F0                 [449] (66)
1B06  00                 [450] (66)
1B07  00                 [451] (66)
1B08  00                 [452] (66)
1B09  F0                 [453] (66)
1B0A  00                 [454] (67)
1B0B  00                 [455] (67)
1B0C  00                 [456] (67)
1B0D  F0                 [457] (67)
1B0E  00                 [458] (67)
1B0F  00                 [459] (68)
1B10  00                 [460] (68)
1B11  F0                 [461] (69)
1B12  00                 [462] (69)
1B13  00                 [463] (69)
1B14  00                 [464] (69)
1B15  F0                 [465] (70)
1B16  00                 [466] (71)
1B17  00                 [467] (71)
1B18  00                 [468] (71)
1B19  F0                 [469] (71)
1B1A  00                 [470] (71)
1B1B  00                 [471] (71)
1B1C  00                 [472] (71)
1B1D  F0                 [473] (71)
1B1E  00                 [474] (71)
1B1F  00                 [475] (72)
1B20  00                 [476] (72)
1B21  F0                 [477] (73)
1B22  00                 [478] (73)
1B23  00                 [479] (73)
1B24  00                 [480] (73)
1B25  F0                 [481] (74)
1B26  00                 [482] (75)
1B27  00                 [483] (75)
1B28  00                 [484] (75)
1B29  F0                 [485] (75)
1B2A  00                 [486] (75)
1B2B  00                 [487] (75)
1B2C  00                 [488] (75)
1B2D  F1                 [489] (75)
1B2E  00                 [490] (75)
1B2F  00                 [491] (76)
1B30  00                 [492] (76)
1B31  F1                 [493] (77)
1B32  00                 [494] (77)
1B33  00                 [495] (77)
1B34  00                 [496] (77)
1B35  F1                 [497] (77)
1B36  00                 [498] (78)
1B37  00                 [499] (79)
1B38  00                 [500] (79)
1B39  F1                 [501] (79)
1B3A  00                 [502] (79)
1B3B  00                 [503] (79)
1B3C  00                 [504] (79)
1B3D  F1                 [505] (79)
1B3E  00                 [506] (79)
1B3F  00                 [507] (79)
1B40  00                 [508] (79)
1B41  F1                 [509] (79)
1B42  00                 [510] (79)
1B43  00                 [511] (80)
1B44  00                 [512] (80)
1B45  F1                 [513] (81)
1B46  00                 [514] (81)
1B47  00                 [515] (81)
1B48  00                 [516] (81)
1B49  F1                 [517] (81)
1B4A  00                 [518] (82)
1B4B  00                 [519] (83)
1B4C  00                 [520] (83)
1B4D  F1                 [521] (83)
1B4E  00                 [522] (83)
1B4F  00                 [523] (83)
1B50  00                 [524] (83)
1B51  F1                 [525] (83)
1B52  00                 [526] (83)
1B53  00                 [527] (83)
1B54  00                 [528] (83)
1B55  F2                 [529] (83)
1B56  00                 [530] (84)
1B57  00                 [531] (84)
1B58  00                 [532] (85)
1B59  F2                 [533] (85)
1B5A  00                 [534] (85)
1B5B  00                 [535] (85)
1B5C  00                 [536] (85)
1B5D  F3                 [537] (86)
1B5E  00                 [538] (87)
1B5F  00                 [539] (87)
1B60  00                 [540] (87)
1B61  F3                 [541] (87)
1B62  00                 [542] (87)
1B63  00                 [543] (87)
1B64  00                 [544] (87)
1B65  F3                 [545] (87)
1B66  00                 [546] (87)
1B67  00                 [547] (87)
1B68  00                 [548] (87)
1B69  F3                 [549] (88)
1B6A  00                 [550] (88)
1B6B  00                 [551] (89)
1B6C  00                 [552] (89)
1B6D  F3                 [553] (89)
1B6E  00                 [554] (89)
1B6F  00                 [555] (89)
1B70  00                 [556] (90)
1B71  F3                 [557] (91)
1B72  00                 [558] (91)
1B73  00                 [559] (91)
1B74  00                 [560] (91)
1B75  F3                 [561] (91)
1B76  00                 [562] (91)
1B77  00                 [563] (91)
1B78  00                 [564] (91)
1B79  F3                 [565] (91)
1B7A  00                 [566] (91)
1B7B  00                 [567] (91)
1B7C  00                 [568] (92)
1B7D  F3                 [569] (95)
1B7E  00                 [570] (95)
1B7F  00                 [571] (95)
1B80  00                 [572] (95)
1B81  F3                 [573] (95)
1B82  00                 [574] (96)
                         * locals:
223D  00                 sizelocvars (0)
                         * upvalues:
223E  00                 sizeupvalues (0)
                         ** end of function **

                         
223F                     ** function [1] definition (level 2)
                         ** start of function **
223F  00                 string size (0)
                         source name: (none)
2241  02                 line defined (354)
2242  E6                 last line defined (358)
2243  02                 nups (0)
2244  00                 numparams (2)
2245  02                 is_vararg (0)
2246  00                 maxstacksize (9)
                         * code:
2248  0A                 sizecode (10)
2249  9D000000           [01] getglobal  2   0        ; 1672515847
224D  D2008000           [02] move       3   1      
2251  A2000101           [03] call       2   2   4  
2255  1A800080           [04] jmp        3            ; to [8]
2259  E4414003           [05] self       7   6   257  ; -605089866
225D  E2810001           [06] call       7   2   2  
2261  0C808103           [07] settable   0   7   6  
2265  96800000           [08] tforloop   2       2    ; to [10] if exit
2269  1A80FE7F           [09] jmp        -5           ; to [5]
226D  1E008000           [10] return     0   1      
                         * constants:
2271  02                 sizek (2)
2272  01                 const type 3
2273  0791B063           const [0]: (1672515847)
2277  01                 const type 3
2278  B60FEFDB           const [1]: (-605089866)
                         * functions:
227C  00                 sizep (0)
                         * lines:
227D  0A                 sizelineinfo (10)
                         [pc] (line)
227E  63                 [01] (99)
227F  01                 [02] (99)
2280  00                 [03] (99)
2281  00                 [04] (99)
2282  63                 [05] (100)
2283  01                 [06] (100)
2284  00                 [07] (100)
2285  00                 [08] (99)
2286  63                 [09] (100)
2287  01                 [10] (102)
                         * locals:
22A6  00                 sizelocvars (0)
                         * upvalues:
22A7  00                 sizeupvalues (0)
                         ** end of function **

                         
22A8                     ** function [2] definition (level 2)
                         ** start of function **
22A8  00                 string size (0)
                         source name: (none)
22AA  02                 line defined (360)
22AB  8F                 last line defined (399)
22AC  03                 nups (0)
22AD  00                 numparams (1)
22AE  01                 is_vararg (0)
22AF  00                 maxstacksize (9)
                         * code:
22B1  21                 sizecode (33)
22B2  5D000000           [01] getglobal  1   0        ; gRegion
22B6  6440C000           [02] self       1   1   257  ; -1110225722
22BA  DD800000           [03] getglobal  3   2        ; dashFireHelperType
22BE  24C14000           [04] self       4   0   259  ; 1839670529
22C2  22810001           [05] call       4   2   2  
22C6  5D010100           [06] getglobal  5   4        ; ZERO_ROTATION
22CA  92010000           [07] move       6   0      
22CE  62800003           [08] call       1   6   2  
22D2  A4C04000           [09] self       2   0   259  ; 1839670529
22D6  A2800001           [10] call       2   2   2  
22DA  E4C04000           [11] self       3   0   259  ; 1839670529
22DE  E2800001           [12] call       3   2   2  
22E2  1D410100           [13] getglobal  4   5        ; 2083004503
22E6  5D810100           [14] getglobal  5   6        ; dashFireTriggerType
22EA  22810001           [15] call       4   2   2  
22EE  64C14102           [16] self       5   4   263  ; 301945578
22F2  62810001           [17] call       5   2   2  
22F6  4E01C202           [18] gettable   5   5   264  ; "y"
22FA  5C41C202           [19] div        5   5   265  ; 0
22FE  A4C14102           [20] self       6   4   263  ; 301945578
2302  A2810001           [21] call       6   2   2  
2306  8E814203           [22] gettable   6   6   266  ; "z"
230A  CB410000           [23] newtable   7   0   1    ; array=0, hash=1
230E  25020000           [24] closure    8   0      
2312  12000000           [25] move       0   0      
2316  12008001           [26] move       0   3      
231A  12008002           [27] move       0   5      
231E  12000001           [28] move       0   2      
2322  12000003           [29] move       0   6      
2326  12008000           [30] move       0   1      
232A  CC018285           [31] settable   7   267 8    ; "Update"
232E  DE010001           [32] return     7   2      
2332  1E008000           [33] return     0   1      
                         * constants:
2336  0C                 sizek (12)
2337  04                 const type 4
2338  08                 string size (8)
2339  67526567696F6E00   "gRegion\0"
                         const [0]: "gRegion"
2341  01                 const type 3
2342  C64CD3BD           const [1]: (-1110225722)
2346  04                 const type 4
2347  13                 string size (19)
2348  6461736846697265+  "dashFire"
2350  48656C7065725479+  "HelperTy"
2358  706500             "pe\0"
                         const [2]: "dashFireHelperType"
235B  01                 const type 3
235C  0125A76D           const [3]: (1839670529)
2360  04                 const type 4
2361  0E                 string size (14)
2362  5A45524F5F524F54+  "ZERO_ROT"
236A  4154494F4E00       "ATION\0"
                         const [4]: "ZERO_ROTATION"
2370  01                 const type 3
2371  5720287C           const [5]: (2083004503)
2375  04                 const type 4
2376  14                 string size (20)
2377  6461736846697265+  "dashFire"
237F  5472696767657254+  "TriggerT"
2387  79706500           "ype\0"
                         const [6]: "dashFireTriggerType"
238B  01                 const type 3
238C  EA52FF11           const [7]: (301945578)
2390  04                 const type 4
2391  02                 string size (2)
2392  7900               "y\0"
                         const [8]: "y"
2394  03                 const type 3
2395  00000040           const [9]: (0)
2399  04                 const type 4
239A  02                 string size (2)
239B  7A00               "z\0"
                         const [10]: "z"
239D  04                 const type 4
239E  07                 string size (7)
239F  55706461746500     "Update\0"
                         const [11]: "Update"
                         * functions:
23A6  01                 sizep (1)
                         
23A7                     ** function [0] definition (level 3)
                         ** start of function **
23A7  00                 string size (0)
                         source name: (none)
23A9  02                 line defined (372)
23AA  8D                 last line defined (397)
23AB  03                 nups (6)
23AC  06                 numparams (0)
23AD  00                 is_vararg (0)
23AE  00                 maxstacksize (11)
                         * code:
23B0  4E                 sizecode (78)
23B1  13000000           [01] getupval   0   0      
23B5  24004000           [02] self       0   0   256  ; -609644093
23B9  22800001           [03] call       0   2   2  
23BD  18000000           [04] test       0       0    ; to [6] if true
23C1  1A400280           [05] jmp        10           ; to [16]
23C5  13000000           [06] getupval   0   0      
23C9  24404000           [07] self       0   0   257  ; 1839670529
23CD  22800001           [08] call       0   2   2  
23D1  5D800000           [09] getglobal  1   2        ; 572299008
23D5  99C00000           [10] loadk      2   3        ; 0
23D9  D3000001           [11] getupval   3   2      
23DD  19C10000           [12] loadk      4   3        ; 0
23E1  62800002           [13] call       1   4   2  
23E5  03400000           [14] add        0   0   1  
fail op	8
23E9  08008000           [15] setupval   0   1      
23ED  1D000100           [16] getglobal  0   4        ; 562846818
23F1  53008000           [17] getupval   1   1      
23F5  93008001           [18] getupval   2   3      
23F9  4D808000           [19] sub        1   1   2  
23FD  22800001           [20] call       0   2   2  
2401  53000002           [21] getupval   1   4      
fail op	21
2405  15400000           [22] concat     0   0   1  
2409  1A000080           [23] jmp        1            ; to [25]
240D  1A000D80           [24] jmp        53           ; to [78]
2411  53000000           [25] getupval   1   0      
2415  6440C100           [26] self       1   1   261  ; -231049143
2419  62800001           [27] call       1   2   2  
241D  93000002           [28] getupval   2   4      
2421  84804101           [29] mul        2   2   262  ; 0
fail op	21
2425  15800000           [30] concat     0   0   2  
2429  1A000180           [31] jmp        5            ; to [37]
242D  9DC00100           [32] getglobal  2   7        ; -304944129
2431  D3008001           [33] getupval   3   3      
2435  13018000           [34] getupval   4   1      
2439  A2808001           [35] call       2   3   2  
243D  52000001           [36] move       1   2      
2441  93008001           [37] getupval   2   3      
2445  D3008000           [38] getupval   3   1      
2449  13018001           [39] getupval   4   3      
244D  CD008101           [40] sub        3   3   4  
2451  13010002           [41] getupval   4   4      
2455  C4008101           [42] mul        3   3   4  
2459  DC008001           [43] div        3   3   0  
245D  83C00001           [44] add        2   2   3  
fail op	8
2461  88008001           [45] setupval   2   3      
2465  9D000200           [46] getglobal  2   8        ; gRegion
2469  A4404201           [47] self       2   2   265  ; -1110225722
246D  1D810200           [48] getglobal  4   10       ; dashFireTriggerType
2471  53018001           [49] getupval   5   3      
2475  92018000           [50] move       6   1      
2479  D3010000           [51] getupval   7   0      
247D  A2800003           [52] call       2   6   2  
2481  DDC00200           [53] getglobal  3   11       ; 1074689893
2485  12010001           [54] move       4   2      
2489  E2800001           [55] call       3   2   2  
248D  D8400000           [56] test       3       1    ; to [58] if false
2491  1A40F57F           [57] jmp        -42          ; to [16]
2495  E4004301           [58] self       3   2   268  ; -1005242665
2499  53018002           [59] getupval   5   5      
249D  9D410300           [60] getglobal  6   13       ; -332969190
24A1  A2018000           [61] call       6   1   0  
24A5  E2400000           [62] call       3   0   1  
24A9  E4804301           [63] self       3   2   270  ; -484330307
24AD  53010000           [64] getupval   5   0      
24B1  E2408001           [65] call       3   3   1  
24B5  E4C04301           [66] self       3   2   271  ; -1421644046
24B9  5D010400           [67] getglobal  5   16       ; dashFireEffect
24BD  9D410400           [68] getglobal  6   17       ; EMPTY_SYMBOL
24C1  DD810400           [69] getglobal  7   18       ; ZERO_VECTOR
24C5  1DC20400           [70] getglobal  8   19       ; ZERO_ROTATION
24C9  53020000           [71] getupval   9   0      
24CD  6402C504           [72] self       9   9   276  ; -1917464545
24D1  62820001           [73] call       9   2   2  
24D5  6442C504           [74] self       9   9   277  ; 1769516121
24D9  62020001           [75] call       9   2   0  
24DD  E2400000           [76] call       3   0   1  
24E1  1A40F07F           [77] jmp        -62          ; to [16]
24E5  1E008000           [78] return     0   1      
                         * constants:
24E9  16                 sizek (22)
24EA  01                 const type 3
24EB  C391A9DB           const [0]: (-609644093)
24EF  01                 const type 3
24F0  0125A76D           const [1]: (1839670529)
24F4  01                 const type 3
24F5  00971C22           const [2]: (572299008)
24F9  03                 const type 3
24FA  00000000           const [3]: (0)
24FE  01                 const type 3
24FF  625C8C21           const [4]: (562846818)
2503  01                 const type 3
2504  49783AF2           const [5]: (-231049143)
2508  03                 const type 3
2509  00000040           const [6]: (0)
250D  01                 const type 3
250E  FFEBD2ED           const [7]: (-304944129)
2512  04                 const type 4
2513  08                 string size (8)
2514  67526567696F6E00   "gRegion\0"
                         const [8]: "gRegion"
251C  01                 const type 3
251D  C64CD3BD           const [9]: (-1110225722)
2521  04                 const type 4
2522  14                 string size (20)
2523  6461736846697265+  "dashFire"
252B  5472696767657254+  "TriggerT"
2533  79706500           "ype\0"
                         const [10]: "dashFireTriggerType"
2537  01                 const type 3
2538  65770E40           const [11]: (1074689893)
253C  01                 const type 3
253D  D73615C4           const [12]: (-1005242665)
2541  01                 const type 3
2542  1A4B27EC           const [13]: (-332969190)
2546  01                 const type 3
2547  BDB421E3           const [14]: (-484330307)
254B  01                 const type 3
254C  F26E43AB           const [15]: (-1421644046)
2550  04                 const type 4
2551  0F                 string size (15)
2552  6461736846697265+  "dashFire"
255A  45666665637400     "Effect\0"
                         const [16]: "dashFireEffect"
2561  04                 const type 4
2562  0D                 string size (13)
2563  454D5054595F5359+  "EMPTY_SY"
256B  4D424F4C00         "MBOL\0"
                         const [17]: "EMPTY_SYMBOL"
2570  04                 const type 4
2571  0C                 string size (12)
2572  5A45524F5F564543+  "ZERO_VEC"
257A  544F5200           "TOR\0"
                         const [18]: "ZERO_VECTOR"
257E  04                 const type 4
257F  0E                 string size (14)
2580  5A45524F5F524F54+  "ZERO_ROT"
2588  4154494F4E00       "ATION\0"
                         const [19]: "ZERO_ROTATION"
258E  01                 const type 3
258F  1FD0B58D           const [20]: (-1917464545)
2593  01                 const type 3
2594  59AC7869           const [21]: (1769516121)
                         * functions:
2598  00                 sizep (0)
                         * lines:
2599  4E                 sizelineinfo (78)
                         [pc] (line)
259A  75                 [01] (117)
259B  01                 [02] (117)
259C  00                 [03] (117)
259D  00                 [04] (117)
259E  75                 [05] (117)
259F  01                 [06] (118)
25A0  00                 [07] (118)
25A1  00                 [08] (118)
25A2  75                 [09] (118)
25A3  01                 [10] (118)
25A4  00                 [11] (118)
25A5  00                 [12] (118)
25A6  75                 [13] (118)
25A7  01                 [14] (118)
25A8  00                 [15] (118)
25A9  00                 [16] (122)
25AA  75                 [17] (122)
25AB  01                 [18] (122)
25AC  00                 [19] (122)
25AD  00                 [20] (122)
25AE  76                 [21] (123)
25AF  01                 [22] (123)
25B0  00                 [23] (123)
25B1  00                 [24] (124)
25B2  76                 [25] (127)
25B3  01                 [26] (127)
25B4  00                 [27] (127)
25B5  00                 [28] (-128)
25B6  76                 [29] (-128)
25B7  01                 [30] (-128)
25B8  00                 [31] (-128)
25B9  00                 [32] (-127)
25BA  76                 [33] (-127)
25BB  01                 [34] (-127)
25BC  00                 [35] (-127)
25BD  00                 [36] (-127)
25BE  76                 [37] (-124)
25BF  01                 [38] (-124)
25C0  00                 [39] (-124)
25C1  00                 [40] (-124)
25C2  76                 [41] (-124)
25C3  01                 [42] (-124)
25C4  00                 [43] (-124)
25C5  00                 [44] (-124)
25C6  76                 [45] (-124)
25C7  01                 [46] (-122)
25C8  00                 [47] (-122)
25C9  00                 [48] (-122)
25CA  76                 [49] (-122)
25CB  01                 [50] (-122)
25CC  00                 [51] (-122)
25CD  00                 [52] (-122)
25CE  76                 [53] (-121)
25CF  01                 [54] (-121)
25D0  00                 [55] (-121)
25D1  00                 [56] (-121)
25D2  76                 [57] (-121)
25D3  01                 [58] (-120)
25D4  00                 [59] (-120)
25D5  00                 [60] (-120)
25D6  7A                 [61] (-120)
25D7  01                 [62] (-120)
25D8  00                 [63] (-119)
25D9  00                 [64] (-119)
25DA  7A                 [65] (-119)
25DB  01                 [66] (-118)
25DC  00                 [67] (-118)
25DD  00                 [68] (-118)
25DE  7A                 [69] (-118)
25DF  01                 [70] (-118)
25E0  00                 [71] (-118)
25E1  00                 [72] (-118)
25E2  7A                 [73] (-118)
25E3  01                 [74] (-118)
25E4  00                 [75] (-118)
25E5  00                 [76] (-118)
25E6  7A                 [77] (-117)
25E7  01                 [78] (-115)
                         * locals:
26D2  00                 sizelocvars (0)
                         * upvalues:
26D3  00                 sizeupvalues (0)
                         ** end of function **

                         * lines:
26D4  21                 sizelineinfo (33)
                         [pc] (line)
26D5  69                 [01] (105)
26D6  01                 [02] (105)
26D7  00                 [03] (105)
26D8  00                 [04] (105)
26D9  69                 [05] (105)
26DA  01                 [06] (105)
26DB  00                 [07] (105)
26DC  00                 [08] (105)
26DD  69                 [09] (106)
26DE  01                 [10] (106)
26DF  00                 [11] (107)
26E0  00                 [12] (107)
26E1  69                 [13] (109)
26E2  01                 [14] (109)
26E3  00                 [15] (109)
26E4  00                 [16] (110)
26E5  69                 [17] (110)
26E6  01                 [18] (110)
26E7  00                 [19] (110)
26E8  00                 [20] (111)
26E9  69                 [21] (111)
26EA  01                 [22] (111)
26EB  00                 [23] (114)
26EC  00                 [24] (-115)
26ED  69                 [25] (-115)
26EE  01                 [26] (-115)
26EF  00                 [27] (-115)
26F0  00                 [28] (-115)
26F1  69                 [29] (-115)
26F2  01                 [30] (-115)
26F3  00                 [31] (-115)
26F4  00                 [32] (-114)
26F5  6A                 [33] (-113)
                         * locals:
2759  00                 sizelocvars (0)
                         * upvalues:
275A  00                 sizeupvalues (0)
                         ** end of function **

                         
275B                     ** function [3] definition (level 2)
                         ** start of function **
275B  00                 string size (0)
                         source name: (none)
275D  03                 line defined (401)
275E  D3                 last line defined (467)
275F  03                 nups (3)
2760  03                 numparams (1)
2761  01                 is_vararg (0)
2762  00                 maxstacksize (28)
                         * code:
2765  01                 sizecode (157)
2766  64004000           [001] self       1   0   256  ; 129677183
276A  62800001           [002] call       1   2   2  
276E  9D400000           [003] getglobal  2   1        ; 1074689893
2772  D2008000           [004] move       3   1      
2776  A2800001           [005] call       2   2   2  
277A  98000000           [006] test       2       0    ; to [8] if true
277E  1A800080           [007] jmp        3            ; to [11]
2782  A4804000           [008] self       2   0   258  ; -725453761
2786  A2400001           [009] call       2   2   1  
278A  1E008000           [010] return     0   1      
278E  A4C0C000           [011] self       2   1   259  ; -1917464545
2792  A2800001           [012] call       2   2   2  
2796  A4004101           [013] self       2   2   260  ; 1769516121
279A  A2800001           [014] call       2   2   2  
279E  DD400000           [015] getglobal  3   1        ; 1074689893
27A2  12010001           [016] move       4   2      
27A6  E2800001           [017] call       3   2   2  
27AA  D8000000           [018] test       3       0    ; to [20] if true
27AE  1A800080           [019] jmp        3            ; to [23]
27B2  E4804000           [020] self       3   0   258  ; -725453761
27B6  E2400001           [021] call       3   2   1  
27BA  1E008000           [022] return     0   1      
27BE  E440C100           [023] self       3   1   261  ; -2031737093
27C2  E2800001           [024] call       3   2   2  
27C6  13010000           [025] getupval   4   0      
27CA  0E814102           [026] gettable   4   4   262  ; -75093794
27CE  52018000           [027] move       5   1      
27D2  93018000           [028] getupval   6   1      
27D6  8EC14103           [029] gettable   6   6   263  ; "tag"
27DA  D3018000           [030] getupval   7   1      
27DE  CE01C203           [031] gettable   7   7   264  ; "damage"
27E2  22810002           [032] call       4   4   2  
27E6  53018000           [033] getupval   5   1      
27EA  4E01C202           [034] gettable   5   5   264  ; "damage"
27EE  4E018102           [035] gettable   5   5   4  
27F2  9D410200           [036] getglobal  6   9        ; Engine
27F6  8E814203           [037] gettable   6   6   266  ; -98643418
27FA  A2818000           [038] call       6   1   2  
27FE  8C418185           [039] settable   6   267 5    ; "baseAmount"
2802  E4014303           [040] self       7   6   268  ; -995861768
2806  5D420200           [041] getglobal  9   9        ; Engine
280A  4E42C304           [042] gettable   9   9   269  ; "DT_FIRE"
280E  99820300           [043] loadk      10  14       ; 0
2812  E2410002           [044] call       7   4   1  
2816  E4C14303           [045] self       7   6   271  ; -793712901
281A  5D420200           [046] getglobal  9   9        ; Engine
281E  4E02C404           [047] gettable   9   9   272  ; "TORSO"
2822  E2418001           [048] call       7   3   1  
2826  DD410000           [049] getglobal  7   1        ; 1074689893
282A  12028000           [050] move       8   1      
282E  E2810001           [051] call       7   2   2  
2832  D8410000           [052] test       7       1    ; to [54] if false
2836  1AC00080           [053] jmp        4            ; to [58]
283A  E4414403           [054] self       7   6   273  ; -420630141
283E  52028000           [055] move       9   1      
2842  E2418001           [056] call       7   3   1  
2846  1A800080           [057] jmp        3            ; to [61]
284A  E4414403           [058] self       7   6   273  ; -420630141
284E  52020000           [059] move       9   0      
2852  E2418001           [060] call       7   3   1  
2856  DD410000           [061] getglobal  7   1        ; 1074689893
285A  12020001           [062] move       8   2      
285E  E2810001           [063] call       7   2   2  
2862  D8410000           [064] test       7       1    ; to [66] if false
2866  1AC00080           [065] jmp        4            ; to [70]
286A  E4814403           [066] self       7   6   274  ; -2049256907
286E  52020001           [067] move       9   2      
2872  E2418001           [068] call       7   3   1  
2876  1A800080           [069] jmp        3            ; to [73]
287A  E4814403           [070] self       7   6   274  ; -2049256907
287E  52020000           [071] move       9   0      
2882  E2418001           [072] call       7   3   1  
2886  E4C1C400           [073] self       7   1   275  ; 1309201817
288A  E2810001           [074] call       7   2   2  
288E  1D420000           [075] getglobal  8   1        ; 1074689893
2892  52020000           [076] move       9   0      
2896  22820001           [077] call       8   2   2  
289A  18420000           [078] test       8       1    ; to [80] if false
289E  1A800E80           [079] jmp        59           ; to [139]
28A2  24024500           [080] self       8   0   276  ; 366271214
28A6  9D420500           [081] getglobal  10  21       ; dashFireTriggerType
28AA  22828001           [082] call       8   3   2  
28AE  D8010000           [083] test       7       0    ; to [85] if true
28B2  1A400A80           [084] jmp        42           ; to [127]
28B6  4B020000           [085] newtable   9   0   0    ; array=0, hash=0
28BA  9D820500           [086] getglobal  10  22       ; 1672515847
28BE  D2020004           [087] move       11  8      
28C2  A2020101           [088] call       10  2   4  
28C6  1A400280           [089] jmp        10           ; to [100]
28CA  DD430000           [090] getglobal  15  1        ; 1074689893
28CE  12040007           [091] move       16  14     
28D2  E2830001           [092] call       15  2   2  
28D6  D8430000           [093] test       15      1    ; to [95] if false
28DA  1A000180           [094] jmp        5            ; to [100]
28DE  D3030001           [095] getupval   15  2      
28E2  12048004           [096] move       16  9      
28E6  64C44507           [097] self       17  14  279  ; 1916070914
28EA  62040001           [098] call       17  2   0  
28EE  E2430000           [099] call       15  0   1  
28F2  96820000           [100] tforloop   10      2    ; to [102] if exit
28F6  1AC0FC7F           [101] jmp        -12          ; to [90]
28FA  DD030600           [102] getglobal  15  24       ; 248503575
28FE  12048004           [103] move       16  9      
2902  E2030101           [104] call       15  2   4  
2906  1A800480           [105] jmp        19           ; to [125]
290A  1D450000           [106] getglobal  20  1        ; 1074689893
290E  52058009           [107] move       21  19     
2912  22850001           [108] call       20  2   2  
2916  18450000           [109] test       20      1    ; to [111] if false
291A  1A400380           [110] jmp        14           ; to [125]
291E  2445C609           [111] self       20  19  281  ; -1378742765
2922  92058001           [112] move       22  3      
2926  22858001           [113] call       20  3   2  
292A  18450000           [114] test       20      1    ; to [116] if false
292E  1A000280           [115] jmp        9            ; to [125]
2932  2485C609           [116] self       20  19  282  ; 1230984527
2936  9DC50600           [117] getglobal  22  27       ; Lotus_Game
293A  8E05470B           [118] gettable   22  22  284  ; "AR_IMMUNE_ALL"
293E  22858001           [119] call       20  3   2  
2942  18450000           [120] test       20      1    ; to [122] if false
2946  1A800080           [121] jmp        3            ; to [125]
294A  2445C709           [122] self       20  19  285  ; 1193457265
294E  92050003           [123] move       22  6      
2952  22458001           [124] call       20  3   1  
2956  D6830000           [125] tforloop   15      2    ; to [127] if exit
295A  1A80FA7F           [126] jmp        -21          ; to [106]
295E  2485C700           [127] self       20  1   286  ; -609644093
2962  22850001           [128] call       20  2   2  
2966  18450000           [129] test       20      1    ; to [131] if false
296A  1AC00080           [130] jmp        4            ; to [135]
296E  0A050004           [131] len        20  8      
fail op	35
2972  23C0470A           [132] close      0  
2976  1A000080           [133] jmp        1            ; to [135]
297A  1AC00080           [134] jmp        4            ; to [139]
297E  1D050800           [135] getglobal  20  32       ; 538022378
2982  59450800           [136] loadk      21  33       ; 0
2986  22450001           [137] call       20  2   1  
298A  1AC0EF7F           [138] jmp        -64          ; to [75]
298E  1D450000           [139] getglobal  20  1        ; 1074689893
2992  52050000           [140] move       21  0      
2996  22850001           [141] call       20  2   2  
299A  18450000           [142] test       20      1    ; to [144] if false
299E  1A000380           [143] jmp        13           ; to [157]
29A2  24054500           [144] self       20  0   276  ; 366271214
29A6  9D450500           [145] getglobal  22  21       ; dashFireTriggerType
29AA  22858001           [146] call       20  3   2  
29AE  5D850500           [147] getglobal  21  22       ; 1672515847
29B2  9205000A           [148] move       22  20     
29B6  62050101           [149] call       21  2   4  
29BA  1A400080           [150] jmp        2            ; to [153]
29BE  A486C00C           [151] self       26  25  258  ; -725453761
29C2  A2460001           [152] call       26  2   1  
29C6  56850000           [153] tforloop   21      2    ; to [155] if exit
29CA  1AC0FE7F           [154] jmp        -4           ; to [151]
29CE  A4864000           [155] self       26  0   258  ; -725453761
29D2  A2460001           [156] call       26  2   1  
29D6  1E008000           [157] return     0   1      
                         * constants:
29DA  22                 sizek (34)
29DB  01                 const type 3
29DC  7FB7BA07           const [0]: (129677183)
29E0  01                 const type 3
29E1  65770E40           const [1]: (1074689893)
29E5  01                 const type 3
29E6  3F74C2D4           const [2]: (-725453761)
29EA  01                 const type 3
29EB  1FD0B58D           const [3]: (-1917464545)
29EF  01                 const type 3
29F0  59AC7869           const [4]: (1769516121)
29F4  01                 const type 3
29F5  FB26E686           const [5]: (-2031737093)
29F9  01                 const type 3
29FA  DE2886FB           const [6]: (-75093794)
29FE  04                 const type 4
29FF  04                 string size (4)
2A00  74616700           "tag\0"
                         const [7]: "tag"
2A04  04                 const type 4
2A05  07                 string size (7)
2A06  64616D61676500     "damage\0"
                         const [8]: "damage"
2A0D  04                 const type 4
2A0E  07                 string size (7)
2A0F  456E67696E6500     "Engine\0"
                         const [9]: "Engine"
2A16  01                 const type 3
2A17  26D21EFA           const [10]: (-98643418)
2A1B  04                 const type 4
2A1C  0B                 string size (11)
2A1D  62617365416D6F75+  "baseAmou"
2A25  6E7400             "nt\0"
                         const [11]: "baseAmount"
2A28  01                 const type 3
2A29  F85AA4C4           const [12]: (-995861768)
2A2D  04                 const type 4
2A2E  08                 string size (8)
2A2F  44545F4649524500   "DT_FIRE\0"
                         const [13]: "DT_FIRE"
2A37  03                 const type 3
2A38  0000803F           const [14]: (0)
2A3C  01                 const type 3
2A3D  FBE6B0D0           const [15]: (-793712901)
2A41  04                 const type 4
2A42  06                 string size (6)
2A43  544F52534F00       "TORSO\0"
                         const [16]: "TORSO"
2A49  01                 const type 3
2A4A  83B1EDE6           const [17]: (-420630141)
2A4E  01                 const type 3
2A4F  35D2DA85           const [18]: (-2049256907)
2A53  01                 const type 3
2A54  99D5084E           const [19]: (1309201817)
2A58  01                 const type 3
2A59  EEDAD415           const [20]: (366271214)
2A5D  04                 const type 4
2A5E  14                 string size (20)
2A5F  6461736846697265+  "dashFire"
2A67  5472696767657254+  "TriggerT"
2A6F  79706500           "ype\0"
                         const [21]: "dashFireTriggerType"
2A73  01                 const type 3
2A74  0791B063           const [22]: (1672515847)
2A78  01                 const type 3
2A79  02EC3472           const [23]: (1916070914)
2A7D  01                 const type 3
2A7E  17DDCF0E           const [24]: (248503575)
2A82  01                 const type 3
2A83  130ED2AD           const [25]: (-1378742765)
2A87  01                 const type 3
2A88  4F555F49           const [26]: (1230984527)
2A8C  04                 const type 4
2A8D  0B                 string size (11)
2A8E  4C6F7475735F4761+  "Lotus_Ga"
2A96  6D6500             "me\0"
                         const [27]: "Lotus_Game"
2A99  04                 const type 4
2A9A  0E                 string size (14)
2A9B  41525F494D4D554E+  "AR_IMMUN"
2AA3  455F414C4C00       "E_ALL\0"
                         const [28]: "AR_IMMUNE_ALL"
2AA9  01                 const type 3
2AAA  71B62247           const [29]: (1193457265)
2AAE  01                 const type 3
2AAF  C391A9DB           const [30]: (-609644093)
2AB3  03                 const type 3
2AB4  00000000           const [31]: (0)
2AB8  01                 const type 3
2AB9  EA911120           const [32]: (538022378)
2ABD  03                 const type 3
2ABE  0000003F           const [33]: (0)
                         * functions:
2AC2  00                 sizep (0)
                         * lines:
2AC4  01                 sizelineinfo (157)
                         [pc] (line)
2AC5  92                 [001] (-110)
2AC6  01                 [002] (-110)
2AC7  00                 [003] (-109)
2AC8  00                 [004] (-109)
2AC9  92                 [005] (-109)
2ACA  01                 [006] (-109)
2ACB  00                 [007] (-109)
2ACC  00                 [008] (-108)
2ACD  93                 [009] (-108)
2ACE  01                 [010] (-107)
2ACF  00                 [011] (-104)
2AD0  00                 [012] (-104)
2AD1  93                 [013] (-104)
2AD2  01                 [014] (-104)
2AD3  00                 [015] (-103)
2AD4  00                 [016] (-103)
2AD5  93                 [017] (-103)
2AD6  01                 [018] (-103)
2AD7  00                 [019] (-103)
2AD8  00                 [020] (-102)
2AD9  93                 [021] (-102)
2ADA  01                 [022] (-101)
2ADB  00                 [023] (-98)
2ADC  00                 [024] (-98)
2ADD  93                 [025] (-96)
2ADE  01                 [026] (-96)
2ADF  00                 [027] (-96)
2AE0  00                 [028] (-96)
2AE1  94                 [029] (-96)
2AE2  01                 [030] (-96)
2AE3  00                 [031] (-96)
2AE4  00                 [032] (-96)
2AE5  94                 [033] (-95)
2AE6  01                 [034] (-95)
2AE7  00                 [035] (-95)
2AE8  00                 [036] (-93)
2AE9  95                 [037] (-93)
2AEA  01                 [038] (-93)
2AEB  00                 [039] (-92)
2AEC  00                 [040] (-91)
2AED  98                 [041] (-91)
2AEE  01                 [042] (-91)
2AEF  00                 [043] (-91)
2AF0  00                 [044] (-91)
2AF1  98                 [045] (-90)
2AF2  01                 [046] (-90)
2AF3  00                 [047] (-90)
2AF4  00                 [048] (-90)
2AF5  98                 [049] (-89)
2AF6  01                 [050] (-89)
2AF7  00                 [051] (-89)
2AF8  00                 [052] (-89)
2AF9  98                 [053] (-89)
2AFA  01                 [054] (-88)
2AFB  00                 [055] (-88)
2AFC  00                 [056] (-88)
2AFD  99                 [057] (-88)
2AFE  01                 [058] (-86)
2AFF  00                 [059] (-86)
2B00  00                 [060] (-86)
2B01  99                 [061] (-83)
2B02  01                 [062] (-83)
2B03  00                 [063] (-83)
2B04  00                 [064] (-83)
2B05  99                 [065] (-83)
2B06  01                 [066] (-82)
2B07  00                 [067] (-82)
2B08  00                 [068] (-82)
2B09  99                 [069] (-82)
2B0A  01                 [070] (-80)
2B0B  00                 [071] (-80)
2B0C  00                 [072] (-80)
2B0D  99                 [073] (-77)
2B0E  01                 [074] (-77)
2B0F  00                 [075] (-76)
2B10  00                 [076] (-76)
2B11  9A                 [077] (-76)
2B12  01                 [078] (-76)
2B13  00                 [079] (-76)
2B14  00                 [080] (-75)
2B15  9A                 [081] (-75)
2B16  01                 [082] (-75)
2B17  00                 [083] (-74)
2B18  00                 [084] (-74)
2B19  9B                 [085] (-73)
2B1A  01                 [086] (-72)
2B1B  00                 [087] (-72)
2B1C  00                 [088] (-72)
2B1D  9E                 [089] (-72)
2B1E  01                 [090] (-71)
2B1F  00                 [091] (-71)
2B20  00                 [092] (-71)
2B21  9E                 [093] (-71)
2B22  01                 [094] (-71)
2B23  00                 [095] (-70)
2B24  00                 [096] (-70)
2B25  A0                 [097] (-70)
2B26  01                 [098] (-70)
2B27  00                 [099] (-70)
2B28  00                 [100] (-72)
2B29  A0                 [101] (-69)
2B2A  01                 [102] (-66)
2B2B  00                 [103] (-66)
2B2C  00                 [104] (-66)
2B2D  A0                 [105] (-66)
2B2E  01                 [106] (-65)
2B2F  00                 [107] (-65)
2B30  00                 [108] (-65)
2B31  A0                 [109] (-65)
2B32  01                 [110] (-65)
2B33  00                 [111] (-65)
2B34  00                 [112] (-65)
2B35  A0                 [113] (-65)
2B36  01                 [114] (-65)
2B37  00                 [115] (-65)
2B38  00                 [116] (-65)
2B39  A0                 [117] (-65)
2B3A  01                 [118] (-65)
2B3B  00                 [119] (-65)
2B3C  00                 [120] (-65)
2B3D  A0                 [121] (-65)
2B3E  01                 [122] (-64)
2B3F  00                 [123] (-64)
2B40  00                 [124] (-64)
2B41  A0                 [125] (-66)
2B42  01                 [126] (-63)
2B43  00                 [127] (-59)
2B44  00                 [128] (-59)
2B45  A1                 [129] (-59)
2B46  01                 [130] (-59)
2B47  00                 [131] (-59)
2B48  00                 [132] (-59)
2B49  A1                 [133] (-59)
2B4A  01                 [134] (-58)
2B4B  00                 [135] (-55)
2B4C  00                 [136] (-55)
2B4D  A1                 [137] (-55)
2B4E  01                 [138] (-55)
2B4F  00                 [139] (-52)
2B50  00                 [140] (-52)
2B51  A3                 [141] (-52)
2B52  01                 [142] (-52)
2B53  00                 [143] (-52)
2B54  00                 [144] (-51)
2B55  A3                 [145] (-51)
2B56  01                 [146] (-51)
2B57  00                 [147] (-50)
2B58  00                 [148] (-50)
2B59  A3                 [149] (-50)
2B5A  01                 [150] (-50)
2B5B  00                 [151] (-49)
2B5C  00                 [152] (-49)
2B5D  A4                 [153] (-50)
2B5E  01                 [154] (-49)
2B5F  00                 [155] (-47)
2B60  00                 [156] (-47)
2B61  A5                 [157] (-45)
                         * locals:
2D39  00                 sizelocvars (0)
                         * upvalues:
2D3A  00                 sizeupvalues (0)
                         ** end of function **

                         
2D3B                     ** function [4] definition (level 2)
                         ** start of function **
2D3B  00                 string size (0)
                         source name: (none)
2D3D  03                 line defined (469)
2D3E  80                 last line defined (512)
2D3F  04                 nups (2)
2D40  02                 numparams (1)
2D41  01                 is_vararg (0)
2D42  00                 maxstacksize (13)
                         * code:
2D44  5D                 sizecode (93)
2D45  64004000           [01] self       1   0   256  ; 129677183
2D49  62800001           [02] call       1   2   2  
2D4D  9D400000           [03] getglobal  2   1        ; 1074689893
2D51  D2008000           [04] move       3   1      
2D55  A2800001           [05] call       2   2   2  
2D59  98000000           [06] test       2       0    ; to [8] if true
2D5D  1A800080           [07] jmp        3            ; to [11]
2D61  A4804000           [08] self       2   0   258  ; -725453761
2D65  A2400001           [09] call       2   2   1  
2D69  1E008000           [10] return     0   1      
2D6D  A4C0C000           [11] self       2   1   259  ; -1917464545
2D71  A2800001           [12] call       2   2   2  
2D75  A4004101           [13] self       2   2   260  ; 1769516121
2D79  A2800001           [14] call       2   2   2  
2D7D  DD400000           [15] getglobal  3   1        ; 1074689893
2D81  12010001           [16] move       4   2      
2D85  E2800001           [17] call       3   2   2  
2D89  D8000000           [18] test       3       0    ; to [20] if true
2D8D  1A800080           [19] jmp        3            ; to [23]
2D91  E4804000           [20] self       3   0   258  ; -725453761
2D95  E2400001           [21] call       3   2   1  
2D99  1E008000           [22] return     0   1      
2D9D  D3000000           [23] getupval   3   0      
2DA1  CE40C101           [24] gettable   3   3   261  ; -75093794
2DA5  12018000           [25] move       4   1      
2DA9  53018000           [26] getupval   5   1      
2DAD  4E81C102           [27] gettable   5   5   262  ; "tag"
2DB1  93018000           [28] getupval   6   1      
2DB5  8EC14103           [29] gettable   6   6   263  ; "damage"
2DB9  E2800002           [30] call       3   4   2  
2DBD  13018000           [31] getupval   4   1      
2DC1  0E014202           [32] gettable   4   4   264  ; "duration"
2DC5  0EC10002           [33] gettable   4   4   3  
2DC9  59410200           [34] loadk      5   9        ; 0
2DCD  A4814200           [35] self       6   0   266  ; 1839670529
2DD1  A2810001           [36] call       6   2   2  
2DD5  E4C14200           [37] self       7   0   267  ; 301945578
2DD9  E2810001           [38] call       7   2   2  
2DDD  CE01C303           [39] gettable   7   7   268  ; "x"
2DE1  DC41C303           [40] div        7   7   269  ; 0
fail op	21
2DE5  15000187           [41] concat     0   270 4  
2DE9  1A800680           [42] jmp        27           ; to [70]
fail op	33
2DED  2140C202           [43] tforloop   0       265  ; to [45] if exit
2DF1  1A800380           [44] jmp        15           ; to [60]
2DF5  1D420000           [45] getglobal  8   1        ; 1074689893
2DF9  5DC20300           [46] getglobal  9   15       ; gGameRules
2DFD  22820001           [47] call       8   2   2  
2E01  18420000           [48] test       8       1    ; to [50] if false
2E05  1A000280           [49] jmp        9            ; to [59]
2E09  1DC20300           [50] getglobal  8   15       ; gGameRules
2E0D  24024404           [51] self       8   8   272  ; -962367537
2E11  92028000           [52] move       10  1      
2E15  D2020003           [53] move       11  6      
2E19  12038003           [54] move       12  7      
2E1D  22828002           [55] call       8   5   2  
2E21  18020000           [56] test       8       0    ; to [58] if true
2E25  1A000080           [57] jmp        1            ; to [59]
2E29  1A800280           [58] jmp        11           ; to [70]
2E2D  59410400           [59] loadk      5   17       ; -51
2E31  1D820400           [60] getglobal  8   18       ; 538022378
2E35  59420200           [61] loadk      9   9        ; 0
2E39  22420001           [62] call       8   2   1  
2E3D  1DC20400           [63] getglobal  8   19       ; 1289681407
2E41  22828000           [64] call       8   1   2  
2E45  0D010202           [65] sub        4   4   8  
2E49  1DC20400           [66] getglobal  8   19       ; 1289681407
2E4D  22828000           [67] call       8   1   2  
2E51  4D018202           [68] sub        5   5   8  
2E55  1A80F87F           [69] jmp        -29          ; to [41]
2E59  1D020500           [70] getglobal  8   20       ; 738251817
2E5D  59420500           [71] loadk      9   21       ; "/EE/Types/Effects/Spawner"
2E61  22820001           [72] call       8   2   2  
2E65  64824500           [73] self       9   0   278  ; -1625438872
2E69  D2020004           [74] move       11  8      
2E6D  62828001           [75] call       9   3   2  
2E71  9D420000           [76] getglobal  10  1        ; 1074689893
2E75  D2028004           [77] move       11  9      
2E79  A2820001           [78] call       10  2   2  
2E7D  98420000           [79] test       10      1    ; to [81] if false
2E81  1A400080           [80] jmp        2            ; to [83]
2E85  A482C004           [81] self       10  9   258  ; -725453761
2E89  A2420001           [82] call       10  2   1  
2E8D  9D820400           [83] getglobal  10  18       ; 538022378
2E91  D9820300           [84] loadk      11  14       ; 0
2E95  A2420001           [85] call       10  2   1  
2E99  9D420000           [86] getglobal  10  1        ; 1074689893
2E9D  D2020000           [87] move       11  0      
2EA1  A2820001           [88] call       10  2   2  
2EA5  98420000           [89] test       10      1    ; to [91] if false
2EA9  1A400080           [90] jmp        2            ; to [93]
2EAD  A4824000           [91] self       10  0   258  ; -725453761
2EB1  A2420001           [92] call       10  2   1  
2EB5  1E008000           [93] return     0   1      
                         * constants:
2EB9  17                 sizek (23)
2EBA  01                 const type 3
2EBB  7FB7BA07           const [0]: (129677183)
2EBF  01                 const type 3
2EC0  65770E40           const [1]: (1074689893)
2EC4  01                 const type 3
2EC5  3F74C2D4           const [2]: (-725453761)
2EC9  01                 const type 3
2ECA  1FD0B58D           const [3]: (-1917464545)
2ECE  01                 const type 3
2ECF  59AC7869           const [4]: (1769516121)
2ED3  01                 const type 3
2ED4  DE2886FB           const [5]: (-75093794)
2ED8  04                 const type 4
2ED9  04                 string size (4)
2EDA  74616700           "tag\0"
                         const [6]: "tag"
2EDE  04                 const type 4
2EDF  07                 string size (7)
2EE0  64616D61676500     "damage\0"
                         const [7]: "damage"
2EE7  04                 const type 4
2EE8  09                 string size (9)
2EE9  6475726174696F6E+  "duration"
2EF1  00                 "\0"
                         const [8]: "duration"
2EF2  03                 const type 3
2EF3  00000000           const [9]: (0)
2EF7  01                 const type 3
2EF8  0125A76D           const [10]: (1839670529)
2EFC  01                 const type 3
2EFD  EA52FF11           const [11]: (301945578)
2F01  04                 const type 4
2F02  02                 string size (2)
2F03  7800               "x\0"
                         const [12]: "x"
2F05  03                 const type 3
2F06  00000040           const [13]: (0)
2F0A  03                 const type 3
2F0B  0000C03F           const [14]: (0)
2F0F  04                 const type 4
2F10  0B                 string size (11)
2F11  6747616D6552756C+  "gGameRul"
2F19  657300             "es\0"
                         const [15]: "gGameRules"
2F1C  01                 const type 3
2F1D  CF6FA3C6           const [16]: (-962367537)
2F21  03                 const type 3
2F22  CDCC4C3E           const [17]: (-51)
2F26  01                 const type 3
2F27  EA911120           const [18]: (538022378)
2F2B  01                 const type 3
2F2C  FFF9DE4C           const [19]: (1289681407)
2F30  01                 const type 3
2F31  29D4002C           const [20]: (738251817)
2F35  04                 const type 4
2F36  1A                 string size (26)
2F37  2F45452F54797065+  "/EE/Type"
2F3F  732F456666656374+  "s/Effect"
2F47  732F537061776E65+  "s/Spawne"
2F4F  7200               "r\0"
                         const [21]: "/EE/Types/Effects/Spawner"
2F51  01                 const type 3
2F52  68C51D9F           const [22]: (-1625438872)
                         * functions:
2F56  00                 sizep (0)
                         * lines:
2F57  5D                 sizelineinfo (93)
                         [pc] (line)
2F58  D6                 [01] (-42)
2F59  01                 [02] (-42)
2F5A  00                 [03] (-41)
2F5B  00                 [04] (-41)
2F5C  D6                 [05] (-41)
2F5D  01                 [06] (-41)
2F5E  00                 [07] (-41)
2F5F  00                 [08] (-40)
2F60  D7                 [09] (-40)
2F61  01                 [10] (-39)
2F62  00                 [11] (-36)
2F63  00                 [12] (-36)
2F64  D7                 [13] (-36)
2F65  01                 [14] (-36)
2F66  00                 [15] (-35)
2F67  00                 [16] (-35)
2F68  D7                 [17] (-35)
2F69  01                 [18] (-35)
2F6A  00                 [19] (-35)
2F6B  00                 [20] (-34)
2F6C  D7                 [21] (-34)
2F6D  01                 [22] (-33)
2F6E  00                 [23] (-30)
2F6F  00                 [24] (-30)
2F70  D7                 [25] (-30)
2F71  01                 [26] (-30)
2F72  00                 [27] (-30)
2F73  00                 [28] (-30)
2F74  D8                 [29] (-30)
2F75  01                 [30] (-30)
2F76  00                 [31] (-29)
2F77  00                 [32] (-29)
2F78  D8                 [33] (-29)
2F79  01                 [34] (-27)
2F7A  00                 [35] (-26)
2F7B  00                 [36] (-26)
2F7C  D9                 [37] (-25)
2F7D  01                 [38] (-25)
2F7E  00                 [39] (-25)
2F7F  00                 [40] (-25)
2F80  DC                 [41] (-24)
2F81  01                 [42] (-24)
2F82  00                 [43] (-23)
2F83  00                 [44] (-23)
2F84  DC                 [45] (-22)
2F85  01                 [46] (-22)
2F86  00                 [47] (-22)
2F87  00                 [48] (-22)
2F88  DC                 [49] (-22)
2F89  01                 [50] (-22)
2F8A  00                 [51] (-22)
2F8B  00                 [52] (-22)
2F8C  DC                 [53] (-22)
2F8D  01                 [54] (-22)
2F8E  00                 [55] (-22)
2F8F  00                 [56] (-22)
2F90  DD                 [57] (-22)
2F91  01                 [58] (-21)
2F92  00                 [59] (-19)
2F93  00                 [60] (-16)
2F94  DD                 [61] (-16)
2F95  01                 [62] (-16)
2F96  00                 [63] (-15)
2F97  00                 [64] (-15)
2F98  DD                 [65] (-15)
2F99  01                 [66] (-14)
2F9A  00                 [67] (-14)
2F9B  00                 [68] (-14)
2F9C  DD                 [69] (-14)
2F9D  01                 [70] (-11)
2F9E  00                 [71] (-11)
2F9F  00                 [72] (-11)
2FA0  DD                 [73] (-9)
2FA1  01                 [74] (-9)
2FA2  00                 [75] (-9)
2FA3  00                 [76] (-8)
2FA4  DE                 [77] (-8)
2FA5  01                 [78] (-8)
2FA6  00                 [79] (-8)
2FA7  00                 [80] (-8)
2FA8  DE                 [81] (-7)
2FA9  01                 [82] (-7)
2FAA  00                 [83] (-5)
2FAB  00                 [84] (-5)
2FAC  DF                 [85] (-5)
2FAD  01                 [86] (-3)
2FAE  00                 [87] (-3)
2FAF  00                 [88] (-3)
2FB0  E2                 [89] (-3)
2FB1  01                 [90] (-3)
2FB2  00                 [91] (-2)
2FB3  00                 [92] (-2)
2FB4  E2                 [93] (0)
                         * locals:
30CC  00                 sizelocvars (0)
                         * upvalues:
30CD  00                 sizeupvalues (0)
                         ** end of function **

                         
30CE                     ** function [5] definition (level 2)
                         ** start of function **
30CE  00                 string size (0)
                         source name: (none)
30D0  04                 line defined (514)
30D1  9C                 last line defined (540)
30D2  04                 nups (1)
30D3  01                 numparams (2)
30D4  02                 is_vararg (0)
30D5  00                 maxstacksize (22)
                         * code:
30D7  6B                 sizecode (107)
30D8  9D000000           [001] getglobal  2   0        ; -332969190
30DC  D9400000           [002] loadk      3   1        ; "EXCALIBUR_BLIND"
30E0  A2800001           [003] call       2   2   2  
30E4  DD000000           [004] getglobal  3   0        ; -332969190
30E8  19810000           [005] loadk      4   2        ; "GAME_C1_HEAD1"
30EC  E2800001           [006] call       3   2   2  
30F0  1DC10000           [007] getglobal  4   3        ; gRegion
30F4  24014102           [008] self       4   4   260  ; 152279552
30F8  9D410100           [009] getglobal  6   5        ; gLotusNpcAvatarType
30FC  E481C100           [010] self       7   1   262  ; 1839670529
3100  E2810001           [011] call       7   2   2  
3104  19C20100           [012] loadk      8   7        ; 0
3108  53020000           [013] getupval   9   0      
310C  4E02C204           [014] gettable   9   9   264  ; "radius"
3110  4E028004           [015] gettable   9   9   0  
3114  22810003           [016] call       4   6   2  
3118  5D410200           [017] getglobal  5   9        ; 1672515847
311C  92010002           [018] move       6   4      
3120  62010101           [019] call       5   2   4  
3124  1AC01480           [020] jmp        84           ; to [105]
3128  A482C204           [021] self       10  9   266  ; -1411785325
312C  A2820001           [022] call       10  2   2  
3130  E4C2C200           [023] self       11  1   267  ; 1800191191
3134  52038004           [024] move       13  9      
3138  E2828001           [025] call       11  3   2  
313C  D8420000           [026] test       11      1    ; to [28] if false
3140  1A001380           [027] jmp        77           ; to [105]
3144  E402C304           [028] self       11  9   268  ; 1230984527
3148  5D430300           [029] getglobal  13  13       ; Lotus_Game
314C  4E83C306           [030] gettable   13  13  270  ; "AR_IMMUNE_ALL"
3150  E2828001           [031] call       11  3   2  
3154  D8420000           [032] test       11      1    ; to [34] if false
3158  1A801180           [033] jmp        71           ; to [105]
315C  DDC20300           [034] getglobal  11  15       ; 1074689893
3160  12030005           [035] move       12  10     
3164  E2820001           [036] call       11  2   2  
3168  D8420000           [037] test       11      1    ; to [39] if false
316C  1A401080           [038] jmp        66           ; to [105]
3170  E4024405           [039] self       11  10  272  ; 2049450932
3174  E2820001           [040] call       11  2   2  
3178  D8420000           [041] test       11      1    ; to [43] if false
317C  1A400F80           [042] jmp        62           ; to [105]
3180  E442C404           [043] self       11  9   273  ; 1637313982
3184  E2820001           [044] call       11  2   2  
3188  D8420000           [045] test       11      1    ; to [47] if false
318C  1A400E80           [046] jmp        58           ; to [105]
3190  E482C404           [047] self       11  9   274  ; -214694299
3194  5DC30400           [048] getglobal  13  19       ; Engine
3198  4E03C506           [049] gettable   13  13  276  ; "PM_CLOAK"
319C  E2828001           [050] call       11  3   2  
31A0  D8420000           [051] test       11      1    ; to [53] if false
31A4  1AC00C80           [052] jmp        52           ; to [105]
31A8  E442C500           [053] self       11  1   277  ; 1894761269
31AC  52038004           [054] move       13  9      
31B0  97038000           [055] loadbool   14  1   0    ; true
31B4  D7030000           [056] loadbool   15  0   0    ; false
31B8  E2828002           [057] call       11  5   2  
fail op	21
31BC  15C08283           [058] concat     0   263 11 
31C0  1A000B80           [059] jmp        45           ; to [105]
31C4  E482C504           [060] self       11  9   278  ; 10587382
31C8  53030000           [061] getupval   13  0      
31CC  4EC3C506           [062] gettable   13  13  279  ; "tag"
31D0  93030000           [063] getupval   14  0      
31D4  8E034607           [064] gettable   14  14  280  ; "duration"
31D8  8E030007           [065] gettable   14  14  0  
31DC  E2820002           [066] call       11  4   2  
31E0  2443C604           [067] self       12  9   281  ; 494169954
31E4  93030000           [068] getupval   14  0      
31E8  8EC34507           [069] gettable   14  14  279  ; "tag"
31EC  22438001           [070] call       12  3   1  
31F0  2483C604           [071] self       12  9   282  ; -1620748056
31F4  9DC30600           [072] getglobal  14  27       ; blindProjector
31F8  D2038001           [073] move       15  3      
31FC  1D040700           [074] getglobal  16  28       ; 572299008
3200  22848000           [075] call       16  1   2  
3204  5D440700           [076] getglobal  17  29       ; 508519041
3208  62848000           [077] call       17  1   2  
320C  92048005           [078] move       18  11     
3210  22438003           [079] call       12  7   1  
3214  2483C204           [080] self       12  9   266  ; -1411785325
3218  22830001           [081] call       12  2   2  
321C  24834706           [082] self       12  12  286  ; -436363455
3220  97038000           [083] loadbool   14  1   0    ; true
3224  D2038005           [084] move       15  11     
3228  22430002           [085] call       12  4   1  
322C  2403C304           [086] self       12  9   268  ; 1230984527
3230  9D430300           [087] getglobal  14  13       ; Lotus_Game
3234  8EC34707           [088] gettable   14  14  287  ; "AR_RESIST_ALL"
3238  22838001           [089] call       12  3   2  
323C  18430000           [090] test       12      1    ; to [92] if false
3240  1A000380           [091] jmp        13           ; to [105]
3244  2403C804           [092] self       12  9   288  ; -1174384187
3248  92030001           [093] move       14  2      
324C  D7030000           [094] loadbool   15  0   0    ; false
3250  1DC40400           [095] getglobal  16  19       ; Engine
3254  0E444808           [096] gettable   16  16  289  ; "ATMM_ANIMATION_DRIVEN"
3258  5DC40400           [097] getglobal  17  19       ; Engine
325C  4E84C808           [098] gettable   17  17  290  ; "PRT_ONCE"
3260  97048000           [099] loadbool   18  1   0    ; true
3264  DDC40800           [100] getglobal  19  35       ; 2144646525
3268  19C50100           [101] loadk      20  7        ; 0
326C  59050900           [102] loadk      21  36       ; 0
3270  E2048001           [103] call       19  3   0  
3274  22430000           [104] call       12  0   1  
3278  56810000           [105] tforloop   5       2    ; to [107] if exit
327C  1A40EA7F           [106] jmp        -86          ; to [21]
3280  1E008000           [107] return     0   1      
                         * constants:
3284  25                 sizek (37)
3285  01                 const type 3
3286  1A4B27EC           const [0]: (-332969190)
328A  04                 const type 4
328B  10                 string size (16)
328C  455843414C494255+  "EXCALIBU"
3294  525F424C494E4400   "R_BLIND\0"
                         const [1]: "EXCALIBUR_BLIND"
329C  04                 const type 4
329D  0E                 string size (14)
329E  47414D455F43315F+  "GAME_C1_"
32A6  484541443100       "HEAD1\0"
                         const [2]: "GAME_C1_HEAD1"
32AC  04                 const type 4
32AD  08                 string size (8)
32AE  67526567696F6E00   "gRegion\0"
                         const [3]: "gRegion"
32B6  01                 const type 3
32B7  009A1309           const [4]: (152279552)
32BB  04                 const type 4
32BC  14                 string size (20)
32BD  674C6F7475734E70+  "gLotusNp"
32C5  6341766174617254+  "cAvatarT"
32CD  79706500           "ype\0"
                         const [5]: "gLotusNpcAvatarType"
32D1  01                 const type 3
32D2  0125A76D           const [6]: (1839670529)
32D6  03                 const type 3
32D7  00000000           const [7]: (0)
32DB  04                 const type 4
32DC  07                 string size (7)
32DD  72616469757300     "radius\0"
                         const [8]: "radius"
32E4  01                 const type 3
32E5  0791B063           const [9]: (1672515847)
32E9  01                 const type 3
32EA  93DDD9AB           const [10]: (-1411785325)
32EE  01                 const type 3
32EF  D7BC4C6B           const [11]: (1800191191)
32F3  01                 const type 3
32F4  4F555F49           const [12]: (1230984527)
32F8  04                 const type 4
32F9  0B                 string size (11)
32FA  4C6F7475735F4761+  "Lotus_Ga"
3302  6D6500             "me\0"
                         const [13]: "Lotus_Game"
3305  04                 const type 4
3306  0E                 string size (14)
3307  41525F494D4D554E+  "AR_IMMUN"
330F  455F414C4C00       "E_ALL\0"
                         const [14]: "AR_IMMUNE_ALL"
3315  01                 const type 3
3316  65770E40           const [15]: (1074689893)
331A  01                 const type 3
331B  B423287A           const [16]: (2049450932)
331F  01                 const type 3
3320  BE6D9761           const [17]: (1637313982)
3324  01                 const type 3
3325  650634F3           const [18]: (-214694299)
3329  04                 const type 4
332A  07                 string size (7)
332B  456E67696E6500     "Engine\0"
                         const [19]: "Engine"
3332  04                 const type 4
3333  09                 string size (9)
3334  504D5F434C4F414B+  "PM_CLOAK"
333C  00                 "\0"
                         const [20]: "PM_CLOAK"
333D  01                 const type 3
333E  35C3EF70           const [21]: (1894761269)
3342  01                 const type 3
3343  F68CA100           const [22]: (10587382)
3347  04                 const type 4
3348  04                 string size (4)
3349  74616700           "tag\0"
                         const [23]: "tag"
334D  04                 const type 4
334E  09                 string size (9)
334F  6475726174696F6E+  "duration"
3357  00                 "\0"
                         const [24]: "duration"
3358  01                 const type 3
3359  626F741D           const [25]: (494169954)
335D  01                 const type 3
335E  E858659F           const [26]: (-1620748056)
3362  04                 const type 4
3363  0F                 string size (15)
3364  626C696E6450726F+  "blindPro"
336C  6A6563746F7200     "jector\0"
                         const [27]: "blindProjector"
3373  01                 const type 3
3374  00971C22           const [28]: (572299008)
3378  01                 const type 3
3379  81624F1E           const [29]: (508519041)
337D  01                 const type 3
337E  419FFDE5           const [30]: (-436363455)
3382  04                 const type 4
3383  0E                 string size (14)
3384  41525F5245534953+  "AR_RESIS"
338C  545F414C4C00       "T_ALL\0"
                         const [31]: "AR_RESIST_ALL"
3392  01                 const type 3
3393  C55100BA           const [32]: (-1174384187)
3397  04                 const type 4
3398  16                 string size (22)
3399  41544D4D5F414E49+  "ATMM_ANI"
33A1  4D4154494F4E5F44+  "MATION_D"
33A9  524956454E00       "RIVEN\0"
                         const [33]: "ATMM_ANIMATION_DRIVEN"
33AF  04                 const type 4
33B0  09                 string size (9)
33B1  5052545F4F4E4345+  "PRT_ONCE"
33B9  00                 "\0"
                         const [34]: "PRT_ONCE"
33BA  01                 const type 3
33BB  7DB5D47F           const [35]: (2144646525)
33BF  03                 const type 3
33C0  00000040           const [36]: (0)
                         * functions:
33C4  00                 sizep (0)
                         * lines:
33C5  6B                 sizelineinfo (107)
                         [pc] (line)
33C6  03                 [001] (3)
33C7  02                 [002] (3)
33C8  00                 [003] (3)
33C9  00                 [004] (4)
33CA  03                 [005] (4)
33CB  02                 [006] (4)
33CC  00                 [007] (5)
33CD  00                 [008] (5)
33CE  03                 [009] (5)
33CF  02                 [010] (5)
33D0  00                 [011] (5)
33D1  00                 [012] (5)
33D2  04                 [013] (5)
33D3  02                 [014] (5)
33D4  00                 [015] (5)
33D5  00                 [016] (5)
33D6  04                 [017] (6)
33D7  02                 [018] (6)
33D8  00                 [019] (6)
33D9  00                 [020] (6)
33DA  04                 [021] (7)
33DB  02                 [022] (7)
33DC  00                 [023] (9)
33DD  00                 [024] (9)
33DE  05                 [025] (9)
33DF  02                 [026] (9)
33E0  00                 [027] (9)
33E1  00                 [028] (10)
33E2  05                 [029] (10)
33E3  02                 [030] (10)
33E4  00                 [031] (10)
33E5  00                 [032] (10)
33E6  05                 [033] (10)
33E7  02                 [034] (11)
33E8  00                 [035] (11)
33E9  00                 [036] (11)
33EA  05                 [037] (11)
33EB  02                 [038] (11)
33EC  00                 [039] (12)
33ED  00                 [040] (12)
33EE  05                 [041] (12)
33EF  02                 [042] (12)
33F0  00                 [043] (13)
33F1  00                 [044] (13)
33F2  05                 [045] (13)
33F3  02                 [046] (13)
33F4  00                 [047] (14)
33F5  00                 [048] (14)
33F6  05                 [049] (14)
33F7  02                 [050] (14)
33F8  00                 [051] (14)
33F9  00                 [052] (14)
33FA  05                 [053] (16)
33FB  02                 [054] (16)
33FC  00                 [055] (16)
33FD  00                 [056] (16)
33FE  05                 [057] (16)
33FF  02                 [058] (16)
3400  00                 [059] (16)
3401  00                 [060] (17)
3402  05                 [061] (17)
3403  02                 [062] (17)
3404  00                 [063] (17)
3405  00                 [064] (17)
3406  06                 [065] (17)
3407  02                 [066] (17)
3408  00                 [067] (18)
3409  00                 [068] (18)
340A  06                 [069] (18)
340B  02                 [070] (18)
340C  00                 [071] (20)
340D  00                 [072] (20)
340E  06                 [073] (20)
340F  02                 [074] (20)
3410  00                 [075] (20)
3411  00                 [076] (20)
3412  06                 [077] (20)
3413  02                 [078] (20)
3414  00                 [079] (20)
3415  00                 [080] (21)
3416  07                 [081] (21)
3417  02                 [082] (21)
3418  00                 [083] (21)
3419  00                 [084] (21)
341A  07                 [085] (21)
341B  02                 [086] (22)
341C  00                 [087] (22)
341D  00                 [088] (22)
341E  09                 [089] (22)
341F  02                 [090] (22)
3420  00                 [091] (22)
3421  00                 [092] (23)
3422  09                 [093] (23)
3423  02                 [094] (23)
3424  00                 [095] (23)
3425  00                 [096] (23)
3426  09                 [097] (23)
3427  02                 [098] (23)
3428  00                 [099] (23)
3429  00                 [100] (23)
342A  09                 [101] (23)
342B  02                 [102] (23)
342C  00                 [103] (23)
342D  00                 [104] (23)
342E  09                 [105] (6)
342F  02                 [106] (26)
3430  00                 [107] (28)
                         * locals:
3572  00                 sizelocvars (0)
                         * upvalues:
3573  00                 sizeupvalues (0)
                         ** end of function **

                         
3574                     ** function [6] definition (level 2)
                         ** start of function **
3574  00                 string size (0)
                         source name: (none)
3576  04                 line defined (542)
3577  D0                 last line defined (592)
3578  04                 nups (1)
3579  01                 numparams (2)
357A  02                 is_vararg (0)
357B  00                 maxstacksize (9)
                         * code:
357D  2F                 sizecode (47)
357E  A4004000           [01] self       2   0   256  ; -1421644046
3582  1D410000           [02] getglobal  4   1        ; cloakStaticTriggerType
3586  5D810000           [03] getglobal  5   2        ; EMPTY_SYMBOL
358A  9DC10000           [04] getglobal  6   3        ; ZERO_VECTOR
358E  DD010100           [05] getglobal  7   4        ; ZERO_ROTATION
3592  12020000           [06] move       8   0      
3596  A2808003           [07] call       2   7   2  
359A  E4404101           [08] self       3   2   261  ; -412619612
359E  53010000           [09] getupval   5   0      
35A2  4E81C102           [10] gettable   5   5   262  ; "radius"
35A6  4E418002           [11] gettable   5   5   1  
35AA  E2408001           [12] call       3   3   1  
35AE  D9C00100           [13] loadk      3   7        ; 0
35B2  1D010200           [14] getglobal  4   8        ; Engine
35B6  0E414202           [15] gettable   4   4   265  ; -98643418
35BA  22818000           [16] call       4   1   2  
35BE  53010000           [17] getupval   5   0      
35C2  4EC1C202           [18] gettable   5   5   267  ; "damage"
35C6  4E418002           [19] gettable   5   5   1  
35CA  0C410185           [20] settable   4   266 5    ; "baseAmount"
35CE  64014302           [21] self       5   4   268  ; -995861768
35D2  DD010200           [22] getglobal  7   8        ; Engine
35D6  CE41C303           [23] gettable   7   7   269  ; "DT_ELECTRICITY"
35DA  19820300           [24] loadk      8   14       ; 0
35DE  62410002           [25] call       5   4   1  
35E2  64C14302           [26] self       5   4   271  ; -420630141
35E6  D2010000           [27] move       7   0      
35EA  62418001           [28] call       5   3   1  
35EE  64014402           [29] self       5   4   272  ; -2049256907
35F2  E4414400           [30] self       7   0   273  ; -1917464545
35F6  E2810001           [31] call       7   2   2  
35FA  E481C403           [32] self       7   7   274  ; 1769516121
35FE  E2010001           [33] call       7   2   0  
3602  62410000           [34] call       5   0   1  
3606  4B810000           [35] newtable   5   0   2    ; array=0, hash=2
360A  A5010000           [36] closure    6   0      
360E  12008001           [37] move       0   3      
3612  12000000           [38] move       0   0      
3616  12000001           [39] move       0   2      
361A  12000002           [40] move       0   4      
361E  4C818189           [41] settable   5   275 6    ; "Update"
3622  A5410000           [42] closure    6   1      
3626  12000001           [43] move       0   2      
362A  12000000           [44] move       0   0      
362E  4C81018A           [45] settable   5   276 6    ; "Terminate"
3632  5E010001           [46] return     5   2      
3636  1E008000           [47] return     0   1      
                         * constants:
363A  15                 sizek (21)
363B  01                 const type 3
363C  F26E43AB           const [0]: (-1421644046)
3640  04                 const type 4
3641  17                 string size (23)
3642  636C6F616B537461+  "cloakSta"
364A  7469635472696767+  "ticTrigg"
3652  65725479706500     "erType\0"
                         const [1]: "cloakStaticTriggerType"
3659  04                 const type 4
365A  0D                 string size (13)
365B  454D5054595F5359+  "EMPTY_SY"
3663  4D424F4C00         "MBOL\0"
                         const [2]: "EMPTY_SYMBOL"
3668  04                 const type 4
3669  0C                 string size (12)
366A  5A45524F5F564543+  "ZERO_VEC"
3672  544F5200           "TOR\0"
                         const [3]: "ZERO_VECTOR"
3676  04                 const type 4
3677  0E                 string size (14)
3678  5A45524F5F524F54+  "ZERO_ROT"
3680  4154494F4E00       "ATION\0"
                         const [4]: "ZERO_ROTATION"
3686  01                 const type 3
3687  A4EC67E7           const [5]: (-412619612)
368B  04                 const type 4
368C  07                 string size (7)
368D  72616469757300     "radius\0"
                         const [6]: "radius"
3694  03                 const type 3
3695  00000000           const [7]: (0)
3699  04                 const type 4
369A  07                 string size (7)
369B  456E67696E6500     "Engine\0"
                         const [8]: "Engine"
36A2  01                 const type 3
36A3  26D21EFA           const [9]: (-98643418)
36A7  04                 const type 4
36A8  0B                 string size (11)
36A9  62617365416D6F75+  "baseAmou"
36B1  6E7400             "nt\0"
                         const [10]: "baseAmount"
36B4  04                 const type 4
36B5  07                 string size (7)
36B6  64616D61676500     "damage\0"
                         const [11]: "damage"
36BD  01                 const type 3
36BE  F85AA4C4           const [12]: (-995861768)
36C2  04                 const type 4
36C3  0F                 string size (15)
36C4  44545F454C454354+  "DT_ELECT"
36CC  52494349545900     "RICITY\0"
                         const [13]: "DT_ELECTRICITY"
36D3  03                 const type 3
36D4  0000803F           const [14]: (0)
36D8  01                 const type 3
36D9  83B1EDE6           const [15]: (-420630141)
36DD  01                 const type 3
36DE  35D2DA85           const [16]: (-2049256907)
36E2  01                 const type 3
36E3  1FD0B58D           const [17]: (-1917464545)
36E7  01                 const type 3
36E8  59AC7869           const [18]: (1769516121)
36EC  04                 const type 4
36ED  07                 string size (7)
36EE  55706461746500     "Update\0"
                         const [19]: "Update"
36F5  04                 const type 4
36F6  0A                 string size (10)
36F7  5465726D696E6174+  "Terminat"
36FF  6500               "e\0"
                         const [20]: "Terminate"
                         * functions:
3701  02                 sizep (2)
                         
3702                     ** function [0] definition (level 3)
                         ** start of function **
3702  00                 string size (0)
                         source name: (none)
3704  04                 line defined (555)
3705  C5                 last line defined (581)
3706  04                 nups (4)
3707  04                 numparams (0)
3708  00                 is_vararg (0)
3709  00                 maxstacksize (9)
                         * code:
370B  43                 sizecode (67)
370C  13000000           [01] getupval   0   0      
3710  5D000000           [02] getglobal  1   0        ; 1289681407
3714  62808000           [03] call       1   1   2  
3718  0D400000           [04] sub        0   0   1  
fail op	8
371C  08000000           [05] setupval   0   0      
3720  13000000           [06] getupval   0   0      
fail op	21
3724  15008080           [07] concat     0   257 0  
3728  1A000080           [08] jmp        1            ; to [10]
372C  1E008000           [09] return     0   1      
3730  13000000           [10] getupval   0   0      
3734  03804000           [11] add        0   0   258  ; 0
fail op	8
3738  08000000           [12] setupval   0   0      
373C  13008000           [13] getupval   0   1      
3740  24C04000           [14] self       0   0   259  ; -214694299
3744  9D000100           [15] getglobal  2   4        ; Engine
3748  8E404101           [16] gettable   2   2   261  ; "PM_IN_AIR"
374C  22808001           [17] call       0   3   2  
3750  18000000           [18] test       0       0    ; to [20] if true
3754  1A000080           [19] jmp        1            ; to [21]
3758  1E008000           [20] return     0   1      
375C  13008000           [21] getupval   0   1      
3760  24804100           [22] self       0   0   262  ; -1421644046
3764  9DC00100           [23] getglobal  2   7        ; cloakStaticEffectType
3768  DD000200           [24] getglobal  3   8        ; EMPTY_SYMBOL
376C  1D410200           [25] getglobal  4   9        ; ZERO_VECTOR
3770  5D810200           [26] getglobal  5   10       ; ZERO_ROTATION
3774  93018000           [27] getupval   6   1      
3778  22408003           [28] call       0   7   1  
377C  13000001           [29] getupval   0   2      
3780  24C04200           [30] self       0   0   267  ; 1916070914
3784  22800001           [31] call       0   2   2  
3788  5D000300           [32] getglobal  1   12       ; 1672515847
378C  92000000           [33] move       2   0      
3790  62000101           [34] call       1   2   4  
3794  1A000780           [35] jmp        29           ; to [65]
3798  9D410300           [36] getglobal  6   13       ; 1074689893
379C  D2018002           [37] move       7   5      
37A0  A2810001           [38] call       6   2   2  
37A4  98410000           [39] test       6       1    ; to [41] if false
37A8  1AC00580           [40] jmp        24           ; to [65]
37AC  A481C302           [41] self       6   5   270  ; 1511086594
37B0  A2810001           [42] call       6   2   2  
37B4  98410000           [43] test       6       1    ; to [45] if false
37B8  1AC00480           [44] jmp        20           ; to [65]
37BC  A4C1C002           [45] self       6   5   259  ; -214694299
37C0  1D020100           [46] getglobal  8   4        ; Engine
37C4  0E424104           [47] gettable   8   8   261  ; "PM_IN_AIR"
37C8  A2818001           [48] call       6   3   2  
37CC  98410000           [49] test       6       1    ; to [51] if false
37D0  1A400380           [50] jmp        14           ; to [65]
37D4  A4C1C302           [51] self       6   5   271  ; 1800191191
37D8  13028000           [52] getupval   8   1      
37DC  A2818001           [53] call       6   3   2  
37E0  98410000           [54] test       6       1    ; to [56] if false
37E4  1A000280           [55] jmp        9            ; to [65]
37E8  A401C402           [56] self       6   5   272  ; 1230984527
37EC  1D420400           [57] getglobal  8   17       ; Lotus_Game
37F0  0E824404           [58] gettable   8   8   274  ; "AR_IMMUNE_ALL"
37F4  A2818001           [59] call       6   3   2  
37F8  98410000           [60] test       6       1    ; to [62] if false
37FC  1A800080           [61] jmp        3            ; to [65]
3800  A4C1C402           [62] self       6   5   275  ; 1193457265
3804  13028001           [63] getupval   8   3      
3808  A2418001           [64] call       6   3   1  
380C  56800000           [65] tforloop   1       2    ; to [67] if exit
3810  1A00F87F           [66] jmp        -31          ; to [36]
3814  1E008000           [67] return     0   1      
                         * constants:
3818  14                 sizek (20)
3819  01                 const type 3
381A  FFF9DE4C           const [0]: (1289681407)
381E  03                 const type 3
381F  00000000           const [1]: (0)
3823  03                 const type 3
3824  0000803F           const [2]: (0)
3828  01                 const type 3
3829  650634F3           const [3]: (-214694299)
382D  04                 const type 4
382E  07                 string size (7)
382F  456E67696E6500     "Engine\0"
                         const [4]: "Engine"
3836  04                 const type 4
3837  0A                 string size (10)
3838  504D5F494E5F4149+  "PM_IN_AI"
3840  5200               "R\0"
                         const [5]: "PM_IN_AIR"
3842  01                 const type 3
3843  F26E43AB           const [6]: (-1421644046)
3847  04                 const type 4
3848  16                 string size (22)
3849  636C6F616B537461+  "cloakSta"
3851  7469634566666563+  "ticEffec"
3859  745479706500       "tType\0"
                         const [7]: "cloakStaticEffectType"
385F  04                 const type 4
3860  0D                 string size (13)
3861  454D5054595F5359+  "EMPTY_SY"
3869  4D424F4C00         "MBOL\0"
                         const [8]: "EMPTY_SYMBOL"
386E  04                 const type 4
386F  0C                 string size (12)
3870  5A45524F5F564543+  "ZERO_VEC"
3878  544F5200           "TOR\0"
                         const [9]: "ZERO_VECTOR"
387C  04                 const type 4
387D  0E                 string size (14)
387E  5A45524F5F524F54+  "ZERO_ROT"
3886  4154494F4E00       "ATION\0"
                         const [10]: "ZERO_ROTATION"
388C  01                 const type 3
388D  02EC3472           const [11]: (1916070914)
3891  01                 const type 3
3892  0791B063           const [12]: (1672515847)
3896  01                 const type 3
3897  65770E40           const [13]: (1074689893)
389B  01                 const type 3
389C  025A115A           const [14]: (1511086594)
38A0  01                 const type 3
38A1  D7BC4C6B           const [15]: (1800191191)
38A5  01                 const type 3
38A6  4F555F49           const [16]: (1230984527)
38AA  04                 const type 4
38AB  0B                 string size (11)
38AC  4C6F7475735F4761+  "Lotus_Ga"
38B4  6D6500             "me\0"
                         const [17]: "Lotus_Game"
38B7  04                 const type 4
38B8  0E                 string size (14)
38B9  41525F494D4D554E+  "AR_IMMUN"
38C1  455F414C4C00       "E_ALL\0"
                         const [18]: "AR_IMMUNE_ALL"
38C7  01                 const type 3
38C8  71B62247           const [19]: (1193457265)
                         * functions:
38CC  00                 sizep (0)
                         * lines:
38CD  43                 sizelineinfo (67)
                         [pc] (line)
38CE  2C                 [01] (44)
38CF  02                 [02] (44)
38D0  00                 [03] (44)
38D1  00                 [04] (44)
38D2  2C                 [05] (44)
38D3  02                 [06] (45)
38D4  00                 [07] (45)
38D5  00                 [08] (45)
38D6  2C                 [09] (46)
38D7  02                 [10] (49)
38D8  00                 [11] (49)
38D9  00                 [12] (49)
38DA  2C                 [13] (51)
38DB  02                 [14] (51)
38DC  00                 [15] (51)
38DD  00                 [16] (51)
38DE  2C                 [17] (51)
38DF  02                 [18] (51)
38E0  00                 [19] (51)
38E1  00                 [20] (52)
38E2  2D                 [21] (55)
38E3  02                 [22] (55)
38E4  00                 [23] (55)
38E5  00                 [24] (55)
38E6  2D                 [25] (55)
38E7  02                 [26] (55)
38E8  00                 [27] (55)
38E9  00                 [28] (55)
38EA  2D                 [29] (57)
38EB  02                 [30] (57)
38EC  00                 [31] (57)
38ED  00                 [32] (58)
38EE  2E                 [33] (58)
38EF  02                 [34] (58)
38F0  00                 [35] (58)
38F1  00                 [36] (60)
38F2  31                 [37] (60)
38F3  02                 [38] (60)
38F4  00                 [39] (60)
38F5  00                 [40] (60)
38F6  31                 [41] (61)
38F7  02                 [42] (61)
38F8  00                 [43] (61)
38F9  00                 [44] (61)
38FA  31                 [45] (62)
38FB  02                 [46] (62)
38FC  00                 [47] (62)
38FD  00                 [48] (62)
38FE  33                 [49] (62)
38FF  02                 [50] (62)
3900  00                 [51] (63)
3901  00                 [52] (63)
3902  33                 [53] (63)
3903  02                 [54] (63)
3904  00                 [55] (63)
3905  00                 [56] (64)
3906  33                 [57] (64)
3907  02                 [58] (64)
3908  00                 [59] (64)
3909  00                 [60] (64)
390A  33                 [61] (64)
390B  02                 [62] (66)
390C  00                 [63] (66)
390D  00                 [64] (66)
390E  33                 [65] (58)
390F  02                 [66] (67)
3910  00                 [67] (69)
                         * locals:
39DA  00                 sizelocvars (0)
                         * upvalues:
39DB  00                 sizeupvalues (0)
                         ** end of function **

                         
39DC                     ** function [1] definition (level 3)
                         ** start of function **
39DC  00                 string size (0)
                         source name: (none)
39DE  04                 line defined (583)
39DF  CE                 last line defined (590)
39E0  04                 nups (2)
39E1  02                 numparams (0)
39E2  00                 is_vararg (0)
39E3  00                 maxstacksize (6)
                         * code:
39E5  15                 sizecode (21)
39E6  1D000000           [01] getglobal  0   0        ; 1074689893
39EA  53000000           [02] getupval   1   0      
39EE  22800001           [03] call       0   2   2  
39F2  18400000           [04] test       0       1    ; to [6] if false
39F6  1A800080           [05] jmp        3            ; to [9]
39FA  13000000           [06] getupval   0   0      
39FE  24404000           [07] self       0   0   257  ; -725453761
3A02  22400001           [08] call       0   2   1  
3A06  1D000000           [09] getglobal  0   0        ; 1074689893
3A0A  5D800000           [10] getglobal  1   2        ; cloakPulseEndSound
3A0E  22800001           [11] call       0   2   2  
3A12  18400000           [12] test       0       1    ; to [14] if false
3A16  1A800180           [13] jmp        7            ; to [21]
3A1A  13008000           [14] getupval   0   1      
3A1E  24C04000           [15] self       0   0   259  ; 630793108
3A22  9D800000           [16] getglobal  2   2        ; cloakPulseEndSound
3A26  D7000000           [17] loadbool   3   0   0    ; false
3A2A  19010100           [18] loadk      4   4        ; 0
3A2E  57010000           [19] loadbool   5   0   0    ; false
3A32  22400003           [20] call       0   6   1  
3A36  1E008000           [21] return     0   1      
                         * constants:
3A3A  05                 sizek (5)
3A3B  01                 const type 3
3A3C  65770E40           const [0]: (1074689893)
3A40  01                 const type 3
3A41  3F74C2D4           const [1]: (-725453761)
3A45  04                 const type 4
3A46  13                 string size (19)
3A47  636C6F616B50756C+  "cloakPul"
3A4F  7365456E64536F75+  "seEndSou"
3A57  6E6400             "nd\0"
                         const [2]: "cloakPulseEndSound"
3A5A  01                 const type 3
3A5B  94239925           const [3]: (630793108)
3A5F  03                 const type 3
3A60  00000000           const [4]: (0)
                         * functions:
3A64  00                 sizep (0)
                         * lines:
3A65  15                 sizelineinfo (21)
                         [pc] (line)
3A66  48                 [01] (72)
3A67  02                 [02] (72)
3A68  00                 [03] (72)
3A69  00                 [04] (72)
3A6A  48                 [05] (72)
3A6B  02                 [06] (73)
3A6C  00                 [07] (73)
3A6D  00                 [08] (73)
3A6E  48                 [09] (75)
3A6F  02                 [10] (75)
3A70  00                 [11] (75)
3A71  00                 [12] (75)
3A72  48                 [13] (75)
3A73  02                 [14] (76)
3A74  00                 [15] (76)
3A75  00                 [16] (76)
3A76  48                 [17] (76)
3A77  02                 [18] (76)
3A78  00                 [19] (76)
3A79  00                 [20] (76)
3A7A  49                 [21] (78)
                         * locals:
3ABA  00                 sizelocvars (0)
                         * upvalues:
3ABB  00                 sizeupvalues (0)
                         ** end of function **

                         * lines:
3ABC  2F                 sizelineinfo (47)
                         [pc] (line)
3ABD  1F                 [01] (31)
3ABE  02                 [02] (31)
3ABF  00                 [03] (31)
3AC0  00                 [04] (31)
3AC1  1F                 [05] (31)
3AC2  02                 [06] (31)
3AC3  00                 [07] (31)
3AC4  00                 [08] (32)
3AC5  1F                 [09] (32)
3AC6  02                 [10] (32)
3AC7  00                 [11] (32)
3AC8  00                 [12] (32)
3AC9  1F                 [13] (34)
3ACA  02                 [14] (35)
3ACB  00                 [15] (35)
3ACC  00                 [16] (35)
3ACD  1F                 [17] (36)
3ACE  02                 [18] (36)
3ACF  00                 [19] (36)
3AD0  00                 [20] (36)
3AD1  1F                 [21] (37)
3AD2  02                 [22] (37)
3AD3  00                 [23] (37)
3AD4  00                 [24] (37)
3AD5  1F                 [25] (37)
3AD6  02                 [26] (38)
3AD7  00                 [27] (38)
3AD8  00                 [28] (38)
3AD9  20                 [29] (39)
3ADA  02                 [30] (39)
3ADB  00                 [31] (39)
3ADC  00                 [32] (39)
3ADD  20                 [33] (39)
3ADE  02                 [34] (39)
3ADF  00                 [35] (41)
3AE0  00                 [36] (69)
3AE1  20                 [37] (69)
3AE2  02                 [38] (69)
3AE3  00                 [39] (69)
3AE4  00                 [40] (69)
3AE5  20                 [41] (69)
3AE6  02                 [42] (78)
3AE7  00                 [43] (78)
3AE8  00                 [44] (78)
3AE9  20                 [45] (78)
3AEA  02                 [46] (79)
3AEB  00                 [47] (80)
                         * locals:
3B79  00                 sizelocvars (0)
                         * upvalues:
3B7A  00                 sizeupvalues (0)
                         ** end of function **

                         
3B7B                     ** function [7] definition (level 2)
                         ** start of function **
3B7B  00                 string size (0)
                         source name: (none)
3B7D  04                 line defined (594)
3B7E  BC                 last line defined (700)
3B7F  05                 nups (2)
3B80  02                 numparams (1)
3B81  01                 is_vararg (0)
3B82  00                 maxstacksize (22)
                         * code:
3B85  02                 sizecode (283)
3B86  53000000           [001] getupval   1   0      
3B8A  4E00C000           [002] gettable   1   1   256  ; -75093794
3B8E  92000000           [003] move       2   0      
3B92  D3008000           [004] getupval   3   1      
3B96  CE40C001           [005] gettable   3   3   257  ; "tag"
3B9A  13018000           [006] getupval   4   1      
3B9E  0E814002           [007] gettable   4   4   258  ; "maxCrit"
3BA2  62800002           [008] call       1   4   2  
3BA6  93008000           [009] getupval   2   1      
3BAA  8E804001           [010] gettable   2   2   258  ; "maxCrit"
3BAE  8E400001           [011] gettable   2   2   1  
3BB2  D3008000           [012] getupval   3   1      
3BB6  CEC0C001           [013] gettable   3   3   259  ; "buildTime"
3BBA  CE408001           [014] gettable   3   3   1  
3BBE  13018000           [015] getupval   4   1      
3BC2  0E014102           [016] gettable   4   4   260  ; "degradeTime"
3BC6  0E410002           [017] gettable   4   4   1  
3BCA  46018002           [018] loadnil    5   5      
3BCE  A4414100           [019] self       6   0   261  ; -1764426596
3BD2  A2810001           [020] call       6   2   2  
3BD6  DD810100           [021] getglobal  7   6        ; 1074689893
3BDA  12020003           [022] move       8   6      
3BDE  E2810001           [023] call       7   2   2  
3BE2  D8410000           [024] test       7       1    ; to [26] if false
3BE6  1A400180           [025] jmp        6            ; to [32]
3BEA  E4C14103           [026] self       7   6   263  ; -1813551355
3BEE  E2810001           [027] call       7   2   2  
3BF2  52018003           [028] move       5   7      
fail op	35
3BF6  23008002           [029] close      0  
3BFA  1A000080           [030] jmp        1            ; to [32]
3BFE  46018002           [031] loadnil    5   5      
3C02  DD010200           [032] getglobal  7   8        ; Lotus_Game
3C06  CE41C203           [033] gettable   7   7   265  ; -84065502
3C0A  E2818000           [034] call       7   1   2  
3C0E  CC010085           [035] settable   7   266 0    ; "instigator"
3C12  0B020001           [036] newtable   8   2   0    ; array=2, hash=0
3C16  52020000           [037] move       9   0      
3C1A  92028002           [038] move       10  5      
3C1E  1B420001           [039] setlist    8   2   1    ; index 1 to 2
3C22  CC018285           [040] settable   7   267 8    ; "affected"
3C26  1D020200           [041] getglobal  8   8        ; Lotus_Game
3C2A  0E424304           [042] gettable   8   8   269  ; "BT_PERCENT"
3C2E  CC010286           [043] settable   7   268 8    ; "buffType"
3C32  1DC20300           [044] getglobal  8   15       ; 738251817
3C36  59020400           [045] loadk      9   16       ; "/Lotus/Upgrades/Focus/Tactic/Active/CloakMeleeCritFocusUpgrade"
3C3A  22820001           [046] call       8   2   2  
3C3E  CC010287           [047] settable   7   270 8    ; "abilityType"
3C42  19420400           [048] loadk      8   17       ; 0
3C46  46028004           [049] loadnil    9   9      
3C4A  A4824400           [050] self       10  0   274  ; -1917464545
3C4E  A2820001           [051] call       10  2   2  
3C52  C6028005           [052] loadnil    11  11     
3C56  1D830100           [053] getglobal  12  6        ; 1074689893
3C5A  52038002           [054] move       13  5      
3C5E  22830001           [055] call       12  2   2  
3C62  18430000           [056] test       12      1    ; to [58] if false
3C66  1A800080           [057] jmp        3            ; to [61]
3C6A  2483C402           [058] self       12  5   274  ; -1917464545
3C6E  22830001           [059] call       12  2   2  
3C72  D2020006           [060] move       11  12     
3C76  1D830100           [061] getglobal  12  6        ; 1074689893
3C7A  52030000           [062] move       13  0      
3C7E  22830001           [063] call       12  2   2  
3C82  18430000           [064] test       12      1    ; to [66] if false
3C86  1A401480           [065] jmp        82           ; to [148]
3C8A  24C34400           [066] self       12  0   275  ; 1511086594
3C8E  22830001           [067] call       12  2   2  
3C92  18430000           [068] test       12      1    ; to [70] if false
3C96  1A401380           [069] jmp        78           ; to [148]
3C9A  24034500           [070] self       12  0   276  ; -9119740
3C9E  22830001           [071] call       12  2   2  
3CA2  18030000           [072] test       12      0    ; to [74] if true
3CA6  1A401280           [073] jmp        74           ; to [148]
3CAA  1D430500           [074] getglobal  12  21       ; -1828500651
3CAE  59430400           [075] loadk      13  17       ; 0
3CB2  92030001           [076] move       14  2      
3CB6  DD830500           [077] getglobal  15  22       ; math
3CBA  CEC3C507           [078] gettable   15  15  279  ; 1710846250
3CBE  19040600           [079] loadk      16  24       ; 0
3CC2  5CC40004           [080] div        17  8   3  
3CC6  E2038001           [081] call       15  3   0  
3CCA  22830000           [082] call       12  0   2  
fail op	35
3CCE  63400206           [083] close      1  
3CD2  1A800D80           [084] jmp        55           ; to [140]
fail op	35
3CD6  6340C604           [085] close      1  
3CDA  1A000580           [086] jmp        21           ; to [108]
3CDE  64834605           [087] self       13  10  282  ; -233482841
3CE2  DDC30600           [088] getglobal  15  27       ; Game
3CE6  CE03C707           [089] gettable   15  15  284  ; "WEAPON_CRIT_CHANCE"
3CEA  1DC40600           [090] getglobal  16  27       ; Game
3CEE  0E444708           [091] gettable   16  16  285  ; "ADD"
3CF2  52048004           [092] move       17  9      
3CF6  9D840700           [093] getglobal  18  30       ; gLotusMeleeWeaponType
3CFA  62430003           [094] call       13  6   1  
3CFE  5D830100           [095] getglobal  13  6        ; 1074689893
3D02  92038005           [096] move       14  11     
3D06  62830001           [097] call       13  2   2  
3D0A  58430000           [098] test       13      1    ; to [100] if false
3D0E  1AC00180           [099] jmp        8            ; to [108]
3D12  6483C605           [100] self       13  11  282  ; -233482841
3D16  DDC30600           [101] getglobal  15  27       ; Game
3D1A  CE03C707           [102] gettable   15  15  284  ; "WEAPON_CRIT_CHANCE"
3D1E  1DC40600           [103] getglobal  16  27       ; Game
3D22  0E444708           [104] gettable   16  16  285  ; "ADD"
3D26  52048004           [105] move       17  9      
3D2A  9D840700           [106] getglobal  18  30       ; gLotusMeleeWeaponType
3D2E  62430003           [107] call       13  6   1  
3D32  64C34705           [108] self       13  10  287  ; 991629753
3D36  DDC30600           [109] getglobal  15  27       ; Game
3D3A  CE03C707           [110] gettable   15  15  284  ; "WEAPON_CRIT_CHANCE"
3D3E  1DC40600           [111] getglobal  16  27       ; Game
3D42  0E444708           [112] gettable   16  16  285  ; "ADD"
3D46  52040006           [113] move       17  12     
3D4A  9D840700           [114] getglobal  18  30       ; gLotusMeleeWeaponType
3D4E  62430003           [115] call       13  6   1  
3D52  5D830100           [116] getglobal  13  6        ; 1074689893
3D56  92038005           [117] move       14  11     
3D5A  62830001           [118] call       13  2   2  
3D5E  58430000           [119] test       13      1    ; to [121] if false
3D62  1AC00180           [120] jmp        8            ; to [129]
3D66  64C3C705           [121] self       13  11  287  ; 991629753
3D6A  DDC30600           [122] getglobal  15  27       ; Game
3D6E  CE03C707           [123] gettable   15  15  284  ; "WEAPON_CRIT_CHANCE"
3D72  1DC40600           [124] getglobal  16  27       ; Game
3D76  0E444708           [125] gettable   16  16  285  ; "ADD"
3D7A  52040006           [126] move       17  12     
3D7E  9D840700           [127] getglobal  18  30       ; gLotusMeleeWeaponType
3D82  62430003           [128] call       13  6   1  
3D86  5D830500           [129] getglobal  13  22       ; math
3D8A  4E43C806           [130] gettable   13  13  289  ; -1124579617
3D8E  84834806           [131] mul        14  12  290  ; 0
3D92  62830001           [132] call       13  2   2  
3D96  CC410390           [133] settable   7   288 13   ; "buffData"
3D9A  64C34800           [134] self       13  0   291  ; 1481577430
3D9E  D2038003           [135] move       15  7      
3DA2  17048000           [136] loadbool   16  1   0    ; true
3DA6  57048000           [137] loadbool   17  1   0    ; true
3DAA  62438002           [138] call       13  5   1  
3DAE  52020006           [139] move       9   12     
3DB2  5D030900           [140] getglobal  13  36       ; 538022378
3DB6  99430900           [141] loadk      14  37       ; -51
3DBA  62430001           [142] call       13  2   1  
3DBE  43434904           [143] add        13  8   293  ; -51
3DC2  9D830900           [144] getglobal  14  38       ; 1289681407
3DC6  A2838000           [145] call       14  1   2  
3DCA  03828306           [146] add        8   13  14 
3DCE  1A00EA7F           [147] jmp        -87          ; to [61]
3DD2  52038004           [148] move       13  9      
fail op	35
3DD6  2340C606           [149] close      0  
3DDA  1A000080           [150] jmp        1            ; to [152]
3DDE  1E008000           [151] return     0   1      
3DE2  9D030900           [152] getglobal  14  36       ; 538022378
3DE6  D9C30900           [153] loadk      15  39       ; -102
3DEA  A2430001           [154] call       14  2   1  
3DEE  99C30900           [155] loadk      14  39       ; -102
3DF2  DD830100           [156] getglobal  15  6        ; 1074689893
3DF6  12040000           [157] move       16  0      
3DFA  E2830001           [158] call       15  2   2  
3DFE  D8430000           [159] test       15      1    ; to [161] if false
3E02  1A001680           [160] jmp        89           ; to [250]
3E06  E4C34400           [161] self       15  0   275  ; 1511086594
3E0A  E2830001           [162] call       15  2   2  
3E0E  D8430000           [163] test       15      1    ; to [165] if false
3E12  1A001580           [164] jmp        85           ; to [250]
3E16  E4034500           [165] self       15  0   276  ; -9119740
3E1A  E2830001           [166] call       15  2   2  
3E1E  D8030000           [167] test       15      0    ; to [169] if true
3E22  1AC00080           [168] jmp        4            ; to [173]
3E26  E4034A00           [169] self       15  0   296  ; -564624675
3E2A  E2830001           [170] call       15  2   2  
3E2E  D8430000           [171] test       15      1    ; to [173] if false
3E32  1A001380           [172] jmp        77           ; to [250]
3E36  DD430500           [173] getglobal  15  21       ; -1828500651
3E3A  12048006           [174] move       16  13     
3E3E  59440400           [175] loadk      17  17       ; 0
3E42  9D840500           [176] getglobal  18  22       ; math
3E46  8EC44509           [177] gettable   18  18  279  ; 1710846250
3E4A  D9040600           [178] loadk      19  24       ; 0
3E4E  1C050107           [179] div        20  14  4  
3E52  A2048001           [180] call       18  3   0  
3E56  E2830000           [181] call       15  0   2  
fail op	35
3E5A  63408207           [182] close      1  
3E5E  1A800D80           [183] jmp        55           ; to [239]
fail op	35
3E62  6340C604           [184] close      1  
3E66  1A000580           [185] jmp        21           ; to [207]
3E6A  24844605           [186] self       16  10  282  ; -233482841
3E6E  9DC40600           [187] getglobal  18  27       ; Game
3E72  8E044709           [188] gettable   18  18  284  ; "WEAPON_CRIT_CHANCE"
3E76  DDC40600           [189] getglobal  19  27       ; Game
3E7A  CE44C709           [190] gettable   19  19  285  ; "ADD"
3E7E  12058004           [191] move       20  9      
3E82  5D850700           [192] getglobal  21  30       ; gLotusMeleeWeaponType
3E86  22440003           [193] call       16  6   1  
3E8A  1D840100           [194] getglobal  16  6        ; 1074689893
3E8E  52048005           [195] move       17  11     
3E92  22840001           [196] call       16  2   2  
3E96  18440000           [197] test       16      1    ; to [199] if false
3E9A  1AC00180           [198] jmp        8            ; to [207]
3E9E  2484C605           [199] self       16  11  282  ; -233482841
3EA2  9DC40600           [200] getglobal  18  27       ; Game
3EA6  8E044709           [201] gettable   18  18  284  ; "WEAPON_CRIT_CHANCE"
3EAA  DDC40600           [202] getglobal  19  27       ; Game
3EAE  CE44C709           [203] gettable   19  19  285  ; "ADD"
3EB2  12058004           [204] move       20  9      
3EB6  5D850700           [205] getglobal  21  30       ; gLotusMeleeWeaponType
3EBA  22440003           [206] call       16  6   1  
3EBE  24C44705           [207] self       16  10  287  ; 991629753
3EC2  9DC40600           [208] getglobal  18  27       ; Game
3EC6  8E044709           [209] gettable   18  18  284  ; "WEAPON_CRIT_CHANCE"
3ECA  DDC40600           [210] getglobal  19  27       ; Game
3ECE  CE44C709           [211] gettable   19  19  285  ; "ADD"
3ED2  12058007           [212] move       20  15     
3ED6  5D850700           [213] getglobal  21  30       ; gLotusMeleeWeaponType
3EDA  22440003           [214] call       16  6   1  
3EDE  1D840100           [215] getglobal  16  6        ; 1074689893
3EE2  52048005           [216] move       17  11     
3EE6  22840001           [217] call       16  2   2  
3EEA  18440000           [218] test       16      1    ; to [220] if false
3EEE  1AC00180           [219] jmp        8            ; to [228]
3EF2  24C4C705           [220] self       16  11  287  ; 991629753
3EF6  9DC40600           [221] getglobal  18  27       ; Game
3EFA  8E044709           [222] gettable   18  18  284  ; "WEAPON_CRIT_CHANCE"
3EFE  DDC40600           [223] getglobal  19  27       ; Game
3F02  CE44C709           [224] gettable   19  19  285  ; "ADD"
3F06  12058007           [225] move       20  15     
3F0A  5D850700           [226] getglobal  21  30       ; gLotusMeleeWeaponType
3F0E  22440003           [227] call       16  6   1  
3F12  1D840500           [228] getglobal  16  22       ; math
3F16  0E444808           [229] gettable   16  16  289  ; -1124579617
3F1A  4484C807           [230] mul        17  15  290  ; 0
3F1E  22840001           [231] call       16  2   2  
3F22  CC010490           [232] settable   7   288 16   ; "buffData"
3F26  24C44800           [233] self       16  0   291  ; 1481577430
3F2A  92048003           [234] move       18  7      
3F2E  D7048000           [235] loadbool   19  1   0    ; true
3F32  17058000           [236] loadbool   20  1   0    ; true
3F36  22448002           [237] call       16  5   1  
3F3A  52028007           [238] move       9   15     
fail op	33
3F3E  2140C404           [239] tforloop   0       273  ; to [241] if exit
3F42  1A000080           [240] jmp        1            ; to [242]
3F46  1AC00180           [241] jmp        8            ; to [250]
3F4A  1D040900           [242] getglobal  16  36       ; 538022378
3F4E  59440900           [243] loadk      17  37       ; -51
3F52  22440001           [244] call       16  2   1  
3F56  03444907           [245] add        16  14  293  ; -51
3F5A  5D840900           [246] getglobal  17  38       ; 1289681407
3F5E  62848000           [247] call       17  1   2  
3F62  83430408           [248] add        14  16  17 
3F66  1A40E87F           [249] jmp        -94          ; to [156]
3F6A  1D840100           [250] getglobal  16  6        ; 1074689893
3F6E  52040000           [251] move       17  0      
3F72  22840001           [252] call       16  2   2  
3F76  18440000           [253] test       16      1    ; to [255] if false
3F7A  1AC00680           [254] jmp        28           ; to [283]
fail op	35
3F7E  6340C604           [255] close      1  
3F82  1A400680           [256] jmp        26           ; to [283]
3F86  24844605           [257] self       16  10  282  ; -233482841
3F8A  9DC40600           [258] getglobal  18  27       ; Game
3F8E  8E044709           [259] gettable   18  18  284  ; "WEAPON_CRIT_CHANCE"
3F92  DDC40600           [260] getglobal  19  27       ; Game
3F96  CE44C709           [261] gettable   19  19  285  ; "ADD"
3F9A  12058004           [262] move       20  9      
3F9E  5D850700           [263] getglobal  21  30       ; gLotusMeleeWeaponType
3FA2  22440003           [264] call       16  6   1  
3FA6  1D840100           [265] getglobal  16  6        ; 1074689893
3FAA  52048005           [266] move       17  11     
3FAE  22840001           [267] call       16  2   2  
3FB2  18440000           [268] test       16      1    ; to [270] if false
3FB6  1AC00180           [269] jmp        8            ; to [278]
3FBA  2484C605           [270] self       16  11  282  ; -233482841
3FBE  9DC40600           [271] getglobal  18  27       ; Game
3FC2  8E044709           [272] gettable   18  18  284  ; "WEAPON_CRIT_CHANCE"
3FC6  DDC40600           [273] getglobal  19  27       ; Game
3FCA  CE44C709           [274] gettable   19  19  285  ; "ADD"
3FCE  12058004           [275] move       20  9      
3FD2  5D850700           [276] getglobal  21  30       ; gLotusMeleeWeaponType
3FD6  22440003           [277] call       16  6   1  
3FDA  24C44800           [278] self       16  0   291  ; 1481577430
3FDE  92048003           [279] move       18  7      
3FE2  D7040000           [280] loadbool   19  0   0    ; false
3FE6  17058000           [281] loadbool   20  1   0    ; true
3FEA  22448002           [282] call       16  5   1  
3FEE  1E008000           [283] return     0   1      
                         * constants:
3FF2  29                 sizek (41)
3FF3  01                 const type 3
3FF4  DE2886FB           const [0]: (-75093794)
3FF8  04                 const type 4
3FF9  04                 string size (4)
3FFA  74616700           "tag\0"
                         const [1]: "tag"
3FFE  04                 const type 4
3FFF  08                 string size (8)
4000  6D61784372697400   "maxCrit\0"
                         const [2]: "maxCrit"
4008  04                 const type 4
4009  0A                 string size (10)
400A  6275696C6454696D+  "buildTim"
4012  6500               "e\0"
                         const [3]: "buildTime"
4014  04                 const type 4
4015  0C                 string size (12)
4016  6465677261646554+  "degradeT"
401E  696D6500           "ime\0"
                         const [4]: "degradeTime"
4022  01                 const type 3
4023  9CFCD496           const [5]: (-1764426596)
4027  01                 const type 3
4028  65770E40           const [6]: (1074689893)
402C  01                 const type 3
402D  0567E793           const [7]: (-1813551355)
4031  04                 const type 4
4032  0B                 string size (11)
4033  4C6F7475735F4761+  "Lotus_Ga"
403B  6D6500             "me\0"
                         const [8]: "Lotus_Game"
403E  01                 const type 3
403F  2243FDFA           const [9]: (-84065502)
4043  04                 const type 4
4044  0B                 string size (11)
4045  696E737469676174+  "instigat"
404D  6F7200             "or\0"
                         const [10]: "instigator"
4050  04                 const type 4
4051  09                 string size (9)
4052  6166666563746564+  "affected"
405A  00                 "\0"
                         const [11]: "affected"
405B  04                 const type 4
405C  09                 string size (9)
405D  6275666654797065+  "buffType"
4065  00                 "\0"
                         const [12]: "buffType"
4066  04                 const type 4
4067  0B                 string size (11)
4068  42545F5045524345+  "BT_PERCE"
4070  4E5400             "NT\0"
                         const [13]: "BT_PERCENT"
4073  04                 const type 4
4074  0C                 string size (12)
4075  6162696C69747954+  "abilityT"
407D  79706500           "ype\0"
                         const [14]: "abilityType"
4081  01                 const type 3
4082  29D4002C           const [15]: (738251817)
4086  04                 const type 4
4087  3F                 string size (63)
4088  2F4C6F7475732F55+  "/Lotus/U"
4090  706772616465732F+  "pgrades/"
4098  466F6375732F5461+  "Focus/Ta"
40A0  637469632F416374+  "ctic/Act"
40A8  6976652F436C6F61+  "ive/Cloa"
40B0  6B4D656C65654372+  "kMeleeCr"
40B8  6974466F63757355+  "itFocusU"
40C0  70677261646500     "pgrade\0"
                         const [16]: "/Lotus/Upgrades/Focus/Tactic/Active/CloakMeleeCritFocusUpgrade"
40C7  03                 const type 3
40C8  00000000           const [17]: (0)
40CC  01                 const type 3
40CD  1FD0B58D           const [18]: (-1917464545)
40D1  01                 const type 3
40D2  025A115A           const [19]: (1511086594)
40D6  01                 const type 3
40D7  04D874FF           const [20]: (-9119740)
40DB  01                 const type 3
40DC  554B0393           const [21]: (-1828500651)
40E0  04                 const type 4
40E1  05                 string size (5)
40E2  6D61746800         "math\0"
                         const [22]: "math"
40E7  01                 const type 3
40E8  2A71F965           const [23]: (1710846250)
40EC  03                 const type 3
40ED  0000803F           const [24]: (0)
40F1  00                 const type 0
                         const [25]: nil
40F2  01                 const type 3
40F3  A75515F2           const [26]: (-233482841)
40F7  04                 const type 4
40F8  05                 string size (5)
40F9  47616D6500         "Game\0"
                         const [27]: "Game"
40FE  04                 const type 4
40FF  13                 string size (19)
4100  574541504F4E5F43+  "WEAPON_C"
4108  5249545F4348414E+  "RIT_CHAN"
4110  434500             "CE\0"
                         const [28]: "WEAPON_CRIT_CHANCE"
4113  04                 const type 4
4114  04                 string size (4)
4115  41444400           "ADD\0"
                         const [29]: "ADD"
4119  04                 const type 4
411A  16                 string size (22)
411B  674C6F7475734D65+  "gLotusMe"
4123  6C6565576561706F+  "leeWeapo"
412B  6E5479706500       "nType\0"
                         const [30]: "gLotusMeleeWeaponType"
4131  01                 const type 3
4132  B9111B3B           const [31]: (991629753)
4136  04                 const type 4
4137  09                 string size (9)
4138  6275666644617461+  "buffData"
4140  00                 "\0"
                         const [32]: "buffData"
4141  01                 const type 3
4142  DF46F8BC           const [33]: (-1124579617)
4146  03                 const type 3
4147  0000C842           const [34]: (0)
414B  01                 const type 3
414C  D6134F58           const [35]: (1481577430)
4150  01                 const type 3
4151  EA911120           const [36]: (538022378)
4155  03                 const type 3
4156  CDCCCC3D           const [37]: (-51)
415A  01                 const type 3
415B  FFF9DE4C           const [38]: (1289681407)
415F  03                 const type 3
4160  9A99993E           const [39]: (-102)
4164  01                 const type 3
4165  DD8258DE           const [40]: (-564624675)
                         * functions:
4169  00                 sizep (0)
                         * lines:
416B  02                 sizelineinfo (283)
                         [pc] (line)
416C  53                 [001] (83)
416D  02                 [002] (83)
416E  00                 [003] (83)
416F  00                 [004] (83)
4170  53                 [005] (83)
4171  02                 [006] (83)
4172  00                 [007] (83)
4173  00                 [008] (83)
4174  53                 [009] (85)
4175  02                 [010] (85)
4176  00                 [011] (85)
4177  00                 [012] (86)
4178  53                 [013] (86)
4179  02                 [014] (86)
417A  00                 [015] (87)
417B  00                 [016] (87)
417C  53                 [017] (87)
417D  02                 [018] (89)
417E  00                 [019] (90)
417F  00                 [020] (90)
4180  53                 [021] (91)
4181  02                 [022] (91)
4182  00                 [023] (91)
4183  00                 [024] (91)
4184  53                 [025] (91)
4185  02                 [026] (92)
4186  00                 [027] (92)
4187  00                 [028] (92)
4188  53                 [029] (93)
4189  02                 [030] (93)
418A  00                 [031] (94)
418B  00                 [032] (98)
418C  55                 [033] (98)
418D  02                 [034] (98)
418E  00                 [035] (99)
418F  00                 [036] (100)
4190  55                 [037] (100)
4191  02                 [038] (100)
4192  00                 [039] (100)
4193  00                 [040] (100)
4194  55                 [041] (101)
4195  02                 [042] (101)
4196  00                 [043] (101)
4197  00                 [044] (102)
4198  56                 [045] (102)
4199  02                 [046] (102)
419A  00                 [047] (102)
419B  00                 [048] (104)
419C  56                 [049] (105)
419D  02                 [050] (106)
419E  00                 [051] (106)
419F  00                 [052] (107)
41A0  56                 [053] (108)
41A1  02                 [054] (108)
41A2  00                 [055] (108)
41A3  00                 [056] (108)
41A4  57                 [057] (108)
41A5  02                 [058] (109)
41A6  00                 [059] (109)
41A7  00                 [060] (109)
41A8  57                 [061] (112)
41A9  02                 [062] (112)
41AA  00                 [063] (112)
41AB  00                 [064] (112)
41AC  57                 [065] (112)
41AD  02                 [066] (113)
41AE  00                 [067] (113)
41AF  00                 [068] (113)
41B0  59                 [069] (113)
41B1  02                 [070] (114)
41B2  00                 [071] (114)
41B3  00                 [072] (114)
41B4  5A                 [073] (114)
41B5  02                 [074] (116)
41B6  00                 [075] (116)
41B7  00                 [076] (116)
41B8  5A                 [077] (116)
41B9  02                 [078] (116)
41BA  00                 [079] (116)
41BB  00                 [080] (116)
41BC  5B                 [081] (116)
41BD  02                 [082] (116)
41BE  00                 [083] (117)
41BF  00                 [084] (117)
41C0  5B                 [085] (118)
41C1  02                 [086] (118)
41C2  00                 [087] (119)
41C3  00                 [088] (119)
41C4  5B                 [089] (119)
41C5  02                 [090] (119)
41C6  00                 [091] (119)
41C7  00                 [092] (119)
41C8  5B                 [093] (119)
41C9  02                 [094] (119)
41CA  00                 [095] (120)
41CB  00                 [096] (120)
41CC  5B                 [097] (120)
41CD  02                 [098] (120)
41CE  00                 [099] (120)
41CF  00                 [100] (121)
41D0  5C                 [101] (121)
41D1  02                 [102] (121)
41D2  00                 [103] (121)
41D3  00                 [104] (121)
41D4  5C                 [105] (121)
41D5  02                 [106] (121)
41D6  00                 [107] (121)
41D7  00                 [108] (125)
41D8  5C                 [109] (125)
41D9  02                 [110] (125)
41DA  00                 [111] (125)
41DB  00                 [112] (125)
41DC  5D                 [113] (125)
41DD  02                 [114] (125)
41DE  00                 [115] (125)
41DF  00                 [116] (126)
41E0  5D                 [117] (126)
41E1  02                 [118] (126)
41E2  00                 [119] (126)
41E3  00                 [120] (126)
41E4  5E                 [121] (127)
41E5  02                 [122] (127)
41E6  00                 [123] (127)
41E7  00                 [124] (127)
41E8  62                 [125] (127)
41E9  02                 [126] (127)
41EA  00                 [127] (127)
41EB  00                 [128] (127)
41EC  62                 [129] (-126)
41ED  02                 [130] (-126)
41EE  00                 [131] (-126)
41EF  00                 [132] (-126)
41F0  62                 [133] (-126)
41F1  02                 [134] (-125)
41F2  00                 [135] (-125)
41F3  00                 [136] (-125)
41F4  63                 [137] (-125)
41F5  02                 [138] (-125)
41F6  00                 [139] (-123)
41F7  00                 [140] (-120)
41F8  64                 [141] (-120)
41F9  02                 [142] (-120)
41FA  00                 [143] (-119)
41FB  00                 [144] (-119)
41FC  64                 [145] (-119)
41FD  02                 [146] (-119)
41FE  00                 [147] (-119)
41FF  00                 [148] (-116)
4200  64                 [149] (-115)
4201  02                 [150] (-115)
4202  00                 [151] (-114)
4203  00                 [152] (-111)
4204  64                 [153] (-111)
4205  02                 [154] (-111)
4206  00                 [155] (-109)
4207  00                 [156] (-107)
4208  64                 [157] (-107)
4209  02                 [158] (-107)
420A  00                 [159] (-107)
420B  00                 [160] (-107)
420C  65                 [161] (-106)
420D  02                 [162] (-106)
420E  00                 [163] (-106)
420F  00                 [164] (-106)
4210  65                 [165] (-105)
4211  02                 [166] (-105)
4212  00                 [167] (-105)
4213  00                 [168] (-105)
4214  65                 [169] (-105)
4215  02                 [170] (-105)
4216  00                 [171] (-105)
4217  00                 [172] (-105)
4218  66                 [173] (-103)
4219  02                 [174] (-103)
421A  00                 [175] (-103)
421B  00                 [176] (-103)
421C  66                 [177] (-103)
421D  02                 [178] (-103)
421E  00                 [179] (-103)
421F  00                 [180] (-103)
4220  66                 [181] (-103)
4221  02                 [182] (-102)
4222  00                 [183] (-102)
4223  00                 [184] (-101)
4224  66                 [185] (-101)
4225  02                 [186] (-100)
4226  00                 [187] (-100)
4227  00                 [188] (-100)
4228  68                 [189] (-100)
4229  02                 [190] (-100)
422A  00                 [191] (-100)
422B  00                 [192] (-100)
422C  69                 [193] (-100)
422D  02                 [194] (-99)
422E  00                 [195] (-99)
422F  00                 [196] (-99)
4230  6A                 [197] (-99)
4231  02                 [198] (-99)
4232  00                 [199] (-98)
4233  00                 [200] (-98)
4234  6A                 [201] (-98)
4235  02                 [202] (-98)
4236  00                 [203] (-98)
4237  00                 [204] (-98)
4238  6B                 [205] (-98)
4239  02                 [206] (-98)
423A  00                 [207] (-94)
423B  00                 [208] (-94)
423C  6C                 [209] (-94)
423D  02                 [210] (-94)
423E  00                 [211] (-94)
423F  00                 [212] (-94)
4240  6C                 [213] (-94)
4241  02                 [214] (-94)
4242  00                 [215] (-93)
4243  00                 [216] (-93)
4244  6C                 [217] (-93)
4245  02                 [218] (-93)
4246  00                 [219] (-93)
4247  00                 [220] (-92)
4248  6C                 [221] (-92)
4249  02                 [222] (-92)
424A  00                 [223] (-92)
424B  00                 [224] (-92)
424C  6C                 [225] (-92)
424D  02                 [226] (-92)
424E  00                 [227] (-92)
424F  00                 [228] (-89)
4250  6D                 [229] (-89)
4251  02                 [230] (-89)
4252  00                 [231] (-89)
4253  00                 [232] (-89)
4254  6D                 [233] (-88)
4255  02                 [234] (-88)
4256  00                 [235] (-88)
4257  00                 [236] (-88)
4258  6D                 [237] (-88)
4259  02                 [238] (-86)
425A  00                 [239] (-83)
425B  00                 [240] (-83)
425C  70                 [241] (-82)
425D  02                 [242] (-79)
425E  00                 [243] (-79)
425F  00                 [244] (-79)
4260  70                 [245] (-78)
4261  02                 [246] (-78)
4262  00                 [247] (-78)
4263  00                 [248] (-78)
4264  70                 [249] (-78)
4265  02                 [250] (-75)
4266  00                 [251] (-75)
4267  00                 [252] (-75)
4268  70                 [253] (-75)
4269  02                 [254] (-75)
426A  00                 [255] (-75)
426B  00                 [256] (-75)
426C  70                 [257] (-74)
426D  02                 [258] (-74)
426E  00                 [259] (-74)
426F  00                 [260] (-74)
4270  71                 [261] (-74)
4271  02                 [262] (-74)
4272  00                 [263] (-74)
4273  00                 [264] (-74)
4274  71                 [265] (-73)
4275  02                 [266] (-73)
4276  00                 [267] (-73)
4277  00                 [268] (-73)
4278  71                 [269] (-73)
4279  02                 [270] (-72)
427A  00                 [271] (-72)
427B  00                 [272] (-72)
427C  71                 [273] (-72)
427D  02                 [274] (-72)
427E  00                 [275] (-72)
427F  00                 [276] (-72)
4280  72                 [277] (-72)
4281  02                 [278] (-70)
4282  00                 [279] (-70)
4283  00                 [280] (-70)
4284  72                 [281] (-70)
4285  02                 [282] (-70)
4286  00                 [283] (-68)
                         * locals:
45D8  00                 sizelocvars (0)
                         * upvalues:
45D9  00                 sizeupvalues (0)
                         ** end of function **

                         
45DA                     ** function [8] definition (level 2)
                         ** start of function **
45DA  00                 string size (0)
                         source name: (none)
45DC  05                 line defined (702)
45DD  F0                 last line defined (752)
45DE  05                 nups (1)
45DF  01                 numparams (2)
45E0  02                 is_vararg (0)
45E1  00                 maxstacksize (8)
                         * code:
45E3  16                 sizecode (22)
45E4  93000000           [01] getupval   2   0      
45E8  8E004001           [02] gettable   2   2   256  ; "range"
45EC  8E400001           [03] gettable   2   2   1  
45F0  D3000000           [04] getupval   3   0      
45F4  CE40C001           [05] gettable   3   3   257  ; "fadeTime"
45F8  CE408001           [06] gettable   3   3   1  
45FC  19810000           [07] loadk      4   2        ; 0
4600  4B010000           [08] newtable   5   0   0    ; array=0, hash=0
4604  8B810000           [09] newtable   6   0   2    ; array=0, hash=2
4608  E5010000           [10] closure    7   0      
460C  12000002           [11] move       0   4      
4610  12000000           [12] move       0   0      
4614  12000001           [13] move       0   2      
4618  12008002           [14] move       0   5      
461C  12008001           [15] move       0   3      
4620  8CC18181           [16] settable   6   259 7    ; "Update"
4624  E5410000           [17] closure    7   1      
4628  12008002           [18] move       0   5      
462C  12008001           [19] move       0   3      
4630  8CC10182           [20] settable   6   260 7    ; "Terminate"
4634  9E010001           [21] return     6   2      
4638  1E008000           [22] return     0   1      
                         * constants:
463C  05                 sizek (5)
463D  04                 const type 4
463E  06                 string size (6)
463F  72616E676500       "range\0"
                         const [0]: "range"
4645  04                 const type 4
4646  09                 string size (9)
4647  6661646554696D65+  "fadeTime"
464F  00                 "\0"
                         const [1]: "fadeTime"
4650  03                 const type 3
4651  00000000           const [2]: (0)
4655  04                 const type 4
4656  07                 string size (7)
4657  55706461746500     "Update\0"
                         const [3]: "Update"
465E  04                 const type 4
465F  0A                 string size (10)
4660  5465726D696E6174+  "Terminat"
4668  6500               "e\0"
                         const [4]: "Terminate"
                         * functions:
466A  02                 sizep (2)
                         
466B                     ** function [0] definition (level 3)
                         ** start of function **
466B  00                 string size (0)
                         source name: (none)
466D  05                 line defined (710)
466E  E6                 last line defined (742)
466F  05                 nups (5)
4670  05                 numparams (0)
4671  00                 is_vararg (0)
4672  00                 maxstacksize (16)
                         * code:
4674  4B                 sizecode (75)
4675  13000000           [01] getupval   0   0      
4679  5D000000           [02] getglobal  1   0        ; 1289681407
467D  62808000           [03] call       1   1   2  
4681  0D400000           [04] sub        0   0   1  
fail op	8
4685  08000000           [05] setupval   0   0      
4689  13000000           [06] getupval   0   0      
fail op	21
468D  15008080           [07] concat     0   257 0  
4691  1A000080           [08] jmp        1            ; to [10]
4695  1E008000           [09] return     0   1      
4699  13000000           [10] getupval   0   0      
469D  03804000           [11] add        0   0   258  ; 0
fail op	8
46A1  08000000           [12] setupval   0   0      
46A5  1DC00000           [13] getglobal  0   3        ; gRegion
46A9  24004100           [14] self       0   0   260  ; 152279552
46AD  9D400100           [15] getglobal  2   5        ; gLotusAvatarType
46B1  D3008000           [16] getupval   3   1      
46B5  E480C101           [17] self       3   3   262  ; 1839670529
46B9  E2800001           [18] call       3   2   2  
46BD  19410000           [19] loadk      4   1        ; 0
46C1  53010001           [20] getupval   5   2      
46C5  22800003           [21] call       0   6   2  
46C9  4B000000           [22] newtable   1   0   0    ; array=0, hash=0
46CD  9DC00100           [23] getglobal  2   7        ; 1672515847
46D1  D2000000           [24] move       3   0      
46D5  A2000101           [25] call       2   2   4  
46D9  1A800780           [26] jmp        31           ; to [58]
46DD  E4014203           [27] self       7   6   264  ; 1800191191
46E1  53028000           [28] getupval   9   1      
46E5  E2818001           [29] call       7   3   2  
46E9  D8410000           [30] test       7       1    ; to [32] if false
46ED  1A400680           [31] jmp        26           ; to [58]
46F1  E4414203           [32] self       7   6   265  ; 1230984527
46F5  5D820200           [33] getglobal  9   10       ; Lotus_Game
46F9  4EC2C204           [34] gettable   9   9   267  ; "AR_IMMUNE_ALL"
46FD  E2818001           [35] call       7   3   2  
4701  D8410000           [36] test       7       1    ; to [38] if false
4705  1AC00480           [37] jmp        20           ; to [58]
4709  E4014303           [38] self       7   6   268  ; -605089866
470D  E2810001           [39] call       7   2   2  
4711  13028001           [40] getupval   8   3      
4715  0EC20104           [41] gettable   8   8   7  
fail op	35
4719  23404304           [42] close      0  
471D  1A000280           [43] jmp        9            ; to [53]
4721  24824303           [44] self       8   6   270  ; -1421644046
4725  9DC20300           [45] getglobal  10  15       ; cloakRevealType
4729  DD020400           [46] getglobal  11  16       ; EMPTY_SYMBOL
472D  1D430400           [47] getglobal  12  17       ; ZERO_VECTOR
4731  5D830400           [48] getglobal  13  18       ; ZERO_ROTATION
4735  93038000           [49] getupval   14  1      
4739  22828003           [50] call       8   7   2  
473D  4C008203           [51] settable   1   7   8  
4741  1A000180           [52] jmp        5            ; to [58]
4745  13028001           [53] getupval   8   3      
4749  0EC20104           [54] gettable   8   8   7  
474D  4C008203           [55] settable   1   7   8  
4751  13028001           [56] getupval   8   3      
4755  0C42C303           [57] settable   8   7   269  ; nil
4759  96800000           [58] tforloop   2       2    ; to [60] if exit
475D  1A80F77F           [59] jmp        -33          ; to [27]
4761  1DC20400           [60] getglobal  8   19       ; 248503575
4765  53028001           [61] getupval   9   3      
4769  22020101           [62] call       8   2   4  
476D  1AC00180           [63] jmp        8            ; to [72]
4771  5D030500           [64] getglobal  13  20       ; 1074689893
4775  92030006           [65] move       14  12     
4779  62830001           [66] call       13  2   2  
477D  58430000           [67] test       13      1    ; to [69] if false
4781  1A800080           [68] jmp        3            ; to [72]
4785  64434506           [69] self       13  12  277  ; 1542701132
4789  D3030002           [70] getupval   15  4      
478D  62438001           [71] call       13  3   1  
4791  16820000           [72] tforloop   8       2    ; to [74] if exit
4795  1A40FD7F           [73] jmp        -10          ; to [64]
fail op	8
4799  48008001           [74] setupval   1   3      
479D  1E008000           [75] return     0   1      
                         * constants:
47A1  16                 sizek (22)
47A2  01                 const type 3
47A3  FFF9DE4C           const [0]: (1289681407)
47A7  03                 const type 3
47A8  00000000           const [1]: (0)
47AC  03                 const type 3
47AD  0000003F           const [2]: (0)
47B1  04                 const type 4
47B2  08                 string size (8)
47B3  67526567696F6E00   "gRegion\0"
                         const [3]: "gRegion"
47BB  01                 const type 3
47BC  009A1309           const [4]: (152279552)
47C0  04                 const type 4
47C1  11                 string size (17)
47C2  674C6F7475734176+  "gLotusAv"
47CA  6174617254797065+  "atarType"
47D2  00                 "\0"
                         const [5]: "gLotusAvatarType"
47D3  01                 const type 3
47D4  0125A76D           const [6]: (1839670529)
47D8  01                 const type 3
47D9  0791B063           const [7]: (1672515847)
47DD  01                 const type 3
47DE  D7BC4C6B           const [8]: (1800191191)
47E2  01                 const type 3
47E3  4F555F49           const [9]: (1230984527)
47E7  04                 const type 4
47E8  0B                 string size (11)
47E9  4C6F7475735F4761+  "Lotus_Ga"
47F1  6D6500             "me\0"
                         const [10]: "Lotus_Game"
47F4  04                 const type 4
47F5  0E                 string size (14)
47F6  41525F494D4D554E+  "AR_IMMUN"
47FE  455F414C4C00       "E_ALL\0"
                         const [11]: "AR_IMMUNE_ALL"
4804  01                 const type 3
4805  B60FEFDB           const [12]: (-605089866)
4809  00                 const type 0
                         const [13]: nil
480A  01                 const type 3
480B  F26E43AB           const [14]: (-1421644046)
480F  04                 const type 4
4810  10                 string size (16)
4811  636C6F616B526576+  "cloakRev"
4819  65616C5479706500   "ealType\0"
                         const [15]: "cloakRevealType"
4821  04                 const type 4
4822  0D                 string size (13)
4823  454D5054595F5359+  "EMPTY_SY"
482B  4D424F4C00         "MBOL\0"
                         const [16]: "EMPTY_SYMBOL"
4830  04                 const type 4
4831  0C                 string size (12)
4832  5A45524F5F564543+  "ZERO_VEC"
483A  544F5200           "TOR\0"
                         const [17]: "ZERO_VECTOR"
483E  04                 const type 4
483F  0E                 string size (14)
4840  5A45524F5F524F54+  "ZERO_ROT"
4848  4154494F4E00       "ATION\0"
                         const [18]: "ZERO_ROTATION"
484E  01                 const type 3
484F  17DDCF0E           const [19]: (248503575)
4853  01                 const type 3
4854  65770E40           const [20]: (1074689893)
4858  01                 const type 3
4859  4CC0F35B           const [21]: (1542701132)
                         * functions:
485D  00                 sizep (0)
                         * lines:
485E  4B                 sizelineinfo (75)
                         [pc] (line)
485F  C7                 [01] (-57)
4860  02                 [02] (-57)
4861  00                 [03] (-57)
4862  00                 [04] (-57)
4863  C7                 [05] (-57)
4864  02                 [06] (-56)
4865  00                 [07] (-56)
4866  00                 [08] (-56)
4867  C7                 [09] (-55)
4868  02                 [10] (-52)
4869  00                 [11] (-52)
486A  00                 [12] (-52)
486B  C7                 [13] (-50)
486C  02                 [14] (-50)
486D  00                 [15] (-50)
486E  00                 [16] (-50)
486F  C7                 [17] (-50)
4870  02                 [18] (-50)
4871  00                 [19] (-50)
4872  00                 [20] (-50)
4873  C8                 [21] (-50)
4874  02                 [22] (-49)
4875  00                 [23] (-48)
4876  00                 [24] (-48)
4877  C8                 [25] (-48)
4878  02                 [26] (-48)
4879  00                 [27] (-46)
487A  00                 [28] (-46)
487B  C8                 [29] (-46)
487C  02                 [30] (-46)
487D  00                 [31] (-46)
487E  00                 [32] (-45)
487F  C9                 [33] (-45)
4880  02                 [34] (-45)
4881  00                 [35] (-45)
4882  00                 [36] (-45)
4883  CC                 [37] (-45)
4884  02                 [38] (-43)
4885  00                 [39] (-43)
4886  00                 [40] (-42)
4887  CC                 [41] (-42)
4888  02                 [42] (-42)
4889  00                 [43] (-42)
488A  00                 [44] (-41)
488B  CC                 [45] (-41)
488C  02                 [46] (-41)
488D  00                 [47] (-41)
488E  00                 [48] (-41)
488F  CE                 [49] (-41)
4890  02                 [50] (-41)
4891  00                 [51] (-41)
4892  00                 [52] (-41)
4893  CE                 [53] (-39)
4894  02                 [54] (-39)
4895  00                 [55] (-39)
4896  00                 [56] (-38)
4897  CE                 [57] (-38)
4898  02                 [58] (-48)
4899  00                 [59] (-36)
489A  00                 [60] (-33)
489B  CE                 [61] (-33)
489C  02                 [62] (-33)
489D  00                 [63] (-33)
489E  00                 [64] (-32)
489F  CE                 [65] (-32)
48A0  02                 [66] (-32)
48A1  00                 [67] (-32)
48A2  00                 [68] (-32)
48A3  CE                 [69] (-31)
48A4  02                 [70] (-31)
48A5  00                 [71] (-31)
48A6  00                 [72] (-33)
48A7  CE                 [73] (-30)
48A8  02                 [74] (-27)
48A9  00                 [75] (-26)
                         * locals:
498B  00                 sizelocvars (0)
                         * upvalues:
498C  00                 sizeupvalues (0)
                         ** end of function **

                         
498D                     ** function [1] definition (level 3)
                         ** start of function **
498D  00                 string size (0)
                         source name: (none)
498F  05                 line defined (744)
4990  EE                 last line defined (750)
4991  05                 nups (2)
4992  02                 numparams (0)
4993  00                 is_vararg (0)
4994  00                 maxstacksize (8)
                         * code:
4996  0F                 sizecode (15)
4997  1D000000           [01] getglobal  0   0        ; 248503575
499B  53000000           [02] getupval   1   0      
499F  22000101           [03] call       0   2   4  
49A3  1AC00180           [04] jmp        8            ; to [13]
49A7  5D410000           [05] getglobal  5   1        ; 1074689893
49AB  92010002           [06] move       6   4      
49AF  62810001           [07] call       5   2   2  
49B3  58410000           [08] test       5       1    ; to [10] if false
49B7  1A800080           [09] jmp        3            ; to [13]
49BB  64814002           [10] self       5   4   258  ; 1542701132
49BF  D3018000           [11] getupval   7   1      
49C3  62418001           [12] call       5   3   1  
49C7  16800000           [13] tforloop   0       2    ; to [15] if exit
49CB  1A40FD7F           [14] jmp        -10          ; to [5]
49CF  1E008000           [15] return     0   1      
                         * constants:
49D3  03                 sizek (3)
49D4  01                 const type 3
49D5  17DDCF0E           const [0]: (248503575)
49D9  01                 const type 3
49DA  65770E40           const [1]: (1074689893)
49DE  01                 const type 3
49DF  4CC0F35B           const [2]: (1542701132)
                         * functions:
49E3  00                 sizep (0)
                         * lines:
49E4  0F                 sizelineinfo (15)
                         [pc] (line)
49E5  E9                 [01] (-23)
49E6  02                 [02] (-23)
49E7  00                 [03] (-23)
49E8  00                 [04] (-23)
49E9  E9                 [05] (-22)
49EA  02                 [06] (-22)
49EB  00                 [07] (-22)
49EC  00                 [08] (-22)
49ED  E9                 [09] (-22)
49EE  02                 [10] (-21)
49EF  00                 [11] (-21)
49F0  00                 [12] (-21)
49F1  E9                 [13] (-23)
49F2  02                 [14] (-20)
49F3  00                 [15] (-18)
                         * locals:
4A21  00                 sizelocvars (0)
                         * upvalues:
4A22  00                 sizeupvalues (0)
                         ** end of function **

                         * lines:
4A23  16                 sizelineinfo (22)
                         [pc] (line)
4A24  BF                 [01] (-65)
4A25  02                 [02] (-65)
4A26  00                 [03] (-65)
4A27  00                 [04] (-64)
4A28  BF                 [05] (-64)
4A29  02                 [06] (-64)
4A2A  00                 [07] (-63)
4A2B  00                 [08] (-62)
4A2C  BF                 [09] (-60)
4A2D  02                 [10] (-26)
4A2E  00                 [11] (-26)
4A2F  00                 [12] (-26)
4A30  C0                 [13] (-26)
4A31  02                 [14] (-26)
4A32  00                 [15] (-26)
4A33  00                 [16] (-26)
4A34  C0                 [17] (-18)
4A35  02                 [18] (-18)
4A36  00                 [19] (-18)
4A37  00                 [20] (-18)
4A38  C0                 [21] (-17)
4A39  02                 [22] (-16)
                         * locals:
4A7C  00                 sizelocvars (0)
                         * upvalues:
4A7D  00                 sizeupvalues (0)
                         ** end of function **

                         
4A7E                     ** function [9] definition (level 2)
                         ** start of function **
4A7E  00                 string size (0)
                         source name: (none)
4A80  05                 line defined (754)
4A81  8F                 last line defined (783)
4A82  06                 nups (1)
4A83  01                 numparams (2)
4A84  02                 is_vararg (0)
4A85  00                 maxstacksize (15)
                         * code:
4A87  5D                 sizecode (93)
4A88  9D000000           [01] getglobal  2   0        ; gRegion
4A8C  A4404001           [02] self       2   2   257  ; -1520831144
4A90  A2800001           [03] call       2   2   2  
4A94  98000000           [04] test       2       0    ; to [6] if true
4A98  1A801580           [05] jmp        87           ; to [93]
4A9C  9D800000           [06] getglobal  2   2        ; _T
4AA0  8EC04001           [07] gettable   2   2   259  ; "dashBubbleUpgrade"
fail op	35
4AA4  23004101           [08] close      0  
4AA8  1A800080           [09] jmp        3            ; to [13]
4AAC  9D800000           [10] getglobal  2   2        ; _T
4AB0  CB000000           [11] newtable   3   0   0    ; array=0, hash=0
4AB4  8CC08081           [12] settable   2   259 3    ; "dashBubbleUpgrade"
4AB8  A4404100           [13] self       2   0   261  ; -605089866
4ABC  A2800001           [14] call       2   2   2  
4AC0  DD800000           [15] getglobal  3   2        ; _T
4AC4  CEC0C001           [16] gettable   3   3   259  ; "dashBubbleUpgrade"
4AC8  CE808001           [17] gettable   3   3   2  
fail op	35
4ACC  2300C101           [18] close      0  
4AD0  1AC00080           [19] jmp        4            ; to [24]
4AD4  DD800000           [20] getglobal  3   2        ; _T
4AD8  CEC0C001           [21] gettable   3   3   259  ; "dashBubbleUpgrade"
4ADC  0B010000           [22] newtable   4   0   0    ; array=0, hash=0
4AE0  CC000101           [23] settable   3   2   4  
4AE4  D3000000           [24] getupval   3   0      
4AE8  CE80C101           [25] gettable   3   3   262  ; "maxInstances"
4AEC  1D810000           [26] getglobal  4   2        ; _T
4AF0  0EC14002           [27] gettable   4   4   259  ; "dashBubbleUpgrade"
4AF4  0E810002           [28] gettable   4   4   2  
4AF8  0A010002           [29] len        4   4      
4AFC  59C10100           [30] loadk      5   7        ; 0
4B00  99010200           [31] loadk      6   8        ; 0
4B04  10810380           [32] forprep    4   15       ; to [48]
4B08  1D420200           [33] getglobal  8   9        ; 1074689893
4B0C  5D820000           [34] getglobal  9   2        ; _T
4B10  4EC2C004           [35] gettable   9   9   259  ; "dashBubbleUpgrade"
4B14  4E828004           [36] gettable   9   9   2  
4B18  4EC28104           [37] gettable   9   9   7  
4B1C  22820001           [38] call       8   2   2  
4B20  18020000           [39] test       8       0    ; to [41] if true
4B24  1A800180           [40] jmp        7            ; to [48]
4B28  1D820200           [41] getglobal  8   10       ; table
4B2C  0EC24204           [42] gettable   8   8   267  ; -843973282
4B30  5D820000           [43] getglobal  9   2        ; _T
4B34  4EC2C004           [44] gettable   9   9   259  ; "dashBubbleUpgrade"
4B38  4E828004           [45] gettable   9   9   2  
4B3C  92028003           [46] move       10  7      
4B40  22428001           [47] call       8   3   1  
4B44  14C1FB7F           [48] forloop    4   -16      ; to [33] if loop
4B48  1D820000           [49] getglobal  8   2        ; _T
4B4C  0EC24004           [50] gettable   8   8   259  ; "dashBubbleUpgrade"
4B50  0E820004           [51] gettable   8   8   2  
4B54  0A020004           [52] len        8   8      
fail op	33
4B58  21008201           [53] tforloop   0       8    ; to [55] if exit
4B5C  1A400380           [54] jmp        14           ; to [69]
4B60  1D820000           [55] getglobal  8   2        ; _T
4B64  0EC24004           [56] gettable   8   8   259  ; "dashBubbleUpgrade"
4B68  0E820004           [57] gettable   8   8   2  
4B6C  0EC24104           [58] gettable   8   8   263  ; 0
4B70  24024304           [59] self       8   8   268  ; -725453761
4B74  22420001           [60] call       8   2   1  
4B78  1D820200           [61] getglobal  8   10       ; table
4B7C  0EC24204           [62] gettable   8   8   267  ; -843973282
4B80  5D820000           [63] getglobal  9   2        ; _T
4B84  4EC2C004           [64] gettable   9   9   259  ; "dashBubbleUpgrade"
4B88  4E828004           [65] gettable   9   9   2  
4B8C  99C20100           [66] loadk      10  7        ; 0
4B90  22428001           [67] call       8   3   1  
4B94  1AC0FA7F           [68] jmp        -20          ; to [49]
4B98  1D020000           [69] getglobal  8   0        ; gRegion
4B9C  24424304           [70] self       8   8   269  ; -1110225722
4BA0  9D820300           [71] getglobal  10  14       ; dashBubbleTriggerType
4BA4  E4C24300           [72] self       11  0   271  ; 1839670529
4BA8  E2820001           [73] call       11  2   2  
4BAC  1D030400           [74] getglobal  12  16       ; ZERO_ROTATION
4BB0  52030000           [75] move       13  0      
4BB4  92030000           [76] move       14  0      
4BB8  22828003           [77] call       8   7   2  
4BBC  5D420200           [78] getglobal  9   9        ; 1074689893
4BC0  92020004           [79] move       10  8      
4BC4  62820001           [80] call       9   2   2  
4BC8  58420000           [81] test       9       1    ; to [83] if false
4BCC  1A400280           [82] jmp        10           ; to [93]
4BD0  64424404           [83] self       9   8   273  ; 699694160
4BD4  D2028000           [84] move       11  1      
4BD8  62428001           [85] call       9   3   1  
4BDC  5D820200           [86] getglobal  9   10       ; table
4BE0  4E82C404           [87] gettable   9   9   274  ; -431682403
4BE4  9D820000           [88] getglobal  10  2        ; _T
4BE8  8EC24005           [89] gettable   10  10  259  ; "dashBubbleUpgrade"
4BEC  8E820005           [90] gettable   10  10  2  
4BF0  D2020004           [91] move       11  8      
4BF4  62428001           [92] call       9   3   1  
4BF8  1E008000           [93] return     0   1      
                         * constants:
4BFC  13                 sizek (19)
4BFD  04                 const type 4
4BFE  08                 string size (8)
4BFF  67526567696F6E00   "gRegion\0"
                         const [0]: "gRegion"
4C07  01                 const type 3
4C08  58F559A5           const [1]: (-1520831144)
4C0C  04                 const type 4
4C0D  03                 string size (3)
4C0E  5F5400             "_T\0"
                         const [2]: "_T"
4C11  04                 const type 4
4C12  12                 string size (18)
4C13  6461736842756262+  "dashBubb"
4C1B  6C65557067726164+  "leUpgrad"
4C23  6500               "e\0"
                         const [3]: "dashBubbleUpgrade"
4C25  00                 const type 0
                         const [4]: nil
4C26  01                 const type 3
4C27  B60FEFDB           const [5]: (-605089866)
4C2B  04                 const type 4
4C2C  0D                 string size (13)
4C2D  6D6178496E737461+  "maxInsta"
4C35  6E63657300         "nces\0"
                         const [6]: "maxInstances"
4C3A  03                 const type 3
4C3B  0000803F           const [7]: (0)
4C3F  03                 const type 3
4C40  000080BF           const [8]: (0)
4C44  01                 const type 3
4C45  65770E40           const [9]: (1074689893)
4C49  04                 const type 4
4C4A  06                 string size (6)
4C4B  7461626C6500       "table\0"
                         const [10]: "table"
4C51  01                 const type 3
4C52  5EFDB1CD           const [11]: (-843973282)
4C56  01                 const type 3
4C57  3F74C2D4           const [12]: (-725453761)
4C5B  01                 const type 3
4C5C  C64CD3BD           const [13]: (-1110225722)
4C60  04                 const type 4
4C61  16                 string size (22)
4C62  6461736842756262+  "dashBubb"
4C6A  6C65547269676765+  "leTrigge"
4C72  725479706500       "rType\0"
                         const [14]: "dashBubbleTriggerType"
4C78  01                 const type 3
4C79  0125A76D           const [15]: (1839670529)
4C7D  04                 const type 4
4C7E  0E                 string size (14)
4C7F  5A45524F5F524F54+  "ZERO_ROT"
4C87  4154494F4E00       "ATION\0"
                         const [16]: "ZERO_ROTATION"
4C8D  01                 const type 3
4C8E  507CB429           const [17]: (699694160)
4C92  01                 const type 3
4C93  9D0C45E6           const [18]: (-431682403)
                         * functions:
4C97  00                 sizep (0)
                         * lines:
4C98  5D                 sizelineinfo (93)
                         [pc] (line)
4C99  F3                 [01] (-13)
4C9A  02                 [02] (-13)
4C9B  00                 [03] (-13)
4C9C  00                 [04] (-13)
4C9D  F3                 [05] (-13)
4C9E  02                 [06] (-12)
4C9F  00                 [07] (-12)
4CA0  00                 [08] (-12)
4CA1  F3                 [09] (-12)
4CA2  02                 [10] (-11)
4CA3  00                 [11] (-11)
4CA4  00                 [12] (-11)
4CA5  F3                 [13] (-8)
4CA6  02                 [14] (-8)
4CA7  00                 [15] (-7)
4CA8  00                 [16] (-7)
4CA9  F3                 [17] (-7)
4CAA  02                 [18] (-7)
4CAB  00                 [19] (-7)
4CAC  00                 [20] (-6)
4CAD  F4                 [21] (-6)
4CAE  02                 [22] (-6)
4CAF  00                 [23] (-6)
4CB0  00                 [24] (-3)
4CB1  F4                 [25] (-3)
4CB2  02                 [26] (-2)
4CB3  00                 [27] (-2)
4CB4  00                 [28] (-2)
4CB5  F4                 [29] (-2)
4CB6  02                 [30] (-2)
4CB7  00                 [31] (-2)
4CB8  00                 [32] (-2)
4CB9  F4                 [33] (-1)
4CBA  02                 [34] (-1)
4CBB  00                 [35] (-1)
4CBC  00                 [36] (-1)
4CBD  F5                 [37] (-1)
4CBE  02                 [38] (-1)
4CBF  00                 [39] (-1)
4CC0  00                 [40] (-1)
4CC1  F5                 [41] (0)
4CC2  02                 [42] (0)
4CC3  00                 [43] (0)
4CC4  00                 [44] (0)
4CC5  F5                 [45] (0)
4CC6  02                 [46] (0)
4CC7  00                 [47] (0)
4CC8  00                 [48] (-2)
4CC9  F8                 [49] (4)
4CCA  02                 [50] (4)
4CCB  00                 [51] (4)
4CCC  00                 [52] (4)
4CCD  F8                 [53] (4)
4CCE  02                 [54] (4)
4CCF  00                 [55] (5)
4CD0  00                 [56] (5)
4CD1  F9                 [57] (5)
4CD2  02                 [58] (5)
4CD3  00                 [59] (5)
4CD4  00                 [60] (5)
4CD5  F9                 [61] (6)
4CD6  02                 [62] (6)
4CD7  00                 [63] (6)
4CD8  00                 [64] (6)
4CD9  F9                 [65] (6)
4CDA  02                 [66] (6)
4CDB  00                 [67] (6)
4CDC  00                 [68] (6)
4CDD  F9                 [69] (9)
4CDE  02                 [70] (9)
4CDF  00                 [71] (9)
4CE0  00                 [72] (9)
4CE1  F9                 [73] (9)
4CE2  02                 [74] (9)
4CE3  00                 [75] (9)
4CE4  00                 [76] (9)
4CE5  FA                 [77] (9)
4CE6  02                 [78] (10)
4CE7  00                 [79] (10)
4CE8  00                 [80] (10)
4CE9  FA                 [81] (10)
4CEA  02                 [82] (10)
4CEB  00                 [83] (11)
4CEC  00                 [84] (11)
4CED  FA                 [85] (11)
4CEE  02                 [86] (12)
4CEF  00                 [87] (12)
4CF0  00                 [88] (12)
4CF1  FA                 [89] (12)
4CF2  02                 [90] (12)
4CF3  00                 [91] (12)
4CF4  00                 [92] (12)
4CF5  FD                 [93] (15)
                         * locals:
4E0D  00                 sizelocvars (0)
                         * upvalues:
4E0E  00                 sizeupvalues (0)
                         ** end of function **

                         
4E0F                     ** function [10] definition (level 2)
                         ** start of function **
4E0F  00                 string size (0)
                         source name: (none)
4E11  06                 line defined (785)
4E12  9F                 last line defined (799)
4E13  06                 nups (0)
4E14  00                 numparams (1)
4E15  01                 is_vararg (0)
4E16  00                 maxstacksize (7)
                         * code:
4E18  2D                 sizecode (45)
4E19  64004000           [01] self       1   0   256  ; 129677183
4E1D  62800001           [02] call       1   2   2  
4E21  99400000           [03] loadk      2   1        ; 0
4E25  DD800000           [04] getglobal  3   2        ; gRegion
4E29  E4C0C001           [05] self       3   3   259  ; -1520831144
4E2D  E2800001           [06] call       3   2   2  
4E31  D8400000           [07] test       3       1    ; to [9] if false
4E35  1A000480           [08] jmp        17           ; to [26]
4E39  DD000100           [09] getglobal  3   4        ; 1074689893
4E3D  12018000           [10] move       4   1      
4E41  E2800001           [11] call       3   2   2  
4E45  D8000000           [12] test       3       0    ; to [14] if true
4E49  1AC00280           [13] jmp        12           ; to [26]
fail op	21
4E4D  15808082           [14] concat     0   261 2  
4E51  1A400280           [15] jmp        10           ; to [26]
4E55  E4004000           [16] self       3   0   256  ; 129677183
4E59  E2800001           [17] call       3   2   2  
4E5D  52008001           [18] move       1   3      
4E61  DD800100           [19] getglobal  3   6        ; 1289681407
4E65  E2808000           [20] call       3   1   2  
4E69  8DC00001           [21] sub        2   2   3  
4E6D  DDC00100           [22] getglobal  3   7        ; 538022378
4E71  19410100           [23] loadk      4   5        ; 0
4E75  E2400001           [24] call       3   2   1  
4E79  1A40FA7F           [25] jmp        -22          ; to [4]
4E7D  DD000100           [26] getglobal  3   4        ; 1074689893
4E81  12018000           [27] move       4   1      
4E85  E2800001           [28] call       3   2   2  
4E89  D8400000           [29] test       3       1    ; to [31] if false
4E8D  1A400380           [30] jmp        14           ; to [45]
4E91  DD000100           [31] getglobal  3   4        ; 1074689893
4E95  12010000           [32] move       4   0      
4E99  E2800001           [33] call       3   2   2  
4E9D  D8400000           [34] test       3       1    ; to [36] if false
4EA1  1A000280           [35] jmp        9            ; to [45]
4EA5  E400C200           [36] self       3   1   264  ; 196800914
4EA9  E2800001           [37] call       3   2   2  
4EAD  24414200           [38] self       4   0   265  ; 1311555023
4EB1  92018001           [39] move       6   3      
4EB5  22418001           [40] call       4   3   1  
4EB9  1DC10100           [41] getglobal  4   7        ; 538022378
4EBD  59410100           [42] loadk      5   5        ; 0
4EC1  22410001           [43] call       4   2   1  
4EC5  1A00FB7F           [44] jmp        -19          ; to [26]
4EC9  1E008000           [45] return     0   1      
                         * constants:
4ECD  0A                 sizek (10)
4ECE  01                 const type 3
4ECF  7FB7BA07           const [0]: (129677183)
4ED3  03                 const type 3
4ED4  0000003F           const [1]: (0)
4ED8  04                 const type 4
4ED9  08                 string size (8)
4EDA  67526567696F6E00   "gRegion\0"
                         const [2]: "gRegion"
4EE2  01                 const type 3
4EE3  58F559A5           const [3]: (-1520831144)
4EE7  01                 const type 3
4EE8  65770E40           const [4]: (1074689893)
4EEC  03                 const type 3
4EED  00000000           const [5]: (0)
4EF1  01                 const type 3
4EF2  FFF9DE4C           const [6]: (1289681407)
4EF6  01                 const type 3
4EF7  EA911120           const [7]: (538022378)
4EFB  01                 const type 3
4EFC  92F1BA0B           const [8]: (196800914)
4F00  01                 const type 3
4F01  CFBD2C4E           const [9]: (1311555023)
                         * functions:
4F05  00                 sizep (0)
                         * lines:
4F06  2D                 sizelineinfo (45)
                         [pc] (line)
4F07  12                 [01] (18)
4F08  03                 [02] (18)
4F09  00                 [03] (19)
4F0A  00                 [04] (20)
4F0B  12                 [05] (20)
4F0C  03                 [06] (20)
4F0D  00                 [07] (20)
4F0E  00                 [08] (20)
4F0F  13                 [09] (20)
4F10  03                 [10] (20)
4F11  00                 [11] (20)
4F12  00                 [12] (20)
4F13  14                 [13] (20)
4F14  03                 [14] (20)
4F15  00                 [15] (20)
4F16  00                 [16] (21)
4F17  14                 [17] (21)
4F18  03                 [18] (21)
4F19  00                 [19] (22)
4F1A  00                 [20] (22)
4F1B  14                 [21] (22)
4F1C  03                 [22] (23)
4F1D  00                 [23] (23)
4F1E  00                 [24] (23)
4F1F  14                 [25] (23)
4F20  03                 [26] (26)
4F21  00                 [27] (26)
4F22  00                 [28] (26)
4F23  14                 [29] (26)
4F24  03                 [30] (26)
4F25  00                 [31] (26)
4F26  00                 [32] (26)
4F27  14                 [33] (26)
4F28  03                 [34] (26)
4F29  00                 [35] (26)
4F2A  00                 [36] (27)
4F2B  14                 [37] (27)
4F2C  03                 [38] (28)
4F2D  00                 [39] (28)
4F2E  00                 [40] (28)
4F2F  14                 [41] (29)
4F30  03                 [42] (29)
4F31  00                 [43] (29)
4F32  00                 [44] (29)
4F33  14                 [45] (31)
                         * locals:
4FBB  00                 sizelocvars (0)
                         * upvalues:
4FBC  00                 sizeupvalues (0)
                         ** end of function **

                         
4FBD                     ** function [11] definition (level 2)
                         ** start of function **
4FBD  00                 string size (0)
                         source name: (none)
4FBF  06                 line defined (801)
4FC0  B0                 last line defined (816)
4FC1  06                 nups (0)
4FC2  00                 numparams (3)
4FC3  03                 is_vararg (0)
4FC4  00                 maxstacksize (12)
                         * code:
4FC6  36                 sizecode (54)
4FC7  DD000000           [01] getglobal  3   0        ; 1074689893
4FCB  12018000           [02] move       4   1      
4FCF  E2800001           [03] call       3   2   2  
4FD3  D8400000           [04] test       3       1    ; to [6] if false
4FD7  1A400280           [05] jmp        10           ; to [16]
4FDB  DD000000           [06] getglobal  3   0        ; 1074689893
4FDF  12010001           [07] move       4   2      
4FE3  E2800001           [08] call       3   2   2  
4FE7  D8400000           [09] test       3       1    ; to [11] if false
4FEB  1A000180           [10] jmp        5            ; to [16]
4FEF  DD000000           [11] getglobal  3   0        ; 1074689893
4FF3  12010000           [12] move       4   0      
4FF7  E2800001           [13] call       3   2   2  
4FFB  D8000000           [14] test       3       0    ; to [16] if true
4FFF  1A000080           [15] jmp        1            ; to [17]
5003  1E008000           [16] return     0   1      
5007  E4404000           [17] self       3   0   257  ; -1538682285
500B  E2800001           [18] call       3   2   2  
500F  24814001           [19] self       4   2   258  ; -1421644046
5013  9DC10000           [20] getglobal  6   3        ; beamType
5017  DD010100           [21] getglobal  7   4        ; -332969190
501B  19420100           [22] loadk      8   5        ; "GAME_C1_HIP1"
501F  E2810001           [23] call       7   2   2  
5023  1D820100           [24] getglobal  8   6        ; ZERO_VECTOR
5027  5DC20100           [25] getglobal  9   7        ; ZERO_ROTATION
502B  92028000           [26] move       10  1      
502F  22818003           [27] call       4   7   2  
5033  6401C200           [28] self       5   1   264  ; 196800914
5037  62810001           [29] call       5   2   2  
503B  9D410200           [30] getglobal  6   9        ; gRegion
503F  A4814203           [31] self       6   6   266  ; -1110225722
5043  1DC20200           [32] getglobal  8   11       ; beamFx
5047  52028002           [33] move       9   5      
504B  9DC20100           [34] getglobal  10  7        ; ZERO_ROTATION
504F  D2020000           [35] move       11  0      
5053  A2410003           [36] call       6   6   1  
5057  9D010000           [37] getglobal  6   0        ; 1074689893
505B  D2010002           [38] move       7   4      
505F  A2810001           [39] call       6   2   2  
5063  98410000           [40] test       6       1    ; to [42] if false
5067  1A800280           [41] jmp        11           ; to [53]
506B  9D410200           [42] getglobal  6   9        ; gRegion
506F  A4814203           [43] self       6   6   266  ; -1110225722
5073  1DC20200           [44] getglobal  8   11       ; beamFx
5077  64024202           [45] self       9   4   264  ; 196800914
507B  62820001           [46] call       9   2   2  
507F  9DC20100           [47] getglobal  10  7        ; ZERO_ROTATION
5083  D2028001           [48] move       11  3      
5087  A2410003           [49] call       6   6   1  
508B  A4014300           [50] self       6   0   268  ; -2035091121
508F  12020002           [51] move       8   4      
5093  A2418001           [52] call       6   3   1  
5097  1E010001           [53] return     4   2      
509B  1E008000           [54] return     0   1      
                         * constants:
509F  0D                 sizek (13)
50A0  01                 const type 3
50A1  65770E40           const [0]: (1074689893)
50A5  01                 const type 3
50A6  539249A4           const [1]: (-1538682285)
50AA  01                 const type 3
50AB  F26E43AB           const [2]: (-1421644046)
50AF  04                 const type 4
50B0  09                 string size (9)
50B1  6265616D54797065+  "beamType"
50B9  00                 "\0"
                         const [3]: "beamType"
50BA  01                 const type 3
50BB  1A4B27EC           const [4]: (-332969190)
50BF  04                 const type 4
50C0  0D                 string size (13)
50C1  47414D455F43315F+  "GAME_C1_"
50C9  4849503100         "HIP1\0"
                         const [5]: "GAME_C1_HIP1"
50CE  04                 const type 4
50CF  0C                 string size (12)
50D0  5A45524F5F564543+  "ZERO_VEC"
50D8  544F5200           "TOR\0"
                         const [6]: "ZERO_VECTOR"
50DC  04                 const type 4
50DD  0E                 string size (14)
50DE  5A45524F5F524F54+  "ZERO_ROT"
50E6  4154494F4E00       "ATION\0"
                         const [7]: "ZERO_ROTATION"
50EC  01                 const type 3
50ED  92F1BA0B           const [8]: (196800914)
50F1  04                 const type 4
50F2  08                 string size (8)
50F3  67526567696F6E00   "gRegion\0"
                         const [9]: "gRegion"
50FB  01                 const type 3
50FC  C64CD3BD           const [10]: (-1110225722)
5100  04                 const type 4
5101  07                 string size (7)
5102  6265616D467800     "beamFx\0"
                         const [11]: "beamFx"
5109  01                 const type 3
510A  4FF9B286           const [12]: (-2035091121)
                         * functions:
510E  00                 sizep (0)
                         * lines:
510F  36                 sizelineinfo (54)
                         [pc] (line)
5110  22                 [01] (34)
5111  03                 [02] (34)
5112  00                 [03] (34)
5113  00                 [04] (34)
5114  22                 [05] (34)
5115  03                 [06] (34)
5116  00                 [07] (34)
5117  00                 [08] (34)
5118  22                 [09] (34)
5119  03                 [10] (34)
511A  00                 [11] (34)
511B  00                 [12] (34)
511C  22                 [13] (34)
511D  03                 [14] (34)
511E  00                 [15] (34)
511F  00                 [16] (35)
5120  22                 [17] (38)
5121  03                 [18] (38)
5122  00                 [19] (39)
5123  00                 [20] (39)
5124  22                 [21] (39)
5125  03                 [22] (39)
5126  00                 [23] (39)
5127  00                 [24] (39)
5128  22                 [25] (39)
5129  03                 [26] (39)
512A  00                 [27] (39)
512B  00                 [28] (40)
512C  22                 [29] (40)
512D  03                 [30] (41)
512E  00                 [31] (41)
512F  00                 [32] (41)
5130  22                 [33] (41)
5131  03                 [34] (41)
5132  00                 [35] (41)
5133  00                 [36] (41)
5134  22                 [37] (42)
5135  03                 [38] (42)
5136  00                 [39] (42)
5137  00                 [40] (42)
5138  22                 [41] (42)
5139  03                 [42] (43)
513A  00                 [43] (43)
513B  00                 [44] (43)
513C  22                 [45] (43)
513D  03                 [46] (43)
513E  00                 [47] (43)
513F  00                 [48] (43)
5140  22                 [49] (43)
5141  03                 [50] (44)
5142  00                 [51] (44)
5143  00                 [52] (44)
5144  22                 [53] (47)
5145  03                 [54] (48)
                         * locals:
51E8  00                 sizelocvars (0)
                         * upvalues:
51E9  00                 sizeupvalues (0)
                         ** end of function **

                         
51EA                     ** function [12] definition (level 2)
                         ** start of function **
51EA  00                 string size (0)
                         source name: (none)
51EC  06                 line defined (818)
51ED  F6                 last line defined (886)
51EE  06                 nups (3)
51EF  03                 numparams (1)
51F0  01                 is_vararg (0)
51F1  00                 maxstacksize (29)
                         * code:
51F4  01                 sizecode (212)
51F5  64004000           [001] self       1   0   256  ; 129677183
51F9  62800001           [002] call       1   2   2  
51FD  9D400000           [003] getglobal  2   1        ; 1074689893
5201  D2008000           [004] move       3   1      
5205  A2800001           [005] call       2   2   2  
5209  98000000           [006] test       2       0    ; to [8] if true
520D  1A000180           [007] jmp        5            ; to [13]
5211  9D800000           [008] getglobal  2   2        ; gRegion
5215  A4C04001           [009] self       2   2   259  ; -1693828985
5219  12010000           [010] move       4   0      
521D  A2408001           [011] call       2   3   1  
5221  1E008000           [012] return     0   1      
5225  93000000           [013] getupval   2   0      
5229  8E004101           [014] gettable   2   2   260  ; -75093794
522D  D2008000           [015] move       3   1      
5231  13018000           [016] getupval   4   1      
5235  0E414102           [017] gettable   4   4   261  ; "tag"
5239  53018000           [018] getupval   5   1      
523D  4E81C102           [019] gettable   5   5   262  ; "range"
5241  A2800002           [020] call       2   4   2  
5245  E4C0C100           [021] self       3   1   263  ; -1917464545
5249  E2800001           [022] call       3   2   2  
524D  E400C201           [023] self       3   3   264  ; 1769516121
5251  E2800001           [024] call       3   2   2  
5255  13018000           [025] getupval   4   1      
5259  0E414202           [026] gettable   4   4   265  ; "speed"
525D  53018000           [027] getupval   5   1      
5261  4E81C202           [028] gettable   5   5   266  ; "duration"
5265  93018000           [029] getupval   6   1      
5269  8EC14203           [030] gettable   6   6   267  ; "damage"
526D  8E810003           [031] gettable   6   6   2  
5271  D3018000           [032] getupval   7   1      
5275  CE81C103           [033] gettable   7   7   262  ; "range"
5279  CE818003           [034] gettable   7   7   2  
527D  2402C300           [035] self       8   1   268  ; -1138845531
5281  22820001           [036] call       8   2   2  
5285  6442C300           [037] self       9   1   269  ; -315515802
5289  62820001           [038] call       9   2   2  
528D  0D420204           [039] sub        8   8   9  
5291  0CC24387           [040] settable   8   270 271  ; "y" 0
5295  5D020400           [041] getglobal  9   16       ; 1166235580
5299  92020004           [042] move       10  8      
529D  62420001           [043] call       9   2   1  
52A1  46028004           [044] loadnil    9   9      
fail op	21
52A5  15408187           [045] concat     0   271 5  
52A9  1AC02680           [046] jmp        156          ; to [203]
52AD  9D420000           [047] getglobal  10  1        ; 1074689893
52B1  D2020000           [048] move       11  0      
52B5  A2820001           [049] call       10  2   2  
52B9  98420000           [050] test       10      1    ; to [52] if false
52BD  1A802580           [051] jmp        151          ; to [203]
52C1  9D420000           [052] getglobal  10  1        ; 1074689893
52C5  D2028000           [053] move       11  1      
52C9  A2820001           [054] call       10  2   2  
52CD  98420000           [055] test       10      1    ; to [57] if false
52D1  1A402480           [056] jmp        146          ; to [203]
52D5  A4424400           [057] self       10  0   273  ; 1839670529
52D9  A2820001           [058] call       10  2   2  
52DD  52020005           [059] move       9   10     
52E1  A4824400           [060] self       10  0   274  ; -333955620
52E5  04030104           [061] mul        12  8   4  
52E9  5DC30400           [062] getglobal  13  19       ; 1289681407
52ED  62838000           [063] call       13  1   2  
52F1  04430306           [064] mul        12  12  13 
52F5  03038304           [065] add        12  9   12 
52F9  A2428001           [066] call       10  3   1  
52FD  9D820000           [067] getglobal  10  2        ; gRegion
5301  A4024505           [068] self       10  10  276  ; 152279552
5305  1D430500           [069] getglobal  12  21       ; gLotusNpcAvatarType
5309  52038004           [070] move       13  9      
530D  99C30300           [071] loadk      14  15       ; 0
5311  D2038003           [072] move       15  7      
5315  A2820003           [073] call       10  6   2  
5319  DD420000           [074] getglobal  11  1        ; 1074689893
531D  12030005           [075] move       12  10     
5321  E2820001           [076] call       11  2   2  
5325  D8420000           [077] test       11      1    ; to [79] if false
5329  1A001D80           [078] jmp        117          ; to [196]
532D  CA020005           [079] len        11  10     
fail op	21
5331  15C08287           [080] concat     0   271 11 
5335  1A401C80           [081] jmp        114          ; to [196]
5339  CB020000           [082] newtable   11  0   0    ; array=0, hash=0
533D  19830500           [083] loadk      12  22       ; 0
5341  4A030005           [084] len        13  10     
5345  99830500           [085] loadk      14  22       ; 0
5349  10C30F80           [086] forprep    12  64       ; to [151]
534D  0EC40305           [087] gettable   16  10  15 
5351  5D440000           [088] getglobal  17  1        ; 1074689893
5355  92040008           [089] move       18  16     
5359  62840001           [090] call       17  2   2  
535D  58440000           [091] test       17      1    ; to [93] if false
5361  1A400E80           [092] jmp        58           ; to [151]
5365  64C4C500           [093] self       17  1   279  ; 1800191191
5369  D2040008           [094] move       19  16     
536D  62848001           [095] call       17  3   2  
5371  58440000           [096] test       17      1    ; to [98] if false
5375  1A000D80           [097] jmp        53           ; to [151]
5379  64044608           [098] self       17  16  280  ; 1230984527
537D  DD440600           [099] getglobal  19  25       ; Lotus_Game
5381  CE84C609           [100] gettable   19  19  282  ; "AR_IMMUNE_ALL"
5385  62848001           [101] call       17  3   2  
5389  58440000           [102] test       17      1    ; to [104] if false
538D  1A800B80           [103] jmp        47           ; to [151]
5391  5DC40600           [104] getglobal  17  27       ; gGameRules
5395  6404C708           [105] self       17  17  284  ; -1631508609
5399  D2048004           [106] move       19  9      
539D  12050008           [107] move       20  16     
53A1  59450700           [108] loadk      21  29       ; 0
53A5  62848002           [109] call       17  5   2  
53A9  58040000           [110] test       17      0    ; to [112] if true
53AD  1A800980           [111] jmp        39           ; to [151]
53B1  5D840000           [112] getglobal  17  2        ; gRegion
53B5  6484C708           [113] self       17  17  286  ; -1520831144
53B9  62840001           [114] call       17  2   2  
53BD  58040000           [115] test       17      0    ; to [117] if true
53C1  1AC00380           [116] jmp        16           ; to [133]
53C5  64C44708           [117] self       17  16  287  ; -2127538299
53C9  DD040800           [118] getglobal  19  32       ; Engine
53CD  CE44C809           [119] gettable   19  19  289  ; "TORSO"
53D1  17058000           [120] loadbool   20  1   0    ; true
53D5  52058004           [121] move       21  9      
53D9  62848002           [122] call       17  5   2  
53DD  A4844808           [123] self       18  16  290  ; 1353558453
53E1  12050003           [124] move       20  6      
53E5  5D050800           [125] getglobal  21  32       ; Engine
53E9  4EC5C80A           [126] gettable   21  21  291  ; "DT_ELECTRICITY"
53ED  9D050800           [127] getglobal  22  32       ; Engine
53F1  8E45480B           [128] gettable   22  22  289  ; "TORSO"
53F5  D9C50300           [129] loadk      23  15       ; 0
53F9  12068000           [130] move       24  1      
53FD  52068001           [131] move       25  3      
5401  A2440004           [132] call       18  8   1  
5405  A4044900           [133] self       18  0   292  ; 630793108
5409  1D450900           [134] getglobal  20  37       ; zapSound
540D  57050000           [135] loadbool   21  0   0    ; false
5411  99C50300           [136] loadk      22  15       ; 0
5415  D7050000           [137] loadbool   23  0   0    ; false
5419  A2440003           [138] call       18  6   1  
541D  9D840900           [139] getglobal  18  38       ; table
5421  8EC44909           [140] gettable   18  18  295  ; -431682403
5425  D2048005           [141] move       19  11     
5429  0B850000           [142] newtable   20  0   2    ; array=0, hash=2
542D  53050001           [143] getupval   21  2      
5431  92058001           [144] move       22  3      
5435  D2050000           [145] move       23  0      
5439  12060008           [146] move       24  16     
543D  62850002           [147] call       21  4   2  
5441  0C450594           [148] settable   20  296 21   ; "beam"
5445  0C058494           [149] settable   20  297 16   ; "target"
5449  A2448001           [150] call       18  3   1  
544D  1483EF7F           [151] forloop    12  -65      ; to [87] if loop
5451  99C40300           [152] loadk      18  15       ; 0
fail op	21
5455  15804A09           [153] concat     0   18  298
5459  1A000A80           [154] jmp        41           ; to [196]
545D  D9840500           [155] loadk      19  22       ; 0
5461  0A058005           [156] len        20  11     
5465  59850500           [157] loadk      21  22       ; 0
5469  D0C40380           [158] forprep    19  16       ; to [175]
546D  CE858505           [159] gettable   23  11  22 
5471  CE05CA0B           [160] gettable   23  23  296  ; "beam"
5475  0E868505           [161] gettable   24  11  22 
5479  0E464A0C           [162] gettable   24  24  297  ; "target"
547D  5D460000           [163] getglobal  25  1        ; 1074689893
5481  9206000C           [164] move       26  24     
5485  62860001           [165] call       25  2   2  
5489  58060000           [166] test       25      0    ; to [168] if true
548D  1A800180           [167] jmp        7            ; to [175]
5491  5D460000           [168] getglobal  25  1        ; 1074689893
5495  9206800B           [169] move       26  23     
5499  62860001           [170] call       25  2   2  
549D  58460000           [171] test       25      1    ; to [173] if false
54A1  1A400080           [172] jmp        2            ; to [175]
54A5  64C6CA0B           [173] self       25  23  299  ; -725453761
54A9  62460001           [174] call       25  2   1  
54AD  D484FB7F           [175] forloop    19  -17      ; to [159] if loop
54B1  64464400           [176] self       25  0   273  ; 1839670529
54B5  62860001           [177] call       25  2   2  
54B9  5202800C           [178] move       9   25     
54BD  64864400           [179] self       25  0   274  ; -333955620
54C1  C4060104           [180] mul        27  8   4  
54C5  1DC70400           [181] getglobal  28  19       ; 1289681407
54C9  22878000           [182] call       28  1   2  
54CD  C406870D           [183] mul        27  27  28 
54D1  C3C68604           [184] add        27  9   27 
54D5  62468001           [185] call       25  3   1  
54D9  5DC60400           [186] getglobal  25  19       ; 1289681407
54DD  62868000           [187] call       25  1   2  
54E1  4D418602           [188] sub        5   5   25 
54E5  5DC60400           [189] getglobal  25  19       ; 1289681407
54E9  62868000           [190] call       25  1   2  
54ED  83440609           [191] add        18  18  25 
54F1  5D060B00           [192] getglobal  25  44       ; 538022378
54F5  99C60300           [193] loadk      26  15       ; 0
54F9  62460001           [194] call       25  2   1  
54FD  1A00F57F           [195] jmp        -43          ; to [153]
5501  5DC60400           [196] getglobal  25  19       ; 1289681407
5505  62868000           [197] call       25  1   2  
5509  4D418602           [198] sub        5   5   25 
550D  5D060B00           [199] getglobal  25  44       ; 538022378
5511  99C60300           [200] loadk      26  15       ; 0
5515  62460001           [201] call       25  2   1  
5519  1A40D87F           [202] jmp        -158         ; to [45]
551D  5D460000           [203] getglobal  25  1        ; 1074689893
5521  92060000           [204] move       26  0      
5525  62860001           [205] call       25  2   2  
5529  58460000           [206] test       25      1    ; to [208] if false
552D  1AC00080           [207] jmp        4            ; to [212]
5531  5D860000           [208] getglobal  25  2        ; gRegion
5535  64C6C00C           [209] self       25  25  259  ; -1693828985
5539  D2060000           [210] move       27  0      
553D  62468001           [211] call       25  3   1  
5541  1E008000           [212] return     0   1      
                         * constants:
5545  2D                 sizek (45)
5546  01                 const type 3
5547  7FB7BA07           const [0]: (129677183)
554B  01                 const type 3
554C  65770E40           const [1]: (1074689893)
5550  04                 const type 4
5551  08                 string size (8)
5552  67526567696F6E00   "gRegion\0"
                         const [2]: "gRegion"
555A  01                 const type 3
555B  87380A9B           const [3]: (-1693828985)
555F  01                 const type 3
5560  DE2886FB           const [4]: (-75093794)
5564  04                 const type 4
5565  04                 string size (4)
5566  74616700           "tag\0"
                         const [5]: "tag"
556A  04                 const type 4
556B  06                 string size (6)
556C  72616E676500       "range\0"
                         const [6]: "range"
5572  01                 const type 3
5573  1FD0B58D           const [7]: (-1917464545)
5577  01                 const type 3
5578  59AC7869           const [8]: (1769516121)
557C  04                 const type 4
557D  06                 string size (6)
557E  737065656400       "speed\0"
                         const [9]: "speed"
5584  04                 const type 4
5585  09                 string size (9)
5586  6475726174696F6E+  "duration"
558E  00                 "\0"
                         const [10]: "duration"
558F  04                 const type 4
5590  07                 string size (7)
5591  64616D61676500     "damage\0"
                         const [11]: "damage"
5598  01                 const type 3
5599  A5981EBC           const [12]: (-1138845531)
559D  01                 const type 3
559E  669C31ED           const [13]: (-315515802)
55A2  04                 const type 4
55A3  02                 string size (2)
55A4  7900               "y\0"
                         const [14]: "y"
55A6  03                 const type 3
55A7  00000000           const [15]: (0)
55AB  01                 const type 3
55AC  BC578345           const [16]: (1166235580)
55B0  01                 const type 3
55B1  0125A76D           const [17]: (1839670529)
55B5  01                 const type 3
55B6  DC3D18EC           const [18]: (-333955620)
55BA  01                 const type 3
55BB  FFF9DE4C           const [19]: (1289681407)
55BF  01                 const type 3
55C0  009A1309           const [20]: (152279552)
55C4  04                 const type 4
55C5  14                 string size (20)
55C6  674C6F7475734E70+  "gLotusNp"
55CE  6341766174617254+  "cAvatarT"
55D6  79706500           "ype\0"
                         const [21]: "gLotusNpcAvatarType"
55DA  03                 const type 3
55DB  0000803F           const [22]: (0)
55DF  01                 const type 3
55E0  D7BC4C6B           const [23]: (1800191191)
55E4  01                 const type 3
55E5  4F555F49           const [24]: (1230984527)
55E9  04                 const type 4
55EA  0B                 string size (11)
55EB  4C6F7475735F4761+  "Lotus_Ga"
55F3  6D6500             "me\0"
                         const [25]: "Lotus_Game"
55F6  04                 const type 4
55F7  0E                 string size (14)
55F8  41525F494D4D554E+  "AR_IMMUN"
5600  455F414C4C00       "E_ALL\0"
                         const [26]: "AR_IMMUNE_ALL"
5606  04                 const type 4
5607  0B                 string size (11)
5608  6747616D6552756C+  "gGameRul"
5610  657300             "es\0"
                         const [27]: "gGameRules"
5613  01                 const type 3
5614  7F27C19E           const [28]: (-1631508609)
5618  03                 const type 3
5619  0000003F           const [29]: (0)
561D  01                 const type 3
561E  58F559A5           const [30]: (-1520831144)
5622  01                 const type 3
5623  85573081           const [31]: (-2127538299)
5627  04                 const type 4
5628  07                 string size (7)
5629  456E67696E6500     "Engine\0"
                         const [32]: "Engine"
5630  04                 const type 4
5631  06                 string size (6)
5632  544F52534F00       "TORSO\0"
                         const [33]: "TORSO"
5638  01                 const type 3
5639  B5A9AD50           const [34]: (1353558453)
563D  04                 const type 4
563E  0F                 string size (15)
563F  44545F454C454354+  "DT_ELECT"
5647  52494349545900     "RICITY\0"
                         const [35]: "DT_ELECTRICITY"
564E  01                 const type 3
564F  94239925           const [36]: (630793108)
5653  04                 const type 4
5654  09                 string size (9)
5655  7A6170536F756E64+  "zapSound"
565D  00                 "\0"
                         const [37]: "zapSound"
565E  04                 const type 4
565F  06                 string size (6)
5660  7461626C6500       "table\0"
                         const [38]: "table"
5666  01                 const type 3
5667  9D0C45E6           const [39]: (-431682403)
566B  04                 const type 4
566C  05                 string size (5)
566D  6265616D00         "beam\0"
                         const [40]: "beam"
5672  04                 const type 4
5673  07                 string size (7)
5674  74617267657400     "target\0"
                         const [41]: "target"
567B  03                 const type 3
567C  0000403F           const [42]: (0)
5680  01                 const type 3
5681  3F74C2D4           const [43]: (-725453761)
5685  01                 const type 3
5686  EA911120           const [44]: (538022378)
                         * functions:
568A  00                 sizep (0)
                         * lines:
568C  01                 sizelineinfo (212)
                         [pc] (line)
568D  33                 [001] (51)
568E  03                 [002] (51)
568F  00                 [003] (52)
5690  00                 [004] (52)
5691  33                 [005] (52)
5692  03                 [006] (52)
5693  00                 [007] (52)
5694  00                 [008] (53)
5695  34                 [009] (53)
5696  03                 [010] (53)
5697  00                 [011] (53)
5698  00                 [012] (54)
5699  34                 [013] (57)
569A  03                 [014] (57)
569B  00                 [015] (57)
569C  00                 [016] (57)
569D  34                 [017] (57)
569E  03                 [018] (57)
569F  00                 [019] (57)
56A0  00                 [020] (57)
56A1  34                 [021] (59)
56A2  03                 [022] (59)
56A3  00                 [023] (59)
56A4  00                 [024] (59)
56A5  34                 [025] (61)
56A6  03                 [026] (61)
56A7  00                 [027] (62)
56A8  00                 [028] (62)
56A9  35                 [029] (63)
56AA  03                 [030] (63)
56AB  00                 [031] (63)
56AC  00                 [032] (64)
56AD  35                 [033] (64)
56AE  03                 [034] (64)
56AF  00                 [035] (65)
56B0  00                 [036] (65)
56B1  35                 [037] (65)
56B2  03                 [038] (65)
56B3  00                 [039] (65)
56B4  00                 [040] (66)
56B5  35                 [041] (67)
56B6  03                 [042] (67)
56B7  00                 [043] (67)
56B8  00                 [044] (68)
56B9  36                 [045] (70)
56BA  03                 [046] (70)
56BB  00                 [047] (70)
56BC  00                 [048] (70)
56BD  39                 [049] (70)
56BE  03                 [050] (70)
56BF  00                 [051] (70)
56C0  00                 [052] (70)
56C1  39                 [053] (70)
56C2  03                 [054] (70)
56C3  00                 [055] (70)
56C4  00                 [056] (70)
56C5  39                 [057] (71)
56C6  03                 [058] (71)
56C7  00                 [059] (71)
56C8  00                 [060] (73)
56C9  39                 [061] (73)
56CA  03                 [062] (73)
56CB  00                 [063] (73)
56CC  00                 [064] (73)
56CD  39                 [065] (73)
56CE  03                 [066] (73)
56CF  00                 [067] (75)
56D0  00                 [068] (75)
56D1  39                 [069] (75)
56D2  03                 [070] (75)
56D3  00                 [071] (75)
56D4  00                 [072] (75)
56D5  39                 [073] (75)
56D6  03                 [074] (77)
56D7  00                 [075] (77)
56D8  00                 [076] (77)
56D9  39                 [077] (77)
56DA  03                 [078] (77)
56DB  00                 [079] (77)
56DC  00                 [080] (77)
56DD  3B                 [081] (77)
56DE  03                 [082] (78)
56DF  00                 [083] (79)
56E0  00                 [084] (79)
56E1  3B                 [085] (79)
56E2  03                 [086] (79)
56E3  00                 [087] (80)
56E4  00                 [088] (81)
56E5  3B                 [089] (81)
56E6  03                 [090] (81)
56E7  00                 [091] (81)
56E8  00                 [092] (81)
56E9  3B                 [093] (81)
56EA  03                 [094] (81)
56EB  00                 [095] (81)
56EC  00                 [096] (81)
56ED  3D                 [097] (81)
56EE  03                 [098] (81)
56EF  00                 [099] (81)
56F0  00                 [100] (81)
56F1  3D                 [101] (81)
56F2  03                 [102] (81)
56F3  00                 [103] (81)
56F4  00                 [104] (81)
56F5  3E                 [105] (81)
56F6  03                 [106] (81)
56F7  00                 [107] (81)
56F8  00                 [108] (81)
56F9  3E                 [109] (81)
56FA  03                 [110] (81)
56FB  00                 [111] (81)
56FC  00                 [112] (82)
56FD  3F                 [113] (82)
56FE  03                 [114] (82)
56FF  00                 [115] (82)
5700  00                 [116] (82)
5701  3F                 [117] (83)
5702  03                 [118] (83)
5703  00                 [119] (83)
5704  00                 [120] (83)
5705  3F                 [121] (83)
5706  03                 [122] (83)
5707  00                 [123] (84)
5708  00                 [124] (84)
5709  40                 [125] (84)
570A  03                 [126] (84)
570B  00                 [127] (84)
570C  00                 [128] (84)
570D  40                 [129] (84)
570E  03                 [130] (84)
570F  00                 [131] (84)
5710  00                 [132] (84)
5711  40                 [133] (87)
5712  03                 [134] (87)
5713  00                 [135] (87)
5714  00                 [136] (87)
5715  41                 [137] (87)
5716  03                 [138] (87)
5717  00                 [139] (89)
5718  00                 [140] (89)
5719  41                 [141] (89)
571A  03                 [142] (89)
571B  00                 [143] (89)
571C  00                 [144] (89)
571D  41                 [145] (89)
571E  03                 [146] (89)
571F  00                 [147] (89)
5720  00                 [148] (89)
5721  41                 [149] (89)
5722  03                 [150] (89)
5723  00                 [151] (79)
5724  00                 [152] (93)
5725  41                 [153] (94)
5726  03                 [154] (94)
5727  00                 [155] (95)
5728  00                 [156] (95)
5729  42                 [157] (95)
572A  03                 [158] (95)
572B  00                 [159] (96)
572C  00                 [160] (96)
572D  43                 [161] (97)
572E  03                 [162] (97)
572F  00                 [163] (98)
5730  00                 [164] (98)
5731  43                 [165] (98)
5732  03                 [166] (98)
5733  00                 [167] (98)
5734  00                 [168] (98)
5735  43                 [169] (98)
5736  03                 [170] (98)
5737  00                 [171] (98)
5738  00                 [172] (98)
5739  44                 [173] (99)
573A  03                 [174] (99)
573B  00                 [175] (95)
573C  00                 [176] (103)
573D  46                 [177] (103)
573E  03                 [178] (103)
573F  00                 [179] (104)
5740  00                 [180] (104)
5741  46                 [181] (104)
5742  03                 [182] (104)
5743  00                 [183] (104)
5744  00                 [184] (104)
5745  46                 [185] (104)
5746  03                 [186] (105)
5747  00                 [187] (105)
5748  00                 [188] (105)
5749  46                 [189] (106)
574A  03                 [190] (106)
574B  00                 [191] (106)
574C  00                 [192] (107)
574D  46                 [193] (107)
574E  03                 [194] (107)
574F  00                 [195] (107)
5750  00                 [196] (111)
5751  46                 [197] (111)
5752  03                 [198] (111)
5753  00                 [199] (112)
5754  00                 [200] (112)
5755  46                 [201] (112)
5756  03                 [202] (112)
5757  00                 [203] (115)
5758  00                 [204] (115)
5759  46                 [205] (115)
575A  03                 [206] (115)
575B  00                 [207] (115)
575C  00                 [208] (116)
575D  46                 [209] (116)
575E  03                 [210] (116)
575F  00                 [211] (116)
5760  00                 [212] (118)
                         * locals:
59DD  00                 sizelocvars (0)
                         * upvalues:
59DE  00                 sizeupvalues (0)
                         ** end of function **

                         
59DF                     ** function [13] definition (level 2)
                         ** start of function **
59DF  00                 string size (0)
                         source name: (none)
59E1  06                 line defined (888)
59E2  92                 last line defined (914)
59E3  07                 nups (1)
59E4  01                 numparams (1)
59E5  01                 is_vararg (0)
59E6  00                 maxstacksize (14)
                         * code:
59E8  55                 sizecode (85)
59E9  5D000000           [01] getglobal  1   0        ; _T
59ED  4E40C000           [02] gettable   1   1   257  ; "dashElectricityUpgrade"
fail op	35
59F1  2380C000           [03] close      0  
59F5  1A800080           [04] jmp        3            ; to [8]
59F9  5D000000           [05] getglobal  1   0        ; _T
59FD  8B000000           [06] newtable   2   0   0    ; array=0, hash=0
5A01  4C808080           [07] settable   1   257 2    ; "dashElectricityUpgrade"
5A05  64C04000           [08] self       1   0   259  ; -605089866
5A09  62800001           [09] call       1   2   2  
5A0D  9D000000           [10] getglobal  2   0        ; _T
5A11  8E404001           [11] gettable   2   2   257  ; "dashElectricityUpgrade"
5A15  8E400001           [12] gettable   2   2   1  
fail op	35
5A19  23804001           [13] close      0  
5A1D  1AC00080           [14] jmp        4            ; to [19]
5A21  9D000000           [15] getglobal  2   0        ; _T
5A25  8E404001           [16] gettable   2   2   257  ; "dashElectricityUpgrade"
5A29  CB000000           [17] newtable   3   0   0    ; array=0, hash=0
5A2D  8CC08000           [18] settable   2   1   3  
5A31  93000000           [19] getupval   2   0      
5A35  8E004101           [20] gettable   2   2   260  ; "maxInstances"
5A39  DD000000           [21] getglobal  3   0        ; _T
5A3D  CE40C001           [22] gettable   3   3   257  ; "dashElectricityUpgrade"
5A41  CE408001           [23] gettable   3   3   1  
5A45  CA008001           [24] len        3   3      
5A49  19410100           [25] loadk      4   5        ; 0
5A4D  59810100           [26] loadk      5   6        ; 0
5A51  D0800380           [27] forprep    3   15       ; to [43]
5A55  DDC10100           [28] getglobal  7   7        ; 1074689893
5A59  1D020000           [29] getglobal  8   0        ; _T
5A5D  0E424004           [30] gettable   8   8   257  ; "dashElectricityUpgrade"
5A61  0E420004           [31] gettable   8   8   1  
5A65  0E820104           [32] gettable   8   8   6  
5A69  E2810001           [33] call       7   2   2  
5A6D  D8010000           [34] test       7       0    ; to [36] if true
5A71  1A800180           [35] jmp        7            ; to [43]
5A75  DD010200           [36] getglobal  7   8        ; table
5A79  CE41C203           [37] gettable   7   7   265  ; -843973282
5A7D  1D020000           [38] getglobal  8   0        ; _T
5A81  0E424004           [39] gettable   8   8   257  ; "dashElectricityUpgrade"
5A85  0E420004           [40] gettable   8   8   1  
5A89  52020003           [41] move       9   6      
5A8D  E2418001           [42] call       7   3   1  
5A91  D4C0FB7F           [43] forloop    3   -16      ; to [28] if loop
5A95  DD010000           [44] getglobal  7   0        ; _T
5A99  CE41C003           [45] gettable   7   7   257  ; "dashElectricityUpgrade"
5A9D  CE418003           [46] gettable   7   7   1  
5AA1  CA018003           [47] len        7   7      
fail op	33
5AA5  21C00101           [48] tforloop   0       7    ; to [50] if exit
5AA9  1A400380           [49] jmp        14           ; to [64]
5AAD  DD010000           [50] getglobal  7   0        ; _T
5AB1  CE41C003           [51] gettable   7   7   257  ; "dashElectricityUpgrade"
5AB5  CE418003           [52] gettable   7   7   1  
5AB9  CE41C103           [53] gettable   7   7   261  ; 0
5ABD  E481C203           [54] self       7   7   266  ; -725453761
5AC1  E2410001           [55] call       7   2   1  
5AC5  DD010200           [56] getglobal  7   8        ; table
5AC9  CE41C203           [57] gettable   7   7   265  ; -843973282
5ACD  1D020000           [58] getglobal  8   0        ; _T
5AD1  0E424004           [59] gettable   8   8   257  ; "dashElectricityUpgrade"
5AD5  0E420004           [60] gettable   8   8   1  
5AD9  59420100           [61] loadk      9   5        ; 0
5ADD  E2418001           [62] call       7   3   1  
5AE1  1AC0FA7F           [63] jmp        -20          ; to [44]
5AE5  E4C14200           [64] self       7   0   267  ; -1138845531
5AE9  E2810001           [65] call       7   2   2  
5AED  24424300           [66] self       8   0   269  ; 196800914
5AF1  22820001           [67] call       8   2   2  
5AF5  0E024304           [68] gettable   8   8   268  ; "y"
5AF9  03824304           [69] add        8   8   270  ; -102
5AFD  CC010286           [70] settable   7   268 8    ; "y"
5B01  1DC20300           [71] getglobal  8   15       ; gRegion
5B05  24024404           [72] self       8   8   272  ; -1110225722
5B09  9D420400           [73] getglobal  10  17       ; dashElectricBallType
5B0D  D2028003           [74] move       11  7      
5B11  1D830400           [75] getglobal  12  18       ; ZERO_ROTATION
5B15  52030000           [76] move       13  0      
5B19  22820003           [77] call       8   6   2  
5B1D  5D020200           [78] getglobal  9   8        ; table
5B21  4EC2C404           [79] gettable   9   9   275  ; -431682403
5B25  9D020000           [80] getglobal  10  0        ; _T
5B29  8E424005           [81] gettable   10  10  257  ; "dashElectricityUpgrade"
5B2D  8E420005           [82] gettable   10  10  1  
5B31  D2020004           [83] move       11  8      
5B35  62428001           [84] call       9   3   1  
5B39  1E008000           [85] return     0   1      
                         * constants:
5B3D  14                 sizek (20)
5B3E  04                 const type 4
5B3F  03                 string size (3)
5B40  5F5400             "_T\0"
                         const [0]: "_T"
5B43  04                 const type 4
5B44  17                 string size (23)
5B45  64617368456C6563+  "dashElec"
5B4D  7472696369747955+  "tricityU"
5B55  70677261646500     "pgrade\0"
                         const [1]: "dashElectricityUpgrade"
5B5C  00                 const type 0
                         const [2]: nil
5B5D  01                 const type 3
5B5E  B60FEFDB           const [3]: (-605089866)
5B62  04                 const type 4
5B63  0D                 string size (13)
5B64  6D6178496E737461+  "maxInsta"
5B6C  6E63657300         "nces\0"
                         const [4]: "maxInstances"
5B71  03                 const type 3
5B72  0000803F           const [5]: (0)
5B76  03                 const type 3
5B77  000080BF           const [6]: (0)
5B7B  01                 const type 3
5B7C  65770E40           const [7]: (1074689893)
5B80  04                 const type 4
5B81  06                 string size (6)
5B82  7461626C6500       "table\0"
                         const [8]: "table"
5B88  01                 const type 3
5B89  5EFDB1CD           const [9]: (-843973282)
5B8D  01                 const type 3
5B8E  3F74C2D4           const [10]: (-725453761)
5B92  01                 const type 3
5B93  A5981EBC           const [11]: (-1138845531)
5B97  04                 const type 4
5B98  02                 string size (2)
5B99  7900               "y\0"
                         const [12]: "y"
5B9B  01                 const type 3
5B9C  92F1BA0B           const [13]: (196800914)
5BA0  03                 const type 3
5BA1  9A99193F           const [14]: (-102)
5BA5  04                 const type 4
5BA6  08                 string size (8)
5BA7  67526567696F6E00   "gRegion\0"
                         const [15]: "gRegion"
5BAF  01                 const type 3
5BB0  C64CD3BD           const [16]: (-1110225722)
5BB4  04                 const type 4
5BB5  15                 string size (21)
5BB6  64617368456C6563+  "dashElec"
5BBE  7472696342616C6C+  "tricBall"
5BC6  5479706500         "Type\0"
                         const [17]: "dashElectricBallType"
5BCB  04                 const type 4
5BCC  0E                 string size (14)
5BCD  5A45524F5F524F54+  "ZERO_ROT"
5BD5  4154494F4E00       "ATION\0"
                         const [18]: "ZERO_ROTATION"
5BDB  01                 const type 3
5BDC  9D0C45E6           const [19]: (-431682403)
                         * functions:
5BE0  00                 sizep (0)
                         * lines:
5BE1  55                 sizelineinfo (85)
                         [pc] (line)
5BE2  79                 [01] (121)
5BE3  03                 [02] (121)
5BE4  00                 [03] (121)
5BE5  00                 [04] (121)
5BE6  79                 [05] (122)
5BE7  03                 [06] (122)
5BE8  00                 [07] (122)
5BE9  00                 [08] (125)
5BEA  79                 [09] (125)
5BEB  03                 [10] (126)
5BEC  00                 [11] (126)
5BED  00                 [12] (126)
5BEE  79                 [13] (126)
5BEF  03                 [14] (126)
5BF0  00                 [15] (127)
5BF1  00                 [16] (127)
5BF2  7A                 [17] (127)
5BF3  03                 [18] (127)
5BF4  00                 [19] (-126)
5BF5  00                 [20] (-126)
5BF6  7A                 [21] (-125)
5BF7  03                 [22] (-125)
5BF8  00                 [23] (-125)
5BF9  00                 [24] (-125)
5BFA  7A                 [25] (-125)
5BFB  03                 [26] (-125)
5BFC  00                 [27] (-125)
5BFD  00                 [28] (-124)
5BFE  7D                 [29] (-124)
5BFF  03                 [30] (-124)
5C00  00                 [31] (-124)
5C01  00                 [32] (-124)
5C02  7D                 [33] (-124)
5C03  03                 [34] (-124)
5C04  00                 [35] (-124)
5C05  00                 [36] (-123)
5C06  7E                 [37] (-123)
5C07  03                 [38] (-123)
5C08  00                 [39] (-123)
5C09  00                 [40] (-123)
5C0A  7E                 [41] (-123)
5C0B  03                 [42] (-123)
5C0C  00                 [43] (-125)
5C0D  00                 [44] (-119)
5C0E  7E                 [45] (-119)
5C0F  03                 [46] (-119)
5C10  00                 [47] (-119)
5C11  00                 [48] (-119)
5C12  7E                 [49] (-119)
5C13  03                 [50] (-118)
5C14  00                 [51] (-118)
5C15  00                 [52] (-118)
5C16  7E                 [53] (-118)
5C17  03                 [54] (-118)
5C18  00                 [55] (-118)
5C19  00                 [56] (-117)
5C1A  7F                 [57] (-117)
5C1B  03                 [58] (-117)
5C1C  00                 [59] (-117)
5C1D  00                 [60] (-117)
5C1E  7F                 [61] (-117)
5C1F  03                 [62] (-117)
5C20  00                 [63] (-117)
5C21  00                 [64] (-114)
5C22  7F                 [65] (-114)
5C23  03                 [66] (-113)
5C24  00                 [67] (-113)
5C25  00                 [68] (-113)
5C26  7F                 [69] (-113)
5C27  03                 [70] (-113)
5C28  00                 [71] (-112)
5C29  00                 [72] (-112)
5C2A  82                 [73] (-112)
5C2B  03                 [74] (-112)
5C2C  00                 [75] (-112)
5C2D  00                 [76] (-112)
5C2E  82                 [77] (-112)
5C2F  03                 [78] (-111)
5C30  00                 [79] (-111)
5C31  00                 [80] (-111)
5C32  83                 [81] (-111)
5C33  03                 [82] (-111)
5C34  00                 [83] (-111)
5C35  00                 [84] (-111)
5C36  83                 [85] (-110)
                         * locals:
5D36  00                 sizelocvars (0)
                         * upvalues:
5D37  00                 sizeupvalues (0)
                         ** end of function **

                         
5D38                     ** function [14] definition (level 2)
                         ** start of function **
5D38  00                 string size (0)
                         source name: (none)
5D3A  07                 line defined (916)
5D3B  CC                 last line defined (972)
5D3C  07                 nups (3)
5D3D  03                 numparams (1)
5D3E  01                 is_vararg (0)
5D3F  00                 maxstacksize (28)
                         * code:
5D42  01                 sizecode (175)
5D43  53000000           [001] getupval   1   0      
5D47  4E00C000           [002] gettable   1   1   256  ; -75093794
5D4B  92000000           [003] move       2   0      
5D4F  D3008000           [004] getupval   3   1      
5D53  CE40C001           [005] gettable   3   3   257  ; "tag"
5D57  13018000           [006] getupval   4   1      
5D5B  0E814002           [007] gettable   4   4   258  ; "radius"
5D5F  62800002           [008] call       1   4   2  
5D63  A4C04000           [009] self       2   0   259  ; -1138845531
5D67  A2800001           [010] call       2   2   2  
5D6B  E4404100           [011] self       3   0   261  ; 196800914
5D6F  E2800001           [012] call       3   2   2  
5D73  CE00C101           [013] gettable   3   3   260  ; "y"
5D77  8CC00082           [014] settable   2   260 3    ; "y"
5D7B  E4804100           [015] self       3   0   262  ; -315515802
5D7F  E2800001           [016] call       3   2   2  
5D83  CDC00001           [017] sub        3   2   3  
5D87  CCC04182           [018] settable   3   260 263  ; "y" 0
5D8B  1D010200           [019] getglobal  4   8        ; 1166235580
5D8F  52018001           [020] move       5   3      
5D93  22410001           [021] call       4   2   1  
5D97  24414200           [022] self       4   0   265  ; -1917464545
5D9B  22810001           [023] call       4   2   2  
5D9F  24814202           [024] self       4   4   266  ; 1769516121
5DA3  22810001           [025] call       4   2   2  
5DA7  5DC10200           [026] getglobal  5   11       ; gRegion
5DAB  6401C302           [027] self       5   5   268  ; -1110225722
5DAF  DD410300           [028] getglobal  7   13       ; shockwaveType
5DB3  12020001           [029] move       8   2      
5DB7  5D820300           [030] getglobal  9   14       ; -304944129
5DBB  9DC20300           [031] getglobal  10  15       ; ZERO_VECTOR
5DBF  D2028001           [032] move       11  3      
5DC3  62828001           [033] call       9   3   2  
5DC7  92020000           [034] move       10  0      
5DCB  62810003           [035] call       5   6   2  
5DCF  9D010400           [036] getglobal  6   16       ; 1074689893
5DD3  D2018002           [037] move       7   5      
5DD7  A2810001           [038] call       6   2   2  
5DDB  98410000           [039] test       6       1    ; to [41] if false
5DDF  1AC0FF7F           [040] jmp        0            ; to [41]
5DE3  93018000           [041] getupval   6   1      
5DE7  8E414403           [042] gettable   6   6   273  ; "speed"
5DEB  C4818101           [043] mul        7   3   6  
5DEF  13028000           [044] getupval   8   1      
5DF3  0E824404           [045] gettable   8   8   274  ; "distance"
5DF7  0E420004           [046] gettable   8   8   1  
5DFB  1C820104           [047] div        8   8   6  
5DFF  64C24400           [048] self       9   0   275  ; -344421190
5E03  D9020500           [049] loadk      11  20       ; 0
5E07  12030001           [050] move       12  2      
5E0B  64434500           [051] self       13  0   277  ; -365711519
5E0F  62830001           [052] call       13  2   2  
5E13  44838106           [053] mul        13  13  6  
5E17  44038206           [054] mul        13  13  8  
5E1B  43430301           [055] add        13  2   13 
5E1F  93038000           [056] getupval   14  1      
5E23  8E834007           [057] gettable   14  14  258  ; "radius"
5E27  8E430007           [058] gettable   14  14  1  
5E2B  D7030000           [059] loadbool   15  0   0    ; false
5E2F  17048000           [060] loadbool   16  1   0    ; true
5E33  57040000           [061] loadbool   17  0   0    ; false
5E37  62828004           [062] call       9   9   2  
5E3B  8B020000           [063] newtable   10  0   0    ; array=0, hash=0
5E3F  D9020500           [064] loadk      11  20       ; 0
5E43  0A038004           [065] len        12  9      
5E47  59030500           [066] loadk      13  20       ; 0
5E4B  D0420480           [067] forprep    11  18       ; to [86]
5E4F  CB830000           [068] newtable   15  0   2    ; array=0, hash=2
5E53  0E848304           [069] gettable   16  9   14 
5E57  CC03048B           [070] settable   15  278 16   ; "target"
5E5B  1D040600           [071] getglobal  16  24       ; 562846818
5E5F  4E848304           [072] gettable   17  9   14 
5E63  6444C108           [073] self       17  17  261  ; 196800914
5E67  62840001           [074] call       17  2   2  
5E6B  4D848008           [075] sub        17  17  2  
5E6F  22840001           [076] call       16  2   2  
5E73  44040203           [077] mul        17  6   8  
5E77  1C440408           [078] div        16  16  17 
5E7B  0D444608           [079] sub        16  16  281  ; 102
5E7F  CC03848B           [080] settable   15  279 16   ; "distanceRatio"
5E83  1D840600           [081] getglobal  16  26       ; table
5E87  0EC44608           [082] gettable   16  16  283  ; -431682403
5E8B  52040005           [083] move       17  10     
5E8F  92048007           [084] move       18  15     
5E93  22448001           [085] call       16  3   1  
5E97  D402FB7F           [086] forloop    11  -19      ; to [68] if loop
5E9B  1D040700           [087] getglobal  16  28       ; Engine
5E9F  0E444708           [088] gettable   16  16  285  ; -98643418
5EA3  22848000           [089] call       16  1   2  
5EA7  5DC40200           [090] getglobal  17  11       ; gRegion
5EAB  6484C708           [091] self       17  17  286  ; -1520831144
5EAF  62840001           [092] call       17  2   2  
5EB3  58040000           [093] test       17      0    ; to [95] if true
5EB7  1AC00480           [094] jmp        20           ; to [115]
5EBB  4A040005           [095] len        17  10     
fail op	21
5EBF  15408483           [096] concat     0   263 17 
5EC3  1A000480           [097] jmp        17           ; to [115]
5EC7  0CC4C18F           [098] settable   16  287 263  ; "baseAmount" 0
5ECB  64044808           [099] self       17  16  288  ; -420630141
5ECF  D2040000           [100] move       19  0      
5ED3  62448001           [101] call       17  3   1  
5ED7  64444808           [102] self       17  16  289  ; -2049256907
5EDB  D2040002           [103] move       19  4      
5EDF  62448001           [104] call       17  3   1  
5EE3  64844808           [105] self       17  16  290  ; -995861768
5EE7  DD040700           [106] getglobal  19  28       ; Engine
5EEB  CEC4C809           [107] gettable   19  19  291  ; "DT_IMPACT"
5EEF  19050500           [108] loadk      20  20       ; 0
5EF3  62440002           [109] call       17  4   1  
5EF7  64044908           [110] self       17  16  292  ; 1398603399
5EFB  DD440900           [111] getglobal  19  37       ; Game
5EFF  CE84C909           [112] gettable   19  19  294  ; "PT_STUNNED"
5F03  17058000           [113] loadbool   20  1   0    ; true
5F07  62440002           [114] call       17  4   1  
5F0B  59C40100           [115] loadk      17  7        ; 0
fail op	21
5F0F  15008208           [116] concat     0   17  8  
5F13  1A000D80           [117] jmp        53           ; to [171]
5F17  9DC40900           [118] getglobal  18  39       ; 1289681407
5F1B  A2848000           [119] call       18  1   2  
5F1F  DC048208           [120] div        19  17  8  
5F23  1DC50200           [121] getglobal  20  11       ; gRegion
5F27  2485470A           [122] self       20  20  286  ; -1520831144
5F2B  22850001           [123] call       20  2   2  
5F2F  18050000           [124] test       20      0    ; to [126] if true
5F33  1A400780           [125] jmp        30           ; to [156]
5F37  19050500           [126] loadk      20  20       ; 0
5F3B  4A050005           [127] len        21  10     
5F3F  99050500           [128] loadk      22  20       ; 0
5F43  10050680           [129] forprep    20  25       ; to [155]
5F47  1D060400           [130] getglobal  24  16       ; 1074689893
5F4B  4EC60505           [131] gettable   25  10  23 
5F4F  22860001           [132] call       24  2   2  
5F53  18460000           [133] test       24      1    ; to [135] if false
5F57  1AC00480           [134] jmp        20           ; to [155]
5F5B  1D060400           [135] getglobal  24  16       ; 1074689893
5F5F  4EC60505           [136] gettable   25  10  23 
5F63  4E86C50C           [137] gettable   25  25  278  ; "target"
5F67  22860001           [138] call       24  2   2  
5F6B  18460000           [139] test       24      1    ; to [141] if false
5F6F  1A400380           [140] jmp        14           ; to [155]
5F73  0EC60505           [141] gettable   24  10  23 
5F77  0EC6450C           [142] gettable   24  24  279  ; "distanceRatio"
fail op	33
5F7B  21C0040C           [143] tforloop   0       19   ; to [145] if exit
5F7F  1A400280           [144] jmp        10           ; to [155]
5F83  0EC60505           [145] gettable   24  10  23 
5F87  0E86450C           [146] gettable   24  24  278  ; "target"
5F8B  24064A0C           [147] self       24  24  296  ; 1193457265
5F8F  92060008           [148] move       26  16     
5F93  22468001           [149] call       24  3   1  
5F97  1D860600           [150] getglobal  24  26       ; table
5F9B  0E464A0C           [151] gettable   24  24  297  ; -843973282
5F9F  52060005           [152] move       25  10     
5FA3  9206800B           [153] move       26  23     
5FA7  22468001           [154] call       24  3   1  
5FAB  1445F97F           [155] forloop    20  -26      ; to [130] if loop
5FAF  2486CA02           [156] self       24  5   298  ; -333955620
5FB3  A446C102           [157] self       26  5   261  ; 196800914
5FB7  A2860001           [158] call       26  2   2  
5FBB  C4868403           [159] mul        27  7   18 
5FBF  83C6060D           [160] add        26  26  27 
5FC3  22468001           [161] call       24  3   1  
5FC7  24C6CA02           [162] self       24  5   299  ; -786111647
5FCB  93060001           [163] getupval   26  2      
5FCF  CDC6048A           [164] sub        27  276 19   ; 0
5FD3  22460002           [165] call       24  4   1  
5FD7  43848408           [166] add        17  17  18 
5FDB  1D060B00           [167] getglobal  24  44       ; 538022378
5FDF  59C60100           [168] loadk      25  7        ; 0
5FE3  22460001           [169] call       24  2   1  
5FE7  1A00F27F           [170] jmp        -55          ; to [116]
5FEB  1DC60200           [171] getglobal  24  11       ; gRegion
5FEF  24464B0C           [172] self       24  24  301  ; -1693828985
5FF3  92068002           [173] move       26  5      
5FF7  22468001           [174] call       24  3   1  
5FFB  1E008000           [175] return     0   1      
                         * constants:
5FFF  2E                 sizek (46)
6000  01                 const type 3
6001  DE2886FB           const [0]: (-75093794)
6005  04                 const type 4
6006  04                 string size (4)
6007  74616700           "tag\0"
                         const [1]: "tag"
600B  04                 const type 4
600C  07                 string size (7)
600D  72616469757300     "radius\0"
                         const [2]: "radius"
6014  01                 const type 3
6015  A5981EBC           const [3]: (-1138845531)
6019  04                 const type 4
601A  02                 string size (2)
601B  7900               "y\0"
                         const [4]: "y"
601D  01                 const type 3
601E  92F1BA0B           const [5]: (196800914)
6022  01                 const type 3
6023  669C31ED           const [6]: (-315515802)
6027  03                 const type 3
6028  00000000           const [7]: (0)
602C  01                 const type 3
602D  BC578345           const [8]: (1166235580)
6031  01                 const type 3
6032  1FD0B58D           const [9]: (-1917464545)
6036  01                 const type 3
6037  59AC7869           const [10]: (1769516121)
603B  04                 const type 4
603C  08                 string size (8)
603D  67526567696F6E00   "gRegion\0"
                         const [11]: "gRegion"
6045  01                 const type 3
6046  C64CD3BD           const [12]: (-1110225722)
604A  04                 const type 4
604B  0E                 string size (14)
604C  73686F636B776176+  "shockwav"
6054  655479706500       "eType\0"
                         const [13]: "shockwaveType"
605A  01                 const type 3
605B  FFEBD2ED           const [14]: (-304944129)
605F  04                 const type 4
6060  0C                 string size (12)
6061  5A45524F5F564543+  "ZERO_VEC"
6069  544F5200           "TOR\0"
                         const [15]: "ZERO_VECTOR"
606D  01                 const type 3
606E  65770E40           const [16]: (1074689893)
6072  04                 const type 4
6073  06                 string size (6)
6074  737065656400       "speed\0"
                         const [17]: "speed"
607A  04                 const type 4
607B  09                 string size (9)
607C  64697374616E6365+  "distance"
6084  00                 "\0"
                         const [18]: "distance"
6085  01                 const type 3
6086  BA8C78EB           const [19]: (-344421190)
608A  03                 const type 3
608B  0000803F           const [20]: (0)
608F  01                 const type 3
6090  61AF33EA           const [21]: (-365711519)
6094  04                 const type 4
6095  07                 string size (7)
6096  74617267657400     "target\0"
                         const [22]: "target"
609D  04                 const type 4
609E  0E                 string size (14)
609F  64697374616E6365+  "distance"
60A7  526174696F00       "Ratio\0"
                         const [23]: "distanceRatio"
60AD  01                 const type 3
60AE  625C8C21           const [24]: (562846818)
60B2  03                 const type 3
60B3  6666E63E           const [25]: (102)
60B7  04                 const type 4
60B8  06                 string size (6)
60B9  7461626C6500       "table\0"
                         const [26]: "table"
60BF  01                 const type 3
60C0  9D0C45E6           const [27]: (-431682403)
60C4  04                 const type 4
60C5  07                 string size (7)
60C6  456E67696E6500     "Engine\0"
                         const [28]: "Engine"
60CD  01                 const type 3
60CE  26D21EFA           const [29]: (-98643418)
60D2  01                 const type 3
60D3  58F559A5           const [30]: (-1520831144)
60D7  04                 const type 4
60D8  0B                 string size (11)
60D9  62617365416D6F75+  "baseAmou"
60E1  6E7400             "nt\0"
                         const [31]: "baseAmount"
60E4  01                 const type 3
60E5  83B1EDE6           const [32]: (-420630141)
60E9  01                 const type 3
60EA  35D2DA85           const [33]: (-2049256907)
60EE  01                 const type 3
60EF  F85AA4C4           const [34]: (-995861768)
60F3  04                 const type 4
60F4  0A                 string size (10)
60F5  44545F494D504143+  "DT_IMPAC"
60FD  5400               "T\0"
                         const [35]: "DT_IMPACT"
60FF  01                 const type 3
6100  87FE5C53           const [36]: (1398603399)
6104  04                 const type 4
6105  05                 string size (5)
6106  47616D6500         "Game\0"
                         const [37]: "Game"
610B  04                 const type 4
610C  0B                 string size (11)
610D  50545F5354554E4E+  "PT_STUNN"
6115  454400             "ED\0"
                         const [38]: "PT_STUNNED"
6118  01                 const type 3
6119  FFF9DE4C           const [39]: (1289681407)
611D  01                 const type 3
611E  71B62247           const [40]: (1193457265)
6122  01                 const type 3
6123  5EFDB1CD           const [41]: (-843973282)
6127  01                 const type 3
6128  DC3D18EC           const [42]: (-333955620)
612C  01                 const type 3
612D  61E324D1           const [43]: (-786111647)
6131  01                 const type 3
6132  EA911120           const [44]: (538022378)
6136  01                 const type 3
6137  87380A9B           const [45]: (-1693828985)
                         * functions:
613B  00                 sizep (0)
                         * lines:
613D  01                 sizelineinfo (175)
                         [pc] (line)
613E  95                 [001] (-107)
613F  03                 [002] (-107)
6140  00                 [003] (-107)
6141  00                 [004] (-107)
6142  95                 [005] (-107)
6143  03                 [006] (-107)
6144  00                 [007] (-107)
6145  00                 [008] (-107)
6146  95                 [009] (-105)
6147  03                 [010] (-105)
6148  00                 [011] (-104)
6149  00                 [012] (-104)
614A  95                 [013] (-104)
614B  03                 [014] (-104)
614C  00                 [015] (-103)
614D  00                 [016] (-103)
614E  95                 [017] (-103)
614F  03                 [018] (-102)
6150  00                 [019] (-101)
6151  00                 [020] (-101)
6152  95                 [021] (-101)
6153  03                 [022] (-99)
6154  00                 [023] (-99)
6155  00                 [024] (-99)
6156  95                 [025] (-99)
6157  03                 [026] (-97)
6158  00                 [027] (-97)
6159  00                 [028] (-97)
615A  95                 [029] (-97)
615B  03                 [030] (-97)
615C  00                 [031] (-97)
615D  00                 [032] (-97)
615E  97                 [033] (-97)
615F  03                 [034] (-97)
6160  00                 [035] (-97)
6161  00                 [036] (-96)
6162  97                 [037] (-96)
6163  03                 [038] (-96)
6164  00                 [039] (-96)
6165  00                 [040] (-96)
6166  98                 [041] (-93)
6167  03                 [042] (-93)
6168  00                 [043] (-92)
6169  00                 [044] (-91)
616A  98                 [045] (-91)
616B  03                 [046] (-91)
616C  00                 [047] (-91)
616D  00                 [048] (-89)
616E  98                 [049] (-89)
616F  03                 [050] (-89)
6170  00                 [051] (-89)
6171  00                 [052] (-89)
6172  98                 [053] (-89)
6173  03                 [054] (-89)
6174  00                 [055] (-89)
6175  00                 [056] (-89)
6176  99                 [057] (-89)
6177  03                 [058] (-89)
6178  00                 [059] (-89)
6179  00                 [060] (-89)
617A  99                 [061] (-89)
617B  03                 [062] (-89)
617C  00                 [063] (-88)
617D  00                 [064] (-87)
617E  99                 [065] (-87)
617F  03                 [066] (-87)
6180  00                 [067] (-87)
6181  00                 [068] (-86)
6182  9A                 [069] (-86)
6183  03                 [070] (-86)
6184  00                 [071] (-86)
6185  00                 [072] (-86)
6186  9B                 [073] (-86)
6187  03                 [074] (-86)
6188  00                 [075] (-86)
6189  00                 [076] (-86)
618A  9B                 [077] (-86)
618B  03                 [078] (-86)
618C  00                 [079] (-86)
618D  00                 [080] (-86)
618E  9B                 [081] (-85)
618F  03                 [082] (-85)
6190  00                 [083] (-85)
6191  00                 [084] (-85)
6192  9D                 [085] (-85)
6193  03                 [086] (-87)
6194  00                 [087] (-82)
6195  00                 [088] (-82)
6196  9D                 [089] (-82)
6197  03                 [090] (-81)
6198  00                 [091] (-81)
6199  00                 [092] (-81)
619A  9D                 [093] (-81)
619B  03                 [094] (-81)
619C  00                 [095] (-81)
619D  00                 [096] (-81)
619E  9D                 [097] (-81)
619F  03                 [098] (-80)
61A0  00                 [099] (-79)
61A1  00                 [100] (-79)
61A2  9F                 [101] (-79)
61A3  03                 [102] (-78)
61A4  00                 [103] (-78)
61A5  00                 [104] (-78)
61A6  9F                 [105] (-77)
61A7  03                 [106] (-77)
61A8  00                 [107] (-77)
61A9  00                 [108] (-77)
61AA  9F                 [109] (-77)
61AB  03                 [110] (-76)
61AC  00                 [111] (-76)
61AD  00                 [112] (-76)
61AE  9F                 [113] (-76)
61AF  03                 [114] (-76)
61B0  00                 [115] (-73)
61B1  00                 [116] (-72)
61B2  9F                 [117] (-72)
61B3  03                 [118] (-71)
61B4  00                 [119] (-71)
61B5  00                 [120] (-70)
61B6  9F                 [121] (-69)
61B7  03                 [122] (-69)
61B8  00                 [123] (-69)
61B9  00                 [124] (-69)
61BA  9F                 [125] (-69)
61BB  03                 [126] (-68)
61BC  00                 [127] (-68)
61BD  00                 [128] (-68)
61BE  9F                 [129] (-68)
61BF  03                 [130] (-67)
61C0  00                 [131] (-67)
61C1  00                 [132] (-67)
61C2  9F                 [133] (-67)
61C3  03                 [134] (-67)
61C4  00                 [135] (-67)
61C5  00                 [136] (-67)
61C6  9F                 [137] (-67)
61C7  03                 [138] (-67)
61C8  00                 [139] (-67)
61C9  00                 [140] (-67)
61CA  A0                 [141] (-66)
61CB  03                 [142] (-66)
61CC  00                 [143] (-66)
61CD  00                 [144] (-66)
61CE  A0                 [145] (-65)
61CF  03                 [146] (-65)
61D0  00                 [147] (-65)
61D1  00                 [148] (-65)
61D2  A0                 [149] (-65)
61D3  03                 [150] (-64)
61D4  00                 [151] (-64)
61D5  00                 [152] (-64)
61D6  A0                 [153] (-64)
61D7  03                 [154] (-64)
61D8  00                 [155] (-68)
61D9  00                 [156] (-59)
61DA  A0                 [157] (-59)
61DB  03                 [158] (-59)
61DC  00                 [159] (-59)
61DD  00                 [160] (-59)
61DE  A3                 [161] (-59)
61DF  03                 [162] (-58)
61E0  00                 [163] (-58)
61E1  00                 [164] (-58)
61E2  A3                 [165] (-58)
61E3  03                 [166] (-57)
61E4  00                 [167] (-56)
61E5  00                 [168] (-56)
61E6  A4                 [169] (-56)
61E7  03                 [170] (-56)
61E8  00                 [171] (-53)
61E9  00                 [172] (-53)
61EA  A5                 [173] (-53)
61EB  03                 [174] (-53)
61EC  00                 [175] (-52)
                         * locals:
63FA  00                 sizelocvars (0)
                         * upvalues:
63FB  00                 sizeupvalues (0)
                         ** end of function **

                         
63FC                     ** function [15] definition (level 2)
                         ** start of function **
63FC  00                 string size (0)
                         source name: (none)
63FE  07                 line defined (974)
63FF  DD                 last line defined (989)
6400  07                 nups (0)
6401  00                 numparams (4)
6402  04                 is_vararg (0)
6403  00                 maxstacksize (9)
                         * code:
6405  33                 sizecode (51)
6406  1D010000           [01] getglobal  4   0        ; 1074689893
640A  5D410000           [02] getglobal  5   1        ; _T
640E  4E81C002           [03] gettable   5   5   258  ; "voidStrike"
6412  22810001           [04] call       4   2   2  
6416  18410000           [05] test       4       1    ; to [7] if false
641A  1A800180           [06] jmp        7            ; to [14]
641E  1D010000           [07] getglobal  4   0        ; 1074689893
6422  5D410000           [08] getglobal  5   1        ; _T
6426  4E81C002           [09] gettable   5   5   258  ; "voidStrike"
642A  4E818002           [10] gettable   5   5   2  
642E  22810001           [11] call       4   2   2  
6432  18010000           [12] test       4       0    ; to [14] if true
6436  1A000080           [13] jmp        1            ; to [15]
643A  1E008000           [14] return     0   1      
643E  1D010100           [15] getglobal  4   4        ; math
6442  0E414102           [16] gettable   4   4   261  ; -150971781
6446  5D410000           [17] getglobal  5   1        ; _T
644A  4E81C002           [18] gettable   5   5   258  ; "voidStrike"
644E  4E818002           [19] gettable   5   5   2  
6452  4E81C102           [20] gettable   5   5   262  ; "multiplier"
6456  44C1C102           [21] mul        5   5   263  ; 0
645A  4301C202           [22] add        5   5   264  ; 0
645E  22810001           [23] call       4   2   2  
6462  1CC14102           [24] div        4   4   263  ; 0
6466  CC008181           [25] settable   3   259 4    ; "buffData"
646A  1D410000           [26] getglobal  4   1        ; _T
646E  0E814002           [27] gettable   4   4   258  ; "voidStrike"
6472  0E810002           [28] gettable   4   4   2  
6476  0E814202           [29] gettable   4   4   266  ; "numAttacks"
647A  CC008184           [30] settable   3   265 4    ; "buffDataExtra"
647E  CC008085           [31] settable   3   267 0    ; "instigator"
6482  0B018000           [32] newtable   4   1   0    ; array=1, hash=0
6486  52010000           [33] move       5   0      
648A  1B418000           [34] setlist    4   1   1    ; index 1 to 1
648E  CC000186           [35] settable   3   268 4    ; "affected"
6492  24414300           [36] self       4   0   269  ; 1481577430
6496  92018001           [37] move       6   3      
649A  D7018000           [38] loadbool   7   1   0    ; true
649E  17020000           [39] loadbool   8   0   0    ; false
64A2  22418002           [40] call       4   5   1  
64A6  CC408085           [41] settable   3   267 1    ; "instigator"
64AA  0B018000           [42] newtable   4   1   0    ; array=1, hash=0
64AE  52018000           [43] move       5   1      
64B2  1B418000           [44] setlist    4   1   1    ; index 1 to 1
64B6  CC000186           [45] settable   3   268 4    ; "affected"
64BA  2441C300           [46] self       4   1   269  ; 1481577430
64BE  92018001           [47] move       6   3      
64C2  D7018000           [48] loadbool   7   1   0    ; true
64C6  17020000           [49] loadbool   8   0   0    ; false
64CA  22418002           [50] call       4   5   1  
64CE  1E008000           [51] return     0   1      
                         * constants:
64D2  0E                 sizek (14)
64D3  01                 const type 3
64D4  65770E40           const [0]: (1074689893)
64D8  04                 const type 4
64D9  03                 string size (3)
64DA  5F5400             "_T\0"
                         const [1]: "_T"
64DD  04                 const type 4
64DE  0B                 string size (11)
64DF  766F696453747269+  "voidStri"
64E7  6B6500             "ke\0"
                         const [2]: "voidStrike"
64EA  04                 const type 4
64EB  09                 string size (9)
64EC  6275666644617461+  "buffData"
64F4  00                 "\0"
                         const [3]: "buffData"
64F5  04                 const type 4
64F6  05                 string size (5)
64F7  6D61746800         "math\0"
                         const [4]: "math"
64FC  01                 const type 3
64FD  7B5A00F7           const [5]: (-150971781)
6501  04                 const type 4
6502  0B                 string size (11)
6503  6D756C7469706C69+  "multipli"
650B  657200             "er\0"
                         const [6]: "multiplier"
650E  03                 const type 3
650F  0000C842           const [7]: (0)
6513  03                 const type 3
6514  0000003F           const [8]: (0)
6518  04                 const type 4
6519  0E                 string size (14)
651A  6275666644617461+  "buffData"
6522  457874726100       "Extra\0"
                         const [9]: "buffDataExtra"
6528  04                 const type 4
6529  0B                 string size (11)
652A  6E756D4174746163+  "numAttac"
6532  6B7300             "ks\0"
                         const [10]: "numAttacks"
6535  04                 const type 4
6536  0B                 string size (11)
6537  696E737469676174+  "instigat"
653F  6F7200             "or\0"
                         const [11]: "instigator"
6542  04                 const type 4
6543  09                 string size (9)
6544  6166666563746564+  "affected"
654C  00                 "\0"
                         const [12]: "affected"
654D  01                 const type 3
654E  D6134F58           const [13]: (1481577430)
                         * functions:
6552  00                 sizep (0)
                         * lines:
6553  33                 sizelineinfo (51)
                         [pc] (line)
6554  CF                 [01] (-49)
6555  03                 [02] (-49)
6556  00                 [03] (-49)
6557  00                 [04] (-49)
6558  CF                 [05] (-49)
6559  03                 [06] (-49)
655A  00                 [07] (-49)
655B  00                 [08] (-49)
655C  CF                 [09] (-49)
655D  03                 [10] (-49)
655E  00                 [11] (-49)
655F  00                 [12] (-49)
6560  CF                 [13] (-49)
6561  03                 [14] (-48)
6562  00                 [15] (-45)
6563  00                 [16] (-45)
6564  CF                 [17] (-45)
6565  03                 [18] (-45)
6566  00                 [19] (-45)
6567  00                 [20] (-45)
6568  CF                 [21] (-45)
6569  03                 [22] (-45)
656A  00                 [23] (-45)
656B  00                 [24] (-45)
656C  CF                 [25] (-45)
656D  03                 [26] (-44)
656E  00                 [27] (-44)
656F  00                 [28] (-44)
6570  CF                 [29] (-44)
6571  03                 [30] (-44)
6572  00                 [31] (-42)
6573  00                 [32] (-41)
6574  CF                 [33] (-41)
6575  03                 [34] (-41)
6576  00                 [35] (-41)
6577  00                 [36] (-40)
6578  CF                 [37] (-40)
6579  03                 [38] (-40)
657A  00                 [39] (-40)
657B  00                 [40] (-40)
657C  CF                 [41] (-38)
657D  03                 [42] (-37)
657E  00                 [43] (-37)
657F  00                 [44] (-37)
6580  CF                 [45] (-37)
6581  03                 [46] (-36)
6582  00                 [47] (-36)
6583  00                 [48] (-36)
6584  CF                 [49] (-36)
6585  03                 [50] (-36)
6586  00                 [51] (-35)
                         * locals:
6620  00                 sizelocvars (0)
                         * upvalues:
6621  00                 sizeupvalues (0)
                         ** end of function **

                         
6622                     ** function [16] definition (level 2)
                         ** start of function **
6622  00                 string size (0)
                         source name: (none)
6624  07                 line defined (991)
6625  E7                 last line defined (999)
6626  07                 nups (0)
6627  00                 numparams (3)
6628  03                 is_vararg (0)
6629  00                 maxstacksize (6)
                         * code:
662B  24                 sizecode (36)
662C  DD000000           [01] getglobal  3   0        ; 1074689893
6630  1D410000           [02] getglobal  4   1        ; _T
6634  0E814002           [03] gettable   4   4   258  ; "voidStrike"
6638  E2800001           [04] call       3   2   2  
663C  D8400000           [05] test       3       1    ; to [7] if false
6640  1A800180           [06] jmp        7            ; to [14]
6644  DD000000           [07] getglobal  3   0        ; 1074689893
6648  1D410000           [08] getglobal  4   1        ; _T
664C  0E814002           [09] gettable   4   4   258  ; "voidStrike"
6650  0E810002           [10] gettable   4   4   2  
6654  E2800001           [11] call       3   2   2  
6658  D8000000           [12] test       3       0    ; to [14] if true
665C  1A000080           [13] jmp        1            ; to [15]
6660  1E008000           [14] return     0   1      
6664  DD400000           [15] getglobal  3   1        ; _T
6668  CE80C001           [16] gettable   3   3   258  ; "voidStrike"
666C  CE808001           [17] gettable   3   3   2  
6670  1D410000           [18] getglobal  4   1        ; _T
6674  0E814002           [19] gettable   4   4   258  ; "voidStrike"
6678  0E810002           [20] gettable   4   4   2  
667C  0EC14002           [21] gettable   4   4   259  ; "numAttacks"
6680  0D014102           [22] sub        4   4   260  ; 0
6684  CC008181           [23] settable   3   259 4    ; "numAttacks"
6688  E4404100           [24] self       3   0   261  ; 1921976771
668C  5D410000           [25] getglobal  5   1        ; _T
6690  4E81C002           [26] gettable   5   5   258  ; "voidStrike"
6694  4E818002           [27] gettable   5   5   2  
6698  4E81C102           [28] gettable   5   5   262  ; "multiplier"
669C  E2408001           [29] call       3   3   1  
66A0  E440C100           [30] self       3   1   261  ; 1921976771
66A4  5D410000           [31] getglobal  5   1        ; _T
66A8  4E81C002           [32] gettable   5   5   258  ; "voidStrike"
66AC  4E818002           [33] gettable   5   5   2  
66B0  4E81C102           [34] gettable   5   5   262  ; "multiplier"
66B4  E2408001           [35] call       3   3   1  
66B8  1E008000           [36] return     0   1      
                         * constants:
66BC  07                 sizek (7)
66BD  01                 const type 3
66BE  65770E40           const [0]: (1074689893)
66C2  04                 const type 4
66C3  03                 string size (3)
66C4  5F5400             "_T\0"
                         const [1]: "_T"
66C7  04                 const type 4
66C8  0B                 string size (11)
66C9  766F696453747269+  "voidStri"
66D1  6B6500             "ke\0"
                         const [2]: "voidStrike"
66D4  04                 const type 4
66D5  0B                 string size (11)
66D6  6E756D4174746163+  "numAttac"
66DE  6B7300             "ks\0"
                         const [3]: "numAttacks"
66E1  03                 const type 3
66E2  0000803F           const [4]: (0)
66E6  01                 const type 3
66E7  C3098F72           const [5]: (1921976771)
66EB  04                 const type 4
66EC  0B                 string size (11)
66ED  6D756C7469706C69+  "multipli"
66F5  657200             "er\0"
                         const [6]: "multiplier"
                         * functions:
66F8  00                 sizep (0)
                         * lines:
66F9  24                 sizelineinfo (36)
                         [pc] (line)
66FA  E0                 [01] (-32)
66FB  03                 [02] (-32)
66FC  00                 [03] (-32)
66FD  00                 [04] (-32)
66FE  E0                 [05] (-32)
66FF  03                 [06] (-32)
6700  00                 [07] (-32)
6701  00                 [08] (-32)
6702  E0                 [09] (-32)
6703  03                 [10] (-32)
6704  00                 [11] (-32)
6705  00                 [12] (-32)
6706  E0                 [13] (-32)
6707  03                 [14] (-31)
6708  00                 [15] (-28)
6709  00                 [16] (-28)
670A  E0                 [17] (-28)
670B  03                 [18] (-28)
670C  00                 [19] (-28)
670D  00                 [20] (-28)
670E  E0                 [21] (-28)
670F  03                 [22] (-28)
6710  00                 [23] (-28)
6711  00                 [24] (-27)
6712  E0                 [25] (-27)
6713  03                 [26] (-27)
6714  00                 [27] (-27)
6715  00                 [28] (-27)
6716  E0                 [29] (-27)
6717  03                 [30] (-26)
6718  00                 [31] (-26)
6719  00                 [32] (-26)
671A  E0                 [33] (-26)
671B  03                 [34] (-26)
671C  00                 [35] (-26)
671D  00                 [36] (-25)
                         * locals:
678A  00                 sizelocvars (0)
                         * upvalues:
678B  00                 sizeupvalues (0)
                         ** end of function **

                         
678C                     ** function [17] definition (level 2)
                         ** start of function **
678C  00                 string size (0)
                         source name: (none)
678E  07                 line defined (1001)
678F  A9                 last line defined (1065)
6790  08                 nups (2)
6791  02                 numparams (1)
6792  01                 is_vararg (0)
6793  00                 maxstacksize (14)
                         * code:
6796  01                 sizecode (190)
6797  64004000           [001] self       1   0   256  ; -1764426596
679B  62800001           [002] call       1   2   2  
679F  9D400000           [003] getglobal  2   1        ; 1074689893
67A3  D2008000           [004] move       3   1      
67A7  A2800001           [005] call       2   2   2  
67AB  98000000           [006] test       2       0    ; to [8] if true
67AF  1A000080           [007] jmp        1            ; to [9]
67B3  1E008000           [008] return     0   1      
67B7  A4804000           [009] self       2   0   258  ; -605089866
67BB  A2800001           [010] call       2   2   2  
67BF  E4C0C000           [011] self       3   1   259  ; -1813551355
67C3  E2800001           [012] call       3   2   2  
67C7  24014100           [013] self       4   0   260  ; -717859730
67CB  22810001           [014] call       4   2   2  
67CF  5D410100           [015] getglobal  5   5        ; Lotus_Game
67D3  4E81C102           [016] gettable   5   5   262  ; -84065502
67D7  62818000           [017] call       5   1   2  
67DB  9D410100           [018] getglobal  6   5        ; Lotus_Game
67DF  8E014203           [019] gettable   6   6   264  ; "BT_AMOUNT_STACK"
67E3  4C818183           [020] settable   5   263 6    ; "buffType"
67E7  9D810200           [021] getglobal  6   10       ; 738251817
67EB  D9C10200           [022] loadk      7   11       ; "/Lotus/Upgrades/Focus/Attack/Active/CloakAttackChargeFocusUpgrade"
67EF  A2810001           [023] call       6   2   2  
67F3  4C818184           [024] settable   5   265 6    ; "abilityType"
67F7  18010000           [025] test       4       0    ; to [27] if true
67FB  1A400180           [026] jmp        6            ; to [33]
67FF  93010000           [027] getupval   6   0      
6803  D2010000           [028] move       7   0      
6807  12028001           [029] move       8   3      
680B  52020001           [030] move       9   2      
680F  92028002           [031] move       10  5      
6813  A2418002           [032] call       6   5   1  
6817  9D410000           [033] getglobal  6   1        ; 1074689893
681B  D2010000           [034] move       7   0      
681F  A2810001           [035] call       6   2   2  
6823  98410000           [036] test       6       1    ; to [38] if false
6827  1A001C80           [037] jmp        113          ; to [151]
682B  9D410000           [038] getglobal  6   1        ; 1074689893
682F  D2018001           [039] move       7   3      
6833  A2810001           [040] call       6   2   2  
6837  98410000           [041] test       6       1    ; to [43] if false
683B  1AC01A80           [042] jmp        108          ; to [151]
683F  9D410000           [043] getglobal  6   1        ; 1074689893
6843  DD010300           [044] getglobal  7   12       ; _T
6847  CE41C303           [045] gettable   7   7   269  ; "voidStrike"
684B  CE818003           [046] gettable   7   7   2  
684F  A2810001           [047] call       6   2   2  
6853  98410000           [048] test       6       1    ; to [50] if false
6857  1A001980           [049] jmp        101          ; to [151]
685B  A4814300           [050] self       6   0   270  ; 1340411811
685F  A2810001           [051] call       6   2   2  
fail op	35
6863  23C04303           [052] close      0  
6867  1A000980           [053] jmp        37           ; to [91]
686B  9D010300           [054] getglobal  6   12       ; _T
686F  8E414303           [055] gettable   6   6   269  ; "voidStrike"
6873  8E810003           [056] gettable   6   6   2  
6877  8E014403           [057] gettable   6   6   272  ; "numAttacks"
fail op	35
687B  23C04303           [058] close      0  
687F  1A000480           [059] jmp        17           ; to [77]
6883  A481C301           [060] self       6   3   270  ; 1340411811
6887  A2810001           [061] call       6   2   2  
688B  E441C401           [062] self       7   3   273  ; 1921976771
688F  5D820400           [063] getglobal  9   18       ; math
6893  4EC2C404           [064] gettable   9   9   275  ; -113279800
6897  9D020300           [065] getglobal  10  12       ; _T
689B  8E424305           [066] gettable   10  10  269  ; "voidStrike"
689F  8E820005           [067] gettable   10  10  2  
68A3  8E024505           [068] gettable   10  10  276  ; "multiplier"
68A7  8D820105           [069] sub        10  10  6  
68AB  62820001           [070] call       9   2   2  
68AF  43428287           [071] add        9   271 9    ; 0
68B3  E2418001           [072] call       7   3   1  
68B7  DD010300           [073] getglobal  7   12       ; _T
68BB  CE41C303           [074] gettable   7   7   269  ; "voidStrike"
68BF  CC414501           [075] settable   7   2   277  ; nil
68C3  1A401180           [076] jmp        70           ; to [147]
68C7  D3018000           [077] getupval   7   1      
68CB  12020000           [078] move       8   0      
68CF  52028001           [079] move       9   3      
68D3  92020001           [080] move       10  2      
68D7  E2410002           [081] call       7   4   1  
68DB  18010000           [082] test       4       0    ; to [84] if true
68DF  1A800F80           [083] jmp        63           ; to [147]
68E3  D3010000           [084] getupval   7   0      
68E7  12020000           [085] move       8   0      
68EB  52028001           [086] move       9   3      
68EF  92020001           [087] move       10  2      
68F3  D2028002           [088] move       11  5      
68F7  E2418002           [089] call       7   5   1  
68FB  1AC00D80           [090] jmp        56           ; to [147]
68FF  E481C301           [091] self       7   3   270  ; 1340411811
6903  E2810001           [092] call       7   2   2  
fail op	35
6907  23C0C303           [093] close      0  
690B  1A400880           [094] jmp        34           ; to [129]
690F  DD010300           [095] getglobal  7   12       ; _T
6913  CE41C303           [096] gettable   7   7   269  ; "voidStrike"
6917  CE818003           [097] gettable   7   7   2  
691B  CE01C403           [098] gettable   7   7   272  ; "numAttacks"
fail op	35
691F  23C0C303           [099] close      0  
6923  1A400380           [100] jmp        14           ; to [115]
6927  E4814300           [101] self       7   0   270  ; 1340411811
692B  E2810001           [102] call       7   2   2  
692F  24424400           [103] self       8   0   273  ; 1921976771
6933  9D020300           [104] getglobal  10  12       ; _T
6937  8E424305           [105] gettable   10  10  269  ; "voidStrike"
693B  8E820005           [106] gettable   10  10  2  
693F  8E024505           [107] gettable   10  10  276  ; "multiplier"
6943  8DC20105           [108] sub        10  10  7  
6947  83828287           [109] add        10  271 10   ; 0
694B  22428001           [110] call       8   3   1  
694F  1D020300           [111] getglobal  8   12       ; _T
6953  0E424304           [112] gettable   8   8   269  ; "voidStrike"
6957  0C424501           [113] settable   8   2   277  ; nil
695B  1AC00780           [114] jmp        32           ; to [147]
695F  13028000           [115] getupval   8   1      
6963  52020000           [116] move       9   0      
6967  92028001           [117] move       10  3      
696B  D2020001           [118] move       11  2      
696F  22420002           [119] call       8   4   1  
6973  18010000           [120] test       4       0    ; to [122] if true
6977  1A000680           [121] jmp        25           ; to [147]
697B  13020000           [122] getupval   8   0      
697F  52020000           [123] move       9   0      
6983  92028001           [124] move       10  3      
6987  D2020001           [125] move       11  2      
698B  12038002           [126] move       12  5      
698F  22428002           [127] call       8   5   1  
6993  1A400480           [128] jmp        18           ; to [147]
6997  1D020300           [129] getglobal  8   12       ; _T
699B  0E424304           [130] gettable   8   8   269  ; "voidStrike"
699F  0E820004           [131] gettable   8   8   2  
69A3  0E824504           [132] gettable   8   8   278  ; "needsUpdate"
69A7  18020000           [133] test       8       0    ; to [135] if true
69AB  1AC00280           [134] jmp        12           ; to [147]
69AF  18010000           [135] test       4       0    ; to [137] if true
69B3  1A400180           [136] jmp        6            ; to [143]
69B7  13020000           [137] getupval   8   0      
69BB  52020000           [138] move       9   0      
69BF  92028001           [139] move       10  3      
69C3  D2020001           [140] move       11  2      
69C7  12038002           [141] move       12  5      
69CB  22428002           [142] call       8   5   1  
69CF  1D020300           [143] getglobal  8   12       ; _T
69D3  0E424304           [144] gettable   8   8   269  ; "voidStrike"
69D7  0E820004           [145] gettable   8   8   2  
69DB  0CC2458B           [146] settable   8   278 279  ; "needsUpdate" 0
69DF  1D020600           [147] getglobal  8   24       ; 538022378
69E3  59420600           [148] loadk      9   25       ; 0
69E7  22420001           [149] call       8   2   1  
69EB  1A40E27F           [150] jmp        -118         ; to [33]
69EF  4C01008D           [151] settable   5   282 0    ; "instigator"
69F3  0B028000           [152] newtable   8   1   0    ; array=1, hash=0
69F7  52020000           [153] move       9   0      
69FB  1B428000           [154] setlist    8   1   1    ; index 1 to 1
69FF  4C01828D           [155] settable   5   283 8    ; "affected"
6A03  24024700           [156] self       8   0   284  ; 1481577430
6A07  92028002           [157] move       10  5      
6A0B  D7020000           [158] loadbool   11  0   0    ; false
6A0F  17030000           [159] loadbool   12  0   0    ; false
6A13  22428002           [160] call       8   5   1  
6A17  1D420000           [161] getglobal  8   1        ; 1074689893
6A1B  52028001           [162] move       9   3      
6A1F  22820001           [163] call       8   2   2  
6A23  18020000           [164] test       8       0    ; to [166] if true
6A27  1A400380           [165] jmp        14           ; to [180]
6A2B  24824300           [166] self       8   0   270  ; 1340411811
6A2F  22820001           [167] call       8   2   2  
6A33  64424400           [168] self       9   0   273  ; 1921976771
6A37  DD020300           [169] getglobal  11  12       ; _T
6A3B  CE42C305           [170] gettable   11  11  269  ; "voidStrike"
6A3F  CE828005           [171] gettable   11  11  2  
6A43  CE02C505           [172] gettable   11  11  276  ; "multiplier"
6A47  CD028205           [173] sub        11  11  8  
6A4B  C3C28287           [174] add        11  271 11   ; 0
6A4F  62428001           [175] call       9   3   1  
6A53  5D020300           [176] getglobal  9   12       ; _T
6A57  4E42C304           [177] gettable   9   9   269  ; "voidStrike"
6A5B  4C424501           [178] settable   9   2   277  ; nil
6A5F  1A400280           [179] jmp        10           ; to [190]
6A63  4CC1008D           [180] settable   5   282 3    ; "instigator"
6A67  4B028000           [181] newtable   9   1   0    ; array=1, hash=0
6A6B  92028001           [182] move       10  3      
6A6F  5B428000           [183] setlist    9   1   1    ; index 1 to 1
6A73  4C41828D           [184] settable   5   283 9    ; "affected"
6A77  6402C701           [185] self       9   3   284  ; 1481577430
6A7B  D2028002           [186] move       11  5      
6A7F  17030000           [187] loadbool   12  0   0    ; false
6A83  57030000           [188] loadbool   13  0   0    ; false
6A87  62428002           [189] call       9   5   1  
6A8B  1E008000           [190] return     0   1      
                         * constants:
6A8F  1D                 sizek (29)
6A90  01                 const type 3
6A91  9CFCD496           const [0]: (-1764426596)
6A95  01                 const type 3
6A96  65770E40           const [1]: (1074689893)
6A9A  01                 const type 3
6A9B  B60FEFDB           const [2]: (-605089866)
6A9F  01                 const type 3
6AA0  0567E793           const [3]: (-1813551355)
6AA4  01                 const type 3
6AA5  6E5436D5           const [4]: (-717859730)
6AA9  04                 const type 4
6AAA  0B                 string size (11)
6AAB  4C6F7475735F4761+  "Lotus_Ga"
6AB3  6D6500             "me\0"
                         const [5]: "Lotus_Game"
6AB6  01                 const type 3
6AB7  2243FDFA           const [6]: (-84065502)
6ABB  04                 const type 4
6ABC  09                 string size (9)
6ABD  6275666654797065+  "buffType"
6AC5  00                 "\0"
                         const [7]: "buffType"
6AC6  04                 const type 4
6AC7  10                 string size (16)
6AC8  42545F414D4F554E+  "BT_AMOUN"
6AD0  545F535441434B00   "T_STACK\0"
                         const [8]: "BT_AMOUNT_STACK"
6AD8  04                 const type 4
6AD9  0C                 string size (12)
6ADA  6162696C69747954+  "abilityT"
6AE2  79706500           "ype\0"
                         const [9]: "abilityType"
6AE6  01                 const type 3
6AE7  29D4002C           const [10]: (738251817)
6AEB  04                 const type 4
6AEC  42                 string size (66)
6AED  2F4C6F7475732F55+  "/Lotus/U"
6AF5  706772616465732F+  "pgrades/"
6AFD  466F6375732F4174+  "Focus/At"
6B05  7461636B2F416374+  "tack/Act"
6B0D  6976652F436C6F61+  "ive/Cloa"
6B15  6B41747461636B43+  "kAttackC"
6B1D  6861726765466F63+  "hargeFoc"
6B25  7573557067726164+  "usUpgrad"
6B2D  6500               "e\0"
                         const [11]: "/Lotus/Upgrades/Focus/Attack/Active/CloakAttackChargeFocusUpgrade"
6B2F  04                 const type 4
6B30  03                 string size (3)
6B31  5F5400             "_T\0"
                         const [12]: "_T"
6B34  04                 const type 4
6B35  0B                 string size (11)
6B36  766F696453747269+  "voidStri"
6B3E  6B6500             "ke\0"
                         const [13]: "voidStrike"
6B41  01                 const type 3
6B42  A30FE54F           const [14]: (1340411811)
6B46  03                 const type 3
6B47  0000803F           const [15]: (0)
6B4B  04                 const type 4
6B4C  0B                 string size (11)
6B4D  6E756D4174746163+  "numAttac"
6B55  6B7300             "ks\0"
                         const [16]: "numAttacks"
6B58  01                 const type 3
6B59  C3098F72           const [17]: (1921976771)
6B5D  04                 const type 4
6B5E  05                 string size (5)
6B5F  6D61746800         "math\0"
                         const [18]: "math"
6B64  01                 const type 3
6B65  C87C3FF9           const [19]: (-113279800)
6B69  04                 const type 4
6B6A  0B                 string size (11)
6B6B  6D756C7469706C69+  "multipli"
6B73  657200             "er\0"
                         const [20]: "multiplier"
6B76  00                 const type 0
                         const [21]: nil
6B77  04                 const type 4
6B78  0C                 string size (12)
6B79  6E65656473557064+  "needsUpd"
6B81  61746500           "ate\0"
                         const [22]: "needsUpdate"
6B85  01                 const type 3
6B86  00000000           const [23]: (0)
6B8A  01                 const type 3
6B8B  EA911120           const [24]: (538022378)
6B8F  03                 const type 3
6B90  00000000           const [25]: (0)
6B94  04                 const type 4
6B95  0B                 string size (11)
6B96  696E737469676174+  "instigat"
6B9E  6F7200             "or\0"
                         const [26]: "instigator"
6BA1  04                 const type 4
6BA2  09                 string size (9)
6BA3  6166666563746564+  "affected"
6BAB  00                 "\0"
                         const [27]: "affected"
6BAC  01                 const type 3
6BAD  D6134F58           const [28]: (1481577430)
                         * functions:
6BB1  00                 sizep (0)
                         * lines:
6BB3  01                 sizelineinfo (190)
                         [pc] (line)
6BB4  EA                 [001] (-22)
6BB5  03                 [002] (-22)
6BB6  00                 [003] (-21)
6BB7  00                 [004] (-21)
6BB8  EA                 [005] (-21)
6BB9  03                 [006] (-21)
6BBA  00                 [007] (-21)
6BBB  00                 [008] (-20)
6BBC  EB                 [009] (-17)
6BBD  03                 [010] (-17)
6BBE  00                 [011] (-16)
6BBF  00                 [012] (-16)
6BC0  EB                 [013] (-15)
6BC1  03                 [014] (-15)
6BC2  00                 [015] (-13)
6BC3  00                 [016] (-13)
6BC4  EB                 [017] (-13)
6BC5  03                 [018] (-12)
6BC6  00                 [019] (-12)
6BC7  00                 [020] (-12)
6BC8  EB                 [021] (-11)
6BC9  03                 [022] (-11)
6BCA  00                 [023] (-11)
6BCB  00                 [024] (-11)
6BCC  EB                 [025] (-10)
6BCD  03                 [026] (-10)
6BCE  00                 [027] (-9)
6BCF  00                 [028] (-9)
6BD0  EC                 [029] (-9)
6BD1  03                 [030] (-9)
6BD2  00                 [031] (-9)
6BD3  00                 [032] (-9)
6BD4  EF                 [033] (-6)
6BD5  03                 [034] (-6)
6BD6  00                 [035] (-6)
6BD7  00                 [036] (-6)
6BD8  EF                 [037] (-6)
6BD9  03                 [038] (-6)
6BDA  00                 [039] (-6)
6BDB  00                 [040] (-6)
6BDC  F0                 [041] (-6)
6BDD  03                 [042] (-6)
6BDE  00                 [043] (-6)
6BDF  00                 [044] (-6)
6BE0  F0                 [045] (-6)
6BE1  03                 [046] (-6)
6BE2  00                 [047] (-6)
6BE3  00                 [048] (-6)
6BE4  F1                 [049] (-6)
6BE5  03                 [050] (-5)
6BE6  00                 [051] (-5)
6BE7  00                 [052] (-5)
6BE8  F1                 [053] (-5)
6BE9  03                 [054] (-4)
6BEA  00                 [055] (-4)
6BEB  00                 [056] (-4)
6BEC  F3                 [057] (-4)
6BED  03                 [058] (-4)
6BEE  00                 [059] (-4)
6BEF  00                 [060] (-3)
6BF0  F3                 [061] (-3)
6BF1  03                 [062] (-2)
6BF2  00                 [063] (-2)
6BF3  00                 [064] (-2)
6BF4  F3                 [065] (-2)
6BF5  03                 [066] (-2)
6BF6  00                 [067] (-2)
6BF7  00                 [068] (-2)
6BF8  F4                 [069] (-2)
6BF9  03                 [070] (-2)
6BFA  00                 [071] (-2)
6BFB  00                 [072] (-2)
6BFC  F4                 [073] (-1)
6BFD  03                 [074] (-1)
6BFE  00                 [075] (-1)
6BFF  00                 [076] (-1)
6C00  F4                 [077] (1)
6C01  03                 [078] (1)
6C02  00                 [079] (1)
6C03  00                 [080] (1)
6C04  F5                 [081] (1)
6C05  03                 [082] (2)
6C06  00                 [083] (2)
6C07  00                 [084] (3)
6C08  F5                 [085] (3)
6C09  03                 [086] (3)
6C0A  00                 [087] (3)
6C0B  00                 [088] (3)
6C0C  F5                 [089] (3)
6C0D  03                 [090] (5)
6C0E  00                 [091] (6)
6C0F  00                 [092] (6)
6C10  F5                 [093] (6)
6C11  03                 [094] (6)
6C12  00                 [095] (7)
6C13  00                 [096] (7)
6C14  F6                 [097] (7)
6C15  03                 [098] (7)
6C16  00                 [099] (7)
6C17  00                 [100] (7)
6C18  F6                 [101] (8)
6C19  03                 [102] (8)
6C1A  00                 [103] (9)
6C1B  00                 [104] (9)
6C1C  F7                 [105] (9)
6C1D  03                 [106] (9)
6C1E  00                 [107] (9)
6C1F  00                 [108] (9)
6C20  F7                 [109] (9)
6C21  03                 [110] (9)
6C22  00                 [111] (10)
6C23  00                 [112] (10)
6C24  F7                 [113] (10)
6C25  03                 [114] (10)
6C26  00                 [115] (12)
6C27  00                 [116] (12)
6C28  F7                 [117] (12)
6C29  03                 [118] (12)
6C2A  00                 [119] (12)
6C2B  00                 [120] (13)
6C2C  F7                 [121] (13)
6C2D  03                 [122] (14)
6C2E  00                 [123] (14)
6C2F  00                 [124] (14)
6C30  F7                 [125] (14)
6C31  03                 [126] (14)
6C32  00                 [127] (14)
6C33  00                 [128] (16)
6C34  FA                 [129] (17)
6C35  03                 [130] (17)
6C36  00                 [131] (17)
6C37  00                 [132] (17)
6C38  FA                 [133] (17)
6C39  03                 [134] (17)
6C3A  00                 [135] (18)
6C3B  00                 [136] (18)
6C3C  FA                 [137] (19)
6C3D  03                 [138] (19)
6C3E  00                 [139] (19)
6C3F  00                 [140] (19)
6C40  FA                 [141] (19)
6C41  03                 [142] (19)
6C42  00                 [143] (21)
6C43  00                 [144] (21)
6C44  FA                 [145] (21)
6C45  03                 [146] (21)
6C46  00                 [147] (24)
6C47  00                 [148] (24)
6C48  FA                 [149] (24)
6C49  03                 [150] (24)
6C4A  00                 [151] (27)
6C4B  00                 [152] (28)
6C4C  FA                 [153] (28)
6C4D  03                 [154] (28)
6C4E  00                 [155] (28)
6C4F  00                 [156] (29)
6C50  FA                 [157] (29)
6C51  03                 [158] (29)
6C52  00                 [159] (29)
6C53  00                 [160] (29)
6C54  FA                 [161] (31)
6C55  03                 [162] (31)
6C56  00                 [163] (31)
6C57  00                 [164] (31)
6C58  FA                 [165] (31)
6C59  03                 [166] (33)
6C5A  00                 [167] (33)
6C5B  00                 [168] (34)
6C5C  FA                 [169] (34)
6C5D  03                 [170] (34)
6C5E  00                 [171] (34)
6C5F  00                 [172] (34)
6C60  FA                 [173] (34)
6C61  03                 [174] (34)
6C62  00                 [175] (34)
6C63  00                 [176] (35)
6C64  FA                 [177] (35)
6C65  03                 [178] (35)
6C66  00                 [179] (35)
6C67  00                 [180] (37)
6C68  FA                 [181] (38)
6C69  03                 [182] (38)
6C6A  00                 [183] (38)
6C6B  00                 [184] (38)
6C6C  FA                 [185] (39)
6C6D  03                 [186] (39)
6C6E  00                 [187] (39)
6C6F  00                 [188] (39)
6C70  FA                 [189] (39)
6C71  03                 [190] (41)
                         * locals:
6EAC  00                 sizelocvars (0)
                         * upvalues:
6EAD  00                 sizeupvalues (0)
                         ** end of function **

                         
6EAE                     ** function [18] definition (level 2)
                         ** start of function **
6EAE  00                 string size (0)
                         source name: (none)
6EB0  08                 line defined (1067)
6EB1  C8                 last line defined (1096)
6EB2  08                 nups (0)
6EB3  00                 numparams (3)
6EB4  03                 is_vararg (0)
6EB5  00                 maxstacksize (13)
                         * code:
6EB7  42                 sizecode (66)
fail op	35
6EB8  23400000           [01] close      0  
6EBC  1A000980           [02] jmp        37           ; to [40]
6EC0  E400C000           [03] self       3   1   256  ; 1525877273
6EC4  E2800001           [04] call       3   2   2  
6EC8  1D410000           [05] getglobal  4   1        ; gRegion
6ECC  24814002           [06] self       4   4   258  ; -1456226250
6ED0  22810001           [07] call       4   2   2  
6ED4  0EC14002           [08] gettable   4   4   259  ; "postProcess"
6ED8  0C414182           [09] settable   4   260 261  ; "fade" 0
6EDC  5D810100           [10] getglobal  5   6        ; 1074689893
6EE0  92018001           [11] move       6   3      
6EE4  62810001           [12] call       5   2   2  
6EE8  58410000           [13] test       5       1    ; to [15] if false
6EEC  1A000180           [14] jmp        5            ; to [20]
6EF0  64C1C101           [15] self       5   3   263  ; 1612278193
6EF4  DD010200           [16] getglobal  7   8        ; cameraColorCorrection
6EF8  62418001           [17] call       5   3   1  
6EFC  6441C201           [18] self       5   3   265  ; 1051525123
6F00  62410001           [19] call       5   2   1  
6F04  0CC14285           [20] settable   4   266 267  ; "lightning" 0
6F08  98000000           [21] test       2       0    ; to [23] if true
6F0C  1A400180           [22] jmp        6            ; to [29]
6F10  6401C300           [23] self       5   1   268  ; 630793108
6F14  DD410300           [24] getglobal  7   13       ; exitVoidLocalSound
6F18  17020000           [25] loadbool   8   0   0    ; false
6F1C  59420100           [26] loadk      9   5        ; 0
6F20  97020000           [27] loadbool   10  0   0    ; false
6F24  62410003           [28] call       5   6   1  
6F28  6481C300           [29] self       5   1   270  ; -1625438872
6F2C  DDC10300           [30] getglobal  7   15       ; inVoidLocalSequencer
6F30  62818001           [31] call       5   3   2  
6F34  9D810100           [32] getglobal  6   6        ; 1074689893
6F38  D2018002           [33] move       7   5      
6F3C  A2810001           [34] call       6   2   2  
6F40  98410000           [35] test       6       1    ; to [37] if false
6F44  1A000580           [36] jmp        21           ; to [58]
6F48  A401C402           [37] self       6   5   272  ; -725453761
6F4C  A2410001           [38] call       6   2   1  
6F50  1A400480           [39] jmp        18           ; to [58]
6F54  98000000           [40] test       2       0    ; to [42] if true
6F58  1A400180           [41] jmp        6            ; to [48]
6F5C  A401C300           [42] self       6   1   268  ; 630793108
6F60  1D420400           [43] getglobal  8   17       ; exitVoidSound
6F64  57020000           [44] loadbool   9   0   0    ; false
6F68  99420100           [45] loadk      10  5        ; 0
6F6C  D7020000           [46] loadbool   11  0   0    ; false
6F70  A2410003           [47] call       6   6   1  
6F74  A481C300           [48] self       6   1   270  ; -1625438872
6F78  1D820400           [49] getglobal  8   18       ; inVoidSequencer
6F7C  A2818001           [50] call       6   3   2  
6F80  DD810100           [51] getglobal  7   6        ; 1074689893
6F84  12020003           [52] move       8   6      
6F88  E2810001           [53] call       7   2   2  
6F8C  D8410000           [54] test       7       1    ; to [56] if false
6F90  1A400080           [55] jmp        2            ; to [58]
6F94  E4014403           [56] self       7   6   272  ; -725453761
6F98  E2410001           [57] call       7   2   1  
6F9C  DD410000           [58] getglobal  7   1        ; gRegion
6FA0  E4C1C403           [59] self       7   7   275  ; -1110225722
6FA4  5D020500           [60] getglobal  9   20       ; exitVoidEffect
6FA8  A442C500           [61] self       10  1   277  ; -427739093
6FAC  A2820001           [62] call       10  2   2  
6FB0  DD820500           [63] getglobal  11  22       ; ZERO_ROTATION
6FB4  12038000           [64] move       12  1      
6FB8  E2410003           [65] call       7   6   1  
6FBC  1E008000           [66] return     0   1      
                         * constants:
6FC0  17                 sizek (23)
6FC1  01                 const type 3
6FC2  190AF35A           const [0]: (1525877273)
6FC6  04                 const type 4
6FC7  08                 string size (8)
6FC8  67526567696F6E00   "gRegion\0"
                         const [1]: "gRegion"
6FD0  01                 const type 3
6FD1  36C033A9           const [2]: (-1456226250)
6FD5  04                 const type 4
6FD6  0C                 string size (12)
6FD7  706F737450726F63+  "postProc"
6FDF  65737300           "ess\0"
                         const [3]: "postProcess"
6FE3  04                 const type 4
6FE4  05                 string size (5)
6FE5  6661646500         "fade\0"
                         const [4]: "fade"
6FEA  03                 const type 3
6FEB  00000000           const [5]: (0)
6FEF  01                 const type 3
6FF0  65770E40           const [6]: (1074689893)
6FF4  01                 const type 3
6FF5  B1691960           const [7]: (1612278193)
6FF9  04                 const type 4
6FFA  16                 string size (22)
6FFB  63616D657261436F+  "cameraCo"
7003  6C6F72436F727265+  "lorCorre"
700B  6374696F6E00       "ction\0"
                         const [8]: "cameraColorCorrection"
7011  01                 const type 3
7012  0300AD3E           const [9]: (1051525123)
7016  04                 const type 4
7017  0A                 string size (10)
7018  6C696768746E696E+  "lightnin"
7020  6700               "g\0"
                         const [10]: "lightning"
7022  01                 const type 3
7023  00000000           const [11]: (0)
7027  01                 const type 3
7028  94239925           const [12]: (630793108)
702C  04                 const type 4
702D  13                 string size (19)
702E  65786974566F6964+  "exitVoid"
7036  4C6F63616C536F75+  "LocalSou"
703E  6E6400             "nd\0"
                         const [13]: "exitVoidLocalSound"
7041  01                 const type 3
7042  68C51D9F           const [14]: (-1625438872)
7046  04                 const type 4
7047  15                 string size (21)
7048  696E566F69644C6F+  "inVoidLo"
7050  63616C5365717565+  "calSeque"
7058  6E63657200         "ncer\0"
                         const [15]: "inVoidLocalSequencer"
705D  01                 const type 3
705E  3F74C2D4           const [16]: (-725453761)
7062  04                 const type 4
7063  0E                 string size (14)
7064  65786974566F6964+  "exitVoid"
706C  536F756E6400       "Sound\0"
                         const [17]: "exitVoidSound"
7072  04                 const type 4
7073  10                 string size (16)
7074  696E566F69645365+  "inVoidSe"
707C  7175656E63657200   "quencer\0"
                         const [18]: "inVoidSequencer"
7084  01                 const type 3
7085  C64CD3BD           const [19]: (-1110225722)
7089  04                 const type 4
708A  0F                 string size (15)
708B  65786974566F6964+  "exitVoid"
7093  45666665637400     "Effect\0"
                         const [20]: "exitVoidEffect"
709A  01                 const type 3
709B  2B3881E6           const [21]: (-427739093)
709F  04                 const type 4
70A0  0E                 string size (14)
70A1  5A45524F5F524F54+  "ZERO_ROT"
70A9  4154494F4E00       "ATION\0"
                         const [22]: "ZERO_ROTATION"
                         * functions:
70AF  00                 sizep (0)
                         * lines:
70B0  42                 sizelineinfo (66)
                         [pc] (line)
70B1  2D                 [01] (45)
70B2  04                 [02] (45)
70B3  00                 [03] (46)
70B4  00                 [04] (46)
70B5  2D                 [05] (47)
70B6  04                 [06] (47)
70B7  00                 [07] (47)
70B8  00                 [08] (47)
70B9  2E                 [09] (48)
70BA  04                 [10] (49)
70BB  00                 [11] (49)
70BC  00                 [12] (49)
70BD  2E                 [13] (49)
70BE  04                 [14] (49)
70BF  00                 [15] (50)
70C0  00                 [16] (50)
70C1  2F                 [17] (50)
70C2  04                 [18] (51)
70C3  00                 [19] (51)
70C4  00                 [20] (53)
70C5  2F                 [21] (54)
70C6  04                 [22] (54)
70C7  00                 [23] (55)
70C8  00                 [24] (55)
70C9  2F                 [25] (55)
70CA  04                 [26] (55)
70CB  00                 [27] (55)
70CC  00                 [28] (55)
70CD  2F                 [29] (57)
70CE  04                 [30] (57)
70CF  00                 [31] (57)
70D0  00                 [32] (58)
70D1  30                 [33] (58)
70D2  04                 [34] (58)
70D3  00                 [35] (58)
70D4  00                 [36] (58)
70D5  31                 [37] (59)
70D6  04                 [38] (59)
70D7  00                 [39] (60)
70D8  00                 [40] (62)
70D9  31                 [41] (62)
70DA  04                 [42] (63)
70DB  00                 [43] (63)
70DC  00                 [44] (63)
70DD  31                 [45] (63)
70DE  04                 [46] (63)
70DF  00                 [47] (63)
70E0  00                 [48] (65)
70E1  31                 [49] (65)
70E2  04                 [50] (65)
70E3  00                 [51] (66)
70E4  00                 [52] (66)
70E5  31                 [53] (66)
70E6  04                 [54] (66)
70E7  00                 [55] (66)
70E8  00                 [56] (67)
70E9  32                 [57] (67)
70EA  04                 [58] (71)
70EB  00                 [59] (71)
70EC  00                 [60] (71)
70ED  32                 [61] (71)
70EE  04                 [62] (71)
70EF  00                 [63] (71)
70F0  00                 [64] (71)
70F1  32                 [65] (71)
70F2  04                 [66] (72)
                         * locals:
71B9  00                 sizelocvars (0)
                         * upvalues:
71BA  00                 sizeupvalues (0)
                         ** end of function **

                         
71BB                     ** function [19] definition (level 2)
                         ** start of function **
71BB  00                 string size (0)
                         source name: (none)
71BD  08                 line defined (1098)
71BE  A0                 last line defined (1568)
71BF  0C                 nups (26)
71C0  1A                 numparams (1)
71C1  01                 is_vararg (0)
71C2  00                 maxstacksize (59)
                         * code:
71C5  09                 sizecode (1196)
71C6  5D000000           [0001] getglobal  1   0        ; gRegion
71CA  6440C000           [0002] self       1   1   257  ; -1520831144
71CE  62800001           [0003] call       1   2   2  
71D2  99800000           [0004] loadk      2   2        ; 0
71D6  D9800000           [0005] loadk      3   2        ; 0
71DA  19810000           [0006] loadk      4   2        ; 0
71DE  59810000           [0007] loadk      5   2        ; 0
71E2  99810000           [0008] loadk      6   2        ; 0
71E6  D9810000           [0009] loadk      7   2        ; 0
71EA  19820000           [0010] loadk      8   2        ; 0
71EE  59820000           [0011] loadk      9   2        ; 0
71F2  99820000           [0012] loadk      10  2        ; 0
71F6  D9820000           [0013] loadk      11  2        ; 0
71FA  19830000           [0014] loadk      12  2        ; 0
71FE  59830000           [0015] loadk      13  2        ; 0
7202  99830000           [0016] loadk      14  2        ; 0
7206  D9830000           [0017] loadk      15  2        ; 0
720A  19840000           [0018] loadk      16  2        ; 0
720E  57040000           [0019] loadbool   17  0   0    ; false
7212  93040000           [0020] getupval   18  0      
7216  8EC44009           [0021] gettable   18  18  259  ; 518391456
721A  D2040000           [0022] move       19  0      
721E  A2840001           [0023] call       18  2   2  
7222  DD040100           [0024] getglobal  19  4        ; Lotus_Game
7226  CE44C109           [0025] gettable   19  19  261  ; "AP_ATTACK"
fail op	35
722A  23C00409           [0026] close      0  
722E  1AC00880           [0027] jmp        36           ; to [64]
7232  D3040000           [0028] getupval   19  0      
7236  CE84C109           [0029] gettable   19  19  262  ; -75093794
723A  12050000           [0030] move       20  0      
723E  53058000           [0031] getupval   21  1      
7242  4EC5C10A           [0032] gettable   21  21  263  ; "tag"
7246  93058000           [0033] getupval   22  1      
724A  8E05420B           [0034] gettable   22  22  264  ; "duration"
724E  E2840002           [0035] call       19  4   2  
7252  92008009           [0036] move       2   19     
7256  D3040000           [0037] getupval   19  0      
725A  CE84C109           [0038] gettable   19  19  262  ; -75093794
725E  12050000           [0039] move       20  0      
7262  53050001           [0040] getupval   21  2      
7266  4EC5C10A           [0041] gettable   21  21  263  ; "tag"
726A  93050001           [0042] getupval   22  2      
726E  8E45420B           [0043] gettable   22  22  265  ; "percentIncreasePerSecond"
7272  E2840002           [0044] call       19  4   2  
7276  D2008009           [0045] move       3   19     
727A  D3040000           [0046] getupval   19  0      
727E  CE84C109           [0047] gettable   19  19  262  ; -75093794
7282  12050000           [0048] move       20  0      
7286  53058001           [0049] getupval   21  3      
728A  4EC5C10A           [0050] gettable   21  21  263  ; "tag"
728E  93058001           [0051] getupval   22  3      
7292  8E85420B           [0052] gettable   22  22  266  ; "damage"
7296  E2840002           [0053] call       19  4   2  
729A  12018009           [0054] move       4   19     
fail op	21
729E  15C00081           [0055] concat     0   258 3  
72A2  1AC03680           [0056] jmp        220          ; to [277]
72A6  DDC40200           [0057] getglobal  19  11       ; energyDrainRate
72AA  13050001           [0058] getupval   20  2      
72AE  0E05430A           [0059] gettable   20  20  268  ; "energyDrain"
72B2  0EC5000A           [0060] gettable   20  20  3  
72B6  C3048509           [0061] add        19  19  20 
72BA  E0C40200           [0062] setglobal  19  11       ; energyDrainRate
72BE  1A003580           [0063] jmp        213          ; to [277]
72C2  DD040100           [0064] getglobal  19  4        ; Lotus_Game
72C6  CE44C309           [0065] gettable   19  19  269  ; "AP_DEFENSE"
fail op	35
72CA  23C00409           [0066] close      0  
72CE  1AC00A80           [0067] jmp        44           ; to [112]
72D2  D3040000           [0068] getupval   19  0      
72D6  CE84C109           [0069] gettable   19  19  262  ; -75093794
72DA  12050000           [0070] move       20  0      
72DE  53050002           [0071] getupval   21  4      
72E2  4EC5C10A           [0072] gettable   21  21  263  ; "tag"
72E6  93050002           [0073] getupval   22  4      
72EA  8E85430B           [0074] gettable   22  22  270  ; "healRate"
72EE  E2840002           [0075] call       19  4   2  
72F2  52018009           [0076] move       5   19     
72F6  D3040000           [0077] getupval   19  0      
72FA  CE84C109           [0078] gettable   19  19  262  ; -75093794
72FE  12050000           [0079] move       20  0      
7302  53058002           [0080] getupval   21  5      
7306  4EC5C10A           [0081] gettable   21  21  263  ; "tag"
730A  93058002           [0082] getupval   22  5      
730E  8EC5430B           [0083] gettable   22  22  271  ; "radius"
7312  E2840002           [0084] call       19  4   2  
7316  92018009           [0085] move       6   19     
731A  D3040000           [0086] getupval   19  0      
731E  CE84C109           [0087] gettable   19  19  262  ; -75093794
7322  12050000           [0088] move       20  0      
7326  53050003           [0089] getupval   21  6      
732A  4EC5C10A           [0090] gettable   21  21  263  ; "tag"
732E  93050003           [0091] getupval   22  6      
7332  8EC5430B           [0092] gettable   22  22  271  ; "radius"
7336  E2840002           [0093] call       19  4   2  
733A  D2018009           [0094] move       7   19     
fail op	21
733E  15400181           [0095] concat     0   258 5  
7342  1A400180           [0096] jmp        6            ; to [103]
7346  DDC40200           [0097] getglobal  19  11       ; energyDrainRate
734A  13050002           [0098] getupval   20  4      
734E  0E05430A           [0099] gettable   20  20  268  ; "energyDrain"
7352  0E45010A           [0100] gettable   20  20  5  
7356  C3048509           [0101] add        19  19  20 
735A  E0C40200           [0102] setglobal  19  11       ; energyDrainRate
fail op	21
735E  15800181           [0103] concat     0   258 6  
7362  1AC02A80           [0104] jmp        172          ; to [277]
7366  DDC40200           [0105] getglobal  19  11       ; energyDrainRate
736A  13058002           [0106] getupval   20  5      
736E  0E05430A           [0107] gettable   20  20  268  ; "energyDrain"
7372  0E85010A           [0108] gettable   20  20  6  
7376  C3048509           [0109] add        19  19  20 
737A  E0C40200           [0110] setglobal  19  11       ; energyDrainRate
737E  1A002980           [0111] jmp        165          ; to [277]
7382  DD040100           [0112] getglobal  19  4        ; Lotus_Game
7386  CE04C409           [0113] gettable   19  19  272  ; "AP_POWER"
fail op	35
738A  23C00409           [0114] close      0  
738E  1A000D80           [0115] jmp        53           ; to [169]
7392  D3040000           [0116] getupval   19  0      
7396  CE84C109           [0117] gettable   19  19  262  ; -75093794
739A  12050000           [0118] move       20  0      
739E  53058003           [0119] getupval   21  7      
73A2  4EC5C10A           [0120] gettable   21  21  263  ; "tag"
73A6  93058003           [0121] getupval   22  7      
73AA  8EC5430B           [0122] gettable   22  22  271  ; "radius"
73AE  E2840002           [0123] call       19  4   2  
73B2  12028009           [0124] move       8   19     
73B6  D3040000           [0125] getupval   19  0      
73BA  CE84C109           [0126] gettable   19  19  262  ; -75093794
73BE  12050000           [0127] move       20  0      
73C2  53050004           [0128] getupval   21  8      
73C6  4EC5C10A           [0129] gettable   21  21  263  ; "tag"
73CA  93050004           [0130] getupval   22  8      
73CE  8EC5430B           [0131] gettable   22  22  271  ; "radius"
73D2  E2840002           [0132] call       19  4   2  
73D6  52028009           [0133] move       9   19     
fail op	21
73DA  15000281           [0134] concat     0   258 8  
73DE  1A400180           [0135] jmp        6            ; to [142]
73E2  DDC40200           [0136] getglobal  19  11       ; energyDrainRate
73E6  13058003           [0137] getupval   20  7      
73EA  0E05430A           [0138] gettable   20  20  268  ; "energyDrain"
73EE  0E05020A           [0139] gettable   20  20  8  
73F2  C3048509           [0140] add        19  19  20 
73F6  E0C40200           [0141] setglobal  19  11       ; energyDrainRate
fail op	21
73FA  15400281           [0142] concat     0   258 9  
73FE  1A400180           [0143] jmp        6            ; to [150]
7402  DDC40200           [0144] getglobal  19  11       ; energyDrainRate
7406  13050004           [0145] getupval   20  8      
740A  0E05430A           [0146] gettable   20  20  268  ; "energyDrain"
740E  0E45020A           [0147] gettable   20  20  9  
7412  C3048509           [0148] add        19  19  20 
7416  E0C40200           [0149] setglobal  19  11       ; energyDrainRate
741A  D3040000           [0150] getupval   19  0      
741E  CE84C109           [0151] gettable   19  19  262  ; -75093794
7422  12050000           [0152] move       20  0      
7426  53058004           [0153] getupval   21  9      
742A  4EC5C10A           [0154] gettable   21  21  263  ; "tag"
742E  93058004           [0155] getupval   22  9      
7432  8E05420B           [0156] gettable   22  22  264  ; "duration"
7436  E2840002           [0157] call       19  4   2  
743A  92028009           [0158] move       10  19     
743E  D3040000           [0159] getupval   19  0      
7442  CE84C109           [0160] gettable   19  19  262  ; -75093794
7446  12050000           [0161] move       20  0      
744A  53050005           [0162] getupval   21  10     
744E  4EC5C10A           [0163] gettable   21  21  263  ; "tag"
7452  93050005           [0164] getupval   22  10     
7456  8E45440B           [0165] gettable   22  22  273  ; "range"
745A  E2840002           [0166] call       19  4   2  
745E  D2028009           [0167] move       11  19     
7462  1AC01A80           [0168] jmp        108          ; to [277]
7466  DD040100           [0169] getglobal  19  4        ; Lotus_Game
746A  CE84C409           [0170] gettable   19  19  274  ; "AP_TACTIC"
fail op	35
746E  23C00409           [0171] close      0  
7472  1AC00A80           [0172] jmp        44           ; to [217]
7476  D3040000           [0173] getupval   19  0      
747A  CE84C109           [0174] gettable   19  19  262  ; -75093794
747E  12050000           [0175] move       20  0      
7482  53058005           [0176] getupval   21  11     
7486  4EC5C10A           [0177] gettable   21  21  263  ; "tag"
748A  93058005           [0178] getupval   22  11     
748E  8EC5440B           [0179] gettable   22  22  275  ; "maxCrit"
7492  E2840002           [0180] call       19  4   2  
7496  12038009           [0181] move       12  19     
749A  D3040000           [0182] getupval   19  0      
749E  CE84C109           [0183] gettable   19  19  262  ; -75093794
74A2  12050000           [0184] move       20  0      
74A6  53050006           [0185] getupval   21  12     
74AA  4EC5C10A           [0186] gettable   21  21  263  ; "tag"
74AE  93050006           [0187] getupval   22  12     
74B2  8E45440B           [0188] gettable   22  22  273  ; "range"
74B6  E2840002           [0189] call       19  4   2  
74BA  52038009           [0190] move       13  19     
74BE  D3040000           [0191] getupval   19  0      
74C2  CE84C109           [0192] gettable   19  19  262  ; -75093794
74C6  12050000           [0193] move       20  0      
74CA  53058006           [0194] getupval   21  13     
74CE  4EC5C10A           [0195] gettable   21  21  263  ; "tag"
74D2  93058006           [0196] getupval   22  13     
74D6  8EC5430B           [0197] gettable   22  22  271  ; "radius"
74DA  E2840002           [0198] call       19  4   2  
74DE  92038009           [0199] move       14  19     
fail op	21
74E2  15000381           [0200] concat     0   258 12 
74E6  1A400180           [0201] jmp        6            ; to [208]
74EA  DDC40200           [0202] getglobal  19  11       ; energyDrainRate
74EE  13058005           [0203] getupval   20  11     
74F2  0E05430A           [0204] gettable   20  20  268  ; "energyDrain"
74F6  0E05030A           [0205] gettable   20  20  12 
74FA  C3048509           [0206] add        19  19  20 
74FE  E0C40200           [0207] setglobal  19  11       ; energyDrainRate
fail op	21
7502  15400381           [0208] concat     0   258 13 
7506  1A801080           [0209] jmp        67           ; to [277]
750A  DDC40200           [0210] getglobal  19  11       ; energyDrainRate
750E  13050006           [0211] getupval   20  12     
7512  0E05430A           [0212] gettable   20  20  268  ; "energyDrain"
7516  0E45030A           [0213] gettable   20  20  13 
751A  C3048509           [0214] add        19  19  20 
751E  E0C40200           [0215] setglobal  19  11       ; energyDrainRate
7522  1AC00E80           [0216] jmp        60           ; to [277]
7526  DD040100           [0217] getglobal  19  4        ; Lotus_Game
752A  CE04C509           [0218] gettable   19  19  276  ; "AP_WARD"
fail op	35
752E  23C00409           [0219] close      0  
7532  1AC00D80           [0220] jmp        56           ; to [277]
7536  D3040000           [0221] getupval   19  0      
753A  CE84C109           [0222] gettable   19  19  262  ; -75093794
753E  12050000           [0223] move       20  0      
7542  53050007           [0224] getupval   21  14     
7546  4EC5C10A           [0225] gettable   21  21  263  ; "tag"
754A  93050007           [0226] getupval   22  14     
754E  8E05430B           [0227] gettable   22  22  268  ; "energyDrain"
7552  E2840002           [0228] call       19  4   2  
7556  D2038009           [0229] move       15  19     
755A  D3040000           [0230] getupval   19  0      
755E  CE84C109           [0231] gettable   19  19  262  ; -75093794
7562  12050000           [0232] move       20  0      
7566  53058007           [0233] getupval   21  15     
756A  4EC5C10A           [0234] gettable   21  21  263  ; "tag"
756E  93058007           [0235] getupval   22  15     
7572  8E05430B           [0236] gettable   22  22  268  ; "energyDrain"
7576  E2840002           [0237] call       19  4   2  
757A  12048009           [0238] move       16  19     
fail op	21
757E  15C00381           [0239] concat     0   258 15 
7582  1A400180           [0240] jmp        6            ; to [247]
7586  DDC40200           [0241] getglobal  19  11       ; energyDrainRate
758A  13050007           [0242] getupval   20  14     
758E  0E05430A           [0243] gettable   20  20  268  ; "energyDrain"
7592  0EC5030A           [0244] gettable   20  20  15 
7596  C3048509           [0245] add        19  19  20 
759A  E0C40200           [0246] setglobal  19  11       ; energyDrainRate
fail op	21
759E  15000481           [0247] concat     0   258 16 
75A2  1A400180           [0248] jmp        6            ; to [255]
75A6  DDC40200           [0249] getglobal  19  11       ; energyDrainRate
75AA  13058007           [0250] getupval   20  15     
75AE  0E05430A           [0251] gettable   20  20  268  ; "energyDrain"
75B2  0E05040A           [0252] gettable   20  20  16 
75B6  C3048509           [0253] add        19  19  20 
75BA  E0C40200           [0254] setglobal  19  11       ; energyDrainRate
75BE  D3040000           [0255] getupval   19  0      
75C2  CE84C109           [0256] gettable   19  19  262  ; -75093794
75C6  12050000           [0257] move       20  0      
75CA  53050008           [0258] getupval   21  16     
75CE  4EC5C10A           [0259] gettable   21  21  263  ; "tag"
75D2  93050008           [0260] getupval   22  16     
75D6  8E45450B           [0261] gettable   22  22  277  ; "armourRed"
75DA  E2840002           [0262] call       19  4   2  
75DE  13050000           [0263] getupval   20  0      
75E2  0E85410A           [0264] gettable   20  20  262  ; -75093794
75E6  52050000           [0265] move       21  0      
75EA  93058008           [0266] getupval   22  17     
75EE  8EC5410B           [0267] gettable   22  22  263  ; "tag"
75F2  D3058008           [0268] getupval   23  17     
75F6  CE85C50B           [0269] gettable   23  23  278  ; "dmgRed"
75FA  22850002           [0270] call       20  4   2  
fail op	21
75FE  55C00481           [0271] concat     1   258 19 
7602  1A800080           [0272] jmp        3            ; to [276]
fail op	21
7606  55000581           [0273] concat     1   258 20 
760A  1A000080           [0274] jmp        1            ; to [276]
760E  57440000           [0275] loadbool   17  0   1    ; false, to [277]
7612  57048000           [0276] loadbool   17  1   0    ; true
7616  64C54500           [0277] self       21  0   279  ; -1917464545
761A  62850001           [0278] call       21  2   2  
761E  A405C60A           [0279] self       22  21  280  ; 1769516121
7622  A2850001           [0280] call       22  2   2  
7626  C605000D           [0281] loadnil    23  26     
762A  58000000           [0282] test       1       0    ; to [284] if true
762E  1AC00D80           [0283] jmp        56           ; to [340]
fail op	21
7632  15000281           [0284] concat     0   258 8  
7636  1A000180           [0285] jmp        5            ; to [291]
763A  D3060009           [0286] getupval   27  18     
763E  12070000           [0287] move       28  0      
7642  52070004           [0288] move       29  8      
7646  E2868001           [0289] call       27  3   2  
764A  D205800D           [0290] move       23  27     
fail op	21
764E  15400281           [0291] concat     0   258 9  
7652  1A000480           [0292] jmp        17           ; to [310]
7656  E4464600           [0293] self       27  0   281  ; -1421644046
765A  5D870600           [0294] getglobal  29  26       ; cloakPullTriggerType
765E  9DC70600           [0295] getglobal  30  27       ; EMPTY_SYMBOL
7662  DD070700           [0296] getglobal  31  28       ; ZERO_VECTOR
7666  1D480700           [0297] getglobal  32  29       ; ZERO_ROTATION
766A  52080000           [0298] move       33  0      
766E  E2868003           [0299] call       27  7   2  
7672  1206800D           [0300] move       24  27     
7676  E486470C           [0301] self       27  24  286  ; -412619612
767A  53070004           [0302] getupval   29  8      
767E  4EC7C30E           [0303] gettable   29  29  271  ; "radius"
7682  4E47820E           [0304] gettable   29  29  9  
7686  E2468001           [0305] call       27  3   1  
768A  E4C6470C           [0306] self       27  24  287  ; -1338608417
768E  64074800           [0307] self       29  0   288  ; -1081228973
7692  62070001           [0308] call       29  2   0  
7696  E2460000           [0309] call       27  0   1  
fail op	21
769A  15400381           [0310] concat     0   258 13 
769E  1A000280           [0311] jmp        9            ; to [321]
76A2  E4464800           [0312] self       27  0   289  ; -717859730
76A6  E2860001           [0313] call       27  2   2  
76AA  D8060000           [0314] test       27      0    ; to [316] if true
76AE  1A000180           [0315] jmp        5            ; to [321]
76B2  D3068009           [0316] getupval   27  19     
76B6  12070000           [0317] move       28  0      
76BA  52078006           [0318] move       29  13     
76BE  E2868001           [0319] call       27  3   2  
76C2  5206800D           [0320] move       25  27     
fail op	21
76C6  15000481           [0321] concat     0   258 16 
76CA  1A000480           [0322] jmp        17           ; to [340]
76CE  DD060000           [0323] getglobal  27  0        ; gRegion
76D2  E486C80D           [0324] self       27  27  290  ; -1151016513
76D6  5DC70800           [0325] getglobal  29  35       ; cloakAllyCloakAuraType
76DA  92070000           [0326] move       30  0      
76DE  E2860002           [0327] call       27  4   2  
76E2  9206800D           [0328] move       26  27     
76E6  E406490D           [0329] self       27  26  292  ; 1979356343
76EA  5D470900           [0330] getglobal  29  37       ; cjson
76EE  4E87C90E           [0331] gettable   29  29  294  ; -1916729509
76F2  8B470000           [0332] newtable   30  0   1    ; array=0, hash=1
76F6  CD074A08           [0333] sub        31  16  296  ; 0
76FA  8CC78793           [0334] settable   30  295 31   ; "lvl"
76FE  62070001           [0335] call       29  2   0  
7702  E2460000           [0336] call       27  0   1  
7706  E4464A0B           [0337] self       27  22  297  ; 991629753
770A  5207000D           [0338] move       29  26     
770E  E2468001           [0339] call       27  3   1  
fail op	21
7712  15400181           [0340] concat     0   258 5  
7716  1A800880           [0341] jmp        35           ; to [377]
771A  58000000           [0342] test       1       0    ; to [344] if true
771E  1A000280           [0343] jmp        9            ; to [353]
7722  E446CA0A           [0344] self       27  21  297  ; 991629753
7726  5D870A00           [0345] getglobal  29  42       ; Game
772A  4EC7CA0E           [0346] gettable   29  29  299  ; "AVATAR_HEAL_RATE"
772E  9D870A00           [0347] getglobal  30  42       ; Game
7732  8E074B0F           [0348] gettable   30  30  300  ; "ADD"
7736  D3070002           [0349] getupval   31  4      
773A  CE87C30F           [0350] gettable   31  31  270  ; "healRate"
773E  CE47810F           [0351] gettable   31  31  5  
7742  E2468002           [0352] call       27  5   1  
7746  DD060100           [0353] getglobal  27  4        ; Lotus_Game
774A  CE46CB0D           [0354] gettable   27  27  301  ; -84065502
774E  E2868000           [0355] call       27  1   2  
7752  CC060097           [0356] settable   27  302 0    ; "instigator"
7756  0B078000           [0357] newtable   28  1   0    ; array=1, hash=0
775A  52070000           [0358] move       29  0      
775E  1B478000           [0359] setlist    28  1   1    ; index 1 to 1
7762  CC068797           [0360] settable   27  303 28   ; "affected"
7766  13070002           [0361] getupval   28  4      
776A  0E87430E           [0362] gettable   28  28  270  ; "healRate"
776E  0E47010E           [0363] gettable   28  28  5  
7772  CC060798           [0364] settable   27  304 28   ; "buffData"
7776  1D070100           [0365] getglobal  28  4        ; Lotus_Game
777A  0E874C0E           [0366] gettable   28  28  306  ; "BT_AMOUNT"
777E  CC068798           [0367] settable   27  305 28   ; "buffType"
7782  1D070D00           [0368] getglobal  28  52       ; 738251817
7786  59470D00           [0369] loadk      29  53       ; "/Lotus/Upgrades/Focus/Defense/Active/CloakHealFocusUpgrade"
778A  22870001           [0370] call       28  2   2  
778E  CC068799           [0371] settable   27  307 28   ; "abilityType"
7792  24874D00           [0372] self       28  0   310  ; 1481577430
7796  9207800D           [0373] move       30  27     
779A  D7078000           [0374] loadbool   31  1   0    ; true
779E  17080000           [0375] loadbool   32  0   0    ; false
77A2  22478002           [0376] call       28  5   1  
77A6  0607000E           [0377] loadnil    28  28     
fail op	21
77AA  15800181           [0378] concat     0   258 6  
77AE  1A000480           [0379] jmp        17           ; to [397]
77B2  64474600           [0380] self       29  0   281  ; -1421644046
77B6  DDC70D00           [0381] getglobal  31  55       ; cloakShieldType
77BA  1D080E00           [0382] getglobal  32  56       ; -332969190
77BE  59480E00           [0383] loadk      33  57       ; "GAME_C1_HIP1"
77C2  22880001           [0384] call       32  2   2  
77C6  5D080700           [0385] getglobal  33  28       ; ZERO_VECTOR
77CA  9D480700           [0386] getglobal  34  29       ; ZERO_ROTATION
77CE  D2080000           [0387] move       35  0      
77D2  62878003           [0388] call       29  7   2  
77D6  1207800E           [0389] move       28  29     
77DA  64874E0E           [0390] self       29  28  314  ; 1786666898
77DE  D9C70E00           [0391] loadk      31  59       ; -51
77E2  17088000           [0392] loadbool   32  1   0    ; true
77E6  62470002           [0393] call       29  4   1  
77EA  64074F0B           [0394] self       29  22  316  ; -2035091121
77EE  D207000E           [0395] move       31  28     
77F2  62478001           [0396] call       29  3   1  
77F6  4607800E           [0397] loadnil    29  29     
fail op	21
77FA  15C00381           [0398] concat     0   258 15 
77FE  1A000C80           [0399] jmp        49           ; to [449]
7802  58000000           [0400] test       1       0    ; to [402] if true
7806  1A800B80           [0401] jmp        47           ; to [449]
780A  9D070000           [0402] getglobal  30  0        ; gRegion
780E  A487480F           [0403] self       30  30  290  ; -1151016513
7812  1D480F00           [0404] getglobal  32  61       ; cloakReduceDamageAuraType
7816  52080000           [0405] move       33  0      
781A  A2870002           [0406] call       30  4   2  
781E  5207000F           [0407] move       29  30     
7822  A407C90E           [0408] self       30  29  292  ; 1979356343
7826  1D480900           [0409] getglobal  32  37       ; cjson
782A  0E884910           [0410] gettable   32  32  294  ; -1916729509
782E  4B480000           [0411] newtable   33  0   1    ; array=0, hash=1
7832  8D08CA07           [0412] sub        34  15  296  ; 0
7836  4C888893           [0413] settable   33  295 34   ; "lvl"
783A  22080001           [0414] call       32  2   0  
783E  A2470000           [0415] call       30  0   1  
7842  A4474A0B           [0416] self       30  22  297  ; 991629753
7846  1208800E           [0417] move       32  29     
784A  A2478001           [0418] call       30  3   1  
784E  9D070100           [0419] getglobal  30  4        ; Lotus_Game
7852  8E474B0F           [0420] gettable   30  30  301  ; -84065502
7856  A2878000           [0421] call       30  1   2  
785A  8C070097           [0422] settable   30  302 0    ; "instigator"
785E  CB078000           [0423] newtable   31  1   0    ; array=1, hash=0
7862  12080000           [0424] move       32  0      
7866  DB478000           [0425] setlist    31  1   1    ; index 1 to 1
786A  8CC78797           [0426] settable   30  303 31   ; "affected"
786E  DD870F00           [0427] getglobal  31  62       ; math
7872  CEC7CF0F           [0428] gettable   31  31  319  ; -150971781
7876  2408D00E           [0429] self       32  29  320  ; 955459000
787A  99880000           [0430] loadk      34  2        ; 0
787E  22888001           [0431] call       32  3   2  
7882  24485010           [0432] self       32  32  321  ; -1378524997
7886  22880001           [0433] call       32  2   2  
788A  04885010           [0434] mul        32  32  322  ; 0
788E  E2870001           [0435] call       31  2   2  
7892  8CC70798           [0436] settable   30  304 31   ; "buffData"
7896  DD070100           [0437] getglobal  31  4        ; Lotus_Game
789A  CEC7D00F           [0438] gettable   31  31  323  ; "BT_PERCENT"
789E  8CC78798           [0439] settable   30  305 31   ; "buffType"
78A2  DD070D00           [0440] getglobal  31  52       ; 738251817
78A6  19081100           [0441] loadk      32  68       ; "/Lotus/Upgrades/Focus/Ward/Active/CloakReduceDamageFocusUpgrade"
78AA  E2870001           [0442] call       31  2   2  
78AE  8CC78799           [0443] settable   30  307 31   ; "abilityType"
78B2  E4874D00           [0444] self       31  0   310  ; 1481577430
78B6  5208000F           [0445] move       33  30     
78BA  97088000           [0446] loadbool   34  1   0    ; true
78BE  D7088000           [0447] loadbool   35  1   0    ; true
78C2  E2478002           [0448] call       31  5   1  
78C6  DD471100           [0449] getglobal  31  69       ; 538022378
78CA  19880000           [0450] loadk      32  2        ; 0
78CE  E2470001           [0451] call       31  2   1  
78D2  E4875100           [0452] self       31  0   326  ; 1637313982
78D6  E2870001           [0453] call       31  2   2  
78DA  D8070000           [0454] test       31      0    ; to [456] if true
78DE  1A400180           [0455] jmp        6            ; to [462]
78E2  D307000A           [0456] getupval   31  20     
78E6  CEC7D10F           [0457] gettable   31  31  327  ; -1970331308
78EA  12080000           [0458] move       32  0      
78EE  5D081200           [0459] getglobal  33  72       ; cloakProjector
78F2  9D081200           [0460] getglobal  34  72       ; cloakProjector
78F6  E2470002           [0461] call       31  4   1  
78FA  D307000A           [0462] getupval   31  20     
78FE  CE47D20F           [0463] gettable   31  31  329  ; 1866016139
7902  12080000           [0464] move       32  0      
7906  5D081200           [0465] getglobal  33  72       ; cloakProjector
790A  9D081200           [0466] getglobal  34  72       ; cloakProjector
790E  E2470002           [0467] call       31  4   1  
7912  DD070000           [0468] getglobal  31  0        ; gRegion
7916  E487D20F           [0469] self       31  31  330  ; -1110225722
791A  5DC81200           [0470] getglobal  33  75       ; enterVoidEffect
791E  A4085300           [0471] self       34  0   332  ; 1839670529
7922  A2880001           [0472] call       34  2   2  
7926  DD480700           [0473] getglobal  35  29       ; ZERO_ROTATION
792A  1209000B           [0474] move       36  22     
792E  E2470003           [0475] call       31  6   1  
7932  C607800F           [0476] loadnil    31  31     
7936  1D080000           [0477] getglobal  32  0        ; gRegion
793A  24485310           [0478] self       32  32  333  ; 65205951
793E  22880001           [0479] call       32  2   2  
7942  D2070010           [0480] move       31  32     
7946  1D881300           [0481] getglobal  32  78       ; 1074689893
794A  5208800F           [0482] move       33  31     
794E  22880001           [0483] call       32  2   2  
7952  18480000           [0484] test       32      1    ; to [486] if false
7956  1A000080           [0485] jmp        1            ; to [487]
795A  1AC00080           [0486] jmp        4            ; to [491]
795E  1D481100           [0487] getglobal  32  69       ; 538022378
7962  59880000           [0488] loadk      33  2        ; 0
7966  22480001           [0489] call       32  2   1  
796A  1A40FC7F           [0490] jmp        -14          ; to [477]
796E  24C85300           [0491] self       32  0   335  ; -1625438872
7972  9D080D00           [0492] getglobal  34  52       ; 738251817
7976  D9081400           [0493] loadk      35  80       ; "/Lotus/Objects/Cinematics/TWW/KuvaStaffAttachment"
797A  A2080001           [0494] call       34  2   0  
797E  22880000           [0495] call       32  0   2  
7982  5D881300           [0496] getglobal  33  78       ; 1074689893
7986  92080010           [0497] move       34  32     
798A  62880001           [0498] call       33  2   2  
798E  58480000           [0499] test       33      1    ; to [501] if false
7992  1AC00080           [0500] jmp        4            ; to [505]
7996  64485410           [0501] self       33  32  337  ; 2109594123
799A  D7080000           [0502] loadbool   35  0   0    ; false
799E  17098000           [0503] loadbool   36  1   0    ; true
79A2  62480002           [0504] call       33  4   1  
fail op	35
79A6  2300800F           [0505] close      0  
79AA  1A800980           [0506] jmp        39           ; to [546]
79AE  64885400           [0507] self       33  0   338  ; 1525877273
79B2  62880001           [0508] call       33  2   2  
79B6  9D080000           [0509] getglobal  34  0        ; gRegion
79BA  A4C85411           [0510] self       34  34  339  ; -1456226250
79BE  A2880001           [0511] call       34  2   2  
79C2  8E085511           [0512] gettable   34  34  340  ; "postProcess"
79C6  8C88D5AA           [0513] settable   34  341 342  ; "fade" -113
79CA  DD881300           [0514] getglobal  35  78       ; 1074689893
79CE  12098010           [0515] move       36  33     
79D2  E2880001           [0516] call       35  2   2  
79D6  D8480000           [0517] test       35      1    ; to [519] if false
79DA  1AC00280           [0518] jmp        12           ; to [531]
79DE  E4C8D510           [0519] self       35  33  343  ; 167589562
79E2  59091600           [0520] loadk      37  88       ; 51
79E6  99491600           [0521] loadk      38  89       ; 102
79EA  D9491600           [0522] loadk      39  89       ; 102
79EE  198A1600           [0523] loadk      40  90       ; 0
79F2  E2480003           [0524] call       35  6   1  
79F6  E4C8D610           [0525] self       35  33  347  ; -847416010
79FA  5D091700           [0526] getglobal  37  92       ; cameraColorCorrection
79FE  99090A00           [0527] loadk      38  40       ; 0
7A02  D9491700           [0528] loadk      39  93       ; 0
7A06  190A0A00           [0529] loadk      40  40       ; 0
7A0A  E2480003           [0530] call       35  6   1  
7A0E  8CC857AF           [0531] settable   34  350 351  ; "lightning" 1
7A12  E4085800           [0532] self       35  0   352  ; 630793108
7A16  5D491800           [0533] getglobal  37  97       ; enterVoidLocalSound
7A1A  97090000           [0534] loadbool   38  0   0    ; false
7A1E  D9890000           [0535] loadk      39  2        ; 0
7A22  170A0000           [0536] loadbool   40  0   0    ; false
7A26  E2480003           [0537] call       35  6   1  
7A2A  E4484600           [0538] self       35  0   281  ; -1421644046
7A2E  5D891800           [0539] getglobal  37  98       ; inVoidLocalSequencer
7A32  9DC90600           [0540] getglobal  38  27       ; EMPTY_SYMBOL
7A36  DD090700           [0541] getglobal  39  28       ; ZERO_VECTOR
7A3A  1D4A0700           [0542] getglobal  40  29       ; ZERO_ROTATION
7A3E  520A0000           [0543] move       41  0      
7A42  E2488003           [0544] call       35  7   1  
7A46  1A000380           [0545] jmp        13           ; to [559]
7A4A  E4085800           [0546] self       35  0   352  ; 630793108
7A4E  5DC91800           [0547] getglobal  37  99       ; enterVoidSound
7A52  97090000           [0548] loadbool   38  0   0    ; false
7A56  D9890000           [0549] loadk      39  2        ; 0
7A5A  170A0000           [0550] loadbool   40  0   0    ; false
7A5E  E2480003           [0551] call       35  6   1  
7A62  E4484600           [0552] self       35  0   281  ; -1421644046
7A66  5D091900           [0553] getglobal  37  100      ; inVoidSequencer
7A6A  9DC90600           [0554] getglobal  38  27       ; EMPTY_SYMBOL
7A6E  DD090700           [0555] getglobal  39  28       ; ZERO_VECTOR
7A72  1D4A0700           [0556] getglobal  40  29       ; ZERO_ROTATION
7A76  520A0000           [0557] move       41  0      
7A7A  E2488003           [0558] call       35  7   1  
7A7E  58400000           [0559] test       1       1    ; to [561] if false
7A82  1AC00380           [0560] jmp        16           ; to [577]
7A86  E4485900           [0561] self       35  0   357  ; -1201586349
7A8A  E2880001           [0562] call       35  2   2  
7A8E  D8080000           [0563] test       35      0    ; to [565] if true
7A92  1A000280           [0564] jmp        9            ; to [574]
7A96  E4885900           [0565] self       35  0   358  ; -9119740
7A9A  E2880001           [0566] call       35  2   2  
7A9E  D8480000           [0567] test       35      1    ; to [569] if false
7AA2  1AC00180           [0568] jmp        8            ; to [577]
7AA6  DD481100           [0569] getglobal  35  69       ; 538022378
7AAA  19890000           [0570] loadk      36  2        ; 0
7AAE  E2480001           [0571] call       35  2   1  
7AB2  1AC0FD7F           [0572] jmp        -8           ; to [565]
7AB6  1A800080           [0573] jmp        3            ; to [577]
7ABA  DD481100           [0574] getglobal  35  69       ; 538022378
7ABE  19C91900           [0575] loadk      36  103      ; 0
7AC2  E2480001           [0576] call       35  2   1  
7AC6  DD881300           [0577] getglobal  35  78       ; 1074689893
7ACA  12090000           [0578] move       36  0      
7ACE  E2880001           [0579] call       35  2   2  
7AD2  D8080000           [0580] test       35      0    ; to [582] if true
7AD6  1A000180           [0581] jmp        5            ; to [587]
7ADA  DD081A00           [0582] getglobal  35  104      ; -1817107093
7ADE  19491A00           [0583] loadk      36  105      ; "OperatorAvatar is null in void mode!"
7AE2  E2480001           [0584] call       35  2   1  
7AE6  1E008000           [0585] return     0   1      
7AEA  1A800280           [0586] jmp        11           ; to [598]
7AEE  DD881300           [0587] getglobal  35  78       ; 1074689893
7AF2  1209000B           [0588] move       36  22     
7AF6  E2880001           [0589] call       35  2   2  
7AFA  D8080000           [0590] test       35      0    ; to [592] if true
7AFE  1A400180           [0591] jmp        6            ; to [598]
7B02  E4C84500           [0592] self       35  0   279  ; -1917464545
7B06  E2880001           [0593] call       35  2   2  
7B0A  52058011           [0594] move       21  35     
7B0E  E408C60A           [0595] self       35  21  280  ; 1769516121
7B12  E2880001           [0596] call       35  2   2  
7B16  92058011           [0597] move       22  35     
7B1A  E4885A00           [0598] self       35  0   362  ; -609644093
7B1E  E2880001           [0599] call       35  2   2  
7B22  D8480000           [0600] test       35      1    ; to [602] if false
7B26  1A400080           [0601] jmp        2            ; to [604]
7B2A  E4C85A00           [0602] self       35  0   363  ; -1167676648
7B2E  E2480001           [0603] call       35  2   1  
7B32  E4085B0B           [0604] self       35  22  364  ; 142650380
7B36  E2480001           [0605] call       35  2   1  
7B3A  D9880000           [0606] loadk      35  2        ; 0
7B3E  17090000           [0607] loadbool   36  0   0    ; false
7B42  5D090E00           [0608] getglobal  37  56       ; -332969190
7B46  99491B00           [0609] loadk      38  109      ; "OnDashHit"
7B4A  62890001           [0610] call       37  2   2  
7B4E  A4895B0B           [0611] self       38  22  366  ; -363477704
7B52  198A0000           [0612] loadk      40  2        ; 0
7B56  A2898001           [0613] call       38  3   2  
7B5A  C6090014           [0614] loadnil    39  40     
7B5E  648A5900           [0615] self       41  0   358  ; -9119740
7B62  628A0001           [0616] call       41  2   2  
7B66  580A0000           [0617] test       41      0    ; to [619] if true
7B6A  1A004580           [0618] jmp        277          ; to [896]
7B6E  5D8A1300           [0619] getglobal  41  78       ; 1074689893
7B72  920A000B           [0620] move       42  22     
7B76  628A0001           [0621] call       41  2   2  
7B7A  584A0000           [0622] test       41      1    ; to [624] if false
7B7E  1AC04380           [0623] jmp        272          ; to [896]
7B82  64CA5B00           [0624] self       41  0   367  ; -1989965367
7B86  628A0001           [0625] call       41  2   2  
7B8A  580A0000           [0626] test       41      0    ; to [628] if true
7B8E  1AC04280           [0627] jmp        268          ; to [896]
7B92  648A5100           [0628] self       41  0   326  ; 1637313982
7B96  628A0001           [0629] call       41  2   2  
7B9A  584A0000           [0630] test       41      1    ; to [632] if false
7B9E  1A400080           [0631] jmp        2            ; to [634]
7BA2  640A5C00           [0632] self       41  0   368  ; 115701976
7BA6  624A0001           [0633] call       41  2   1  
7BAA  5D8A1300           [0634] getglobal  41  78       ; 1074689893
7BAE  A44A5C00           [0635] self       42  0   369  ; -564624675
7BB2  A20A0001           [0636] call       42  2   0  
7BB6  628A0000           [0637] call       41  0   2  
7BBA  584A0000           [0638] test       41      1    ; to [640] if false
7BBE  1AC00380           [0639] jmp        16           ; to [656]
7BC2  5D8A0F00           [0640] getglobal  41  62       ; math
7BC6  4E8ADC14           [0641] gettable   41  41  370  ; -1962864584
7BCA  A4CA5C0B           [0642] self       42  22  371  ; 1722612532
7BCE  A28A0001           [0643] call       42  2   2  
7BD2  DD0A1D00           [0644] getglobal  43  116      ; 1289681407
7BD6  E28A8000           [0645] call       43  1   2  
7BDA  1DCB0200           [0646] getglobal  44  11       ; energyDrainRate
7BDE  C40A8B15           [0647] mul        43  43  44 
7BE2  8DCA0A15           [0648] sub        42  42  43 
7BE6  D98A0000           [0649] loadk      43  2        ; 0
7BEA  628A8001           [0650] call       41  3   2  
7BEE  A44A5D0B           [0651] self       42  22  373  ; -1209210956
7BF2  120B8014           [0652] move       44  41     
7BF6  A24A8001           [0653] call       42  3   1  
7BFA  A40A5B0B           [0654] self       42  22  364  ; 142650380
7BFE  A24A0001           [0655] call       42  2   1  
7C02  A44A5900           [0656] self       42  0   357  ; -1201586349
7C06  A28A0001           [0657] call       42  2   2  
7C0A  980A0000           [0658] test       42      0    ; to [660] if true
7C0E  1AC00580           [0659] jmp        24           ; to [684]
7C12  A4CA5C0B           [0660] self       42  22  371  ; 1722612532
7C16  A28A0001           [0661] call       42  2   2  
fail op	33
7C1A  21804015           [0662] tforloop   0       258  ; to [664] if exit
7C1E  1AC00480           [0663] jmp        20           ; to [684]
7C22  9D8A1300           [0664] getglobal  42  78       ; 1074689893
7C26  DD8A1D00           [0665] getglobal  43  118      ; gGameRules
7C2A  A28A0001           [0666] call       42  2   2  
7C2E  984A0000           [0667] test       42      1    ; to [669] if false
7C32  1AC00280           [0668] jmp        12           ; to [681]
7C36  9D8A1D00           [0669] getglobal  42  118      ; gGameRules
7C3A  A4CA5D15           [0670] self       42  42  375  ; -2029400442
7C3E  A28A0001           [0671] call       42  2   2  
7C42  DD8A1300           [0672] getglobal  43  78       ; 1074689893
7C46  120B0015           [0673] move       44  42     
7C4A  E28A0001           [0674] call       43  2   2  
7C4E  D84A0000           [0675] test       43      1    ; to [677] if false
7C52  1AC00080           [0676] jmp        4            ; to [681]
7C56  E40A5E15           [0677] self       43  42  376  ; 1167009705
7C5A  594B1E00           [0678] loadk      45  121      ; "NotifyAbilityActivateError"
7C5E  998B1E00           [0679] loadk      46  122      ; "/Lotus/Language/Game/AbilityNeedMoreEnergy"
7C62  E24A0002           [0680] call       43  4   1  
7C66  E4CA5E00           [0681] self       43  0   379  ; 719211773
7C6A  570B0000           [0682] loadbool   45  0   0    ; false
7C6E  E24A8001           [0683] call       43  3   1  
fail op	21
7C72  15000181           [0684] concat     0   258 4  
7C76  1AC00380           [0685] jmp        16           ; to [702]
7C7A  DD8A1300           [0686] getglobal  43  78       ; 1074689893
7C7E  120B8013           [0687] move       44  39     
7C82  E28A0001           [0688] call       43  2   2  
7C86  D80A0000           [0689] test       43      0    ; to [691] if true
7C8A  1A000280           [0690] jmp        9            ; to [700]
7C8E  E48A5A00           [0691] self       43  0   362  ; -609644093
7C92  E28A0001           [0692] call       43  2   2  
7C96  D80A0000           [0693] test       43      0    ; to [695] if true
7C9A  1A800180           [0694] jmp        7            ; to [702]
7C9E  D30A800A           [0695] getupval   43  21     
7CA2  120B0000           [0696] move       44  0      
7CA6  E28A0001           [0697] call       43  2   2  
7CAA  D2098015           [0698] move       39  43     
7CAE  1A400080           [0699] jmp        2            ; to [702]
7CB2  CE0ADF13           [0700] gettable   43  39  380  ; -1938777623
7CB6  E24A8000           [0701] call       43  1   1  
fail op	21
7CBA  15800381           [0702] concat     0   258 14 
7CBE  1AC00880           [0703] jmp        36           ; to [740]
7CC2  E48A5A00           [0704] self       43  0   362  ; -609644093
7CC6  E28A0001           [0705] call       43  2   2  
7CCA  D80A0000           [0706] test       43      0    ; to [708] if true
7CCE  1AC00580           [0707] jmp        24           ; to [732]
7CD2  DD8A1300           [0708] getglobal  43  78       ; 1074689893
7CD6  120B0014           [0709] move       44  40     
7CDA  E28A0001           [0710] call       43  2   2  
7CDE  D80A0000           [0711] test       43      0    ; to [713] if true
7CE2  1A800680           [0712] jmp        27           ; to [740]
7CE6  E44A4600           [0713] self       43  0   281  ; -1421644046
7CEA  5D4B1F00           [0714] getglobal  45  125      ; dashWaveType
7CEE  9DCB0600           [0715] getglobal  46  27       ; EMPTY_SYMBOL
7CF2  DD8B1F00           [0716] getglobal  47  126      ; 572299008
7CF6  198C0000           [0717] loadk      48  2        ; 0
7CFA  59CC1F00           [0718] loadk      49  127      ; -102
7CFE  998C0000           [0719] loadk      50  2        ; 0
7D02  E28B0002           [0720] call       47  4   2  
7D06  1D4C0700           [0721] getglobal  48  29       ; ZERO_ROTATION
7D0A  520C0000           [0722] move       49  0      
7D0E  E28A8003           [0723] call       43  7   2  
7D12  120A8015           [0724] move       40  43     
7D16  E40A5800           [0725] self       43  0   352  ; 630793108
7D1A  5D0B2000           [0726] getglobal  45  128      ; dashWaveSound
7D1E  970B0000           [0727] loadbool   46  0   0    ; false
7D22  D98B0000           [0728] loadk      47  2        ; 0
7D26  170C0000           [0729] loadbool   48  0   0    ; false
7D2A  E24A0003           [0730] call       43  6   1  
7D2E  1AC00180           [0731] jmp        8            ; to [740]
7D32  DD8A1300           [0732] getglobal  43  78       ; 1074689893
7D36  120B0014           [0733] move       44  40     
7D3A  E28A0001           [0734] call       43  2   2  
7D3E  D84A0000           [0735] test       43      1    ; to [737] if false
7D42  1A800080           [0736] jmp        3            ; to [740]
7D46  E44A6014           [0737] self       43  40  385  ; 1521658607
7D4A  E24A0001           [0738] call       43  2   1  
7D4E  060A0014           [0739] loadnil    40  40     
fail op	21
7D52  15800181           [0740] concat     0   258 6  
7D56  1A400580           [0741] jmp        22           ; to [764]
7D5A  DD8A1300           [0742] getglobal  43  78       ; 1074689893
7D5E  120B000E           [0743] move       44  28     
7D62  E28A0001           [0744] call       43  2   2  
7D66  D84A0000           [0745] test       43      1    ; to [747] if false
7D6A  1A000480           [0746] jmp        17           ; to [764]
7D6E  D30A8002           [0747] getupval   43  5      
7D72  CE8AE015           [0748] gettable   43  43  386  ; "growTime"
fail op	33
7D76  21C08A11           [0749] tforloop   0       43   ; to [751] if exit
7D7A  1A000380           [0750] jmp        13           ; to [764]
7D7E  E48A4E0E           [0751] self       43  28  314  ; 1786666898
7D82  5DCB2000           [0752] getglobal  45  131      ; -1828500651
7D86  99CB1900           [0753] loadk      46  103      ; 0
7D8A  D30B8002           [0754] getupval   47  5      
7D8E  CECBC317           [0755] gettable   47  47  271  ; "radius"
7D92  CE8B8117           [0756] gettable   47  47  6  
7D96  DC0BE117           [0757] div        47  47  388  ; 0
7D9A  130C8002           [0758] getupval   48  5      
7D9E  0E8C6018           [0759] gettable   48  48  386  ; "growTime"
7DA2  1C0C8C11           [0760] div        48  35  48 
7DA6  628B0002           [0761] call       45  4   2  
7DAA  5C4BE116           [0762] div        45  45  389  ; 0
7DAE  E24A8001           [0763] call       43  3   1  
7DB2  DD8A1300           [0764] getglobal  43  78       ; 1074689893
7DB6  120B800B           [0765] move       44  23     
7DBA  E28A0001           [0766] call       43  2   2  
7DBE  D84A0000           [0767] test       43      1    ; to [769] if false
7DC2  1A400080           [0768] jmp        2            ; to [771]
7DC6  CE0ADF0B           [0769] gettable   43  23  380  ; -1938777623
7DCA  E24A8000           [0770] call       43  1   1  
fail op	21
7DCE  15000381           [0771] concat     0   258 12 
7DD2  1A400280           [0772] jmp        10           ; to [783]
7DD6  58000000           [0773] test       1       0    ; to [775] if true
7DDA  1AC00180           [0774] jmp        8            ; to [783]
fail op	35
7DDE  2380C011           [0775] close      0  
7DE2  1A400180           [0776] jmp        6            ; to [783]
7DE6  E48A6100           [0777] self       43  0   390  ; -1302048094
7DEA  5D0B0E00           [0778] getglobal  45  56       ; -332969190
7DEE  99CB2100           [0779] loadk      46  135      ; "CloakMeleeCritUpgrade"
7DF2  628B0001           [0780] call       45  2   2  
7DF6  970B0000           [0781] loadbool   46  0   0    ; false
7DFA  E24A0002           [0782] call       43  4   1  
7DFE  DD8A1300           [0783] getglobal  43  78       ; 1074689893
7E02  120B800C           [0784] move       44  25     
7E06  E28A0001           [0785] call       43  2   2  
7E0A  D84A0000           [0786] test       43      1    ; to [788] if false
7E0E  1A400080           [0787] jmp        2            ; to [790]
7E12  CE0ADF0C           [0788] gettable   43  25  380  ; -1938777623
7E16  E24A8000           [0789] call       43  1   1  
7E1A  E48A5A00           [0790] self       43  0   362  ; -609644093
7E1E  E28A0001           [0791] call       43  2   2  
7E22  D80A0000           [0792] test       43      0    ; to [794] if true
7E26  1A000A80           [0793] jmp        41           ; to [835]
7E2A  18490000           [0794] test       36      1    ; to [796] if false
7E2E  1A001780           [0795] jmp        93           ; to [889]
7E32  58040000           [0796] test       17      0    ; to [798] if true
7E36  1A000280           [0797] jmp        9            ; to [807]
7E3A  DD8A1300           [0798] getglobal  43  78       ; 1074689893
7E3E  120B0013           [0799] move       44  38     
7E42  E28A0001           [0800] call       43  2   2  
7E46  D84A0000           [0801] test       43      1    ; to [803] if false
7E4A  1AC00080           [0802] jmp        4            ; to [807]
7E4E  E40A6213           [0803] self       43  38  392  ; -722806278
7E52  520B8012           [0804] move       45  37     
7E56  970B8000           [0805] loadbool   46  1   0    ; true
7E5A  E24A0002           [0806] call       43  4   1  
fail op	21
7E5E  15000181           [0807] concat     0   258 4  
7E62  1A400180           [0808] jmp        6            ; to [815]
7E66  E40A5800           [0809] self       43  0   352  ; 630793108
7E6A  5D4B2200           [0810] getglobal  45  137      ; startDashFireSound
7E6E  970B0000           [0811] loadbool   46  0   0    ; false
7E72  D98B0000           [0812] loadk      47  2        ; 0
7E76  170C0000           [0813] loadbool   48  0   0    ; false
7E7A  E24A0003           [0814] call       43  6   1  
7E7E  E44A4800           [0815] self       43  0   289  ; -717859730
7E82  E28A0001           [0816] call       43  2   2  
7E86  D80A0000           [0817] test       43      0    ; to [819] if true
7E8A  1A400380           [0818] jmp        14           ; to [833]
7E8E  DD8A1300           [0819] getglobal  43  78       ; 1074689893
7E92  1D8B2200           [0820] getglobal  44  138      ; _T
7E96  0ECB6216           [0821] gettable   44  44  395  ; "voidDashCount"
7E9A  E28A0001           [0822] call       43  2   2  
7E9E  D80A0000           [0823] test       43      0    ; to [825] if true
7EA2  1A800080           [0824] jmp        3            ; to [828]
7EA6  DD8A2200           [0825] getglobal  43  138      ; _T
7EAA  CC0ACAC5           [0826] settable   43  395 296  ; "voidDashCount" 0
7EAE  1A000180           [0827] jmp        5            ; to [833]
7EB2  DD8A2200           [0828] getglobal  43  138      ; _T
7EB6  1D8B2200           [0829] getglobal  44  138      ; _T
7EBA  0ECB6216           [0830] gettable   44  44  395  ; "voidDashCount"
7EBE  030B4A16           [0831] add        44  44  296  ; 0
7EC2  CC0A8BC5           [0832] settable   43  395 44   ; "voidDashCount"
7EC6  17098000           [0833] loadbool   36  1   0    ; true
7ECA  1A400D80           [0834] jmp        54           ; to [889]
7ECE  18090000           [0835] test       36      0    ; to [837] if true
7ED2  1AC00C80           [0836] jmp        52           ; to [889]
7ED6  58040000           [0837] test       17      0    ; to [839] if true
7EDA  1A000280           [0838] jmp        9            ; to [848]
7EDE  DD8A1300           [0839] getglobal  43  78       ; 1074689893
7EE2  120B0013           [0840] move       44  38     
7EE6  E28A0001           [0841] call       43  2   2  
7EEA  D84A0000           [0842] test       43      1    ; to [844] if false
7EEE  1AC00080           [0843] jmp        4            ; to [848]
7EF2  E40A6213           [0844] self       43  38  392  ; -722806278
7EF6  520B8012           [0845] move       45  37     
7EFA  970B0000           [0846] loadbool   46  0   0    ; false
7EFE  E24A0002           [0847] call       43  4   1  
fail op	21
7F02  15800281           [0848] concat     0   258 10 
7F06  1AC00080           [0849] jmp        4            ; to [854]
7F0A  D30A000B           [0850] getupval   43  22     
7F0E  120B0000           [0851] move       44  0      
7F12  520B0005           [0852] move       45  10     
7F16  E24A8001           [0853] call       43  3   1  
fail op	21
7F1A  15C00281           [0854] concat     0   258 11 
7F1E  1A400580           [0855] jmp        22           ; to [878]
7F22  D30A0005           [0856] getupval   43  10     
7F26  CE0AE315           [0857] gettable   43  43  396  ; "energyCost"
7F2A  1D8B0F00           [0858] getglobal  44  62       ; math
7F2E  0E4B6316           [0859] gettable   44  44  397  ; 1710846250
7F32  530B0005           [0860] getupval   45  10     
7F36  4E0BE316           [0861] gettable   45  45  396  ; "energyCost"
7F3A  4A0B8016           [0862] len        45  45     
7F3E  920B8005           [0863] move       46  11     
7F42  228B8001           [0864] call       44  3   2  
7F46  CE0A8B15           [0865] gettable   43  43  44 
7F4A  24CB5C0B           [0866] self       44  22  371  ; 1722612532
7F4E  228B0001           [0867] call       44  2   2  
fail op	33
7F52  21008B15           [0868] tforloop   0       44   ; to [870] if exit
7F56  1AC00180           [0869] jmp        8            ; to [878]
7F5A  248B630B           [0870] self       44  22  398  ; -338878752
fail op	0
7F5E  800B8015           [0871] move       46  43     
7F62  224B8001           [0872] call       44  3   1  
7F66  58000000           [0873] test       1       0    ; to [875] if true
7F6A  1A800080           [0874] jmp        3            ; to [878]
7F6E  130B800B           [0875] getupval   44  23     
7F72  520B0000           [0876] move       45  0      
7F76  224B0001           [0877] call       44  2   1  
fail op	21
7F7A  15C00181           [0878] concat     0   258 7  
7F7E  1AC00180           [0879] jmp        8            ; to [888]
7F82  58000000           [0880] test       1       0    ; to [882] if true
7F86  1A400180           [0881] jmp        6            ; to [888]
7F8A  248B6100           [0882] self       44  0   390  ; -1302048094
7F8E  9D0B0E00           [0883] getglobal  46  56       ; -332969190
7F92  D9CB2300           [0884] loadk      47  143      ; "DashShockwave"
7F96  A28B0001           [0885] call       46  2   2  
7F9A  D70B0000           [0886] loadbool   47  0   0    ; false
7F9E  224B0002           [0887] call       44  4   1  
7FA2  17090000           [0888] loadbool   36  0   0    ; false
7FA6  1D0B1D00           [0889] getglobal  44  116      ; 1289681407
7FAA  228B8000           [0890] call       44  1   2  
7FAE  C3088B11           [0891] add        35  35  44 
7FB2  1D4B1100           [0892] getglobal  44  69       ; 538022378
7FB6  598B0000           [0893] loadk      45  2        ; 0
7FBA  224B0001           [0894] call       44  2   1  
7FBE  1A80B97F           [0895] jmp        -281         ; to [615]
7FC2  130B000C           [0896] getupval   44  24     
7FC6  520B800F           [0897] move       45  31     
7FCA  920B0000           [0898] move       46  0      
7FCE  D70B8000           [0899] loadbool   47  1   0    ; true
7FD2  224B0002           [0900] call       44  4   1  
7FD6  1D8B1300           [0901] getglobal  44  78       ; 1074689893
7FDA  520B0010           [0902] move       45  32     
7FDE  228B0001           [0903] call       44  2   2  
7FE2  184B0000           [0904] test       44      1    ; to [906] if false
7FE6  1AC00080           [0905] jmp        4            ; to [910]
7FEA  244B5410           [0906] self       44  32  337  ; 2109594123
7FEE  970B8000           [0907] loadbool   46  1   0    ; true
7FF2  D70B8000           [0908] loadbool   47  1   0    ; true
7FF6  224B0002           [0909] call       44  4   1  
7FFA  130B000A           [0910] getupval   44  20     
7FFE  0ECB5116           [0911] gettable   44  44  327  ; -1970331308
8002  520B0000           [0912] move       45  0      
8006  9D0B1200           [0913] getglobal  46  72       ; cloakProjector
800A  DD0B1200           [0914] getglobal  47  72       ; cloakProjector
800E  224B0002           [0915] call       44  4   1  
8012  24CB5B00           [0916] self       44  0   367  ; -1989965367
8016  228B0001           [0917] call       44  2   2  
801A  184B0000           [0918] test       44      1    ; to [920] if false
801E  1A400080           [0919] jmp        2            ; to [922]
8022  240B5C00           [0920] self       44  0   368  ; 115701976
8026  224B0001           [0921] call       44  2   1  
fail op	21
802A  15800381           [0922] concat     0   258 14 
802E  1AC00180           [0923] jmp        8            ; to [932]
8032  1D8B1300           [0924] getglobal  44  78       ; 1074689893
8036  520B0014           [0925] move       45  40     
803A  228B0001           [0926] call       44  2   2  
803E  184B0000           [0927] test       44      1    ; to [929] if false
8042  1A800080           [0928] jmp        3            ; to [932]
8046  244B6014           [0929] self       44  40  385  ; 1521658607
804A  224B0001           [0930] call       44  2   1  
804E  060A0014           [0931] loadnil    40  40     
fail op	21
8052  15800081           [0932] concat     0   258 2  
8056  1A400780           [0933] jmp        30           ; to [964]
805A  130B8000           [0934] getupval   44  1      
805E  0E0B6316           [0935] gettable   44  44  396  ; "energyCost"
8062  0E8B0016           [0936] gettable   44  44  2  
8066  64CB5C0B           [0937] self       45  22  371  ; 1722612532
806A  628B0001           [0938] call       45  2   2  
fail op	33
806E  21400B16           [0939] tforloop   0       45   ; to [941] if exit
8072  1A800580           [0940] jmp        23           ; to [964]
8076  5D0B0000           [0941] getglobal  45  0        ; gRegion
807A  648BD216           [0942] self       45  45  330  ; -1110225722
807E  DD0B2400           [0943] getglobal  47  144      ; blindBurst
8082  244C6400           [0944] self       48  0   401  ; -427739093
8086  228C0001           [0945] call       48  2   2  
808A  5D4C0700           [0946] getglobal  49  29       ; ZERO_ROTATION
808E  920C0000           [0947] move       50  0      
8092  624B0003           [0948] call       45  6   1  
8096  640B5800           [0949] self       45  0   352  ; 630793108
809A  DD8B2400           [0950] getglobal  47  146      ; blindBurstSound
809E  170C0000           [0951] loadbool   48  0   0    ; false
80A2  598C0000           [0952] loadk      49  2        ; 0
80A6  970C0000           [0953] loadbool   50  0   0    ; false
80AA  624B0003           [0954] call       45  6   1  
80AE  58000000           [0955] test       1       0    ; to [957] if true
80B2  1A800180           [0956] jmp        7            ; to [964]
80B6  648B630B           [0957] self       45  22  398  ; -338878752
fail op	0
80BA  C00B0016           [0958] move       47  44     
80BE  624B8001           [0959] call       45  3   1  
80C2  530B800C           [0960] getupval   45  25     
80C6  920B0001           [0961] move       46  2      
80CA  D20B0000           [0962] move       47  0      
80CE  624B8001           [0963] call       45  3   1  
80D2  58000000           [0964] test       1       0    ; to [966] if true
80D6  1A800580           [0965] jmp        23           ; to [989]
80DA  5D8B1300           [0966] getglobal  45  78       ; 1074689893
80DE  920B800B           [0967] move       46  23     
80E2  628B0001           [0968] call       45  2   2  
80E6  584B0000           [0969] test       45      1    ; to [971] if false
80EA  1A400080           [0970] jmp        2            ; to [973]
80EE  4ECBE40B           [0971] gettable   45  23  403  ; 1503994384
80F2  624B8000           [0972] call       45  1   1  
80F6  5D8B1300           [0973] getglobal  45  78       ; 1074689893
80FA  920B000C           [0974] move       46  24     
80FE  628B0001           [0975] call       45  2   2  
8102  584B0000           [0976] test       45      1    ; to [978] if false
8106  1A400080           [0977] jmp        2            ; to [980]
810A  640B650C           [0978] self       45  24  404  ; -725453761
810E  624B0001           [0979] call       45  2   1  
8112  5D8B1300           [0980] getglobal  45  78       ; 1074689893
8116  920B000D           [0981] move       46  26     
811A  628B0001           [0982] call       45  2   2  
811E  584B0000           [0983] test       45      1    ; to [985] if false
8122  1AC00080           [0984] jmp        4            ; to [989]
8126  644B650B           [0985] self       45  22  405  ; -233482841
812A  D20B000D           [0986] move       47  26     
812E  170C8000           [0987] loadbool   48  1   0    ; true
8132  624B0002           [0988] call       45  4   1  
fail op	21
8136  15C00081           [0989] concat     0   258 3  
813A  1A001880           [0990] jmp        97           ; to [1088]
813E  5D8B1300           [0991] getglobal  45  78       ; 1074689893
8142  9D8B2200           [0992] getglobal  46  138      ; _T
8146  8E8B6517           [0993] gettable   46  46  406  ; "voidStrike"
814A  628B0001           [0994] call       45  2   2  
814E  580B0000           [0995] test       45      0    ; to [997] if true
8152  1A800080           [0996] jmp        3            ; to [1000]
8156  5D8B2200           [0997] getglobal  45  138      ; _T
815A  8B0B0000           [0998] newtable   46  0   0    ; array=0, hash=0
815E  4C8B0BCB           [0999] settable   45  406 46   ; "voidStrike"
8162  64CB6500           [1000] self       45  0   407  ; -605089866
8166  628B0001           [1001] call       45  2   2  
816A  970B0000           [1002] loadbool   46  0   0    ; false
816E  DD8B1300           [1003] getglobal  47  78       ; 1074689893
8172  1D8C2200           [1004] getglobal  48  138      ; _T
8176  0E8C6518           [1005] gettable   48  48  406  ; "voidStrike"
817A  0E4C0B18           [1006] gettable   48  48  45 
817E  E28B0001           [1007] call       47  2   2  
8182  D80B0000           [1008] test       47      0    ; to [1010] if true
8186  1AC00280           [1009] jmp        12           ; to [1022]
818A  970B8000           [1010] loadbool   46  1   0    ; true
818E  DD8B2200           [1011] getglobal  47  138      ; _T
8192  CE8BE517           [1012] gettable   47  47  406  ; "voidStrike"
8196  0BCC0000           [1013] newtable   48  0   3    ; array=0, hash=3
819A  0C4C66CC           [1014] settable   48  408 409  ; "needsUpdate" 0
819E  0C0C4ACD           [1015] settable   48  410 296  ; "multiplier" 0
81A2  530C0001           [1016] getupval   49  2      
81A6  4ECCE618           [1017] gettable   49  49  411  ; "numAttacks"
81AA  4ECC8018           [1018] gettable   49  49  3  
81AE  0C4C8CCD           [1019] settable   48  411 49   ; "numAttacks"
81B2  CC0B8C16           [1020] settable   47  45  48 
81B6  1AC00080           [1021] jmp        4            ; to [1026]
81BA  DD8B2200           [1022] getglobal  47  138      ; _T
81BE  CE8BE517           [1023] gettable   47  47  406  ; "voidStrike"
81C2  CE4B8B17           [1024] gettable   47  47  45 
81C6  CCCB57CC           [1025] settable   47  408 351  ; "needsUpdate" 1
81CA  DD8B2200           [1026] getglobal  47  138      ; _T
81CE  CE8BE517           [1027] gettable   47  47  406  ; "voidStrike"
81D2  CE4B8B17           [1028] gettable   47  47  45 
81D6  CECBE617           [1029] gettable   47  47  411  ; "numAttacks"
fail op	35
81DA  2380C017           [1030] close      0  
81DE  1A400180           [1031] jmp        6            ; to [1038]
81E2  DD8B2200           [1032] getglobal  47  138      ; _T
81E6  CE8BE517           [1033] gettable   47  47  406  ; "voidStrike"
81EA  130C0001           [1034] getupval   48  2      
81EE  0ECC6618           [1035] gettable   48  48  411  ; "numAttacks"
81F2  0ECC0018           [1036] gettable   48  48  3  
81F6  CC0B8C16           [1037] settable   47  45  48 
81FA  E40B6700           [1038] self       47  0   412  ; 1340411811
81FE  E28B0001           [1039] call       47  2   2  
8202  130C0001           [1040] getupval   48  2      
8206  0E4C4218           [1041] gettable   48  48  265  ; "percentIncreasePerSecond"
820A  0ECC0018           [1042] gettable   48  48  3  
820E  040C8C11           [1043] mul        48  35  48 
8212  430C8C17           [1044] add        49  47  48 
8216  A44C6700           [1045] self       50  0   413  ; 1921976771
821A  120D8018           [1046] move       52  49     
821E  A24C8001           [1047] call       50  3   1  
8222  9D8C2200           [1048] getglobal  50  138      ; _T
8226  8E8C6519           [1049] gettable   50  50  406  ; "voidStrike"
822A  8E4C0B19           [1050] gettable   50  50  45 
822E  8C4C0CCD           [1051] settable   50  410 49   ; "multiplier"
8232  A48C6700           [1052] self       50  0   414  ; -1764426596
8236  A28C0001           [1053] call       50  2   2  
823A  DD8C1300           [1054] getglobal  51  78       ; 1074689893
823E  120D0019           [1055] move       52  50     
8242  E28C0001           [1056] call       51  2   2  
8246  D84C0000           [1057] test       51      1    ; to [1059] if false
824A  1A800380           [1058] jmp        15           ; to [1074]
824E  E4CC6719           [1059] self       51  50  415  ; -1813551355
8252  E28C0001           [1060] call       51  2   2  
8256  1D8D1300           [1061] getglobal  52  78       ; 1074689893
825A  520D8019           [1062] move       53  51     
825E  228D0001           [1063] call       52  2   2  
8262  184D0000           [1064] test       52      1    ; to [1066] if false
8266  1AC00180           [1065] jmp        8            ; to [1074]
fail op	35
826A  63008019           [1066] close      1  
826E  1A400180           [1067] jmp        6            ; to [1074]
8272  240DE719           [1068] self       52  51  412  ; 1340411811
8276  228D0001           [1069] call       52  2   2  
827A  D20B001A           [1070] move       47  52     
827E  244DE719           [1071] self       52  51  413  ; 1921976771
8282  830D8C17           [1072] add        54  47  48 
8286  224D8001           [1073] call       52  3   1  
828A  58400000           [1074] test       1       1    ; to [1076] if false
828E  1AC00080           [1075] jmp        4            ; to [1080]
8292  244D4800           [1076] self       52  0   289  ; -717859730
8296  228D0001           [1077] call       52  2   2  
829A  180D0000           [1078] test       52      0    ; to [1080] if true
829E  1AC00180           [1079] jmp        8            ; to [1088]
82A2  980B0000           [1080] test       46      0    ; to [1082] if true
82A6  1A400180           [1081] jmp        6            ; to [1088]
82AA  248D6100           [1082] self       52  0   390  ; -1302048094
82AE  9D0D0E00           [1083] getglobal  54  56       ; -332969190
82B2  D90D2800           [1084] loadk      55  160      ; "BonusDamage"
82B6  A28D0001           [1085] call       54  2   2  
82BA  D70D0000           [1086] loadbool   55  0   0    ; false
82BE  224D0002           [1087] call       52  4   1  
fail op	21
82C2  15400181           [1088] concat     0   258 5  
82C6  1AC00680           [1089] jmp        28           ; to [1118]
82CA  58000000           [1090] test       1       0    ; to [1092] if true
82CE  1A000280           [1091] jmp        9            ; to [1101]
82D2  244DE50A           [1092] self       52  21  405  ; -233482841
82D6  9D8D0A00           [1093] getglobal  54  42       ; Game
82DA  8ECD4A1B           [1094] gettable   54  54  299  ; "AVATAR_HEAL_RATE"
82DE  DD8D0A00           [1095] getglobal  55  42       ; Game
82E2  CE0DCB1B           [1096] gettable   55  55  300  ; "ADD"
82E6  130E0002           [1097] getupval   56  4      
82EA  0E8E431C           [1098] gettable   56  56  270  ; "healRate"
82EE  0E4E011C           [1099] gettable   56  56  5  
82F2  224D8002           [1100] call       52  5   1  
82F6  1D0D0100           [1101] getglobal  52  4        ; Lotus_Game
82FA  0E4D4B1A           [1102] gettable   52  52  301  ; -84065502
82FE  228D8000           [1103] call       52  1   2  
8302  0C0D0097           [1104] settable   52  302 0    ; "instigator"
8306  4B0D8000           [1105] newtable   53  1   0    ; array=1, hash=0
830A  920D0000           [1106] move       54  0      
830E  5B4D8000           [1107] setlist    53  1   1    ; index 1 to 1
8312  0C4D8D97           [1108] settable   52  303 53   ; "affected"
8316  5D0D0D00           [1109] getglobal  53  52       ; 738251817
831A  994D0D00           [1110] loadk      54  53       ; "/Lotus/Upgrades/Focus/Defense/Active/CloakHealFocusUpgrade"
831E  628D0001           [1111] call       53  2   2  
8322  0C4D8D99           [1112] settable   52  307 53   ; "abilityType"
8326  648D4D00           [1113] self       53  0   310  ; 1481577430
832A  D20D001A           [1114] move       55  52     
832E  170E0000           [1115] loadbool   56  0   0    ; false
8332  570E0000           [1116] loadbool   57  0   0    ; false
8336  624D8002           [1117] call       53  5   1  
833A  5D8D1300           [1118] getglobal  53  78       ; 1074689893
833E  920D000E           [1119] move       54  28     
8342  628D0001           [1120] call       53  2   2  
8346  584D0000           [1121] test       53      1    ; to [1123] if false
834A  1A400080           [1122] jmp        2            ; to [1125]
834E  640D650E           [1123] self       53  28  404  ; -725453761
8352  624D0001           [1124] call       53  2   1  
fail op	21
8356  15C00381           [1125] concat     0   258 15 
835A  1A400680           [1126] jmp        26           ; to [1153]
835E  5D8D1300           [1127] getglobal  53  78       ; 1074689893
8362  920D800E           [1128] move       54  29     
8366  628D0001           [1129] call       53  2   2  
836A  584D0000           [1130] test       53      1    ; to [1132] if false
836E  1AC00080           [1131] jmp        4            ; to [1136]
8372  644D650B           [1132] self       53  22  405  ; -233482841
8376  D20D800E           [1133] move       55  29     
837A  170E8000           [1134] loadbool   56  1   0    ; true
837E  624D0002           [1135] call       53  4   1  
8382  5D0D0100           [1136] getglobal  53  4        ; Lotus_Game
8386  4E4DCB1A           [1137] gettable   53  53  301  ; -84065502
838A  628D8000           [1138] call       53  1   2  
838E  4C0D0097           [1139] settable   53  302 0    ; "instigator"
8392  8B0D8000           [1140] newtable   54  1   0    ; array=1, hash=0
8396  D20D0000           [1141] move       55  0      
839A  9B4D8000           [1142] setlist    54  1   1    ; index 1 to 1
839E  4C8D8D97           [1143] settable   53  303 54   ; "affected"
83A2  9D0D0D00           [1144] getglobal  54  52       ; 738251817
83A6  D90D1100           [1145] loadk      55  68       ; "/Lotus/Upgrades/Focus/Ward/Active/CloakReduceDamageFocusUpgrade"
83AA  A28D0001           [1146] call       54  2   2  
83AE  4C8D8D99           [1147] settable   53  307 54   ; "abilityType"
83B2  A48D4D00           [1148] self       54  0   310  ; 1481577430
83B6  120E801A           [1149] move       56  53     
83BA  570E0000           [1150] loadbool   57  0   0    ; false
83BE  970E0000           [1151] loadbool   58  0   0    ; false
83C2  A24D8002           [1152] call       54  5   1  
83C6  9D8D1300           [1153] getglobal  54  78       ; 1074689893
83CA  D20D800C           [1154] move       55  25     
83CE  A28D0001           [1155] call       54  2   2  
83D2  984D0000           [1156] test       54      1    ; to [1158] if false
83D6  1A400080           [1157] jmp        2            ; to [1160]
83DA  8ECDE40C           [1158] gettable   54  25  403  ; 1503994384
83DE  A24D8000           [1159] call       54  1   1  
83E2  18090000           [1160] test       36      0    ; to [1162] if true
83E6  1A400880           [1161] jmp        34           ; to [1196]
83EA  58040000           [1162] test       17      0    ; to [1164] if true
83EE  1A000280           [1163] jmp        9            ; to [1173]
83F2  9D8D1300           [1164] getglobal  54  78       ; 1074689893
83F6  D20D0013           [1165] move       55  38     
83FA  A28D0001           [1166] call       54  2   2  
83FE  984D0000           [1167] test       54      1    ; to [1169] if false
8402  1AC00080           [1168] jmp        4            ; to [1173]
8406  A40D6213           [1169] self       54  38  392  ; -722806278
840A  120E8012           [1170] move       56  37     
840E  570E0000           [1171] loadbool   57  0   0    ; false
8412  A24D0002           [1172] call       54  4   1  
fail op	21
8416  15800281           [1173] concat     0   258 10 
841A  1AC00080           [1174] jmp        4            ; to [1179]
841E  930D000B           [1175] getupval   54  22     
8422  D20D0000           [1176] move       55  0      
8426  120E0005           [1177] move       56  10     
842A  A24D8001           [1178] call       54  3   1  
fail op	21
842E  15C00281           [1179] concat     0   258 11 
8432  1A000180           [1180] jmp        5            ; to [1186]
8436  58000000           [1181] test       1       0    ; to [1183] if true
843A  1A800080           [1182] jmp        3            ; to [1186]
843E  930D800B           [1183] getupval   54  23     
8442  D20D0000           [1184] move       55  0      
8446  A24D0001           [1185] call       54  2   1  
fail op	21
844A  15C00181           [1186] concat     0   258 7  
844E  1AC00180           [1187] jmp        8            ; to [1196]
8452  58000000           [1188] test       1       0    ; to [1190] if true
8456  1A400180           [1189] jmp        6            ; to [1196]
845A  A48D6100           [1190] self       54  0   390  ; -1302048094
845E  1D0E0E00           [1191] getglobal  56  56       ; -332969190
8462  59CE2300           [1192] loadk      57  143      ; "DashShockwave"
8466  228E0001           [1193] call       56  2   2  
846A  570E0000           [1194] loadbool   57  0   0    ; false
846E  A24D0002           [1195] call       54  4   1  
8472  1E008000           [1196] return     0   1      
                         * constants:
8477  01                 sizek (161)
8478  04                 const type 4
8479  08                 string size (8)
847A  67526567696F6E00   "gRegion\0"
                         const [0]: "gRegion"
8482  01                 const type 3
8483  58F559A5           const [1]: (-1520831144)
8487  03                 const type 3
8488  00000000           const [2]: (0)
848C  01                 const type 3
848D  A006E61E           const [3]: (518391456)
8491  04                 const type 4
8492  0B                 string size (11)
8493  4C6F7475735F4761+  "Lotus_Ga"
849B  6D6500             "me\0"
                         const [4]: "Lotus_Game"
849E  04                 const type 4
849F  0A                 string size (10)
84A0  41505F4154544143+  "AP_ATTAC"
84A8  4B00               "K\0"
                         const [5]: "AP_ATTACK"
84AA  01                 const type 3
84AB  DE2886FB           const [6]: (-75093794)
84AF  04                 const type 4
84B0  04                 string size (4)
84B1  74616700           "tag\0"
                         const [7]: "tag"
84B5  04                 const type 4
84B6  09                 string size (9)
84B7  6475726174696F6E+  "duration"
84BF  00                 "\0"
                         const [8]: "duration"
84C0  04                 const type 4
84C1  19                 string size (25)
84C2  70657263656E7449+  "percentI"
84CA  6E63726561736550+  "ncreaseP"
84D2  65725365636F6E64+  "erSecond"
84DA  00                 "\0"
                         const [9]: "percentIncreasePerSecond"
84DB  04                 const type 4
84DC  07                 string size (7)
84DD  64616D61676500     "damage\0"
                         const [10]: "damage"
84E4  04                 const type 4
84E5  10                 string size (16)
84E6  656E657267794472+  "energyDr"
84EE  61696E5261746500   "ainRate\0"
                         const [11]: "energyDrainRate"
84F6  04                 const type 4
84F7  0C                 string size (12)
84F8  656E657267794472+  "energyDr"
8500  61696E00           "ain\0"
                         const [12]: "energyDrain"
8504  04                 const type 4
8505  0B                 string size (11)
8506  41505F444546454E+  "AP_DEFEN"
850E  534500             "SE\0"
                         const [13]: "AP_DEFENSE"
8511  04                 const type 4
8512  09                 string size (9)
8513  6865616C52617465+  "healRate"
851B  00                 "\0"
                         const [14]: "healRate"
851C  04                 const type 4
851D  07                 string size (7)
851E  72616469757300     "radius\0"
                         const [15]: "radius"
8525  04                 const type 4
8526  09                 string size (9)
8527  41505F504F574552+  "AP_POWER"
852F  00                 "\0"
                         const [16]: "AP_POWER"
8530  04                 const type 4
8531  06                 string size (6)
8532  72616E676500       "range\0"
                         const [17]: "range"
8538  04                 const type 4
8539  0A                 string size (10)
853A  41505F5441435449+  "AP_TACTI"
8542  4300               "C\0"
                         const [18]: "AP_TACTIC"
8544  04                 const type 4
8545  08                 string size (8)
8546  6D61784372697400   "maxCrit\0"
                         const [19]: "maxCrit"
854E  04                 const type 4
854F  08                 string size (8)
8550  41505F5741524400   "AP_WARD\0"
                         const [20]: "AP_WARD"
8558  04                 const type 4
8559  0A                 string size (10)
855A  61726D6F75725265+  "armourRe"
8562  6400               "d\0"
                         const [21]: "armourRed"
8564  04                 const type 4
8565  07                 string size (7)
8566  646D6752656400     "dmgRed\0"
                         const [22]: "dmgRed"
856D  01                 const type 3
856E  1FD0B58D           const [23]: (-1917464545)
8572  01                 const type 3
8573  59AC7869           const [24]: (1769516121)
8577  01                 const type 3
8578  F26E43AB           const [25]: (-1421644046)
857C  04                 const type 4
857D  15                 string size (21)
857E  636C6F616B50756C+  "cloakPul"
8586  6C54726967676572+  "lTrigger"
858E  5479706500         "Type\0"
                         const [26]: "cloakPullTriggerType"
8593  04                 const type 4
8594  0D                 string size (13)
8595  454D5054595F5359+  "EMPTY_SY"
859D  4D424F4C00         "MBOL\0"
                         const [27]: "EMPTY_SYMBOL"
85A2  04                 const type 4
85A3  0C                 string size (12)
85A4  5A45524F5F564543+  "ZERO_VEC"
85AC  544F5200           "TOR\0"
                         const [28]: "ZERO_VECTOR"
85B0  04                 const type 4
85B1  0E                 string size (14)
85B2  5A45524F5F524F54+  "ZERO_ROT"
85BA  4154494F4E00       "ATION\0"
                         const [29]: "ZERO_ROTATION"
85C0  01                 const type 3
85C1  A4EC67E7           const [30]: (-412619612)
85C5  01                 const type 3
85C6  DF7436B0           const [31]: (-1338608417)
85CA  01                 const type 3
85CB  53C18DBF           const [32]: (-1081228973)
85CF  01                 const type 3
85D0  6E5436D5           const [33]: (-717859730)
85D4  01                 const type 3
85D5  BFE164BB           const [34]: (-1151016513)
85D9  04                 const type 4
85DA  17                 string size (23)
85DB  636C6F616B416C6C+  "cloakAll"
85E3  79436C6F616B4175+  "yCloakAu"
85EB  72615479706500     "raType\0"
                         const [35]: "cloakAllyCloakAuraType"
85F2  01                 const type 3
85F3  B794FA75           const [36]: (1979356343)
85F7  04                 const type 4
85F8  06                 string size (6)
85F9  636A736F6E00       "cjson\0"
                         const [37]: "cjson"
85FF  01                 const type 3
8600  5B07C18D           const [38]: (-1916729509)
8604  04                 const type 4
8605  04                 string size (4)
8606  6C766C00           "lvl\0"
                         const [39]: "lvl"
860A  03                 const type 3
860B  0000803F           const [40]: (0)
860F  01                 const type 3
8610  B9111B3B           const [41]: (991629753)
8614  04                 const type 4
8615  05                 string size (5)
8616  47616D6500         "Game\0"
                         const [42]: "Game"
861B  04                 const type 4
861C  11                 string size (17)
861D  4156415441525F48+  "AVATAR_H"
8625  45414C5F52415445+  "EAL_RATE"
862D  00                 "\0"
                         const [43]: "AVATAR_HEAL_RATE"
862E  04                 const type 4
862F  04                 string size (4)
8630  41444400           "ADD\0"
                         const [44]: "ADD"
8634  01                 const type 3
8635  2243FDFA           const [45]: (-84065502)
8639  04                 const type 4
863A  0B                 string size (11)
863B  696E737469676174+  "instigat"
8643  6F7200             "or\0"
                         const [46]: "instigator"
8646  04                 const type 4
8647  09                 string size (9)
8648  6166666563746564+  "affected"
8650  00                 "\0"
                         const [47]: "affected"
8651  04                 const type 4
8652  09                 string size (9)
8653  6275666644617461+  "buffData"
865B  00                 "\0"
                         const [48]: "buffData"
865C  04                 const type 4
865D  09                 string size (9)
865E  6275666654797065+  "buffType"
8666  00                 "\0"
                         const [49]: "buffType"
8667  04                 const type 4
8668  0A                 string size (10)
8669  42545F414D4F554E+  "BT_AMOUN"
8671  5400               "T\0"
                         const [50]: "BT_AMOUNT"
8673  04                 const type 4
8674  0C                 string size (12)
8675  6162696C69747954+  "abilityT"
867D  79706500           "ype\0"
                         const [51]: "abilityType"
8681  01                 const type 3
8682  29D4002C           const [52]: (738251817)
8686  04                 const type 4
8687  3B                 string size (59)
8688  2F4C6F7475732F55+  "/Lotus/U"
8690  706772616465732F+  "pgrades/"
8698  466F6375732F4465+  "Focus/De"
86A0  66656E73652F4163+  "fense/Ac"
86A8  746976652F436C6F+  "tive/Clo"
86B0  616B4865616C466F+  "akHealFo"
86B8  6375735570677261+  "cusUpgra"
86C0  646500             "de\0"
                         const [53]: "/Lotus/Upgrades/Focus/Defense/Active/CloakHealFocusUpgrade"
86C3  01                 const type 3
86C4  D6134F58           const [54]: (1481577430)
86C8  04                 const type 4
86C9  10                 string size (16)
86CA  636C6F616B536869+  "cloakShi"
86D2  656C645479706500   "eldType\0"
                         const [55]: "cloakShieldType"
86DA  01                 const type 3
86DB  1A4B27EC           const [56]: (-332969190)
86DF  04                 const type 4
86E0  0D                 string size (13)
86E1  47414D455F43315F+  "GAME_C1_"
86E9  4849503100         "HIP1\0"
                         const [57]: "GAME_C1_HIP1"
86EE  01                 const type 3
86EF  925F7E6A           const [58]: (1786666898)
86F3  03                 const type 3
86F4  CDCCCC3D           const [59]: (-51)
86F8  01                 const type 3
86F9  4FF9B286           const [60]: (-2035091121)
86FD  04                 const type 4
86FE  1A                 string size (26)
86FF  636C6F616B526564+  "cloakRed"
8707  75636544616D6167+  "uceDamag"
870F  6541757261547970+  "eAuraTyp"
8717  6500               "e\0"
                         const [61]: "cloakReduceDamageAuraType"
8719  04                 const type 4
871A  05                 string size (5)
871B  6D61746800         "math\0"
                         const [62]: "math"
8720  01                 const type 3
8721  7B5A00F7           const [63]: (-150971781)
8725  01                 const type 3
8726  B825F338           const [64]: (955459000)
872A  01                 const type 3
872B  BB60D5AD           const [65]: (-1378524997)
872F  03                 const type 3
8730  0000C842           const [66]: (0)
8734  04                 const type 4
8735  0B                 string size (11)
8736  42545F5045524345+  "BT_PERCE"
873E  4E5400             "NT\0"
                         const [67]: "BT_PERCENT"
8741  04                 const type 4
8742  40                 string size (64)
8743  2F4C6F7475732F55+  "/Lotus/U"
874B  706772616465732F+  "pgrades/"
8753  466F6375732F5761+  "Focus/Wa"
875B  72642F4163746976+  "rd/Activ"
8763  652F436C6F616B52+  "e/CloakR"
876B  656475636544616D+  "educeDam"
8773  616765466F637573+  "ageFocus"
877B  5570677261646500   "Upgrade\0"
                         const [68]: "/Lotus/Upgrades/Focus/Ward/Active/CloakReduceDamageFocusUpgrade"
8783  01                 const type 3
8784  EA911120           const [69]: (538022378)
8788  01                 const type 3
8789  BE6D9761           const [70]: (1637313982)
878D  01                 const type 3
878E  54218F8A           const [71]: (-1970331308)
8792  04                 const type 4
8793  0F                 string size (15)
8794  636C6F616B50726F+  "cloakPro"
879C  6A6563746F7200     "jector\0"
                         const [72]: "cloakProjector"
87A3  01                 const type 3
87A4  8B25396F           const [73]: (1866016139)
87A8  01                 const type 3
87A9  C64CD3BD           const [74]: (-1110225722)
87AD  04                 const type 4
87AE  10                 string size (16)
87AF  656E746572566F69+  "enterVoi"
87B7  6445666665637400   "dEffect\0"
                         const [75]: "enterVoidEffect"
87BF  01                 const type 3
87C0  0125A76D           const [76]: (1839670529)
87C4  01                 const type 3
87C5  BFF6E203           const [77]: (65205951)
87C9  01                 const type 3
87CA  65770E40           const [78]: (1074689893)
87CE  01                 const type 3
87CF  68C51D9F           const [79]: (-1625438872)
87D3  04                 const type 4
87D4  32                 string size (50)
87D5  2F4C6F7475732F4F+  "/Lotus/O"
87DD  626A656374732F43+  "bjects/C"
87E5  696E656D61746963+  "inematic"
87ED  732F5457572F4B75+  "s/TWW/Ku"
87F5  7661537461666641+  "vaStaffA"
87FD  74746163686D656E+  "ttachmen"
8805  7400               "t\0"
                         const [80]: "/Lotus/Objects/Cinematics/TWW/KuvaStaffAttachment"
8807  01                 const type 3
8808  0BDABD7D           const [81]: (2109594123)
880C  01                 const type 3
880D  190AF35A           const [82]: (1525877273)
8811  01                 const type 3
8812  36C033A9           const [83]: (-1456226250)
8816  04                 const type 4
8817  0C                 string size (12)
8818  706F737450726F63+  "postProc"
8820  65737300           "ess\0"
                         const [84]: "postProcess"
8824  04                 const type 4
8825  05                 string size (5)
8826  6661646500         "fade\0"
                         const [85]: "fade"
882B  03                 const type 3
882C  8FC2F5BD           const [86]: (-113)
8830  01                 const type 3
8831  BA36FD09           const [87]: (167589562)
8835  03                 const type 3
8836  3333333F           const [88]: (51)
883A  03                 const type 3
883B  6666863F           const [89]: (102)
883F  03                 const type 3
8840  00004040           const [90]: (0)
8844  01                 const type 3
8845  36757DCD           const [91]: (-847416010)
8849  04                 const type 4
884A  16                 string size (22)
884B  63616D657261436F+  "cameraCo"
8853  6C6F72436F727265+  "lorCorre"
885B  6374696F6E00       "ction\0"
                         const [92]: "cameraColorCorrection"
8861  03                 const type 3
8862  000080BF           const [93]: (0)
8866  04                 const type 4
8867  0A                 string size (10)
8868  6C696768746E696E+  "lightnin"
8870  6700               "g\0"
                         const [94]: "lightning"
8872  01                 const type 3
8873  01000000           const [95]: (1)
8877  01                 const type 3
8878  94239925           const [96]: (630793108)
887C  04                 const type 4
887D  14                 string size (20)
887E  656E746572566F69+  "enterVoi"
8886  644C6F63616C536F+  "dLocalSo"
888E  756E6400           "und\0"
                         const [97]: "enterVoidLocalSound"
8892  04                 const type 4
8893  15                 string size (21)
8894  696E566F69644C6F+  "inVoidLo"
889C  63616C5365717565+  "calSeque"
88A4  6E63657200         "ncer\0"
                         const [98]: "inVoidLocalSequencer"
88A9  04                 const type 4
88AA  0F                 string size (15)
88AB  656E746572566F69+  "enterVoi"
88B3  64536F756E6400     "dSound\0"
                         const [99]: "enterVoidSound"
88BA  04                 const type 4
88BB  10                 string size (16)
88BC  696E566F69645365+  "inVoidSe"
88C4  7175656E63657200   "quencer\0"
                         const [100]: "inVoidSequencer"
88CC  01                 const type 3
88CD  533F61B8           const [101]: (-1201586349)
88D1  01                 const type 3
88D2  04D874FF           const [102]: (-9119740)
88D6  03                 const type 3
88D7  0000003F           const [103]: (0)
88DB  01                 const type 3
88DC  6B25B193           const [104]: (-1817107093)
88E0  04                 const type 4
88E1  25                 string size (37)
88E2  4F70657261746F72+  "Operator"
88EA  4176617461722069+  "Avatar i"
88F2  73206E756C6C2069+  "s null i"
88FA  6E20766F6964206D+  "n void m"
8902  6F64652100         "ode!\0"
                         const [105]: "OperatorAvatar is null in void mode!"
8907  01                 const type 3
8908  C391A9DB           const [106]: (-609644093)
890C  01                 const type 3
890D  18AB66BA           const [107]: (-1167676648)
8911  01                 const type 3
8912  0CAC8008           const [108]: (142650380)
8916  04                 const type 4
8917  0A                 string size (10)
8918  4F6E446173684869+  "OnDashHi"
8920  7400               "t\0"
                         const [109]: "OnDashHit"
8922  01                 const type 3
8923  38C555EA           const [110]: (-363477704)
8927  01                 const type 3
8928  C9896389           const [111]: (-1989965367)
892C  01                 const type 3
892D  D878E506           const [112]: (115701976)
8931  01                 const type 3
8932  DD8258DE           const [113]: (-564624675)
8936  01                 const type 3
8937  3810018B           const [114]: (-1962864584)
893B  01                 const type 3
893C  34FBAC66           const [115]: (1722612532)
8940  01                 const type 3
8941  FFF9DE4C           const [116]: (1289681407)
8945  01                 const type 3
8946  B4E7ECB7           const [117]: (-1209210956)
894A  04                 const type 4
894B  0B                 string size (11)
894C  6747616D6552756C+  "gGameRul"
8954  657300             "es\0"
                         const [118]: "gGameRules"
8957  01                 const type 3
8958  86CE0987           const [119]: (-2029400442)
895C  01                 const type 3
895D  A9278F45           const [120]: (1167009705)
8961  04                 const type 4
8962  1B                 string size (27)
8963  4E6F746966794162+  "NotifyAb"
896B  696C697479416374+  "ilityAct"
8973  6976617465457272+  "ivateErr"
897B  6F7200             "or\0"
                         const [121]: "NotifyAbilityActivateError"
897E  04                 const type 4
897F  2B                 string size (43)
8980  2F4C6F7475732F4C+  "/Lotus/L"
8988  616E67756167652F+  "anguage/"
8990  47616D652F416269+  "Game/Abi"
8998  6C6974794E656564+  "lityNeed"
89A0  4D6F7265456E6572+  "MoreEner"
89A8  677900             "gy\0"
                         const [122]: "/Lotus/Language/Game/AbilityNeedMoreEnergy"
89AB  01                 const type 3
89AC  FD4CDE2A           const [123]: (719211773)
89B0  01                 const type 3
89B1  E999708C           const [124]: (-1938777623)
89B5  04                 const type 4
89B6  0D                 string size (13)
89B7  6461736857617665+  "dashWave"
89BF  5479706500         "Type\0"
                         const [125]: "dashWaveType"
89C4  01                 const type 3
89C5  00971C22           const [126]: (572299008)
89C9  03                 const type 3
89CA  9A99193F           const [127]: (-102)
89CE  04                 const type 4
89CF  0E                 string size (14)
89D0  6461736857617665+  "dashWave"
89D8  536F756E6400       "Sound\0"
                         const [128]: "dashWaveSound"
89DE  01                 const type 3
89DF  EFAAB25A           const [129]: (1521658607)
89E3  04                 const type 4
89E4  09                 string size (9)
89E5  67726F7754696D65+  "growTime"
89ED  00                 "\0"
                         const [130]: "growTime"
89EE  01                 const type 3
89EF  554B0393           const [131]: (-1828500651)
89F3  03                 const type 3
89F4  00000040           const [132]: (0)
89F8  03                 const type 3
89F9  0000A040           const [133]: (0)
89FD  01                 const type 3
89FE  A25264B2           const [134]: (-1302048094)
8A02  04                 const type 4
8A03  16                 string size (22)
8A04  436C6F616B4D656C+  "CloakMel"
8A0C  6565437269745570+  "eeCritUp"
8A14  677261646500       "grade\0"
                         const [135]: "CloakMeleeCritUpgrade"
8A1A  01                 const type 3
8A1B  FAD9EAD4           const [136]: (-722806278)
8A1F  04                 const type 4
8A20  13                 string size (19)
8A21  7374617274446173+  "startDas"
8A29  6846697265536F75+  "hFireSou"
8A31  6E6400             "nd\0"
                         const [137]: "startDashFireSound"
8A34  04                 const type 4
8A35  03                 string size (3)
8A36  5F5400             "_T\0"
                         const [138]: "_T"
8A39  04                 const type 4
8A3A  0E                 string size (14)
8A3B  766F696444617368+  "voidDash"
8A43  436F756E7400       "Count\0"
                         const [139]: "voidDashCount"
8A49  04                 const type 4
8A4A  0B                 string size (11)
8A4B  656E65726779436F+  "energyCo"
8A53  737400             "st\0"
                         const [140]: "energyCost"
8A56  01                 const type 3
8A57  2A71F965           const [141]: (1710846250)
8A5B  01                 const type 3
8A5C  E01ECDEB           const [142]: (-338878752)
8A60  04                 const type 4
8A61  0E                 string size (14)
8A62  4461736853686F63+  "DashShoc"
8A6A  6B7761766500       "kwave\0"
                         const [143]: "DashShockwave"
8A70  04                 const type 4
8A71  0B                 string size (11)
8A72  626C696E64427572+  "blindBur"
8A7A  737400             "st\0"
                         const [144]: "blindBurst"
8A7D  01                 const type 3
8A7E  2B3881E6           const [145]: (-427739093)
8A82  04                 const type 4
8A83  10                 string size (16)
8A84  626C696E64427572+  "blindBur"
8A8C  7374536F756E6400   "stSound\0"
                         const [146]: "blindBurstSound"
8A94  01                 const type 3
8A95  1022A559           const [147]: (1503994384)
8A99  01                 const type 3
8A9A  3F74C2D4           const [148]: (-725453761)
8A9E  01                 const type 3
8A9F  A75515F2           const [149]: (-233482841)
8AA3  04                 const type 4
8AA4  0B                 string size (11)
8AA5  766F696453747269+  "voidStri"
8AAD  6B6500             "ke\0"
                         const [150]: "voidStrike"
8AB0  01                 const type 3
8AB1  B60FEFDB           const [151]: (-605089866)
8AB5  04                 const type 4
8AB6  0C                 string size (12)
8AB7  6E65656473557064+  "needsUpd"
8ABF  61746500           "ate\0"
                         const [152]: "needsUpdate"
8AC3  01                 const type 3
8AC4  00000000           const [153]: (0)
8AC8  04                 const type 4
8AC9  0B                 string size (11)
8ACA  6D756C7469706C69+  "multipli"
8AD2  657200             "er\0"
                         const [154]: "multiplier"
8AD5  04                 const type 4
8AD6  0B                 string size (11)
8AD7  6E756D4174746163+  "numAttac"
8ADF  6B7300             "ks\0"
                         const [155]: "numAttacks"
8AE2  01                 const type 3
8AE3  A30FE54F           const [156]: (1340411811)
8AE7  01                 const type 3
8AE8  C3098F72           const [157]: (1921976771)
8AEC  01                 const type 3
8AED  9CFCD496           const [158]: (-1764426596)
8AF1  01                 const type 3
8AF2  0567E793           const [159]: (-1813551355)
8AF6  04                 const type 4
8AF7  0C                 string size (12)
8AF8  426F6E757344616D+  "BonusDam"
8B00  61676500           "age\0"
                         const [160]: "BonusDamage"
                         * functions:
8B04  00                 sizep (0)
                         * lines:
8B06  09                 sizelineinfo (1196)
                         [pc] (line)
8B07  4B                 [0001] (75)
8B08  04                 [0002] (75)
8B09  00                 [0003] (75)
8B0A  00                 [0004] (77)
8B0B  4B                 [0005] (78)
8B0C  04                 [0006] (79)
8B0D  00                 [0007] (80)
8B0E  00                 [0008] (81)
8B0F  4B                 [0009] (82)
8B10  04                 [0010] (83)
8B11  00                 [0011] (84)
8B12  00                 [0012] (85)
8B13  4D                 [0013] (86)
8B14  04                 [0014] (87)
8B15  00                 [0015] (88)
8B16  00                 [0016] (89)
8B17  4E                 [0017] (90)
8B18  04                 [0018] (91)
8B19  00                 [0019] (93)
8B1A  00                 [0020] (95)
8B1B  4F                 [0021] (95)
8B1C  04                 [0022] (95)
8B1D  00                 [0023] (95)
8B1E  00                 [0024] (96)
8B1F  50                 [0025] (96)
8B20  04                 [0026] (96)
8B21  00                 [0027] (96)
8B22  00                 [0028] (97)
8B23  51                 [0029] (97)
8B24  04                 [0030] (97)
8B25  00                 [0031] (97)
8B26  00                 [0032] (97)
8B27  52                 [0033] (97)
8B28  04                 [0034] (97)
8B29  00                 [0035] (97)
8B2A  00                 [0036] (97)
8B2B  53                 [0037] (98)
8B2C  04                 [0038] (98)
8B2D  00                 [0039] (98)
8B2E  00                 [0040] (98)
8B2F  54                 [0041] (98)
8B30  04                 [0042] (98)
8B31  00                 [0043] (98)
8B32  00                 [0044] (98)
8B33  55                 [0045] (98)
8B34  04                 [0046] (99)
8B35  00                 [0047] (99)
8B36  00                 [0048] (99)
8B37  56                 [0049] (99)
8B38  04                 [0050] (99)
8B39  00                 [0051] (99)
8B3A  00                 [0052] (99)
8B3B  57                 [0053] (99)
8B3C  04                 [0054] (99)
8B3D  00                 [0055] (101)
8B3E  00                 [0056] (101)
8B3F  58                 [0057] (102)
8B40  04                 [0058] (102)
8B41  00                 [0059] (102)
8B42  00                 [0060] (102)
8B43  59                 [0061] (102)
8B44  04                 [0062] (102)
8B45  00                 [0063] (103)
8B46  00                 [0064] (104)
8B47  5A                 [0065] (104)
8B48  04                 [0066] (104)
8B49  00                 [0067] (104)
8B4A  00                 [0068] (105)
8B4B  5B                 [0069] (105)
8B4C  04                 [0070] (105)
8B4D  00                 [0071] (105)
8B4E  00                 [0072] (105)
8B4F  5D                 [0073] (105)
8B50  04                 [0074] (105)
8B51  00                 [0075] (105)
8B52  00                 [0076] (105)
8B53  5F                 [0077] (106)
8B54  04                 [0078] (106)
8B55  00                 [0079] (106)
8B56  00                 [0080] (106)
8B57  5F                 [0081] (106)
8B58  04                 [0082] (106)
8B59  00                 [0083] (106)
8B5A  00                 [0084] (106)
8B5B  5F                 [0085] (106)
8B5C  04                 [0086] (107)
8B5D  00                 [0087] (107)
8B5E  00                 [0088] (107)
8B5F  5F                 [0089] (107)
8B60  04                 [0090] (107)
8B61  00                 [0091] (107)
8B62  00                 [0092] (107)
8B63  60                 [0093] (107)
8B64  04                 [0094] (107)
8B65  00                 [0095] (109)
8B66  00                 [0096] (109)
8B67  60                 [0097] (110)
8B68  04                 [0098] (110)
8B69  00                 [0099] (110)
8B6A  00                 [0100] (110)
8B6B  60                 [0101] (110)
8B6C  04                 [0102] (110)
8B6D  00                 [0103] (112)
8B6E  00                 [0104] (112)
8B6F  60                 [0105] (113)
8B70  04                 [0106] (113)
8B71  00                 [0107] (113)
8B72  00                 [0108] (113)
8B73  61                 [0109] (113)
8B74  04                 [0110] (113)
8B75  00                 [0111] (114)
8B76  00                 [0112] (115)
8B77  61                 [0113] (115)
8B78  04                 [0114] (115)
8B79  00                 [0115] (115)
8B7A  00                 [0116] (116)
8B7B  61                 [0117] (116)
8B7C  04                 [0118] (116)
8B7D  00                 [0119] (116)
8B7E  00                 [0120] (116)
8B7F  61                 [0121] (116)
8B80  04                 [0122] (116)
8B81  00                 [0123] (116)
8B82  00                 [0124] (116)
8B83  61                 [0125] (117)
8B84  04                 [0126] (117)
8B85  00                 [0127] (117)
8B86  00                 [0128] (117)
8B87  61                 [0129] (117)
8B88  04                 [0130] (117)
8B89  00                 [0131] (117)
8B8A  00                 [0132] (117)
8B8B  61                 [0133] (117)
8B8C  04                 [0134] (119)
8B8D  00                 [0135] (119)
8B8E  00                 [0136] (120)
8B8F  61                 [0137] (120)
8B90  04                 [0138] (120)
8B91  00                 [0139] (120)
8B92  00                 [0140] (120)
8B93  61                 [0141] (120)
8B94  04                 [0142] (122)
8B95  00                 [0143] (122)
8B96  00                 [0144] (123)
8B97  62                 [0145] (123)
8B98  04                 [0146] (123)
8B99  00                 [0147] (123)
8B9A  00                 [0148] (123)
8B9B  62                 [0149] (123)
8B9C  04                 [0150] (126)
8B9D  00                 [0151] (126)
8B9E  00                 [0152] (126)
8B9F  62                 [0153] (126)
8BA0  04                 [0154] (126)
8BA1  00                 [0155] (126)
8BA2  00                 [0156] (126)
8BA3  62                 [0157] (126)
8BA4  04                 [0158] (126)
8BA5  00                 [0159] (127)
8BA6  00                 [0160] (127)
8BA7  62                 [0161] (127)
8BA8  04                 [0162] (127)
8BA9  00                 [0163] (127)
8BAA  00                 [0164] (127)
8BAB  62                 [0165] (127)
8BAC  04                 [0166] (127)
8BAD  00                 [0167] (127)
8BAE  00                 [0168] (127)
8BAF  62                 [0169] (-128)
8BB0  04                 [0170] (-128)
8BB1  00                 [0171] (-128)
8BB2  00                 [0172] (-128)
8BB3  62                 [0173] (-127)
8BB4  04                 [0174] (-127)
8BB5  00                 [0175] (-127)
8BB6  00                 [0176] (-127)
8BB7  62                 [0177] (-127)
8BB8  04                 [0178] (-127)
8BB9  00                 [0179] (-127)
8BBA  00                 [0180] (-127)
8BBB  63                 [0181] (-127)
8BBC  04                 [0182] (-126)
8BBD  00                 [0183] (-126)
8BBE  00                 [0184] (-126)
8BBF  63                 [0185] (-126)
8BC0  04                 [0186] (-126)
8BC1  00                 [0187] (-126)
8BC2  00                 [0188] (-126)
8BC3  63                 [0189] (-126)
8BC4  04                 [0190] (-126)
8BC5  00                 [0191] (-125)
8BC6  00                 [0192] (-125)
8BC7  63                 [0193] (-125)
8BC8  04                 [0194] (-125)
8BC9  00                 [0195] (-125)
8BCA  00                 [0196] (-125)
8BCB  63                 [0197] (-125)
8BCC  04                 [0198] (-125)
8BCD  00                 [0199] (-125)
8BCE  00                 [0200] (-123)
8BCF  63                 [0201] (-123)
8BD0  04                 [0202] (-122)
8BD1  00                 [0203] (-122)
8BD2  00                 [0204] (-122)
8BD3  63                 [0205] (-122)
8BD4  04                 [0206] (-122)
8BD5  00                 [0207] (-122)
8BD6  00                 [0208] (-120)
8BD7  63                 [0209] (-120)
8BD8  04                 [0210] (-119)
8BD9  00                 [0211] (-119)
8BDA  00                 [0212] (-119)
8BDB  63                 [0213] (-119)
8BDC  04                 [0214] (-119)
8BDD  00                 [0215] (-119)
8BDE  00                 [0216] (-118)
8BDF  65                 [0217] (-117)
8BE0  04                 [0218] (-117)
8BE1  00                 [0219] (-117)
8BE2  00                 [0220] (-117)
8BE3  65                 [0221] (-116)
8BE4  04                 [0222] (-116)
8BE5  00                 [0223] (-116)
8BE6  00                 [0224] (-116)
8BE7  66                 [0225] (-116)
8BE8  04                 [0226] (-116)
8BE9  00                 [0227] (-116)
8BEA  00                 [0228] (-116)
8BEB  66                 [0229] (-116)
8BEC  04                 [0230] (-115)
8BED  00                 [0231] (-115)
8BEE  00                 [0232] (-115)
8BEF  66                 [0233] (-115)
8BF0  04                 [0234] (-115)
8BF1  00                 [0235] (-115)
8BF2  00                 [0236] (-115)
8BF3  66                 [0237] (-115)
8BF4  04                 [0238] (-115)
8BF5  00                 [0239] (-113)
8BF6  00                 [0240] (-113)
8BF7  66                 [0241] (-112)
8BF8  04                 [0242] (-112)
8BF9  00                 [0243] (-112)
8BFA  00                 [0244] (-112)
8BFB  66                 [0245] (-112)
8BFC  04                 [0246] (-112)
8BFD  00                 [0247] (-110)
8BFE  00                 [0248] (-110)
8BFF  67                 [0249] (-109)
8C00  04                 [0250] (-109)
8C01  00                 [0251] (-109)
8C02  00                 [0252] (-109)
8C03  68                 [0253] (-109)
8C04  04                 [0254] (-109)
8C05  00                 [0255] (-106)
8C06  00                 [0256] (-106)
8C07  68                 [0257] (-106)
8C08  04                 [0258] (-106)
8C09  00                 [0259] (-106)
8C0A  00                 [0260] (-106)
8C0B  68                 [0261] (-106)
8C0C  04                 [0262] (-106)
8C0D  00                 [0263] (-105)
8C0E  00                 [0264] (-105)
8C0F  68                 [0265] (-105)
8C10  04                 [0266] (-105)
8C11  00                 [0267] (-105)
8C12  00                 [0268] (-105)
8C13  69                 [0269] (-105)
8C14  04                 [0270] (-105)
8C15  00                 [0271] (-104)
8C16  00                 [0272] (-104)
8C17  69                 [0273] (-104)
8C18  04                 [0274] (-104)
8C19  00                 [0275] (-104)
8C1A  00                 [0276] (-104)
8C1B  69                 [0277] (-100)
8C1C  04                 [0278] (-100)
8C1D  00                 [0279] (-99)
8C1E  00                 [0280] (-99)
8C1F  69                 [0281] (-97)
8C20  04                 [0282] (-93)
8C21  00                 [0283] (-93)
8C22  00                 [0284] (-92)
8C23  69                 [0285] (-92)
8C24  04                 [0286] (-91)
8C25  00                 [0287] (-91)
8C26  00                 [0288] (-91)
8C27  69                 [0289] (-91)
8C28  04                 [0290] (-91)
8C29  00                 [0291] (-88)
8C2A  00                 [0292] (-88)
8C2B  69                 [0293] (-87)
8C2C  04                 [0294] (-87)
8C2D  00                 [0295] (-87)
8C2E  00                 [0296] (-87)
8C2F  69                 [0297] (-87)
8C30  04                 [0298] (-87)
8C31  00                 [0299] (-87)
8C32  00                 [0300] (-87)
8C33  69                 [0301] (-86)
8C34  04                 [0302] (-86)
8C35  00                 [0303] (-86)
8C36  00                 [0304] (-86)
8C37  6A                 [0305] (-86)
8C38  04                 [0306] (-85)
8C39  00                 [0307] (-85)
8C3A  00                 [0308] (-85)
8C3B  6A                 [0309] (-85)
8C3C  04                 [0310] (-82)
8C3D  00                 [0311] (-82)
8C3E  00                 [0312] (-81)
8C3F  6A                 [0313] (-81)
8C40  04                 [0314] (-81)
8C41  00                 [0315] (-81)
8C42  00                 [0316] (-80)
8C43  6A                 [0317] (-80)
8C44  04                 [0318] (-80)
8C45  00                 [0319] (-80)
8C46  00                 [0320] (-80)
8C47  6A                 [0321] (-76)
8C48  04                 [0322] (-76)
8C49  00                 [0323] (-75)
8C4A  00                 [0324] (-75)
8C4B  6A                 [0325] (-75)
8C4C  04                 [0326] (-75)
8C4D  00                 [0327] (-75)
8C4E  00                 [0328] (-75)
8C4F  6A                 [0329] (-74)
8C50  04                 [0330] (-74)
8C51  00                 [0331] (-74)
8C52  00                 [0332] (-74)
8C53  6A                 [0333] (-74)
8C54  04                 [0334] (-74)
8C55  00                 [0335] (-74)
8C56  00                 [0336] (-74)
8C57  6A                 [0337] (-73)
8C58  04                 [0338] (-73)
8C59  00                 [0339] (-73)
8C5A  00                 [0340] (-69)
8C5B  6B                 [0341] (-69)
8C5C  04                 [0342] (-68)
8C5D  00                 [0343] (-68)
8C5E  00                 [0344] (-67)
8C5F  6B                 [0345] (-67)
8C60  04                 [0346] (-67)
8C61  00                 [0347] (-67)
8C62  00                 [0348] (-67)
8C63  6B                 [0349] (-67)
8C64  04                 [0350] (-67)
8C65  00                 [0351] (-67)
8C66  00                 [0352] (-67)
8C67  6B                 [0353] (-64)
8C68  04                 [0354] (-64)
8C69  00                 [0355] (-64)
8C6A  00                 [0356] (-63)
8C6B  6B                 [0357] (-62)
8C6C  04                 [0358] (-62)
8C6D  00                 [0359] (-62)
8C6E  00                 [0360] (-62)
8C6F  6B                 [0361] (-61)
8C70  04                 [0362] (-61)
8C71  00                 [0363] (-61)
8C72  00                 [0364] (-61)
8C73  6B                 [0365] (-60)
8C74  04                 [0366] (-60)
8C75  00                 [0367] (-60)
8C76  00                 [0368] (-59)
8C77  6B                 [0369] (-59)
8C78  04                 [0370] (-59)
8C79  00                 [0371] (-59)
8C7A  00                 [0372] (-58)
8C7B  6B                 [0373] (-58)
8C7C  04                 [0374] (-58)
8C7D  00                 [0375] (-58)
8C7E  00                 [0376] (-58)
8C7F  6D                 [0377] (-55)
8C80  04                 [0378] (-54)
8C81  00                 [0379] (-54)
8C82  00                 [0380] (-53)
8C83  6D                 [0381] (-53)
8C84  04                 [0382] (-53)
8C85  00                 [0383] (-53)
8C86  00                 [0384] (-53)
8C87  6E                 [0385] (-53)
8C88  04                 [0386] (-53)
8C89  00                 [0387] (-53)
8C8A  00                 [0388] (-53)
8C8B  6E                 [0389] (-53)
8C8C  04                 [0390] (-52)
8C8D  00                 [0391] (-52)
8C8E  00                 [0392] (-52)
8C8F  6E                 [0393] (-52)
8C90  04                 [0394] (-51)
8C91  00                 [0395] (-51)
8C92  00                 [0396] (-51)
8C93  6E                 [0397] (-48)
8C94  04                 [0398] (-47)
8C95  00                 [0399] (-47)
8C96  00                 [0400] (-46)
8C97  6E                 [0401] (-46)
8C98  04                 [0402] (-45)
8C99  00                 [0403] (-45)
8C9A  00                 [0404] (-45)
8C9B  6E                 [0405] (-45)
8C9C  04                 [0406] (-45)
8C9D  00                 [0407] (-45)
8C9E  00                 [0408] (-44)
8C9F  70                 [0409] (-44)
8CA0  04                 [0410] (-44)
8CA1  00                 [0411] (-44)
8CA2  00                 [0412] (-44)
8CA3  70                 [0413] (-44)
8CA4  04                 [0414] (-44)
8CA5  00                 [0415] (-44)
8CA6  00                 [0416] (-43)
8CA7  71                 [0417] (-43)
8CA8  04                 [0418] (-43)
8CA9  00                 [0419] (-41)
8CAA  00                 [0420] (-41)
8CAB  71                 [0421] (-41)
8CAC  04                 [0422] (-40)
8CAD  00                 [0423] (-39)
8CAE  00                 [0424] (-39)
8CAF  71                 [0425] (-39)
8CB0  04                 [0426] (-39)
8CB1  00                 [0427] (-38)
8CB2  00                 [0428] (-38)
8CB3  71                 [0429] (-38)
8CB4  04                 [0430] (-38)
8CB5  00                 [0431] (-38)
8CB6  00                 [0432] (-38)
8CB7  71                 [0433] (-38)
8CB8  04                 [0434] (-38)
8CB9  00                 [0435] (-38)
8CBA  00                 [0436] (-38)
8CBB  71                 [0437] (-37)
8CBC  04                 [0438] (-37)
8CBD  00                 [0439] (-37)
8CBE  00                 [0440] (-36)
8CBF  72                 [0441] (-36)
8CC0  04                 [0442] (-36)
8CC1  00                 [0443] (-36)
8CC2  00                 [0444] (-35)
8CC3  73                 [0445] (-35)
8CC4  04                 [0446] (-35)
8CC5  00                 [0447] (-35)
8CC6  00                 [0448] (-35)
8CC7  73                 [0449] (-31)
8CC8  04                 [0450] (-31)
8CC9  00                 [0451] (-31)
8CCA  00                 [0452] (-29)
8CCB  73                 [0453] (-29)
8CCC  04                 [0454] (-29)
8CCD  00                 [0455] (-29)
8CCE  00                 [0456] (-28)
8CCF  73                 [0457] (-28)
8CD0  04                 [0458] (-28)
8CD1  00                 [0459] (-28)
8CD2  00                 [0460] (-28)
8CD3  74                 [0461] (-28)
8CD4  04                 [0462] (-25)
8CD5  00                 [0463] (-25)
8CD6  00                 [0464] (-25)
8CD7  74                 [0465] (-25)
8CD8  04                 [0466] (-25)
8CD9  00                 [0467] (-25)
8CDA  00                 [0468] (-24)
8CDB  74                 [0469] (-24)
8CDC  04                 [0470] (-24)
8CDD  00                 [0471] (-24)
8CDE  00                 [0472] (-24)
8CDF  74                 [0473] (-24)
8CE0  04                 [0474] (-24)
8CE1  00                 [0475] (-24)
8CE2  00                 [0476] (-22)
8CE3  74                 [0477] (-20)
8CE4  04                 [0478] (-20)
8CE5  00                 [0479] (-20)
8CE6  00                 [0480] (-20)
8CE7  74                 [0481] (-19)
8CE8  04                 [0482] (-19)
8CE9  00                 [0483] (-19)
8CEA  00                 [0484] (-19)
8CEB  74                 [0485] (-19)
8CEC  04                 [0486] (-18)
8CED  00                 [0487] (-15)
8CEE  00                 [0488] (-15)
8CEF  74                 [0489] (-15)
8CF0  04                 [0490] (-15)
8CF1  00                 [0491] (-11)
8CF2  00                 [0492] (-11)
8CF3  74                 [0493] (-11)
8CF4  04                 [0494] (-11)
8CF5  00                 [0495] (-11)
8CF6  00                 [0496] (-10)
8CF7  75                 [0497] (-10)
8CF8  04                 [0498] (-10)
8CF9  00                 [0499] (-10)
8CFA  00                 [0500] (-10)
8CFB  75                 [0501] (-9)
8CFC  04                 [0502] (-9)
8CFD  00                 [0503] (-9)
8CFE  00                 [0504] (-9)
8CFF  75                 [0505] (-6)
8D00  04                 [0506] (-6)
8D01  00                 [0507] (-5)
8D02  00                 [0508] (-5)
8D03  75                 [0509] (-4)
8D04  04                 [0510] (-4)
8D05  00                 [0511] (-4)
8D06  00                 [0512] (-4)
8D07  75                 [0513] (-3)
8D08  04                 [0514] (-2)
8D09  00                 [0515] (-2)
8D0A  00                 [0516] (-2)
8D0B  75                 [0517] (-2)
8D0C  04                 [0518] (-2)
8D0D  00                 [0519] (-1)
8D0E  00                 [0520] (-1)
8D0F  75                 [0521] (-1)
8D10  04                 [0522] (-1)
8D11  00                 [0523] (-1)
8D12  00                 [0524] (-1)
8D13  75                 [0525] (0)
8D14  04                 [0526] (0)
8D15  00                 [0527] (0)
8D16  00                 [0528] (0)
8D17  75                 [0529] (0)
8D18  04                 [0530] (0)
8D19  00                 [0531] (2)
8D1A  00                 [0532] (4)
8D1B  77                 [0533] (4)
8D1C  04                 [0534] (4)
8D1D  00                 [0535] (4)
8D1E  00                 [0536] (4)
8D1F  77                 [0537] (4)
8D20  04                 [0538] (5)
8D21  00                 [0539] (5)
8D22  00                 [0540] (5)
8D23  78                 [0541] (5)
8D24  04                 [0542] (5)
8D25  00                 [0543] (5)
8D26  00                 [0544] (5)
8D27  78                 [0545] (5)
8D28  04                 [0546] (7)
8D29  00                 [0547] (7)
8D2A  00                 [0548] (7)
8D2B  78                 [0549] (7)
8D2C  04                 [0550] (7)
8D2D  00                 [0551] (7)
8D2E  00                 [0552] (8)
8D2F  78                 [0553] (8)
8D30  04                 [0554] (8)
8D31  00                 [0555] (8)
8D32  00                 [0556] (8)
8D33  78                 [0557] (8)
8D34  04                 [0558] (8)
8D35  00                 [0559] (11)
8D36  00                 [0560] (11)
8D37  78                 [0561] (12)
8D38  04                 [0562] (12)
8D39  00                 [0563] (12)
8D3A  00                 [0564] (12)
8D3B  7A                 [0565] (15)
8D3C  04                 [0566] (15)
8D3D  00                 [0567] (15)
8D3E  00                 [0568] (15)
8D3F  7A                 [0569] (16)
8D40  04                 [0570] (16)
8D41  00                 [0571] (16)
8D42  00                 [0572] (16)
8D43  7B                 [0573] (17)
8D44  04                 [0574] (20)
8D45  00                 [0575] (20)
8D46  00                 [0576] (20)
8D47  7B                 [0577] (24)
8D48  04                 [0578] (24)
8D49  00                 [0579] (24)
8D4A  00                 [0580] (24)
8D4B  7B                 [0581] (24)
8D4C  04                 [0582] (25)
8D4D  00                 [0583] (25)
8D4E  00                 [0584] (25)
8D4F  7B                 [0585] (26)
8D50  04                 [0586] (26)
8D51  00                 [0587] (27)
8D52  00                 [0588] (27)
8D53  7B                 [0589] (27)
8D54  04                 [0590] (27)
8D55  00                 [0591] (27)
8D56  00                 [0592] (28)
8D57  7B                 [0593] (28)
8D58  04                 [0594] (28)
8D59  00                 [0595] (29)
8D5A  00                 [0596] (29)
8D5B  7E                 [0597] (29)
8D5C  04                 [0598] (32)
8D5D  00                 [0599] (32)
8D5E  00                 [0600] (32)
8D5F  7E                 [0601] (32)
8D60  04                 [0602] (33)
8D61  00                 [0603] (33)
8D62  00                 [0604] (36)
8D63  7E                 [0605] (36)
8D64  04                 [0606] (37)
8D65  00                 [0607] (38)
8D66  00                 [0608] (39)
8D67  7E                 [0609] (39)
8D68  04                 [0610] (39)
8D69  00                 [0611] (40)
8D6A  00                 [0612] (40)
8D6B  7E                 [0613] (40)
8D6C  04                 [0614] (42)
8D6D  00                 [0615] (45)
8D6E  00                 [0616] (45)
8D6F  7E                 [0617] (45)
8D70  04                 [0618] (45)
8D71  00                 [0619] (45)
8D72  00                 [0620] (45)
8D73  7E                 [0621] (45)
8D74  04                 [0622] (45)
8D75  00                 [0623] (45)
8D76  00                 [0624] (45)
8D77  7E                 [0625] (45)
8D78  04                 [0626] (45)
8D79  00                 [0627] (45)
8D7A  00                 [0628] (46)
8D7B  7E                 [0629] (46)
8D7C  04                 [0630] (46)
8D7D  00                 [0631] (46)
8D7E  00                 [0632] (47)
8D7F  7F                 [0633] (47)
8D80  04                 [0634] (49)
8D81  00                 [0635] (49)
8D82  00                 [0636] (49)
8D83  7F                 [0637] (49)
8D84  04                 [0638] (49)
8D85  00                 [0639] (49)
8D86  00                 [0640] (50)
8D87  7F                 [0641] (50)
8D88  04                 [0642] (50)
8D89  00                 [0643] (50)
8D8A  00                 [0644] (50)
8D8B  7F                 [0645] (50)
8D8C  04                 [0646] (50)
8D8D  00                 [0647] (50)
8D8E  00                 [0648] (50)
8D8F  7F                 [0649] (50)
8D90  04                 [0650] (50)
8D91  00                 [0651] (51)
8D92  00                 [0652] (51)
8D93  7F                 [0653] (51)
8D94  04                 [0654] (52)
8D95  00                 [0655] (52)
8D96  00                 [0656] (54)
8D97  7F                 [0657] (54)
8D98  04                 [0658] (54)
8D99  00                 [0659] (54)
8D9A  00                 [0660] (54)
8D9B  7F                 [0661] (54)
8D9C  04                 [0662] (54)
8D9D  00                 [0663] (54)
8D9E  00                 [0664] (55)
8D9F  7F                 [0665] (55)
8DA0  04                 [0666] (55)
8DA1  00                 [0667] (55)
8DA2  00                 [0668] (55)
8DA3  7F                 [0669] (56)
8DA4  04                 [0670] (56)
8DA5  00                 [0671] (56)
8DA6  00                 [0672] (57)
8DA7  80                 [0673] (57)
8DA8  04                 [0674] (57)
8DA9  00                 [0675] (57)
8DAA  00                 [0676] (57)
8DAB  80                 [0677] (58)
8DAC  04                 [0678] (58)
8DAD  00                 [0679] (58)
8DAE  00                 [0680] (58)
8DAF  80                 [0681] (61)
8DB0  04                 [0682] (61)
8DB1  00                 [0683] (61)
8DB2  00                 [0684] (64)
8DB3  80                 [0685] (64)
8DB4  04                 [0686] (65)
8DB5  00                 [0687] (65)
8DB6  00                 [0688] (65)
8DB7  81                 [0689] (65)
8DB8  04                 [0690] (65)
8DB9  00                 [0691] (66)
8DBA  00                 [0692] (66)
8DBB  81                 [0693] (66)
8DBC  04                 [0694] (66)
8DBD  00                 [0695] (67)
8DBE  00                 [0696] (67)
8DBF  81                 [0697] (67)
8DC0  04                 [0698] (67)
8DC1  00                 [0699] (68)
8DC2  00                 [0700] (70)
8DC3  81                 [0701] (70)
8DC4  04                 [0702] (74)
8DC5  00                 [0703] (74)
8DC6  00                 [0704] (75)
8DC7  81                 [0705] (75)
8DC8  04                 [0706] (75)
8DC9  00                 [0707] (75)
8DCA  00                 [0708] (76)
8DCB  81                 [0709] (76)
8DCC  04                 [0710] (76)
8DCD  00                 [0711] (76)
8DCE  00                 [0712] (76)
8DCF  81                 [0713] (77)
8DD0  04                 [0714] (77)
8DD1  00                 [0715] (77)
8DD2  00                 [0716] (77)
8DD3  81                 [0717] (77)
8DD4  04                 [0718] (77)
8DD5  00                 [0719] (77)
8DD6  00                 [0720] (77)
8DD7  81                 [0721] (77)
8DD8  04                 [0722] (77)
8DD9  00                 [0723] (77)
8DDA  00                 [0724] (77)
8DDB  82                 [0725] (78)
8DDC  04                 [0726] (78)
8DDD  00                 [0727] (78)
8DDE  00                 [0728] (78)
8DDF  82                 [0729] (78)
8DE0  04                 [0730] (78)
8DE1  00                 [0731] (79)
8DE2  00                 [0732] (81)
8DE3  82                 [0733] (81)
8DE4  04                 [0734] (81)
8DE5  00                 [0735] (81)
8DE6  00                 [0736] (81)
8DE7  82                 [0737] (82)
8DE8  04                 [0738] (82)
8DE9  00                 [0739] (83)
8DEA  00                 [0740] (88)
8DEB  82                 [0741] (88)
8DEC  04                 [0742] (88)
8DED  00                 [0743] (88)
8DEE  00                 [0744] (88)
8DEF  82                 [0745] (88)
8DF0  04                 [0746] (88)
8DF1  00                 [0747] (88)
8DF2  00                 [0748] (88)
8DF3  82                 [0749] (88)
8DF4  04                 [0750] (88)
8DF5  00                 [0751] (89)
8DF6  00                 [0752] (89)
8DF7  82                 [0753] (89)
8DF8  04                 [0754] (89)
8DF9  00                 [0755] (89)
8DFA  00                 [0756] (89)
8DFB  82                 [0757] (89)
8DFC  04                 [0758] (89)
8DFD  00                 [0759] (89)
8DFE  00                 [0760] (89)
8DFF  83                 [0761] (89)
8E00  04                 [0762] (89)
8E01  00                 [0763] (89)
8E02  00                 [0764] (92)
8E03  83                 [0765] (92)
8E04  04                 [0766] (92)
8E05  00                 [0767] (92)
8E06  00                 [0768] (92)
8E07  83                 [0769] (93)
8E08  04                 [0770] (93)
8E09  00                 [0771] (96)
8E0A  00                 [0772] (96)
8E0B  83                 [0773] (96)
8E0C  04                 [0774] (96)
8E0D  00                 [0775] (96)
8E0E  00                 [0776] (96)
8E0F  83                 [0777] (97)
8E10  04                 [0778] (97)
8E11  00                 [0779] (97)
8E12  00                 [0780] (97)
8E13  83                 [0781] (97)
8E14  04                 [0782] (97)
8E15  00                 [0783] (100)
8E16  00                 [0784] (100)
8E17  83                 [0785] (100)
8E18  04                 [0786] (100)
8E19  00                 [0787] (100)
8E1A  00                 [0788] (101)
8E1B  83                 [0789] (101)
8E1C  04                 [0790] (104)
8E1D  00                 [0791] (104)
8E1E  00                 [0792] (104)
8E1F  83                 [0793] (104)
8E20  04                 [0794] (105)
8E21  00                 [0795] (105)
8E22  00                 [0796] (106)
8E23  85                 [0797] (106)
8E24  04                 [0798] (106)
8E25  00                 [0799] (106)
8E26  00                 [0800] (106)
8E27  85                 [0801] (106)
8E28  04                 [0802] (106)
8E29  00                 [0803] (107)
8E2A  00                 [0804] (107)
8E2B  86                 [0805] (107)
8E2C  04                 [0806] (107)
8E2D  00                 [0807] (110)
8E2E  00                 [0808] (110)
8E2F  86                 [0809] (111)
8E30  04                 [0810] (111)
8E31  00                 [0811] (111)
8E32  00                 [0812] (111)
8E33  86                 [0813] (111)
8E34  04                 [0814] (111)
8E35  00                 [0815] (114)
8E36  00                 [0816] (114)
8E37  86                 [0817] (114)
8E38  04                 [0818] (114)
8E39  00                 [0819] (115)
8E3A  00                 [0820] (115)
8E3B  86                 [0821] (115)
8E3C  04                 [0822] (115)
8E3D  00                 [0823] (115)
8E3E  00                 [0824] (115)
8E3F  86                 [0825] (116)
8E40  04                 [0826] (116)
8E41  00                 [0827] (116)
8E42  00                 [0828] (118)
8E43  88                 [0829] (118)
8E44  04                 [0830] (118)
8E45  00                 [0831] (118)
8E46  00                 [0832] (118)
8E47  88                 [0833] (122)
8E48  04                 [0834] (123)
8E49  00                 [0835] (125)
8E4A  00                 [0836] (125)
8E4B  89                 [0837] (126)
8E4C  04                 [0838] (126)
8E4D  00                 [0839] (126)
8E4E  00                 [0840] (126)
8E4F  89                 [0841] (126)
8E50  04                 [0842] (126)
8E51  00                 [0843] (126)
8E52  00                 [0844] (127)
8E53  89                 [0845] (127)
8E54  04                 [0846] (127)
8E55  00                 [0847] (127)
8E56  00                 [0848] (-126)
8E57  89                 [0849] (-126)
8E58  04                 [0850] (-125)
8E59  00                 [0851] (-125)
8E5A  00                 [0852] (-125)
8E5B  89                 [0853] (-125)
8E5C  04                 [0854] (-122)
8E5D  00                 [0855] (-122)
8E5E  00                 [0856] (-121)
8E5F  89                 [0857] (-121)
8E60  04                 [0858] (-121)
8E61  00                 [0859] (-121)
8E62  00                 [0860] (-121)
8E63  8A                 [0861] (-121)
8E64  04                 [0862] (-121)
8E65  00                 [0863] (-121)
8E66  00                 [0864] (-121)
8E67  8B                 [0865] (-121)
8E68  04                 [0866] (-120)
8E69  00                 [0867] (-120)
8E6A  00                 [0868] (-120)
8E6B  8B                 [0869] (-120)
8E6C  04                 [0870] (-119)
8E6D  00                 [0871] (-119)
8E6E  00                 [0872] (-119)
8E6F  8B                 [0873] (-118)
8E70  04                 [0874] (-118)
8E71  00                 [0875] (-117)
8E72  00                 [0876] (-117)
8E73  8B                 [0877] (-117)
8E74  04                 [0878] (-112)
8E75  00                 [0879] (-112)
8E76  00                 [0880] (-112)
8E77  8C                 [0881] (-112)
8E78  04                 [0882] (-111)
8E79  00                 [0883] (-111)
8E7A  00                 [0884] (-111)
8E7B  8C                 [0885] (-111)
8E7C  04                 [0886] (-111)
8E7D  00                 [0887] (-111)
8E7E  00                 [0888] (-108)
8E7F  8C                 [0889] (-104)
8E80  04                 [0890] (-104)
8E81  00                 [0891] (-104)
8E82  00                 [0892] (-102)
8E83  8C                 [0893] (-102)
8E84  04                 [0894] (-102)
8E85  00                 [0895] (-102)
8E86  00                 [0896] (-98)
8E87  8C                 [0897] (-98)
8E88  04                 [0898] (-98)
8E89  00                 [0899] (-98)
8E8A  00                 [0900] (-98)
8E8B  8C                 [0901] (-97)
8E8C  04                 [0902] (-97)
8E8D  00                 [0903] (-97)
8E8E  00                 [0904] (-97)
8E8F  8C                 [0905] (-97)
8E90  04                 [0906] (-96)
8E91  00                 [0907] (-96)
8E92  00                 [0908] (-96)
8E93  8C                 [0909] (-96)
8E94  04                 [0910] (-92)
8E95  00                 [0911] (-92)
8E96  00                 [0912] (-92)
8E97  8C                 [0913] (-92)
8E98  04                 [0914] (-92)
8E99  00                 [0915] (-92)
8E9A  00                 [0916] (-91)
8E9B  8D                 [0917] (-91)
8E9C  04                 [0918] (-91)
8E9D  00                 [0919] (-91)
8E9E  00                 [0920] (-90)
8E9F  8D                 [0921] (-90)
8EA0  04                 [0922] (-87)
8EA1  00                 [0923] (-87)
8EA2  00                 [0924] (-87)
8EA3  8D                 [0925] (-87)
8EA4  04                 [0926] (-87)
8EA5  00                 [0927] (-87)
8EA6  00                 [0928] (-87)
8EA7  8D                 [0929] (-86)
8EA8  04                 [0930] (-86)
8EA9  00                 [0931] (-85)
8EAA  00                 [0932] (-82)
8EAB  8D                 [0933] (-82)
8EAC  04                 [0934] (-81)
8EAD  00                 [0935] (-81)
8EAE  00                 [0936] (-81)
8EAF  8D                 [0937] (-80)
8EB0  04                 [0938] (-80)
8EB1  00                 [0939] (-80)
8EB2  00                 [0940] (-80)
8EB3  8D                 [0941] (-79)
8EB4  04                 [0942] (-79)
8EB5  00                 [0943] (-79)
8EB6  00                 [0944] (-79)
8EB7  8D                 [0945] (-79)
8EB8  04                 [0946] (-79)
8EB9  00                 [0947] (-79)
8EBA  00                 [0948] (-79)
8EBB  8D                 [0949] (-78)
8EBC  04                 [0950] (-78)
8EBD  00                 [0951] (-78)
8EBE  00                 [0952] (-78)
8EBF  8F                 [0953] (-78)
8EC0  04                 [0954] (-78)
8EC1  00                 [0955] (-76)
8EC2  00                 [0956] (-76)
8EC3  8F                 [0957] (-75)
8EC4  04                 [0958] (-75)
8EC5  00                 [0959] (-75)
8EC6  00                 [0960] (-74)
8EC7  90                 [0961] (-74)
8EC8  04                 [0962] (-74)
8EC9  00                 [0963] (-74)
8ECA  00                 [0964] (-69)
8ECB  90                 [0965] (-69)
8ECC  04                 [0966] (-68)
8ECD  00                 [0967] (-68)
8ECE  00                 [0968] (-68)
8ECF  90                 [0969] (-68)
8ED0  04                 [0970] (-68)
8ED1  00                 [0971] (-67)
8ED2  00                 [0972] (-67)
8ED3  90                 [0973] (-64)
8ED4  04                 [0974] (-64)
8ED5  00                 [0975] (-64)
8ED6  00                 [0976] (-64)
8ED7  90                 [0977] (-64)
8ED8  04                 [0978] (-63)
8ED9  00                 [0979] (-63)
8EDA  00                 [0980] (-60)
8EDB  90                 [0981] (-60)
8EDC  04                 [0982] (-60)
8EDD  00                 [0983] (-60)
8EDE  00                 [0984] (-60)
8EDF  92                 [0985] (-59)
8EE0  04                 [0986] (-59)
8EE1  00                 [0987] (-59)
8EE2  00                 [0988] (-59)
8EE3  92                 [0989] (-55)
8EE4  04                 [0990] (-55)
8EE5  00                 [0991] (-54)
8EE6  00                 [0992] (-54)
8EE7  93                 [0993] (-54)
8EE8  04                 [0994] (-54)
8EE9  00                 [0995] (-54)
8EEA  00                 [0996] (-54)
8EEB  93                 [0997] (-53)
8EEC  04                 [0998] (-53)
8EED  00                 [0999] (-53)
8EEE  00                 [1000] (-50)
8EEF  93                 [1001] (-50)
8EF0  04                 [1002] (-49)
8EF1  00                 [1003] (-48)
8EF2  00                 [1004] (-48)
8EF3  93                 [1005] (-48)
8EF4  04                 [1006] (-48)
8EF5  00                 [1007] (-48)
8EF6  00                 [1008] (-48)
8EF7  93                 [1009] (-48)
8EF8  04                 [1010] (-47)
8EF9  00                 [1011] (-46)
8EFA  00                 [1012] (-46)
8EFB  93                 [1013] (-46)
8EFC  04                 [1014] (-46)
8EFD  00                 [1015] (-46)
8EFE  00                 [1016] (-46)
8EFF  96                 [1017] (-46)
8F00  04                 [1018] (-46)
8F01  00                 [1019] (-46)
8F02  00                 [1020] (-46)
8F03  96                 [1021] (-46)
8F04  04                 [1022] (-44)
8F05  00                 [1023] (-44)
8F06  00                 [1024] (-44)
8F07  96                 [1025] (-44)
8F08  04                 [1026] (-41)
8F09  00                 [1027] (-41)
8F0A  00                 [1028] (-41)
8F0B  96                 [1029] (-41)
8F0C  04                 [1030] (-41)
8F0D  00                 [1031] (-41)
8F0E  00                 [1032] (-40)
8F0F  96                 [1033] (-40)
8F10  04                 [1034] (-40)
8F11  00                 [1035] (-40)
8F12  00                 [1036] (-40)
8F13  96                 [1037] (-40)
8F14  04                 [1038] (-37)
8F15  00                 [1039] (-37)
8F16  00                 [1040] (-36)
8F17  96                 [1041] (-36)
8F18  04                 [1042] (-36)
8F19  00                 [1043] (-36)
8F1A  00                 [1044] (-35)
8F1B  96                 [1045] (-34)
8F1C  04                 [1046] (-34)
8F1D  00                 [1047] (-34)
8F1E  00                 [1048] (-33)
8F1F  97                 [1049] (-33)
8F20  04                 [1050] (-33)
8F21  00                 [1051] (-33)
8F22  00                 [1052] (-31)
8F23  97                 [1053] (-31)
8F24  04                 [1054] (-30)
8F25  00                 [1055] (-30)
8F26  00                 [1056] (-30)
8F27  97                 [1057] (-30)
8F28  04                 [1058] (-30)
8F29  00                 [1059] (-29)
8F2A  00                 [1060] (-29)
8F2B  97                 [1061] (-28)
8F2C  04                 [1062] (-28)
8F2D  00                 [1063] (-28)
8F2E  00                 [1064] (-28)
8F2F  97                 [1065] (-28)
8F30  04                 [1066] (-28)
8F31  00                 [1067] (-28)
8F32  00                 [1068] (-27)
8F33  97                 [1069] (-27)
8F34  04                 [1070] (-27)
8F35  00                 [1071] (-26)
8F36  00                 [1072] (-26)
8F37  97                 [1073] (-26)
8F38  04                 [1074] (-22)
8F39  00                 [1075] (-22)
8F3A  00                 [1076] (-22)
8F3B  97                 [1077] (-22)
8F3C  04                 [1078] (-22)
8F3D  00                 [1079] (-22)
8F3E  00                 [1080] (-22)
8F3F  98                 [1081] (-22)
8F40  04                 [1082] (-21)
8F41  00                 [1083] (-21)
8F42  00                 [1084] (-21)
8F43  98                 [1085] (-21)
8F44  04                 [1086] (-21)
8F45  00                 [1087] (-21)
8F46  00                 [1088] (-17)
8F47  98                 [1089] (-17)
8F48  04                 [1090] (-16)
8F49  00                 [1091] (-16)
8F4A  00                 [1092] (-15)
8F4B  98                 [1093] (-15)
8F4C  04                 [1094] (-15)
8F4D  00                 [1095] (-15)
8F4E  00                 [1096] (-15)
8F4F  98                 [1097] (-15)
8F50  04                 [1098] (-15)
8F51  00                 [1099] (-15)
8F52  00                 [1100] (-15)
8F53  98                 [1101] (-12)
8F54  04                 [1102] (-12)
8F55  00                 [1103] (-12)
8F56  00                 [1104] (-11)
8F57  9C                 [1105] (-10)
8F58  04                 [1106] (-10)
8F59  00                 [1107] (-10)
8F5A  00                 [1108] (-10)
8F5B  9C                 [1109] (-9)
8F5C  04                 [1110] (-9)
8F5D  00                 [1111] (-9)
8F5E  00                 [1112] (-9)
8F5F  9D                 [1113] (-8)
8F60  04                 [1114] (-8)
8F61  00                 [1115] (-8)
8F62  00                 [1116] (-8)
8F63  9D                 [1117] (-8)
8F64  04                 [1118] (-5)
8F65  00                 [1119] (-5)
8F66  00                 [1120] (-5)
8F67  9F                 [1121] (-5)
8F68  04                 [1122] (-5)
8F69  00                 [1123] (-4)
8F6A  00                 [1124] (-4)
8F6B  A3                 [1125] (-1)
8F6C  04                 [1126] (-1)
8F6D  00                 [1127] (0)
8F6E  00                 [1128] (0)
8F6F  A3                 [1129] (0)
8F70  04                 [1130] (0)
8F71  00                 [1131] (0)
8F72  00                 [1132] (1)
8F73  A4                 [1133] (1)
8F74  04                 [1134] (1)
8F75  00                 [1135] (1)
8F76  00                 [1136] (4)
8F77  A4                 [1137] (4)
8F78  04                 [1138] (4)
8F79  00                 [1139] (5)
8F7A  00                 [1140] (6)
8F7B  A5                 [1141] (6)
8F7C  04                 [1142] (6)
8F7D  00                 [1143] (6)
8F7E  00                 [1144] (7)
8F7F  A5                 [1145] (7)
8F80  04                 [1146] (7)
8F81  00                 [1147] (7)
8F82  00                 [1148] (8)
8F83  A5                 [1149] (8)
8F84  04                 [1150] (8)
8F85  00                 [1151] (8)
8F86  00                 [1152] (8)
8F87  A5                 [1153] (11)
8F88  04                 [1154] (11)
8F89  00                 [1155] (11)
8F8A  00                 [1156] (11)
8F8B  A5                 [1157] (11)
8F8C  04                 [1158] (12)
8F8D  00                 [1159] (12)
8F8E  00                 [1160] (15)
8F8F  A8                 [1161] (15)
8F90  04                 [1162] (16)
8F91  00                 [1163] (16)
8F92  00                 [1164] (16)
8F93  A8                 [1165] (16)
8F94  04                 [1166] (16)
8F95  00                 [1167] (16)
8F96  00                 [1168] (16)
8F97  A9                 [1169] (17)
8F98  04                 [1170] (17)
8F99  00                 [1171] (17)
8F9A  00                 [1172] (17)
8F9B  A9                 [1173] (20)
8F9C  04                 [1174] (20)
8F9D  00                 [1175] (21)
8F9E  00                 [1176] (21)
8F9F  A9                 [1177] (21)
8FA0  04                 [1178] (21)
8FA1  00                 [1179] (24)
8FA2  00                 [1180] (24)
8FA3  A9                 [1181] (24)
8FA4  04                 [1182] (24)
8FA5  00                 [1183] (25)
8FA6  00                 [1184] (25)
8FA7  A9                 [1185] (25)
8FA8  04                 [1186] (28)
8FA9  00                 [1187] (28)
8FAA  00                 [1188] (28)
8FAB  A9                 [1189] (28)
8FAC  04                 [1190] (29)
8FAD  00                 [1191] (29)
8FAE  00                 [1192] (29)
8FAF  A9                 [1193] (29)
8FB0  04                 [1194] (29)
8FB1  00                 [1195] (29)
8FB2  00                 [1196] (32)
                         * locals:
9DB7  00                 sizelocvars (0)
                         * upvalues:
9DB8  00                 sizeupvalues (0)
                         ** end of function **

                         
9DB9                     ** function [20] definition (level 2)
                         ** start of function **
9DB9  00                 string size (0)
                         source name: (none)
9DBB  0C                 line defined (1570)
9DBC  AA                 last line defined (1578)
9DBD  0C                 nups (0)
9DBE  00                 numparams (5)
9DBF  05                 is_vararg (0)
9DC0  00                 maxstacksize (11)
                         * code:
9DC2  1F                 sizecode (31)
9DC3  5D010000           [01] getglobal  5   0        ; Lotus_Game
9DC7  4E41C002           [02] gettable   5   5   257  ; -84065502
9DCB  62818000           [03] call       5   1   2  
9DCF  4C010081           [04] settable   5   258 0    ; "instigator"
9DD3  8B018000           [05] newtable   6   1   0    ; array=1, hash=0
9DD7  D2018000           [06] move       7   1      
9DDB  9B418000           [07] setlist    6   1   1    ; index 1 to 1
9DDF  4C818181           [08] settable   5   259 6    ; "affected"
9DE3  9D410100           [09] getglobal  6   5        ; math
9DE7  8E814103           [10] gettable   6   6   262  ; -150971781
9DEB  E4C14102           [11] self       7   4   263  ; 955459000
9DEF  59020200           [12] loadk      9   8        ; 0
9DF3  E2818001           [13] call       7   3   2  
9DF7  E441C203           [14] self       7   7   265  ; -1378524997
9DFB  E2810001           [15] call       7   2   2  
9DFF  C481C203           [16] mul        7   7   266  ; 0
9E03  A2810001           [17] call       6   2   2  
9E07  4C810182           [18] settable   5   260 6    ; "buffData"
9E0B  9D010000           [19] getglobal  6   0        ; Lotus_Game
9E0F  8E014303           [20] gettable   6   6   268  ; "BT_PERCENT"
9E13  4C818185           [21] settable   5   267 6    ; "buffType"
9E17  9D810300           [22] getglobal  6   14       ; 738251817
9E1B  D9C10300           [23] loadk      7   15       ; "/Lotus/Upgrades/Focus/Ward/Active/CloakReduceDamageFocusUpgrade"
9E1F  A2810001           [24] call       6   2   2  
9E23  4C818186           [25] settable   5   269 6    ; "abilityType"
9E27  A401C400           [26] self       6   1   272  ; 1481577430
9E2B  12028002           [27] move       8   5      
9E2F  57028000           [28] loadbool   9   1   0    ; true
9E33  97020000           [29] loadbool   10  0   0    ; false
9E37  A2418002           [30] call       6   5   1  
9E3B  1E008000           [31] return     0   1      
                         * constants:
9E3F  11                 sizek (17)
9E40  04                 const type 4
9E41  0B                 string size (11)
9E42  4C6F7475735F4761+  "Lotus_Ga"
9E4A  6D6500             "me\0"
                         const [0]: "Lotus_Game"
9E4D  01                 const type 3
9E4E  2243FDFA           const [1]: (-84065502)
9E52  04                 const type 4
9E53  0B                 string size (11)
9E54  696E737469676174+  "instigat"
9E5C  6F7200             "or\0"
                         const [2]: "instigator"
9E5F  04                 const type 4
9E60  09                 string size (9)
9E61  6166666563746564+  "affected"
9E69  00                 "\0"
                         const [3]: "affected"
9E6A  04                 const type 4
9E6B  09                 string size (9)
9E6C  6275666644617461+  "buffData"
9E74  00                 "\0"
                         const [4]: "buffData"
9E75  04                 const type 4
9E76  05                 string size (5)
9E77  6D61746800         "math\0"
                         const [5]: "math"
9E7C  01                 const type 3
9E7D  7B5A00F7           const [6]: (-150971781)
9E81  01                 const type 3
9E82  B825F338           const [7]: (955459000)
9E86  03                 const type 3
9E87  00000000           const [8]: (0)
9E8B  01                 const type 3
9E8C  BB60D5AD           const [9]: (-1378524997)
9E90  03                 const type 3
9E91  0000C842           const [10]: (0)
9E95  04                 const type 4
9E96  09                 string size (9)
9E97  6275666654797065+  "buffType"
9E9F  00                 "\0"
                         const [11]: "buffType"
9EA0  04                 const type 4
9EA1  0B                 string size (11)
9EA2  42545F5045524345+  "BT_PERCE"
9EAA  4E5400             "NT\0"
                         const [12]: "BT_PERCENT"
9EAD  04                 const type 4
9EAE  0C                 string size (12)
9EAF  6162696C69747954+  "abilityT"
9EB7  79706500           "ype\0"
                         const [13]: "abilityType"
9EBB  01                 const type 3
9EBC  29D4002C           const [14]: (738251817)
9EC0  04                 const type 4
9EC1  40                 string size (64)
9EC2  2F4C6F7475732F55+  "/Lotus/U"
9ECA  706772616465732F+  "pgrades/"
9ED2  466F6375732F5761+  "Focus/Wa"
9EDA  72642F4163746976+  "rd/Activ"
9EE2  652F436C6F616B52+  "e/CloakR"
9EEA  656475636544616D+  "educeDam"
9EF2  616765466F637573+  "ageFocus"
9EFA  5570677261646500   "Upgrade\0"
                         const [15]: "/Lotus/Upgrades/Focus/Ward/Active/CloakReduceDamageFocusUpgrade"
9F02  01                 const type 3
9F03  D6134F58           const [16]: (1481577430)
                         * functions:
9F07  00                 sizep (0)
                         * lines:
9F08  1F                 sizelineinfo (31)
                         [pc] (line)
9F09  23                 [01] (35)
9F0A  06                 [02] (35)
9F0B  00                 [03] (35)
9F0C  00                 [04] (36)
9F0D  23                 [05] (37)
9F0E  06                 [06] (37)
9F0F  00                 [07] (37)
9F10  00                 [08] (37)
9F11  23                 [09] (38)
9F12  06                 [10] (38)
9F13  00                 [11] (38)
9F14  00                 [12] (38)
9F15  24                 [13] (38)
9F16  06                 [14] (38)
9F17  00                 [15] (38)
9F18  00                 [16] (38)
9F19  25                 [17] (38)
9F1A  06                 [18] (38)
9F1B  00                 [19] (39)
9F1C  00                 [20] (39)
9F1D  25                 [21] (39)
9F1E  06                 [22] (40)
9F1F  00                 [23] (40)
9F20  00                 [24] (40)
9F21  25                 [25] (40)
9F22  06                 [26] (41)
9F23  00                 [27] (41)
9F24  00                 [28] (41)
9F25  25                 [29] (41)
9F26  06                 [30] (41)
9F27  00                 [31] (42)
                         * locals:
9F85  00                 sizelocvars (0)
                         * upvalues:
9F86  00                 sizeupvalues (0)
                         ** end of function **

                         
9F87                     ** function [21] definition (level 2)
                         ** start of function **
9F87  00                 string size (0)
                         source name: (none)
9F89  0C                 line defined (1580)
9F8A  B2                 last line defined (1586)
9F8B  0C                 nups (0)
9F8C  00                 numparams (2)
9F8D  02                 is_vararg (0)
9F8E  00                 maxstacksize (8)
                         * code:
9F90  12                 sizecode (18)
9F91  9D000000           [01] getglobal  2   0        ; Lotus_Game
9F95  8E404001           [02] gettable   2   2   257  ; -84065502
9F99  A2808000           [03] call       2   1   2  
9F9D  8C000081           [04] settable   2   258 0    ; "instigator"
9FA1  CB008000           [05] newtable   3   1   0    ; array=1, hash=0
9FA5  12018000           [06] move       4   1      
9FA9  DB408000           [07] setlist    3   1   1    ; index 1 to 1
9FAD  8CC08081           [08] settable   2   259 3    ; "affected"
9FB1  DD400100           [09] getglobal  3   5        ; 738251817
9FB5  19810100           [10] loadk      4   6        ; "/Lotus/Upgrades/Focus/Ward/Active/CloakReduceDamageFocusUpgrade"
9FB9  E2800001           [11] call       3   2   2  
9FBD  8CC00082           [12] settable   2   260 3    ; "abilityType"
9FC1  E4C0C100           [13] self       3   1   263  ; 1481577430
9FC5  52010001           [14] move       5   2      
9FC9  97010000           [15] loadbool   6   0   0    ; false
9FCD  D7010000           [16] loadbool   7   0   0    ; false
9FD1  E2408002           [17] call       3   5   1  
9FD5  1E008000           [18] return     0   1      
                         * constants:
9FD9  08                 sizek (8)
9FDA  04                 const type 4
9FDB  0B                 string size (11)
9FDC  4C6F7475735F4761+  "Lotus_Ga"
9FE4  6D6500             "me\0"
                         const [0]: "Lotus_Game"
9FE7  01                 const type 3
9FE8  2243FDFA           const [1]: (-84065502)
9FEC  04                 const type 4
9FED  0B                 string size (11)
9FEE  696E737469676174+  "instigat"
9FF6  6F7200             "or\0"
                         const [2]: "instigator"
9FF9  04                 const type 4
9FFA  09                 string size (9)
9FFB  6166666563746564+  "affected"
A003  00                 "\0"
                         const [3]: "affected"
A004  04                 const type 4
A005  0C                 string size (12)
A006  6162696C69747954+  "abilityT"
A00E  79706500           "ype\0"
                         const [4]: "abilityType"
A012  01                 const type 3
A013  29D4002C           const [5]: (738251817)
A017  04                 const type 4
A018  40                 string size (64)
A019  2F4C6F7475732F55+  "/Lotus/U"
A021  706772616465732F+  "pgrades/"
A029  466F6375732F5761+  "Focus/Wa"
A031  72642F4163746976+  "rd/Activ"
A039  652F436C6F616B52+  "e/CloakR"
A041  656475636544616D+  "educeDam"
A049  616765466F637573+  "ageFocus"
A051  5570677261646500   "Upgrade\0"
                         const [6]: "/Lotus/Upgrades/Focus/Ward/Active/CloakReduceDamageFocusUpgrade"
A059  01                 const type 3
A05A  D6134F58           const [7]: (1481577430)
                         * functions:
A05E  00                 sizep (0)
                         * lines:
A05F  12                 sizelineinfo (18)
                         [pc] (line)
A060  2D                 [01] (45)
A061  06                 [02] (45)
A062  00                 [03] (45)
A063  00                 [04] (46)
A064  2D                 [05] (47)
A065  06                 [06] (47)
A066  00                 [07] (47)
A067  00                 [08] (47)
A068  2D                 [09] (48)
A069  06                 [10] (48)
A06A  00                 [11] (48)
A06B  00                 [12] (48)
A06C  2E                 [13] (49)
A06D  06                 [14] (49)
A06E  00                 [15] (49)
A06F  00                 [16] (49)
A070  2F                 [17] (49)
A071  06                 [18] (50)
                         * locals:
A0A8  00                 sizelocvars (0)
                         * upvalues:
A0A9  00                 sizeupvalues (0)
                         ** end of function **

                         
A0AA                     ** function [22] definition (level 2)
                         ** start of function **
A0AA  00                 string size (0)
                         source name: (none)
A0AC  0C                 line defined (1588)
A0AD  BD                 last line defined (1597)
A0AE  0C                 nups (1)
A0AF  01                 numparams (2)
A0B0  02                 is_vararg (0)
A0B1  00                 maxstacksize (8)
                         * code:
A0B3  1B                 sizecode (27)
A0B4  93000000           [01] getupval   2   0      
A0B8  8E004001           [02] gettable   2   2   256  ; 1866016139
A0BC  D2008000           [03] move       3   1      
A0C0  1D410000           [04] getglobal  4   1        ; cloakProjector
A0C4  5D410000           [05] getglobal  5   1        ; cloakProjector
A0C8  A2400002           [06] call       2   4   1  
A0CC  9D800000           [07] getglobal  2   2        ; Lotus_Game
A0D0  8EC04001           [08] gettable   2   2   259  ; -84065502
A0D4  A2808000           [09] call       2   1   2  
A0D8  8C000082           [10] settable   2   260 0    ; "instigator"
A0DC  CB008000           [11] newtable   3   1   0    ; array=1, hash=0
A0E0  12018000           [12] move       4   1      
A0E4  DB408000           [13] setlist    3   1   1    ; index 1 to 1
A0E8  8CC08082           [14] settable   2   261 3    ; "affected"
A0EC  DD800000           [15] getglobal  3   2        ; Lotus_Game
A0F0  CEC0C101           [16] gettable   3   3   263  ; "BT_STATIC"
A0F4  8CC00083           [17] settable   2   262 3    ; "buffType"
A0F8  DD400200           [18] getglobal  3   9        ; 738251817
A0FC  19810200           [19] loadk      4   10       ; "/Lotus/Upgrades/Focus/Ward/Active/CloakAllyCloakFocusUpgrade"
A100  E2800001           [20] call       3   2   2  
A104  8CC00084           [21] settable   2   264 3    ; "abilityType"
A108  E4C0C200           [22] self       3   1   267  ; 1481577430
A10C  52010001           [23] move       5   2      
A110  97018000           [24] loadbool   6   1   0    ; true
A114  D7010000           [25] loadbool   7   0   0    ; false
A118  E2408002           [26] call       3   5   1  
A11C  1E008000           [27] return     0   1      
                         * constants:
A120  0C                 sizek (12)
A121  01                 const type 3
A122  8B25396F           const [0]: (1866016139)
A126  04                 const type 4
A127  0F                 string size (15)
A128  636C6F616B50726F+  "cloakPro"
A130  6A6563746F7200     "jector\0"
                         const [1]: "cloakProjector"
A137  04                 const type 4
A138  0B                 string size (11)
A139  4C6F7475735F4761+  "Lotus_Ga"
A141  6D6500             "me\0"
                         const [2]: "Lotus_Game"
A144  01                 const type 3
A145  2243FDFA           const [3]: (-84065502)
A149  04                 const type 4
A14A  0B                 string size (11)
A14B  696E737469676174+  "instigat"
A153  6F7200             "or\0"
                         const [4]: "instigator"
A156  04                 const type 4
A157  09                 string size (9)
A158  6166666563746564+  "affected"
A160  00                 "\0"
                         const [5]: "affected"
A161  04                 const type 4
A162  09                 string size (9)
A163  6275666654797065+  "buffType"
A16B  00                 "\0"
                         const [6]: "buffType"
A16C  04                 const type 4
A16D  0A                 string size (10)
A16E  42545F5354415449+  "BT_STATI"
A176  4300               "C\0"
                         const [7]: "BT_STATIC"
A178  04                 const type 4
A179  0C                 string size (12)
A17A  6162696C69747954+  "abilityT"
A182  79706500           "ype\0"
                         const [8]: "abilityType"
A186  01                 const type 3
A187  29D4002C           const [9]: (738251817)
A18B  04                 const type 4
A18C  3D                 string size (61)
A18D  2F4C6F7475732F55+  "/Lotus/U"
A195  706772616465732F+  "pgrades/"
A19D  466F6375732F5761+  "Focus/Wa"
A1A5  72642F4163746976+  "rd/Activ"
A1AD  652F436C6F616B41+  "e/CloakA"
A1B5  6C6C79436C6F616B+  "llyCloak"
A1BD  466F637573557067+  "FocusUpg"
A1C5  7261646500         "rade\0"
                         const [10]: "/Lotus/Upgrades/Focus/Ward/Active/CloakAllyCloakFocusUpgrade"
A1CA  01                 const type 3
A1CB  D6134F58           const [11]: (1481577430)
                         * functions:
A1CF  00                 sizep (0)
                         * lines:
A1D0  1B                 sizelineinfo (27)
                         [pc] (line)
A1D1  35                 [01] (53)
A1D2  06                 [02] (53)
A1D3  00                 [03] (53)
A1D4  00                 [04] (53)
A1D5  35                 [05] (53)
A1D6  06                 [06] (53)
A1D7  00                 [07] (55)
A1D8  00                 [08] (55)
A1D9  35                 [09] (55)
A1DA  06                 [10] (56)
A1DB  00                 [11] (57)
A1DC  00                 [12] (57)
A1DD  35                 [13] (57)
A1DE  06                 [14] (57)
A1DF  00                 [15] (58)
A1E0  00                 [16] (58)
A1E1  35                 [17] (58)
A1E2  06                 [18] (59)
A1E3  00                 [19] (59)
A1E4  00                 [20] (59)
A1E5  35                 [21] (59)
A1E6  06                 [22] (60)
A1E7  00                 [23] (60)
A1E8  00                 [24] (60)
A1E9  37                 [25] (60)
A1EA  06                 [26] (60)
A1EB  00                 [27] (61)
                         * locals:
A23D  00                 sizelocvars (0)
                         * upvalues:
A23E  00                 sizeupvalues (0)
                         ** end of function **

                         
A23F                     ** function [23] definition (level 2)
                         ** start of function **
A23F  00                 string size (0)
                         source name: (none)
A241  0C                 line defined (1599)
A242  C7                 last line defined (1607)
A243  0C                 nups (1)
A244  01                 numparams (2)
A245  02                 is_vararg (0)
A246  00                 maxstacksize (8)
                         * code:
A248  18                 sizecode (24)
A249  93000000           [01] getupval   2   0      
A24D  8E004001           [02] gettable   2   2   256  ; -1970331308
A251  D2008000           [03] move       3   1      
A255  1D410000           [04] getglobal  4   1        ; cloakProjector
A259  5D410000           [05] getglobal  5   1        ; cloakProjector
A25D  A2400002           [06] call       2   4   1  
A261  9D800000           [07] getglobal  2   2        ; Lotus_Game
A265  8EC04001           [08] gettable   2   2   259  ; -84065502
A269  A2808000           [09] call       2   1   2  
A26D  8C000082           [10] settable   2   260 0    ; "instigator"
A271  CB008000           [11] newtable   3   1   0    ; array=1, hash=0
A275  12018000           [12] move       4   1      
A279  DB408000           [13] setlist    3   1   1    ; index 1 to 1
A27D  8CC08082           [14] settable   2   261 3    ; "affected"
A281  DDC00100           [15] getglobal  3   7        ; 738251817
A285  19010200           [16] loadk      4   8        ; "/Lotus/Upgrades/Focus/Ward/Active/CloakAllyCloakFocusUpgrade"
A289  E2800001           [17] call       3   2   2  
A28D  8CC00083           [18] settable   2   262 3    ; "abilityType"
A291  E440C200           [19] self       3   1   265  ; 1481577430
A295  52010001           [20] move       5   2      
A299  97010000           [21] loadbool   6   0   0    ; false
A29D  D7010000           [22] loadbool   7   0   0    ; false
A2A1  E2408002           [23] call       3   5   1  
A2A5  1E008000           [24] return     0   1      
                         * constants:
A2A9  0A                 sizek (10)
A2AA  01                 const type 3
A2AB  54218F8A           const [0]: (-1970331308)
A2AF  04                 const type 4
A2B0  0F                 string size (15)
A2B1  636C6F616B50726F+  "cloakPro"
A2B9  6A6563746F7200     "jector\0"
                         const [1]: "cloakProjector"
A2C0  04                 const type 4
A2C1  0B                 string size (11)
A2C2  4C6F7475735F4761+  "Lotus_Ga"
A2CA  6D6500             "me\0"
                         const [2]: "Lotus_Game"
A2CD  01                 const type 3
A2CE  2243FDFA           const [3]: (-84065502)
A2D2  04                 const type 4
A2D3  0B                 string size (11)
A2D4  696E737469676174+  "instigat"
A2DC  6F7200             "or\0"
                         const [4]: "instigator"
A2DF  04                 const type 4
A2E0  09                 string size (9)
A2E1  6166666563746564+  "affected"
A2E9  00                 "\0"
                         const [5]: "affected"
A2EA  04                 const type 4
A2EB  0C                 string size (12)
A2EC  6162696C69747954+  "abilityT"
A2F4  79706500           "ype\0"
                         const [6]: "abilityType"
A2F8  01                 const type 3
A2F9  29D4002C           const [7]: (738251817)
A2FD  04                 const type 4
A2FE  3D                 string size (61)
A2FF  2F4C6F7475732F55+  "/Lotus/U"
A307  706772616465732F+  "pgrades/"
A30F  466F6375732F5761+  "Focus/Wa"
A317  72642F4163746976+  "rd/Activ"
A31F  652F436C6F616B41+  "e/CloakA"
A327  6C6C79436C6F616B+  "llyCloak"
A32F  466F637573557067+  "FocusUpg"
A337  7261646500         "rade\0"
                         const [8]: "/Lotus/Upgrades/Focus/Ward/Active/CloakAllyCloakFocusUpgrade"
A33C  01                 const type 3
A33D  D6134F58           const [9]: (1481577430)
                         * functions:
A341  00                 sizep (0)
                         * lines:
A342  18                 sizelineinfo (24)
                         [pc] (line)
A343  40                 [01] (64)
A344  06                 [02] (64)
A345  00                 [03] (64)
A346  00                 [04] (64)
A347  40                 [05] (64)
A348  06                 [06] (64)
A349  00                 [07] (66)
A34A  00                 [08] (66)
A34B  40                 [09] (66)
A34C  06                 [10] (67)
A34D  00                 [11] (68)
A34E  00                 [12] (68)
A34F  40                 [13] (68)
A350  06                 [14] (68)
A351  00                 [15] (69)
A352  00                 [16] (69)
A353  40                 [17] (69)
A354  06                 [18] (69)
A355  00                 [19] (70)
A356  00                 [20] (70)
A357  40                 [21] (70)
A358  06                 [22] (70)
A359  00                 [23] (70)
A35A  00                 [24] (71)
                         * locals:
A3A3  00                 sizelocvars (0)
                         * upvalues:
A3A4  00                 sizeupvalues (0)
                         ** end of function **

                         
A3A5                     ** function [24] definition (level 2)
                         ** start of function **
A3A5  00                 string size (0)
                         source name: (none)
A3A7  0C                 line defined (1609)
A3A8  DF                 last line defined (1631)
A3A9  0C                 nups (3)
A3AA  03                 numparams (10)
A3AB  0A                 is_vararg (0)
A3AC  00                 maxstacksize (22)
                         * code:
A3AE  4E                 sizecode (78)
A3AF  9D020000           [01] getglobal  10  0        ; 1074689893
A3B3  D2028001           [02] move       11  3      
A3B7  A2820001           [03] call       10  2   2  
A3BB  98420000           [04] test       10      1    ; to [6] if false
A3BF  1A400280           [05] jmp        10           ; to [16]
A3C3  A442C001           [06] self       10  3   257  ; 1511086594
A3C7  A2820001           [07] call       10  2   2  
A3CB  98420000           [08] test       10      1    ; to [10] if false
A3CF  1A400180           [09] jmp        6            ; to [16]
A3D3  A482C001           [10] self       10  3   258  ; 1230984527
A3D7  1DC30000           [11] getglobal  12  3        ; Lotus_Game
A3DB  0E034106           [12] gettable   12  12  260  ; "AR_IMMUNE_ALL"
A3DF  A2828001           [13] call       10  3   2  
A3E3  98020000           [14] test       10      0    ; to [16] if true
A3E7  1A000080           [15] jmp        1            ; to [17]
A3EB  1E008000           [16] return     0   1      
A3EF  A4424100           [17] self       10  0   261  ; -1538682285
A3F3  A2820001           [18] call       10  2   2  
A3F7  D3020000           [19] getupval   11  0      
A3FB  CE82C105           [20] gettable   11  11  262  ; 518391456
A3FF  12030005           [21] move       12  10     
A403  E2820001           [22] call       11  2   2  
A407  1DC30000           [23] getglobal  12  3        ; Lotus_Game
A40B  0EC34106           [24] gettable   12  12  263  ; "AP_WARD"
fail op	35
A40F  23008305           [25] close      0  
A413  1A800C80           [26] jmp        51           ; to [78]
A417  1D030200           [27] getglobal  12  8        ; gRegion
A41B  24434206           [28] self       12  12  265  ; -1520831144
A41F  22830001           [29] call       12  2   2  
A423  18030000           [30] test       12      0    ; to [32] if true
A427  1A400B80           [31] jmp        46           ; to [78]
A42B  13030000           [32] getupval   12  0      
A42F  0E834206           [33] gettable   12  12  266  ; -75093794
A433  52030005           [34] move       13  10     
A437  93038000           [35] getupval   14  1      
A43B  8EC34207           [36] gettable   14  14  267  ; "tag"
A43F  D3038000           [37] getupval   15  1      
A443  CE03C307           [38] gettable   15  15  268  ; "armourRed"
A447  22830002           [39] call       12  4   2  
fail op	21
A44B  15008386           [40] concat     0   269 12 
A44F  1AC00280           [41] jmp        12           ; to [54]
A453  53038000           [42] getupval   13  1      
A457  4E03C306           [43] gettable   13  13  268  ; "armourRed"
A45B  4E038306           [44] gettable   13  13  12 
A45F  A483C301           [45] self       14  3   270  ; -1917464545
A463  A2830001           [46] call       14  2   2  
A467  A4C34307           [47] self       14  14  271  ; 991629753
A46B  1D040400           [48] getglobal  16  16       ; Game
A46F  0E444408           [49] gettable   16  16  273  ; "AVATAR_ARMOUR"
A473  5D040400           [50] getglobal  17  16       ; Game
A477  4E84C408           [51] gettable   17  17  274  ; "MULTIPLY"
A47B  8D448389           [52] sub        18  275 13   ; 0
A47F  A2438002           [53] call       14  5   1  
A483  93030000           [54] getupval   14  0      
A487  8E834207           [55] gettable   14  14  266  ; -75093794
A48B  D2030005           [56] move       15  10     
A48F  13040001           [57] getupval   16  2      
A493  0EC44208           [58] gettable   16  16  267  ; "tag"
A497  53040001           [59] getupval   17  2      
A49B  4E04C508           [60] gettable   17  17  276  ; "dmgRed"
A49F  A2830002           [61] call       14  4   2  
fail op	21
A4A3  15808386           [62] concat     0   269 14 
A4A7  1A400380           [63] jmp        14           ; to [78]
A4AB  D3030001           [64] getupval   15  2      
A4AF  CE03C507           [65] gettable   15  15  276  ; "dmgRed"
A4B3  CE838307           [66] gettable   15  15  14 
A4B7  2484C301           [67] self       16  3   270  ; -1917464545
A4BB  22840001           [68] call       16  2   2  
A4BF  24444508           [69] self       16  16  277  ; 1183180483
A4C3  93040001           [70] getupval   18  2      
A4C7  8EC44209           [71] gettable   18  18  267  ; "tag"
A4CB  DD040400           [72] getglobal  19  16       ; Game
A4CF  CE84C509           [73] gettable   19  19  278  ; "WEAPON_DAMAGE_AMOUNT"
A4D3  1D050400           [74] getglobal  20  16       ; Game
A4D7  0E85440A           [75] gettable   20  20  274  ; "MULTIPLY"
A4DB  4DC58389           [76] sub        21  275 15   ; 0
A4DF  22440003           [77] call       16  6   1  
A4E3  1E008000           [78] return     0   1      
                         * constants:
A4E7  17                 sizek (23)
A4E8  01                 const type 3
A4E9  65770E40           const [0]: (1074689893)
A4ED  01                 const type 3
A4EE  025A115A           const [1]: (1511086594)
A4F2  01                 const type 3
A4F3  4F555F49           const [2]: (1230984527)
A4F7  04                 const type 4
A4F8  0B                 string size (11)
A4F9  4C6F7475735F4761+  "Lotus_Ga"
A501  6D6500             "me\0"
                         const [3]: "Lotus_Game"
A504  04                 const type 4
A505  0E                 string size (14)
A506  41525F494D4D554E+  "AR_IMMUN"
A50E  455F414C4C00       "E_ALL\0"
                         const [4]: "AR_IMMUNE_ALL"
A514  01                 const type 3
A515  539249A4           const [5]: (-1538682285)
A519  01                 const type 3
A51A  A006E61E           const [6]: (518391456)
A51E  04                 const type 4
A51F  08                 string size (8)
A520  41505F5741524400   "AP_WARD\0"
                         const [7]: "AP_WARD"
A528  04                 const type 4
A529  08                 string size (8)
A52A  67526567696F6E00   "gRegion\0"
                         const [8]: "gRegion"
A532  01                 const type 3
A533  58F559A5           const [9]: (-1520831144)
A537  01                 const type 3
A538  DE2886FB           const [10]: (-75093794)
A53C  04                 const type 4
A53D  04                 string size (4)
A53E  74616700           "tag\0"
                         const [11]: "tag"
A542  04                 const type 4
A543  0A                 string size (10)
A544  61726D6F75725265+  "armourRe"
A54C  6400               "d\0"
                         const [12]: "armourRed"
A54E  03                 const type 3
A54F  00000000           const [13]: (0)
A553  01                 const type 3
A554  1FD0B58D           const [14]: (-1917464545)
A558  01                 const type 3
A559  B9111B3B           const [15]: (991629753)
A55D  04                 const type 4
A55E  05                 string size (5)
A55F  47616D6500         "Game\0"
                         const [16]: "Game"
A564  04                 const type 4
A565  0E                 string size (14)
A566  4156415441525F41+  "AVATAR_A"
A56E  524D4F555200       "RMOUR\0"
                         const [17]: "AVATAR_ARMOUR"
A574  04                 const type 4
A575  09                 string size (9)
A576  4D554C5449504C59+  "MULTIPLY"
A57E  00                 "\0"
                         const [18]: "MULTIPLY"
A57F  03                 const type 3
A580  0000803F           const [19]: (0)
A584  04                 const type 4
A585  07                 string size (7)
A586  646D6752656400     "dmgRed\0"
                         const [20]: "dmgRed"
A58D  01                 const type 3
A58E  C3E68546           const [21]: (1183180483)
A592  04                 const type 4
A593  15                 string size (21)
A594  574541504F4E5F44+  "WEAPON_D"
A59C  414D4147455F414D+  "AMAGE_AM"
A5A4  4F554E5400         "OUNT\0"
                         const [22]: "WEAPON_DAMAGE_AMOUNT"
                         * functions:
A5A9  00                 sizep (0)
                         * lines:
A5AA  4E                 sizelineinfo (78)
                         [pc] (line)
A5AB  4A                 [01] (74)
A5AC  06                 [02] (74)
A5AD  00                 [03] (74)
A5AE  00                 [04] (74)
A5AF  4A                 [05] (74)
A5B0  06                 [06] (74)
A5B1  00                 [07] (74)
A5B2  00                 [08] (74)
A5B3  4A                 [09] (74)
A5B4  06                 [10] (74)
A5B5  00                 [11] (74)
A5B6  00                 [12] (74)
A5B7  4A                 [13] (74)
A5B8  06                 [14] (74)
A5B9  00                 [15] (74)
A5BA  00                 [16] (75)
A5BB  4A                 [17] (78)
A5BC  06                 [18] (78)
A5BD  00                 [19] (79)
A5BE  00                 [20] (79)
A5BF  4A                 [21] (79)
A5C0  06                 [22] (79)
A5C1  00                 [23] (80)
A5C2  00                 [24] (80)
A5C3  4A                 [25] (80)
A5C4  06                 [26] (80)
A5C5  00                 [27] (81)
A5C6  00                 [28] (81)
A5C7  4A                 [29] (81)
A5C8  06                 [30] (81)
A5C9  00                 [31] (81)
A5CA  00                 [32] (82)
A5CB  4A                 [33] (82)
A5CC  06                 [34] (82)
A5CD  00                 [35] (82)
A5CE  00                 [36] (82)
A5CF  4A                 [37] (82)
A5D0  06                 [38] (82)
A5D1  00                 [39] (82)
A5D2  00                 [40] (83)
A5D3  4A                 [41] (83)
A5D4  06                 [42] (84)
A5D5  00                 [43] (84)
A5D6  00                 [44] (84)
A5D7  4A                 [45] (85)
A5D8  06                 [46] (85)
A5D9  00                 [47] (85)
A5DA  00                 [48] (85)
A5DB  4A                 [49] (85)
A5DC  06                 [50] (85)
A5DD  00                 [51] (85)
A5DE  00                 [52] (85)
A5DF  4A                 [53] (85)
A5E0  06                 [54] (88)
A5E1  00                 [55] (88)
A5E2  00                 [56] (88)
A5E3  4A                 [57] (88)
A5E4  06                 [58] (88)
A5E5  00                 [59] (88)
A5E6  00                 [60] (88)
A5E7  4B                 [61] (88)
A5E8  06                 [62] (89)
A5E9  00                 [63] (89)
A5EA  00                 [64] (90)
A5EB  4E                 [65] (90)
A5EC  06                 [66] (90)
A5ED  00                 [67] (91)
A5EE  00                 [68] (91)
A5EF  4E                 [69] (91)
A5F0  06                 [70] (91)
A5F1  00                 [71] (91)
A5F2  00                 [72] (91)
A5F3  4F                 [73] (91)
A5F4  06                 [74] (91)
A5F5  00                 [75] (91)
A5F6  00                 [76] (91)
A5F7  4F                 [77] (91)
A5F8  06                 [78] (95)
                         * locals:
A6E3  00                 sizelocvars (0)
                         * upvalues:
A6E4  00                 sizeupvalues (0)
                         ** end of function **

                         
A6E5                     ** function [25] definition (level 2)
                         ** start of function **
A6E5  00                 string size (0)
                         source name: (none)
A6E7  0C                 line defined (1633)
A6E8  F6                 last line defined (1654)
A6E9  0C                 nups (1)
A6EA  01                 numparams (1)
A6EB  01                 is_vararg (0)
A6EC  00                 maxstacksize (7)
                         * code:
A6EE  3A                 sizecode (58)
A6EF  5D000000           [01] getglobal  1   0        ; 538022378
A6F3  99400000           [02] loadk      2   1        ; 0
A6F7  62400001           [03] call       1   2   1  
A6FB  64804000           [04] self       1   0   258  ; 129677183
A6FF  62800001           [05] call       1   2   2  
A703  9DC00000           [06] getglobal  2   3        ; 1074689893
A707  D2008000           [07] move       3   1      
A70B  A2800001           [08] call       2   2   2  
A70F  98400000           [09] test       2       1    ; to [11] if false
A713  1A000180           [10] jmp        5            ; to [16]
A717  A400C100           [11] self       2   1   260  ; -1957065004
A71B  1D410100           [12] getglobal  4   5        ; gLotusAvatarType
A71F  A2808001           [13] call       2   3   2  
A723  98400000           [14] test       2       1    ; to [16] if false
A727  1A800180           [15] jmp        7            ; to [23]
A72B  A4804000           [16] self       2   0   258  ; 129677183
A72F  A2800001           [17] call       2   2   2  
A733  52000001           [18] move       1   2      
A737  9D000000           [19] getglobal  2   0        ; 538022378
A73B  D9400000           [20] loadk      3   1        ; 0
A73F  A2400001           [21] call       2   2   1  
A743  1A80FB7F           [22] jmp        -17          ; to [6]
A747  A4804100           [23] self       2   0   262  ; -1625438872
A74B  1DC10100           [24] getglobal  4   7        ; gLotusEffectDecorationType
A74F  A2808001           [25] call       2   3   2  
A753  DDC00000           [26] getglobal  3   3        ; 1074689893
A757  12010001           [27] move       4   2      
A75B  E2800001           [28] call       3   2   2  
A75F  D8400000           [29] test       3       1    ; to [31] if false
A763  1AC00280           [30] jmp        12           ; to [43]
A767  E400C200           [31] self       3   1   264  ; -1917464545
A76B  E2800001           [32] call       3   2   2  
A76F  E440C201           [33] self       3   3   265  ; 1769516121
A773  E2800001           [34] call       3   2   2  
A777  1DC10000           [35] getglobal  4   3        ; 1074689893
A77B  52018001           [36] move       5   3      
A77F  22810001           [37] call       4   2   2  
A783  18410000           [38] test       4       1    ; to [40] if false
A787  1A800080           [39] jmp        3            ; to [43]
A78B  2481C201           [40] self       4   3   266  ; -2035091121
A78F  92010001           [41] move       6   2      
A793  22418001           [42] call       4   3   1  
A797  1DC10200           [43] getglobal  4   11       ; gRegion
A79B  24014302           [44] self       4   4   268  ; -1520831144
A79F  22810001           [45] call       4   2   2  
A7A3  18410000           [46] test       4       1    ; to [48] if false
A7A7  1A000080           [47] jmp        1            ; to [49]
A7AB  1E008000           [48] return     0   1      
A7AF  24414300           [49] self       4   0   269  ; -803264084
A7B3  22810001           [50] call       4   2   2  
A7B7  5D010000           [51] getglobal  5   0        ; 538022378
A7BB  93010000           [52] getupval   6   0      
A7BF  8E814303           [53] gettable   6   6   270  ; "duration"
A7C3  8E010103           [54] gettable   6   6   4  
A7C7  62410001           [55] call       5   2   1  
A7CB  64C14300           [56] self       5   0   271  ; -725453761
A7CF  62410001           [57] call       5   2   1  
A7D3  1E008000           [58] return     0   1      
                         * constants:
A7D7  10                 sizek (16)
A7D8  01                 const type 3
A7D9  EA911120           const [0]: (538022378)
A7DD  03                 const type 3
A7DE  00000000           const [1]: (0)
A7E2  01                 const type 3
A7E3  7FB7BA07           const [2]: (129677183)
A7E7  01                 const type 3
A7E8  65770E40           const [3]: (1074689893)
A7EC  01                 const type 3
A7ED  D48E598B           const [4]: (-1957065004)
A7F1  04                 const type 4
A7F2  11                 string size (17)
A7F3  674C6F7475734176+  "gLotusAv"
A7FB  6174617254797065+  "atarType"
A803  00                 "\0"
                         const [5]: "gLotusAvatarType"
A804  01                 const type 3
A805  68C51D9F           const [6]: (-1625438872)
A809  04                 const type 4
A80A  1B                 string size (27)
A80B  674C6F7475734566+  "gLotusEf"
A813  666563744465636F+  "fectDeco"
A81B  726174696F6E5479+  "rationTy"
A823  706500             "pe\0"
                         const [7]: "gLotusEffectDecorationType"
A826  01                 const type 3
A827  1FD0B58D           const [8]: (-1917464545)
A82B  01                 const type 3
A82C  59AC7869           const [9]: (1769516121)
A830  01                 const type 3
A831  4FF9B286           const [10]: (-2035091121)
A835  04                 const type 4
A836  08                 string size (8)
A837  67526567696F6E00   "gRegion\0"
                         const [11]: "gRegion"
A83F  01                 const type 3
A840  58F559A5           const [12]: (-1520831144)
A844  01                 const type 3
A845  AC291FD0           const [13]: (-803264084)
A849  04                 const type 4
A84A  09                 string size (9)
A84B  6475726174696F6E+  "duration"
A853  00                 "\0"
                         const [14]: "duration"
A854  01                 const type 3
A855  3F74C2D4           const [15]: (-725453761)
                         * functions:
A859  00                 sizep (0)
                         * lines:
A85A  3A                 sizelineinfo (58)
                         [pc] (line)
A85B  62                 [01] (98)
A85C  06                 [02] (98)
A85D  00                 [03] (98)
A85E  00                 [04] (99)
A85F  62                 [05] (99)
A860  06                 [06] (100)
A861  00                 [07] (100)
A862  00                 [08] (100)
A863  62                 [09] (100)
A864  06                 [10] (100)
A865  00                 [11] (100)
A866  00                 [12] (100)
A867  63                 [13] (100)
A868  06                 [14] (100)
A869  00                 [15] (100)
A86A  00                 [16] (101)
A86B  63                 [17] (101)
A86C  06                 [18] (101)
A86D  00                 [19] (102)
A86E  00                 [20] (102)
A86F  64                 [21] (102)
A870  06                 [22] (102)
A871  00                 [23] (104)
A872  00                 [24] (104)
A873  64                 [25] (104)
A874  06                 [26] (105)
A875  00                 [27] (105)
A876  00                 [28] (105)
A877  64                 [29] (105)
A878  06                 [30] (105)
A879  00                 [31] (106)
A87A  00                 [32] (106)
A87B  64                 [33] (106)
A87C  06                 [34] (106)
A87D  00                 [35] (107)
A87E  00                 [36] (107)
A87F  64                 [37] (107)
A880  06                 [38] (107)
A881  00                 [39] (107)
A882  00                 [40] (108)
A883  64                 [41] (108)
A884  06                 [42] (108)
A885  00                 [43] (111)
A886  00                 [44] (111)
A887  64                 [45] (111)
A888  06                 [46] (111)
A889  00                 [47] (111)
A88A  00                 [48] (112)
A88B  64                 [49] (115)
A88C  06                 [50] (115)
A88D  00                 [51] (116)
A88E  00                 [52] (116)
A88F  64                 [53] (116)
A890  06                 [54] (116)
A891  00                 [55] (116)
A892  00                 [56] (117)
A893  64                 [57] (117)
A894  06                 [58] (118)
                         * locals:
A943  00                 sizelocvars (0)
                         * upvalues:
A944  00                 sizeupvalues (0)
                         ** end of function **

                         
A945                     ** function [26] definition (level 2)
                         ** start of function **
A945  00                 string size (0)
                         source name: (none)
A947  0C                 line defined (1656)
A948  B9                 last line defined (1721)
A949  0D                 nups (1)
A94A  01                 numparams (2)
A94B  02                 is_vararg (0)
A94C  00                 maxstacksize (13)
                         * code:
A94F  01                 sizecode (169)
A950  A4004000           [001] self       2   0   256  ; -784553045
A954  2441C000           [002] self       4   1   257  ; 129677183
A958  22010001           [003] call       4   2   0  
A95C  A2800000           [004] call       2   0   2  
A960  98400000           [005] test       2       1    ; to [7] if false
A964  1A000080           [006] jmp        1            ; to [8]
A968  1E008000           [007] return     0   1      
A96C  A480C000           [008] self       2   1   258  ; -803264084
A970  A2800001           [009] call       2   2   2  
A974  D3000000           [010] getupval   3   0      
A978  CEC0C001           [011] gettable   3   3   259  ; "buffTime"
A97C  CE808001           [012] gettable   3   3   2  
A980  13010000           [013] getupval   4   0      
A984  0E014102           [014] gettable   4   4   260  ; "regen"
A988  0E810002           [015] gettable   4   4   2  
A98C  64414100           [016] self       5   0   261  ; -1957065004
A990  DD810100           [017] getglobal  7   6        ; gLotusOperatorAvatarType
A994  62818001           [018] call       5   3   2  
A998  58010000           [019] test       5       0    ; to [21] if true
A99C  1A000080           [020] jmp        1            ; to [22]
A9A0  04C14102           [021] mul        4   4   263  ; 0
A9A4  64014200           [022] self       5   0   264  ; -1917464545
A9A8  62810001           [023] call       5   2   2  
A9AC  A441C202           [024] self       6   5   265  ; 1183180483
A9B0  13020000           [025] getupval   8   0      
A9B4  0E824204           [026] gettable   8   8   266  ; "tag"
A9B8  5DC20200           [027] getglobal  9   11       ; Game
A9BC  4E02C304           [028] gettable   9   9   268  ; "AVATAR_POWER_RATE"
A9C0  9DC20200           [029] getglobal  10  11       ; Game
A9C4  8E424305           [030] gettable   10  10  269  ; "ADD"
A9C8  D2020002           [031] move       11  4      
A9CC  A2410003           [032] call       6   6   1  
A9D0  9D810300           [033] getglobal  6   14       ; Lotus_Game
A9D4  8EC14303           [034] gettable   6   6   271  ; -84065502
A9D8  A2818000           [035] call       6   1   2  
A9DC  8C010088           [036] settable   6   272 0    ; "instigator"
A9E0  CB018000           [037] newtable   7   1   0    ; array=1, hash=0
A9E4  12020000           [038] move       8   0      
A9E8  DB418000           [039] setlist    7   1   1    ; index 1 to 1
A9EC  8CC18188           [040] settable   6   273 7    ; "affected"
A9F0  DD810300           [041] getglobal  7   14       ; Lotus_Game
A9F4  CEC1C403           [042] gettable   7   7   275  ; "BT_AMOUNT"
A9F8  8CC10189           [043] settable   6   274 7    ; "buffType"
A9FC  DD410500           [044] getglobal  7   21       ; 738251817
AA00  19820500           [045] loadk      8   22       ; "/Lotus/Upgrades/Focus/Power/Active/DashBubbleFocusUpgrade"
AA04  E2810001           [046] call       7   2   2  
AA08  8CC1018A           [047] settable   6   276 7    ; "abilityType"
AA0C  E401C602           [048] self       7   5   280  ; 1440485880
AA10  53020000           [049] getupval   9   0      
AA14  4E82C204           [050] gettable   9   9   266  ; "tag"
AA18  E2818001           [051] call       7   3   2  
AA1C  8CC1818B           [052] settable   6   279 7    ; "buffData"
AA20  E4414600           [053] self       7   0   281  ; 1481577430
AA24  52020003           [054] move       9   6      
AA28  97028000           [055] loadbool   10  1   0    ; true
AA2C  D7028000           [056] loadbool   11  1   0    ; true
AA30  E2418002           [057] call       7   5   1  
AA34  DD810600           [058] getglobal  7   26       ; 1074689893
AA38  12020000           [059] move       8   0      
AA3C  E2810001           [060] call       7   2   2  
AA40  D8410000           [061] test       7       1    ; to [63] if false
AA44  1A400480           [062] jmp        18           ; to [81]
AA48  E4C14600           [063] self       7   0   283  ; 1511086594
AA4C  E2810001           [064] call       7   2   2  
AA50  D8410000           [065] test       7       1    ; to [67] if false
AA54  1A400380           [066] jmp        14           ; to [81]
AA58  DD810600           [067] getglobal  7   26       ; 1074689893
AA5C  12028000           [068] move       8   1      
AA60  E2810001           [069] call       7   2   2  
AA64  D8410000           [070] test       7       1    ; to [72] if false
AA68  1A000280           [071] jmp        9            ; to [81]
AA6C  E401C700           [072] self       7   1   284  ; 2083722643
AA70  52020000           [073] move       9   0      
AA74  E2818001           [074] call       7   3   2  
AA78  D8010000           [075] test       7       0    ; to [77] if true
AA7C  1AC00080           [076] jmp        4            ; to [81]
AA80  DD410700           [077] getglobal  7   29       ; 538022378
AA84  19820700           [078] loadk      8   30       ; 0
AA88  E2410001           [079] call       7   2   1  
AA8C  1A00FA7F           [080] jmp        -23          ; to [58]
AA90  DD810600           [081] getglobal  7   26       ; 1074689893
AA94  12020000           [082] move       8   0      
AA98  E2810001           [083] call       7   2   2  
AA9C  D8410000           [084] test       7       1    ; to [86] if false
AAA0  1AC00080           [085] jmp        4            ; to [90]
AAA4  E4C14600           [086] self       7   0   283  ; 1511086594
AAA8  E2810001           [087] call       7   2   2  
AAAC  D8010000           [088] test       7       0    ; to [90] if true
AAB0  1A000080           [089] jmp        1            ; to [91]
AAB4  1E008000           [090] return     0   1      
AAB8  E4C1C702           [091] self       7   5   287  ; 1517555237
AABC  53020000           [092] getupval   9   0      
AAC0  4E82C204           [093] gettable   9   9   266  ; "tag"
AAC4  9DC20200           [094] getglobal  10  11       ; Game
AAC8  8E024305           [095] gettable   10  10  268  ; "AVATAR_POWER_RATE"
AACC  DDC20200           [096] getglobal  11  11       ; Game
AAD0  CE42C305           [097] gettable   11  11  269  ; "ADD"
AAD4  12030002           [098] move       12  4      
AAD8  E2410003           [099] call       7   6   1  
AADC  E401C802           [100] self       7   5   288  ; 1554076758
AAE0  53020000           [101] getupval   9   0      
AAE4  4E82C204           [102] gettable   9   9   266  ; "tag"
AAE8  E2818001           [103] call       7   3   2  
AAEC  D8010000           [104] test       7       0    ; to [106] if true
AAF0  1A400380           [105] jmp        14           ; to [120]
AAF4  E401C602           [106] self       7   5   280  ; 1440485880
AAF8  53020000           [107] getupval   9   0      
AAFC  4E82C204           [108] gettable   9   9   266  ; "tag"
AB00  E2818001           [109] call       7   3   2  
AB04  0EC24503           [110] gettable   8   6   279  ; "buffData"
fail op	35
AB08  63008203           [111] close      1  
AB0C  1A400180           [112] jmp        6            ; to [119]
AB10  8CC1818B           [113] settable   6   279 7    ; "buffData"
AB14  24424600           [114] self       8   0   281  ; 1481577430
AB18  92020003           [115] move       10  6      
AB1C  D7028000           [116] loadbool   11  1   0    ; true
AB20  17038000           [117] loadbool   12  1   0    ; true
AB24  22428002           [118] call       8   5   1  
AB28  1E008000           [119] return     0   1      
AB2C  2442C802           [120] self       8   5   289  ; 991629753
AB30  9DC20200           [121] getglobal  10  11       ; Game
AB34  8E024305           [122] gettable   10  10  268  ; "AVATAR_POWER_RATE"
AB38  DDC20200           [123] getglobal  11  11       ; Game
AB3C  CE42C305           [124] gettable   11  11  269  ; "ADD"
AB40  12030002           [125] move       12  4      
AB44  22428002           [126] call       8   5   1  
AB48  1D820300           [127] getglobal  8   14       ; Lotus_Game
AB4C  0E824804           [128] gettable   8   8   290  ; "BT_AMOUNT_TIMER"
AB50  8C010289           [129] settable   6   274 8    ; "buffType"
AB54  8CC1808B           [130] settable   6   279 3    ; "buffData"
AB58  8C018191           [131] settable   6   291 4    ; "buffDataExtra"
AB5C  24424600           [132] self       8   0   281  ; 1481577430
AB60  92020003           [133] move       10  6      
AB64  D7028000           [134] loadbool   11  1   0    ; true
AB68  17038000           [135] loadbool   12  1   0    ; true
AB6C  22428002           [136] call       8   5   1  
fail op	21
AB70  15C00092           [137] concat     0   292 3  
AB74  1A400480           [138] jmp        18           ; to [157]
AB78  1D820600           [139] getglobal  8   26       ; 1074689893
AB7C  52020000           [140] move       9   0      
AB80  22820001           [141] call       8   2   2  
AB84  18420000           [142] test       8       1    ; to [144] if false
AB88  1A000380           [143] jmp        13           ; to [157]
AB8C  2402C802           [144] self       8   5   288  ; 1554076758
AB90  93020000           [145] getupval   10  0      
AB94  8E824205           [146] gettable   10  10  266  ; "tag"
AB98  22828001           [147] call       8   3   2  
AB9C  18420000           [148] test       8       1    ; to [150] if false
ABA0  1A800180           [149] jmp        7            ; to [157]
ABA4  1D420700           [150] getglobal  8   29       ; 538022378
ABA8  59020900           [151] loadk      9   36       ; 0
ABAC  22420001           [152] call       8   2   1  
ABB0  1D420900           [153] getglobal  8   37       ; 1289681407
ABB4  22828000           [154] call       8   1   2  
ABB8  CD008201           [155] sub        3   3   8  
ABBC  1AC0FA7F           [156] jmp        -20          ; to [137]
ABC0  1D820600           [157] getglobal  8   26       ; 1074689893
ABC4  52020000           [158] move       9   0      
ABC8  22820001           [159] call       8   2   2  
ABCC  18420000           [160] test       8       1    ; to [162] if false
ABD0  1A800180           [161] jmp        7            ; to [169]
ABD4  2482C902           [162] self       8   5   294  ; -233482841
ABD8  9DC20200           [163] getglobal  10  11       ; Game
ABDC  8E024305           [164] gettable   10  10  268  ; "AVATAR_POWER_RATE"
ABE0  DDC20200           [165] getglobal  11  11       ; Game
ABE4  CE42C305           [166] gettable   11  11  269  ; "ADD"
ABE8  12030002           [167] move       12  4      
ABEC  22428002           [168] call       8   5   1  
ABF0  1E008000           [169] return     0   1      
                         * constants:
ABF4  27                 sizek (39)
ABF5  01                 const type 3
ABF6  ABAB3CD1           const [0]: (-784553045)
ABFA  01                 const type 3
ABFB  7FB7BA07           const [1]: (129677183)
ABFF  01                 const type 3
AC00  AC291FD0           const [2]: (-803264084)
AC04  04                 const type 4
AC05  09                 string size (9)
AC06  6275666654696D65+  "buffTime"
AC0E  00                 "\0"
                         const [3]: "buffTime"
AC0F  04                 const type 4
AC10  06                 string size (6)
AC11  726567656E00       "regen\0"
                         const [4]: "regen"
AC17  01                 const type 3
AC18  D48E598B           const [5]: (-1957065004)
AC1C  04                 const type 4
AC1D  19                 string size (25)
AC1E  674C6F7475734F70+  "gLotusOp"
AC26  657261746F724176+  "eratorAv"
AC2E  6174617254797065+  "atarType"
AC36  00                 "\0"
                         const [6]: "gLotusOperatorAvatarType"
AC37  03                 const type 3
AC38  00000040           const [7]: (0)
AC3C  01                 const type 3
AC3D  1FD0B58D           const [8]: (-1917464545)
AC41  01                 const type 3
AC42  C3E68546           const [9]: (1183180483)
AC46  04                 const type 4
AC47  04                 string size (4)
AC48  74616700           "tag\0"
                         const [10]: "tag"
AC4C  04                 const type 4
AC4D  05                 string size (5)
AC4E  47616D6500         "Game\0"
                         const [11]: "Game"
AC53  04                 const type 4
AC54  12                 string size (18)
AC55  4156415441525F50+  "AVATAR_P"
AC5D  4F5745525F524154+  "OWER_RAT"
AC65  4500               "E\0"
                         const [12]: "AVATAR_POWER_RATE"
AC67  04                 const type 4
AC68  04                 string size (4)
AC69  41444400           "ADD\0"
                         const [13]: "ADD"
AC6D  04                 const type 4
AC6E  0B                 string size (11)
AC6F  4C6F7475735F4761+  "Lotus_Ga"
AC77  6D6500             "me\0"
                         const [14]: "Lotus_Game"
AC7A  01                 const type 3
AC7B  2243FDFA           const [15]: (-84065502)
AC7F  04                 const type 4
AC80  0B                 string size (11)
AC81  696E737469676174+  "instigat"
AC89  6F7200             "or\0"
                         const [16]: "instigator"
AC8C  04                 const type 4
AC8D  09                 string size (9)
AC8E  6166666563746564+  "affected"
AC96  00                 "\0"
                         const [17]: "affected"
AC97  04                 const type 4
AC98  09                 string size (9)
AC99  6275666654797065+  "buffType"
ACA1  00                 "\0"
                         const [18]: "buffType"
ACA2  04                 const type 4
ACA3  0A                 string size (10)
ACA4  42545F414D4F554E+  "BT_AMOUN"
ACAC  5400               "T\0"
                         const [19]: "BT_AMOUNT"
ACAE  04                 const type 4
ACAF  0C                 string size (12)
ACB0  6162696C69747954+  "abilityT"
ACB8  79706500           "ype\0"
                         const [20]: "abilityType"
ACBC  01                 const type 3
ACBD  29D4002C           const [21]: (738251817)
ACC1  04                 const type 4
ACC2  3A                 string size (58)
ACC3  2F4C6F7475732F55+  "/Lotus/U"
ACCB  706772616465732F+  "pgrades/"
ACD3  466F6375732F506F+  "Focus/Po"
ACDB  7765722F41637469+  "wer/Acti"
ACE3  76652F4461736842+  "ve/DashB"
ACEB  7562626C65466F63+  "ubbleFoc"
ACF3  7573557067726164+  "usUpgrad"
ACFB  6500               "e\0"
                         const [22]: "/Lotus/Upgrades/Focus/Power/Active/DashBubbleFocusUpgrade"
ACFD  04                 const type 4
ACFE  09                 string size (9)
ACFF  6275666644617461+  "buffData"
AD07  00                 "\0"
                         const [23]: "buffData"
AD08  01                 const type 3
AD09  F811DC55           const [24]: (1440485880)
AD0D  01                 const type 3
AD0E  D6134F58           const [25]: (1481577430)
AD12  01                 const type 3
AD13  65770E40           const [26]: (1074689893)
AD17  01                 const type 3
AD18  025A115A           const [27]: (1511086594)
AD1C  01                 const type 3
AD1D  9315337C           const [28]: (2083722643)
AD21  01                 const type 3
AD22  EA911120           const [29]: (538022378)
AD26  03                 const type 3
AD27  0000803E           const [30]: (0)
AD2B  01                 const type 3
AD2C  250E745A           const [31]: (1517555237)
AD30  01                 const type 3
AD31  5654A15C           const [32]: (1554076758)
AD35  01                 const type 3
AD36  B9111B3B           const [33]: (991629753)
AD3A  04                 const type 4
AD3B  10                 string size (16)
AD3C  42545F414D4F554E+  "BT_AMOUN"
AD44  545F54494D455200   "T_TIMER\0"
                         const [34]: "BT_AMOUNT_TIMER"
AD4C  04                 const type 4
AD4D  0E                 string size (14)
AD4E  6275666644617461+  "buffData"
AD56  457874726100       "Extra\0"
                         const [35]: "buffDataExtra"
AD5C  03                 const type 3
AD5D  00000000           const [36]: (0)
AD61  01                 const type 3
AD62  FFF9DE4C           const [37]: (1289681407)
AD66  01                 const type 3
AD67  A75515F2           const [38]: (-233482841)
                         * functions:
AD6B  00                 sizep (0)
                         * lines:
AD6D  01                 sizelineinfo (169)
                         [pc] (line)
AD6E  79                 [001] (121)
AD6F  06                 [002] (121)
AD70  00                 [003] (121)
AD71  00                 [004] (121)
AD72  79                 [005] (121)
AD73  06                 [006] (121)
AD74  00                 [007] (122)
AD75  00                 [008] (125)
AD76  79                 [009] (125)
AD77  06                 [010] (126)
AD78  00                 [011] (126)
AD79  00                 [012] (126)
AD7A  79                 [013] (127)
AD7B  06                 [014] (127)
AD7C  00                 [015] (127)
AD7D  00                 [016] (-128)
AD7E  79                 [017] (-128)
AD7F  06                 [018] (-128)
AD80  00                 [019] (-128)
AD81  00                 [020] (-128)
AD82  79                 [021] (-127)
AD83  06                 [022] (-124)
AD84  00                 [023] (-124)
AD85  00                 [024] (-123)
AD86  7A                 [025] (-123)
AD87  06                 [026] (-123)
AD88  00                 [027] (-123)
AD89  00                 [028] (-123)
AD8A  7D                 [029] (-123)
AD8B  06                 [030] (-123)
AD8C  00                 [031] (-123)
AD8D  00                 [032] (-123)
AD8E  7D                 [033] (-121)
AD8F  06                 [034] (-121)
AD90  00                 [035] (-121)
AD91  00                 [036] (-120)
AD92  7E                 [037] (-119)
AD93  06                 [038] (-119)
AD94  00                 [039] (-119)
AD95  00                 [040] (-119)
AD96  7E                 [041] (-118)
AD97  06                 [042] (-118)
AD98  00                 [043] (-118)
AD99  00                 [044] (-117)
AD9A  7E                 [045] (-117)
AD9B  06                 [046] (-117)
AD9C  00                 [047] (-117)
AD9D  00                 [048] (-116)
AD9E  7F                 [049] (-116)
AD9F  06                 [050] (-116)
ADA0  00                 [051] (-116)
ADA1  00                 [052] (-116)
ADA2  7F                 [053] (-115)
ADA3  06                 [054] (-115)
ADA4  00                 [055] (-115)
ADA5  00                 [056] (-115)
ADA6  7F                 [057] (-115)
ADA7  06                 [058] (-112)
ADA8  00                 [059] (-112)
ADA9  00                 [060] (-112)
ADAA  80                 [061] (-112)
ADAB  06                 [062] (-112)
ADAC  00                 [063] (-111)
ADAD  00                 [064] (-111)
ADAE  80                 [065] (-111)
ADAF  06                 [066] (-111)
ADB0  00                 [067] (-110)
ADB1  00                 [068] (-110)
ADB2  80                 [069] (-110)
ADB3  06                 [070] (-110)
ADB4  00                 [071] (-110)
ADB5  00                 [072] (-109)
ADB6  80                 [073] (-109)
ADB7  06                 [074] (-109)
ADB8  00                 [075] (-109)
ADB9  00                 [076] (-109)
ADBA  80                 [077] (-107)
ADBB  06                 [078] (-107)
ADBC  00                 [079] (-107)
ADBD  00                 [080] (-107)
ADBE  81                 [081] (-104)
ADBF  06                 [082] (-104)
ADC0  00                 [083] (-104)
ADC1  00                 [084] (-104)
ADC2  84                 [085] (-104)
ADC3  06                 [086] (-104)
ADC4  00                 [087] (-104)
ADC5  00                 [088] (-104)
ADC6  84                 [089] (-104)
ADC7  06                 [090] (-103)
ADC8  00                 [091] (-100)
ADC9  00                 [092] (-100)
ADCA  85                 [093] (-100)
ADCB  06                 [094] (-100)
ADCC  00                 [095] (-100)
ADCD  00                 [096] (-100)
ADCE  85                 [097] (-100)
ADCF  06                 [098] (-100)
ADD0  00                 [099] (-100)
ADD1  00                 [100] (-99)
ADD2  85                 [101] (-99)
ADD3  06                 [102] (-99)
ADD4  00                 [103] (-99)
ADD5  00                 [104] (-99)
ADD6  85                 [105] (-99)
ADD7  06                 [106] (-98)
ADD8  00                 [107] (-98)
ADD9  00                 [108] (-98)
ADDA  85                 [109] (-98)
ADDB  06                 [110] (-97)
ADDC  00                 [111] (-97)
ADDD  00                 [112] (-97)
ADDE  85                 [113] (-96)
ADDF  06                 [114] (-95)
ADE0  00                 [115] (-95)
ADE1  00                 [116] (-95)
ADE2  85                 [117] (-95)
ADE3  06                 [118] (-95)
ADE4  00                 [119] (-93)
ADE5  00                 [120] (-90)
ADE6  85                 [121] (-90)
ADE7  06                 [122] (-90)
ADE8  00                 [123] (-90)
ADE9  00                 [124] (-90)
ADEA  85                 [125] (-90)
ADEB  06                 [126] (-90)
ADEC  00                 [127] (-88)
ADED  00                 [128] (-88)
ADEE  87                 [129] (-88)
ADEF  06                 [130] (-87)
ADF0  00                 [131] (-86)
ADF1  00                 [132] (-85)
ADF2  87                 [133] (-85)
ADF3  06                 [134] (-85)
ADF4  00                 [135] (-85)
ADF5  00                 [136] (-85)
ADF6  87                 [137] (-82)
ADF7  06                 [138] (-82)
ADF8  00                 [139] (-81)
ADF9  00                 [140] (-81)
ADFA  88                 [141] (-81)
ADFB  06                 [142] (-81)
ADFC  00                 [143] (-81)
ADFD  00                 [144] (-80)
ADFE  89                 [145] (-80)
ADFF  06                 [146] (-80)
AE00  00                 [147] (-80)
AE01  00                 [148] (-80)
AE02  89                 [149] (-80)
AE03  06                 [150] (-78)
AE04  00                 [151] (-78)
AE05  00                 [152] (-78)
AE06  89                 [153] (-77)
AE07  06                 [154] (-77)
AE08  00                 [155] (-77)
AE09  00                 [156] (-77)
AE0A  89                 [157] (-74)
AE0B  06                 [158] (-74)
AE0C  00                 [159] (-74)
AE0D  00                 [160] (-74)
AE0E  8A                 [161] (-74)
AE0F  06                 [162] (-73)
AE10  00                 [163] (-73)
AE11  00                 [164] (-73)
AE12  8A                 [165] (-73)
AE13  06                 [166] (-73)
AE14  00                 [167] (-73)
AE15  00                 [168] (-73)
AE16  8A                 [169] (-71)
                         * locals:
B012  00                 sizelocvars (0)
                         * upvalues:
B013  00                 sizeupvalues (0)
                         ** end of function **

                         
B014                     ** function [27] definition (level 2)
                         ** start of function **
B014  00                 string size (0)
                         source name: (none)
B016  0D                 line defined (1723)
B017  C4                 last line defined (1732)
B018  0D                 nups (3)
B019  03                 numparams (1)
B01A  01                 is_vararg (0)
B01B  00                 maxstacksize (9)
                         * code:
B01D  1D                 sizecode (29)
B01E  5D000000           [01] getglobal  1   0        ; 538022378
B022  99400000           [02] loadk      2   1        ; 0
B026  62400001           [03] call       1   2   1  
B02A  64804000           [04] self       1   0   258  ; 129677183
B02E  62800001           [05] call       1   2   2  
B032  9DC00000           [06] getglobal  2   3        ; 1074689893
B036  D2008000           [07] move       3   1      
B03A  A2800001           [08] call       2   2   2  
B03E  98000000           [09] test       2       0    ; to [11] if true
B042  1A000080           [10] jmp        1            ; to [12]
B046  1E008000           [11] return     0   1      
B04A  93000000           [12] getupval   2   0      
B04E  8E004101           [13] gettable   2   2   260  ; -75093794
B052  D2008000           [14] move       3   1      
B056  13018000           [15] getupval   4   1      
B05A  0E414102           [16] gettable   4   4   261  ; "tag"
B05E  53018000           [17] getupval   5   1      
B062  4E81C102           [18] gettable   5   5   262  ; "radius"
B066  A2800002           [19] call       2   4   2  
B06A  E4C04100           [20] self       3   0   263  ; -786111647
B06E  53010001           [21] getupval   5   2      
B072  93018000           [22] getupval   6   1      
B076  8E814103           [23] gettable   6   6   262  ; "radius"
B07A  8E810003           [24] gettable   6   6   2  
B07E  9C014203           [25] div        6   6   264  ; 0
B082  D9410200           [26] loadk      7   9        ; -102
B086  19820200           [27] loadk      8   10       ; -51
B08A  E2400003           [28] call       3   6   1  
B08E  1E008000           [29] return     0   1      
                         * constants:
B092  0B                 sizek (11)
B093  01                 const type 3
B094  EA911120           const [0]: (538022378)
B098  03                 const type 3
B099  00000000           const [1]: (0)
B09D  01                 const type 3
B09E  7FB7BA07           const [2]: (129677183)
B0A2  01                 const type 3
B0A3  65770E40           const [3]: (1074689893)
B0A7  01                 const type 3
B0A8  DE2886FB           const [4]: (-75093794)
B0AC  04                 const type 4
B0AD  04                 string size (4)
B0AE  74616700           "tag\0"
                         const [5]: "tag"
B0B2  04                 const type 4
B0B3  07                 string size (7)
B0B4  72616469757300     "radius\0"
                         const [6]: "radius"
B0BB  01                 const type 3
B0BC  61E324D1           const [7]: (-786111647)
B0C0  03                 const type 3
B0C1  00002040           const [8]: (0)
B0C5  03                 const type 3
B0C6  9A99993E           const [9]: (-102)
B0CA  03                 const type 3
B0CB  CDCC4C3E           const [10]: (-51)
                         * functions:
B0CF  00                 sizep (0)
                         * lines:
B0D0  1D                 sizelineinfo (29)
                         [pc] (line)
B0D1  BC                 [01] (-68)
B0D2  06                 [02] (-68)
B0D3  00                 [03] (-68)
B0D4  00                 [04] (-67)
B0D5  BC                 [05] (-67)
B0D6  06                 [06] (-66)
B0D7  00                 [07] (-66)
B0D8  00                 [08] (-66)
B0D9  BC                 [09] (-66)
B0DA  06                 [10] (-66)
B0DB  00                 [11] (-65)
B0DC  00                 [12] (-63)
B0DD  BD                 [13] (-63)
B0DE  06                 [14] (-63)
B0DF  00                 [15] (-63)
B0E0  00                 [16] (-63)
B0E1  BD                 [17] (-63)
B0E2  06                 [18] (-63)
B0E3  00                 [19] (-63)
B0E4  00                 [20] (-61)
B0E5  BE                 [21] (-61)
B0E6  06                 [22] (-61)
B0E7  00                 [23] (-61)
B0E8  00                 [24] (-61)
B0E9  BE                 [25] (-61)
B0EA  06                 [26] (-61)
B0EB  00                 [27] (-61)
B0EC  00                 [28] (-61)
B0ED  BE                 [29] (-60)
                         * locals:
B145  00                 sizelocvars (0)
                         * upvalues:
B146  00                 sizeupvalues (0)
                         ** end of function **

                         * lines:
B148  04                 sizelineinfo (545)
                         [pc] (line)
B149  3E                 [001] (62)
B14A  00                 [002] (62)
B14B  00                 [003] (62)
B14C  00                 [004] (63)
B14D  3E                 [005] (63)
B14E  00                 [006] (63)
B14F  00                 [007] (64)
B150  00                 [008] (64)
B151  3E                 [009] (64)
B152  00                 [010] (65)
B153  00                 [011] (65)
B154  00                 [012] (65)
B155  3F                 [013] (71)
B156  00                 [014] (72)
B157  00                 [015] (72)
B158  00                 [016] (72)
B159  3F                 [017] (72)
B15A  00                 [018] (73)
B15B  00                 [019] (73)
B15C  00                 [020] (73)
B15D  3F                 [021] (73)
B15E  00                 [022] (73)
B15F  00                 [023] (73)
B160  00                 [024] (73)
B161  40                 [025] (74)
B162  00                 [026] (74)
B163  00                 [027] (74)
B164  00                 [028] (74)
B165  40                 [029] (74)
B166  00                 [030] (74)
B167  00                 [031] (74)
B168  00                 [032] (75)
B169  40                 [033] (75)
B16A  00                 [034] (75)
B16B  00                 [035] (75)
B16C  00                 [036] (75)
B16D  41                 [037] (75)
B16E  00                 [038] (75)
B16F  00                 [039] (79)
B170  00                 [040] (80)
B171  41                 [041] (80)
B172  00                 [042] (80)
B173  00                 [043] (80)
B174  00                 [044] (81)
B175  41                 [045] (81)
B176  00                 [046] (81)
B177  00                 [047] (81)
B178  00                 [048] (81)
B179  47                 [049] (81)
B17A  00                 [050] (81)
B17B  00                 [051] (81)
B17C  00                 [052] (81)
B17D  48                 [053] (82)
B17E  00                 [054] (82)
B17F  00                 [055] (82)
B180  00                 [056] (82)
B181  48                 [057] (82)
B182  00                 [058] (82)
B183  00                 [059] (82)
B184  00                 [060] (82)
B185  48                 [061] (82)
B186  00                 [062] (83)
B187  00                 [063] (83)
B188  00                 [064] (83)
B189  48                 [065] (83)
B18A  00                 [066] (83)
B18B  00                 [067] (83)
B18C  00                 [068] (83)
B18D  49                 [069] (83)
B18E  00                 [070] (83)
B18F  00                 [071] (87)
B190  00                 [072] (88)
B191  49                 [073] (88)
B192  00                 [074] (88)
B193  00                 [075] (88)
B194  00                 [076] (89)
B195  49                 [077] (89)
B196  00                 [078] (89)
B197  00                 [079] (89)
B198  00                 [080] (89)
B199  49                 [081] (89)
B19A  00                 [082] (89)
B19B  00                 [083] (89)
B19C  00                 [084] (89)
B19D  49                 [085] (90)
B19E  00                 [086] (90)
B19F  00                 [087] (90)
B1A0  00                 [088] (90)
B1A1  49                 [089] (90)
B1A2  00                 [090] (90)
B1A3  00                 [091] (90)
B1A4  00                 [092] (90)
B1A5  49                 [093] (90)
B1A6  00                 [094] (96)
B1A7  00                 [095] (97)
B1A8  00                 [096] (97)
B1A9  4A                 [097] (97)
B1AA  00                 [098] (97)
B1AB  00                 [099] (98)
B1AC  00                 [100] (98)
B1AD  4A                 [101] (98)
B1AE  00                 [102] (98)
B1AF  00                 [103] (98)
B1B0  00                 [104] (98)
B1B1  4A                 [105] (98)
B1B2  00                 [106] (99)
B1B3  00                 [107] (99)
B1B4  00                 [108] (99)
B1B5  4A                 [109] (99)
B1B6  00                 [110] (99)
B1B7  00                 [111] (99)
B1B8  00                 [112] (99)
B1B9  4A                 [113] (102)
B1BA  00                 [114] (103)
B1BB  00                 [115] (103)
B1BC  00                 [116] (103)
B1BD  4A                 [117] (103)
B1BE  00                 [118] (104)
B1BF  00                 [119] (104)
B1C0  00                 [120] (104)
B1C1  4A                 [121] (104)
B1C2  00                 [122] (104)
B1C3  00                 [123] (104)
B1C4  00                 [124] (104)
B1C5  4B                 [125] (105)
B1C6  00                 [126] (106)
B1C7  00                 [127] (106)
B1C8  00                 [128] (106)
B1C9  4B                 [129] (106)
B1CA  00                 [130] (106)
B1CB  00                 [131] (106)
B1CC  00                 [132] (106)
B1CD  4B                 [133] (109)
B1CE  00                 [134] (110)
B1CF  00                 [135] (110)
B1D0  00                 [136] (110)
B1D1  4B                 [137] (110)
B1D2  00                 [138] (111)
B1D3  00                 [139] (112)
B1D4  00                 [140] (112)
B1D5  4B                 [141] (112)
B1D6  00                 [142] (112)
B1D7  00                 [143] (112)
B1D8  00                 [144] (112)
B1D9  4B                 [145] (112)
B1DA  00                 [146] (113)
B1DB  00                 [147] (113)
B1DC  00                 [148] (113)
B1DD  4B                 [149] (113)
B1DE  00                 [150] (113)
B1DF  00                 [151] (113)
B1E0  00                 [152] (113)
B1E1  4F                 [153] (119)
B1E2  00                 [154] (120)
B1E3  00                 [155] (120)
B1E4  00                 [156] (120)
B1E5  50                 [157] (120)
B1E6  00                 [158] (121)
B1E7  00                 [159] (121)
B1E8  00                 [160] (121)
B1E9  50                 [161] (121)
B1EA  00                 [162] (121)
B1EB  00                 [163] (121)
B1EC  00                 [164] (121)
B1ED  50                 [165] (122)
B1EE  00                 [166] (122)
B1EF  00                 [167] (122)
B1F0  00                 [168] (122)
B1F1  50                 [169] (122)
B1F2  00                 [170] (122)
B1F3  00                 [171] (122)
B1F4  00                 [172] (123)
B1F5  51                 [173] (123)
B1F6  00                 [174] (123)
B1F7  00                 [175] (123)
B1F8  00                 [176] (123)
B1F9  51                 [177] (123)
B1FA  00                 [178] (123)
B1FB  00                 [179] (126)
B1FC  00                 [180] (127)
B1FD  51                 [181] (127)
B1FE  00                 [182] (127)
B1FF  00                 [183] (127)
B200  00                 [184] (-128)
B201  51                 [185] (-128)
B202  00                 [186] (-128)
B203  00                 [187] (-128)
B204  00                 [188] (-128)
B205  51                 [189] (-128)
B206  00                 [190] (-128)
B207  00                 [191] (-127)
B208  00                 [192] (-127)
B209  51                 [193] (-127)
B20A  00                 [194] (-127)
B20B  00                 [195] (-127)
B20C  00                 [196] (-127)
B20D  51                 [197] (-127)
B20E  00                 [198] (-124)
B20F  00                 [199] (-123)
B210  00                 [200] (-123)
B211  51                 [201] (-123)
B212  00                 [202] (-123)
B213  00                 [203] (-122)
B214  00                 [204] (-122)
B215  51                 [205] (-122)
B216  00                 [206] (-122)
B217  00                 [207] (-122)
B218  00                 [208] (-122)
B219  52                 [209] (-122)
B21A  00                 [210] (-122)
B21B  00                 [211] (-122)
B21C  00                 [212] (-121)
B21D  52                 [213] (-121)
B21E  00                 [214] (-121)
B21F  00                 [215] (-121)
B220  00                 [216] (-121)
B221  52                 [217] (-121)
B222  00                 [218] (-121)
B223  00                 [219] (-121)
B224  00                 [220] (-121)
B225  52                 [221] (-120)
B226  00                 [222] (-120)
B227  00                 [223] (-120)
B228  00                 [224] (-120)
B229  52                 [225] (-120)
B22A  00                 [226] (-120)
B22B  00                 [227] (-120)
B22C  00                 [228] (-120)
B22D  52                 [229] (-120)
B22E  00                 [230] (-119)
B22F  00                 [231] (-116)
B230  00                 [232] (-115)
B231  52                 [233] (-115)
B232  00                 [234] (-115)
B233  00                 [235] (-115)
B234  00                 [236] (-114)
B235  52                 [237] (-113)
B236  00                 [238] (-112)
B237  00                 [239] (-112)
B238  00                 [240] (-112)
B239  52                 [241] (-112)
B23A  00                 [242] (-112)
B23B  00                 [243] (-112)
B23C  00                 [244] (-112)
B23D  53                 [245] (-111)
B23E  00                 [246] (-111)
B23F  00                 [247] (-111)
B240  00                 [248] (-111)
B241  53                 [249] (-111)
B242  00                 [250] (-111)
B243  00                 [251] (-111)
B244  00                 [252] (-110)
B245  53                 [253] (-109)
B246  00                 [254] (-109)
B247  00                 [255] (-109)
B248  00                 [256] (-109)
B249  53                 [257] (-109)
B24A  00                 [258] (-109)
B24B  00                 [259] (-109)
B24C  00                 [260] (-103)
B24D  53                 [261] (-102)
B24E  00                 [262] (-102)
B24F  00                 [263] (-102)
B250  00                 [264] (-102)
B251  53                 [265] (-101)
B252  00                 [266] (-101)
B253  00                 [267] (-101)
B254  00                 [268] (-101)
B255  53                 [269] (-101)
B256  00                 [270] (-101)
B257  00                 [271] (-101)
B258  00                 [272] (-100)
B259  53                 [273] (-100)
B25A  00                 [274] (-100)
B25B  00                 [275] (-100)
B25C  00                 [276] (-100)
B25D  53                 [277] (-100)
B25E  00                 [278] (-100)
B25F  00                 [279] (-99)
B260  00                 [280] (-99)
B261  57                 [281] (-99)
B262  00                 [282] (-99)
B263  00                 [283] (-99)
B264  00                 [284] (-99)
B265  58                 [285] (-99)
B266  00                 [286] (-98)
B267  00                 [287] (-98)
B268  00                 [288] (-98)
B269  58                 [289] (-98)
B26A  00                 [290] (-98)
B26B  00                 [291] (-98)
B26C  00                 [292] (-98)
B26D  58                 [293] (-95)
B26E  00                 [294] (-94)
B26F  00                 [295] (-94)
B270  00                 [296] (-94)
B271  58                 [297] (-94)
B272  00                 [298] (-93)
B273  00                 [299] (-93)
B274  00                 [300] (-93)
B275  59                 [301] (-93)
B276  00                 [302] (-93)
B277  00                 [303] (-93)
B278  00                 [304] (-93)
B279  59                 [305] (-92)
B27A  00                 [306] (-92)
B27B  00                 [307] (-92)
B27C  00                 [308] (-92)
B27D  59                 [309] (-92)
B27E  00                 [310] (-92)
B27F  00                 [311] (-92)
B280  00                 [312] (-91)
B281  59                 [313] (-91)
B282  00                 [314] (-91)
B283  00                 [315] (-91)
B284  00                 [316] (-91)
B285  59                 [317] (-91)
B286  00                 [318] (-91)
B287  00                 [319] (-87)
B288  00                 [320] (-86)
B289  59                 [321] (-86)
B28A  00                 [322] (-86)
B28B  00                 [323] (-86)
B28C  00                 [324] (-85)
B28D  59                 [325] (-85)
B28E  00                 [326] (-85)
B28F  00                 [327] (-85)
B290  00                 [328] (-85)
B291  59                 [329] (-85)
B292  00                 [330] (-85)
B293  00                 [331] (-84)
B294  00                 [332] (-84)
B295  59                 [333] (-84)
B296  00                 [334] (-84)
B297  00                 [335] (-84)
B298  00                 [336] (-84)
B299  5A                 [337] (-84)
B29A  00                 [338] (-78)
B29B  00                 [339] (-77)
B29C  00                 [340] (-77)
B29D  5A                 [341] (-77)
B29E  00                 [342] (-77)
B29F  00                 [343] (-76)
B2A0  00                 [344] (-76)
B2A1  5A                 [345] (-76)
B2A2  00                 [346] (-76)
B2A3  00                 [347] (-76)
B2A4  00                 [348] (-76)
B2A5  5A                 [349] (-76)
B2A6  00                 [350] (-74)
B2A7  00                 [351] (-74)
B2A8  00                 [352] (-74)
B2A9  5A                 [353] (-74)
B2AA  00                 [354] (-74)
B2AB  00                 [355] (-74)
B2AC  00                 [356] (-74)
B2AD  5A                 [357] (-73)
B2AE  00                 [358] (-73)
B2AF  00                 [359] (-73)
B2B0  00                 [360] (-73)
B2B1  5A                 [361] (-73)
B2B2  00                 [362] (-73)
B2B3  00                 [363] (-73)
B2B4  00                 [364] (-70)
B2B5  5A                 [365] (-69)
B2B6  00                 [366] (-69)
B2B7  00                 [367] (-69)
B2B8  00                 [368] (-69)
B2B9  5A                 [369] (-68)
B2BA  00                 [370] (-68)
B2BB  00                 [371] (-68)
B2BC  00                 [372] (-68)
B2BD  60                 [373] (-68)
B2BE  00                 [374] (-68)
B2BF  00                 [375] (-68)
B2C0  00                 [376] (-66)
B2C1  61                 [377] (-66)
B2C2  00                 [378] (-66)
B2C3  00                 [379] (-66)
B2C4  00                 [380] (-66)
B2C5  61                 [381] (-66)
B2C6  00                 [382] (-66)
B2C7  00                 [383] (-63)
B2C8  00                 [384] (-62)
B2C9  61                 [385] (-62)
B2CA  00                 [386] (-62)
B2CB  00                 [387] (-62)
B2CC  00                 [388] (-61)
B2CD  61                 [389] (-61)
B2CE  00                 [390] (-61)
B2CF  00                 [391] (-61)
B2D0  00                 [392] (-61)
B2D1  62                 [393] (-61)
B2D2  00                 [394] (-61)
B2D3  00                 [395] (-61)
B2D4  00                 [396] (-61)
B2D5  62                 [397] (-58)
B2D6  00                 [398] (-57)
B2D7  00                 [399] (-57)
B2D8  00                 [400] (-57)
B2D9  62                 [401] (-57)
B2DA  00                 [402] (-56)
B2DB  00                 [403] (-56)
B2DC  00                 [404] (-56)
B2DD  62                 [405] (-56)
B2DE  00                 [406] (-56)
B2DF  00                 [407] (-56)
B2E0  00                 [408] (-56)
B2E1  62                 [409] (-56)
B2E2  00                 [410] (-56)
B2E3  00                 [411] (96)
B2E4  00                 [412] (96)
B2E5  62                 [413] (96)
B2E6  00                 [414] (96)
B2E7  00                 [415] (96)
B2E8  00                 [416] (96)
B2E9  62                 [417] (96)
B2EA  00                 [418] (96)
B2EB  00                 [419] (96)
B2EC  00                 [420] (96)
B2ED  63                 [421] (96)
B2EE  00                 [422] (96)
B2EF  00                 [423] (96)
B2F0  00                 [424] (96)
B2F1  63                 [425] (96)
B2F2  00                 [426] (96)
B2F3  00                 [427] (96)
B2F4  00                 [428] (96)
B2F5  63                 [429] (-52)
B2F6  00                 [430] (102)
B2F7  00                 [431] (-113)
B2F8  00                 [432] (-45)
B2F9  63                 [433] (-45)
B2FA  00                 [434] (-45)
B2FB  00                 [435] (-45)
B2FC  00                 [436] (-45)
B2FD  63                 [437] (-111)
B2FE  00                 [438] (0)
B2FF  00                 [439] (0)
B300  00                 [440] (0)
B301  63                 [441] (0)
B302  00                 [442] (-43)
B303  00                 [443] (28)
B304  00                 [444] (28)
B305  63                 [445] (80)
B306  00                 [446] (80)
B307  00                 [447] (-68)
B308  00                 [448] (-68)
B309  66                 [449] (-68)
B30A  00                 [450] (-68)
B30B  00                 [451] (82)
B30C  00                 [452] (-16)
B30D  67                 [453] (-16)
B30E  00                 [454] (15)
B30F  00                 [455] (15)
B310  00                 [456] (31)
B311  67                 [457] (31)
B312  00                 [458] (17)
B313  00                 [459] (48)
B314  00                 [460] (118)
B315  67                 [461] (118)
B316  00                 [462] (118)
B317  00                 [463] (118)
B318  00                 [464] (118)
B319  67                 [465] (50)
B31A  00                 [466] (-110)
B31B  00                 [467] (-110)
B31C  00                 [468] (-52)
B31D  68                 [469] (-52)
B31E  00                 [470] (-52)
B31F  00                 [471] (-52)
B320  00                 [472] (-52)
B321  68                 [473] (-108)
B322  00                 [474] (-35)
B323  00                 [475] (-25)
B324  00                 [476] (41)
B325  68                 [477] (41)
B326  00                 [478] (41)
B327  00                 [479] (41)
B328  00                 [480] (-23)
B329  68                 [481] (72)
B32A  00                 [482] (32)
B32B  00                 [483] (32)
B32C  00                 [484] (32)
B32D  68                 [485] (32)
B32E  00                 [486] (32)
B32F  00                 [487] (32)
B330  00                 [488] (32)
B331  68                 [489] (32)
B332  00                 [490] (32)
B333  00                 [491] (32)
B334  00                 [492] (32)
B335  68                 [493] (32)
B336  00                 [494] (32)
B337  00                 [495] (32)
B338  00                 [496] (32)
B339  69                 [497] (32)
B33A  00                 [498] (32)
B33B  00                 [499] (32)
B33C  00                 [500] (32)
B33D  6A                 [501] (32)
B33E  00                 [502] (32)
B33F  00                 [503] (32)
B340  00                 [504] (32)
B341  6A                 [505] (32)
B342  00                 [506] (32)
B343  00                 [507] (32)
B344  00                 [508] (32)
B345  6A                 [509] (32)
B346  00                 [510] (74)
B347  00                 [511] (42)
B348  00                 [512] (42)
B349  6A                 [513] (34)
B34A  00                 [514] (50)
B34B  00                 [515] (50)
B34C  00                 [516] (44)
B34D  6A                 [517] (61)
B34E  00                 [518] (61)
B34F  00                 [519] (61)
B350  00                 [520] (52)
B351  6A                 [521] (71)
B352  00                 [522] (71)
B353  00                 [523] (71)
B354  00                 [524] (63)
B355  6A                 [525] (95)
B356  00                 [526] (95)
B357  00                 [527] (95)
B358  00                 [528] (95)
B359  6D                 [529] (95)
B35A  00                 [530] (73)
B35B  00                 [531] (118)
B35C  00                 [532] (118)
B35D  6E                 [533] (118)
B35E  00                 [534] (97)
B35F  00                 [535] (-71)
B360  00                 [536] (-71)
B361  6E                 [537] (-71)
B362  00                 [538] (120)
B363  00                 [539] (-60)
B364  00                 [540] (-60)
B365  6E                 [541] (-60)
B366  00                 [542] (-60)
B367  00                 [543] (-60)
B368  00                 [544] (-69)
B369  6E                 [545] (-60)
                         * locals:
B9CD  00                 sizelocvars (0)
                         * upvalues:
B9CE  00                 sizeupvalues (0)
                         ** end of function **

B9CF                     ** end of chunk **
