1	C:\wlua_dump\path\Lotus\ScriptsBossAmbulasArena.lua
Pos   Hex Data           Description or Code
------------------------------------------------------------------------
0000                     ** source chunk: C:\wlua_dump\path\Lotus\ScriptsBossAmbulasArena.lua
                         ** global header start **
0000  7F                 header signature: ""
0001  00                 version (major:minor hex digits)
0002  00                 format (0=official)
0003  00                 endianness (1=little endian)
0004  00                 size of int (bytes)
0005  00                 size of size_t (bytes)
0006  02                 size of Instruction (bytes)
0007  22                 size of number (bytes)
0008  AF                 integral (1=integral)
4175
                         * number type: single
                         * x86 standard (32-bit, little endian, doubles)
                         ** global header end **
/Lotus/Language/Game/AmbulasSpawning
/Lotus/Language/Game/AmbulasMaxCount
/Lotus/Language/Game/AmbulasRemainingCount
/Lotus/Language/Game/AmbulasDelivery
/Lotus/Language/Game/AmbulasSecurityTeam
/Lotus/Types/Gameplay/Corpus/CargoMoverAttachPoint
/Lotus/Animations/Corpus/RiotMoa/RiotModeStart01_anim.fbx
/Lotus/Animations/Corpus/RiotMoa/RiotModeIdle_anim.fbx
Lotus.Interface.LotusUtilities
EE.Interface.Utilities
Lotus.Scripts.Libs.TransmissionSet
CargoShipTimer
RoundTimer
AmbulasRemaining
AmbulasHacked
AmbulasFightStage
AmbulasShipHealth
AmbulasShipMaxHealth
AmbulasFightCycle
AmbulasAddSpawning
AmbulasPlayerCount
AmbulasPickupStage
AmbulasMidFight
AmbulasHackOrders
gGameRules
gRegion
OnSpawned
BossHud
ReinforcementWave
SpawnSecurityTeam
SpawnDroneTeam
ReadyForPickup
StartTractorBeams
OnPlayersChanged
LockBossFight
ManageBossFight
math
SPAWNED PACK AVATAR
gRegion
AmbulasStartupLogic
AmbulasFightLogic
Execute
gGameRules
_T
AmbulasProgressBar
HT_PROGRESS_BAR
_G
UIColor_DarkBlue
AmbulasArenaHud
HT_LABEL
AmbulasFailureBar
HT_ICON_BAR
List
mCurrProgress
mCompletedColorObj
UIColor_Red
MaxAmbulasFailed
Rotation
/Lotus/Language/Menu/ProgressXOfY
CURRENT
TOTAL
mClipName
.Bg
_G
UIMaterial_RectangleNoDepth
Id
mCurrProgress
mCompletedColorObj
UIColorObject_White
RectInnerColor
r
g
b
RectEdgeColor
maxEnemyLevel
gRegion
ambulasAgentType
RandomTeam
ambulasBossMarkerInfo
EMPTY_SYMBOL
ZERO_VECTOR
ZERO_ROTATION
maxEnemyLevel
gRegion
ambulasAgentType
RandomTeam
ambulasBossMarkerInfo
EMPTY_SYMBOL
ZERO_VECTOR
ZERO_ROTATION
Advancing Ambulas fight stage to 
Resetting Ambulas fight stage to 
gRegion
ambulasAvatarType
gRegion
minEnemyLevel
table
addSpawnBuildingWest
addSpawnBuildingEast
addSpawnBuildingSouth
addSpawnCliffWest
addSpawnCliffEast
addsPhase1
addsPhase2
addsPhase3
maxAddSpawns
Ambulas
addSpawnFrequency
RandomTeam
hackingDroneType
hackingDroneAvatarType
gRegion
/Lotus/Sounds/Levels/Missions/Defense/DefenseWaveCleared

minEnemyLevel
table
addSpawnBuildingWest
addSpawnBuildingEast
addSpawnBuildingSouth
securityTeam
RandomTeam
gRegion
/Lotus/Sounds/Levels/Missions/Defense/DefenseWaveCleared

minEnemyLevel
table
addSpawnBuildingWest
addSpawnBuildingEast
addSpawnBuildingSouth
droneStrikeTeam
RandomTeam
gRegion
Starting Ambulas tractor beam on host
Starting Ambulas tractor beam on client
x
y
z
tractorBeamMoverEntity
tractorBeamBuffFX
tractorBeamBeamFX
GAME_C1_SPINE1
tractorBeamProjFX
EMPTY_SYMBOL
tractorBeamEndpointFX
gRegion
Starting Ambulas pickup on host
Starting Ambulas pickup on client
Engine
PM_HELD
ATMM_ANIMATION_DRIVEN
PRT_ONCE
PRT_LOOP
AMBULAS_TRACTOR_BEAM
tractorBeamBuffFX
GAME_C1_SPINE1
tractorBeamSeq
EMPTY_SYMBOL
gRegion
CargoShipTag
table
ambulasAvatarType
tractorBeamPulseSound
tractorBeamPulseFX
ZERO_ROTATION
tractorBeamPulseDeco
UnlitAtten
math
ReadyForPickup
Transporting Hacked Ambulas 
Transporting Unhacked Ambulas 
gRegion
gGameRules
gRegion
_T
InWorldTransmissionQueue
gGameRules
TransmissionSet
transmissionSet
OnPlayersChanged
MaxShipHealth
gBaseAvatarType
TENNO
AmbulasPack
gPromotedToHost
Ambulas
ambulasHackedMarkerInfo
EMPTY_SYMBOL
ZERO_VECTOR
ZERO_ROTATION
ambulasBossMarkerInfo
addSpawnerTrigger
Execute
AddArrivalTime
AirStrikeArrivalTime
CargoShipLaunchTime
CargoShipArrivalTime
CargoShipPickupTime
CargoShipReturnTime
StrikeTeamActiveTime
MaxAmbulasFailed
Spawning Boss 
AmbulasSpawnPoints
/Lotus/Sounds/Levels/Missions/Defense/DefenseWaveCleared

maxEnemyLevel
table
ambulasSpawnerFX
AmbulasSpawnAlarm
AmbulasBossLastOne
Spawning Adds 
Air Strike Starting 
CapitalShipAlarm
AmbulasBossOrbitalStrike
missileBarrageTrigger
orbitalLaserTrigger
Launching Cargo Ship!
AmbulasBossDropship
CargoShipSpawnPoint
Reset
Cargo Ship arrived 
tractorBeamTrigger
Cargo Ship delivering 
AmbulasBossPickup1
AmbulasBossPickup2
AmbulasBossPickup3
AmbulasBossPickup4
AmbulasBossPickupVictory
AmbulasUnhackedDelivered
Current Ship Health: 
Cargo Ship leaving 
AmbulasBossMidFight1
AmbulasBossMidFight2
droneTeamSpawnerTrigger
securityTeamSpawnerTrigger
AmbulasBossVictory4
AmbulasBossVictory3
capitalShipCinDeathTrigger
StartPlaying
Engine
GameRules_GS_FAILURE
AmbulasBossFailure
capitalShipCinLeaveTrigger
                         
0001                     ** function [0] definition (level 1)
                         ** start of function **
0001  00                 string size (0)
                         source name: (none)
0002  00                 line defined (0)
0003  00                 last line defined (0)
0004  00                 nups (0)
0005  00                 numparams (0)
0006  02                 is_vararg (2)
0007  22                 maxstacksize (34)
                         * code:
0009  01                 sizecode (175)
000A  19000000           [001] loadk      0   0        ; "/Lotus/Language/Game/AmbulasSpawning"
000E  59400000           [002] loadk      1   1        ; "/Lotus/Language/Game/AmbulasMaxCount"
0012  99800000           [003] loadk      2   2        ; "/Lotus/Language/Game/AmbulasRemainingCount"
0016  D9C00000           [004] loadk      3   3        ; "/Lotus/Language/Game/AmbulasDelivery"
001A  19010100           [005] loadk      4   4        ; "/Lotus/Language/Game/AmbulasSecurityTeam"
001E  5D410100           [006] getglobal  5   5        ; -895206725
0022  99810100           [007] loadk      6   6        ; "/Lotus/Types/Gameplay/Corpus/CargoMoverAttachPoint"
0026  62810001           [008] call       5   2   2  
002A  9DC10100           [009] getglobal  6   7        ; 2083004503
002E  D9010200           [010] loadk      7   8        ; "/Lotus/Animations/Corpus/RiotMoa/RiotModeStart01_anim.fbx"
0032  A2810001           [011] call       6   2   2  
0036  DDC10100           [012] getglobal  7   7        ; 2083004503
003A  19420200           [013] loadk      8   9        ; "/Lotus/Animations/Corpus/RiotMoa/RiotModeIdle_anim.fbx"
003E  E2810001           [014] call       7   2   2  
0042  1D820200           [015] getglobal  8   10       ; 849075268
0046  59C20200           [016] loadk      9   11       ; "Lotus.Interface.LotusUtilities"
004A  22820001           [017] call       8   2   2  
004E  5D820200           [018] getglobal  9   10       ; 849075268
0052  99020300           [019] loadk      10  12       ; "EE.Interface.Utilities"
0056  62820001           [020] call       9   2   2  
005A  9D820200           [021] getglobal  10  10       ; 849075268
005E  D9420300           [022] loadk      11  13       ; "Lotus.Scripts.Libs.TransmissionSet"
0062  A2820001           [023] call       10  2   2  
0066  DD820300           [024] getglobal  11  14       ; -332969190
006A  19C30300           [025] loadk      12  15       ; "CargoShipTimer"
006E  E2820001           [026] call       11  2   2  
0072  1D830300           [027] getglobal  12  14       ; -332969190
0076  59030400           [028] loadk      13  16       ; "RoundTimer"
007A  22830001           [029] call       12  2   2  
007E  5D830300           [030] getglobal  13  14       ; -332969190
0082  99430400           [031] loadk      14  17       ; "AmbulasRemaining"
0086  62830001           [032] call       13  2   2  
008A  9D830300           [033] getglobal  14  14       ; -332969190
008E  D9830400           [034] loadk      15  18       ; "AmbulasHacked"
0092  A2830001           [035] call       14  2   2  
0096  DD830300           [036] getglobal  15  14       ; -332969190
009A  19C40400           [037] loadk      16  19       ; "AmbulasFightStage"
009E  E2830001           [038] call       15  2   2  
00A2  1D840300           [039] getglobal  16  14       ; -332969190
00A6  59040500           [040] loadk      17  20       ; "AmbulasShipHealth"
00AA  22840001           [041] call       16  2   2  
00AE  5D840300           [042] getglobal  17  14       ; -332969190
00B2  99440500           [043] loadk      18  21       ; "AmbulasShipMaxHealth"
00B6  62840001           [044] call       17  2   2  
00BA  9D840300           [045] getglobal  18  14       ; -332969190
00BE  D9840500           [046] loadk      19  22       ; "AmbulasFightCycle"
00C2  A2840001           [047] call       18  2   2  
00C6  DD840300           [048] getglobal  19  14       ; -332969190
00CA  19C50500           [049] loadk      20  23       ; "AmbulasAddSpawning"
00CE  E2840001           [050] call       19  2   2  
00D2  1D850300           [051] getglobal  20  14       ; -332969190
00D6  59050600           [052] loadk      21  24       ; "AmbulasPlayerCount"
00DA  22850001           [053] call       20  2   2  
00DE  5D850300           [054] getglobal  21  14       ; -332969190
00E2  99450600           [055] loadk      22  25       ; "AmbulasPickupStage"
00E6  62850001           [056] call       21  2   2  
00EA  9D850300           [057] getglobal  22  14       ; -332969190
00EE  D9850600           [058] loadk      23  26       ; "AmbulasMidFight"
00F2  A2850001           [059] call       22  2   2  
00F6  DD850300           [060] getglobal  23  14       ; -332969190
00FA  19C60600           [061] loadk      24  27       ; "AmbulasHackOrders"
00FE  E2850001           [062] call       23  2   2  
0102  1D060700           [063] getglobal  24  28       ; gGameRules
0106  5D460700           [064] getglobal  25  29       ; gRegion
010A  6486C70C           [065] self       25  25  286  ; -774964848
010E  62860001           [066] call       25  2   2  
0112  9D460700           [067] getglobal  26  29       ; gRegion
0116  A486470D           [068] self       26  26  286  ; -774964848
011A  A2860001           [069] call       26  2   2  
011E  A4C6470D           [070] self       26  26  287  ; 537471347
0122  A2860001           [071] call       26  2   2  
0126  E5060000           [072] closure    27  0      
012A  25470000           [073] closure    28  1      
012E  20070800           [074] setglobal  28  32       ; OnSpawned
0132  20470800           [075] setglobal  28  33       ; -547350042
0136  25870000           [076] closure    28  2      
013A  1200000C           [077] move       0   24     
013E  12000004           [078] move       0   8      
0142  12008000           [079] move       0   1      
0146  12000001           [080] move       0   2      
014A  12008004           [081] move       0   9      
014E  12008007           [082] move       0   15     
0152  12008008           [083] move       0   17     
0156  12000008           [084] move       0   16     
015A  12008006           [085] move       0   13     
015E  20870800           [086] setglobal  28  34       ; BossHud
0162  20C70800           [087] setglobal  28  35       ; 1134177384
0166  25C70000           [088] closure    28  3      
016A  1200000C           [089] move       0   24     
016E  1200800C           [090] move       0   25     
0172  65070100           [091] closure    29  4      
0176  1200000C           [092] move       0   24     
017A  1200800C           [093] move       0   25     
017E  A5470100           [094] closure    30  5      
0182  1200000C           [095] move       0   24     
0186  12008007           [096] move       0   15     
018A  E5870100           [097] closure    31  6      
018E  1200000C           [098] move       0   24     
0192  12008007           [099] move       0   15     
0196  25C80100           [100] closure    32  7      
019A  1200000C           [101] move       0   24     
019E  12008009           [102] move       0   19     
01A2  12008008           [103] move       0   17     
01A6  12008007           [104] move       0   15     
01AA  12000008           [105] move       0   16     
01AE  1200000D           [106] move       0   26     
01B2  1200800C           [107] move       0   25     
01B6  20080900           [108] setglobal  32  36       ; ReinforcementWave
01BA  20480900           [109] setglobal  32  37       ; -265279914
01BE  25080200           [110] closure    32  8      
01C2  1200000C           [111] move       0   24     
01C6  12000002           [112] move       0   4      
01CA  12008008           [113] move       0   17     
01CE  12008007           [114] move       0   15     
01D2  12000008           [115] move       0   16     
01D6  1200800C           [116] move       0   25     
01DA  20880900           [117] setglobal  32  38       ; SpawnSecurityTeam
01DE  20C80900           [118] setglobal  32  39       ; -1172748932
01E2  25480200           [119] closure    32  9      
01E6  1200000C           [120] move       0   24     
01EA  12000002           [121] move       0   4      
01EE  12008008           [122] move       0   17     
01F2  12008007           [123] move       0   15     
01F6  12000008           [124] move       0   16     
01FA  1200800C           [125] move       0   25     
01FE  20080A00           [126] setglobal  32  40       ; SpawnDroneTeam
0202  20480A00           [127] setglobal  32  41       ; -1330093391
0206  25880200           [128] closure    32  10     
020A  65C80200           [129] closure    33  11     
020E  12000003           [130] move       0   6      
0212  12008003           [131] move       0   7      
0216  60880A00           [132] setglobal  33  42       ; ReadyForPickup
021A  60C80A00           [133] setglobal  33  43       ; 1078911238
021E  65080300           [134] closure    33  12     
0222  12008002           [135] move       0   5      
0226  1200000C           [136] move       0   24     
022A  12000007           [137] move       0   14     
022E  12008006           [138] move       0   13     
0232  12000010           [139] move       0   32     
0236  12008007           [140] move       0   15     
023A  1200000F           [141] move       0   30     
023E  60080B00           [142] setglobal  33  44       ; StartTractorBeams
0242  60480B00           [143] setglobal  33  45       ; -1703351059
0246  65480300           [144] closure    33  13     
024A  12008005           [145] move       0   11     
024E  60880B00           [146] setglobal  33  46       ; OnPlayersChanged
0252  60C80B00           [147] setglobal  33  47       ; 448974417
0256  65880300           [148] closure    33  14     
025A  60080C00           [149] setglobal  33  48       ; LockBossFight
025E  60480C00           [150] setglobal  33  49       ; 1134120431
0262  65C80300           [151] closure    33  15     
0266  1200000C           [152] move       0   24     
026A  12008007           [153] move       0   15     
026E  12008006           [154] move       0   13     
0272  12008008           [155] move       0   17     
0276  12000008           [156] move       0   16     
027A  12000007           [157] move       0   14     
027E  12000009           [158] move       0   18     
0282  12008009           [159] move       0   19     
0286  1200000A           [160] move       0   20     
028A  1200800A           [161] move       0   21     
028E  1200000B           [162] move       0   22     
0292  1200800B           [163] move       0   23     
0296  1200000F           [164] move       0   30     
029A  12008005           [165] move       0   11     
029E  1200000E           [166] move       0   28     
02A2  12000000           [167] move       0   0      
02A6  1200800E           [168] move       0   29     
02AA  12000005           [169] move       0   10     
02AE  12000006           [170] move       0   12     
02B2  12008001           [171] move       0   3      
02B6  1200800F           [172] move       0   31     
02BA  60880C00           [173] setglobal  33  50       ; ManageBossFight
02BE  60C80C00           [174] setglobal  33  51       ; -1043365624
02C2  1E008000           [175] return     0   1      
                         * constants:
02C6  34                 sizek (52)
02C7  04                 const type 4
02C8  25                 string size (37)
02C9  2F4C6F7475732F4C+  "/Lotus/L"
02D1  616E67756167652F+  "anguage/"
02D9  47616D652F416D62+  "Game/Amb"
02E1  756C617353706177+  "ulasSpaw"
02E9  6E696E6700         "ning\0"
                         const [0]: "/Lotus/Language/Game/AmbulasSpawning"
02EE  04                 const type 4
02EF  25                 string size (37)
02F0  2F4C6F7475732F4C+  "/Lotus/L"
02F8  616E67756167652F+  "anguage/"
0300  47616D652F416D62+  "Game/Amb"
0308  756C61734D617843+  "ulasMaxC"
0310  6F756E7400         "ount\0"
                         const [1]: "/Lotus/Language/Game/AmbulasMaxCount"
0315  04                 const type 4
0316  2B                 string size (43)
0317  2F4C6F7475732F4C+  "/Lotus/L"
031F  616E67756167652F+  "anguage/"
0327  47616D652F416D62+  "Game/Amb"
032F  756C617352656D61+  "ulasRema"
0337  696E696E67436F75+  "iningCou"
033F  6E7400             "nt\0"
                         const [2]: "/Lotus/Language/Game/AmbulasRemainingCount"
0342  04                 const type 4
0343  25                 string size (37)
0344  2F4C6F7475732F4C+  "/Lotus/L"
034C  616E67756167652F+  "anguage/"
0354  47616D652F416D62+  "Game/Amb"
035C  756C617344656C69+  "ulasDeli"
0364  7665727900         "very\0"
                         const [3]: "/Lotus/Language/Game/AmbulasDelivery"
0369  04                 const type 4
036A  29                 string size (41)
036B  2F4C6F7475732F4C+  "/Lotus/L"
0373  616E67756167652F+  "anguage/"
037B  47616D652F416D62+  "Game/Amb"
0383  756C617353656375+  "ulasSecu"
038B  726974795465616D+  "rityTeam"
0393  00                 "\0"
                         const [4]: "/Lotus/Language/Game/AmbulasSecurityTeam"
0394  01                 const type 3
0395  BB3AA4CA           const [5]: (-895206725)
0399  04                 const type 4
039A  33                 string size (51)
039B  2F4C6F7475732F54+  "/Lotus/T"
03A3  797065732F47616D+  "ypes/Gam"
03AB  65706C61792F436F+  "eplay/Co"
03B3  727075732F436172+  "rpus/Car"
03BB  676F4D6F76657241+  "goMoverA"
03C3  7474616368506F69+  "ttachPoi"
03CB  6E7400             "nt\0"
                         const [6]: "/Lotus/Types/Gameplay/Corpus/CargoMoverAttachPoint"
03CE  01                 const type 3
03CF  5720287C           const [7]: (2083004503)
03D3  04                 const type 4
03D4  3A                 string size (58)
03D5  2F4C6F7475732F41+  "/Lotus/A"
03DD  6E696D6174696F6E+  "nimation"
03E5  732F436F72707573+  "s/Corpus"
03ED  2F52696F744D6F61+  "/RiotMoa"
03F5  2F52696F744D6F64+  "/RiotMod"
03FD  6553746172743031+  "eStart01"
0405  5F616E696D2E6662+  "_anim.fb"
040D  7800               "x\0"
                         const [8]: "/Lotus/Animations/Corpus/RiotMoa/RiotModeStart01_anim.fbx"
040F  04                 const type 4
0410  37                 string size (55)
0411  2F4C6F7475732F41+  "/Lotus/A"
0419  6E696D6174696F6E+  "nimation"
0421  732F436F72707573+  "s/Corpus"
0429  2F52696F744D6F61+  "/RiotMoa"
0431  2F52696F744D6F64+  "/RiotMod"
0439  6549646C655F616E+  "eIdle_an"
0441  696D2E66627800     "im.fbx\0"
                         const [9]: "/Lotus/Animations/Corpus/RiotMoa/RiotModeIdle_anim.fbx"
0448  01                 const type 3
0449  44DC9B32           const [10]: (849075268)
044D  04                 const type 4
044E  1F                 string size (31)
044F  4C6F7475732E496E+  "Lotus.In"
0457  746572666163652E+  "terface."
045F  4C6F747573557469+  "LotusUti"
0467  6C697469657300     "lities\0"
                         const [11]: "Lotus.Interface.LotusUtilities"
046E  04                 const type 4
046F  17                 string size (23)
0470  45452E496E746572+  "EE.Inter"
0478  666163652E557469+  "face.Uti"
0480  6C697469657300     "lities\0"
                         const [12]: "EE.Interface.Utilities"
0487  04                 const type 4
0488  23                 string size (35)
0489  4C6F7475732E5363+  "Lotus.Sc"
0491  72697074732E4C69+  "ripts.Li"
0499  62732E5472616E73+  "bs.Trans"
04A1  6D697373696F6E53+  "missionS"
04A9  657400             "et\0"
                         const [13]: "Lotus.Scripts.Libs.TransmissionSet"
04AC  01                 const type 3
04AD  1A4B27EC           const [14]: (-332969190)
04B1  04                 const type 4
04B2  0F                 string size (15)
04B3  436172676F536869+  "CargoShi"
04BB  7054696D657200     "pTimer\0"
                         const [15]: "CargoShipTimer"
04C2  04                 const type 4
04C3  0B                 string size (11)
04C4  526F756E6454696D+  "RoundTim"
04CC  657200             "er\0"
                         const [16]: "RoundTimer"
04CF  04                 const type 4
04D0  11                 string size (17)
04D1  416D62756C617352+  "AmbulasR"
04D9  656D61696E696E67+  "emaining"
04E1  00                 "\0"
                         const [17]: "AmbulasRemaining"
04E2  04                 const type 4
04E3  0E                 string size (14)
04E4  416D62756C617348+  "AmbulasH"
04EC  61636B656400       "acked\0"
                         const [18]: "AmbulasHacked"
04F2  04                 const type 4
04F3  12                 string size (18)
04F4  416D62756C617346+  "AmbulasF"
04FC  6967687453746167+  "ightStag"
0504  6500               "e\0"
                         const [19]: "AmbulasFightStage"
0506  04                 const type 4
0507  12                 string size (18)
0508  416D62756C617353+  "AmbulasS"
0510  6869704865616C74+  "hipHealt"
0518  6800               "h\0"
                         const [20]: "AmbulasShipHealth"
051A  04                 const type 4
051B  15                 string size (21)
051C  416D62756C617353+  "AmbulasS"
0524  6869704D61784865+  "hipMaxHe"
052C  616C746800         "alth\0"
                         const [21]: "AmbulasShipMaxHealth"
0531  04                 const type 4
0532  12                 string size (18)
0533  416D62756C617346+  "AmbulasF"
053B  696768744379636C+  "ightCycl"
0543  6500               "e\0"
                         const [22]: "AmbulasFightCycle"
0545  04                 const type 4
0546  13                 string size (19)
0547  416D62756C617341+  "AmbulasA"
054F  6464537061776E69+  "ddSpawni"
0557  6E6700             "ng\0"
                         const [23]: "AmbulasAddSpawning"
055A  04                 const type 4
055B  13                 string size (19)
055C  416D62756C617350+  "AmbulasP"
0564  6C61796572436F75+  "layerCou"
056C  6E7400             "nt\0"
                         const [24]: "AmbulasPlayerCount"
056F  04                 const type 4
0570  13                 string size (19)
0571  416D62756C617350+  "AmbulasP"
0579  69636B7570537461+  "ickupSta"
0581  676500             "ge\0"
                         const [25]: "AmbulasPickupStage"
0584  04                 const type 4
0585  10                 string size (16)
0586  416D62756C61734D+  "AmbulasM"
058E  6964466967687400   "idFight\0"
                         const [26]: "AmbulasMidFight"
0596  04                 const type 4
0597  12                 string size (18)
0598  416D62756C617348+  "AmbulasH"
05A0  61636B4F72646572+  "ackOrder"
05A8  7300               "s\0"
                         const [27]: "AmbulasHackOrders"
05AA  04                 const type 4
05AB  0B                 string size (11)
05AC  6747616D6552756C+  "gGameRul"
05B4  657300             "es\0"
                         const [28]: "gGameRules"
05B7  04                 const type 4
05B8  08                 string size (8)
05B9  67526567696F6E00   "gRegion\0"
                         const [29]: "gRegion"
05C1  01                 const type 3
05C2  90F9CED1           const [30]: (-774964848)
05C6  01                 const type 3
05C7  73290920           const [31]: (537471347)
05CB  04                 const type 4
05CC  0A                 string size (10)
05CD  4F6E537061776E65+  "OnSpawne"
05D5  6400               "d\0"
                         const [32]: "OnSpawned"
05D7  01                 const type 3
05D8  E61960DF           const [33]: (-547350042)
05DC  04                 const type 4
05DD  08                 string size (8)
05DE  426F737348756400   "BossHud\0"
                         const [34]: "BossHud"
05E6  01                 const type 3
05E7  682C9A43           const [35]: (1134177384)
05EB  04                 const type 4
05EC  12                 string size (18)
05ED  5265696E666F7263+  "Reinforc"
05F5  656D656E74576176+  "ementWav"
05FD  6500               "e\0"
                         const [36]: "ReinforcementWave"
05FF  01                 const type 3
0600  562630F0           const [37]: (-265279914)
0604  04                 const type 4
0605  12                 string size (18)
0606  537061776E536563+  "SpawnSec"
060E  7572697479546561+  "urityTea"
0616  6D00               "m\0"
                         const [38]: "SpawnSecurityTeam"
0618  01                 const type 3
0619  7C4519BA           const [39]: (-1172748932)
061D  04                 const type 4
061E  0F                 string size (15)
061F  537061776E44726F+  "SpawnDro"
0627  6E655465616D00     "neTeam\0"
                         const [40]: "SpawnDroneTeam"
062E  01                 const type 3
062F  B162B8B0           const [41]: (-1330093391)
0633  04                 const type 4
0634  0F                 string size (15)
0635  5265616479466F72+  "ReadyFor"
063D  5069636B757000     "Pickup\0"
                         const [42]: "ReadyForPickup"
0644  01                 const type 3
0645  06E14E40           const [43]: (1078911238)
0649  04                 const type 4
064A  12                 string size (18)
064B  5374617274547261+  "StartTra"
0653  63746F724265616D+  "ctorBeam"
065B  7300               "s\0"
                         const [44]: "StartTractorBeams"
065D  01                 const type 3
065E  EDEC789A           const [45]: (-1703351059)
0662  04                 const type 4
0663  11                 string size (17)
0664  4F6E506C61796572+  "OnPlayer"
066C  734368616E676564+  "sChanged"
0674  00                 "\0"
                         const [46]: "OnPlayersChanged"
0675  01                 const type 3
0676  51CEC21A           const [47]: (448974417)
067A  04                 const type 4
067B  0E                 string size (14)
067C  4C6F636B426F7373+  "LockBoss"
0684  466967687400       "Fight\0"
                         const [48]: "LockBossFight"
068A  01                 const type 3
068B  EF4D9943           const [49]: (1134120431)
068F  04                 const type 4
0690  10                 string size (16)
0691  4D616E616765426F+  "ManageBo"
0699  7373466967687400   "ssFight\0"
                         const [50]: "ManageBossFight"
06A1  01                 const type 3
06A2  0881CFC1           const [51]: (-1043365624)
                         * functions:
06A6  10                 sizep (16)
                         
06A7                     ** function [0] definition (level 2)
                         ** start of function **
06A7  00                 string size (0)
                         source name: (none)
06A8  68                 line defined (104)
06A9  6B                 last line defined (107)
06AA  00                 nups (0)
06AB  02                 numparams (2)
06AC  00                 is_vararg (0)
06AD  05                 maxstacksize (5)
                         * code:
06AE  0C                 sizecode (12)
fail op	5
06AF  85408000           [01] getglobal  2   513      ; nil
06B3  1A000080           [02] jmp        1            ; to [4]
06B7  99000000           [03] loadk      2   0        ; 0
06BB  8F808080           [04] unm        2   257    
06BF  DD800000           [05] getglobal  3   2        ; math
06C3  CEC0C001           [06] gettable   3   3   259  ; -150971781
06C7  04810000           [07] mul        4   0   2  
06CB  03014102           [08] add        4   4   260  ; 0
06CF  E2800001           [09] call       3   2   2  
06D3  DC808001           [10] div        3   3   2  
06D7  DE000001           [11] return     3   2      
06DB  1E008000           [12] return     0   1      
                         * constants:
06DF  05                 sizek (5)
06E0  03                 const type 3
06E1  00000000           const [0]: (0)
06E5  03                 const type 3
06E6  00002041           const [1]: (0)
06EA  04                 const type 4
06EB  05                 string size (5)
06EC  6D61746800         "math\0"
                         const [2]: "math"
06F1  01                 const type 3
06F2  7B5A00F7           const [3]: (-150971781)
06F6  03                 const type 3
06F7  0000003F           const [4]: (0)
                         * functions:
06FB  00                 sizep (0)
                         * lines:
06FC  0C                 sizelineinfo (12)
                         [pc] (line)
06FD  69                 [01] (105)
06FE  00                 [02] (105)
06FF  00                 [03] (105)
0700  00                 [04] (105)
0701  69                 [05] (106)
0702  00                 [06] (106)
0703  00                 [07] (106)
0704  00                 [08] (106)
0705  69                 [09] (106)
0706  00                 [10] (106)
0707  00                 [11] (106)
0708  00                 [12] (107)
                         * locals:
072D  00                 sizelocvars (0)
                         * upvalues:
072E  00                 sizeupvalues (0)
                         ** end of function **

                         
072F                     ** function [1] definition (level 2)
                         ** start of function **
072F  00                 string size (0)
                         source name: (none)
0730  6D                 line defined (109)
0731  7E                 last line defined (126)
0732  00                 nups (0)
0733  01                 numparams (1)
0734  00                 is_vararg (0)
0735  06                 maxstacksize (6)
                         * code:
0736  2D                 sizecode (45)
0737  5D000000           [01] getglobal  1   0        ; -1817107093
073B  99400000           [02] loadk      2   1        ; "SPAWNED PACK AVATAR"
073F  62400001           [03] call       1   2   1  
0743  5D800000           [04] getglobal  1   2        ; 1074689893
0747  92000000           [05] move       2   0      
074B  62800001           [06] call       1   2   2  
074F  58400000           [07] test       1       1    ; to [9] if false
0753  1A400080           [08] jmp        2            ; to [11]
0757  64C04000           [09] self       1   0   259  ; 115701976
075B  62400001           [10] call       1   2   1  
075F  5D000100           [11] getglobal  1   4        ; gRegion
0763  6440C100           [12] self       1   1   261  ; -1485896174
0767  DD800100           [13] getglobal  3   6        ; -332969190
076B  19C10100           [14] loadk      4   7        ; "AmbulasStartupLogic"
076F  E2000001           [15] call       3   2   0  
0773  62800000           [16] call       1   0   2  
0777  9D000100           [17] getglobal  2   4        ; gRegion
077B  A4404101           [18] self       2   2   261  ; -1485896174
077F  1D810100           [19] getglobal  4   6        ; -332969190
0783  59010200           [20] loadk      5   8        ; "AmbulasFightLogic"
0787  22010001           [21] call       4   2   0  
078B  A2800000           [22] call       2   0   2  
078F  58000000           [23] test       1       0    ; to [25] if true
0793  1A000280           [24] jmp        9            ; to [34]
0797  DD800000           [25] getglobal  3   2        ; 1074689893
079B  0E41C200           [26] gettable   4   1   265  ; 0
079F  E2800001           [27] call       3   2   2  
07A3  D8400000           [28] test       3       1    ; to [30] if false
07A7  1AC00080           [29] jmp        4            ; to [34]
07AB  CE40C200           [30] gettable   3   1   265  ; 0
07AF  E480C201           [31] self       3   3   266  ; -1923578185
07B3  59C10200           [32] loadk      5   11       ; "Execute"
07B7  E2408001           [33] call       3   3   1  
07BB  98000000           [34] test       2       0    ; to [36] if true
07BF  1A000280           [35] jmp        9            ; to [45]
07C3  DD800000           [36] getglobal  3   2        ; 1074689893
07C7  0E414201           [37] gettable   4   2   265  ; 0
07CB  E2800001           [38] call       3   2   2  
07CF  D8400000           [39] test       3       1    ; to [41] if false
07D3  1AC00080           [40] jmp        4            ; to [45]
07D7  CE404201           [41] gettable   3   2   265  ; 0
07DB  E480C201           [42] self       3   3   266  ; -1923578185
07DF  59C10200           [43] loadk      5   11       ; "Execute"
07E3  E2408001           [44] call       3   3   1  
07E7  1E008000           [45] return     0   1      
                         * constants:
07EB  0C                 sizek (12)
07EC  01                 const type 3
07ED  6B25B193           const [0]: (-1817107093)
07F1  04                 const type 4
07F2  14                 string size (20)
07F3  535041574E454420+  "SPAWNED "
07FB  5041434B20415641+  "PACK AVA"
0803  54415200           "TAR\0"
                         const [1]: "SPAWNED PACK AVATAR"
0807  01                 const type 3
0808  65770E40           const [2]: (1074689893)
080C  01                 const type 3
080D  D878E506           const [3]: (115701976)
0811  04                 const type 4
0812  08                 string size (8)
0813  67526567696F6E00   "gRegion\0"
                         const [4]: "gRegion"
081B  01                 const type 3
081C  12066FA7           const [5]: (-1485896174)
0820  01                 const type 3
0821  1A4B27EC           const [6]: (-332969190)
0825  04                 const type 4
0826  14                 string size (20)
0827  416D62756C617353+  "AmbulasS"
082F  7461727475704C6F+  "tartupLo"
0837  67696300           "gic\0"
                         const [7]: "AmbulasStartupLogic"
083B  04                 const type 4
083C  12                 string size (18)
083D  416D62756C617346+  "AmbulasF"
0845  696768744C6F6769+  "ightLogi"
084D  6300               "c\0"
                         const [8]: "AmbulasFightLogic"
084F  03                 const type 3
0850  0000803F           const [9]: (0)
0854  01                 const type 3
0855  B786588D           const [10]: (-1923578185)
0859  04                 const type 4
085A  08                 string size (8)
085B  4578656375746500   "Execute\0"
                         const [11]: "Execute"
                         * functions:
0863  00                 sizep (0)
                         * lines:
0864  2D                 sizelineinfo (45)
                         [pc] (line)
0865  6E                 [01] (110)
0866  00                 [02] (110)
0867  00                 [03] (110)
0868  00                 [04] (112)
0869  6E                 [05] (112)
086A  00                 [06] (112)
086B  00                 [07] (112)
086C  00                 [08] (112)
086D  6E                 [09] (113)
086E  00                 [10] (113)
086F  00                 [11] (116)
0870  00                 [12] (116)
0871  70                 [13] (116)
0872  00                 [14] (116)
0873  00                 [15] (116)
0874  00                 [16] (116)
0875  70                 [17] (117)
0876  00                 [18] (117)
0877  00                 [19] (117)
0878  00                 [20] (117)
0879  70                 [21] (117)
087A  00                 [22] (117)
087B  00                 [23] (119)
087C  00                 [24] (119)
087D  70                 [25] (119)
087E  00                 [26] (119)
087F  00                 [27] (119)
0880  00                 [28] (119)
0881  70                 [29] (119)
0882  00                 [30] (120)
0883  00                 [31] (120)
0884  00                 [32] (120)
0885  71                 [33] (120)
0886  00                 [34] (123)
0887  00                 [35] (123)
0888  00                 [36] (123)
0889  71                 [37] (123)
088A  00                 [38] (123)
088B  00                 [39] (123)
088C  00                 [40] (123)
088D  74                 [41] (124)
088E  00                 [42] (124)
088F  00                 [43] (124)
0890  00                 [44] (124)
0891  74                 [45] (126)
                         * locals:
0919  00                 sizelocvars (0)
                         * upvalues:
091A  00                 sizeupvalues (0)
                         ** end of function **

                         
091B                     ** function [2] definition (level 2)
                         ** start of function **
091B  00                 string size (0)
                         source name: (none)
091D  01                 line defined (128)
091E  C3                 last line defined (195)
091F  01                 nups (9)
0920  09                 numparams (0)
0921  00                 is_vararg (0)
0922  00                 maxstacksize (16)
                         * code:
0925  01                 sizecode (161)
0926  1D000000           [001] getglobal  0   0        ; 1074689893
092A  53000000           [002] getupval   1   0      
092E  22800001           [003] call       0   2   2  
0932  18000000           [004] test       0       0    ; to [6] if true
0936  1A400180           [005] jmp        6            ; to [12]
093A  1D400000           [006] getglobal  0   1        ; 538022378
093E  59800000           [007] loadk      1   2        ; 0
0942  22400001           [008] call       0   2   1  
0946  1DC00000           [009] getglobal  0   3        ; gGameRules
fail op	8
094A  08000000           [010] setupval   0   0      
094E  1A00FD7F           [011] jmp        -11          ; to [1]
0952  13000000           [012] getupval   0   0      
0956  24004100           [013] self       0   0   260  ; -2029400442
095A  22800001           [014] call       0   2   2  
fail op	35
095E  23404100           [015] close      0  
0962  1A000080           [016] jmp        1            ; to [18]
0966  1E008000           [017] return     0   1      
096A  5D800100           [018] getglobal  1   6        ; _T
096E  4EC0C100           [019] gettable   1   1   263  ; 972116663
0972  99000200           [020] loadk      2   8        ; "AmbulasProgressBar"
0976  D3008000           [021] getupval   3   1      
097A  CE40C201           [022] gettable   3   3   265  ; "HT_PROGRESS_BAR"
097E  19810200           [023] loadk      4   10       ; -51
0982  57010000           [024] loadbool   5   0   0    ; false
0986  97010000           [025] loadbool   6   0   0    ; false
098A  62800003           [026] call       1   6   2  
098E  8EC0C200           [027] gettable   2   1   267  ; -440008155
0992  DD000300           [028] getglobal  3   12       ; _G
0996  CE40C301           [029] gettable   3   3   269  ; "UIColor_DarkBlue"
099A  A2400001           [030] call       2   2   1  
099E  8E80C300           [031] gettable   2   1   270  ; 934616952
09A2  D3000001           [032] getupval   3   2      
09A6  19C10300           [033] loadk      4   15       ; 0
09AA  A2408001           [034] call       2   3   1  
09AE  9D000400           [035] getglobal  2   16       ; -421772368
09B2  D3008001           [036] getupval   3   3      
09B6  17010000           [037] loadbool   4   0   0    ; false
09BA  A2808001           [038] call       2   3   2  
09BE  DD800100           [039] getglobal  3   6        ; _T
09C2  CEC0C101           [040] gettable   3   3   263  ; 972116663
09C6  19410400           [041] loadk      4   17       ; "AmbulasArenaHud"
09CA  53018000           [042] getupval   5   1      
09CE  4E81C402           [043] gettable   5   5   274  ; "HT_LABEL"
09D2  99C10400           [044] loadk      6   19       ; -102
09D6  D7010000           [045] loadbool   7   0   0    ; false
09DA  17020000           [046] loadbool   8   0   0    ; false
09DE  E2800003           [047] call       3   6   2  
09E2  0E81C301           [048] gettable   4   3   270  ; 934616952
09E6  52010001           [049] move       5   2      
09EA  22410001           [050] call       4   2   1  
09EE  1D810100           [051] getglobal  4   6        ; _T
09F2  0EC14102           [052] gettable   4   4   263  ; 972116663
09F6  59010500           [053] loadk      5   20       ; "AmbulasFailureBar"
09FA  93018000           [054] getupval   6   1      
09FE  8E414503           [055] gettable   6   6   277  ; "HT_ICON_BAR"
0A02  D9810200           [056] loadk      7   10       ; -51
0A06  17020000           [057] loadbool   8   0   0    ; false
0A0A  57020000           [058] loadbool   9   0   0    ; false
0A0E  22810003           [059] call       4   6   2  
0A12  4E814502           [060] gettable   5   4   278  ; -632628974
0A16  99810000           [061] loadk      6   2        ; 0
0A1A  D9C10500           [062] loadk      7   23       ; 0
0A1E  62418001           [063] call       5   3   1  
0A22  4E014602           [064] gettable   5   4   280  ; "List"
0A26  4C81C08C           [065] settable   5   281 258  ; "mCurrProgress" 0
0A2A  4E014602           [066] gettable   5   4   280  ; "List"
0A2E  93010002           [067] getupval   6   4      
0A32  8EC14603           [068] gettable   6   6   283  ; -1749580735
0A36  DD010300           [069] getglobal  7   12       ; _G
0A3A  CE01C703           [070] gettable   7   7   284  ; "UIColor_Red"
0A3E  A2810001           [071] call       6   2   2  
0A42  4C81018D           [072] settable   5   282 6    ; "mCompletedColorObj"
0A46  4E414702           [073] gettable   5   4   285  ; -1171035016
0A4A  A5010000           [074] closure    6   0      
0A4E  62410001           [075] call       5   2   1  
0A52  4E814702           [076] gettable   5   4   286  ; 1844394487
0A56  62418000           [077] call       5   1   1  
0A5A  4E014602           [078] gettable   5   4   280  ; "List"
0A5E  64C1C702           [079] self       5   5   287  ; 1685109492
0A62  62410001           [080] call       5   2   1  
0A66  59C10300           [081] loadk      5   15       ; 0
0A6A  9D010800           [082] getglobal  6   32       ; MaxAmbulasFailed
0A6E  D9C10300           [083] loadk      7   15       ; 0
0A72  50010180           [084] forprep    5   5        ; to [90]
0A76  4E424802           [085] gettable   9   4   289  ; -1573708168
0A7A  86020005           [086] loadnil    10  10     
0A7E  CB420000           [087] newtable   11  0   1    ; array=0, hash=1
0A82  CCC24891           [088] settable   11  290 291  ; "Rotation" 0
0A86  62428001           [089] call       9   3   1  
0A8A  5441FE7F           [090] forloop    5   -6       ; to [85] if loop
0A8E  5D020000           [091] getglobal  9   0        ; 1074689893
0A92  93020000           [092] getupval   10  0      
0A96  62820001           [093] call       9   2   2  
0A9A  58420000           [094] test       9       1    ; to [96] if false
0A9E  1AC00B80           [095] jmp        48           ; to [144]
0AA2  53020000           [096] getupval   9   0      
0AA6  6402C904           [097] self       9   9   292  ; -317790213
0AAA  D3028002           [098] getupval   11  5      
0AAE  19830000           [099] loadk      12  2        ; 0
0AB2  62820002           [100] call       9   4   2  
fail op	35
0AB6  6340C904           [101] close      1  
0ABA  1A000A80           [102] jmp        41           ; to [144]
0ABE  53020000           [103] getupval   9   0      
0AC2  6402C904           [104] self       9   9   292  ; -317790213
0AC6  D3020003           [105] getupval   11  6      
0ACA  19830000           [106] loadk      12  2        ; 0
0ACE  62820002           [107] call       9   4   2  
0AD2  93020000           [108] getupval   10  0      
0AD6  A4024905           [109] self       10  10  292  ; -317790213
0ADA  13038003           [110] getupval   12  7      
0ADE  59830000           [111] loadk      13  2        ; 0
0AE2  A2820002           [112] call       10  4   2  
0AE6  8D828204           [113] sub        10  9   10 
0AEA  CE024602           [114] gettable   11  4   280  ; "List"
0AEE  13030000           [115] getupval   12  0      
0AF2  24034906           [116] self       12  12  292  ; -317790213
0AF6  93030004           [117] getupval   14  8      
0AFA  D9830000           [118] loadk      15  2        ; 0
0AFE  22830002           [119] call       12  4   2  
0B02  CC02838C           [120] settable   11  281 12   ; "mCurrProgress"
0B06  CE024602           [121] gettable   11  4   280  ; "List"
0B0A  E4C2C705           [122] self       11  11  287  ; 1685109492
0B0E  46038006           [123] loadnil    13  13     
0B12  97038000           [124] loadbool   14  1   0    ; true
0B16  D7038000           [125] loadbool   15  1   0    ; true
0B1A  E2428002           [126] call       11  5   1  
0B1E  CE824702           [127] gettable   11  4   286  ; 1844394487
0B22  E2428000           [128] call       11  1   1  
0B26  CE82C900           [129] gettable   11  1   294  ; -1455793363
0B2A  0E03C400           [130] gettable   12  1   272  ; -421772368
0B2E  59C30900           [131] loadk      13  39       ; "/Lotus/Language/Menu/ProgressXOfY"
0B32  8B830000           [132] newtable   14  0   2    ; array=0, hash=2
0B36  8C830294           [133] settable   14  296 10   ; "CURRENT"
0B3A  8C438294           [134] settable   14  297 9    ; "TOTAL"
0B3E  22038001           [135] call       12  3   0  
0B42  E2420000           [136] call       11  0   1  
0B46  CE82CA00           [137] gettable   11  1   298  ; 1731445362
0B4A  1C430205           [138] div        12  10  9  
0B4E  E2420001           [139] call       11  2   1  
0B52  DD420000           [140] getglobal  11  1        ; 538022378
0B56  19830000           [141] loadk      12  2        ; 0
0B5A  E2420001           [142] call       11  2   1  
0B5E  1A80F27F           [143] jmp        -53          ; to [91]
0B62  DD020000           [144] getglobal  11  0        ; 1074689893
0B66  13030000           [145] getupval   12  0      
0B6A  E2820001           [146] call       11  2   2  
0B6E  D8420000           [147] test       11      1    ; to [149] if false
0B72  1AC00280           [148] jmp        12           ; to [161]
0B76  DD820100           [149] getglobal  11  6        ; _T
0B7A  CEC2CA05           [150] gettable   11  11  299  ; 327577324
0B7E  12038000           [151] move       12  1      
0B82  E2420001           [152] call       11  2   1  
0B86  DD820100           [153] getglobal  11  6        ; _T
0B8A  CEC2CA05           [154] gettable   11  11  299  ; 327577324
0B8E  12038001           [155] move       12  3      
0B92  E2420001           [156] call       11  2   1  
0B96  DD820100           [157] getglobal  11  6        ; _T
0B9A  CEC2CA05           [158] gettable   11  11  299  ; 327577324
0B9E  12030002           [159] move       12  4      
0BA2  E2420001           [160] call       11  2   1  
0BA6  1E008000           [161] return     0   1      
                         * constants:
0BAA  2C                 sizek (44)
0BAB  01                 const type 3
0BAC  65770E40           const [0]: (1074689893)
0BB0  01                 const type 3
0BB1  EA911120           const [1]: (538022378)
0BB5  03                 const type 3
0BB6  00000000           const [2]: (0)
0BBA  04                 const type 4
0BBB  0B                 string size (11)
0BBC  6747616D6552756C+  "gGameRul"
0BC4  657300             "es\0"
                         const [3]: "gGameRules"
0BC7  01                 const type 3
0BC8  86CE0987           const [4]: (-2029400442)
0BCC  00                 const type 0
                         const [5]: nil
0BCD  04                 const type 4
0BCE  03                 string size (3)
0BCF  5F5400             "_T\0"
                         const [6]: "_T"
0BD2  01                 const type 3
0BD3  B752F139           const [7]: (972116663)
0BD7  04                 const type 4
0BD8  13                 string size (19)
0BD9  416D62756C617350+  "AmbulasP"
0BE1  726F677265737342+  "rogressB"
0BE9  617200             "ar\0"
                         const [8]: "AmbulasProgressBar"
0BEC  04                 const type 4
0BED  10                 string size (16)
0BEE  48545F50524F4752+  "HT_PROGR"
0BF6  4553535F42415200   "ESS_BAR\0"
                         const [9]: "HT_PROGRESS_BAR"
0BFE  03                 const type 3
0BFF  CDCC4C3E           const [10]: (-51)
0C03  01                 const type 3
0C04  2502C6E5           const [11]: (-440008155)
0C08  04                 const type 4
0C09  03                 string size (3)
0C0A  5F4700             "_G\0"
                         const [12]: "_G"
0C0D  04                 const type 4
0C0E  11                 string size (17)
0C0F  5549436F6C6F725F+  "UIColor_"
0C17  4461726B426C7565+  "DarkBlue"
0C1F  00                 "\0"
                         const [13]: "UIColor_DarkBlue"
0C20  01                 const type 3
0C21  781FB537           const [14]: (934616952)
0C25  03                 const type 3
0C26  0000803F           const [15]: (0)
0C2A  01                 const type 3
0C2B  B043DCE6           const [16]: (-421772368)
0C2F  04                 const type 4
0C30  10                 string size (16)
0C31  416D62756C617341+  "AmbulasA"
0C39  72656E6148756400   "renaHud\0"
                         const [17]: "AmbulasArenaHud"
0C41  04                 const type 4
0C42  09                 string size (9)
0C43  48545F4C4142454C+  "HT_LABEL"
0C4B  00                 "\0"
                         const [18]: "HT_LABEL"
0C4C  03                 const type 3
0C4D  9A99193E           const [19]: (-102)
0C51  04                 const type 4
0C52  12                 string size (18)
0C53  416D62756C617346+  "AmbulasF"
0C5B  61696C7572654261+  "ailureBa"
0C63  7200               "r\0"
                         const [20]: "AmbulasFailureBar"
0C65  04                 const type 4
0C66  0C                 string size (12)
0C67  48545F49434F4E5F+  "HT_ICON_"
0C6F  42415200           "BAR\0"
                         const [21]: "HT_ICON_BAR"
0C73  01                 const type 3
0C74  12D94ADA           const [22]: (-632628974)
0C78  03                 const type 3
0C79  000070C1           const [23]: (0)
0C7D  04                 const type 4
0C7E  05                 string size (5)
0C7F  4C69737400         "List\0"
                         const [24]: "List"
0C84  04                 const type 4
0C85  0E                 string size (14)
0C86  6D4375727250726F+  "mCurrPro"
0C8E  677265737300       "gress\0"
                         const [25]: "mCurrProgress"
0C94  04                 const type 4
0C95  13                 string size (19)
0C96  6D436F6D706C6574+  "mComplet"
0C9E  6564436F6C6F724F+  "edColorO"
0CA6  626A00             "bj\0"
                         const [26]: "mCompletedColorObj"
0CA9  01                 const type 3
0CAA  4184B797           const [27]: (-1749580735)
0CAE  04                 const type 4
0CAF  0C                 string size (12)
0CB0  5549436F6C6F725F+  "UIColor_"
0CB8  52656400           "Red\0"
                         const [28]: "UIColor_Red"
0CBC  01                 const type 3
0CBD  786C33BA           const [29]: (-1171035016)
0CC1  01                 const type 3
0CC2  F739EF6D           const [30]: (1844394487)
0CC6  01                 const type 3
0CC7  F4BA7064           const [31]: (1685109492)
0CCB  04                 const type 4
0CCC  11                 string size (17)
0CCD  4D6178416D62756C+  "MaxAmbul"
0CD5  61734661696C6564+  "asFailed"
0CDD  00                 "\0"
                         const [32]: "MaxAmbulasFailed"
0CDE  01                 const type 3
0CDF  781E33A2           const [33]: (-1573708168)
0CE3  04                 const type 4
0CE4  09                 string size (9)
0CE5  526F746174696F6E+  "Rotation"
0CED  00                 "\0"
                         const [34]: "Rotation"
0CEE  03                 const type 3
0CEF  00003442           const [35]: (0)
0CF3  01                 const type 3
0CF4  FBE70EED           const [36]: (-317790213)
0CF8  03                 const type 3
0CF9  0000C642           const [37]: (0)
0CFD  01                 const type 3
0CFE  2D5B3AA9           const [38]: (-1455793363)
0D02  04                 const type 4
0D03  22                 string size (34)
0D04  2F4C6F7475732F4C+  "/Lotus/L"
0D0C  616E67756167652F+  "anguage/"
0D14  4D656E752F50726F+  "Menu/Pro"
0D1C  6772657373584F66+  "gressXOf"
0D24  5900               "Y\0"
                         const [39]: "/Lotus/Language/Menu/ProgressXOfY"
0D26  04                 const type 4
0D27  08                 string size (8)
0D28  43555252454E5400   "CURRENT\0"
                         const [40]: "CURRENT"
0D30  04                 const type 4
0D31  06                 string size (6)
0D32  544F54414C00       "TOTAL\0"
                         const [41]: "TOTAL"
0D38  01                 const type 3
0D39  72C23367           const [42]: (1731445362)
0D3D  01                 const type 3
0D3E  EC6E8613           const [43]: (327577324)
                         * functions:
0D42  01                 sizep (1)
                         
0D43                     ** function [0] definition (level 3)
                         ** start of function **
0D43  00                 string size (0)
                         source name: (none)
0D45  01                 line defined (158)
0D46  A7                 last line defined (167)
0D47  01                 nups (0)
0D48  00                 numparams (3)
0D49  03                 is_vararg (0)
0D4A  00                 maxstacksize (14)
                         * code:
0D4C  2F                 sizecode (47)
0D4D  E4004000           [01] self       3   0   256  ; 2115970775
0D51  4E414001           [02] gettable   5   2   257  ; "mClipName"
0D55  99810000           [03] loadk      6   2        ; ".Bg"
0D59  42818102           [04] concat     5   5   6  
0D5D  9DC10000           [05] getglobal  6   3        ; _G
0D61  8E014103           [06] gettable   6   6   260  ; "UIMaterial_RectangleNoDepth"
0D65  E2400002           [07] call       3   4   1  
0D69  CE404101           [08] gettable   3   2   261  ; "Id"
0D6D  0E81C100           [09] gettable   4   1   262  ; "mCurrProgress"
fail op	33
0D71  61008101           [10] tforloop   1       4    ; to [12] if exit
0D75  1A000080           [11] jmp        1            ; to [13]
0D79  D7400000           [12] loadbool   3   0   1    ; false, to [14]
0D7D  D7008000           [13] loadbool   3   1   0    ; true
0D81  D8000000           [14] test       3       0    ; to [16] if true
0D85  1A800080           [15] jmp        3            ; to [19]
0D89  19C10100           [16] loadk      4   7        ; 0
0D8D  18410000           [17] test       4       1    ; to [19] if false
0D91  1A000080           [18] jmp        1            ; to [20]
0D95  19010200           [19] loadk      4   8        ; 0
0D99  D8000000           [20] test       3       0    ; to [22] if true
0D9D  1A800080           [21] jmp        3            ; to [25]
0DA1  4E41C200           [22] gettable   5   1   265  ; "mCompletedColorObj"
0DA5  58410000           [23] test       5       1    ; to [25] if false
0DA9  1A400080           [24] jmp        2            ; to [27]
0DAD  5DC10000           [25] getglobal  5   3        ; _G
0DB1  4E81C202           [26] gettable   5   5   266  ; "UIColorObject_White"
0DB5  A4C14200           [27] self       6   0   267  ; 808102703
0DB9  0E424001           [28] gettable   8   2   257  ; "mClipName"
0DBD  59820000           [29] loadk      9   2        ; ".Bg"
0DC1  02420204           [30] concat     8   8   9  
0DC5  59020300           [31] loadk      9   12       ; "RectInnerColor"
0DC9  8E42C302           [32] gettable   10  5   269  ; "r"
0DCD  CE82C302           [33] gettable   11  5   270  ; "g"
0DD1  0EC3C302           [34] gettable   12  5   271  ; "b"
0DD5  52030002           [35] move       13  4      
0DD9  A2410004           [36] call       6   8   1  
0DDD  A4C14200           [37] self       6   0   267  ; 808102703
0DE1  0E424001           [38] gettable   8   2   257  ; "mClipName"
0DE5  59820000           [39] loadk      9   2        ; ".Bg"
0DE9  02420204           [40] concat     8   8   9  
0DED  59020400           [41] loadk      9   16       ; "RectEdgeColor"
0DF1  8E42C302           [42] gettable   10  5   269  ; "r"
0DF5  CE82C302           [43] gettable   11  5   270  ; "g"
0DF9  0EC3C302           [44] gettable   12  5   271  ; "b"
0DFD  59430400           [45] loadk      13  17       ; 102
0E01  A2410004           [46] call       6   8   1  
0E05  1E008000           [47] return     0   1      
                         * constants:
0E09  12                 sizek (18)
0E0A  01                 const type 3
0E0B  D7261F7E           const [0]: (2115970775)
0E0F  04                 const type 4
0E10  0A                 string size (10)
0E11  6D436C69704E616D+  "mClipNam"
0E19  6500               "e\0"
                         const [1]: "mClipName"
0E1B  04                 const type 4
0E1C  04                 string size (4)
0E1D  2E426700           ".Bg\0"
                         const [2]: ".Bg"
0E21  04                 const type 4
0E22  03                 string size (3)
0E23  5F4700             "_G\0"
                         const [3]: "_G"
0E26  04                 const type 4
0E27  1C                 string size (28)
0E28  55494D6174657269+  "UIMateri"
0E30  616C5F5265637461+  "al_Recta"
0E38  6E676C654E6F4465+  "ngleNoDe"
0E40  70746800           "pth\0"
                         const [4]: "UIMaterial_RectangleNoDepth"
0E44  04                 const type 4
0E45  03                 string size (3)
0E46  496400             "Id\0"
                         const [5]: "Id"
0E49  04                 const type 4
0E4A  0E                 string size (14)
0E4B  6D4375727250726F+  "mCurrPro"
0E53  677265737300       "gress\0"
                         const [6]: "mCurrProgress"
0E59  03                 const type 3
0E5A  0000003F           const [7]: (0)
0E5E  03                 const type 3
0E5F  00000000           const [8]: (0)
0E63  04                 const type 4
0E64  13                 string size (19)
0E65  6D436F6D706C6574+  "mComplet"
0E6D  6564436F6C6F724F+  "edColorO"
0E75  626A00             "bj\0"
                         const [9]: "mCompletedColorObj"
0E78  04                 const type 4
0E79  14                 string size (20)
0E7A  5549436F6C6F724F+  "UIColorO"
0E82  626A6563745F5768+  "bject_Wh"
0E8A  69746500           "ite\0"
                         const [10]: "UIColorObject_White"
0E8E  01                 const type 3
0E8F  2FAB2A30           const [11]: (808102703)
0E93  04                 const type 4
0E94  0F                 string size (15)
0E95  52656374496E6E65+  "RectInne"
0E9D  72436F6C6F7200     "rColor\0"
                         const [12]: "RectInnerColor"
0EA4  04                 const type 4
0EA5  02                 string size (2)
0EA6  7200               "r\0"
                         const [13]: "r"
0EA8  04                 const type 4
0EA9  02                 string size (2)
0EAA  6700               "g\0"
                         const [14]: "g"
0EAC  04                 const type 4
0EAD  02                 string size (2)
0EAE  6200               "b\0"
                         const [15]: "b"
0EB0  04                 const type 4
0EB1  0E                 string size (14)
0EB2  5265637445646765+  "RectEdge"
0EBA  436F6C6F7200       "Color\0"
                         const [16]: "RectEdgeColor"
0EC0  03                 const type 3
0EC1  6666663F           const [17]: (102)
                         * functions:
0EC5  00                 sizep (0)
                         * lines:
0EC6  2F                 sizelineinfo (47)
                         [pc] (line)
0EC7  9F                 [01] (-97)
0EC8  00                 [02] (-97)
0EC9  00                 [03] (-97)
0ECA  00                 [04] (-97)
0ECB  9F                 [05] (-97)
0ECC  00                 [06] (-97)
0ECD  00                 [07] (-97)
0ECE  00                 [08] (-95)
0ECF  9F                 [09] (-95)
0ED0  00                 [10] (-95)
0ED1  00                 [11] (-95)
0ED2  00                 [12] (-95)
0ED3  9F                 [13] (-95)
0ED4  00                 [14] (-94)
0ED5  00                 [15] (-94)
0ED6  00                 [16] (-94)
0ED7  9F                 [17] (-94)
0ED8  00                 [18] (-94)
0ED9  00                 [19] (-94)
0EDA  00                 [20] (-93)
0EDB  9F                 [21] (-93)
0EDC  00                 [22] (-93)
0EDD  00                 [23] (-93)
0EDE  00                 [24] (-93)
0EDF  9F                 [25] (-93)
0EE0  00                 [26] (-93)
0EE1  00                 [27] (-91)
0EE2  00                 [28] (-91)
0EE3  A1                 [29] (-91)
0EE4  00                 [30] (-91)
0EE5  00                 [31] (-91)
0EE6  00                 [32] (-91)
0EE7  A1                 [33] (-91)
0EE8  00                 [34] (-91)
0EE9  00                 [35] (-91)
0EEA  00                 [36] (-91)
0EEB  A1                 [37] (-90)
0EEC  00                 [38] (-90)
0EED  00                 [39] (-90)
0EEE  00                 [40] (-90)
0EEF  A1                 [41] (-90)
0EF0  00                 [42] (-90)
0EF1  00                 [43] (-90)
0EF2  00                 [44] (-90)
0EF3  A1                 [45] (-90)
0EF4  00                 [46] (-90)
0EF5  00                 [47] (-89)
                         * locals:
0F83  00                 sizelocvars (0)
                         * upvalues:
0F84  00                 sizeupvalues (0)
                         ** end of function **

                         * lines:
0F86  01                 sizelineinfo (161)
                         [pc] (line)
0F87  81                 [001] (-127)
0F88  00                 [002] (-127)
0F89  00                 [003] (-127)
0F8A  00                 [004] (-127)
0F8B  81                 [005] (-127)
0F8C  00                 [006] (-126)
0F8D  00                 [007] (-126)
0F8E  00                 [008] (-126)
0F8F  81                 [009] (-125)
0F90  00                 [010] (-125)
0F91  00                 [011] (-125)
0F92  00                 [012] (-119)
0F93  81                 [013] (-119)
0F94  00                 [014] (-119)
0F95  00                 [015] (-118)
0F96  00                 [016] (-118)
0F97  81                 [017] (-117)
0F98  00                 [018] (-113)
0F99  00                 [019] (-113)
0F9A  00                 [020] (-113)
0F9B  82                 [021] (-113)
0F9C  00                 [022] (-113)
0F9D  00                 [023] (-113)
0F9E  00                 [024] (-113)
0F9F  82                 [025] (-113)
0FA0  00                 [026] (-113)
0FA1  00                 [027] (-112)
0FA2  00                 [028] (-112)
0FA3  82                 [029] (-112)
0FA4  00                 [030] (-112)
0FA5  00                 [031] (-111)
0FA6  00                 [032] (-111)
0FA7  83                 [033] (-111)
0FA8  00                 [034] (-111)
0FA9  00                 [035] (-108)
0FAA  00                 [036] (-108)
0FAB  83                 [037] (-108)
0FAC  00                 [038] (-108)
0FAD  00                 [039] (-107)
0FAE  00                 [040] (-107)
0FAF  83                 [041] (-107)
0FB0  00                 [042] (-107)
0FB1  00                 [043] (-107)
0FB2  00                 [044] (-107)
0FB3  89                 [045] (-107)
0FB4  00                 [046] (-107)
0FB5  00                 [047] (-107)
0FB6  00                 [048] (-106)
0FB7  89                 [049] (-106)
0FB8  00                 [050] (-106)
0FB9  00                 [051] (-103)
0FBA  00                 [052] (-103)
0FBB  89                 [053] (-103)
0FBC  00                 [054] (-103)
0FBD  00                 [055] (-103)
0FBE  00                 [056] (-103)
0FBF  8A                 [057] (-103)
0FC0  00                 [058] (-103)
0FC1  00                 [059] (-103)
0FC2  00                 [060] (-102)
0FC3  8A                 [061] (-102)
0FC4  00                 [062] (-102)
0FC5  00                 [063] (-102)
0FC6  00                 [064] (-101)
0FC7  8B                 [065] (-101)
0FC8  00                 [066] (-100)
0FC9  00                 [067] (-100)
0FCA  00                 [068] (-100)
0FCB  8F                 [069] (-100)
0FCC  00                 [070] (-100)
0FCD  00                 [071] (-100)
0FCE  00                 [072] (-100)
0FCF  8F                 [073] (-99)
0FD0  00                 [074] (-89)
0FD1  00                 [075] (-99)
0FD2  00                 [076] (-87)
0FD3  8F                 [077] (-87)
0FD4  00                 [078] (-86)
0FD5  00                 [079] (-86)
0FD6  00                 [080] (-86)
0FD7  8F                 [081] (-84)
0FD8  00                 [082] (-84)
0FD9  00                 [083] (-84)
0FDA  00                 [084] (-84)
0FDB  8F                 [085] (-83)
0FDC  00                 [086] (-83)
0FDD  00                 [087] (-83)
0FDE  00                 [088] (-83)
0FDF  8F                 [089] (-83)
0FE0  00                 [090] (-84)
0FE1  00                 [091] (-80)
0FE2  00                 [092] (-80)
0FE3  8F                 [093] (-80)
0FE4  00                 [094] (-80)
0FE5  00                 [095] (-80)
0FE6  00                 [096] (-80)
0FE7  8F                 [097] (-80)
0FE8  00                 [098] (-80)
0FE9  00                 [099] (-80)
0FEA  00                 [100] (-80)
0FEB  8F                 [101] (-80)
0FEC  00                 [102] (-80)
0FED  00                 [103] (-79)
0FEE  00                 [104] (-79)
0FEF  90                 [105] (-79)
0FF0  00                 [106] (-79)
0FF1  00                 [107] (-79)
0FF2  00                 [108] (-78)
0FF3  90                 [109] (-78)
0FF4  00                 [110] (-78)
0FF5  00                 [111] (-78)
0FF6  00                 [112] (-78)
0FF7  90                 [113] (-78)
0FF8  00                 [114] (-76)
0FF9  00                 [115] (-76)
0FFA  00                 [116] (-76)
0FFB  90                 [117] (-76)
0FFC  00                 [118] (-76)
0FFD  00                 [119] (-76)
0FFE  00                 [120] (-76)
0FFF  91                 [121] (-75)
1000  00                 [122] (-75)
1001  00                 [123] (-75)
1002  00                 [124] (-75)
1003  91                 [125] (-75)
1004  00                 [126] (-75)
1005  00                 [127] (-74)
1006  00                 [128] (-74)
1007  91                 [129] (-72)
1008  00                 [130] (-72)
1009  00                 [131] (-72)
100A  00                 [132] (-72)
100B  91                 [133] (-72)
100C  00                 [134] (-72)
100D  00                 [135] (-72)
100E  00                 [136] (-72)
100F  94                 [137] (-71)
1010  00                 [138] (-71)
1011  00                 [139] (-71)
1012  00                 [140] (-69)
1013  94                 [141] (-69)
1014  00                 [142] (-69)
1015  00                 [143] (-69)
1016  00                 [144] (-66)
1017  94                 [145] (-66)
1018  00                 [146] (-66)
1019  00                 [147] (-66)
101A  00                 [148] (-66)
101B  94                 [149] (-65)
101C  00                 [150] (-65)
101D  00                 [151] (-65)
101E  00                 [152] (-65)
101F  95                 [153] (-64)
1020  00                 [154] (-64)
1021  00                 [155] (-64)
1022  00                 [156] (-64)
1023  95                 [157] (-63)
1024  00                 [158] (-63)
1025  00                 [159] (-63)
1026  00                 [160] (-63)
1027  95                 [161] (-61)
                         * locals:
120B  00                 sizelocvars (0)
                         * upvalues:
120C  00                 sizeupvalues (0)
                         ** end of function **

                         
120D                     ** function [3] definition (level 2)
                         ** start of function **
120D  00                 string size (0)
                         source name: (none)
120F  01                 line defined (197)
1210  DA                 last line defined (218)
1211  01                 nups (2)
1212  02                 numparams (1)
1213  01                 is_vararg (0)
1214  00                 maxstacksize (13)
                         * code:
1216  40                 sizecode (64)
1217  93000000           [01] getupval   2   0      
121B  A4004001           [02] self       2   2   256  ; -1201441975
121F  A2800001           [03] call       2   2   2  
1223  8E404001           [04] gettable   2   2   257  ; "maxEnemyLevel"
1227  DD800000           [05] getglobal  3   2        ; gRegion
122B  E4C0C001           [06] self       3   3   259  ; 1224466847
122F  E2800001           [07] call       3   2   2  
1233  0A018001           [08] len        4   3      
1237  0D014102           [09] sub        4   4   260  ; 0
123B  04414102           [10] mul        4   4   261  ; 0
123F  83000101           [11] add        2   2   4  
1243  13018000           [12] getupval   4   1      
1247  24814102           [13] self       4   4   262  ; -1642488687
124B  9DC10100           [14] getglobal  6   7        ; ambulasAgentType
124F  D2010000           [15] move       7   0      
1253  1D020200           [16] getglobal  8   8        ; -332969190
1257  59420200           [17] loadk      9   9        ; "RandomTeam"
125B  22820001           [18] call       8   2   2  
125F  52020001           [19] move       9   2      
1263  22810003           [20] call       4   6   2  
1267  52000002           [21] move       1   4      
126B  1D810200           [22] getglobal  4   10       ; 1074689893
126F  52018000           [23] move       5   1      
1273  22810001           [24] call       4   2   2  
1277  18410000           [25] test       4       1    ; to [27] if false
127B  1A000980           [26] jmp        37           ; to [64]
127F  24C1C200           [27] self       4   1   267  ; -1850937571
1283  22410001           [28] call       4   2   1  
1287  2401C300           [29] self       4   1   268  ; -2135866365
128B  22810001           [30] call       4   2   2  
128F  5D810200           [31] getglobal  5   10       ; 1074689893
1293  9D410300           [32] getglobal  6   13       ; ambulasBossMarkerInfo
1297  62810001           [33] call       5   2   2  
129B  58410000           [34] test       5       1    ; to [36] if false
129F  1AC00680           [35] jmp        28           ; to [64]
12A3  5D810200           [36] getglobal  5   10       ; 1074689893
12A7  92010002           [37] move       6   4      
12AB  62810001           [38] call       5   2   2  
12AF  58410000           [39] test       5       1    ; to [41] if false
12B3  1A800580           [40] jmp        23           ; to [64]
12B7  64814302           [41] self       5   4   270  ; -1625438872
12BB  DD410300           [42] getglobal  7   13       ; ambulasBossMarkerInfo
12BF  62818001           [43] call       5   3   2  
12C3  9D810200           [44] getglobal  6   10       ; 1074689893
12C7  D2018002           [45] move       7   5      
12CB  A2810001           [46] call       6   2   2  
12CF  98010000           [47] test       6       0    ; to [49] if true
12D3  1AC00180           [48] jmp        8            ; to [57]
12D7  A4C14302           [49] self       6   4   271  ; -1421644046
12DB  1D420300           [50] getglobal  8   13       ; ambulasBossMarkerInfo
12DF  5D020400           [51] getglobal  9   16       ; EMPTY_SYMBOL
12E3  9D420400           [52] getglobal  10  17       ; ZERO_VECTOR
12E7  DD820400           [53] getglobal  11  18       ; ZERO_ROTATION
12EB  12030002           [54] move       12  4      
12EF  A2818003           [55] call       6   7   2  
12F3  52010003           [56] move       5   6      
12F7  9D810200           [57] getglobal  6   10       ; 1074689893
12FB  D2018002           [58] move       7   5      
12FF  A2810001           [59] call       6   2   2  
1303  98410000           [60] test       6       1    ; to [62] if false
1307  1A400080           [61] jmp        2            ; to [64]
130B  A4C1C402           [62] self       6   5   275  ; -974578778
130F  A2410001           [63] call       6   2   1  
1313  1E008000           [64] return     0   1      
                         * constants:
1317  14                 sizek (20)
1318  01                 const type 3
1319  497363B8           const [0]: (-1201441975)
131D  04                 const type 4
131E  0E                 string size (14)
131F  6D6178456E656D79+  "maxEnemy"
1327  4C6576656C00       "Level\0"
                         const [1]: "maxEnemyLevel"
132D  04                 const type 4
132E  08                 string size (8)
132F  67526567696F6E00   "gRegion\0"
                         const [2]: "gRegion"
1337  01                 const type 3
1338  9FE1FB48           const [3]: (1224466847)
133C  03                 const type 3
133D  0000803F           const [4]: (0)
1341  03                 const type 3
1342  00008040           const [5]: (0)
1346  01                 const type 3
1347  919C199E           const [6]: (-1642488687)
134B  04                 const type 4
134C  11                 string size (17)
134D  616D62756C617341+  "ambulasA"
1355  67656E7454797065+  "gentType"
135D  00                 "\0"
                         const [7]: "ambulasAgentType"
135E  01                 const type 3
135F  1A4B27EC           const [8]: (-332969190)
1363  04                 const type 4
1364  0B                 string size (11)
1365  52616E646F6D5465+  "RandomTe"
136D  616D00             "am\0"
                         const [9]: "RandomTeam"
1370  01                 const type 3
1371  65770E40           const [10]: (1074689893)
1375  01                 const type 3
1376  1DEFAC91           const [11]: (-1850937571)
137A  01                 const type 3
137B  0344B180           const [12]: (-2135866365)
137F  04                 const type 4
1380  16                 string size (22)
1381  616D62756C617342+  "ambulasB"
1389  6F73734D61726B65+  "ossMarke"
1391  72496E666F00       "rInfo\0"
                         const [13]: "ambulasBossMarkerInfo"
1397  01                 const type 3
1398  68C51D9F           const [14]: (-1625438872)
139C  01                 const type 3
139D  F26E43AB           const [15]: (-1421644046)
13A1  04                 const type 4
13A2  0D                 string size (13)
13A3  454D5054595F5359+  "EMPTY_SY"
13AB  4D424F4C00         "MBOL\0"
                         const [16]: "EMPTY_SYMBOL"
13B0  04                 const type 4
13B1  0C                 string size (12)
13B2  5A45524F5F564543+  "ZERO_VEC"
13BA  544F5200           "TOR\0"
                         const [17]: "ZERO_VECTOR"
13BE  04                 const type 4
13BF  0E                 string size (14)
13C0  5A45524F5F524F54+  "ZERO_ROT"
13C8  4154494F4E00       "ATION\0"
                         const [18]: "ZERO_ROTATION"
13CE  01                 const type 3
13CF  A61BE9C5           const [19]: (-974578778)
                         * functions:
13D3  00                 sizep (0)
                         * lines:
13D4  40                 sizelineinfo (64)
                         [pc] (line)
13D5  C7                 [01] (-57)
13D6  00                 [02] (-57)
13D7  00                 [03] (-57)
13D8  00                 [04] (-57)
13D9  C7                 [05] (-56)
13DA  00                 [06] (-56)
13DB  00                 [07] (-56)
13DC  00                 [08] (-55)
13DD  C7                 [09] (-55)
13DE  00                 [10] (-55)
13DF  00                 [11] (-55)
13E0  00                 [12] (-53)
13E1  C7                 [13] (-53)
13E2  00                 [14] (-53)
13E3  00                 [15] (-53)
13E4  00                 [16] (-53)
13E5  C8                 [17] (-53)
13E6  00                 [18] (-53)
13E7  00                 [19] (-53)
13E8  00                 [20] (-53)
13E9  C8                 [21] (-53)
13EA  00                 [22] (-52)
13EB  00                 [23] (-52)
13EC  00                 [24] (-52)
13ED  C8                 [25] (-52)
13EE  00                 [26] (-52)
13EF  00                 [27] (-51)
13F0  00                 [28] (-51)
13F1  C9                 [29] (-50)
13F2  00                 [30] (-50)
13F3  00                 [31] (-49)
13F4  00                 [32] (-49)
13F5  C9                 [33] (-49)
13F6  00                 [34] (-49)
13F7  00                 [35] (-49)
13F8  00                 [36] (-49)
13F9  C9                 [37] (-49)
13FA  00                 [38] (-49)
13FB  00                 [39] (-49)
13FC  00                 [40] (-49)
13FD  C9                 [41] (-48)
13FE  00                 [42] (-48)
13FF  00                 [43] (-48)
1400  00                 [44] (-47)
1401  CB                 [45] (-47)
1402  00                 [46] (-47)
1403  00                 [47] (-47)
1404  00                 [48] (-47)
1405  CB                 [49] (-46)
1406  00                 [50] (-46)
1407  00                 [51] (-46)
1408  00                 [52] (-46)
1409  CB                 [53] (-46)
140A  00                 [54] (-46)
140B  00                 [55] (-46)
140C  00                 [56] (-46)
140D  CB                 [57] (-43)
140E  00                 [58] (-43)
140F  00                 [59] (-43)
1410  00                 [60] (-43)
1411  CB                 [61] (-43)
1412  00                 [62] (-42)
1413  00                 [63] (-42)
1414  00                 [64] (-38)
                         * locals:
14D5  00                 sizelocvars (0)
                         * upvalues:
14D6  00                 sizeupvalues (0)
                         ** end of function **

                         
14D7                     ** function [4] definition (level 2)
                         ** start of function **
14D7  00                 string size (0)
                         source name: (none)
14D9  01                 line defined (220)
14DA  F5                 last line defined (245)
14DB  01                 nups (2)
14DC  02                 numparams (1)
14DD  01                 is_vararg (0)
14DE  00                 maxstacksize (17)
                         * code:
14E0  4A                 sizecode (74)
14E1  93000000           [01] getupval   2   0      
14E5  A4004001           [02] self       2   2   256  ; -1201441975
14E9  A2800001           [03] call       2   2   2  
14ED  8E404001           [04] gettable   2   2   257  ; "maxEnemyLevel"
14F1  DD800000           [05] getglobal  3   2        ; gRegion
14F5  E4C0C001           [06] self       3   3   259  ; 1224466847
14F9  E2800001           [07] call       3   2   2  
14FD  0A018001           [08] len        4   3      
1501  0D014102           [09] sub        4   4   260  ; 0
1505  04414102           [10] mul        4   4   261  ; 0
1509  83000101           [11] add        2   2   4  
150D  19010100           [12] loadk      4   4        ; 0
1511  4A010000           [13] len        5   0      
1515  99010100           [14] loadk      6   4        ; 0
1519  10010E80           [15] forprep    4   57       ; to [73]
151D  1D820100           [16] getglobal  8   6        ; 1074689893
1521  4EC20100           [17] gettable   9   0   7  
1525  22820001           [18] call       8   2   2  
1529  18420000           [19] test       8       1    ; to [21] if false
152D  1AC00C80           [20] jmp        52           ; to [73]
1531  13028000           [21] getupval   8   1      
1535  24C24104           [22] self       8   8   263  ; -1642488687
1539  9D020200           [23] getglobal  10  8        ; ambulasAgentType
153D  CEC20100           [24] gettable   11  0   7  
1541  1D430200           [25] getglobal  12  9        ; -332969190
1545  59830200           [26] loadk      13  10       ; "RandomTeam"
1549  22830001           [27] call       12  2   2  
154D  52030001           [28] move       13  2      
1551  22820003           [29] call       8   6   2  
1555  52000004           [30] move       1   8      
1559  1D820100           [31] getglobal  8   6        ; 1074689893
155D  52028000           [32] move       9   1      
1561  22820001           [33] call       8   2   2  
1565  18420000           [34] test       8       1    ; to [36] if false
1569  1A000980           [35] jmp        37           ; to [73]
156D  24C2C200           [36] self       8   1   267  ; -1850937571
1571  22420001           [37] call       8   2   1  
1575  2402C300           [38] self       8   1   268  ; -2135866365
1579  22820001           [39] call       8   2   2  
157D  5D820100           [40] getglobal  9   6        ; 1074689893
1581  9D420300           [41] getglobal  10  13       ; ambulasBossMarkerInfo
1585  62820001           [42] call       9   2   2  
1589  58420000           [43] test       9       1    ; to [45] if false
158D  1AC00680           [44] jmp        28           ; to [73]
1591  5D820100           [45] getglobal  9   6        ; 1074689893
1595  92020004           [46] move       10  8      
1599  62820001           [47] call       9   2   2  
159D  58420000           [48] test       9       1    ; to [50] if false
15A1  1A800580           [49] jmp        23           ; to [73]
15A5  64824304           [50] self       9   8   270  ; -1625438872
15A9  DD420300           [51] getglobal  11  13       ; ambulasBossMarkerInfo
15AD  62828001           [52] call       9   3   2  
15B1  9D820100           [53] getglobal  10  6        ; 1074689893
15B5  D2028004           [54] move       11  9      
15B9  A2820001           [55] call       10  2   2  
15BD  98020000           [56] test       10      0    ; to [58] if true
15C1  1AC00180           [57] jmp        8            ; to [66]
15C5  A4C24304           [58] self       10  8   271  ; -1421644046
15C9  1D430300           [59] getglobal  12  13       ; ambulasBossMarkerInfo
15CD  5D030400           [60] getglobal  13  16       ; EMPTY_SYMBOL
15D1  9D430400           [61] getglobal  14  17       ; ZERO_VECTOR
15D5  DD830400           [62] getglobal  15  18       ; ZERO_ROTATION
15D9  12040004           [63] move       16  8      
15DD  A2828003           [64] call       10  7   2  
15E1  52020005           [65] move       9   10     
15E5  9D820100           [66] getglobal  10  6        ; 1074689893
15E9  D2028004           [67] move       11  9      
15ED  A2820001           [68] call       10  2   2  
15F1  98420000           [69] test       10      1    ; to [71] if false
15F5  1A400080           [70] jmp        2            ; to [73]
15F9  A4C2C404           [71] self       10  9   275  ; -974578778
15FD  A2420001           [72] call       10  2   1  
1601  1441F17F           [73] forloop    4   -58      ; to [16] if loop
1605  1E008000           [74] return     0   1      
                         * constants:
1609  14                 sizek (20)
160A  01                 const type 3
160B  497363B8           const [0]: (-1201441975)
160F  04                 const type 4
1610  0E                 string size (14)
1611  6D6178456E656D79+  "maxEnemy"
1619  4C6576656C00       "Level\0"
                         const [1]: "maxEnemyLevel"
161F  04                 const type 4
1620  08                 string size (8)
1621  67526567696F6E00   "gRegion\0"
                         const [2]: "gRegion"
1629  01                 const type 3
162A  9FE1FB48           const [3]: (1224466847)
162E  03                 const type 3
162F  0000803F           const [4]: (0)
1633  03                 const type 3
1634  00008040           const [5]: (0)
1638  01                 const type 3
1639  65770E40           const [6]: (1074689893)
163D  01                 const type 3
163E  919C199E           const [7]: (-1642488687)
1642  04                 const type 4
1643  11                 string size (17)
1644  616D62756C617341+  "ambulasA"
164C  67656E7454797065+  "gentType"
1654  00                 "\0"
                         const [8]: "ambulasAgentType"
1655  01                 const type 3
1656  1A4B27EC           const [9]: (-332969190)
165A  04                 const type 4
165B  0B                 string size (11)
165C  52616E646F6D5465+  "RandomTe"
1664  616D00             "am\0"
                         const [10]: "RandomTeam"
1667  01                 const type 3
1668  1DEFAC91           const [11]: (-1850937571)
166C  01                 const type 3
166D  0344B180           const [12]: (-2135866365)
1671  04                 const type 4
1672  16                 string size (22)
1673  616D62756C617342+  "ambulasB"
167B  6F73734D61726B65+  "ossMarke"
1683  72496E666F00       "rInfo\0"
                         const [13]: "ambulasBossMarkerInfo"
1689  01                 const type 3
168A  68C51D9F           const [14]: (-1625438872)
168E  01                 const type 3
168F  F26E43AB           const [15]: (-1421644046)
1693  04                 const type 4
1694  0D                 string size (13)
1695  454D5054595F5359+  "EMPTY_SY"
169D  4D424F4C00         "MBOL\0"
                         const [16]: "EMPTY_SYMBOL"
16A2  04                 const type 4
16A3  0C                 string size (12)
16A4  5A45524F5F564543+  "ZERO_VEC"
16AC  544F5200           "TOR\0"
                         const [17]: "ZERO_VECTOR"
16B0  04                 const type 4
16B1  0E                 string size (14)
16B2  5A45524F5F524F54+  "ZERO_ROT"
16BA  4154494F4E00       "ATION\0"
                         const [18]: "ZERO_ROTATION"
16C0  01                 const type 3
16C1  A61BE9C5           const [19]: (-974578778)
                         * functions:
16C5  00                 sizep (0)
                         * lines:
16C6  4A                 sizelineinfo (74)
                         [pc] (line)
16C7  DE                 [01] (-34)
16C8  00                 [02] (-34)
16C9  00                 [03] (-34)
16CA  00                 [04] (-34)
16CB  DE                 [05] (-33)
16CC  00                 [06] (-33)
16CD  00                 [07] (-33)
16CE  00                 [08] (-32)
16CF  DE                 [09] (-32)
16D0  00                 [10] (-32)
16D1  00                 [11] (-32)
16D2  00                 [12] (-30)
16D3  DE                 [13] (-30)
16D4  00                 [14] (-30)
16D5  00                 [15] (-30)
16D6  00                 [16] (-29)
16D7  DF                 [17] (-29)
16D8  00                 [18] (-29)
16D9  00                 [19] (-29)
16DA  00                 [20] (-29)
16DB  DF                 [21] (-28)
16DC  00                 [22] (-28)
16DD  00                 [23] (-28)
16DE  00                 [24] (-28)
16DF  DF                 [25] (-28)
16E0  00                 [26] (-28)
16E1  00                 [27] (-28)
16E2  00                 [28] (-28)
16E3  E0                 [29] (-28)
16E4  00                 [30] (-28)
16E5  00                 [31] (-27)
16E6  00                 [32] (-27)
16E7  E0                 [33] (-27)
16E8  00                 [34] (-27)
16E9  00                 [35] (-27)
16EA  00                 [36] (-26)
16EB  E0                 [37] (-26)
16EC  00                 [38] (-25)
16ED  00                 [39] (-25)
16EE  00                 [40] (-24)
16EF  E0                 [41] (-24)
16F0  00                 [42] (-24)
16F1  00                 [43] (-24)
16F2  00                 [44] (-24)
16F3  E2                 [45] (-24)
16F4  00                 [46] (-24)
16F5  00                 [47] (-24)
16F6  00                 [48] (-24)
16F7  E2                 [49] (-24)
16F8  00                 [50] (-23)
16F9  00                 [51] (-23)
16FA  00                 [52] (-23)
16FB  E2                 [53] (-22)
16FC  00                 [54] (-22)
16FD  00                 [55] (-22)
16FE  00                 [56] (-22)
16FF  E2                 [57] (-22)
1700  00                 [58] (-21)
1701  00                 [59] (-21)
1702  00                 [60] (-21)
1703  E3                 [61] (-21)
1704  00                 [62] (-21)
1705  00                 [63] (-21)
1706  00                 [64] (-21)
1707  E3                 [65] (-21)
1708  00                 [66] (-18)
1709  00                 [67] (-18)
170A  00                 [68] (-18)
170B  E3                 [69] (-18)
170C  00                 [70] (-18)
170D  00                 [71] (-17)
170E  00                 [72] (-17)
170F  E3                 [73] (-30)
1710  00                 [74] (-11)
                         * locals:
17EF  00                 sizelocvars (0)
                         * upvalues:
17F0  00                 sizeupvalues (0)
                         ** end of function **

                         
17F1                     ** function [5] definition (level 2)
                         ** start of function **
17F1  00                 string size (0)
                         source name: (none)
17F3  01                 line defined (247)
17F4  FC                 last line defined (252)
17F5  01                 nups (2)
17F6  02                 numparams (1)
17F7  01                 is_vararg (0)
17F8  00                 maxstacksize (5)
                         * code:
17FA  0C                 sizecode (12)
17FB  03004000           [01] add        0   0   256  ; 0
17FF  5D400000           [02] getglobal  1   1        ; -1817107093
1803  99800000           [03] loadk      2   2        ; "Advancing Ambulas fight stage to "
1807  D2000000           [04] move       3   0      
180B  62408001           [05] call       1   3   1  
180F  53000000           [06] getupval   1   0      
1813  64C0C000           [07] self       1   1   259  ; -803877924
1817  D3008000           [08] getupval   3   1      
181B  12010000           [09] move       4   0      
181F  62400002           [10] call       1   4   1  
1823  1E000001           [11] return     0   2      
1827  1E008000           [12] return     0   1      
                         * constants:
182B  04                 sizek (4)
182C  03                 const type 3
182D  0000803F           const [0]: (0)
1831  01                 const type 3
1832  6B25B193           const [1]: (-1817107093)
1836  04                 const type 4
1837  22                 string size (34)
1838  416476616E63696E+  "Advancin"
1840  6720416D62756C61+  "g Ambula"
1848  7320666967687420+  "s fight "
1850  737461676520746F+  "stage to"
1858  2000               " \0"
                         const [2]: "Advancing Ambulas fight stage to "
185A  01                 const type 3
185B  DCCB15D0           const [3]: (-803877924)
                         * functions:
185F  00                 sizep (0)
                         * lines:
1860  0C                 sizelineinfo (12)
                         [pc] (line)
1861  F8                 [01] (-8)
1862  00                 [02] (-7)
1863  00                 [03] (-7)
1864  00                 [04] (-7)
1865  F9                 [05] (-7)
1866  00                 [06] (-6)
1867  00                 [07] (-6)
1868  00                 [08] (-6)
1869  F9                 [09] (-6)
186A  00                 [10] (-6)
186B  00                 [11] (-5)
186C  00                 [12] (-4)
                         * locals:
1891  00                 sizelocvars (0)
                         * upvalues:
1892  00                 sizeupvalues (0)
                         ** end of function **

                         
1893                     ** function [6] definition (level 2)
                         ** start of function **
1893  00                 string size (0)
                         source name: (none)
1895  01                 line defined (254)
1896  8B                 last line defined (267)
1897  02                 nups (2)
1898  02                 numparams (1)
1899  01                 is_vararg (0)
189A  00                 maxstacksize (8)
                         * code:
189C  1D                 sizecode (29)
189D  19000000           [01] loadk      0   0        ; 0
18A1  5D400000           [02] getglobal  1   1        ; -1817107093
18A5  99800000           [03] loadk      2   2        ; "Resetting Ambulas fight stage to "
18A9  D2000000           [04] move       3   0      
18AD  62408001           [05] call       1   3   1  
18B1  53000000           [06] getupval   1   0      
18B5  64C0C000           [07] self       1   1   259  ; -803877924
18B9  D3008000           [08] getupval   3   1      
18BD  12010000           [09] move       4   0      
18C1  62400002           [10] call       1   4   1  
18C5  5D000100           [11] getglobal  1   4        ; gRegion
18C9  6440C100           [12] self       1   1   261  ; 152279552
18CD  DD800100           [13] getglobal  3   6        ; ambulasAvatarType
18D1  62808001           [14] call       1   3   2  
18D5  99000000           [15] loadk      2   0        ; 0
18D9  CA008000           [16] len        3   1      
18DD  19010000           [17] loadk      4   0        ; 0
18E1  90C00180           [18] forprep    2   8        ; to [27]
18E5  9DC10100           [19] getglobal  6   7        ; 1074689893
18E9  CE418100           [20] gettable   7   1   5  
18ED  A2810001           [21] call       6   2   2  
18F1  98410000           [22] test       6       1    ; to [24] if false
18F5  1A800080           [23] jmp        3            ; to [27]
18F9  8E418100           [24] gettable   6   1   5  
18FD  A4014203           [25] self       6   6   264  ; -725453761
1901  A2410001           [26] call       6   2   1  
1905  9480FD7F           [27] forloop    2   -9       ; to [19] if loop
1909  1E000001           [28] return     0   2      
190D  1E008000           [29] return     0   1      
                         * constants:
1911  09                 sizek (9)
1912  03                 const type 3
1913  0000803F           const [0]: (0)
1917  01                 const type 3
1918  6B25B193           const [1]: (-1817107093)
191C  04                 const type 4
191D  22                 string size (34)
191E  526573657474696E+  "Resettin"
1926  6720416D62756C61+  "g Ambula"
192E  7320666967687420+  "s fight "
1936  737461676520746F+  "stage to"
193E  2000               " \0"
                         const [2]: "Resetting Ambulas fight stage to "
1940  01                 const type 3
1941  DCCB15D0           const [3]: (-803877924)
1945  04                 const type 4
1946  08                 string size (8)
1947  67526567696F6E00   "gRegion\0"
                         const [4]: "gRegion"
194F  01                 const type 3
1950  009A1309           const [5]: (152279552)
1954  04                 const type 4
1955  12                 string size (18)
1956  616D62756C617341+  "ambulasA"
195E  7661746172547970+  "vatarTyp"
1966  6500               "e\0"
                         const [6]: "ambulasAvatarType"
1968  01                 const type 3
1969  65770E40           const [7]: (1074689893)
196D  01                 const type 3
196E  3F74C2D4           const [8]: (-725453761)
                         * functions:
1972  00                 sizep (0)
                         * lines:
1973  1D                 sizelineinfo (29)
                         [pc] (line)
1974  FF                 [01] (-1)
1975  00                 [02] (0)
1976  00                 [03] (0)
1977  00                 [04] (0)
1978  00                 [05] (0)
1979  01                 [06] (1)
197A  00                 [07] (1)
197B  00                 [08] (1)
197C  00                 [09] (1)
197D  01                 [10] (1)
197E  00                 [11] (3)
197F  00                 [12] (3)
1980  00                 [13] (3)
1981  01                 [14] (3)
1982  00                 [15] (4)
1983  00                 [16] (4)
1984  00                 [17] (4)
1985  01                 [18] (4)
1986  00                 [19] (5)
1987  00                 [20] (5)
1988  01                 [21] (5)
1989  01                 [22] (5)
198A  00                 [23] (5)
198B  00                 [24] (6)
198C  01                 [25] (6)
198D  01                 [26] (6)
198E  00                 [27] (4)
198F  00                 [28] (10)
1990  01                 [29] (11)
                         * locals:
19E8  00                 sizelocvars (0)
                         * upvalues:
19E9  00                 sizeupvalues (0)
                         ** end of function **

                         
19EA                     ** function [7] definition (level 2)
                         ** start of function **
19EA  00                 string size (0)
                         source name: (none)
19EC  02                 line defined (269)
19ED  95                 last line defined (405)
19EE  03                 nups (7)
19EF  07                 numparams (1)
19F0  01                 is_vararg (0)
19F1  00                 maxstacksize (39)
                         * code:
19F4  02                 sizecode (288)
19F5  5D000000           [001] getglobal  1   0        ; gRegion
19F9  6440C000           [002] self       1   1   257  ; -1520831144
19FD  62800001           [003] call       1   2   2  
1A01  58400000           [004] test       1       1    ; to [6] if false
1A05  1A000080           [005] jmp        1            ; to [7]
1A09  1E008000           [006] return     0   1      
1A0D  53000000           [007] getupval   1   0      
1A11  6480C000           [008] self       1   1   258  ; -803877924
1A15  D3008000           [009] getupval   3   1      
1A19  19C10000           [010] loadk      4   3        ; 0
1A1D  62400002           [011] call       1   4   1  
1A21  53000000           [012] getupval   1   0      
1A25  6400C100           [013] self       1   1   260  ; -317790213
1A29  D3000001           [014] getupval   3   2      
1A2D  19410100           [015] loadk      4   5        ; 0
1A31  62800002           [016] call       1   4   2  
1A35  93000000           [017] getupval   2   0      
1A39  A4004101           [018] self       2   2   260  ; -317790213
1A3D  13018001           [019] getupval   4   3      
1A41  59410100           [020] loadk      5   5        ; 0
1A45  A2800002           [021] call       2   4   2  
1A49  D3000000           [022] getupval   3   0      
1A4D  E400C101           [023] self       3   3   260  ; -317790213
1A51  53010002           [024] getupval   5   4      
1A55  99410100           [025] loadk      6   5        ; 0
1A59  E2800002           [026] call       3   4   2  
1A5D  1C418001           [027] div        4   3   1  
1A61  5D010000           [028] getglobal  5   0        ; gRegion
1A65  6481C102           [029] self       5   5   262  ; 1224466847
1A69  62810001           [030] call       5   2   2  
1A6D  93010000           [031] getupval   6   0      
1A71  A4C14103           [032] self       6   6   263  ; -1201441975
1A75  A2810001           [033] call       6   2   2  
1A79  8E014203           [034] gettable   6   6   264  ; "minEnemyLevel"
1A7D  8D414203           [035] sub        6   6   265  ; 0
fail op	21
1A81  15404103           [036] concat     0   6   261
1A85  1A000080           [037] jmp        1            ; to [39]
1A89  99C10000           [038] loadk      6   3        ; 0
1A8D  CB010000           [039] newtable   7   0   0    ; array=0, hash=0
1A91  0B020000           [040] newtable   8   0   0    ; array=0, hash=0
1A95  5D820200           [041] getglobal  9   10       ; table
1A99  4EC2C204           [042] gettable   9   9   267  ; -431682403
1A9D  92020004           [043] move       10  8      
1AA1  DD020300           [044] getglobal  11  12       ; addSpawnBuildingWest
1AA5  62428001           [045] call       9   3   1  
1AA9  5D820200           [046] getglobal  9   10       ; table
1AAD  4EC2C204           [047] gettable   9   9   267  ; -431682403
1AB1  92020004           [048] move       10  8      
1AB5  DD420300           [049] getglobal  11  13       ; addSpawnBuildingEast
1AB9  62428001           [050] call       9   3   1  
1ABD  5D820200           [051] getglobal  9   10       ; table
1AC1  4EC2C204           [052] gettable   9   9   267  ; -431682403
1AC5  92020004           [053] move       10  8      
1AC9  DD820300           [054] getglobal  11  14       ; addSpawnBuildingSouth
1ACD  62428001           [055] call       9   3   1  
1AD1  4B020000           [056] newtable   9   0   0    ; array=0, hash=0
1AD5  9D820200           [057] getglobal  10  10       ; table
1AD9  8EC24205           [058] gettable   10  10  267  ; -431682403
1ADD  D2028004           [059] move       11  9      
1AE1  1DC30300           [060] getglobal  12  15       ; addSpawnCliffWest
1AE5  A2428001           [061] call       10  3   1  
1AE9  9D820200           [062] getglobal  10  10       ; table
1AED  8EC24205           [063] gettable   10  10  267  ; -431682403
1AF1  D2028004           [064] move       11  9      
1AF5  1D030400           [065] getglobal  12  16       ; addSpawnCliffEast
1AF9  A2428001           [066] call       10  3   1  
1AFD  9D820200           [067] getglobal  10  10       ; table
1B01  8EC24205           [068] gettable   10  10  267  ; -431682403
1B05  D2028004           [069] move       11  9      
1B09  1D030300           [070] getglobal  12  12       ; addSpawnBuildingWest
1B0D  A2428001           [071] call       10  3   1  
1B11  9D820200           [072] getglobal  10  10       ; table
1B15  8EC24205           [073] gettable   10  10  267  ; -431682403
1B19  D2028004           [074] move       11  9      
1B1D  1D430300           [075] getglobal  12  13       ; addSpawnBuildingEast
1B21  A2428001           [076] call       10  3   1  
1B25  D2018004           [077] move       7   9      
1B29  8A028002           [078] len        10  5      
1B2D  8DC24005           [079] sub        10  10  259  ; 0
1B31  83828288           [080] add        10  273 10   ; 0
1B35  D9C20000           [081] loadk      11  3        ; 0
1B39  06030006           [082] loadnil    12  12     
fail op	21
1B3D  15000189           [083] concat     0   274 4  
1B41  1A400080           [084] jmp        2            ; to [87]
1B45  1DC30400           [085] getglobal  12  19       ; addsPhase1
1B49  1A000180           [086] jmp        5            ; to [92]
fail op	21
1B4D  1500018A           [087] concat     0   276 4  
1B51  1A400080           [088] jmp        2            ; to [91]
1B55  1D430500           [089] getglobal  12  21       ; addsPhase2
1B59  1A000080           [090] jmp        1            ; to [92]
1B5D  1D830500           [091] getglobal  12  22       ; addsPhase3
1B61  5DC30500           [092] getglobal  13  23       ; maxAddSpawns
1B65  8A038002           [093] len        14  5      
1B69  8DC34007           [094] sub        14  14  259  ; 0
1B6D  84434407           [095] mul        14  14  273  ; 0
1B71  43838306           [096] add        13  13  14 
1B75  8B030000           [097] newtable   14  0   0    ; array=0, hash=0
1B79  DD030600           [098] getglobal  15  24       ; 2144646525
1B7D  19C40000           [099] loadk      16  3        ; 0
1B81  4A048003           [100] len        17  7      
1B85  E2838001           [101] call       15  3   2  
1B89  8EC38303           [102] gettable   14  7   15 
1B8D  CB030000           [103] newtable   15  0   0    ; array=0, hash=0
1B91  06040008           [104] loadnil    16  16     
1B95  5D040000           [105] getglobal  17  0        ; gRegion
1B99  6444C608           [106] self       17  17  281  ; -1485896174
1B9D  DD840600           [107] getglobal  19  26       ; -332969190
1BA1  19C50600           [108] loadk      20  27       ; "Ambulas"
1BA5  E2040001           [109] call       19  2   0  
1BA9  62840000           [110] call       17  0   2  
1BAD  86040009           [111] loadnil    18  18     
1BB1  DD040700           [112] getglobal  19  28       ; addSpawnFrequency
fail op	21
1BB5  15808082           [113] concat     0   261 2  
1BB9  1AC02980           [114] jmp        168          ; to [283]
fail op	21
1BBD  15404701           [115] concat     0   2   285
1BC1  1A402980           [116] jmp        166          ; to [283]
1BC5  13050000           [117] getupval   20  0      
1BC9  2405410A           [118] self       20  20  260  ; -317790213
1BCD  93058001           [119] getupval   22  3      
1BD1  D9450100           [120] loadk      23  5        ; 0
1BD5  22850002           [121] call       20  4   2  
1BD9  9200000A           [122] move       2   20     
1BDD  17040000           [123] loadbool   16  0   0    ; false
1BE1  0A058008           [124] len        20  17     
fail op	21
1BE5  15008582           [125] concat     0   261 20 
1BE9  1A000480           [126] jmp        17           ; to [144]
1BED  19C50000           [127] loadk      20  3        ; 0
1BF1  4A058008           [128] len        21  17     
1BF5  99C50000           [129] loadk      22  3        ; 0
1BF9  10C50280           [130] forprep    20  12       ; to [143]
1BFD  1D860700           [131] getglobal  24  30       ; 1074689893
1C01  4EC68508           [132] gettable   25  17  23 
1C05  22860001           [133] call       24  2   2  
1C09  18460000           [134] test       24      1    ; to [136] if false
1C0D  1A800180           [135] jmp        7            ; to [143]
1C11  0EC68508           [136] gettable   24  17  23 
1C15  24C6470C           [137] self       24  24  287  ; -1519595333
1C19  22860001           [138] call       24  2   2  
1C1D  1204000C           [139] move       16  24     
fail op	35
1C21  23004808           [140] close      0  
1C25  1A000080           [141] jmp        1            ; to [143]
1C29  1A000080           [142] jmp        1            ; to [144]
1C2D  1485FC7F           [143] forloop    20  -13      ; to [131] if loop
1C31  18040000           [144] test       16      0    ; to [146] if true
1C35  1A400080           [145] jmp        2            ; to [148]
1C39  D2010004           [146] move       7   8      
1C3D  1A000080           [147] jmp        1            ; to [149]
1C41  D2018004           [148] move       7   9      
fail op	35
1C45  23C00307           [149] close      0  
1C49  1A400180           [150] jmp        6            ; to [157]
1C4D  1D060600           [151] getglobal  24  24       ; 2144646525
1C51  59C60000           [152] loadk      25  3        ; 0
1C55  8A068003           [153] len        26  7      
1C59  22868001           [154] call       24  3   2  
1C5D  8E038603           [155] gettable   14  7   24 
1C61  1AC0FD7F           [156] jmp        -8           ; to [149]
1C65  D2030007           [157] move       15  14     
1C69  13068002           [158] getupval   24  5      
1C6D  2446480C           [159] self       24  24  289  ; 932988922
1C71  22860001           [160] call       24  2   2  
1C75  9204000C           [161] move       18  24     
1C79  0A068008           [162] len        24  17     
1C7D  8D040609           [163] sub        18  18  24 
1C81  19460100           [164] loadk      24  5        ; 0
1C85  59C60000           [165] loadk      25  3        ; 0
1C89  99C60000           [166] loadk      26  3        ; 0
1C8D  C3C60205           [167] add        27  10  11 
1C91  19C70000           [168] loadk      28  3        ; 0
1C95  90C61A80           [169] forprep    26  108      ; to [278]
fail op	21
1C99  1580808E           [170] concat     0   285 2  
1C9D  1A000080           [171] jmp        1            ; to [173]
1CA1  1A401A80           [172] jmp        106          ; to [279]
1CA5  8607000F           [173] loadnil    30  30     
fail op	33
1CA9  2180820E           [174] tforloop   0       10   ; to [176] if exit
1CAD  1A800780           [175] jmp        31           ; to [207]
1CB1  DD870700           [176] getglobal  31  30       ; 1074689893
1CB5  12080006           [177] move       32  12     
1CB9  E2870001           [178] call       31  2   2  
1CBD  D8470000           [179] test       31      1    ; to [181] if false
1CC1  1A000D80           [180] jmp        53           ; to [234]
fail op	21
1CC5  15400309           [181] concat     0   18  13 
1CC9  1A800C80           [182] jmp        51           ; to [234]
1CCD  DD070600           [183] getglobal  31  24       ; 2144646525
1CD1  19C80000           [184] loadk      32  3        ; 0
1CD5  4A080006           [185] len        33  12     
1CD9  E2878001           [186] call       31  3   2  
fail op	35
1CDD  2300860F           [187] close      0  
1CE1  1A400180           [188] jmp        6            ; to [195]
1CE5  1D080600           [189] getglobal  32  24       ; 2144646525
1CE9  59C80000           [190] loadk      33  3        ; 0
1CED  8A080006           [191] len        34  12     
1CF1  22888001           [192] call       32  3   2  
1CF5  D2070010           [193] move       31  32     
1CF9  1AC0FD7F           [194] jmp        -8           ; to [187]
1CFD  1206800F           [195] move       24  31     
1D01  13080003           [196] getupval   32  6      
1D05  24884810           [197] self       32  32  290  ; -1642488687
1D09  8EC80706           [198] gettable   34  12  31 
1D0D  CE480607           [199] gettable   35  14  25 
1D11  1D890600           [200] getglobal  36  26       ; -332969190
1D15  59C90800           [201] loadk      37  35       ; "RandomTeam"
1D19  22890001           [202] call       36  2   2  
1D1D  52090003           [203] move       37  6      
1D21  22880003           [204] call       32  6   2  
1D25  92070010           [205] move       30  32     
1D29  1A800680           [206] jmp        27           ; to [234]
1D2D  1D880700           [207] getglobal  32  30       ; 1074689893
1D31  5D080900           [208] getglobal  33  36       ; hackingDroneType
1D35  22880001           [209] call       32  2   2  
1D39  18480000           [210] test       32      1    ; to [212] if false
1D3D  1A400580           [211] jmp        22           ; to [234]
1D41  18040000           [212] test       16      0    ; to [214] if true
1D45  1AC00480           [213] jmp        20           ; to [234]
1D49  03C8C006           [214] add        32  13  259  ; 0
fail op	21
1D4D  15000809           [215] concat     0   18  32 
1D51  1A000480           [216] jmp        17           ; to [234]
1D55  1D080000           [217] getglobal  32  0        ; gRegion
1D59  24484910           [218] self       32  32  293  ; 152279552
1D5D  9D880900           [219] getglobal  34  38       ; hackingDroneAvatarType
1D61  22888001           [220] call       32  3   2  
1D65  4A080010           [221] len        33  32     
fail op	21
1D69  15C0C910           [222] concat     0   33  295
1D6D  1A400280           [223] jmp        10           ; to [234]
1D71  53080003           [224] getupval   33  6      
1D75  6488C810           [225] self       33  33  290  ; -1642488687
1D79  DD080900           [226] getglobal  35  36       ; hackingDroneType
1D7D  0E490607           [227] gettable   36  14  25 
1D81  5D890600           [228] getglobal  37  26       ; -332969190
1D85  99C90800           [229] loadk      38  35       ; "RandomTeam"
1D89  62890001           [230] call       37  2   2  
1D8D  92090003           [231] move       38  6      
1D91  62880003           [232] call       33  6   2  
1D95  92078010           [233] move       30  33     
1D99  5D880700           [234] getglobal  33  30       ; 1074689893
1D9D  9208000F           [235] move       34  30     
1DA1  62880001           [236] call       33  2   2  
1DA5  58480000           [237] test       33      1    ; to [239] if false
1DA9  1AC00680           [238] jmp        28           ; to [267]
1DAD  83C44009           [239] add        18  18  259  ; 0
1DB1  64084A0F           [240] self       33  30  296  ; -1850937571
1DB5  62480001           [241] call       33  2   1  
1DB9  5D880700           [242] getglobal  33  30       ; 1074689893
1DBD  92088008           [243] move       34  17     
1DC1  62880001           [244] call       33  2   2  
1DC5  58480000           [245] test       33      1    ; to [247] if false
1DC9  1A800280           [246] jmp        11           ; to [258]
1DCD  4A088008           [247] len        33  17     
fail op	21
1DD1  15408882           [248] concat     0   261 33 
1DD5  1AC00180           [249] jmp        8            ; to [258]
1DD9  64484A0F           [250] self       33  30  297  ; 1755388072
1DDD  DD080600           [251] getglobal  35  24       ; 2144646525
1DE1  19C90000           [252] loadk      36  3        ; 0
1DE5  4A098008           [253] len        37  17     
1DE9  E2888001           [254] call       35  3   2  
1DED  CEC88808           [255] gettable   35  17  35 
1DF1  62488001           [256] call       33  3   1  
1DF5  1A000280           [257] jmp        9            ; to [267]
1DF9  64484A0F           [258] self       33  30  297  ; 1755388072
1DFD  DD080600           [259] getglobal  35  24       ; 2144646525
1E01  19C90000           [260] loadk      36  3        ; 0
1E05  4A098002           [261] len        37  5      
1E09  E2888001           [262] call       35  3   2  
1E0D  CEC88802           [263] gettable   35  5   35 
1E11  E488CA11           [264] self       35  35  298  ; -2135866365
1E15  E2080001           [265] call       35  2   0  
1E19  62480000           [266] call       33  0   1  
1E1D  43C6C00C           [267] add        25  25  259  ; 0
1E21  4A080007           [268] len        33  14     
fail op	21
1E25  15408610           [269] concat     0   33  25 
1E29  1A000080           [270] jmp        1            ; to [272]
1E2D  59C60000           [271] loadk      25  3        ; 0
1E31  5DC80A00           [272] getglobal  33  43       ; 538022378
1E35  9D080600           [273] getglobal  34  24       ; 2144646525
1E39  D9480100           [274] loadk      35  5        ; 0
1E3D  19C90000           [275] loadk      36  3        ; 0
1E41  A2088001           [276] call       34  3   0  
1E45  62480000           [277] call       33  0   1  
1E49  9486E47F           [278] forloop    26  -109     ; to [170] if loop
1E4D  5DC80A00           [279] getglobal  33  43       ; 538022378
1E51  92088009           [280] move       34  19     
1E55  62480001           [281] call       33  2   1  
1E59  1A40D57F           [282] jmp        -170         ; to [113]
1E5D  53080000           [283] getupval   33  0      
1E61  6488C010           [284] self       33  33  258  ; -803877924
1E65  D3088000           [285] getupval   35  1      
1E69  19490100           [286] loadk      36  5        ; 0
1E6D  62480002           [287] call       33  4   1  
1E71  1E008000           [288] return     0   1      
                         * constants:
1E75  2C                 sizek (44)
1E76  04                 const type 4
1E77  08                 string size (8)
1E78  67526567696F6E00   "gRegion\0"
                         const [0]: "gRegion"
1E80  01                 const type 3
1E81  58F559A5           const [1]: (-1520831144)
1E85  01                 const type 3
1E86  DCCB15D0           const [2]: (-803877924)
1E8A  03                 const type 3
1E8B  0000803F           const [3]: (0)
1E8F  01                 const type 3
1E90  FBE70EED           const [4]: (-317790213)
1E94  03                 const type 3
1E95  00000000           const [5]: (0)
1E99  01                 const type 3
1E9A  9FE1FB48           const [6]: (1224466847)
1E9E  01                 const type 3
1E9F  497363B8           const [7]: (-1201441975)
1EA3  04                 const type 4
1EA4  0E                 string size (14)
1EA5  6D696E456E656D79+  "minEnemy"
1EAD  4C6576656C00       "Level\0"
                         const [8]: "minEnemyLevel"
1EB3  03                 const type 3
1EB4  00002041           const [9]: (0)
1EB8  04                 const type 4
1EB9  06                 string size (6)
1EBA  7461626C6500       "table\0"
                         const [10]: "table"
1EC0  01                 const type 3
1EC1  9D0C45E6           const [11]: (-431682403)
1EC5  04                 const type 4
1EC6  15                 string size (21)
1EC7  616464537061776E+  "addSpawn"
1ECF  4275696C64696E67+  "Building"
1ED7  5765737400         "West\0"
                         const [12]: "addSpawnBuildingWest"
1EDC  04                 const type 4
1EDD  15                 string size (21)
1EDE  616464537061776E+  "addSpawn"
1EE6  4275696C64696E67+  "Building"
1EEE  4561737400         "East\0"
                         const [13]: "addSpawnBuildingEast"
1EF3  04                 const type 4
1EF4  16                 string size (22)
1EF5  616464537061776E+  "addSpawn"
1EFD  4275696C64696E67+  "Building"
1F05  536F75746800       "South\0"
                         const [14]: "addSpawnBuildingSouth"
1F0B  04                 const type 4
1F0C  12                 string size (18)
1F0D  616464537061776E+  "addSpawn"
1F15  436C696666576573+  "CliffWes"
1F1D  7400               "t\0"
                         const [15]: "addSpawnCliffWest"
1F1F  04                 const type 4
1F20  12                 string size (18)
1F21  616464537061776E+  "addSpawn"
1F29  436C696666456173+  "CliffEas"
1F31  7400               "t\0"
                         const [16]: "addSpawnCliffEast"
1F33  03                 const type 3
1F34  00000040           const [17]: (0)
1F38  03                 const type 3
1F39  3333333F           const [18]: (51)
1F3D  04                 const type 4
1F3E  0B                 string size (11)
1F3F  6164647350686173+  "addsPhas"
1F47  653100             "e1\0"
                         const [19]: "addsPhase1"
1F4A  03                 const type 3
1F4B  CDCCCC3E           const [20]: (-51)
1F4F  04                 const type 4
1F50  0B                 string size (11)
1F51  6164647350686173+  "addsPhas"
1F59  653200             "e2\0"
                         const [21]: "addsPhase2"
1F5C  04                 const type 4
1F5D  0B                 string size (11)
1F5E  6164647350686173+  "addsPhas"
1F66  653300             "e3\0"
                         const [22]: "addsPhase3"
1F69  04                 const type 4
1F6A  0D                 string size (13)
1F6B  6D61784164645370+  "maxAddSp"
1F73  61776E7300         "awns\0"
                         const [23]: "maxAddSpawns"
1F78  01                 const type 3
1F79  7DB5D47F           const [24]: (2144646525)
1F7D  01                 const type 3
1F7E  12066FA7           const [25]: (-1485896174)
1F82  01                 const type 3
1F83  1A4B27EC           const [26]: (-332969190)
1F87  04                 const type 4
1F88  08                 string size (8)
1F89  416D62756C617300   "Ambulas\0"
                         const [27]: "Ambulas"
1F91  04                 const type 4
1F92  12                 string size (18)
1F93  616464537061776E+  "addSpawn"
1F9B  4672657175656E63+  "Frequenc"
1FA3  7900               "y\0"
                         const [28]: "addSpawnFrequency"
1FA5  03                 const type 3
1FA6  00001041           const [29]: (0)
1FAA  01                 const type 3
1FAB  65770E40           const [30]: (1074689893)
1FAF  01                 const type 3
1FB0  BBD06CA5           const [31]: (-1519595333)
1FB4  01                 const type 3
1FB5  01000000           const [32]: (1)
1FB9  01                 const type 3
1FBA  FA479C37           const [33]: (932988922)
1FBE  01                 const type 3
1FBF  919C199E           const [34]: (-1642488687)
1FC3  04                 const type 4
1FC4  0B                 string size (11)
1FC5  52616E646F6D5465+  "RandomTe"
1FCD  616D00             "am\0"
                         const [35]: "RandomTeam"
1FD0  04                 const type 4
1FD1  11                 string size (17)
1FD2  6861636B696E6744+  "hackingD"
1FDA  726F6E6554797065+  "roneType"
1FE2  00                 "\0"
                         const [36]: "hackingDroneType"
1FE3  01                 const type 3
1FE4  009A1309           const [37]: (152279552)
1FE8  04                 const type 4
1FE9  17                 string size (23)
1FEA  6861636B696E6744+  "hackingD"
1FF2  726F6E6541766174+  "roneAvat"
1FFA  61725479706500     "arType\0"
                         const [38]: "hackingDroneAvatarType"
2001  03                 const type 3
2002  00008040           const [39]: (0)
2006  01                 const type 3
2007  1DEFAC91           const [40]: (-1850937571)
200B  01                 const type 3
200C  A818A168           const [41]: (1755388072)
2010  01                 const type 3
2011  0344B180           const [42]: (-2135866365)
2015  01                 const type 3
2016  EA911120           const [43]: (538022378)
                         * functions:
201A  00                 sizep (0)
                         * lines:
201C  02                 sizelineinfo (288)
                         [pc] (line)
201D  0F                 [001] (15)
201E  01                 [002] (15)
201F  00                 [003] (15)
2020  00                 [004] (15)
2021  0F                 [005] (15)
2022  01                 [006] (16)
2023  00                 [007] (19)
2024  00                 [008] (19)
2025  0F                 [009] (19)
2026  01                 [010] (19)
2027  00                 [011] (19)
2028  00                 [012] (21)
2029  0F                 [013] (21)
202A  01                 [014] (21)
202B  00                 [015] (21)
202C  00                 [016] (21)
202D  0F                 [017] (22)
202E  01                 [018] (22)
202F  00                 [019] (22)
2030  00                 [020] (22)
2031  10                 [021] (22)
2032  01                 [022] (23)
2033  00                 [023] (23)
2034  00                 [024] (23)
2035  13                 [025] (23)
2036  01                 [026] (23)
2037  00                 [027] (24)
2038  00                 [028] (25)
2039  13                 [029] (25)
203A  01                 [030] (25)
203B  00                 [031] (26)
203C  00                 [032] (26)
203D  13                 [033] (26)
203E  01                 [034] (26)
203F  00                 [035] (26)
2040  00                 [036] (27)
2041  13                 [037] (27)
2042  01                 [038] (28)
2043  00                 [039] (31)
2044  00                 [040] (33)
2045  13                 [041] (34)
2046  01                 [042] (34)
2047  00                 [043] (34)
2048  00                 [044] (34)
2049  15                 [045] (34)
204A  01                 [046] (35)
204B  00                 [047] (35)
204C  00                 [048] (35)
204D  15                 [049] (35)
204E  01                 [050] (35)
204F  00                 [051] (36)
2050  00                 [052] (36)
2051  15                 [053] (36)
2052  01                 [054] (36)
2053  00                 [055] (36)
2054  00                 [056] (38)
2055  15                 [057] (39)
2056  01                 [058] (39)
2057  00                 [059] (39)
2058  00                 [060] (39)
2059  15                 [061] (39)
205A  01                 [062] (40)
205B  00                 [063] (40)
205C  00                 [064] (40)
205D  16                 [065] (40)
205E  01                 [066] (40)
205F  00                 [067] (41)
2060  00                 [068] (41)
2061  16                 [069] (41)
2062  01                 [070] (41)
2063  00                 [071] (41)
2064  00                 [072] (42)
2065  16                 [073] (42)
2066  01                 [074] (42)
2067  00                 [075] (42)
2068  00                 [076] (42)
2069  16                 [077] (44)
206A  01                 [078] (46)
206B  00                 [079] (46)
206C  00                 [080] (46)
206D  16                 [081] (47)
206E  01                 [082] (48)
206F  00                 [083] (50)
2070  00                 [084] (50)
2071  17                 [085] (51)
2072  01                 [086] (51)
2073  00                 [087] (52)
2074  00                 [088] (52)
2075  17                 [089] (53)
2076  01                 [090] (53)
2077  00                 [091] (55)
2078  00                 [092] (58)
2079  17                 [093] (58)
207A  01                 [094] (58)
207B  00                 [095] (58)
207C  00                 [096] (58)
207D  17                 [097] (60)
207E  01                 [098] (61)
207F  00                 [099] (61)
2080  00                 [100] (61)
2081  17                 [101] (61)
2082  01                 [102] (61)
2083  00                 [103] (62)
2084  00                 [104] (64)
2085  18                 [105] (65)
2086  01                 [106] (65)
2087  00                 [107] (65)
2088  00                 [108] (65)
2089  19                 [109] (65)
208A  01                 [110] (65)
208B  00                 [111] (67)
208C  00                 [112] (68)
208D  19                 [113] (70)
208E  01                 [114] (70)
208F  00                 [115] (70)
2090  00                 [116] (70)
2091  19                 [117] (71)
2092  01                 [118] (71)
2093  00                 [119] (71)
2094  00                 [120] (71)
2095  1A                 [121] (71)
2096  01                 [122] (71)
2097  00                 [123] (73)
2098  00                 [124] (74)
2099  1A                 [125] (74)
209A  01                 [126] (74)
209B  00                 [127] (75)
209C  00                 [128] (75)
209D  1A                 [129] (75)
209E  01                 [130] (75)
209F  00                 [131] (76)
20A0  00                 [132] (76)
20A1  1A                 [133] (76)
20A2  01                 [134] (76)
20A3  00                 [135] (76)
20A4  00                 [136] (77)
20A5  1A                 [137] (77)
20A6  01                 [138] (77)
20A7  00                 [139] (77)
20A8  00                 [140] (78)
20A9  1B                 [141] (78)
20AA  01                 [142] (79)
20AB  00                 [143] (75)
20AC  00                 [144] (85)
20AD  1B                 [145] (85)
20AE  01                 [146] (86)
20AF  00                 [147] (86)
20B0  00                 [148] (88)
20B1  1C                 [149] (91)
20B2  01                 [150] (91)
20B3  00                 [151] (92)
20B4  00                 [152] (92)
20B5  1F                 [153] (92)
20B6  01                 [154] (92)
20B7  00                 [155] (92)
20B8  00                 [156] (92)
20B9  21                 [157] (94)
20BA  01                 [158] (96)
20BB  00                 [159] (96)
20BC  00                 [160] (96)
20BD  22                 [161] (96)
20BE  01                 [162] (97)
20BF  00                 [163] (97)
20C0  00                 [164] (99)
20C1  22                 [165] (101)
20C2  01                 [166] (102)
20C3  00                 [167] (102)
20C4  00                 [168] (102)
20C5  22                 [169] (102)
20C6  01                 [170] (103)
20C7  00                 [171] (103)
20C8  00                 [172] (104)
20C9  22                 [173] (107)
20CA  01                 [174] (108)
20CB  00                 [175] (108)
20CC  00                 [176] (109)
20CD  22                 [177] (109)
20CE  01                 [178] (109)
20CF  00                 [179] (109)
20D0  00                 [180] (109)
20D1  23                 [181] (109)
20D2  01                 [182] (109)
20D3  00                 [183] (110)
20D4  00                 [184] (110)
20D5  23                 [185] (110)
20D6  01                 [186] (110)
20D7  00                 [187] (111)
20D8  00                 [188] (111)
20D9  23                 [189] (112)
20DA  01                 [190] (112)
20DB  00                 [191] (112)
20DC  00                 [192] (112)
20DD  23                 [193] (112)
20DE  01                 [194] (112)
20DF  00                 [195] (114)
20E0  00                 [196] (115)
20E1  23                 [197] (115)
20E2  01                 [198] (115)
20E3  00                 [199] (115)
20E4  00                 [200] (115)
20E5  24                 [201] (115)
20E6  01                 [202] (115)
20E7  00                 [203] (115)
20E8  00                 [204] (115)
20E9  24                 [205] (115)
20EA  01                 [206] (116)
20EB  00                 [207] (118)
20EC  00                 [208] (118)
20ED  24                 [209] (118)
20EE  01                 [210] (118)
20EF  00                 [211] (118)
20F0  00                 [212] (118)
20F1  24                 [213] (118)
20F2  01                 [214] (118)
20F3  00                 [215] (118)
20F4  00                 [216] (118)
20F5  24                 [217] (119)
20F6  01                 [218] (119)
20F7  00                 [219] (119)
20F8  00                 [220] (119)
20F9  26                 [221] (120)
20FA  01                 [222] (120)
20FB  00                 [223] (120)
20FC  00                 [224] (121)
20FD  27                 [225] (121)
20FE  01                 [226] (121)
20FF  00                 [227] (121)
2100  00                 [228] (121)
2101  27                 [229] (121)
2102  01                 [230] (121)
2103  00                 [231] (121)
2104  00                 [232] (121)
2105  27                 [233] (121)
2106  01                 [234] (126)
2107  00                 [235] (126)
2108  00                 [236] (126)
2109  27                 [237] (126)
210A  01                 [238] (126)
210B  00                 [239] (127)
210C  00                 [240] (-128)
210D  27                 [241] (-128)
210E  01                 [242] (-127)
210F  00                 [243] (-127)
2110  00                 [244] (-127)
2111  28                 [245] (-127)
2112  01                 [246] (-127)
2113  00                 [247] (-127)
2114  00                 [248] (-127)
2115  28                 [249] (-127)
2116  01                 [250] (-126)
2117  00                 [251] (-126)
2118  00                 [252] (-126)
2119  28                 [253] (-126)
211A  01                 [254] (-126)
211B  00                 [255] (-126)
211C  00                 [256] (-126)
211D  28                 [257] (-126)
211E  01                 [258] (-124)
211F  00                 [259] (-124)
2120  00                 [260] (-124)
2121  28                 [261] (-124)
2122  01                 [262] (-124)
2123  00                 [263] (-124)
2124  00                 [264] (-124)
2125  29                 [265] (-124)
2126  01                 [266] (-124)
2127  00                 [267] (-120)
2128  00                 [268] (-118)
2129  29                 [269] (-118)
212A  01                 [270] (-118)
212B  00                 [271] (-117)
212C  00                 [272] (-114)
212D  29                 [273] (-114)
212E  01                 [274] (-114)
212F  00                 [275] (-114)
2130  00                 [276] (-114)
2131  29                 [277] (-114)
2132  01                 [278] (102)
2133  00                 [279] (-111)
2134  00                 [280] (-111)
2135  29                 [281] (-111)
2136  01                 [282] (-111)
2137  00                 [283] (-108)
2138  00                 [284] (-108)
2139  2A                 [285] (-108)
213A  01                 [286] (-108)
213B  00                 [287] (-108)
213C  00                 [288] (-107)
                         * locals:
249D  00                 sizelocvars (0)
                         * upvalues:
249E  00                 sizeupvalues (0)
                         ** end of function **

                         
249F                     ** function [8] definition (level 2)
                         ** start of function **
249F  00                 string size (0)
                         source name: (none)
24A1  03                 line defined (407)
24A2  D7                 last line defined (471)
24A3  03                 nups (6)
24A4  06                 numparams (1)
24A5  01                 is_vararg (0)
24A6  00                 maxstacksize (27)
                         * code:
24A9  01                 sizecode (147)
24AA  5D000000           [001] getglobal  1   0        ; gRegion
24AE  6440C000           [002] self       1   1   257  ; -1520831144
24B2  62800001           [003] call       1   2   2  
24B6  58400000           [004] test       1       1    ; to [6] if false
24BA  1A000080           [005] jmp        1            ; to [7]
24BE  1E008000           [006] return     0   1      
24C2  5D000000           [007] getglobal  1   0        ; gRegion
24C6  6480C000           [008] self       1   1   258  ; 1224466847
24CA  62800001           [009] call       1   2   2  
24CE  99C00000           [010] loadk      2   3        ; 0
24D2  CA008000           [011] len        3   1      
24D6  19C10000           [012] loadk      4   3        ; 0
24DA  90800380           [013] forprep    2   15       ; to [29]
24DE  9D010100           [014] getglobal  6   4        ; 738251817
24E2  D9410100           [015] loadk      7   5        ; "/Lotus/Sounds/Levels/Missions/Defense/DefenseWaveCleared"
24E6  A2810001           [016] call       6   2   2  
24EA  D3010000           [017] getupval   7   0      
24EE  E481C103           [018] self       7   7   262  ; 908734006
24F2  4E428100           [019] gettable   9   1   5  
24F6  93028000           [020] getupval   10  1      
24FA  D9C20100           [021] loadk      11  7        ; ""
24FE  19030200           [022] loadk      12  8        ; 0
2502  59430200           [023] loadk      13  9        ; 0
2506  97038000           [024] loadbool   14  1   0    ; true
250A  D9C30100           [025] loadk      15  7        ; ""
250E  19C40100           [026] loadk      16  7        ; ""
2512  52040003           [027] move       17  6      
2516  E2418005           [028] call       7   11  1  
251A  94C0FB7F           [029] forloop    2   -16      ; to [14] if loop
251E  D3010000           [030] getupval   7   0      
2522  E481C203           [031] self       7   7   266  ; -317790213
2526  53020001           [032] getupval   9   2      
252A  99020200           [033] loadk      10  8        ; 0
252E  E2810002           [034] call       7   4   2  
2532  13020000           [035] getupval   8   0      
2536  24824204           [036] self       8   8   266  ; -317790213
253A  93028001           [037] getupval   10  3      
253E  D9020200           [038] loadk      11  8        ; 0
2542  22820002           [039] call       8   4   2  
2546  53020000           [040] getupval   9   0      
254A  6482C204           [041] self       9   9   266  ; -317790213
254E  D3020002           [042] getupval   11  4      
2552  19030200           [043] loadk      12  8        ; 0
2556  62820002           [044] call       9   4   2  
255A  9CC28104           [045] div        10  9   7  
255E  DD020000           [046] getglobal  11  0        ; gRegion
2562  E482C005           [047] self       11  11  258  ; 1224466847
2566  E2820001           [048] call       11  2   2  
256A  13030000           [049] getupval   12  0      
256E  24C34206           [050] self       12  12  267  ; -1201441975
2572  22830001           [051] call       12  2   2  
2576  0E034306           [052] gettable   12  12  268  ; "minEnemyLevel"
257A  4B030000           [053] newtable   13  0   0    ; array=0, hash=0
257E  9D430300           [054] getglobal  14  13       ; table
2582  8E834307           [055] gettable   14  14  270  ; -431682403
2586  D2038006           [056] move       15  13     
258A  1DC40300           [057] getglobal  16  15       ; addSpawnBuildingWest
258E  A2438001           [058] call       14  3   1  
2592  9D430300           [059] getglobal  14  13       ; table
2596  8E834307           [060] gettable   14  14  270  ; -431682403
259A  D2038006           [061] move       15  13     
259E  1D040400           [062] getglobal  16  16       ; addSpawnBuildingEast
25A2  A2438001           [063] call       14  3   1  
25A6  9D430300           [064] getglobal  14  13       ; table
25AA  8E834307           [065] gettable   14  14  270  ; -431682403
25AE  D2038006           [066] move       15  13     
25B2  1D440400           [067] getglobal  16  17       ; addSpawnBuildingSouth
25B6  A2438001           [068] call       14  3   1  
25BA  86030007           [069] loadnil    14  14     
25BE  DD830400           [070] getglobal  15  18       ; securityTeam
fail op	21
25C2  15808289           [071] concat     0   275 10 
25C6  1A800080           [072] jmp        3            ; to [76]
25CA  0A048005           [073] len        16  11     
25CE  8303048A           [074] add        14  276 16   ; 0
25D2  1A400080           [075] jmp        2            ; to [78]
25D6  0A048005           [076] len        16  11     
25DA  8303848A           [077] add        14  277 16   ; 0
25DE  0B040000           [078] newtable   16  0   0    ; array=0, hash=0
25E2  5D840500           [079] getglobal  17  22       ; 2144646525
25E6  99C40000           [080] loadk      18  3        ; 0
25EA  CA048006           [081] len        19  13     
25EE  62848001           [082] call       17  3   2  
25F2  0E448406           [083] gettable   16  13  17 
25F6  52040007           [084] move       17  14     
fail op	21
25FA  15400484           [085] concat     0   264 17 
25FE  1AC00E80           [086] jmp        60           ; to [147]
2602  99C40000           [087] loadk      18  3        ; 0
2606  C6048009           [088] loadnil    19  19     
260A  1DC50500           [089] getglobal  20  23       ; 1074689893
260E  52058007           [090] move       21  15     
2612  22850001           [091] call       20  2   2  
2616  18450000           [092] test       20      1    ; to [94] if false
261A  1A400580           [093] jmp        22           ; to [116]
261E  0A058007           [094] len        20  15     
fail op	21
2622  15000584           [095] concat     0   264 20 
2626  1A800480           [096] jmp        19           ; to [116]
262A  1D850500           [097] getglobal  20  22       ; 2144646525
262E  59C50000           [098] loadk      21  3        ; 0
2632  8A058007           [099] len        22  15     
2636  22858001           [100] call       20  3   2  
263A  5D850500           [101] getglobal  21  22       ; 2144646525
263E  99C50000           [102] loadk      22  3        ; 0
2642  CA058006           [103] len        23  13     
2646  62858001           [104] call       21  3   2  
264A  0E448506           [105] gettable   16  13  21 
264E  53058002           [106] getupval   21  5      
2652  6405C60A           [107] self       21  21  280  ; -1642488687
2656  CE058507           [108] gettable   23  15  20 
265A  0E860408           [109] gettable   24  16  18 
265E  5D460600           [110] getglobal  25  25       ; -332969190
2662  99860600           [111] loadk      26  26       ; "RandomTeam"
2666  62860001           [112] call       25  2   2  
266A  92060006           [113] move       26  12     
266E  62850003           [114] call       21  6   2  
2672  D204800A           [115] move       19  21     
2676  5DC50500           [116] getglobal  21  23       ; 1074689893
267A  92058009           [117] move       22  19     
267E  62850001           [118] call       21  2   2  
2682  58450000           [119] test       21      1    ; to [121] if false
2686  1AC00380           [120] jmp        16           ; to [137]
268A  64C5C609           [121] self       21  19  283  ; -1850937571
268E  62450001           [122] call       21  2   1  
2692  5D850500           [123] getglobal  21  22       ; 2144646525
2696  99C50000           [124] loadk      22  3        ; 0
269A  CA058005           [125] len        23  11     
269E  62858001           [126] call       21  3   2  
26A2  4E458505           [127] gettable   21  11  21 
26A6  9DC50500           [128] getglobal  22  23       ; 1074689893
26AA  D205800A           [129] move       23  21     
26AE  A2850001           [130] call       22  2   2  
26B2  98450000           [131] test       22      1    ; to [133] if false
26B6  1AC00080           [132] jmp        4            ; to [137]
26BA  A405C709           [133] self       22  19  284  ; 1755388072
26BE  2446C70A           [134] self       24  21  285  ; -2135866365
26C2  22060001           [135] call       24  2   0  
26C6  A2450000           [136] call       22  0   1  
26CA  83C44009           [137] add        18  18  259  ; 0
26CE  8A050008           [138] len        22  16     
fail op	21
26D2  1580040B           [139] concat     0   22  18 
26D6  1A000080           [140] jmp        1            ; to [142]
26DA  99C40000           [141] loadk      18  3        ; 0
26DE  4DC4C008           [142] sub        17  17  259  ; 0
26E2  9D850700           [143] getglobal  22  30       ; 538022378
26E6  D9C50400           [144] loadk      23  19       ; 0
26EA  A2450001           [145] call       22  2   1  
26EE  1A40F07F           [146] jmp        -62          ; to [85]
26F2  1E008000           [147] return     0   1      
                         * constants:
26F6  1F                 sizek (31)
26F7  04                 const type 4
26F8  08                 string size (8)
26F9  67526567696F6E00   "gRegion\0"
                         const [0]: "gRegion"
2701  01                 const type 3
2702  58F559A5           const [1]: (-1520831144)
2706  01                 const type 3
2707  9FE1FB48           const [2]: (1224466847)
270B  03                 const type 3
270C  0000803F           const [3]: (0)
2710  01                 const type 3
2711  29D4002C           const [4]: (738251817)
2715  04                 const type 4
2716  39                 string size (57)
2717  2F4C6F7475732F53+  "/Lotus/S"
271F  6F756E64732F4C65+  "ounds/Le"
2727  76656C732F4D6973+  "vels/Mis"
272F  73696F6E732F4465+  "sions/De"
2737  66656E73652F4465+  "fense/De"
273F  66656E7365576176+  "fenseWav"
2747  65436C6561726564+  "eCleared"
274F  00                 "\0"
                         const [5]: "/Lotus/Sounds/Levels/Missions/Defense/DefenseWaveCleared"
2750  01                 const type 3
2751  362E2A36           const [6]: (908734006)
2755  04                 const type 4
2756  01                 string size (0)
                         const [7]: ""
2758  03                 const type 3
2759  00000000           const [8]: (0)
275D  03                 const type 3
275E  00002040           const [9]: (0)
2762  01                 const type 3
2763  FBE70EED           const [10]: (-317790213)
2767  01                 const type 3
2768  497363B8           const [11]: (-1201441975)
276C  04                 const type 4
276D  0E                 string size (14)
276E  6D696E456E656D79+  "minEnemy"
2776  4C6576656C00       "Level\0"
                         const [12]: "minEnemyLevel"
277C  04                 const type 4
277D  06                 string size (6)
277E  7461626C6500       "table\0"
                         const [13]: "table"
2784  01                 const type 3
2785  9D0C45E6           const [14]: (-431682403)
2789  04                 const type 4
278A  15                 string size (21)
278B  616464537061776E+  "addSpawn"
2793  4275696C64696E67+  "Building"
279B  5765737400         "West\0"
                         const [15]: "addSpawnBuildingWest"
27A0  04                 const type 4
27A1  15                 string size (21)
27A2  616464537061776E+  "addSpawn"
27AA  4275696C64696E67+  "Building"
27B2  4561737400         "East\0"
                         const [16]: "addSpawnBuildingEast"
27B7  04                 const type 4
27B8  16                 string size (22)
27B9  616464537061776E+  "addSpawn"
27C1  4275696C64696E67+  "Building"
27C9  536F75746800       "South\0"
                         const [17]: "addSpawnBuildingSouth"
27CF  04                 const type 4
27D0  0D                 string size (13)
27D1  7365637572697479+  "security"
27D9  5465616D00         "Team\0"
                         const [18]: "securityTeam"
27DE  03                 const type 3
27DF  0000003F           const [19]: (0)
27E3  03                 const type 3
27E4  00000040           const [20]: (0)
27E8  03                 const type 3
27E9  00004040           const [21]: (0)
27ED  01                 const type 3
27EE  7DB5D47F           const [22]: (2144646525)
27F2  01                 const type 3
27F3  65770E40           const [23]: (1074689893)
27F7  01                 const type 3
27F8  919C199E           const [24]: (-1642488687)
27FC  01                 const type 3
27FD  1A4B27EC           const [25]: (-332969190)
2801  04                 const type 4
2802  0B                 string size (11)
2803  52616E646F6D5465+  "RandomTe"
280B  616D00             "am\0"
                         const [26]: "RandomTeam"
280E  01                 const type 3
280F  1DEFAC91           const [27]: (-1850937571)
2813  01                 const type 3
2814  A818A168           const [28]: (1755388072)
2818  01                 const type 3
2819  0344B180           const [29]: (-2135866365)
281D  01                 const type 3
281E  EA911120           const [30]: (538022378)
                         * functions:
2822  00                 sizep (0)
                         * lines:
2824  01                 sizelineinfo (147)
                         [pc] (line)
2825  99                 [001] (-103)
2826  01                 [002] (-103)
2827  00                 [003] (-103)
2828  00                 [004] (-103)
2829  99                 [005] (-103)
282A  01                 [006] (-102)
282B  00                 [007] (-99)
282C  00                 [008] (-99)
282D  99                 [009] (-99)
282E  01                 [010] (-98)
282F  00                 [011] (-98)
2830  00                 [012] (-98)
2831  99                 [013] (-98)
2832  01                 [014] (-97)
2833  00                 [015] (-97)
2834  00                 [016] (-97)
2835  99                 [017] (-96)
2836  01                 [018] (-96)
2837  00                 [019] (-96)
2838  00                 [020] (-96)
2839  9A                 [021] (-96)
283A  01                 [022] (-96)
283B  00                 [023] (-96)
283C  00                 [024] (-96)
283D  9D                 [025] (-96)
283E  01                 [026] (-96)
283F  00                 [027] (-96)
2840  00                 [028] (-96)
2841  9D                 [029] (-98)
2842  01                 [030] (-92)
2843  00                 [031] (-92)
2844  00                 [032] (-92)
2845  9D                 [033] (-92)
2846  01                 [034] (-92)
2847  00                 [035] (-91)
2848  00                 [036] (-91)
2849  9E                 [037] (-91)
284A  01                 [038] (-91)
284B  00                 [039] (-91)
284C  00                 [040] (-90)
284D  9E                 [041] (-90)
284E  01                 [042] (-90)
284F  00                 [043] (-90)
2850  00                 [044] (-90)
2851  9E                 [045] (-89)
2852  01                 [046] (-88)
2853  00                 [047] (-88)
2854  00                 [048] (-88)
2855  9E                 [049] (-87)
2856  01                 [050] (-87)
2857  00                 [051] (-87)
2858  00                 [052] (-87)
2859  9F                 [053] (-85)
285A  01                 [054] (-84)
285B  00                 [055] (-84)
285C  00                 [056] (-84)
285D  9F                 [057] (-84)
285E  01                 [058] (-84)
285F  00                 [059] (-83)
2860  00                 [060] (-83)
2861  9F                 [061] (-83)
2862  01                 [062] (-83)
2863  00                 [063] (-83)
2864  00                 [064] (-82)
2865  A0                 [065] (-82)
2866  01                 [066] (-82)
2867  00                 [067] (-82)
2868  00                 [068] (-82)
2869  A0                 [069] (-80)
286A  01                 [070] (-79)
286B  00                 [071] (-77)
286C  00                 [072] (-77)
286D  A0                 [073] (-76)
286E  01                 [074] (-76)
286F  00                 [075] (-76)
2870  00                 [076] (-74)
2871  A0                 [077] (-74)
2872  01                 [078] (-71)
2873  00                 [079] (-70)
2874  00                 [080] (-70)
2875  A0                 [081] (-70)
2876  01                 [082] (-70)
2877  00                 [083] (-70)
2878  00                 [084] (-68)
2879  A0                 [085] (-67)
287A  01                 [086] (-67)
287B  00                 [087] (-66)
287C  00                 [088] (-65)
287D  A0                 [089] (-64)
287E  01                 [090] (-64)
287F  00                 [091] (-64)
2880  00                 [092] (-64)
2881  A0                 [093] (-64)
2882  01                 [094] (-64)
2883  00                 [095] (-64)
2884  00                 [096] (-64)
2885  A0                 [097] (-63)
2886  01                 [098] (-63)
2887  00                 [099] (-63)
2888  00                 [100] (-63)
2889  A0                 [101] (-62)
288A  01                 [102] (-62)
288B  00                 [103] (-62)
288C  00                 [104] (-62)
288D  A0                 [105] (-62)
288E  01                 [106] (-61)
288F  00                 [107] (-61)
2890  00                 [108] (-61)
2891  A0                 [109] (-61)
2892  01                 [110] (-61)
2893  00                 [111] (-61)
2894  00                 [112] (-61)
2895  9E                 [113] (-61)
2896  01                 [114] (-61)
2897  00                 [115] (-61)
2898  00                 [116] (-59)
2899  A4                 [117] (-59)
289A  01                 [118] (-59)
289B  00                 [119] (-59)
289C  00                 [120] (-59)
289D  A4                 [121] (-58)
289E  01                 [122] (-58)
289F  00                 [123] (-57)
28A0  00                 [124] (-57)
28A1  A4                 [125] (-57)
28A2  01                 [126] (-57)
28A3  00                 [127] (-57)
28A4  00                 [128] (-56)
28A5  A4                 [129] (-56)
28A6  01                 [130] (-56)
28A7  00                 [131] (-56)
28A8  00                 [132] (-56)
28A9  A4                 [133] (-55)
28AA  01                 [134] (-55)
28AB  00                 [135] (-55)
28AC  00                 [136] (-55)
28AD  A5                 [137] (-51)
28AE  01                 [138] (-49)
28AF  00                 [139] (-49)
28B0  00                 [140] (-49)
28B1  A5                 [141] (-48)
28B2  01                 [142] (-45)
28B3  00                 [143] (-43)
28B4  00                 [144] (-43)
28B5  A5                 [145] (-43)
28B6  01                 [146] (-43)
28B7  00                 [147] (-41)
                         * locals:
2A71  00                 sizelocvars (0)
                         * upvalues:
2A72  00                 sizeupvalues (0)
                         ** end of function **

                         
2A73                     ** function [9] definition (level 2)
                         ** start of function **
2A73  00                 string size (0)
                         source name: (none)
2A75  03                 line defined (473)
2A76  98                 last line defined (536)
2A77  04                 nups (6)
2A78  06                 numparams (1)
2A79  01                 is_vararg (0)
2A7A  00                 maxstacksize (27)
                         * code:
2A7D  01                 sizecode (147)
2A7E  5D000000           [001] getglobal  1   0        ; gRegion
2A82  6440C000           [002] self       1   1   257  ; -1520831144
2A86  62800001           [003] call       1   2   2  
2A8A  58400000           [004] test       1       1    ; to [6] if false
2A8E  1A000080           [005] jmp        1            ; to [7]
2A92  1E008000           [006] return     0   1      
2A96  5D000000           [007] getglobal  1   0        ; gRegion
2A9A  6480C000           [008] self       1   1   258  ; 1224466847
2A9E  62800001           [009] call       1   2   2  
2AA2  99C00000           [010] loadk      2   3        ; 0
2AA6  CA008000           [011] len        3   1      
2AAA  19C10000           [012] loadk      4   3        ; 0
2AAE  90800380           [013] forprep    2   15       ; to [29]
2AB2  9D010100           [014] getglobal  6   4        ; 738251817
2AB6  D9410100           [015] loadk      7   5        ; "/Lotus/Sounds/Levels/Missions/Defense/DefenseWaveCleared"
2ABA  A2810001           [016] call       6   2   2  
2ABE  D3010000           [017] getupval   7   0      
2AC2  E481C103           [018] self       7   7   262  ; 908734006
2AC6  4E428100           [019] gettable   9   1   5  
2ACA  93028000           [020] getupval   10  1      
2ACE  D9C20100           [021] loadk      11  7        ; ""
2AD2  19030200           [022] loadk      12  8        ; 0
2AD6  59430200           [023] loadk      13  9        ; 0
2ADA  97038000           [024] loadbool   14  1   0    ; true
2ADE  D9C30100           [025] loadk      15  7        ; ""
2AE2  19C40100           [026] loadk      16  7        ; ""
2AE6  52040003           [027] move       17  6      
2AEA  E2418005           [028] call       7   11  1  
2AEE  94C0FB7F           [029] forloop    2   -16      ; to [14] if loop
2AF2  D3010000           [030] getupval   7   0      
2AF6  E481C203           [031] self       7   7   266  ; -317790213
2AFA  53020001           [032] getupval   9   2      
2AFE  99020200           [033] loadk      10  8        ; 0
2B02  E2810002           [034] call       7   4   2  
2B06  13020000           [035] getupval   8   0      
2B0A  24824204           [036] self       8   8   266  ; -317790213
2B0E  93028001           [037] getupval   10  3      
2B12  D9020200           [038] loadk      11  8        ; 0
2B16  22820002           [039] call       8   4   2  
2B1A  53020000           [040] getupval   9   0      
2B1E  6482C204           [041] self       9   9   266  ; -317790213
2B22  D3020002           [042] getupval   11  4      
2B26  19030200           [043] loadk      12  8        ; 0
2B2A  62820002           [044] call       9   4   2  
2B2E  9CC28104           [045] div        10  9   7  
2B32  DD020000           [046] getglobal  11  0        ; gRegion
2B36  E482C005           [047] self       11  11  258  ; 1224466847
2B3A  E2820001           [048] call       11  2   2  
2B3E  13030000           [049] getupval   12  0      
2B42  24C34206           [050] self       12  12  267  ; -1201441975
2B46  22830001           [051] call       12  2   2  
2B4A  0E034306           [052] gettable   12  12  268  ; "minEnemyLevel"
2B4E  4B030000           [053] newtable   13  0   0    ; array=0, hash=0
2B52  9D430300           [054] getglobal  14  13       ; table
2B56  8E834307           [055] gettable   14  14  270  ; -431682403
2B5A  D2038006           [056] move       15  13     
2B5E  1DC40300           [057] getglobal  16  15       ; addSpawnBuildingWest
2B62  A2438001           [058] call       14  3   1  
2B66  9D430300           [059] getglobal  14  13       ; table
2B6A  8E834307           [060] gettable   14  14  270  ; -431682403
2B6E  D2038006           [061] move       15  13     
2B72  1D040400           [062] getglobal  16  16       ; addSpawnBuildingEast
2B76  A2438001           [063] call       14  3   1  
2B7A  9D430300           [064] getglobal  14  13       ; table
2B7E  8E834307           [065] gettable   14  14  270  ; -431682403
2B82  D2038006           [066] move       15  13     
2B86  1D440400           [067] getglobal  16  17       ; addSpawnBuildingSouth
2B8A  A2438001           [068] call       14  3   1  
2B8E  86030007           [069] loadnil    14  14     
2B92  DD830400           [070] getglobal  15  18       ; droneStrikeTeam
fail op	21
2B96  15808289           [071] concat     0   275 10 
2B9A  1A800080           [072] jmp        3            ; to [76]
2B9E  0A048005           [073] len        16  11     
2BA2  8303048A           [074] add        14  276 16   ; 0
2BA6  1A400080           [075] jmp        2            ; to [78]
2BAA  0A048005           [076] len        16  11     
2BAE  8303848A           [077] add        14  277 16   ; 0
2BB2  0B040000           [078] newtable   16  0   0    ; array=0, hash=0
2BB6  5D840500           [079] getglobal  17  22       ; 2144646525
2BBA  99C40000           [080] loadk      18  3        ; 0
2BBE  CA048006           [081] len        19  13     
2BC2  62848001           [082] call       17  3   2  
2BC6  0E448406           [083] gettable   16  13  17 
2BCA  52040007           [084] move       17  14     
fail op	21
2BCE  15400484           [085] concat     0   264 17 
2BD2  1AC00E80           [086] jmp        60           ; to [147]
2BD6  99C40000           [087] loadk      18  3        ; 0
2BDA  C6048009           [088] loadnil    19  19     
2BDE  1DC50500           [089] getglobal  20  23       ; 1074689893
2BE2  52058007           [090] move       21  15     
2BE6  22850001           [091] call       20  2   2  
2BEA  18450000           [092] test       20      1    ; to [94] if false
2BEE  1A400580           [093] jmp        22           ; to [116]
2BF2  0A058007           [094] len        20  15     
fail op	21
2BF6  15000584           [095] concat     0   264 20 
2BFA  1A800480           [096] jmp        19           ; to [116]
2BFE  1D850500           [097] getglobal  20  22       ; 2144646525
2C02  59C50000           [098] loadk      21  3        ; 0
2C06  8A058007           [099] len        22  15     
2C0A  22858001           [100] call       20  3   2  
2C0E  5D850500           [101] getglobal  21  22       ; 2144646525
2C12  99C50000           [102] loadk      22  3        ; 0
2C16  CA058006           [103] len        23  13     
2C1A  62858001           [104] call       21  3   2  
2C1E  0E448506           [105] gettable   16  13  21 
2C22  53058002           [106] getupval   21  5      
2C26  6405C60A           [107] self       21  21  280  ; -1642488687
2C2A  CE058507           [108] gettable   23  15  20 
2C2E  0E860408           [109] gettable   24  16  18 
2C32  5D460600           [110] getglobal  25  25       ; -332969190
2C36  99860600           [111] loadk      26  26       ; "RandomTeam"
2C3A  62860001           [112] call       25  2   2  
2C3E  92060006           [113] move       26  12     
2C42  62850003           [114] call       21  6   2  
2C46  D204800A           [115] move       19  21     
2C4A  5DC50500           [116] getglobal  21  23       ; 1074689893
2C4E  92058009           [117] move       22  19     
2C52  62850001           [118] call       21  2   2  
2C56  58450000           [119] test       21      1    ; to [121] if false
2C5A  1AC00380           [120] jmp        16           ; to [137]
2C5E  64C5C609           [121] self       21  19  283  ; -1850937571
2C62  62450001           [122] call       21  2   1  
2C66  5D850500           [123] getglobal  21  22       ; 2144646525
2C6A  99C50000           [124] loadk      22  3        ; 0
2C6E  CA058005           [125] len        23  11     
2C72  62858001           [126] call       21  3   2  
2C76  4E458505           [127] gettable   21  11  21 
2C7A  9DC50500           [128] getglobal  22  23       ; 1074689893
2C7E  D205800A           [129] move       23  21     
2C82  A2850001           [130] call       22  2   2  
2C86  98450000           [131] test       22      1    ; to [133] if false
2C8A  1AC00080           [132] jmp        4            ; to [137]
2C8E  A405C709           [133] self       22  19  284  ; 1755388072
2C92  2446C70A           [134] self       24  21  285  ; -2135866365
2C96  22060001           [135] call       24  2   0  
2C9A  A2450000           [136] call       22  0   1  
2C9E  83C44009           [137] add        18  18  259  ; 0
2CA2  8A050008           [138] len        22  16     
fail op	21
2CA6  1580040B           [139] concat     0   22  18 
2CAA  1A000080           [140] jmp        1            ; to [142]
2CAE  99C40000           [141] loadk      18  3        ; 0
2CB2  4DC4C008           [142] sub        17  17  259  ; 0
2CB6  9D850700           [143] getglobal  22  30       ; 538022378
2CBA  D9C50400           [144] loadk      23  19       ; 0
2CBE  A2450001           [145] call       22  2   1  
2CC2  1A40F07F           [146] jmp        -62          ; to [85]
2CC6  1E008000           [147] return     0   1      
                         * constants:
2CCA  1F                 sizek (31)
2CCB  04                 const type 4
2CCC  08                 string size (8)
2CCD  67526567696F6E00   "gRegion\0"
                         const [0]: "gRegion"
2CD5  01                 const type 3
2CD6  58F559A5           const [1]: (-1520831144)
2CDA  01                 const type 3
2CDB  9FE1FB48           const [2]: (1224466847)
2CDF  03                 const type 3
2CE0  0000803F           const [3]: (0)
2CE4  01                 const type 3
2CE5  29D4002C           const [4]: (738251817)
2CE9  04                 const type 4
2CEA  39                 string size (57)
2CEB  2F4C6F7475732F53+  "/Lotus/S"
2CF3  6F756E64732F4C65+  "ounds/Le"
2CFB  76656C732F4D6973+  "vels/Mis"
2D03  73696F6E732F4465+  "sions/De"
2D0B  66656E73652F4465+  "fense/De"
2D13  66656E7365576176+  "fenseWav"
2D1B  65436C6561726564+  "eCleared"
2D23  00                 "\0"
                         const [5]: "/Lotus/Sounds/Levels/Missions/Defense/DefenseWaveCleared"
2D24  01                 const type 3
2D25  362E2A36           const [6]: (908734006)
2D29  04                 const type 4
2D2A  01                 string size (0)
                         const [7]: ""
2D2C  03                 const type 3
2D2D  00000000           const [8]: (0)
2D31  03                 const type 3
2D32  00002040           const [9]: (0)
2D36  01                 const type 3
2D37  FBE70EED           const [10]: (-317790213)
2D3B  01                 const type 3
2D3C  497363B8           const [11]: (-1201441975)
2D40  04                 const type 4
2D41  0E                 string size (14)
2D42  6D696E456E656D79+  "minEnemy"
2D4A  4C6576656C00       "Level\0"
                         const [12]: "minEnemyLevel"
2D50  04                 const type 4
2D51  06                 string size (6)
2D52  7461626C6500       "table\0"
                         const [13]: "table"
2D58  01                 const type 3
2D59  9D0C45E6           const [14]: (-431682403)
2D5D  04                 const type 4
2D5E  15                 string size (21)
2D5F  616464537061776E+  "addSpawn"
2D67  4275696C64696E67+  "Building"
2D6F  5765737400         "West\0"
                         const [15]: "addSpawnBuildingWest"
2D74  04                 const type 4
2D75  15                 string size (21)
2D76  616464537061776E+  "addSpawn"
2D7E  4275696C64696E67+  "Building"
2D86  4561737400         "East\0"
                         const [16]: "addSpawnBuildingEast"
2D8B  04                 const type 4
2D8C  16                 string size (22)
2D8D  616464537061776E+  "addSpawn"
2D95  4275696C64696E67+  "Building"
2D9D  536F75746800       "South\0"
                         const [17]: "addSpawnBuildingSouth"
2DA3  04                 const type 4
2DA4  10                 string size (16)
2DA5  64726F6E65537472+  "droneStr"
2DAD  696B655465616D00   "ikeTeam\0"
                         const [18]: "droneStrikeTeam"
2DB5  03                 const type 3
2DB6  0000003F           const [19]: (0)
2DBA  03                 const type 3
2DBB  00008040           const [20]: (0)
2DBF  03                 const type 3
2DC0  0000C040           const [21]: (0)
2DC4  01                 const type 3
2DC5  7DB5D47F           const [22]: (2144646525)
2DC9  01                 const type 3
2DCA  65770E40           const [23]: (1074689893)
2DCE  01                 const type 3
2DCF  919C199E           const [24]: (-1642488687)
2DD3  01                 const type 3
2DD4  1A4B27EC           const [25]: (-332969190)
2DD8  04                 const type 4
2DD9  0B                 string size (11)
2DDA  52616E646F6D5465+  "RandomTe"
2DE2  616D00             "am\0"
                         const [26]: "RandomTeam"
2DE5  01                 const type 3
2DE6  1DEFAC91           const [27]: (-1850937571)
2DEA  01                 const type 3
2DEB  A818A168           const [28]: (1755388072)
2DEF  01                 const type 3
2DF0  0344B180           const [29]: (-2135866365)
2DF4  01                 const type 3
2DF5  EA911120           const [30]: (538022378)
                         * functions:
2DF9  00                 sizep (0)
                         * lines:
2DFB  01                 sizelineinfo (147)
                         [pc] (line)
2DFC  DA                 [001] (-38)
2DFD  01                 [002] (-38)
2DFE  00                 [003] (-38)
2DFF  00                 [004] (-38)
2E00  DA                 [005] (-38)
2E01  01                 [006] (-37)
2E02  00                 [007] (-34)
2E03  00                 [008] (-34)
2E04  DA                 [009] (-34)
2E05  01                 [010] (-33)
2E06  00                 [011] (-33)
2E07  00                 [012] (-33)
2E08  DA                 [013] (-33)
2E09  01                 [014] (-32)
2E0A  00                 [015] (-32)
2E0B  00                 [016] (-32)
2E0C  DA                 [017] (-31)
2E0D  01                 [018] (-31)
2E0E  00                 [019] (-31)
2E0F  00                 [020] (-31)
2E10  DB                 [021] (-31)
2E11  01                 [022] (-31)
2E12  00                 [023] (-31)
2E13  00                 [024] (-31)
2E14  DE                 [025] (-31)
2E15  01                 [026] (-31)
2E16  00                 [027] (-31)
2E17  00                 [028] (-31)
2E18  DE                 [029] (-33)
2E19  01                 [030] (-27)
2E1A  00                 [031] (-27)
2E1B  00                 [032] (-27)
2E1C  DE                 [033] (-27)
2E1D  01                 [034] (-27)
2E1E  00                 [035] (-26)
2E1F  00                 [036] (-26)
2E20  DF                 [037] (-26)
2E21  01                 [038] (-26)
2E22  00                 [039] (-26)
2E23  00                 [040] (-25)
2E24  DF                 [041] (-25)
2E25  01                 [042] (-25)
2E26  00                 [043] (-25)
2E27  00                 [044] (-25)
2E28  DF                 [045] (-24)
2E29  01                 [046] (-23)
2E2A  00                 [047] (-23)
2E2B  00                 [048] (-23)
2E2C  DF                 [049] (-22)
2E2D  01                 [050] (-22)
2E2E  00                 [051] (-22)
2E2F  00                 [052] (-22)
2E30  E0                 [053] (-20)
2E31  01                 [054] (-19)
2E32  00                 [055] (-19)
2E33  00                 [056] (-19)
2E34  E0                 [057] (-19)
2E35  01                 [058] (-19)
2E36  00                 [059] (-18)
2E37  00                 [060] (-18)
2E38  E0                 [061] (-18)
2E39  01                 [062] (-18)
2E3A  00                 [063] (-18)
2E3B  00                 [064] (-17)
2E3C  E1                 [065] (-17)
2E3D  01                 [066] (-17)
2E3E  00                 [067] (-17)
2E3F  00                 [068] (-17)
2E40  E1                 [069] (-15)
2E41  01                 [070] (-14)
2E42  00                 [071] (-12)
2E43  00                 [072] (-12)
2E44  E1                 [073] (-11)
2E45  01                 [074] (-11)
2E46  00                 [075] (-11)
2E47  00                 [076] (-9)
2E48  E1                 [077] (-9)
2E49  01                 [078] (-6)
2E4A  00                 [079] (-5)
2E4B  00                 [080] (-5)
2E4C  E1                 [081] (-5)
2E4D  01                 [082] (-5)
2E4E  00                 [083] (-5)
2E4F  00                 [084] (-3)
2E50  E1                 [085] (-2)
2E51  01                 [086] (-2)
2E52  00                 [087] (-1)
2E53  00                 [088] (0)
2E54  E1                 [089] (1)
2E55  01                 [090] (1)
2E56  00                 [091] (1)
2E57  00                 [092] (1)
2E58  E1                 [093] (1)
2E59  01                 [094] (1)
2E5A  00                 [095] (1)
2E5B  00                 [096] (1)
2E5C  E1                 [097] (2)
2E5D  01                 [098] (2)
2E5E  00                 [099] (2)
2E5F  00                 [100] (2)
2E60  E1                 [101] (3)
2E61  01                 [102] (3)
2E62  00                 [103] (3)
2E63  00                 [104] (3)
2E64  E1                 [105] (3)
2E65  01                 [106] (4)
2E66  00                 [107] (4)
2E67  00                 [108] (4)
2E68  E1                 [109] (4)
2E69  01                 [110] (4)
2E6A  00                 [111] (4)
2E6B  00                 [112] (4)
2E6C  DF                 [113] (4)
2E6D  01                 [114] (4)
2E6E  00                 [115] (4)
2E6F  00                 [116] (6)
2E70  E5                 [117] (6)
2E71  01                 [118] (6)
2E72  00                 [119] (6)
2E73  00                 [120] (6)
2E74  E5                 [121] (7)
2E75  01                 [122] (7)
2E76  00                 [123] (8)
2E77  00                 [124] (8)
2E78  E5                 [125] (8)
2E79  01                 [126] (8)
2E7A  00                 [127] (8)
2E7B  00                 [128] (9)
2E7C  E5                 [129] (9)
2E7D  01                 [130] (9)
2E7E  00                 [131] (9)
2E7F  00                 [132] (9)
2E80  E5                 [133] (10)
2E81  01                 [134] (10)
2E82  00                 [135] (10)
2E83  00                 [136] (10)
2E84  E6                 [137] (14)
2E85  01                 [138] (16)
2E86  00                 [139] (16)
2E87  00                 [140] (16)
2E88  E6                 [141] (17)
2E89  01                 [142] (20)
2E8A  00                 [143] (22)
2E8B  00                 [144] (22)
2E8C  E6                 [145] (22)
2E8D  01                 [146] (22)
2E8E  00                 [147] (24)
                         * locals:
3048  00                 sizelocvars (0)
                         * upvalues:
3049  00                 sizeupvalues (0)
                         ** end of function **

                         
304A                     ** function [10] definition (level 2)
                         ** start of function **
304A  00                 string size (0)
                         source name: (none)
304C  04                 line defined (538)
304D  EA                 last line defined (618)
304E  04                 nups (0)
304F  00                 numparams (2)
3050  02                 is_vararg (0)
3051  00                 maxstacksize (19)
                         * code:
3054  01                 sizecode (160)
3055  9D000000           [001] getglobal  2   0        ; gRegion
3059  A4404001           [002] self       2   2   257  ; -1520831144
305D  A2800001           [003] call       2   2   2  
3061  98000000           [004] test       2       0    ; to [6] if true
3065  1AC00080           [005] jmp        4            ; to [10]
3069  9D800000           [006] getglobal  2   2        ; -1817107093
306D  D9C00000           [007] loadk      3   3        ; "Starting Ambulas tractor beam on host"
3071  A2400001           [008] call       2   2   1  
3075  1A800080           [009] jmp        3            ; to [13]
3079  9D800000           [010] getglobal  2   2        ; -1817107093
307D  D9000100           [011] loadk      3   4        ; "Starting Ambulas tractor beam on client"
3081  A2400001           [012] call       2   2   1  
3085  A4404100           [013] self       2   0   261  ; 746312042
3089  17010000           [014] loadbool   4   0   0    ; false
308D  A2408001           [015] call       2   3   1  
3091  99800100           [016] loadk      2   6        ; 0
3095  C6008001           [017] loadnil    3   3      
3099  24C14100           [018] self       4   0   263  ; 1839670529
309D  22810001           [019] call       4   2   2  
30A1  5D010200           [020] getglobal  5   8        ; 572299008
30A5  8E414202           [021] gettable   6   4   265  ; "x"
30A9  CE814202           [022] gettable   7   4   266  ; "y"
30AD  C3C1C203           [023] add        7   7   267  ; 0
30B1  0E024302           [024] gettable   8   4   268  ; "z"
30B5  62810002           [025] call       5   4   2  
30B9  86018003           [026] loadnil    6   7      
30BD  24424300           [027] self       8   0   269  ; -231049143
30C1  22820001           [028] call       8   2   2  
30C5  5D020000           [029] getglobal  9   0        ; gRegion
30C9  6482C304           [030] self       9   9   270  ; -1110225722
30CD  DDC20300           [031] getglobal  11  15       ; tractorBeamMoverEntity
30D1  12030002           [032] move       12  4      
30D5  52030004           [033] move       13  8      
30D9  62828002           [034] call       9   5   2  
30DD  A4024400           [035] self       10  0   272  ; -1005242665
30E1  12038004           [036] move       12  9      
30E5  5D430400           [037] getglobal  13  17       ; -332969190
30E9  62038000           [038] call       13  1   0  
30ED  A2420000           [039] call       10  0   1  
fail op	21
30F1  15804401           [040] concat     0   2   274
30F5  1A400680           [041] jmp        26           ; to [68]
30F9  9DC20400           [042] getglobal  10  19       ; 1289681407
30FD  A2828000           [043] call       10  1   2  
3101  83800201           [044] add        2   2   10 
3105  DC804401           [045] div        3   2   274  ; 0
3109  9D020500           [046] getglobal  10  20       ; -523730508
310D  D2020002           [047] move       11  4      
3111  12038002           [048] move       12  5      
3115  52038001           [049] move       13  3      
3119  A2820002           [050] call       10  4   2  
311D  D2010005           [051] move       7   10     
3121  92018003           [052] move       6   7      
3125  9D420500           [053] getglobal  10  21       ; -617282374
3129  D2020004           [054] move       11  8      
312D  2443C300           [055] self       12  1   269  ; -231049143
3131  22830001           [056] call       12  2   2  
3135  52038001           [057] move       13  3      
3139  A2820002           [058] call       10  4   2  
313D  12020005           [059] move       8   10     
3141  A482C504           [060] self       10  9   278  ; 970454089
3145  12038003           [061] move       12  7      
3149  52030004           [062] move       13  8      
314D  A2420002           [063] call       10  4   1  
3151  9DC20500           [064] getglobal  10  23       ; 538022378
3155  D9820100           [065] loadk      11  6        ; 0
3159  A2420001           [066] call       10  2   1  
315D  1AC0F87F           [067] jmp        -28          ; to [40]
3161  A4024600           [068] self       10  0   280  ; -1625438872
3165  1D430600           [069] getglobal  12  25       ; tractorBeamBuffFX
3169  A2828001           [070] call       10  3   2  
316D  DD820600           [071] getglobal  11  26       ; 1074689893
3171  12030005           [072] move       12  10     
3175  E2820001           [073] call       11  2   2  
3179  D8420000           [074] test       11      1    ; to [76] if false
317D  1A400080           [075] jmp        2            ; to [78]
3181  E4C24605           [076] self       11  10  283  ; -725453761
3185  E2420001           [077] call       11  2   1  
3189  E4C2C100           [078] self       11  1   263  ; 1839670529
318D  E2820001           [079] call       11  2   2  
3191  52018005           [080] move       5   11     
3195  E4024700           [081] self       11  0   284  ; -1421644046
3199  5D430700           [082] getglobal  13  29       ; tractorBeamBeamFX
319D  9D430400           [083] getglobal  14  17       ; -332969190
31A1  D9830700           [084] loadk      15  30       ; "GAME_C1_SPINE1"
31A5  A2030001           [085] call       14  2   0  
31A9  E2820000           [086] call       11  0   2  
31AD  1D830600           [087] getglobal  12  26       ; 1074689893
31B1  52038005           [088] move       13  11     
31B5  22830001           [089] call       12  2   2  
31B9  18430000           [090] test       12      1    ; to [92] if false
31BD  1A800080           [091] jmp        3            ; to [95]
31C1  24C3C705           [092] self       12  11  287  ; 1311555023
31C5  92038002           [093] move       14  5      
31C9  22438001           [094] call       12  3   1  
31CD  24034700           [095] self       12  0   284  ; -1421644046
31D1  9D030800           [096] getglobal  14  32       ; tractorBeamProjFX
31D5  DD430800           [097] getglobal  15  33       ; EMPTY_SYMBOL
31D9  22830002           [098] call       12  4   2  
31DD  6403C700           [099] self       13  1   284  ; -1421644046
31E1  DD830800           [100] getglobal  15  34       ; tractorBeamEndpointFX
31E5  1D440800           [101] getglobal  16  33       ; EMPTY_SYMBOL
31E9  62830002           [102] call       13  4   2  
31ED  99800100           [103] loadk      2   6        ; 0
fail op	21
31F1  15804401           [104] concat     0   2   274
31F5  1A800480           [105] jmp        19           ; to [125]
31F9  9DC30400           [106] getglobal  14  19       ; 1289681407
31FD  A2838000           [107] call       14  1   2  
3201  83800301           [108] add        2   2   14 
3205  DC804401           [109] div        3   2   274  ; 0
3209  9D030500           [110] getglobal  14  20       ; -523730508
320D  D2030003           [111] move       15  6      
3211  12048002           [112] move       16  5      
3215  52048001           [113] move       17  3      
3219  A2830002           [114] call       14  4   2  
321D  D2010007           [115] move       7   14     
3221  A483C504           [116] self       14  9   278  ; 970454089
3225  12048003           [117] move       16  7      
3229  6444C300           [118] self       17  1   269  ; -231049143
322D  62040001           [119] call       17  2   0  
3231  A2430000           [120] call       14  0   1  
3235  9DC30500           [121] getglobal  14  23       ; 538022378
3239  D9830100           [122] loadk      15  6        ; 0
323D  A2430001           [123] call       14  2   1  
3241  1A80FA7F           [124] jmp        -21          ; to [104]
3245  A4C34800           [125] self       14  0   291  ; -1990411311
3249  A2430001           [126] call       14  2   1  
324D  A4034400           [127] self       14  0   272  ; -1005242665
3251  12048000           [128] move       16  1      
3255  5D440400           [129] getglobal  17  17       ; -332969190
3259  62048000           [130] call       17  1   0  
325D  A2430000           [131] call       14  0   1  
3261  9D830600           [132] getglobal  14  26       ; 1074689893
3265  D2038004           [133] move       15  9      
3269  A2830001           [134] call       14  2   2  
326D  98430000           [135] test       14      1    ; to [137] if false
3271  1A400080           [136] jmp        2            ; to [139]
3275  A4C3C604           [137] self       14  9   283  ; -725453761
3279  A2430001           [138] call       14  2   1  
327D  9D830600           [139] getglobal  14  26       ; 1074689893
3281  D2038005           [140] move       15  11     
3285  A2830001           [141] call       14  2   2  
3289  98430000           [142] test       14      1    ; to [144] if false
328D  1A400080           [143] jmp        2            ; to [146]
3291  A4C3C605           [144] self       14  11  283  ; -725453761
3295  A2430001           [145] call       14  2   1  
3299  9D830600           [146] getglobal  14  26       ; 1074689893
329D  D2030006           [147] move       15  12     
32A1  A2830001           [148] call       14  2   2  
32A5  98430000           [149] test       14      1    ; to [151] if false
32A9  1A400080           [150] jmp        2            ; to [153]
32AD  A4C34606           [151] self       14  12  283  ; -725453761
32B1  A2430001           [152] call       14  2   1  
32B5  9D830600           [153] getglobal  14  26       ; 1074689893
32B9  D2038006           [154] move       15  13     
32BD  A2830001           [155] call       14  2   2  
32C1  98430000           [156] test       14      1    ; to [158] if false
32C5  1A400080           [157] jmp        2            ; to [160]
32C9  A4C3C606           [158] self       14  13  283  ; -725453761
32CD  A2430001           [159] call       14  2   1  
32D1  1E008000           [160] return     0   1      
                         * constants:
32D5  24                 sizek (36)
32D6  04                 const type 4
32D7  08                 string size (8)
32D8  67526567696F6E00   "gRegion\0"
                         const [0]: "gRegion"
32E0  01                 const type 3
32E1  58F559A5           const [1]: (-1520831144)
32E5  01                 const type 3
32E6  6B25B193           const [2]: (-1817107093)
32EA  04                 const type 4
32EB  26                 string size (38)
32EC  5374617274696E67+  "Starting"
32F4  20416D62756C6173+  " Ambulas"
32FC  2074726163746F72+  " tractor"
3304  206265616D206F6E+  " beam on"
330C  20686F737400       " host\0"
                         const [3]: "Starting Ambulas tractor beam on host"
3312  04                 const type 4
3313  28                 string size (40)
3314  5374617274696E67+  "Starting"
331C  20416D62756C6173+  " Ambulas"
3324  2074726163746F72+  " tractor"
332C  206265616D206F6E+  " beam on"
3334  20636C69656E7400   " client\0"
                         const [4]: "Starting Ambulas tractor beam on client"
333C  01                 const type 3
333D  6AD17B2C           const [5]: (746312042)
3341  03                 const type 3
3342  00000000           const [6]: (0)
3346  01                 const type 3
3347  0125A76D           const [7]: (1839670529)
334B  01                 const type 3
334C  00971C22           const [8]: (572299008)
3350  04                 const type 4
3351  02                 string size (2)
3352  7800               "x\0"
                         const [9]: "x"
3354  04                 const type 4
3355  02                 string size (2)
3356  7900               "y\0"
                         const [10]: "y"
3358  03                 const type 3
3359  0000A040           const [11]: (0)
335D  04                 const type 4
335E  02                 string size (2)
335F  7A00               "z\0"
                         const [12]: "z"
3361  01                 const type 3
3362  49783AF2           const [13]: (-231049143)
3366  01                 const type 3
3367  C64CD3BD           const [14]: (-1110225722)
336B  04                 const type 4
336C  17                 string size (23)
336D  74726163746F7242+  "tractorB"
3375  65616D4D6F766572+  "eamMover"
337D  456E7469747900     "Entity\0"
                         const [15]: "tractorBeamMoverEntity"
3384  01                 const type 3
3385  D73615C4           const [16]: (-1005242665)
3389  01                 const type 3
338A  1A4B27EC           const [17]: (-332969190)
338E  03                 const type 3
338F  00000040           const [18]: (0)
3393  01                 const type 3
3394  FFF9DE4C           const [19]: (1289681407)
3398  01                 const type 3
3399  B481C8E0           const [20]: (-523730508)
339D  01                 const type 3
339E  BA0435DB           const [21]: (-617282374)
33A2  01                 const type 3
33A3  49F4D739           const [22]: (970454089)
33A7  01                 const type 3
33A8  EA911120           const [23]: (538022378)
33AC  01                 const type 3
33AD  68C51D9F           const [24]: (-1625438872)
33B1  04                 const type 4
33B2  12                 string size (18)
33B3  74726163746F7242+  "tractorB"
33BB  65616D4275666646+  "eamBuffF"
33C3  5800               "X\0"
                         const [25]: "tractorBeamBuffFX"
33C5  01                 const type 3
33C6  65770E40           const [26]: (1074689893)
33CA  01                 const type 3
33CB  3F74C2D4           const [27]: (-725453761)
33CF  01                 const type 3
33D0  F26E43AB           const [28]: (-1421644046)
33D4  04                 const type 4
33D5  12                 string size (18)
33D6  74726163746F7242+  "tractorB"
33DE  65616D4265616D46+  "eamBeamF"
33E6  5800               "X\0"
                         const [29]: "tractorBeamBeamFX"
33E8  04                 const type 4
33E9  0F                 string size (15)
33EA  47414D455F43315F+  "GAME_C1_"
33F2  5350494E453100     "SPINE1\0"
                         const [30]: "GAME_C1_SPINE1"
33F9  01                 const type 3
33FA  CFBD2C4E           const [31]: (1311555023)
33FE  04                 const type 4
33FF  12                 string size (18)
3400  74726163746F7242+  "tractorB"
3408  65616D50726F6A46+  "eamProjF"
3410  5800               "X\0"
                         const [32]: "tractorBeamProjFX"
3412  04                 const type 4
3413  0D                 string size (13)
3414  454D5054595F5359+  "EMPTY_SY"
341C  4D424F4C00         "MBOL\0"
                         const [33]: "EMPTY_SYMBOL"
3421  04                 const type 4
3422  16                 string size (22)
3423  74726163746F7242+  "tractorB"
342B  65616D456E64706F+  "eamEndpo"
3433  696E74465800       "intFX\0"
                         const [34]: "tractorBeamEndpointFX"
3439  01                 const type 3
343A  D1BB5C89           const [35]: (-1990411311)
                         * functions:
343E  00                 sizep (0)
                         * lines:
3440  01                 sizelineinfo (160)
                         [pc] (line)
3441  1C                 [001] (28)
3442  02                 [002] (28)
3443  00                 [003] (28)
3444  00                 [004] (28)
3445  1C                 [005] (28)
3446  02                 [006] (29)
3447  00                 [007] (29)
3448  00                 [008] (29)
3449  1C                 [009] (29)
344A  02                 [010] (31)
344B  00                 [011] (31)
344C  00                 [012] (31)
344D  1C                 [013] (34)
344E  02                 [014] (34)
344F  00                 [015] (34)
3450  00                 [016] (36)
3451  1C                 [017] (37)
3452  02                 [018] (39)
3453  00                 [019] (39)
3454  00                 [020] (40)
3455  1D                 [021] (40)
3456  02                 [022] (40)
3457  00                 [023] (40)
3458  00                 [024] (40)
3459  1D                 [025] (40)
345A  02                 [026] (42)
345B  00                 [027] (45)
345C  00                 [028] (45)
345D  1D                 [029] (47)
345E  02                 [030] (47)
345F  00                 [031] (47)
3460  00                 [032] (47)
3461  1D                 [033] (47)
3462  02                 [034] (47)
3463  00                 [035] (48)
3464  00                 [036] (48)
3465  1F                 [037] (48)
3466  02                 [038] (48)
3467  00                 [039] (48)
3468  00                 [040] (51)
3469  1F                 [041] (51)
346A  02                 [042] (52)
346B  00                 [043] (52)
346C  00                 [044] (52)
346D  1F                 [045] (53)
346E  02                 [046] (55)
346F  00                 [047] (55)
3470  00                 [048] (55)
3471  22                 [049] (55)
3472  02                 [050] (55)
3473  00                 [051] (55)
3474  00                 [052] (56)
3475  22                 [053] (57)
3476  02                 [054] (57)
3477  00                 [055] (57)
3478  00                 [056] (57)
3479  22                 [057] (57)
347A  02                 [058] (57)
347B  00                 [059] (57)
347C  00                 [060] (58)
347D  24                 [061] (58)
347E  02                 [062] (58)
347F  00                 [063] (58)
3480  00                 [064] (59)
3481  25                 [065] (59)
3482  02                 [066] (59)
3483  00                 [067] (59)
3484  00                 [068] (62)
3485  27                 [069] (62)
3486  02                 [070] (62)
3487  00                 [071] (63)
3488  00                 [072] (63)
3489  27                 [073] (63)
348A  02                 [074] (63)
348B  00                 [075] (63)
348C  00                 [076] (64)
348D  28                 [077] (64)
348E  02                 [078] (67)
348F  00                 [079] (67)
3490  00                 [080] (67)
3491  28                 [081] (68)
3492  02                 [082] (68)
3493  00                 [083] (68)
3494  00                 [084] (68)
3495  28                 [085] (68)
3496  02                 [086] (68)
3497  00                 [087] (69)
3498  00                 [088] (69)
3499  28                 [089] (69)
349A  02                 [090] (69)
349B  00                 [091] (69)
349C  00                 [092] (70)
349D  28                 [093] (70)
349E  02                 [094] (70)
349F  00                 [095] (73)
34A0  00                 [096] (73)
34A1  28                 [097] (73)
34A2  02                 [098] (73)
34A3  00                 [099] (74)
34A4  00                 [100] (74)
34A5  2A                 [101] (74)
34A6  02                 [102] (74)
34A7  00                 [103] (76)
34A8  00                 [104] (78)
34A9  2D                 [105] (78)
34AA  02                 [106] (79)
34AB  00                 [107] (79)
34AC  00                 [108] (79)
34AD  2D                 [109] (80)
34AE  02                 [110] (82)
34AF  00                 [111] (82)
34B0  00                 [112] (82)
34B1  2F                 [113] (82)
34B2  02                 [114] (82)
34B3  00                 [115] (82)
34B4  00                 [116] (83)
34B5  2F                 [117] (83)
34B6  02                 [118] (83)
34B7  00                 [119] (83)
34B8  00                 [120] (83)
34B9  2F                 [121] (84)
34BA  02                 [122] (84)
34BB  00                 [123] (84)
34BC  00                 [124] (84)
34BD  2F                 [125] (87)
34BE  02                 [126] (87)
34BF  00                 [127] (88)
34C0  00                 [128] (88)
34C1  2F                 [129] (88)
34C2  02                 [130] (88)
34C3  00                 [131] (88)
34C4  00                 [132] (91)
34C5  2F                 [133] (91)
34C6  02                 [134] (91)
34C7  00                 [135] (91)
34C8  00                 [136] (91)
34C9  30                 [137] (92)
34CA  02                 [138] (92)
34CB  00                 [139] (95)
34CC  00                 [140] (95)
34CD  30                 [141] (95)
34CE  02                 [142] (95)
34CF  00                 [143] (95)
34D0  00                 [144] (96)
34D1  30                 [145] (96)
34D2  02                 [146] (99)
34D3  00                 [147] (99)
34D4  00                 [148] (99)
34D5  30                 [149] (99)
34D6  02                 [150] (99)
34D7  00                 [151] (100)
34D8  00                 [152] (100)
34D9  30                 [153] (103)
34DA  02                 [154] (103)
34DB  00                 [155] (103)
34DC  00                 [156] (103)
34DD  33                 [157] (103)
34DE  02                 [158] (104)
34DF  00                 [159] (104)
34E0  00                 [160] (106)
                         * locals:
36C1  00                 sizelocvars (0)
                         * upvalues:
36C2  00                 sizeupvalues (0)
                         ** end of function **

                         
36C3                     ** function [11] definition (level 2)
                         ** start of function **
36C3  00                 string size (0)
                         source name: (none)
36C5  04                 line defined (620)
36C6  85                 last line defined (645)
36C7  05                 nups (2)
36C8  02                 numparams (1)
36C9  01                 is_vararg (0)
36CA  00                 maxstacksize (9)
                         * code:
36CC  5C                 sizecode (92)
36CD  5D000000           [01] getglobal  1   0        ; gRegion
36D1  6440C000           [02] self       1   1   257  ; -1520831144
36D5  62800001           [03] call       1   2   2  
36D9  58000000           [04] test       1       0    ; to [6] if true
36DD  1AC00080           [05] jmp        4            ; to [10]
36E1  5D800000           [06] getglobal  1   2        ; -1817107093
36E5  99C00000           [07] loadk      2   3        ; "Starting Ambulas pickup on host"
36E9  62400001           [08] call       1   2   1  
36ED  1A800080           [09] jmp        3            ; to [13]
36F1  5D800000           [10] getglobal  1   2        ; -1817107093
36F5  99000100           [11] loadk      2   4        ; "Starting Ambulas pickup on client"
36F9  62400001           [12] call       1   2   1  
36FD  64404100           [13] self       1   0   261  ; -452063099
3701  DD800100           [14] getglobal  3   6        ; Engine
3705  CEC0C101           [15] gettable   3   3   263  ; "PM_HELD"
3709  17018000           [16] loadbool   4   1   0    ; true
370D  62400002           [17] call       1   4   1  
3711  64004200           [18] self       1   0   264  ; 53352120
3715  62400001           [19] call       1   2   1  
3719  64404200           [20] self       1   0   265  ; -1544157541
371D  62800001           [21] call       1   2   2  
3721  6480C200           [22] self       1   1   266  ; 1015770002
3725  62800001           [23] call       1   2   2  
3729  58400000           [24] test       1       1    ; to [26] if false
372D  1A800080           [25] jmp        3            ; to [29]
3731  64C04200           [26] self       1   0   267  ; -1519595333
3735  62800001           [27] call       1   2   2  
3739  1A400080           [28] jmp        2            ; to [31]
373D  57400000           [29] loadbool   1   0   1    ; false, to [31]
3741  57008000           [30] loadbool   1   1   0    ; true
3745  58400000           [31] test       1       1    ; to [33] if false
3749  1AC00980           [32] jmp        40           ; to [73]
374D  A4004300           [33] self       2   0   268  ; 2056776437
3751  13010000           [34] getupval   4   0      
3755  57018000           [35] loadbool   5   1   0    ; true
3759  9D810100           [36] getglobal  6   6        ; Engine
375D  8E414303           [37] gettable   6   6   269  ; "ATMM_ANIMATION_DRIVEN"
3761  DD810100           [38] getglobal  7   6        ; Engine
3765  CE81C303           [39] gettable   7   7   270  ; "PRT_ONCE"
3769  17028000           [40] loadbool   8   1   0    ; true
376D  A2408003           [41] call       2   7   1  
3771  A4C04300           [42] self       2   0   271  ; -1224103631
3775  13010000           [43] getupval   4   0      
3779  A2808001           [44] call       2   3   2  
377D  98400000           [45] test       2       1    ; to [47] if false
3781  1A000480           [46] jmp        17           ; to [64]
3785  A4004400           [47] self       2   0   272  ; 412921515
3789  A2800001           [48] call       2   2   2  
378D  98000000           [49] test       2       0    ; to [51] if true
3791  1AC00080           [50] jmp        4            ; to [55]
3795  9D400400           [51] getglobal  2   17       ; 538022378
3799  D9800400           [52] loadk      3   18       ; 0
379D  A2400001           [53] call       2   2   1  
37A1  1AC0FD7F           [54] jmp        -8           ; to [47]
37A5  A4004300           [55] self       2   0   268  ; 2056776437
37A9  13010000           [56] getupval   4   0      
37AD  57018000           [57] loadbool   5   1   0    ; true
37B1  9D810100           [58] getglobal  6   6        ; Engine
37B5  8E414303           [59] gettable   6   6   269  ; "ATMM_ANIMATION_DRIVEN"
37B9  DD810100           [60] getglobal  7   6        ; Engine
37BD  CE81C303           [61] gettable   7   7   270  ; "PRT_ONCE"
37C1  17028000           [62] loadbool   8   1   0    ; true
37C5  A2408003           [63] call       2   7   1  
37C9  A4004300           [64] self       2   0   268  ; 2056776437
37CD  13018000           [65] getupval   4   1      
37D1  57010000           [66] loadbool   5   0   0    ; false
37D5  9D810100           [67] getglobal  6   6        ; Engine
37D9  8E414303           [68] gettable   6   6   269  ; "ATMM_ANIMATION_DRIVEN"
37DD  DD810100           [69] getglobal  7   6        ; Engine
37E1  CEC1C403           [70] gettable   7   7   275  ; "PRT_LOOP"
37E5  17028000           [71] loadbool   8   1   0    ; true
37E9  A2408003           [72] call       2   7   1  
37ED  A4004500           [73] self       2   0   276  ; -565659446
37F1  1D410500           [74] getglobal  4   21       ; -332969190
37F5  59810500           [75] loadk      5   22       ; "AMBULAS_TRACTOR_BEAM"
37F9  22810001           [76] call       4   2   2  
37FD  59810400           [77] loadk      5   18       ; 0
3801  A2400002           [78] call       2   4   1  
3805  A4C04500           [79] self       2   0   279  ; -1421644046
3809  1D010600           [80] getglobal  4   24       ; tractorBeamBuffFX
380D  5D410500           [81] getglobal  5   21       ; -332969190
3811  99410600           [82] loadk      6   25       ; "GAME_C1_SPINE1"
3815  62010001           [83] call       5   2   0  
3819  A2400000           [84] call       2   0   1  
381D  A4C04500           [85] self       2   0   279  ; -1421644046
3821  1D810600           [86] getglobal  4   26       ; tractorBeamSeq
3825  5DC10600           [87] getglobal  5   27       ; EMPTY_SYMBOL
3829  A2400002           [88] call       2   4   1  
382D  A4004700           [89] self       2   0   284  ; -1326219717
3831  17018000           [90] loadbool   4   1   0    ; true
3835  A2408001           [91] call       2   3   1  
3839  1E008000           [92] return     0   1      
                         * constants:
383D  1D                 sizek (29)
383E  04                 const type 4
383F  08                 string size (8)
3840  67526567696F6E00   "gRegion\0"
                         const [0]: "gRegion"
3848  01                 const type 3
3849  58F559A5           const [1]: (-1520831144)
384D  01                 const type 3
384E  6B25B193           const [2]: (-1817107093)
3852  04                 const type 4
3853  20                 string size (32)
3854  5374617274696E67+  "Starting"
385C  20416D62756C6173+  " Ambulas"
3864  207069636B757020+  " pickup "
386C  6F6E20686F737400   "on host\0"
                         const [3]: "Starting Ambulas pickup on host"
3874  04                 const type 4
3875  22                 string size (34)
3876  5374617274696E67+  "Starting"
387E  20416D62756C6173+  " Ambulas"
3886  207069636B757020+  " pickup "
388E  6F6E20636C69656E+  "on clien"
3896  7400               "t\0"
                         const [4]: "Starting Ambulas pickup on client"
3898  01                 const type 3
3899  85100EE5           const [5]: (-452063099)
389D  04                 const type 4
389E  07                 string size (7)
389F  456E67696E6500     "Engine\0"
                         const [6]: "Engine"
38A6  04                 const type 4
38A7  08                 string size (8)
38A8  504D5F48454C4400   "PM_HELD\0"
                         const [7]: "PM_HELD"
38B0  01                 const type 3
38B1  B8162E03           const [8]: (53352120)
38B5  01                 const type 3
38B6  9B06F6A3           const [9]: (-1544157541)
38BA  01                 const type 3
38BB  926B8B3C           const [10]: (1015770002)
38BF  01                 const type 3
38C0  BBD06CA5           const [11]: (-1519595333)
38C4  01                 const type 3
38C5  F5EA977A           const [12]: (2056776437)
38C9  04                 const type 4
38CA  16                 string size (22)
38CB  41544D4D5F414E49+  "ATMM_ANI"
38D3  4D4154494F4E5F44+  "MATION_D"
38DB  524956454E00       "RIVEN\0"
                         const [13]: "ATMM_ANIMATION_DRIVEN"
38E1  04                 const type 4
38E2  09                 string size (9)
38E3  5052545F4F4E4345+  "PRT_ONCE"
38EB  00                 "\0"
                         const [14]: "PRT_ONCE"
38EC  01                 const type 3
38ED  31A909B7           const [15]: (-1224103631)
38F1  01                 const type 3
38F2  ABAE9C18           const [16]: (412921515)
38F6  01                 const type 3
38F7  EA911120           const [17]: (538022378)
38FB  03                 const type 3
38FC  00000000           const [18]: (0)
3900  04                 const type 4
3901  09                 string size (9)
3902  5052545F4C4F4F50+  "PRT_LOOP"
390A  00                 "\0"
                         const [19]: "PRT_LOOP"
390B  01                 const type 3
390C  CAB848DE           const [20]: (-565659446)
3910  01                 const type 3
3911  1A4B27EC           const [21]: (-332969190)
3915  04                 const type 4
3916  15                 string size (21)
3917  414D42554C41535F+  "AMBULAS_"
391F  54524143544F525F+  "TRACTOR_"
3927  4245414D00         "BEAM\0"
                         const [22]: "AMBULAS_TRACTOR_BEAM"
392C  01                 const type 3
392D  F26E43AB           const [23]: (-1421644046)
3931  04                 const type 4
3932  12                 string size (18)
3933  74726163746F7242+  "tractorB"
393B  65616D4275666646+  "eamBuffF"
3943  5800               "X\0"
                         const [24]: "tractorBeamBuffFX"
3945  04                 const type 4
3946  0F                 string size (15)
3947  47414D455F43315F+  "GAME_C1_"
394F  5350494E453100     "SPINE1\0"
                         const [25]: "GAME_C1_SPINE1"
3956  04                 const type 4
3957  0F                 string size (15)
3958  74726163746F7242+  "tractorB"
3960  65616D53657100     "eamSeq\0"
                         const [26]: "tractorBeamSeq"
3967  04                 const type 4
3968  0D                 string size (13)
3969  454D5054595F5359+  "EMPTY_SY"
3971  4D424F4C00         "MBOL\0"
                         const [27]: "EMPTY_SYMBOL"
3976  01                 const type 3
3977  3B7EF3B0           const [28]: (-1326219717)
                         * functions:
397B  00                 sizep (0)
                         * lines:
397C  5C                 sizelineinfo (92)
                         [pc] (line)
397D  6D                 [01] (109)
397E  02                 [02] (109)
397F  00                 [03] (109)
3980  00                 [04] (109)
3981  6D                 [05] (109)
3982  02                 [06] (110)
3983  00                 [07] (110)
3984  00                 [08] (110)
3985  6D                 [09] (110)
3986  02                 [10] (112)
3987  00                 [11] (112)
3988  00                 [12] (112)
3989  6D                 [13] (115)
398A  02                 [14] (115)
398B  00                 [15] (115)
398C  00                 [16] (115)
398D  6D                 [17] (115)
398E  02                 [18] (116)
398F  00                 [19] (116)
3990  00                 [20] (118)
3991  6E                 [21] (118)
3992  02                 [22] (118)
3993  00                 [23] (118)
3994  00                 [24] (118)
3995  6E                 [25] (118)
3996  02                 [26] (118)
3997  00                 [27] (118)
3998  00                 [28] (118)
3999  6E                 [29] (118)
399A  02                 [30] (118)
399B  00                 [31] (119)
399C  00                 [32] (119)
399D  6E                 [33] (120)
399E  02                 [34] (120)
399F  00                 [35] (120)
39A0  00                 [36] (120)
39A1  70                 [37] (120)
39A2  02                 [38] (120)
39A3  00                 [39] (120)
39A4  00                 [40] (120)
39A5  70                 [41] (120)
39A6  02                 [42] (121)
39A7  00                 [43] (121)
39A8  00                 [44] (121)
39A9  70                 [45] (121)
39AA  02                 [46] (121)
39AB  00                 [47] (122)
39AC  00                 [48] (122)
39AD  73                 [49] (122)
39AE  02                 [50] (122)
39AF  00                 [51] (123)
39B0  00                 [52] (123)
39B1  73                 [53] (123)
39B2  02                 [54] (123)
39B3  00                 [55] (125)
39B4  00                 [56] (125)
39B5  73                 [57] (125)
39B6  02                 [58] (125)
39B7  00                 [59] (125)
39B8  00                 [60] (125)
39B9  73                 [61] (125)
39BA  02                 [62] (125)
39BB  00                 [63] (125)
39BC  00                 [64] (127)
39BD  73                 [65] (127)
39BE  02                 [66] (127)
39BF  00                 [67] (127)
39C0  00                 [68] (127)
39C1  74                 [69] (127)
39C2  02                 [70] (127)
39C3  00                 [71] (127)
39C4  00                 [72] (127)
39C5  74                 [73] (-127)
39C6  02                 [74] (-127)
39C7  00                 [75] (-127)
39C8  00                 [76] (-127)
39C9  76                 [77] (-127)
39CA  02                 [78] (-127)
39CB  00                 [79] (-126)
39CC  00                 [80] (-126)
39CD  76                 [81] (-126)
39CE  02                 [82] (-126)
39CF  00                 [83] (-126)
39D0  00                 [84] (-126)
39D1  76                 [85] (-125)
39D2  02                 [86] (-125)
39D3  00                 [87] (-125)
39D4  00                 [88] (-125)
39D5  76                 [89] (-124)
39D6  02                 [90] (-124)
39D7  00                 [91] (-124)
39D8  00                 [92] (-123)
                         * locals:
3AED  00                 sizelocvars (0)
                         * upvalues:
3AEE  00                 sizeupvalues (0)
                         ** end of function **

                         
3AEF                     ** function [12] definition (level 2)
                         ** start of function **
3AEF  00                 string size (0)
                         source name: (none)
3AF1  05                 line defined (647)
3AF2  82                 last line defined (770)
3AF3  06                 nups (7)
3AF4  07                 numparams (0)
3AF5  00                 is_vararg (0)
3AF6  00                 maxstacksize (40)
                         * code:
3AF9  02                 sizecode (297)
3AFA  1D000000           [001] getglobal  0   0        ; gRegion
3AFE  24404000           [002] self       0   0   257  ; -1485896174
3B02  9D800000           [003] getglobal  2   2        ; CargoShipTag
3B06  22808001           [004] call       0   3   2  
3B0A  5DC00000           [005] getglobal  1   3        ; 1074689893
3B0E  92000000           [006] move       2   0      
3B12  62800001           [007] call       1   2   2  
3B16  58000000           [008] test       1       0    ; to [10] if true
3B1A  1A000080           [009] jmp        1            ; to [11]
3B1E  1E008000           [010] return     0   1      
3B22  46008000           [011] loadnil    1   1      
3B26  9DC00000           [012] getglobal  2   3        ; 1074689893
3B2A  CE004100           [013] gettable   3   0   260  ; 0
3B2E  A2800001           [014] call       2   2   2  
3B32  98400000           [015] test       2       1    ; to [17] if false
3B36  1A000080           [016] jmp        1            ; to [18]
3B3A  4E004100           [017] gettable   1   0   260  ; 0
3B3E  9DC00000           [018] getglobal  2   3        ; 1074689893
3B42  D2008000           [019] move       3   1      
3B46  A2800001           [020] call       2   2   2  
3B4A  98000000           [021] test       2       0    ; to [23] if true
3B4E  1A000080           [022] jmp        1            ; to [24]
3B52  1E008000           [023] return     0   1      
3B56  A440C100           [024] self       2   1   261  ; 366271214
3B5A  13010000           [025] getupval   4   0      
3B5E  A2808001           [026] call       2   3   2  
3B62  CB000000           [027] newtable   3   0   0    ; array=0, hash=0
3B66  19010100           [028] loadk      4   4        ; 0
3B6A  4A010001           [029] len        5   2      
3B6E  99010100           [030] loadk      6   4        ; 0
3B72  10410280           [031] forprep    4   10       ; to [42]
3B76  1DC20000           [032] getglobal  8   3        ; 1074689893
3B7A  4EC20101           [033] gettable   9   2   7  
3B7E  22820001           [034] call       8   2   2  
3B82  18420000           [035] test       8       1    ; to [37] if false
3B86  1A000180           [036] jmp        5            ; to [42]
3B8A  1D820100           [037] getglobal  8   6        ; table
3B8E  0EC24104           [038] gettable   8   8   263  ; -431682403
3B92  52028001           [039] move       9   3      
3B96  8EC20101           [040] gettable   10  2   7  
3B9A  22428001           [041] call       8   3   1  
3B9E  1401FD7F           [042] forloop    4   -11      ; to [32] if loop
3BA2  1D020000           [043] getglobal  8   0        ; gRegion
3BA6  24024204           [044] self       8   8   264  ; 152279552
3BAA  9D420200           [045] getglobal  10  9        ; ambulasAvatarType
3BAE  22828001           [046] call       8   3   2  
3BB2  4B020000           [047] newtable   9   0   0    ; array=0, hash=0
3BB6  9D020000           [048] getglobal  10  0        ; gRegion
3BBA  A4824205           [049] self       10  10  266  ; -1520831144
3BBE  A2820001           [050] call       10  2   2  
3BC2  98020000           [051] test       10      0    ; to [53] if true
3BC6  1AC00380           [052] jmp        16           ; to [69]
3BCA  99020100           [053] loadk      10  4        ; 0
3BCE  CA020004           [054] len        11  8      
3BD2  19030100           [055] loadk      12  4        ; 0
3BD6  90820280           [056] forprep    10  11       ; to [68]
3BDA  8E430304           [057] gettable   14  8   13 
3BDE  DDC30000           [058] getglobal  15  3        ; 1074689893
3BE2  12040007           [059] move       16  14     
3BE6  E2830001           [060] call       15  2   2  
3BEA  D8430000           [061] test       15      1    ; to [63] if false
3BEE  1A000180           [062] jmp        5            ; to [68]
3BF2  DD830100           [063] getglobal  15  6        ; table
3BF6  CEC3C107           [064] gettable   15  15  263  ; -431682403
3BFA  12048004           [065] move       16  9      
3BFE  52040007           [066] move       17  14     
3C02  E2438001           [067] call       15  3   1  
3C06  94C2FC7F           [068] forloop    10  -12      ; to [57] if loop
3C0A  E4C3C200           [069] self       15  1   267  ; 1839670529
3C0E  E2830001           [070] call       15  2   2  
3C12  2404C300           [071] self       16  1   268  ; 630793108
3C16  9D440300           [072] getglobal  18  13       ; tractorBeamPulseSound
3C1A  D7040000           [073] loadbool   19  0   0    ; false
3C1E  22440002           [074] call       16  4   1  
3C22  1D040000           [075] getglobal  16  0        ; gRegion
3C26  24844308           [076] self       16  16  270  ; -1110225722
3C2A  9DC40300           [077] getglobal  18  15       ; tractorBeamPulseFX
3C2E  D2048007           [078] move       19  15     
3C32  1D050400           [079] getglobal  20  16       ; ZERO_ROTATION
3C36  22448002           [080] call       16  5   1  
3C3A  1D040000           [081] getglobal  16  0        ; gRegion
3C3E  24844308           [082] self       16  16  270  ; -1110225722
3C42  9D440400           [083] getglobal  18  17       ; tractorBeamPulseDeco
3C46  D2048007           [084] move       19  15     
3C4A  1D050400           [085] getglobal  20  16       ; ZERO_ROTATION
3C4E  22848002           [086] call       16  5   2  
3C52  59840400           [087] loadk      17  18       ; 0
3C56  99C40400           [088] loadk      18  19       ; 0
3C5A  D9040500           [089] loadk      19  20       ; 0
fail op	21
3C5E  15C0848A           [090] concat     0   277 19 
3C62  1A401180           [091] jmp        70           ; to [162]
3C66  1DC50000           [092] getglobal  20  3        ; 1074689893
3C6A  52050008           [093] move       21  16     
3C6E  22850001           [094] call       20  2   2  
3C72  18450000           [095] test       20      1    ; to [97] if false
3C76  1A000380           [096] jmp        13           ; to [110]
3C7A  24854508           [097] self       20  16  278  ; 1786666898
3C7E  9CC5C508           [098] div        22  17  279  ; 0
3C82  22458001           [099] call       20  3   1  
3C86  24054608           [100] self       20  16  280  ; -786111647
3C8A  9D450600           [101] getglobal  22  25       ; -332969190
3C8E  D9850600           [102] loadk      23  26       ; "UnlitAtten"
3C92  A2850001           [103] call       22  2   2  
3C96  DDC50600           [104] getglobal  23  27       ; math
3C9A  CE05C70B           [105] gettable   23  23  284  ; 1710846250
3C9E  19060100           [106] loadk      24  4        ; 0
3CA2  52068009           [107] move       25  19     
3CA6  E2058001           [108] call       23  3   0  
3CAA  22450000           [109] call       20  0   1  
3CAE  1D450700           [110] getglobal  20  29       ; 538022378
3CB2  59450500           [111] loadk      21  21       ; 0
3CB6  22450001           [112] call       20  2   1  
3CBA  1D850700           [113] getglobal  20  30       ; 1289681407
3CBE  22858000           [114] call       20  1   2  
3CC2  CD048509           [115] sub        19  19  20 
3CC6  1D850700           [116] getglobal  20  30       ; 1289681407
3CCA  22858000           [117] call       20  1   2  
3CCE  0485040A           [118] mul        20  20  18 
3CD2  43048508           [119] add        17  17  20 
3CD6  1D050000           [120] getglobal  20  0        ; gRegion
3CDA  2485420A           [121] self       20  20  266  ; -1520831144
3CDE  22850001           [122] call       20  2   2  
3CE2  18050000           [123] test       20      0    ; to [125] if true
3CE6  1A00F77F           [124] jmp        -35          ; to [90]
3CEA  0A058004           [125] len        20  9      
fail op	21
3CEE  1500858A           [126] concat     0   277 20 
3CF2  1A40F67F           [127] jmp        -38          ; to [90]
3CF6  19050100           [128] loadk      20  4        ; 0
3CFA  4A058004           [129] len        21  9      
3CFE  99050100           [130] loadk      22  4        ; 0
3D02  10C50680           [131] forprep    20  28       ; to [160]
3D06  0EC68504           [132] gettable   24  9   23 
3D0A  5DC60000           [133] getglobal  25  3        ; 1074689893
3D0E  9206000C           [134] move       26  24     
3D12  62860001           [135] call       25  2   2  
3D16  58460000           [136] test       25      1    ; to [138] if false
3D1A  1A400580           [137] jmp        22           ; to [160]
3D1E  64C6470C           [138] self       25  24  287  ; -1399888605
3D22  D2068007           [139] move       27  15     
3D26  62868001           [140] call       25  3   2  
fail op	33
3D2A  2140840C           [141] tforloop   0       17   ; to [143] if exit
3D2E  1A000480           [142] jmp        17           ; to [160]
3D32  6406480C           [143] self       25  24  288  ; -1411785325
3D36  62860001           [144] call       25  2   2  
3D3A  6446C80C           [145] self       25  25  289  ; 1687731437
3D3E  62860001           [146] call       25  2   2  
3D42  58460000           [147] test       25      1    ; to [149] if false
3D46  1A800280           [148] jmp        11           ; to [160]
3D4A  6486480C           [149] self       25  24  290  ; -1302048094
3D4E  DD460600           [150] getglobal  27  25       ; -332969190
3D52  19C70800           [151] loadk      28  35       ; "ReadyForPickup"
3D56  E2860001           [152] call       27  2   2  
3D5A  17070000           [153] loadbool   28  0   0    ; false
3D5E  62460002           [154] call       25  4   1  
3D62  5D860100           [155] getglobal  25  6        ; table
3D66  4E06C90C           [156] gettable   25  25  292  ; -843973282
3D6A  92068004           [157] move       26  9      
3D6E  D206800B           [158] move       27  23     
3D72  62468001           [159] call       25  3   1  
3D76  1485F87F           [160] forloop    20  -29      ; to [132] if loop
3D7A  1AC0ED7F           [161] jmp        -72          ; to [90]
3D7E  5DC60000           [162] getglobal  25  3        ; 1074689893
3D82  92060008           [163] move       26  16     
3D86  62860001           [164] call       25  2   2  
3D8A  58460000           [165] test       25      1    ; to [167] if false
3D8E  1A400080           [166] jmp        2            ; to [169]
3D92  64464908           [167] self       25  16  293  ; -725453761
3D96  62460001           [168] call       25  2   1  
3D9A  5D060000           [169] getglobal  25  0        ; gRegion
3D9E  6486C20C           [170] self       25  25  266  ; -1520831144
3DA2  62860001           [171] call       25  2   2  
3DA6  58060000           [172] test       25      0    ; to [174] if true
3DAA  1A800680           [173] jmp        27           ; to [201]
3DAE  4A068004           [174] len        25  9      
fail op	21
3DB2  1540868A           [175] concat     0   277 25 
3DB6  1AC00580           [176] jmp        24           ; to [201]
3DBA  4E06C104           [177] gettable   25  9   260  ; 0
3DBE  9DC60000           [178] getglobal  26  3        ; 1074689893
3DC2  D206800C           [179] move       27  25     
3DC6  A2860001           [180] call       26  2   2  
3DCA  98460000           [181] test       26      1    ; to [183] if false
3DCE  1AC00280           [182] jmp        12           ; to [195]
3DD2  A406C80C           [183] self       26  25  288  ; -1411785325
3DD6  A2860001           [184] call       26  2   2  
3DDA  A446480D           [185] self       26  26  289  ; 1687731437
3DDE  A2860001           [186] call       26  2   2  
3DE2  98460000           [187] test       26      1    ; to [189] if false
3DE6  1A400180           [188] jmp        6            ; to [195]
3DEA  A486C80C           [189] self       26  25  290  ; -1302048094
3DEE  1D470600           [190] getglobal  28  25       ; -332969190
3DF2  59C70800           [191] loadk      29  35       ; "ReadyForPickup"
3DF6  22870001           [192] call       28  2   2  
3DFA  57070000           [193] loadbool   29  0   0    ; false
3DFE  A2460002           [194] call       26  4   1  
3E02  9D860100           [195] getglobal  26  6        ; table
3E06  8E06490D           [196] gettable   26  26  292  ; -843973282
3E0A  D2068004           [197] move       27  9      
3E0E  19070100           [198] loadk      28  4        ; 0
3E12  A2468001           [199] call       26  3   1  
3E16  1A00F97F           [200] jmp        -27          ; to [174]
3E1A  99460500           [201] loadk      26  21       ; 0
3E1E  DDC60000           [202] getglobal  27  3        ; 1074689893
3E22  12070004           [203] move       28  8      
3E26  E2860001           [204] call       27  2   2  
3E2A  D8460000           [205] test       27      1    ; to [207] if false
3E2E  1A001380           [206] jmp        77           ; to [284]
3E32  CA060004           [207] len        27  8      
fail op	21
3E36  15C0868A           [208] concat     0   277 27 
3E3A  1A401280           [209] jmp        74           ; to [284]
3E3E  D9060100           [210] loadk      27  4        ; 0
3E42  0A070004           [211] len        28  8      
3E46  59070100           [212] loadk      29  4        ; 0
3E4A  D0061180           [213] forprep    27  69       ; to [283]
3E4E  CE870704           [214] gettable   31  8   30 
3E52  1DC80000           [215] getglobal  32  3        ; 1074689893
3E56  5208800F           [216] move       33  31     
3E5A  22880001           [217] call       32  2   2  
3E5E  18480000           [218] test       32      1    ; to [220] if false
3E62  1A800F80           [219] jmp        63           ; to [283]
3E66  1D080000           [220] getglobal  32  0        ; gRegion
3E6A  24884210           [221] self       32  32  266  ; -1520831144
3E6E  22880001           [222] call       32  2   2  
3E72  18080000           [223] test       32      0    ; to [225] if true
3E76  1AC00880           [224] jmp        36           ; to [261]
3E7A  2488C90F           [225] self       32  31  294  ; -1544157541
3E7E  22880001           [226] call       32  2   2  
3E82  24C84910           [227] self       32  32  295  ; 1015770002
3E86  22880001           [228] call       32  2   2  
3E8A  18480000           [229] test       32      1    ; to [231] if false
3E8E  1A800080           [230] jmp        3            ; to [234]
3E92  2408CA0F           [231] self       32  31  296  ; -1519595333
3E96  22880001           [232] call       32  2   2  
3E9A  1A400080           [233] jmp        2            ; to [236]
3E9E  17480000           [234] loadbool   32  0   1    ; false, to [236]
3EA2  17088000           [235] loadbool   32  1   0    ; true
3EA6  18080000           [236] test       32      0    ; to [238] if true
3EAA  1A400280           [237] jmp        10           ; to [248]
3EAE  8306410D           [238] add        26  26  260  ; 0
3EB2  53088000           [239] getupval   33  1      
3EB6  6448CA10           [240] self       33  33  297  ; -803877924
3EBA  D3080001           [241] getupval   35  2      
3EBE  1209000D           [242] move       36  26     
3EC2  62480002           [243] call       33  4   1  
3EC6  5D880A00           [244] getglobal  33  42       ; -1817107093
3ECA  99C80A00           [245] loadk      34  43       ; "Transporting Hacked Ambulas "
3ECE  62480001           [246] call       33  2   1  
3ED2  1A000380           [247] jmp        13           ; to [261]
3ED6  53088000           [248] getupval   33  1      
3EDA  6448CA10           [249] self       33  33  297  ; -803877924
3EDE  D3088001           [250] getupval   35  3      
3EE2  13098000           [251] getupval   36  1      
3EE6  24094B12           [252] self       36  36  300  ; -317790213
3EEA  93098001           [253] getupval   38  3      
3EEE  D9490500           [254] loadk      39  21       ; 0
3EF2  22890002           [255] call       36  4   2  
3EF6  03094112           [256] add        36  36  260  ; 0
3EFA  62480002           [257] call       33  4   1  
3EFE  5D880A00           [258] getglobal  33  42       ; -1817107093
3F02  99480B00           [259] loadk      34  45       ; "Transporting Unhacked Ambulas "
3F06  62480001           [260] call       33  2   1  
3F0A  5DC80000           [261] getglobal  33  3        ; 1074689893
3F0E  8E08C101           [262] gettable   34  3   260  ; 0
3F12  62880001           [263] call       33  2   2  
3F16  58480000           [264] test       33      1    ; to [266] if false
3F1A  1A400280           [265] jmp        10           ; to [276]
3F1E  53080002           [266] getupval   33  4      
3F22  9208800F           [267] move       34  31     
3F26  CE08C101           [268] gettable   35  3   260  ; 0
3F2A  62488001           [269] call       33  3   1  
3F2E  5D880100           [270] getglobal  33  6        ; table
3F32  4E08C910           [271] gettable   33  33  292  ; -843973282
3F36  92088001           [272] move       34  3      
3F3A  D9080100           [273] loadk      35  4        ; 0
3F3E  62488001           [274] call       33  3   1  
3F42  1AC00080           [275] jmp        4            ; to [280]
3F46  53080002           [276] getupval   33  4      
3F4A  9208800F           [277] move       34  31     
3F4E  CE084101           [278] gettable   35  2   260  ; 0
3F52  62488001           [279] call       33  3   1  
3F56  5D480700           [280] getglobal  33  29       ; 538022378
3F5A  99880B00           [281] loadk      34  46       ; 0
3F5E  62480001           [282] call       33  2   1  
3F62  D446EE7F           [283] forloop    27  -70      ; to [214] if loop
3F66  5D080000           [284] getglobal  33  0        ; gRegion
3F6A  6488C210           [285] self       33  33  266  ; -1520831144
3F6E  62880001           [286] call       33  2   2  
3F72  58080000           [287] test       33      0    ; to [289] if true
3F76  1AC00180           [288] jmp        8            ; to [297]
3F7A  53088000           [289] getupval   33  1      
3F7E  6408CB10           [290] self       33  33  300  ; -317790213
3F82  D3088002           [291] getupval   35  5      
3F86  19490500           [292] loadk      36  21       ; 0
3F8A  62880002           [293] call       33  4   2  
3F8E  93080003           [294] getupval   34  6      
3F92  D2088010           [295] move       35  33     
3F96  A2480001           [296] call       34  2   1  
3F9A  1E008000           [297] return     0   1      
                         * constants:
3F9E  2F                 sizek (47)
3F9F  04                 const type 4
3FA0  08                 string size (8)
3FA1  67526567696F6E00   "gRegion\0"
                         const [0]: "gRegion"
3FA9  01                 const type 3
3FAA  12066FA7           const [1]: (-1485896174)
3FAE  04                 const type 4
3FAF  0D                 string size (13)
3FB0  436172676F536869+  "CargoShi"
3FB8  7054616700         "pTag\0"
                         const [2]: "CargoShipTag"
3FBD  01                 const type 3
3FBE  65770E40           const [3]: (1074689893)
3FC2  03                 const type 3
3FC3  0000803F           const [4]: (0)
3FC7  01                 const type 3
3FC8  EEDAD415           const [5]: (366271214)
3FCC  04                 const type 4
3FCD  06                 string size (6)
3FCE  7461626C6500       "table\0"
                         const [6]: "table"
3FD4  01                 const type 3
3FD5  9D0C45E6           const [7]: (-431682403)
3FD9  01                 const type 3
3FDA  009A1309           const [8]: (152279552)
3FDE  04                 const type 4
3FDF  12                 string size (18)
3FE0  616D62756C617341+  "ambulasA"
3FE8  7661746172547970+  "vatarTyp"
3FF0  6500               "e\0"
                         const [9]: "ambulasAvatarType"
3FF2  01                 const type 3
3FF3  58F559A5           const [10]: (-1520831144)
3FF7  01                 const type 3
3FF8  0125A76D           const [11]: (1839670529)
3FFC  01                 const type 3
3FFD  94239925           const [12]: (630793108)
4001  04                 const type 4
4002  16                 string size (22)
4003  74726163746F7242+  "tractorB"
400B  65616D50756C7365+  "eamPulse"
4013  536F756E6400       "Sound\0"
                         const [13]: "tractorBeamPulseSound"
4019  01                 const type 3
401A  C64CD3BD           const [14]: (-1110225722)
401E  04                 const type 4
401F  13                 string size (19)
4020  74726163746F7242+  "tractorB"
4028  65616D50756C7365+  "eamPulse"
4030  465800             "FX\0"
                         const [15]: "tractorBeamPulseFX"
4033  04                 const type 4
4034  0E                 string size (14)
4035  5A45524F5F524F54+  "ZERO_ROT"
403D  4154494F4E00       "ATION\0"
                         const [16]: "ZERO_ROTATION"
4043  04                 const type 4
4044  15                 string size (21)
4045  74726163746F7242+  "tractorB"
404D  65616D50756C7365+  "eamPulse"
4055  4465636F00         "Deco\0"
                         const [17]: "tractorBeamPulseDeco"
405A  03                 const type 3
405B  0000A041           const [18]: (0)
405F  03                 const type 3
4060  00002042           const [19]: (0)
4064  03                 const type 3
4065  00004040           const [20]: (0)
4069  03                 const type 3
406A  00000000           const [21]: (0)
406E  01                 const type 3
406F  925F7E6A           const [22]: (1786666898)
4073  03                 const type 3
4074  00002041           const [23]: (0)
4078  01                 const type 3
4079  61E324D1           const [24]: (-786111647)
407D  01                 const type 3
407E  1A4B27EC           const [25]: (-332969190)
4082  04                 const type 4
4083  0B                 string size (11)
4084  556E6C6974417474+  "UnlitAtt"
408C  656E00             "en\0"
                         const [26]: "UnlitAtten"
408F  04                 const type 4
4090  05                 string size (5)
4091  6D61746800         "math\0"
                         const [27]: "math"
4096  01                 const type 3
4097  2A71F965           const [28]: (1710846250)
409B  01                 const type 3
409C  EA911120           const [29]: (538022378)
40A0  01                 const type 3
40A1  FFF9DE4C           const [30]: (1289681407)
40A5  01                 const type 3
40A6  23658FAC           const [31]: (-1399888605)
40AA  01                 const type 3
40AB  93DDD9AB           const [32]: (-1411785325)
40AF  01                 const type 3
40B0  EDBC9864           const [33]: (1687731437)
40B4  01                 const type 3
40B5  A25264B2           const [34]: (-1302048094)
40B9  04                 const type 4
40BA  0F                 string size (15)
40BB  5265616479466F72+  "ReadyFor"
40C3  5069636B757000     "Pickup\0"
                         const [35]: "ReadyForPickup"
40CA  01                 const type 3
40CB  5EFDB1CD           const [36]: (-843973282)
40CF  01                 const type 3
40D0  3F74C2D4           const [37]: (-725453761)
40D4  01                 const type 3
40D5  9B06F6A3           const [38]: (-1544157541)
40D9  01                 const type 3
40DA  926B8B3C           const [39]: (1015770002)
40DE  01                 const type 3
40DF  BBD06CA5           const [40]: (-1519595333)
40E3  01                 const type 3
40E4  DCCB15D0           const [41]: (-803877924)
40E8  01                 const type 3
40E9  6B25B193           const [42]: (-1817107093)
40ED  04                 const type 4
40EE  1D                 string size (29)
40EF  5472616E73706F72+  "Transpor"
40F7  74696E6720486163+  "ting Hac"
40FF  6B656420416D6275+  "ked Ambu"
4107  6C61732000         "las \0"
                         const [43]: "Transporting Hacked Ambulas "
410C  01                 const type 3
410D  FBE70EED           const [44]: (-317790213)
4111  04                 const type 4
4112  1F                 string size (31)
4113  5472616E73706F72+  "Transpor"
411B  74696E6720556E68+  "ting Unh"
4123  61636B656420416D+  "acked Am"
412B  62756C61732000     "bulas \0"
                         const [45]: "Transporting Unhacked Ambulas "
4132  03                 const type 3
4133  0000003F           const [46]: (0)
                         * functions:
4137  00                 sizep (0)
                         * lines:
4139  02                 sizelineinfo (297)
                         [pc] (line)
413A  8A                 [001] (-118)
413B  02                 [002] (-118)
413C  00                 [003] (-118)
413D  00                 [004] (-118)
413E  8A                 [005] (-116)
413F  02                 [006] (-116)
4140  00                 [007] (-116)
4141  00                 [008] (-116)
4142  8A                 [009] (-116)
4143  02                 [010] (-115)
4144  00                 [011] (-112)
4145  00                 [012] (-111)
4146  8A                 [013] (-111)
4147  02                 [014] (-111)
4148  00                 [015] (-111)
4149  00                 [016] (-111)
414A  8C                 [017] (-110)
414B  02                 [018] (-107)
414C  00                 [019] (-107)
414D  00                 [020] (-107)
414E  8C                 [021] (-107)
414F  02                 [022] (-107)
4150  00                 [023] (-106)
4151  00                 [024] (-102)
4152  8C                 [025] (-102)
4153  02                 [026] (-102)
4154  00                 [027] (-101)
4155  00                 [028] (-99)
4156  8C                 [029] (-99)
4157  02                 [030] (-99)
4158  00                 [031] (-99)
4159  00                 [032] (-98)
415A  8C                 [033] (-98)
415B  02                 [034] (-98)
415C  00                 [035] (-98)
415D  00                 [036] (-98)
415E  8D                 [037] (-97)
415F  02                 [038] (-97)
4160  00                 [039] (-97)
4161  00                 [040] (-97)
4162  90                 [041] (-97)
4163  02                 [042] (-99)
4164  00                 [043] (-93)
4165  00                 [044] (-93)
4166  91                 [045] (-93)
4167  02                 [046] (-93)
4168  00                 [047] (-92)
4169  00                 [048] (-90)
416A  91                 [049] (-90)
416B  02                 [050] (-90)
416C  00                 [051] (-90)
416D  00                 [052] (-90)
416E  91                 [053] (-89)
416F  02                 [054] (-89)
4170  00                 [055] (-89)
4171  00                 [056] (-89)
4172  91                 [057] (-88)
4173  02                 [058] (-87)
4174  00                 [059] (-87)
4175  00                 [060] (-87)
4176  91                 [061] (-87)
4177  02                 [062] (-87)
4178  00                 [063] (-86)
4179  00                 [064] (-86)
417A  92                 [065] (-86)
417B  02                 [066] (-86)
417C  00                 [067] (-86)
417D  00                 [068] (-89)
417E  95                 [069] (-81)
417F  02                 [070] (-81)
4180  00                 [071] (-80)
4181  00                 [072] (-80)
4182  95                 [073] (-80)
4183  02                 [074] (-80)
4184  00                 [075] (-79)
4185  00                 [076] (-79)
4186  95                 [077] (-79)
4187  02                 [078] (-79)
4188  00                 [079] (-79)
4189  00                 [080] (-79)
418A  95                 [081] (-78)
418B  02                 [082] (-78)
418C  00                 [083] (-78)
418D  00                 [084] (-78)
418E  95                 [085] (-78)
418F  02                 [086] (-78)
4190  00                 [087] (-76)
4191  00                 [088] (-75)
4192  96                 [089] (-74)
4193  02                 [090] (-72)
4194  00                 [091] (-72)
4195  00                 [092] (-71)
4196  9A                 [093] (-71)
4197  02                 [094] (-71)
4198  00                 [095] (-71)
4199  00                 [096] (-71)
419A  9A                 [097] (-70)
419B  02                 [098] (-70)
419C  00                 [099] (-70)
419D  00                 [100] (-69)
419E  9A                 [101] (-69)
419F  02                 [102] (-69)
41A0  00                 [103] (-69)
41A1  00                 [104] (-69)
41A2  9B                 [105] (-69)
41A3  02                 [106] (-69)
41A4  00                 [107] (-69)
41A5  00                 [108] (-69)
41A6  9D                 [109] (-69)
41A7  02                 [110] (-67)
41A8  00                 [111] (-67)
41A9  00                 [112] (-67)
41AA  9D                 [113] (-66)
41AB  02                 [114] (-66)
41AC  00                 [115] (-66)
41AD  00                 [116] (-65)
41AE  9D                 [117] (-65)
41AF  02                 [118] (-65)
41B0  00                 [119] (-65)
41B1  00                 [120] (-63)
41B2  9D                 [121] (-63)
41B3  02                 [122] (-63)
41B4  00                 [123] (-63)
41B5  00                 [124] (-63)
41B6  9E                 [125] (-62)
41B7  02                 [126] (-62)
41B8  00                 [127] (-62)
41B9  00                 [128] (-61)
41BA  9E                 [129] (-61)
41BB  02                 [130] (-61)
41BC  00                 [131] (-61)
41BD  00                 [132] (-60)
41BE  9E                 [133] (-59)
41BF  02                 [134] (-59)
41C0  00                 [135] (-59)
41C1  00                 [136] (-59)
41C2  9E                 [137] (-59)
41C3  02                 [138] (-59)
41C4  00                 [139] (-59)
41C5  00                 [140] (-59)
41C6  9E                 [141] (-59)
41C7  02                 [142] (-59)
41C8  00                 [143] (-59)
41C9  00                 [144] (-59)
41CA  9F                 [145] (-59)
41CB  02                 [146] (-59)
41CC  00                 [147] (-59)
41CD  00                 [148] (-59)
41CE  9F                 [149] (-58)
41CF  02                 [150] (-58)
41D0  00                 [151] (-58)
41D1  00                 [152] (-58)
41D2  9F                 [153] (-58)
41D3  02                 [154] (-58)
41D4  00                 [155] (-57)
41D5  00                 [156] (-57)
41D6  9F                 [157] (-57)
41D7  02                 [158] (-57)
41D8  00                 [159] (-57)
41D9  00                 [160] (-61)
41DA  9F                 [161] (-53)
41DB  02                 [162] (-50)
41DC  00                 [163] (-50)
41DD  00                 [164] (-50)
41DE  9D                 [165] (-50)
41DF  02                 [166] (-50)
41E0  00                 [167] (-49)
41E1  00                 [168] (-49)
41E2  A3                 [169] (-45)
41E3  02                 [170] (-45)
41E4  00                 [171] (-45)
41E5  00                 [172] (-45)
41E6  A3                 [173] (-45)
41E7  02                 [174] (-44)
41E8  00                 [175] (-44)
41E9  00                 [176] (-44)
41EA  A3                 [177] (-43)
41EB  02                 [178] (-42)
41EC  00                 [179] (-42)
41ED  00                 [180] (-42)
41EE  A3                 [181] (-42)
41EF  02                 [182] (-42)
41F0  00                 [183] (-42)
41F1  00                 [184] (-42)
41F2  A4                 [185] (-42)
41F3  02                 [186] (-42)
41F4  00                 [187] (-42)
41F5  00                 [188] (-42)
41F6  A6                 [189] (-41)
41F7  02                 [190] (-41)
41F8  00                 [191] (-41)
41F9  00                 [192] (-41)
41FA  A6                 [193] (-41)
41FB  02                 [194] (-41)
41FC  00                 [195] (-39)
41FD  00                 [196] (-39)
41FE  A6                 [197] (-39)
41FF  02                 [198] (-39)
4200  00                 [199] (-39)
4201  00                 [200] (-39)
4202  A6                 [201] (-35)
4203  02                 [202] (-32)
4204  00                 [203] (-32)
4205  00                 [204] (-32)
4206  A6                 [205] (-32)
4207  02                 [206] (-32)
4208  00                 [207] (-32)
4209  00                 [208] (-32)
420A  A7                 [209] (-32)
420B  02                 [210] (-31)
420C  00                 [211] (-31)
420D  00                 [212] (-31)
420E  A7                 [213] (-31)
420F  02                 [214] (-30)
4210  00                 [215] (-29)
4211  00                 [216] (-29)
4212  A7                 [217] (-29)
4213  02                 [218] (-29)
4214  00                 [219] (-29)
4215  00                 [220] (-27)
4216  A7                 [221] (-27)
4217  02                 [222] (-27)
4218  00                 [223] (-27)
4219  00                 [224] (-27)
421A  A8                 [225] (-26)
421B  02                 [226] (-26)
421C  00                 [227] (-26)
421D  00                 [228] (-26)
421E  A9                 [229] (-26)
421F  02                 [230] (-26)
4220  00                 [231] (-26)
4221  00                 [232] (-26)
4222  A9                 [233] (-26)
4223  02                 [234] (-26)
4224  00                 [235] (-26)
4225  00                 [236] (-25)
4226  A9                 [237] (-25)
4227  02                 [238] (-24)
4228  00                 [239] (-23)
4229  00                 [240] (-23)
422A  A9                 [241] (-23)
422B  02                 [242] (-23)
422C  00                 [243] (-23)
422D  00                 [244] (-22)
422E  A9                 [245] (-22)
422F  02                 [246] (-22)
4230  00                 [247] (-22)
4231  00                 [248] (-20)
4232  AA                 [249] (-20)
4233  02                 [250] (-20)
4234  00                 [251] (-20)
4235  00                 [252] (-20)
4236  AA                 [253] (-20)
4237  02                 [254] (-20)
4238  00                 [255] (-20)
4239  00                 [256] (-20)
423A  AA                 [257] (-20)
423B  02                 [258] (-19)
423C  00                 [259] (-19)
423D  00                 [260] (-19)
423E  AA                 [261] (-14)
423F  02                 [262] (-14)
4240  00                 [263] (-14)
4241  00                 [264] (-14)
4242  AA                 [265] (-14)
4243  02                 [266] (-12)
4244  00                 [267] (-12)
4245  00                 [268] (-12)
4246  A7                 [269] (-12)
4247  02                 [270] (-11)
4248  00                 [271] (-11)
4249  00                 [272] (-11)
424A  AF                 [273] (-11)
424B  02                 [274] (-11)
424C  00                 [275] (-11)
424D  00                 [276] (-9)
424E  AF                 [277] (-9)
424F  02                 [278] (-9)
4250  00                 [279] (-9)
4251  00                 [280] (-7)
4252  B0                 [281] (-7)
4253  02                 [282] (-7)
4254  00                 [283] (-31)
4255  00                 [284] (-2)
4256  B0                 [285] (-2)
4257  02                 [286] (-2)
4258  00                 [287] (-2)
4259  00                 [288] (-2)
425A  B0                 [289] (-1)
425B  02                 [290] (-1)
425C  00                 [291] (-1)
425D  00                 [292] (-1)
425E  B0                 [293] (-1)
425F  02                 [294] (0)
4260  00                 [295] (0)
4261  00                 [296] (0)
4262  B1                 [297] (2)
                         * locals:
45DE  00                 sizelocvars (0)
                         * upvalues:
45DF  00                 sizeupvalues (0)
                         ** end of function **

                         
45E0                     ** function [13] definition (level 2)
                         ** start of function **
45E0  00                 string size (0)
                         source name: (none)
45E2  06                 line defined (772)
45E3  89                 last line defined (777)
45E4  06                 nups (1)
45E5  01                 numparams (0)
45E6  00                 is_vararg (0)
45E7  00                 maxstacksize (8)
                         * code:
45E9  0D                 sizecode (13)
45EA  1D000000           [01] getglobal  0   0        ; gRegion
45EE  24404000           [02] self       0   0   257  ; 1224466847
45F2  22800001           [03] call       0   2   2  
45F6  59800000           [04] loadk      1   2        ; 0
45FA  8A000000           [05] len        2   0      
45FE  D9800000           [06] loadk      3   2        ; 0
4602  50C00080           [07] forprep    1   4        ; to [12]
4606  4E010100           [08] gettable   5   0   4  
460A  64C1C002           [09] self       5   5   259  ; 216012556
460E  D3010000           [10] getupval   7   0      
4612  62418001           [11] call       5   3   1  
4616  5480FE7F           [12] forloop    1   -5       ; to [8] if loop
461A  1E008000           [13] return     0   1      
                         * constants:
461E  04                 sizek (4)
461F  04                 const type 4
4620  08                 string size (8)
4621  67526567696F6E00   "gRegion\0"
                         const [0]: "gRegion"
4629  01                 const type 3
462A  9FE1FB48           const [1]: (1224466847)
462E  03                 const type 3
462F  0000803F           const [2]: (0)
4633  01                 const type 3
4634  0C17E00C           const [3]: (216012556)
                         * functions:
4638  00                 sizep (0)
                         * lines:
4639  0D                 sizelineinfo (13)
                         [pc] (line)
463A  05                 [01] (5)
463B  03                 [02] (5)
463C  00                 [03] (5)
463D  00                 [04] (6)
463E  05                 [05] (6)
463F  03                 [06] (6)
4640  00                 [07] (6)
4641  00                 [08] (7)
4642  05                 [09] (7)
4643  03                 [10] (7)
4644  00                 [11] (7)
4645  00                 [12] (6)
4646  06                 [13] (9)
                         * locals:
466E  00                 sizelocvars (0)
                         * upvalues:
466F  00                 sizeupvalues (0)
                         ** end of function **

                         
4670                     ** function [14] definition (level 2)
                         ** start of function **
4670  00                 string size (0)
                         source name: (none)
4672  06                 line defined (779)
4673  8D                 last line defined (781)
4674  06                 nups (0)
4675  00                 numparams (0)
4676  00                 is_vararg (0)
4677  00                 maxstacksize (3)
                         * code:
4679  05                 sizecode (5)
467A  1D000000           [1] getglobal  0   0        ; gGameRules
467E  24404000           [2] self       0   0   257  ; 952266004
4682  97008000           [3] loadbool   2   1   0    ; true
4686  22408001           [4] call       0   3   1  
468A  1E008000           [5] return     0   1      
                         * constants:
468E  02                 sizek (2)
468F  04                 const type 4
4690  0B                 string size (11)
4691  6747616D6552756C+  "gGameRul"
4699  657300             "es\0"
                         const [0]: "gGameRules"
469C  01                 const type 3
469D  146DC238           const [1]: (952266004)
                         * functions:
46A1  00                 sizep (0)
                         * lines:
46A2  05                 sizelineinfo (5)
                         [pc] (line)
46A3  0C                 [1] (12)
46A4  03                 [2] (12)
46A5  00                 [3] (12)
46A6  00                 [4] (12)
46A7  0C                 [5] (13)
                         * locals:
46B7  00                 sizelocvars (0)
                         * upvalues:
46B8  00                 sizeupvalues (0)
                         ** end of function **

                         
46B9                     ** function [15] definition (level 2)
                         ** start of function **
46B9  00                 string size (0)
                         source name: (none)
46BB  06                 line defined (783)
46BC  FD                 last line defined (1277)
46BD  09                 nups (21)
46BE  15                 numparams (1)
46BF  01                 is_vararg (0)
46C0  00                 maxstacksize (75)
                         * code:
46C3  0A                 sizecode (1286)
46C4  5D000000           [0001] getglobal  1   0        ; gRegion
46C8  6440C000           [0002] self       1   1   257  ; -1520831144
46CC  62800001           [0003] call       1   2   2  
46D0  58400000           [0004] test       1       1    ; to [6] if false
46D4  1A000080           [0005] jmp        1            ; to [7]
46D8  1E008000           [0006] return     0   1      
46DC  5D800000           [0007] getglobal  1   2        ; _T
46E0  4EC0C000           [0008] gettable   1   1   259  ; "InWorldTransmissionQueue"
46E4  58400000           [0009] test       1       1    ; to [11] if false
46E8  1A800080           [0010] jmp        3            ; to [14]
46EC  5D800000           [0011] getglobal  1   2        ; _T
46F0  8B000000           [0012] newtable   2   0   0    ; array=0, hash=0
46F4  4C808081           [0013] settable   1   259 2    ; "InWorldTransmissionQueue"
46F8  5D000100           [0014] getglobal  1   4        ; 1074689893
46FC  93000000           [0015] getupval   2   0      
4700  62800001           [0016] call       1   2   2  
4704  58000000           [0017] test       1       0    ; to [19] if true
4708  1A400180           [0018] jmp        6            ; to [25]
470C  5D400100           [0019] getglobal  1   5        ; 538022378
4710  99800100           [0020] loadk      2   6        ; 0
4714  62400001           [0021] call       1   2   1  
4718  5DC00100           [0022] getglobal  1   7        ; gGameRules
fail op	8
471C  48000000           [0023] setupval   1   0      
4720  1A00FD7F           [0024] jmp        -11          ; to [14]
4724  5D800000           [0025] getglobal  1   2        ; _T
4728  9D400200           [0026] getglobal  2   9        ; transmissionSet
472C  4C800084           [0027] settable   1   264 2    ; "TransmissionSet"
4730  5D000000           [0028] getglobal  1   0        ; gRegion
4734  6480C200           [0029] self       1   1   266  ; 1804432755
4738  D9C00200           [0030] loadk      3   11       ; "OnPlayersChanged"
473C  62408001           [0031] call       1   3   1  
4740  53000000           [0032] getupval   1   0      
4744  6400C300           [0033] self       1   1   268  ; -317790213
4748  D3008000           [0034] getupval   3   1      
474C  19810100           [0035] loadk      4   6        ; 0
4750  62800002           [0036] call       1   4   2  
4754  9D000000           [0037] getglobal  2   0        ; gRegion
4758  A4404301           [0038] self       2   2   269  ; 1224466847
475C  A2800001           [0039] call       2   2   2  
fail op	35
4760  2380C100           [0040] close      0  
4764  1A401780           [0041] jmp        94           ; to [136]
4768  D3000000           [0042] getupval   3   0      
476C  E480C301           [0043] self       3   3   270  ; -803877924
4770  53010001           [0044] getupval   5   2      
4774  99810100           [0045] loadk      6   6        ; 0
4778  E2400002           [0046] call       3   4   1  
477C  DDC00300           [0047] getglobal  3   15       ; MaxShipHealth
4780  0A010001           [0048] len        4   2      
4784  0D014402           [0049] sub        4   4   272  ; 0
4788  C3008101           [0050] add        3   3   4  
fail op	21
478C  15C08088           [0051] concat     0   273 3  
4790  1A000080           [0052] jmp        1            ; to [54]
4794  D9400400           [0053] loadk      3   17       ; 0
4798  13010000           [0054] getupval   4   0      
479C  24814302           [0055] self       4   4   270  ; -803877924
47A0  93018001           [0056] getupval   6   3      
47A4  D2018001           [0057] move       7   3      
47A8  22410002           [0058] call       4   4   1  
47AC  13010000           [0059] getupval   4   0      
47B0  24814302           [0060] self       4   4   270  ; -803877924
47B4  93010002           [0061] getupval   6   4      
47B8  D2018001           [0062] move       7   3      
47BC  22410002           [0063] call       4   4   1  
47C0  13010000           [0064] getupval   4   0      
47C4  24814302           [0065] self       4   4   270  ; -803877924
47C8  93018002           [0066] getupval   6   5      
47CC  D9810100           [0067] loadk      7   6        ; 0
47D0  22410002           [0068] call       4   4   1  
47D4  13010000           [0069] getupval   4   0      
47D8  24814302           [0070] self       4   4   270  ; -803877924
47DC  93010003           [0071] getupval   6   6      
47E0  D9010400           [0072] loadk      7   16       ; 0
47E4  22410002           [0073] call       4   4   1  
47E8  13010000           [0074] getupval   4   0      
47EC  24814302           [0075] self       4   4   270  ; -803877924
47F0  93018003           [0076] getupval   6   7      
47F4  D9810100           [0077] loadk      7   6        ; 0
47F8  22410002           [0078] call       4   4   1  
47FC  13010000           [0079] getupval   4   0      
4800  24814302           [0080] self       4   4   270  ; -803877924
4804  93010004           [0081] getupval   6   8      
4808  CA010001           [0082] len        7   2      
480C  22410002           [0083] call       4   4   1  
4810  13010000           [0084] getupval   4   0      
4814  24814302           [0085] self       4   4   270  ; -803877924
4818  93018004           [0086] getupval   6   9      
481C  D9010400           [0087] loadk      7   16       ; 0
4820  22410002           [0088] call       4   4   1  
4824  13010000           [0089] getupval   4   0      
4828  24814302           [0090] self       4   4   270  ; -803877924
482C  93010005           [0091] getupval   6   10     
4830  D9810100           [0092] loadk      7   6        ; 0
4834  22410002           [0093] call       4   4   1  
4838  13010000           [0094] getupval   4   0      
483C  24814302           [0095] self       4   4   270  ; -803877924
4840  93018005           [0096] getupval   6   11     
4844  D9810100           [0097] loadk      7   6        ; 0
4848  22410002           [0098] call       4   4   1  
484C  13010006           [0099] getupval   4   12     
4850  52018000           [0100] move       5   1      
4854  22810001           [0101] call       4   2   2  
4858  52000002           [0102] move       1   4      
485C  1D010000           [0103] getglobal  4   0        ; gRegion
4860  24814402           [0104] self       4   4   274  ; 152279552
4864  9DC10400           [0105] getglobal  6   19       ; gBaseAvatarType
4868  E4014500           [0106] self       7   0   276  ; 1839670529
486C  E2810001           [0107] call       7   2   2  
4870  19820100           [0108] loadk      8   6        ; 0
4874  59420500           [0109] loadk      9   21       ; 0
4878  22810003           [0110] call       4   6   2  
487C  59010400           [0111] loadk      5   16       ; 0
4880  8A010002           [0112] len        6   4      
4884  D9010400           [0113] loadk      7   16       ; 0
4888  50810480           [0114] forprep    5   19       ; to [134]
488C  4E020202           [0115] gettable   9   4   8  
4890  6482C504           [0116] self       9   9   278  ; -2031737093
4894  62820001           [0117] call       9   2   2  
4898  9DC20500           [0118] getglobal  10  23       ; -332969190
489C  D9020600           [0119] loadk      11  24       ; "TENNO"
48A0  A2820001           [0120] call       10  2   2  
fail op	35
48A4  63808204           [0121] close      1  
48A8  1A800280           [0122] jmp        11           ; to [134]
48AC  4E020202           [0123] gettable   9   4   8  
48B0  6442C604           [0124] self       9   9   281  ; -830264577
48B4  62820001           [0125] call       9   2   2  
48B8  9DC20500           [0126] getglobal  10  23       ; -332969190
48BC  D9820600           [0127] loadk      11  26       ; "AmbulasPack"
48C0  A2820001           [0128] call       10  2   2  
fail op	35
48C4  63808204           [0129] close      1  
48C8  1A800080           [0130] jmp        3            ; to [134]
48CC  4E020202           [0131] gettable   9   4   8  
48D0  64C2C604           [0132] self       9   9   283  ; -725453761
48D4  62420001           [0133] call       9   2   1  
48D8  54C1FA7F           [0134] forloop    5   -20      ; to [115] if loop
48DC  1A001C80           [0135] jmp        113          ; to [249]
48E0  5D020700           [0136] getglobal  9   28       ; gPromotedToHost
48E4  58020000           [0137] test       9       0    ; to [139] if true
48E8  1A401B80           [0138] jmp        110          ; to [249]
48EC  5D420100           [0139] getglobal  9   5        ; 538022378
48F0  99820100           [0140] loadk      10  6        ; 0
48F4  62420001           [0141] call       9   2   1  
48F8  5D020000           [0142] getglobal  9   0        ; gRegion
48FC  6442C704           [0143] self       9   9   285  ; -1485896174
4900  DDC20500           [0144] getglobal  11  23       ; -332969190
4904  19830700           [0145] loadk      12  30       ; "Ambulas"
4908  E2020001           [0146] call       11  2   0  
490C  62820000           [0147] call       9   0   2  
4910  99020400           [0148] loadk      10  16       ; 0
4914  CA028004           [0149] len        11  9      
4918  19030400           [0150] loadk      12  16       ; 0
491C  90021480           [0151] forprep    10  81       ; to [233]
4920  9D030100           [0152] getglobal  14  4        ; 1074689893
4924  CE438304           [0153] gettable   15  9   13 
4928  A2830001           [0154] call       14  2   2  
492C  98430000           [0155] test       14      1    ; to [157] if false
4930  1AC01280           [0156] jmp        76           ; to [233]
4934  8E438304           [0157] gettable   14  9   13 
4938  A4C34707           [0158] self       14  14  287  ; -1544157541
493C  A2830001           [0159] call       14  2   2  
4940  A4034807           [0160] self       14  14  288  ; 1015770002
4944  A2830001           [0161] call       14  2   2  
4948  98430000           [0162] test       14      1    ; to [164] if false
494C  1AC00080           [0163] jmp        4            ; to [168]
4950  8E438304           [0164] gettable   14  9   13 
4954  A4434807           [0165] self       14  14  289  ; -1519595333
4958  A2830001           [0166] call       14  2   2  
495C  1A400080           [0167] jmp        2            ; to [170]
4960  97430000           [0168] loadbool   14  0   1    ; false, to [170]
4964  97038000           [0169] loadbool   14  1   0    ; true
4968  98030000           [0170] test       14      0    ; to [172] if true
496C  1A800780           [0171] jmp        31           ; to [203]
4970  DD030100           [0172] getglobal  15  4        ; 1074689893
4974  1D840800           [0173] getglobal  16  34       ; ambulasHackedMarkerInfo
4978  E2830001           [0174] call       15  2   2  
497C  D8430000           [0175] test       15      1    ; to [177] if false
4980  1AC00D80           [0176] jmp        56           ; to [233]
4984  CE438304           [0177] gettable   15  9   13 
4988  E4C3C807           [0178] self       15  15  291  ; -1625438872
498C  5D840800           [0179] getglobal  17  34       ; ambulasHackedMarkerInfo
4990  E2838001           [0180] call       15  3   2  
4994  1D040100           [0181] getglobal  16  4        ; 1074689893
4998  52048007           [0182] move       17  15     
499C  22840001           [0183] call       16  2   2  
49A0  18040000           [0184] test       16      0    ; to [186] if true
49A4  1A000280           [0185] jmp        9            ; to [195]
49A8  0E448304           [0186] gettable   16  9   13 
49AC  24044908           [0187] self       16  16  292  ; -1421644046
49B0  9D840800           [0188] getglobal  18  34       ; ambulasHackedMarkerInfo
49B4  DD440900           [0189] getglobal  19  37       ; EMPTY_SYMBOL
49B8  1D850900           [0190] getglobal  20  38       ; ZERO_VECTOR
49BC  5DC50900           [0191] getglobal  21  39       ; ZERO_ROTATION
49C0  8E458304           [0192] gettable   22  9   13 
49C4  22848003           [0193] call       16  7   2  
49C8  D2030008           [0194] move       15  16     
49CC  1D040100           [0195] getglobal  16  4        ; 1074689893
49D0  52048007           [0196] move       17  15     
49D4  22840001           [0197] call       16  2   2  
49D8  18440000           [0198] test       16      1    ; to [200] if false
49DC  1A000880           [0199] jmp        33           ; to [233]
49E0  2404CA07           [0200] self       16  15  296  ; -974578778
49E4  22440001           [0201] call       16  2   1  
49E8  1A400780           [0202] jmp        30           ; to [233]
49EC  1D040100           [0203] getglobal  16  4        ; 1074689893
49F0  5D440A00           [0204] getglobal  17  41       ; ambulasBossMarkerInfo
49F4  22840001           [0205] call       16  2   2  
49F8  18440000           [0206] test       16      1    ; to [208] if false
49FC  1A000680           [0207] jmp        25           ; to [233]
4A00  0E448304           [0208] gettable   16  9   13 
4A04  24C44808           [0209] self       16  16  291  ; -1625438872
4A08  9D440A00           [0210] getglobal  18  41       ; ambulasBossMarkerInfo
4A0C  22848001           [0211] call       16  3   2  
4A10  5D040100           [0212] getglobal  17  4        ; 1074689893
4A14  92040008           [0213] move       18  16     
4A18  62840001           [0214] call       17  2   2  
4A1C  58040000           [0215] test       17      0    ; to [217] if true
4A20  1A000280           [0216] jmp        9            ; to [226]
4A24  4E448304           [0217] gettable   17  9   13 
4A28  6404C908           [0218] self       17  17  292  ; -1421644046
4A2C  DD440A00           [0219] getglobal  19  41       ; ambulasBossMarkerInfo
4A30  1D450900           [0220] getglobal  20  37       ; EMPTY_SYMBOL
4A34  5D850900           [0221] getglobal  21  38       ; ZERO_VECTOR
4A38  9DC50900           [0222] getglobal  22  39       ; ZERO_ROTATION
4A3C  CE458304           [0223] gettable   23  9   13 
4A40  62848003           [0224] call       17  7   2  
4A44  12048008           [0225] move       16  17     
4A48  5D040100           [0226] getglobal  17  4        ; 1074689893
4A4C  92040008           [0227] move       18  16     
4A50  62840001           [0228] call       17  2   2  
4A54  58440000           [0229] test       17      1    ; to [231] if false
4A58  1A400080           [0230] jmp        2            ; to [233]
4A5C  64044A08           [0231] self       17  16  296  ; -974578778
4A60  62440001           [0232] call       17  2   1  
4A64  9442EB7F           [0233] forloop    10  -82      ; to [152] if loop
fail op	21
4A68  15400095           [0234] concat     0   298 1  
4A6C  1A400080           [0235] jmp        2            ; to [238]
fail op	21
4A70  55C0CA00           [0236] concat     1   1   299
4A74  1A800180           [0237] jmp        7            ; to [245]
4A78  53040000           [0238] getupval   17  0      
4A7C  6404C308           [0239] self       17  17  268  ; -317790213
4A80  D3048003           [0240] getupval   19  7      
4A84  19850100           [0241] loadk      20  6        ; 0
4A88  62840002           [0242] call       17  4   2  
fail op	21
4A8C  15400483           [0243] concat     0   262 17 
4A90  1AC00080           [0244] jmp        4            ; to [249]
4A94  5D040B00           [0245] getglobal  17  44       ; addSpawnerTrigger
4A98  6444CB08           [0246] self       17  17  301  ; -1923578185
4A9C  D9840B00           [0247] loadk      19  46       ; "Execute"
4AA0  62448001           [0248] call       17  3   1  
4AA4  5DC40B00           [0249] getglobal  17  47       ; AddArrivalTime
4AA8  9D040C00           [0250] getglobal  18  48       ; AirStrikeArrivalTime
4AAC  43848408           [0251] add        17  17  18 
4AB0  9D440C00           [0252] getglobal  18  49       ; CargoShipLaunchTime
4AB4  43848408           [0253] add        17  17  18 
4AB8  9D840C00           [0254] getglobal  18  50       ; CargoShipArrivalTime
4ABC  43848408           [0255] add        17  17  18 
4AC0  9DC40C00           [0256] getglobal  18  51       ; CargoShipPickupTime
4AC4  43848408           [0257] add        17  17  18 
4AC8  9D040D00           [0258] getglobal  18  52       ; CargoShipReturnTime
4ACC  43848408           [0259] add        17  17  18 
4AD0  9D440D00           [0260] getglobal  18  53       ; StrikeTeamActiveTime
4AD4  43848408           [0261] add        17  17  18 
4AD8  9DC40B00           [0262] getglobal  18  47       ; AddArrivalTime
4ADC  8D848408           [0263] sub        18  17  18 
4AE0  DD040C00           [0264] getglobal  19  48       ; AirStrikeArrivalTime
4AE4  CDC40409           [0265] sub        19  18  19 
4AE8  1D450C00           [0266] getglobal  20  49       ; CargoShipLaunchTime
4AEC  0D058509           [0267] sub        20  19  20 
4AF0  5D850C00           [0268] getglobal  21  50       ; CargoShipArrivalTime
4AF4  4D45050A           [0269] sub        21  20  21 
4AF8  9DC50C00           [0270] getglobal  22  51       ; CargoShipPickupTime
4AFC  8D85850A           [0271] sub        22  21  22 
4B00  DD050D00           [0272] getglobal  23  52       ; CargoShipReturnTime
4B04  CDC5050B           [0273] sub        23  22  23 
4B08  1D460D00           [0274] getglobal  24  53       ; StrikeTeamActiveTime
4B0C  0D06860B           [0275] sub        24  23  24 
4B10  5DC60B00           [0276] getglobal  25  47       ; AddArrivalTime
4B14  9D060C00           [0277] getglobal  26  48       ; AirStrikeArrivalTime
4B18  4386860C           [0278] add        25  25  26 
4B1C  9D460C00           [0279] getglobal  26  49       ; CargoShipLaunchTime
4B20  4386860C           [0280] add        25  25  26 
4B24  9D860C00           [0281] getglobal  26  50       ; CargoShipArrivalTime
4B28  4386860C           [0282] add        25  25  26 
4B2C  9DC60C00           [0283] getglobal  26  51       ; CargoShipPickupTime
4B30  4386860C           [0284] add        25  25  26 
4B34  93060000           [0285] getupval   26  0      
4B38  A406430D           [0286] self       26  26  268  ; -317790213
4B3C  13070002           [0287] getupval   28  4      
4B40  59870100           [0288] loadk      29  6        ; 0
4B44  A2860002           [0289] call       26  4   2  
4B48  D3060000           [0290] getupval   27  0      
4B4C  E406C30D           [0291] self       27  27  268  ; -317790213
4B50  53078001           [0292] getupval   29  3      
4B54  99870100           [0293] loadk      30  6        ; 0
4B58  E2860002           [0294] call       27  4   2  
4B5C  19070400           [0295] loadk      28  16       ; 0
4B60  4A070001           [0296] len        29  2      
4B64  99070400           [0297] loadk      30  16       ; 0
4B68  10C70080           [0298] forprep    28  4        ; to [303]
4B6C  0EC80701           [0299] gettable   32  2   31 
4B70  24884D10           [0300] self       32  32  310  ; 216012556
4B74  93088006           [0301] getupval   34  13     
4B78  22488001           [0302] call       32  3   1  
4B7C  1487FE7F           [0303] forloop    28  -5       ; to [299] if loop
4B80  13080000           [0304] getupval   32  0      
4B84  24084310           [0305] self       32  32  268  ; -317790213
4B88  93080004           [0306] getupval   34  8      
4B8C  D9880100           [0307] loadk      35  6        ; 0
4B90  22880002           [0308] call       32  4   2  
4B94  53080000           [0309] getupval   33  0      
4B98  6408C310           [0310] self       33  33  268  ; -317790213
4B9C  D3080002           [0311] getupval   35  4      
4BA0  19890100           [0312] loadk      36  6        ; 0
4BA4  62880002           [0313] call       33  4   2  
fail op	21
4BA8  15400883           [0314] concat     0   262 33 
4BAC  1A40D080           [0315] jmp        834          ; to [1150]
4BB0  53080000           [0316] getupval   33  0      
4BB4  6408C310           [0317] self       33  33  268  ; -317790213
4BB8  D3080001           [0318] getupval   35  2      
4BBC  19890100           [0319] loadk      36  6        ; 0
4BC0  62880002           [0320] call       33  4   2  
4BC4  9DC80D00           [0321] getglobal  34  55       ; MaxAmbulasFailed
fail op	21
4BC8  15808810           [0322] concat     0   33  34 
4BCC  1A40CE80           [0323] jmp        826          ; to [1150]
4BD0  53080000           [0324] getupval   33  0      
4BD4  6408C310           [0325] self       33  33  268  ; -317790213
4BD8  D3080002           [0326] getupval   35  4      
4BDC  19890100           [0327] loadk      36  6        ; 0
4BE0  62880002           [0328] call       33  4   2  
4BE4  92068010           [0329] move       26  33     
4BE8  5CC8060D           [0330] div        33  26  27 
4BEC  93080000           [0331] getupval   34  0      
4BF0  A4084311           [0332] self       34  34  268  ; -317790213
4BF4  13090003           [0333] getupval   36  6      
4BF8  59890100           [0334] loadk      37  6        ; 0
4BFC  A2880002           [0335] call       34  4   2  
4C00  DDC80100           [0336] getglobal  35  7        ; gGameRules
4C04  E488C311           [0337] self       35  35  270  ; -803877924
4C08  53098005           [0338] getupval   37  11     
4C0C  99890100           [0339] loadk      38  6        ; 0
4C10  E2480002           [0340] call       35  4   1  
fail op	33
4C14  2100C400           [0341] tforloop   0       272  ; to [343] if exit
4C18  1A402C80           [0342] jmp        178          ; to [521]
4C1C  DD080E00           [0343] getglobal  35  56       ; -1817107093
4C20  19490E00           [0344] loadk      36  57       ; "Spawning Boss "
4C24  E2480001           [0345] call       35  2   1  
fail op	35
4C28  23004411           [0346] close      0  
4C2C  1A000180           [0347] jmp        5            ; to [353]
4C30  D3080007           [0348] getupval   35  14     
4C34  1D890E00           [0349] getglobal  36  58       ; AmbulasSpawnPoints
4C38  0E094412           [0350] gettable   36  36  272  ; 0
4C3C  E2480001           [0351] call       35  2   1  
4C40  1A401D80           [0352] jmp        118          ; to [471]
4C44  DD080000           [0353] getglobal  35  0        ; gRegion
4C48  E448C311           [0354] self       35  35  269  ; 1224466847
4C4C  E2880001           [0355] call       35  2   2  
4C50  92008011           [0356] move       2   35     
4C54  D9080400           [0357] loadk      35  16       ; 0
4C58  0A090001           [0358] len        36  2      
4C5C  59090400           [0359] loadk      37  16       ; 0
4C60  D0880380           [0360] forprep    35  15       ; to [376]
4C64  DDC90E00           [0361] getglobal  39  59       ; 738251817
4C68  190A0F00           [0362] loadk      40  60       ; "/Lotus/Sounds/Levels/Missions/Defense/DefenseWaveCleared"
4C6C  E2890001           [0363] call       39  2   2  
4C70  130A0000           [0364] getupval   40  0      
4C74  244A4F14           [0365] self       40  40  317  ; 908734006
4C78  8E8A0901           [0366] gettable   42  2   38 
4C7C  D30A8007           [0367] getupval   43  15     
4C80  198B0F00           [0368] loadk      44  62       ; ""
4C84  598B0100           [0369] loadk      45  6        ; 0
4C88  99CB0F00           [0370] loadk      46  63       ; 0
4C8C  D70B8000           [0371] loadbool   47  1   0    ; true
4C90  198C0F00           [0372] loadk      48  62       ; ""
4C94  598C0F00           [0373] loadk      49  62       ; ""
4C98  920C8013           [0374] move       50  39     
4C9C  224A8005           [0375] call       40  11  1  
4CA0  D4C8FB7F           [0376] forloop    35  -16      ; to [361] if loop
4CA4  1D4A0100           [0377] getglobal  40  5        ; 538022378
4CA8  590A0400           [0378] loadk      41  16       ; 0
4CAC  224A0001           [0379] call       40  2   1  
4CB0  190A0400           [0380] loadk      40  16       ; 0
fail op	35
4CB4  23004410           [0381] close      0  
4CB8  1AC00080           [0382] jmp        4            ; to [387]
fail op	21
4CBC  1500D010           [0383] concat     0   33  320
4CC0  1A800480           [0384] jmp        19           ; to [404]
4CC4  194A1000           [0385] loadk      40  65       ; 0
4CC8  1A000480           [0386] jmp        17           ; to [404]
fail op	35
4CCC  23405010           [0387] close      0  
4CD0  1AC00080           [0388] jmp        4            ; to [393]
fail op	21
4CD4  1580D010           [0389] concat     0   33  322
4CD8  1A000380           [0390] jmp        13           ; to [404]
4CDC  194A1000           [0391] loadk      40  65       ; 0
4CE0  1A800280           [0392] jmp        11           ; to [404]
fail op	35
4CE4  23804A10           [0393] close      0  
4CE8  1AC00080           [0394] jmp        4            ; to [399]
fail op	21
4CEC  1580D010           [0395] concat     0   33  322
4CF0  1A800180           [0396] jmp        7            ; to [404]
4CF4  194A1000           [0397] loadk      40  65       ; 0
4CF8  1A000180           [0398] jmp        5            ; to [404]
fail op	35
4CFC  23C05010           [0399] close      0  
4D00  1A800080           [0400] jmp        3            ; to [404]
fail op	21
4D04  1500C410           [0401] concat     0   33  272
4D08  1A000080           [0402] jmp        1            ; to [404]
4D0C  194A1000           [0403] loadk      40  65       ; 0
4D10  460A0015           [0404] loadnil    41  42     
4D14  CB0A0000           [0405] newtable   43  0   0    ; array=0, hash=0
4D18  0B0B0000           [0406] newtable   44  0   0    ; array=0, hash=0
4D1C  530B0000           [0407] getupval   45  0      
4D20  640BD116           [0408] self       45  45  324  ; -1201441975
4D24  628B0001           [0409] call       45  2   2  
4D28  4E4BD116           [0410] gettable   45  45  325  ; "maxEnemyLevel"
4D2C  990B0400           [0411] loadk      46  16       ; 0
4D30  DD8B0E00           [0412] getglobal  47  58       ; AmbulasSpawnPoints
4D34  CA0B8017           [0413] len        47  47     
4D38  190C0400           [0414] loadk      48  16       ; 0
4D3C  904B0180           [0415] forprep    46  6        ; to [422]
4D40  9D8C1100           [0416] getglobal  50  70       ; table
4D44  8ECC5119           [0417] gettable   50  50  327  ; -431682403
4D48  D20C8015           [0418] move       51  43     
4D4C  1D8D0E00           [0419] getglobal  52  58       ; AmbulasSpawnPoints
4D50  0E4D0C1A           [0420] gettable   52  52  49 
4D54  A24C8001           [0421] call       50  3   1  
4D58  940BFE7F           [0422] forloop    46  -7       ; to [416] if loop
fail op	21
4D5C  15000A83           [0423] concat     0   262 40 
4D60  1AC00980           [0424] jmp        40           ; to [465]
4D64  9D0C1200           [0425] getglobal  50  72       ; 687937235
4D68  D90C0400           [0426] loadk      51  16       ; 0
4D6C  0A0D8015           [0427] len        52  43     
4D70  A28C8001           [0428] call       50  3   2  
4D74  520A0019           [0429] move       41  50     
4D78  9D0C0100           [0430] getglobal  50  4        ; 1074689893
4D7C  CE4C8A15           [0431] gettable   51  43  41 
4D80  A28C0001           [0432] call       50  2   2  
4D84  984C0000           [0433] test       50      1    ; to [435] if false
4D88  1AC0FC7F           [0434] jmp        -12          ; to [423]
4D8C  8E4A8A15           [0435] gettable   42  43  41 
4D90  A40C4915           [0436] self       50  42  292  ; -1421644046
4D94  1D4D1200           [0437] getglobal  52  73       ; ambulasSpawnerFX
4D98  5D4D0900           [0438] getglobal  53  37       ; EMPTY_SYMBOL
4D9C  A24C0002           [0439] call       50  4   1  
4DA0  9D0C0000           [0440] getglobal  50  0        ; gRegion
4DA4  A48C5219           [0441] self       50  50  330  ; -1875307917
4DA8  1DCD0500           [0442] getglobal  52  23       ; -332969190
4DAC  59CD1200           [0443] loadk      53  75       ; "AmbulasSpawnAlarm"
4DB0  220D0001           [0444] call       52  2   0  
4DB4  A28C0000           [0445] call       50  0   2  
4DB8  DD0C0100           [0446] getglobal  51  4        ; 1074689893
4DBC  120D0019           [0447] move       52  50     
4DC0  E28C0001           [0448] call       51  2   2  
4DC4  D84C0000           [0449] test       51      1    ; to [451] if false
4DC8  1A400080           [0450] jmp        2            ; to [453]
4DCC  E40C4A19           [0451] self       51  50  296  ; -974578778
4DD0  E24C0001           [0452] call       51  2   1  
4DD4  DD8C1100           [0453] getglobal  51  70       ; table
4DD8  CECCD119           [0454] gettable   51  51  327  ; -431682403
4DDC  120D0016           [0455] move       52  44     
4DE0  520D0015           [0456] move       53  42     
4DE4  E24C8001           [0457] call       51  3   1  
4DE8  DD8C1100           [0458] getglobal  51  70       ; table
4DEC  CE0CD319           [0459] gettable   51  51  332  ; -843973282
4DF0  120D8015           [0460] move       52  43     
4DF4  520D8014           [0461] move       53  41     
4DF8  E24C8001           [0462] call       51  3   1  
4DFC  0D0A4414           [0463] sub        40  40  272  ; 0
4E00  1A40F57F           [0464] jmp        -42          ; to [423]
4E04  DD4C0100           [0465] getglobal  51  5        ; 538022378
4E08  198D0A00           [0466] loadk      52  42       ; 0
4E0C  E24C0001           [0467] call       51  2   1  
4E10  D30C0008           [0468] getupval   51  16     
4E14  120D0016           [0469] move       52  44     
4E18  E24C0001           [0470] call       51  2   1  
fail op	35
4E1C  2300440D           [0471] close      0  
4E20  1A000280           [0472] jmp        9            ; to [482]
4E24  D30C8008           [0473] getupval   51  17     
4E28  CE4CD319           [0474] gettable   51  51  333  ; -78033590
4E2C  1D8D0000           [0475] getglobal  52  2        ; _T
4E30  0E0D421A           [0476] gettable   52  52  264  ; "TransmissionSet"
4E34  5DCD0500           [0477] getglobal  53  23       ; -332969190
4E38  998D1300           [0478] loadk      54  78       ; "AmbulasBossLastOne"
4E3C  628D0001           [0479] call       53  2   2  
4E40  998D0100           [0480] loadk      54  6        ; 0
4E44  E24C0002           [0481] call       51  4   1  
4E48  DD0C0000           [0482] getglobal  51  0        ; gRegion
4E4C  E44CC019           [0483] self       51  51  257  ; -1520831144
4E50  E28C0001           [0484] call       51  2   2  
4E54  D80C0000           [0485] test       51      0    ; to [487] if true
4E58  1A400780           [0486] jmp        30           ; to [517]
4E5C  D30C0000           [0487] getupval   51  0      
4E60  E4CCD319           [0488] self       51  51  335  ; -249861443
4E64  530D8006           [0489] getupval   53  13     
4E68  9DCD0500           [0490] getglobal  54  23       ; -332969190
4E6C  A28D8000           [0491] call       54  1   2  
4E70  D20D800C           [0492] move       55  25     
4E74  170E0000           [0493] loadbool   56  0   0    ; false
4E78  570E8000           [0494] loadbool   57  1   0    ; true
4E7C  970E0000           [0495] loadbool   58  0   0    ; false
4E80  E24C0004           [0496] call       51  8   1  
4E84  D30C0000           [0497] getupval   51  0      
4E88  E40CD419           [0498] self       51  51  336  ; -39864641
4E8C  530D8006           [0499] getupval   53  13     
4E90  970D8000           [0500] loadbool   54  1   0    ; true
4E94  E24C0002           [0501] call       51  4   1  
4E98  D30C0000           [0502] getupval   51  0      
4E9C  E4CCD319           [0503] self       51  51  335  ; -249861443
4EA0  530D0009           [0504] getupval   53  18     
4EA4  9DCD0500           [0505] getglobal  54  23       ; -332969190
4EA8  A28D8000           [0506] call       54  1   2  
4EAC  D20D8008           [0507] move       55  17     
4EB0  170E0000           [0508] loadbool   56  0   0    ; false
4EB4  570E8000           [0509] loadbool   57  1   0    ; true
4EB8  970E0000           [0510] loadbool   58  0   0    ; false
4EBC  E24C0004           [0511] call       51  8   1  
4EC0  D30C0000           [0512] getupval   51  0      
4EC4  E40CD419           [0513] self       51  51  336  ; -39864641
4EC8  530D0009           [0514] getupval   53  18     
4ECC  970D8000           [0515] loadbool   54  1   0    ; true
4ED0  E24C0002           [0516] call       51  4   1  
4ED4  D30C0006           [0517] getupval   51  12     
4ED8  120D8000           [0518] move       52  1      
4EDC  E28C0001           [0519] call       51  2   2  
4EE0  52008019           [0520] move       1   51     
fail op	33
4EE4  2140D000           [0521] tforloop   0       321  ; to [523] if exit
4EE8  1A800E80           [0522] jmp        59           ; to [582]
4EEC  DD0C0000           [0523] getglobal  51  0        ; gRegion
4EF0  E44CC719           [0524] self       51  51  285  ; -1485896174
4EF4  5DCD0500           [0525] getglobal  53  23       ; -332969190
4EF8  998D0700           [0526] loadk      54  30       ; "Ambulas"
4EFC  620D0001           [0527] call       53  2   0  
4F00  E28C0000           [0528] call       51  0   2  
4F04  130D0000           [0529] getupval   52  0      
4F08  240D431A           [0530] self       52  52  268  ; -317790213
4F0C  930D8003           [0531] getupval   54  7      
4F10  D98D0100           [0532] loadk      55  6        ; 0
4F14  228D0002           [0533] call       52  4   2  
4F18  530D0000           [0534] getupval   53  0      
4F1C  644DD41A           [0535] self       53  53  337  ; 1157879449
4F20  D30D0009           [0536] getupval   55  18     
4F24  628D8001           [0537] call       53  3   2  
fail op	33
4F28  21400D09           [0538] tforloop   0       53   ; to [540] if exit
4F2C  1A400980           [0539] jmp        38           ; to [578]
4F30  5D4D0100           [0540] getglobal  53  5        ; 538022378
4F34  998D0100           [0541] loadk      54  6        ; 0
4F38  624D0001           [0542] call       53  2   1  
fail op	35
4F3C  2380411A           [0543] close      0  
4F40  1A00FD7F           [0544] jmp        -11          ; to [534]
4F44  590D0400           [0545] loadk      53  16       ; 0
4F48  8A0D8019           [0546] len        54  51     
4F4C  D90D0400           [0547] loadk      55  16       ; 0
4F50  500D0580           [0548] forprep    53  21       ; to [570]
4F54  5D0E0100           [0549] getglobal  57  4        ; 1074689893
4F58  8E0E8E19           [0550] gettable   58  51  56 
4F5C  628E0001           [0551] call       57  2   2  
4F60  584E0000           [0552] test       57      1    ; to [554] if false
4F64  1AC00380           [0553] jmp        16           ; to [570]
4F68  4E0E8E19           [0554] gettable   57  51  56 
4F6C  644EC81C           [0555] self       57  57  289  ; -1519595333
4F70  628E0001           [0556] call       57  2   2  
4F74  580E0000           [0557] test       57      0    ; to [559] if true
4F78  1A800280           [0558] jmp        11           ; to [570]
4F7C  190D0400           [0559] loadk      52  16       ; 0
4F80  530E0000           [0560] getupval   57  0      
4F84  648EC31C           [0561] self       57  57  270  ; -803877924
4F88  D30E8003           [0562] getupval   59  7      
4F8C  120F001A           [0563] move       60  52     
4F90  624E0002           [0564] call       57  4   1  
4F94  5D0E0B00           [0565] getglobal  57  44       ; addSpawnerTrigger
4F98  644ECB1C           [0566] self       57  57  301  ; -1923578185
4F9C  D98E0B00           [0567] loadk      59  46       ; "Execute"
4FA0  624E8001           [0568] call       57  3   1  
4FA4  1A000080           [0569] jmp        1            ; to [571]
4FA8  544DFA7F           [0570] forloop    53  -22      ; to [549] if loop
4FAC  530E0000           [0571] getupval   57  0      
4FB0  640EC31C           [0572] self       57  57  268  ; -317790213
4FB4  D30E8003           [0573] getupval   59  7      
4FB8  198F0100           [0574] loadk      60  6        ; 0
4FBC  628E0002           [0575] call       57  4   2  
4FC0  120D801C           [0576] move       52  57     
4FC4  1AC0F47F           [0577] jmp        -44          ; to [534]
4FC8  530E0006           [0578] getupval   57  12     
4FCC  920E8000           [0579] move       58  1      
4FD0  628E0001           [0580] call       57  2   2  
4FD4  5200801C           [0581] move       1   57     
fail op	33
4FD8  2180CA00           [0582] tforloop   0       298  ; to [584] if exit
4FDC  1A400480           [0583] jmp        18           ; to [602]
4FE0  5D0E0E00           [0584] getglobal  57  56       ; -1817107093
4FE4  998E1400           [0585] loadk      58  82       ; "Spawning Adds "
4FE8  624E0001           [0586] call       57  2   1  
4FEC  530E0000           [0587] getupval   57  0      
4FF0  640EC31C           [0588] self       57  57  268  ; -317790213
4FF4  D30E8003           [0589] getupval   59  7      
4FF8  198F0100           [0590] loadk      60  6        ; 0
4FFC  628E0002           [0591] call       57  4   2  
fail op	35
5000  2380C11C           [0592] close      0  
5004  1AC00080           [0593] jmp        4            ; to [598]
5008  5D0E0B00           [0594] getglobal  57  44       ; addSpawnerTrigger
500C  644ECB1C           [0595] self       57  57  301  ; -1923578185
5010  D98E0B00           [0596] loadk      59  46       ; "Execute"
5014  624E8001           [0597] call       57  3   1  
5018  530E0006           [0598] getupval   57  12     
501C  920E8000           [0599] move       58  1      
5020  628E0001           [0600] call       57  2   2  
5024  5200801C           [0601] move       1   57     
fail op	33
5028  21C0D000           [0602] tforloop   0       323  ; to [604] if exit
502C  1A400380           [0603] jmp        14           ; to [618]
5030  530E0000           [0604] getupval   57  0      
5034  644ED41C           [0605] self       57  57  337  ; 1157879449
5038  D30E0009           [0606] getupval   59  18     
503C  628E8001           [0607] call       57  3   2  
fail op	33
5040  21408E09           [0608] tforloop   0       57   ; to [610] if exit
5044  1AC00080           [0609] jmp        4            ; to [614]
5048  5D4E0100           [0610] getglobal  57  5        ; 538022378
504C  998E0100           [0611] loadk      58  6        ; 0
5050  624E0001           [0612] call       57  2   1  
5054  1A40FD7F           [0613] jmp        -10          ; to [604]
5058  530E0006           [0614] getupval   57  12     
505C  920E8000           [0615] move       58  1      
5060  628E0001           [0616] call       57  2   2  
5064  5200801C           [0617] move       1   57     
fail op	33
5068  21C0D400           [0618] tforloop   0       339  ; to [620] if exit
506C  1A000D80           [0619] jmp        53           ; to [673]
5070  5D0E0E00           [0620] getglobal  57  56       ; -1817107093
5074  990E1500           [0621] loadk      58  84       ; "Air Strike Starting "
5078  624E0001           [0622] call       57  2   1  
fail op	21
507C  1540D510           [0623] concat     0   33  341
5080  1AC00A80           [0624] jmp        44           ; to [669]
5084  5D0E0000           [0625] getglobal  57  0        ; gRegion
5088  648ED21C           [0626] self       57  57  330  ; -1875307917
508C  DDCE0500           [0627] getglobal  59  23       ; -332969190
5090  198F1500           [0628] loadk      60  86       ; "CapitalShipAlarm"
5094  E20E0001           [0629] call       59  2   0  
5098  628E0000           [0630] call       57  0   2  
509C  9D0E0100           [0631] getglobal  58  4        ; 1074689893
50A0  D20E801C           [0632] move       59  57     
50A4  A28E0001           [0633] call       58  2   2  
50A8  984E0000           [0634] test       58      1    ; to [636] if false
50AC  1A400080           [0635] jmp        2            ; to [638]
50B0  A40ECA1C           [0636] self       58  57  296  ; -974578778
50B4  A24E0001           [0637] call       58  2   1  
50B8  930E8008           [0638] getupval   58  17     
50BC  8E4E531D           [0639] gettable   58  58  333  ; -78033590
50C0  DD8E0000           [0640] getglobal  59  2        ; _T
50C4  CE0EC21D           [0641] gettable   59  59  264  ; "TransmissionSet"
50C8  1DCF0500           [0642] getglobal  60  23       ; -332969190
50CC  59CF1500           [0643] loadk      61  87       ; "AmbulasBossOrbitalStrike"
50D0  228F0001           [0644] call       60  2   2  
50D4  598F0100           [0645] loadk      61  6        ; 0
50D8  A24E0002           [0646] call       58  4   1  
fail op	21
50DC  154008A1           [0647] concat     0   322 33 
50E0  1A000180           [0648] jmp        5            ; to [654]
50E4  9D0E1600           [0649] getglobal  58  88       ; missileBarrageTrigger
50E8  A44E4B1D           [0650] self       58  58  301  ; -1923578185
50EC  198F0B00           [0651] loadk      60  46       ; "Execute"
50F0  A24E8001           [0652] call       58  3   1  
50F4  1A800380           [0653] jmp        15           ; to [669]
fail op	21
50F8  154088AC           [0654] concat     0   345 33 
50FC  1A000180           [0655] jmp        5            ; to [661]
5100  9D8E1600           [0656] getglobal  58  90       ; orbitalLaserTrigger
5104  A44E4B1D           [0657] self       58  58  301  ; -1923578185
5108  198F0B00           [0658] loadk      60  46       ; "Execute"
510C  A24E8001           [0659] call       58  3   1  
5110  1AC00180           [0660] jmp        8            ; to [669]
5114  9D0E1600           [0661] getglobal  58  88       ; missileBarrageTrigger
5118  A44E4B1D           [0662] self       58  58  301  ; -1923578185
511C  198F0B00           [0663] loadk      60  46       ; "Execute"
5120  A24E8001           [0664] call       58  3   1  
5124  9D8E1600           [0665] getglobal  58  90       ; orbitalLaserTrigger
5128  A44E4B1D           [0666] self       58  58  301  ; -1923578185
512C  198F0B00           [0667] loadk      60  46       ; "Execute"
5130  A24E8001           [0668] call       58  3   1  
5134  930E0006           [0669] getupval   58  12     
5138  D20E8000           [0670] move       59  1      
513C  A28E0001           [0671] call       58  2   2  
5140  5200001D           [0672] move       1   58     
fail op	33
5144  2140C400           [0673] tforloop   0       273  ; to [675] if exit
5148  1A400380           [0674] jmp        14           ; to [689]
514C  930E0000           [0675] getupval   58  0      
5150  A44E541D           [0676] self       58  58  337  ; 1157879449
5154  130F0009           [0677] getupval   60  18     
5158  A28E8001           [0678] call       58  3   2  
fail op	33
515C  21800E0A           [0679] tforloop   0       58   ; to [681] if exit
5160  1AC00080           [0680] jmp        4            ; to [685]
5164  9D4E0100           [0681] getglobal  58  5        ; 538022378
5168  D98E0100           [0682] loadk      59  6        ; 0
516C  A24E0001           [0683] call       58  2   1  
5170  1A40FD7F           [0684] jmp        -10          ; to [675]
5174  930E0006           [0685] getupval   58  12     
5178  D20E8000           [0686] move       59  1      
517C  A28E0001           [0687] call       58  2   2  
5180  5200001D           [0688] move       1   58     
fail op	33
5184  21C0D600           [0689] tforloop   0       347  ; to [691] if exit
5188  1AC00580           [0690] jmp        24           ; to [715]
518C  9D0E0E00           [0691] getglobal  58  56       ; -1817107093
5190  D90E1700           [0692] loadk      59  92       ; "Launching Cargo Ship!"
5194  A24E0001           [0693] call       58  2   1  
5198  9D0E0000           [0694] getglobal  58  0        ; gRegion
519C  A44E431D           [0695] self       58  58  269  ; 1224466847
51A0  A28E0001           [0696] call       58  2   2  
51A4  9200001D           [0697] move       2   58     
51A8  930E8008           [0698] getupval   58  17     
51AC  8E4E531D           [0699] gettable   58  58  333  ; -78033590
51B0  DD8E0000           [0700] getglobal  59  2        ; _T
51B4  CE0EC21D           [0701] gettable   59  59  264  ; "TransmissionSet"
51B8  1DCF0500           [0702] getglobal  60  23       ; -332969190
51BC  594F1700           [0703] loadk      61  93       ; "AmbulasBossDropship"
51C0  228F0001           [0704] call       60  2   2  
51C4  598F0100           [0705] loadk      61  6        ; 0
51C8  A24E0002           [0706] call       58  4   1  
51CC  9D8E1700           [0707] getglobal  58  94       ; CargoShipSpawnPoint
51D0  A44E4B1D           [0708] self       58  58  301  ; -1923578185
51D4  19CF1700           [0709] loadk      60  95       ; "Reset"
51D8  A24E8001           [0710] call       58  3   1  
51DC  930E0006           [0711] getupval   58  12     
51E0  D20E8000           [0712] move       59  1      
51E4  A28E0001           [0713] call       58  2   2  
51E8  5200001D           [0714] move       1   58     
fail op	33
51EC  2100D800           [0715] tforloop   0       352  ; to [717] if exit
51F0  1A400380           [0716] jmp        14           ; to [731]
51F4  930E0000           [0717] getupval   58  0      
51F8  A44E541D           [0718] self       58  58  337  ; 1157879449
51FC  130F0009           [0719] getupval   60  18     
5200  A28E8001           [0720] call       58  3   2  
fail op	33
5204  21808E0A           [0721] tforloop   0       58   ; to [723] if exit
5208  1AC00080           [0722] jmp        4            ; to [727]
520C  9D4E0100           [0723] getglobal  58  5        ; 538022378
5210  D98E0100           [0724] loadk      59  6        ; 0
5214  A24E0001           [0725] call       58  2   1  
5218  1A40FD7F           [0726] jmp        -10          ; to [717]
521C  930E0006           [0727] getupval   58  12     
5220  D20E8000           [0728] move       59  1      
5224  A28E0001           [0729] call       58  2   2  
5228  5200001D           [0730] move       1   58     
fail op	33
522C  21C0CA00           [0731] tforloop   0       299  ; to [733] if exit
5230  1A000480           [0732] jmp        17           ; to [750]
5234  9D0E0E00           [0733] getglobal  58  56       ; -1817107093
5238  D94E1800           [0734] loadk      59  97       ; "Cargo Ship arrived "
523C  A24E0001           [0735] call       58  2   1  
5240  930E0000           [0736] getupval   58  0      
5244  A44E541D           [0737] self       58  58  337  ; 1157879449
5248  130F0009           [0738] getupval   60  18     
524C  A28E8001           [0739] call       58  3   2  
fail op	33
5250  21800E0B           [0740] tforloop   0       58   ; to [742] if exit
5254  1AC00080           [0741] jmp        4            ; to [746]
5258  9D4E0100           [0742] getglobal  58  5        ; 538022378
525C  D98E0100           [0743] loadk      59  6        ; 0
5260  A24E0001           [0744] call       58  2   1  
5264  1A40FD7F           [0745] jmp        -10          ; to [736]
5268  930E0006           [0746] getupval   58  12     
526C  D20E8000           [0747] move       59  1      
5270  A28E0001           [0748] call       58  2   2  
5274  5200001D           [0749] move       1   58     
fail op	33
5278  2180D800           [0750] tforloop   0       354  ; to [752] if exit
527C  1A000480           [0751] jmp        17           ; to [769]
5280  930E0000           [0752] getupval   58  0      
5284  A4CE581D           [0753] self       58  58  355  ; 237539347
5288  130F8006           [0754] getupval   60  13     
528C  A24E8001           [0755] call       58  3   1  
5290  9DCE0100           [0756] getglobal  58  7        ; gGameRules
5294  A40E591D           [0757] self       58  58  356  ; -1007361174
5298  130F0009           [0758] getupval   60  18     
529C  570F8000           [0759] loadbool   61  1   0    ; true
52A0  A24E0002           [0760] call       58  4   1  
52A4  9D4E1900           [0761] getglobal  58  101      ; tractorBeamTrigger
52A8  A44E4B1D           [0762] self       58  58  301  ; -1923578185
52AC  198F0B00           [0763] loadk      60  46       ; "Execute"
52B0  A24E8001           [0764] call       58  3   1  
52B4  930E0006           [0765] getupval   58  12     
52B8  D20E8000           [0766] move       59  1      
52BC  A28E0001           [0767] call       58  2   2  
52C0  5200001D           [0768] move       1   58     
fail op	33
52C4  2180D900           [0769] tforloop   0       358  ; to [771] if exit
52C8  1A800380           [0770] jmp        15           ; to [786]
52CC  930E0000           [0771] getupval   58  0      
52D0  A40E431D           [0772] self       58  58  268  ; -317790213
52D4  130F8000           [0773] getupval   60  1      
52D8  598F0100           [0774] loadk      61  6        ; 0
52DC  A28E0002           [0775] call       58  4   2  
fail op	35
52E0  2380591D           [0776] close      0  
52E4  1AC00080           [0777] jmp        4            ; to [782]
52E8  9D4E0100           [0778] getglobal  58  5        ; 538022378
52EC  D98E0100           [0779] loadk      59  6        ; 0
52F0  A24E0001           [0780] call       58  2   1  
52F4  1A00FD7F           [0781] jmp        -11          ; to [771]
52F8  930E0006           [0782] getupval   58  12     
52FC  D20E8000           [0783] move       59  1      
5300  A28E0001           [0784] call       58  2   2  
5304  5200001D           [0785] move       1   58     
fail op	33
5308  21C0D900           [0786] tforloop   0       359  ; to [788] if exit
530C  1A403180           [0787] jmp        198          ; to [986]
5310  9D0E0E00           [0788] getglobal  58  56       ; -1817107093
5314  D90E1A00           [0789] loadk      59  104      ; "Cargo Ship delivering "
5318  A24E0001           [0790] call       58  2   1  
531C  930E0000           [0791] getupval   58  0      
5320  A40E431D           [0792] self       58  58  268  ; -317790213
5324  130F8002           [0793] getupval   60  5      
5328  598F0100           [0794] loadk      61  6        ; 0
532C  A28E0002           [0795] call       58  4   2  
fail op	21
5330  15800E83           [0796] concat     0   262 58 
5334  1A402680           [0797] jmp        154          ; to [952]
5338  DD0E0000           [0798] getglobal  59  0        ; gRegion
533C  E44EC31D           [0799] self       59  59  269  ; 1224466847
5340  E28E0001           [0800] call       59  2   2  
5344  9200801D           [0801] move       2   59     
5348  D90E0400           [0802] loadk      59  16       ; 0
534C  0A0F0001           [0803] len        60  2      
5350  590F0400           [0804] loadk      61  16       ; 0
5354  D08E0380           [0805] forprep    59  15       ; to [821]
5358  DDCF0E00           [0806] getglobal  63  59       ; 738251817
535C  19100F00           [0807] loadk      64  60       ; "/Lotus/Sounds/Levels/Missions/Defense/DefenseWaveCleared"
5360  E28F0001           [0808] call       63  2   2  
5364  13100000           [0809] getupval   64  0      
5368  24504F20           [0810] self       64  64  317  ; 908734006
536C  8E900F01           [0811] gettable   66  2   62 
5370  D3108009           [0812] getupval   67  19     
5374  19910F00           [0813] loadk      68  62       ; ""
5378  59910100           [0814] loadk      69  6        ; 0
537C  99D10F00           [0815] loadk      70  63       ; 0
5380  D7118000           [0816] loadbool   71  1   0    ; true
5384  19920F00           [0817] loadk      72  62       ; ""
5388  59920F00           [0818] loadk      73  62       ; ""
538C  9212801F           [0819] move       74  63     
5390  22508005           [0820] call       64  11  1  
5394  D4CEFB7F           [0821] forloop    59  -16      ; to [806] if loop
5398  8D860E0D           [0822] sub        26  26  58 
fail op	21
539C  1580410D           [0823] concat     0   26  262
53A0  1A000080           [0824] jmp        1            ; to [826]
53A4  99860100           [0825] loadk      26  6        ; 0
53A8  13100000           [0826] getupval   64  0      
53AC  24904320           [0827] self       64  64  270  ; -803877924
53B0  93100002           [0828] getupval   66  4      
53B4  D210000D           [0829] move       67  26     
53B8  22500002           [0830] call       64  4   1  
53BC  5CC8060D           [0831] div        33  26  27 
53C0  13100000           [0832] getupval   64  0      
53C4  24104320           [0833] self       64  64  268  ; -317790213
53C8  93108004           [0834] getupval   66  9      
53CC  D9900100           [0835] loadk      67  6        ; 0
53D0  22900002           [0836] call       64  4   2  
fail op	21
53D4  154088B4           [0837] concat     0   361 33 
53D8  1A000480           [0838] jmp        17           ; to [856]
fail op	35
53DC  23004420           [0839] close      0  
53E0  1A800380           [0840] jmp        15           ; to [856]
53E4  53108008           [0841] getupval   65  17     
53E8  4E50D320           [0842] gettable   65  65  333  ; -78033590
53EC  9D900000           [0843] getglobal  66  2        ; _T
53F0  8E104221           [0844] gettable   66  66  264  ; "TransmissionSet"
53F4  DDD00500           [0845] getglobal  67  23       ; -332969190
53F8  19911A00           [0846] loadk      68  106      ; "AmbulasBossPickup1"
53FC  E2900001           [0847] call       67  2   2  
5400  19910100           [0848] loadk      68  6        ; 0
5404  62500002           [0849] call       65  4   1  
5408  53100000           [0850] getupval   65  0      
540C  6490C320           [0851] self       65  65  270  ; -803877924
5410  D3108004           [0852] getupval   67  9      
5414  19511000           [0853] loadk      68  65       ; 0
5418  62500002           [0854] call       65  4   1  
541C  1A801B80           [0855] jmp        111          ; to [967]
fail op	33
5420  2140DA10           [0856] tforloop   0       361  ; to [858] if exit
5424  1A800480           [0857] jmp        19           ; to [877]
fail op	21
5428  154088B5           [0858] concat     0   363 33 
542C  1A000480           [0859] jmp        17           ; to [877]
fail op	35
5430  23004420           [0860] close      0  
5434  1A800380           [0861] jmp        15           ; to [877]
5438  53108008           [0862] getupval   65  17     
543C  4E50D320           [0863] gettable   65  65  333  ; -78033590
5440  9D900000           [0864] getglobal  66  2        ; _T
5444  8E104221           [0865] gettable   66  66  264  ; "TransmissionSet"
5448  DDD00500           [0866] getglobal  67  23       ; -332969190
544C  19911A00           [0867] loadk      68  106      ; "AmbulasBossPickup1"
5450  E2900001           [0868] call       67  2   2  
5454  19910100           [0869] loadk      68  6        ; 0
5458  62500002           [0870] call       65  4   1  
545C  53100000           [0871] getupval   65  0      
5460  6490C320           [0872] self       65  65  270  ; -803877924
5464  D3108004           [0873] getupval   67  9      
5468  19910A00           [0874] loadk      68  42       ; 0
546C  62500002           [0875] call       65  4   1  
5470  1A401680           [0876] jmp        90           ; to [967]
fail op	33
5474  2140DA10           [0877] tforloop   0       361  ; to [879] if exit
5478  1A800480           [0878] jmp        19           ; to [898]
fail op	21
547C  154088B5           [0879] concat     0   363 33 
5480  1A000480           [0880] jmp        17           ; to [898]
fail op	35
5484  23405020           [0881] close      0  
5488  1A800380           [0882] jmp        15           ; to [898]
548C  53108008           [0883] getupval   65  17     
5490  4E50D320           [0884] gettable   65  65  333  ; -78033590
5494  9D900000           [0885] getglobal  66  2        ; _T
5498  8E104221           [0886] gettable   66  66  264  ; "TransmissionSet"
549C  DDD00500           [0887] getglobal  67  23       ; -332969190
54A0  19111B00           [0888] loadk      68  108      ; "AmbulasBossPickup2"
54A4  E2900001           [0889] call       67  2   2  
54A8  19910100           [0890] loadk      68  6        ; 0
54AC  62500002           [0891] call       65  4   1  
54B0  53100000           [0892] getupval   65  0      
54B4  6490C320           [0893] self       65  65  270  ; -803877924
54B8  D3108004           [0894] getupval   67  9      
54BC  19910A00           [0895] loadk      68  42       ; 0
54C0  62500002           [0896] call       65  4   1  
54C4  1A001180           [0897] jmp        69           ; to [967]
fail op	33
54C8  21C0DA10           [0898] tforloop   0       363  ; to [900] if exit
54CC  1A800480           [0899] jmp        19           ; to [919]
fail op	21
54D0  154088B6           [0900] concat     0   365 33 
54D4  1A000480           [0901] jmp        17           ; to [919]
fail op	35
54D8  23804A20           [0902] close      0  
54DC  1A800380           [0903] jmp        15           ; to [919]
54E0  53108008           [0904] getupval   65  17     
54E4  4E50D320           [0905] gettable   65  65  333  ; -78033590
54E8  9D900000           [0906] getglobal  66  2        ; _T
54EC  8E104221           [0907] gettable   66  66  264  ; "TransmissionSet"
54F0  DDD00500           [0908] getglobal  67  23       ; -332969190
54F4  19911B00           [0909] loadk      68  110      ; "AmbulasBossPickup3"
54F8  E2900001           [0910] call       67  2   2  
54FC  19910100           [0911] loadk      68  6        ; 0
5500  62500002           [0912] call       65  4   1  
5504  53100000           [0913] getupval   65  0      
5508  6490C320           [0914] self       65  65  270  ; -803877924
550C  D3108004           [0915] getupval   67  9      
5510  19D11000           [0916] loadk      68  67       ; 0
5514  62500002           [0917] call       65  4   1  
5518  1AC00B80           [0918] jmp        48           ; to [967]
fail op	33
551C  2140DB10           [0919] tforloop   0       365  ; to [921] if exit
5520  1A800480           [0920] jmp        19           ; to [940]
fail op	21
5524  15400883           [0921] concat     0   262 33 
5528  1A000480           [0922] jmp        17           ; to [940]
fail op	35
552C  23C05020           [0923] close      0  
5530  1A800380           [0924] jmp        15           ; to [940]
5534  53108008           [0925] getupval   65  17     
5538  4E50D320           [0926] gettable   65  65  333  ; -78033590
553C  9D900000           [0927] getglobal  66  2        ; _T
5540  8E104221           [0928] gettable   66  66  264  ; "TransmissionSet"
5544  DDD00500           [0929] getglobal  67  23       ; -332969190
5548  19D11B00           [0930] loadk      68  111      ; "AmbulasBossPickup4"
554C  E2900001           [0931] call       67  2   2  
5550  19910100           [0932] loadk      68  6        ; 0
5554  62500002           [0933] call       65  4   1  
5558  53100000           [0934] getupval   65  0      
555C  6490C320           [0935] self       65  65  270  ; -803877924
5560  D3108004           [0936] getupval   67  9      
5564  19D11400           [0937] loadk      68  83       ; 0
5568  62500002           [0938] call       65  4   1  
556C  1A800680           [0939] jmp        27           ; to [967]
fail op	33
5570  2180C110           [0940] tforloop   0       262  ; to [942] if exit
5574  1A000680           [0941] jmp        25           ; to [967]
5578  53108008           [0942] getupval   65  17     
557C  4E50D320           [0943] gettable   65  65  333  ; -78033590
5580  9D900000           [0944] getglobal  66  2        ; _T
5584  8E104221           [0945] gettable   66  66  264  ; "TransmissionSet"
5588  DDD00500           [0946] getglobal  67  23       ; -332969190
558C  19111C00           [0947] loadk      68  112      ; "AmbulasBossPickupVictory"
5590  E2900001           [0948] call       67  2   2  
5594  19910100           [0949] loadk      68  6        ; 0
5598  62500002           [0950] call       65  4   1  
559C  1A800380           [0951] jmp        15           ; to [967]
55A0  5D101200           [0952] getglobal  65  72       ; 687937235
55A4  99900100           [0953] loadk      66  6        ; 0
55A8  D9501000           [0954] loadk      67  65       ; 0
55AC  62908001           [0955] call       65  3   2  
fail op	35
55B0  2380C120           [0956] close      0  
55B4  1A000280           [0957] jmp        9            ; to [967]
55B8  93108008           [0958] getupval   66  17     
55BC  8E505321           [0959] gettable   66  66  333  ; -78033590
55C0  DD900000           [0960] getglobal  67  2        ; _T
55C4  CE10C221           [0961] gettable   67  67  264  ; "TransmissionSet"
55C8  1DD10500           [0962] getglobal  68  23       ; -332969190
55CC  59511C00           [0963] loadk      69  113      ; "AmbulasUnhackedDelivered"
55D0  22910001           [0964] call       68  2   2  
55D4  59910100           [0965] loadk      69  6        ; 0
55D8  A2500002           [0966] call       66  4   1  
55DC  998E0100           [0967] loadk      58  6        ; 0
55E0  93100000           [0968] getupval   66  0      
55E4  A4904321           [0969] self       66  66  270  ; -803877924
55E8  13118002           [0970] getupval   68  5      
55EC  5211001D           [0971] move       69  58     
55F0  A2500002           [0972] call       66  4   1  
55F4  9D100E00           [0973] getglobal  66  56       ; -1817107093
55F8  D9901C00           [0974] loadk      67  114      ; "Current Ship Health: "
55FC  1211000D           [0975] move       68  26     
5600  A2508001           [0976] call       66  3   1  
5604  9DD00100           [0977] getglobal  66  7        ; gGameRules
5608  A4105921           [0978] self       66  66  356  ; -1007361174
560C  13110009           [0979] getupval   68  18     
5610  57110000           [0980] loadbool   69  0   0    ; false
5614  A2500002           [0981] call       66  4   1  
5618  93100006           [0982] getupval   66  12     
561C  D2108000           [0983] move       67  1      
5620  A2900001           [0984] call       66  2   2  
5624  52000021           [0985] move       1   66     
fail op	33
5628  21C0DC00           [0986] tforloop   0       371  ; to [988] if exit
562C  1A000480           [0987] jmp        17           ; to [1005]
5630  9D100E00           [0988] getglobal  66  56       ; -1817107093
5634  D9101D00           [0989] loadk      67  116      ; "Cargo Ship leaving "
5638  A2500001           [0990] call       66  2   1  
563C  93100000           [0991] getupval   66  0      
5640  A4505421           [0992] self       66  66  337  ; 1157879449
5644  13110009           [0993] getupval   68  18     
5648  A2908001           [0994] call       66  3   2  
fail op	33
564C  2180900B           [0995] tforloop   0       66   ; to [997] if exit
5650  1AC00080           [0996] jmp        4            ; to [1001]
5654  9D500100           [0997] getglobal  66  5        ; 538022378
5658  D9900100           [0998] loadk      67  6        ; 0
565C  A2500001           [0999] call       66  2   1  
5660  1A40FD7F           [1000] jmp        -10          ; to [991]
5664  93100006           [1001] getupval   66  12     
5668  D2108000           [1002] move       67  1      
566C  A2900001           [1003] call       66  2   2  
5670  52000021           [1004] move       1   66     
fail op	33
5674  2140DD00           [1005] tforloop   0       373  ; to [1007] if exit
5678  1A40517F           [1006] jmp        -698         ; to [309]
567C  93100000           [1007] getupval   66  0      
5680  A4104321           [1008] self       66  66  268  ; -317790213
5684  13110002           [1009] getupval   68  4      
5688  59910100           [1010] loadk      69  6        ; 0
568C  A2900002           [1011] call       66  4   2  
fail op	21
5690  15801083           [1012] concat     0   262 66 
5694  1A804F7F           [1013] jmp        -705         ; to [309]
5698  93100000           [1014] getupval   66  0      
569C  A4104321           [1015] self       66  66  268  ; -317790213
56A0  13110001           [1016] getupval   68  2      
56A4  59910100           [1017] loadk      69  6        ; 0
56A8  A2900002           [1018] call       66  4   2  
56AC  DDD00D00           [1019] getglobal  67  55       ; MaxAmbulasFailed
fail op	21
56B0  15C01021           [1020] concat     0   66  67 
56B4  1A804D7F           [1021] jmp        -713         ; to [309]
fail op	21
56B8  15800888           [1022] concat     0   272 34 
56BC  1A801A80           [1023] jmp        107          ; to [1131]
56C0  93100000           [1024] getupval   66  0      
56C4  A4104321           [1025] self       66  66  268  ; -317790213
56C8  13110002           [1026] getupval   68  4      
56CC  59910100           [1027] loadk      69  6        ; 0
56D0  A2900002           [1028] call       66  4   2  
56D4  5CC80621           [1029] div        33  66  27 
fail op	33
56D8  2180DD10           [1030] tforloop   0       374  ; to [1032] if exit
56DC  1A800A80           [1031] jmp        43           ; to [1075]
56E0  93100000           [1032] getupval   66  0      
56E4  A4104321           [1033] self       66  66  268  ; -317790213
56E8  13110005           [1034] getupval   68  10     
56EC  59910100           [1035] loadk      69  6        ; 0
56F0  A2900002           [1036] call       66  4   2  
fail op	35
56F4  23804121           [1037] close      0  
56F8  1A800380           [1038] jmp        15           ; to [1054]
56FC  93108008           [1039] getupval   66  17     
5700  8E505321           [1040] gettable   66  66  333  ; -78033590
5704  DD900000           [1041] getglobal  67  2        ; _T
5708  CE10C221           [1042] gettable   67  67  264  ; "TransmissionSet"
570C  1DD10500           [1043] getglobal  68  23       ; -332969190
5710  59D11D00           [1044] loadk      69  119      ; "AmbulasBossMidFight1"
5714  22910001           [1045] call       68  2   2  
5718  59910100           [1046] loadk      69  6        ; 0
571C  A2500002           [1047] call       66  4   1  
5720  93100000           [1048] getupval   66  0      
5724  A4904321           [1049] self       66  66  270  ; -803877924
5728  13110005           [1050] getupval   68  10     
572C  59110400           [1051] loadk      69  16       ; 0
5730  A2500002           [1052] call       66  4   1  
5734  1A000580           [1053] jmp        21           ; to [1075]
5738  93100000           [1054] getupval   66  0      
573C  A4104321           [1055] self       66  66  268  ; -317790213
5740  13110005           [1056] getupval   68  10     
5744  59910100           [1057] loadk      69  6        ; 0
5748  A2900002           [1058] call       66  4   2  
fail op	35
574C  23004421           [1059] close      0  
5750  1A400380           [1060] jmp        14           ; to [1075]
5754  93108008           [1061] getupval   66  17     
5758  8E505321           [1062] gettable   66  66  333  ; -78033590
575C  DD900000           [1063] getglobal  67  2        ; _T
5760  CE10C221           [1064] gettable   67  67  264  ; "TransmissionSet"
5764  1DD10500           [1065] getglobal  68  23       ; -332969190
5768  59111E00           [1066] loadk      69  120      ; "AmbulasBossMidFight2"
576C  22910001           [1067] call       68  2   2  
5770  59910100           [1068] loadk      69  6        ; 0
5774  A2500002           [1069] call       66  4   1  
5778  93100000           [1070] getupval   66  0      
577C  A4904321           [1071] self       66  66  270  ; -803877924
5780  13110005           [1072] getupval   68  10     
5784  59511000           [1073] loadk      69  65       ; 0
5788  A2500002           [1074] call       66  4   1  
578C  86100021           [1075] loadnil    66  66     
fail op	35
5790  23405011           [1076] close      0  
5794  1A400080           [1077] jmp        2            ; to [1080]
5798  99100400           [1078] loadk      66  16       ; 0
579C  1A000280           [1079] jmp        9            ; to [1089]
fail op	35
57A0  23804A11           [1080] close      0  
57A4  1A400080           [1081] jmp        2            ; to [1084]
57A8  99501000           [1082] loadk      66  65       ; 0
57AC  1A000180           [1083] jmp        5            ; to [1089]
57B0  DD101200           [1084] getglobal  67  72       ; 687937235
57B4  19110400           [1085] loadk      68  16       ; 0
57B8  59511000           [1086] loadk      69  65       ; 0
57BC  E2908001           [1087] call       67  3   2  
57C0  92108021           [1088] move       66  67     
fail op	35
57C4  23004421           [1089] close      0  
57C8  1A000180           [1090] jmp        5            ; to [1096]
57CC  DD501E00           [1091] getglobal  67  121      ; droneTeamSpawnerTrigger
57D0  E450CB21           [1092] self       67  67  301  ; -1923578185
57D4  59910B00           [1093] loadk      69  46       ; "Execute"
57D8  E2508001           [1094] call       67  3   1  
57DC  1A400180           [1095] jmp        6            ; to [1102]
fail op	35
57E0  23405021           [1096] close      0  
57E4  1AC00080           [1097] jmp        4            ; to [1102]
57E8  DD901E00           [1098] getglobal  67  122      ; securityTeamSpawnerTrigger
57EC  E450CB21           [1099] self       67  67  301  ; -1923578185
57F0  59910B00           [1100] loadk      69  46       ; "Execute"
57F4  E2508001           [1101] call       67  3   1  
57F8  D3100000           [1102] getupval   67  0      
57FC  E450D421           [1103] self       67  67  337  ; 1157879449
5800  53110009           [1104] getupval   69  18     
5804  E2908001           [1105] call       67  3   2  
fail op	33
5808  21C0100C           [1106] tforloop   0       67   ; to [1108] if exit
580C  1AC00080           [1107] jmp        4            ; to [1112]
5810  DD500100           [1108] getglobal  67  5        ; 538022378
5814  19910100           [1109] loadk      68  6        ; 0
5818  E2500001           [1110] call       67  2   1  
581C  1A40FD7F           [1111] jmp        -10          ; to [1102]
5820  D3100000           [1112] getupval   67  0      
5824  E4D0D821           [1113] self       67  67  355  ; 237539347
5828  53110009           [1114] getupval   69  18     
582C  E2508001           [1115] call       67  3   1  
5830  D3100000           [1116] getupval   67  0      
5834  E490C321           [1117] self       67  67  270  ; -803877924
5838  53110003           [1118] getupval   69  6      
583C  93110000           [1119] getupval   70  0      
5840  A4114323           [1120] self       70  70  268  ; -317790213
5844  13120003           [1121] getupval   72  6      
5848  59920100           [1122] loadk      73  6        ; 0
584C  A2910002           [1123] call       70  4   2  
5850  83114423           [1124] add        70  70  272  ; 0
5854  E2500002           [1125] call       67  4   1  
5858  D310000A           [1126] getupval   67  20     
585C  12118000           [1127] move       68  1      
5860  E2900001           [1128] call       67  2   2  
5864  52008021           [1129] move       1   67     
5868  1A40327F           [1130] jmp        -822         ; to [309]
586C  D3100000           [1131] getupval   67  0      
5870  E4D0D821           [1132] self       67  67  355  ; 237539347
5874  53110009           [1133] getupval   69  18     
5878  E2508001           [1134] call       67  3   1  
587C  D3100000           [1135] getupval   67  0      
5880  E490C321           [1136] self       67  67  270  ; -803877924
5884  53110003           [1137] getupval   69  6      
5888  93110000           [1138] getupval   70  0      
588C  A4114323           [1139] self       70  70  268  ; -317790213
5890  13120003           [1140] getupval   72  6      
5894  59920100           [1141] loadk      73  6        ; 0
5898  A2910002           [1142] call       70  4   2  
589C  83114423           [1143] add        70  70  272  ; 0
58A0  E2500002           [1144] call       67  4   1  
58A4  D310000A           [1145] getupval   67  20     
58A8  12118000           [1146] move       68  1      
58AC  E2900001           [1147] call       67  2   2  
58B0  52008021           [1148] move       1   67     
58B4  1A802D7F           [1149] jmp        -841         ; to [309]
58B8  D3100000           [1150] getupval   67  0      
58BC  E410C321           [1151] self       67  67  268  ; -317790213
58C0  53110002           [1152] getupval   69  4      
58C4  99910100           [1153] loadk      70  6        ; 0
58C8  E2900002           [1154] call       67  4   2  
fail op	33
58CC  2180C121           [1155] tforloop   0       262  ; to [1157] if exit
58D0  1A401380           [1156] jmp        78           ; to [1235]
fail op	35
58D4  23C0DE00           [1157] close      0  
58D8  1A800680           [1158] jmp        27           ; to [1186]
58DC  DD500100           [1159] getglobal  67  5        ; 538022378
58E0  19D11400           [1160] loadk      68  83       ; 0
58E4  E2500001           [1161] call       67  2   1  
58E8  DD100000           [1162] getglobal  67  0        ; gRegion
58EC  E450C721           [1163] self       67  67  285  ; -1485896174
58F0  5DD10500           [1164] getglobal  69  23       ; -332969190
58F4  99910600           [1165] loadk      70  26       ; "AmbulasPack"
58F8  62110001           [1166] call       69  2   0  
58FC  E2900000           [1167] call       67  0   2  
5900  1D110100           [1168] getglobal  68  4        ; 1074689893
5904  4E11C421           [1169] gettable   69  67  272  ; 0
5908  22910001           [1170] call       68  2   2  
590C  18510000           [1171] test       68      1    ; to [1173] if false
5910  1A800080           [1172] jmp        3            ; to [1176]
5914  0E11C421           [1173] gettable   68  67  272  ; 0
5918  24D14622           [1174] self       68  68  283  ; -725453761
591C  22510001           [1175] call       68  2   1  
5920  13118008           [1176] getupval   68  17     
5924  0E515322           [1177] gettable   68  68  333  ; -78033590
5928  5D910000           [1178] getglobal  69  2        ; _T
592C  4E11C222           [1179] gettable   69  69  264  ; "TransmissionSet"
5930  9DD10500           [1180] getglobal  70  23       ; -332969190
5934  D9111F00           [1181] loadk      71  124      ; "AmbulasBossVictory4"
5938  A2910001           [1182] call       70  2   2  
593C  D9910100           [1183] loadk      71  6        ; 0
5940  22510002           [1184] call       68  4   1  
5944  1AC01880           [1185] jmp        100          ; to [1286]
5948  13110000           [1186] getupval   68  0      
594C  24914322           [1187] self       68  68  270  ; -803877924
5950  93118000           [1188] getupval   70  1      
5954  D2118000           [1189] move       71  1      
5958  22510002           [1190] call       68  4   1  
595C  1D110000           [1191] getglobal  68  0        ; gRegion
5960  24514722           [1192] self       68  68  285  ; -1485896174
5964  9DD10500           [1193] getglobal  70  23       ; -332969190
5968  D9910600           [1194] loadk      71  26       ; "AmbulasPack"
596C  A2110001           [1195] call       70  2   0  
5970  22910000           [1196] call       68  0   2  
5974  5D510100           [1197] getglobal  69  5        ; 538022378
5978  99911800           [1198] loadk      70  98       ; 0
597C  62510001           [1199] call       69  2   1  
5980  53118008           [1200] getupval   69  17     
5984  4E51D322           [1201] gettable   69  69  333  ; -78033590
5988  9D910000           [1202] getglobal  70  2        ; _T
598C  8E114223           [1203] gettable   70  70  264  ; "TransmissionSet"
5990  DDD10500           [1204] getglobal  71  23       ; -332969190
5994  19521F00           [1205] loadk      72  125      ; "AmbulasBossVictory3"
5998  E2910001           [1206] call       71  2   2  
599C  19920100           [1207] loadk      72  6        ; 0
59A0  62510002           [1208] call       69  4   1  
59A4  5D911F00           [1209] getglobal  69  126      ; capitalShipCinDeathTrigger
59A8  6451CB22           [1210] self       69  69  301  ; -1923578185
59AC  D9D11F00           [1211] loadk      71  127      ; "StartPlaying"
59B0  62518001           [1212] call       69  3   1  
59B4  59C01E00           [1213] loadk      1   123      ; 0
59B8  53110000           [1214] getupval   69  0      
59BC  6491C322           [1215] self       69  69  270  ; -803877924
59C0  D3118000           [1216] getupval   71  1      
59C4  12128000           [1217] move       72  1      
59C8  62510002           [1218] call       69  4   1  
59CC  5D510100           [1219] getglobal  69  5        ; 538022378
59D0  99112000           [1220] loadk      70  128      ; 0
59D4  62510001           [1221] call       69  2   1  
59D8  4E114422           [1222] gettable   69  68  272  ; 0
59DC  64D1C622           [1223] self       69  69  283  ; -725453761
59E0  62510001           [1224] call       69  2   1  
59E4  53118008           [1225] getupval   69  17     
59E8  4E51D322           [1226] gettable   69  69  333  ; -78033590
59EC  9D910000           [1227] getglobal  70  2        ; _T
59F0  8E114223           [1228] gettable   70  70  264  ; "TransmissionSet"
59F4  DDD10500           [1229] getglobal  71  23       ; -332969190
59F8  19121F00           [1230] loadk      72  124      ; "AmbulasBossVictory4"
59FC  E2910001           [1231] call       71  2   2  
5A00  19920100           [1232] loadk      72  6        ; 0
5A04  62510002           [1233] call       69  4   1  
5A08  1A800C80           [1234] jmp        51           ; to [1286]
5A0C  53110000           [1235] getupval   69  0      
5A10  6411C322           [1236] self       69  69  268  ; -317790213
5A14  D3110001           [1237] getupval   71  2      
5A18  19920100           [1238] loadk      72  6        ; 0
5A1C  62910002           [1239] call       69  4   2  
5A20  9DD10D00           [1240] getglobal  70  55       ; MaxAmbulasFailed
fail op	33
5A24  21401123           [1241] tforloop   0       69   ; to [1243] if exit
5A28  1A800A80           [1242] jmp        43           ; to [1286]
fail op	35
5A2C  23C0DE00           [1243] close      0  
5A30  1A000280           [1244] jmp        9            ; to [1254]
5A34  5D510100           [1245] getglobal  69  5        ; 538022378
5A38  99D11400           [1246] loadk      70  83       ; 0
5A3C  62510001           [1247] call       69  2   1  
5A40  5DD10100           [1248] getglobal  69  7        ; gGameRules
5A44  6451E022           [1249] self       69  69  385  ; -34409044
5A48  DD912000           [1250] getglobal  71  130      ; Engine
5A4C  CED1E023           [1251] gettable   71  71  387  ; "GameRules_GS_FAILURE"
5A50  62518001           [1252] call       69  3   1  
5A54  1AC00780           [1253] jmp        32           ; to [1286]
5A58  53110000           [1254] getupval   69  0      
5A5C  6491C322           [1255] self       69  69  270  ; -803877924
5A60  D3118000           [1256] getupval   71  1      
5A64  12128000           [1257] move       72  1      
5A68  62510002           [1258] call       69  4   1  
5A6C  53118008           [1259] getupval   69  17     
5A70  4E51D322           [1260] gettable   69  69  333  ; -78033590
5A74  9D910000           [1261] getglobal  70  2        ; _T
5A78  8E114223           [1262] gettable   70  70  264  ; "TransmissionSet"
5A7C  DDD10500           [1263] getglobal  71  23       ; -332969190
5A80  19122100           [1264] loadk      72  132      ; "AmbulasBossFailure"
5A84  E2910001           [1265] call       71  2   2  
5A88  19920100           [1266] loadk      72  6        ; 0
5A8C  62510002           [1267] call       69  4   1  
5A90  5D512100           [1268] getglobal  69  133      ; capitalShipCinLeaveTrigger
5A94  6451CB22           [1269] self       69  69  301  ; -1923578185
5A98  D9D11F00           [1270] loadk      71  127      ; "StartPlaying"
5A9C  62518001           [1271] call       69  3   1  
5AA0  59C01E00           [1272] loadk      1   123      ; 0
5AA4  53110000           [1273] getupval   69  0      
5AA8  6491C322           [1274] self       69  69  270  ; -803877924
5AAC  D3118000           [1275] getupval   71  1      
5AB0  12128000           [1276] move       72  1      
5AB4  62510002           [1277] call       69  4   1  
5AB8  5D510100           [1278] getglobal  69  5        ; 538022378
5ABC  99112000           [1279] loadk      70  128      ; 0
5AC0  62510001           [1280] call       69  2   1  
5AC4  5DD10100           [1281] getglobal  69  7        ; gGameRules
5AC8  6451E022           [1282] self       69  69  385  ; -34409044
5ACC  DD912000           [1283] getglobal  71  130      ; Engine
5AD0  CED1E023           [1284] gettable   71  71  387  ; "GameRules_GS_FAILURE"
5AD4  62518001           [1285] call       69  3   1  
5AD8  1E008000           [1286] return     0   1      
                         * constants:
5ADD  01                 sizek (134)
5ADE  04                 const type 4
5ADF  08                 string size (8)
5AE0  67526567696F6E00   "gRegion\0"
                         const [0]: "gRegion"
5AE8  01                 const type 3
5AE9  58F559A5           const [1]: (-1520831144)
5AED  04                 const type 4
5AEE  03                 string size (3)
5AEF  5F5400             "_T\0"
                         const [2]: "_T"
5AF2  04                 const type 4
5AF3  19                 string size (25)
5AF4  496E576F726C6454+  "InWorldT"
5AFC  72616E736D697373+  "ransmiss"
5B04  696F6E5175657565+  "ionQueue"
5B0C  00                 "\0"
                         const [3]: "InWorldTransmissionQueue"
5B0D  01                 const type 3
5B0E  65770E40           const [4]: (1074689893)
5B12  01                 const type 3
5B13  EA911120           const [5]: (538022378)
5B17  03                 const type 3
5B18  00000000           const [6]: (0)
5B1C  04                 const type 4
5B1D  0B                 string size (11)
5B1E  6747616D6552756C+  "gGameRul"
5B26  657300             "es\0"
                         const [7]: "gGameRules"
5B29  04                 const type 4
5B2A  10                 string size (16)
5B2B  5472616E736D6973+  "Transmis"
5B33  73696F6E53657400   "sionSet\0"
                         const [8]: "TransmissionSet"
5B3B  04                 const type 4
5B3C  10                 string size (16)
5B3D  7472616E736D6973+  "transmis"
5B45  73696F6E53657400   "sionSet\0"
                         const [9]: "transmissionSet"
5B4D  01                 const type 3
5B4E  73758D6B           const [10]: (1804432755)
5B52  04                 const type 4
5B53  11                 string size (17)
5B54  4F6E506C61796572+  "OnPlayer"
5B5C  734368616E676564+  "sChanged"
5B64  00                 "\0"
                         const [11]: "OnPlayersChanged"
5B65  01                 const type 3
5B66  FBE70EED           const [12]: (-317790213)
5B6A  01                 const type 3
5B6B  9FE1FB48           const [13]: (1224466847)
5B6F  01                 const type 3
5B70  DCCB15D0           const [14]: (-803877924)
5B74  04                 const type 4
5B75  0E                 string size (14)
5B76  4D61785368697048+  "MaxShipH"
5B7E  65616C746800       "ealth\0"
                         const [15]: "MaxShipHealth"
5B84  03                 const type 3
5B85  0000803F           const [16]: (0)
5B89  03                 const type 3
5B8A  0000C040           const [17]: (0)
5B8E  01                 const type 3
5B8F  009A1309           const [18]: (152279552)
5B93  04                 const type 4
5B94  10                 string size (16)
5B95  6742617365417661+  "gBaseAva"
5B9D  7461725479706500   "tarType\0"
                         const [19]: "gBaseAvatarType"
5BA5  01                 const type 3
5BA6  0125A76D           const [20]: (1839670529)
5BAA  03                 const type 3
5BAB  0000FA43           const [21]: (0)
5BAF  01                 const type 3
5BB0  FB26E686           const [22]: (-2031737093)
5BB4  01                 const type 3
5BB5  1A4B27EC           const [23]: (-332969190)
5BB9  04                 const type 4
5BBA  06                 string size (6)
5BBB  54454E4E4F00       "TENNO\0"
                         const [24]: "TENNO"
5BC1  01                 const type 3
5BC2  FF2A83CE           const [25]: (-830264577)
5BC6  04                 const type 4
5BC7  0C                 string size (12)
5BC8  416D62756C617350+  "AmbulasP"
5BD0  61636B00           "ack\0"
                         const [26]: "AmbulasPack"
5BD4  01                 const type 3
5BD5  3F74C2D4           const [27]: (-725453761)
5BD9  04                 const type 4
5BDA  10                 string size (16)
5BDB  6750726F6D6F7465+  "gPromote"
5BE3  64546F486F737400   "dToHost\0"
                         const [28]: "gPromotedToHost"
5BEB  01                 const type 3
5BEC  12066FA7           const [29]: (-1485896174)
5BF0  04                 const type 4
5BF1  08                 string size (8)
5BF2  416D62756C617300   "Ambulas\0"
                         const [30]: "Ambulas"
5BFA  01                 const type 3
5BFB  9B06F6A3           const [31]: (-1544157541)
5BFF  01                 const type 3
5C00  926B8B3C           const [32]: (1015770002)
5C04  01                 const type 3
5C05  BBD06CA5           const [33]: (-1519595333)
5C09  04                 const type 4
5C0A  18                 string size (24)
5C0B  616D62756C617348+  "ambulasH"
5C13  61636B65644D6172+  "ackedMar"
5C1B  6B6572496E666F00   "kerInfo\0"
                         const [34]: "ambulasHackedMarkerInfo"
5C23  01                 const type 3
5C24  68C51D9F           const [35]: (-1625438872)
5C28  01                 const type 3
5C29  F26E43AB           const [36]: (-1421644046)
5C2D  04                 const type 4
5C2E  0D                 string size (13)
5C2F  454D5054595F5359+  "EMPTY_SY"
5C37  4D424F4C00         "MBOL\0"
                         const [37]: "EMPTY_SYMBOL"
5C3C  04                 const type 4
5C3D  0C                 string size (12)
5C3E  5A45524F5F564543+  "ZERO_VEC"
5C46  544F5200           "TOR\0"
                         const [38]: "ZERO_VECTOR"
5C4A  04                 const type 4
5C4B  0E                 string size (14)
5C4C  5A45524F5F524F54+  "ZERO_ROT"
5C54  4154494F4E00       "ATION\0"
                         const [39]: "ZERO_ROTATION"
5C5A  01                 const type 3
5C5B  A61BE9C5           const [40]: (-974578778)
5C5F  04                 const type 4
5C60  16                 string size (22)
5C61  616D62756C617342+  "ambulasB"
5C69  6F73734D61726B65+  "ossMarke"
5C71  72496E666F00       "rInfo\0"
                         const [41]: "ambulasBossMarkerInfo"
5C77  03                 const type 3
5C78  00004040           const [42]: (0)
5C7C  03                 const type 3
5C7D  00001041           const [43]: (0)
5C81  04                 const type 4
5C82  12                 string size (18)
5C83  616464537061776E+  "addSpawn"
5C8B  6572547269676765+  "erTrigge"
5C93  7200               "r\0"
                         const [44]: "addSpawnerTrigger"
5C95  01                 const type 3
5C96  B786588D           const [45]: (-1923578185)
5C9A  04                 const type 4
5C9B  08                 string size (8)
5C9C  4578656375746500   "Execute\0"
                         const [46]: "Execute"
5CA4  04                 const type 4
5CA5  0F                 string size (15)
5CA6  4164644172726976+  "AddArriv"
5CAE  616C54696D6500     "alTime\0"
                         const [47]: "AddArrivalTime"
5CB5  04                 const type 4
5CB6  15                 string size (21)
5CB7  416972537472696B+  "AirStrik"
5CBF  654172726976616C+  "eArrival"
5CC7  54696D6500         "Time\0"
                         const [48]: "AirStrikeArrivalTime"
5CCC  04                 const type 4
5CCD  14                 string size (20)
5CCE  436172676F536869+  "CargoShi"
5CD6  704C61756E636854+  "pLaunchT"
5CDE  696D6500           "ime\0"
                         const [49]: "CargoShipLaunchTime"
5CE2  04                 const type 4
5CE3  15                 string size (21)
5CE4  436172676F536869+  "CargoShi"
5CEC  704172726976616C+  "pArrival"
5CF4  54696D6500         "Time\0"
                         const [50]: "CargoShipArrivalTime"
5CF9  04                 const type 4
5CFA  14                 string size (20)
5CFB  436172676F536869+  "CargoShi"
5D03  705069636B757054+  "pPickupT"
5D0B  696D6500           "ime\0"
                         const [51]: "CargoShipPickupTime"
5D0F  04                 const type 4
5D10  14                 string size (20)
5D11  436172676F536869+  "CargoShi"
5D19  7052657475726E54+  "pReturnT"
5D21  696D6500           "ime\0"
                         const [52]: "CargoShipReturnTime"
5D25  04                 const type 4
5D26  15                 string size (21)
5D27  537472696B655465+  "StrikeTe"
5D2F  616D416374697665+  "amActive"
5D37  54696D6500         "Time\0"
                         const [53]: "StrikeTeamActiveTime"
5D3C  01                 const type 3
5D3D  0C17E00C           const [54]: (216012556)
5D41  04                 const type 4
5D42  11                 string size (17)
5D43  4D6178416D62756C+  "MaxAmbul"
5D4B  61734661696C6564+  "asFailed"
5D53  00                 "\0"
                         const [55]: "MaxAmbulasFailed"
5D54  01                 const type 3
5D55  6B25B193           const [56]: (-1817107093)
5D59  04                 const type 4
5D5A  0F                 string size (15)
5D5B  537061776E696E67+  "Spawning"
5D63  20426F73732000     " Boss \0"
                         const [57]: "Spawning Boss "
5D6A  04                 const type 4
5D6B  13                 string size (19)
5D6C  416D62756C617353+  "AmbulasS"
5D74  7061776E506F696E+  "pawnPoin"
5D7C  747300             "ts\0"
                         const [58]: "AmbulasSpawnPoints"
5D7F  01                 const type 3
5D80  29D4002C           const [59]: (738251817)
5D84  04                 const type 4
5D85  39                 string size (57)
5D86  2F4C6F7475732F53+  "/Lotus/S"
5D8E  6F756E64732F4C65+  "ounds/Le"
5D96  76656C732F4D6973+  "vels/Mis"
5D9E  73696F6E732F4465+  "sions/De"
5DA6  66656E73652F4465+  "fense/De"
5DAE  66656E7365576176+  "fenseWav"
5DB6  65436C6561726564+  "eCleared"
5DBE  00                 "\0"
                         const [60]: "/Lotus/Sounds/Levels/Missions/Defense/DefenseWaveCleared"
5DBF  01                 const type 3
5DC0  362E2A36           const [61]: (908734006)
5DC4  04                 const type 4
5DC5  01                 string size (0)
                         const [62]: ""
5DC7  03                 const type 3
5DC8  00002040           const [63]: (0)
5DCC  03                 const type 3
5DCD  9A99993E           const [64]: (-102)
5DD1  03                 const type 3
5DD2  00000040           const [65]: (0)
5DD6  03                 const type 3
5DD7  3333333F           const [66]: (51)
5DDB  03                 const type 3
5DDC  00008040           const [67]: (0)
5DE0  01                 const type 3
5DE1  497363B8           const [68]: (-1201441975)
5DE5  04                 const type 4
5DE6  0E                 string size (14)
5DE7  6D6178456E656D79+  "maxEnemy"
5DEF  4C6576656C00       "Level\0"
                         const [69]: "maxEnemyLevel"
5DF5  04                 const type 4
5DF6  06                 string size (6)
5DF7  7461626C6500       "table\0"
                         const [70]: "table"
5DFD  01                 const type 3
5DFE  9D0C45E6           const [71]: (-431682403)
5E02  01                 const type 3
5E03  D3160129           const [72]: (687937235)
5E07  04                 const type 4
5E08  11                 string size (17)
5E09  616D62756C617353+  "ambulasS"
5E11  7061776E65724658+  "pawnerFX"
5E19  00                 "\0"
                         const [73]: "ambulasSpawnerFX"
5E1A  01                 const type 3
5E1B  73123990           const [74]: (-1875307917)
5E1F  04                 const type 4
5E20  12                 string size (18)
5E21  416D62756C617353+  "AmbulasS"
5E29  7061776E416C6172+  "pawnAlar"
5E31  6D00               "m\0"
                         const [75]: "AmbulasSpawnAlarm"
5E33  01                 const type 3
5E34  5EFDB1CD           const [76]: (-843973282)
5E38  01                 const type 3
5E39  4A4D59FB           const [77]: (-78033590)
5E3D  04                 const type 4
5E3E  13                 string size (19)
5E3F  416D62756C617342+  "AmbulasB"
5E47  6F73734C6173744F+  "ossLastO"
5E4F  6E6500             "ne\0"
                         const [78]: "AmbulasBossLastOne"
5E52  01                 const type 3
5E53  BD6A1BF1           const [79]: (-249861443)
5E57  01                 const type 3
5E58  BFB69FFD           const [80]: (-39864641)
5E5C  01                 const type 3
5E5D  99D60345           const [81]: (1157879449)
5E61  04                 const type 4
5E62  0F                 string size (15)
5E63  537061776E696E67+  "Spawning"
5E6B  20416464732000     " Adds \0"
                         const [82]: "Spawning Adds "
5E72  03                 const type 3
5E73  0000A040           const [83]: (0)
5E77  04                 const type 4
5E78  15                 string size (21)
5E79  4169722053747269+  "Air Stri"
5E81  6B65205374617274+  "ke Start"
5E89  696E672000         "ing \0"
                         const [84]: "Air Strike Starting "
5E8E  03                 const type 3
5E8F  6666663F           const [85]: (102)
5E93  04                 const type 4
5E94  11                 string size (17)
5E95  4361706974616C53+  "CapitalS"
5E9D  686970416C61726D+  "hipAlarm"
5EA5  00                 "\0"
                         const [86]: "CapitalShipAlarm"
5EA6  04                 const type 4
5EA7  19                 string size (25)
5EA8  416D62756C617342+  "AmbulasB"
5EB0  6F73734F72626974+  "ossOrbit"
5EB8  616C537472696B65+  "alStrike"
5EC0  00                 "\0"
                         const [87]: "AmbulasBossOrbitalStrike"
5EC1  04                 const type 4
5EC2  16                 string size (22)
5EC3  6D697373696C6542+  "missileB"
5ECB  6172726167655472+  "arrageTr"
5ED3  696767657200       "igger\0"
                         const [88]: "missileBarrageTrigger"
5ED9  03                 const type 3
5EDA  CDCCCC3E           const [89]: (-51)
5EDE  04                 const type 4
5EDF  14                 string size (20)
5EE0  6F72626974616C4C+  "orbitalL"
5EE8  6173657254726967+  "aserTrig"
5EF0  67657200           "ger\0"
                         const [90]: "orbitalLaserTrigger"
5EF4  03                 const type 3
5EF5  0000E040           const [91]: (0)
5EF9  04                 const type 4
5EFA  16                 string size (22)
5EFB  4C61756E6368696E+  "Launchin"
5F03  6720436172676F20+  "g Cargo "
5F0B  536869702100       "Ship!\0"
                         const [92]: "Launching Cargo Ship!"
5F11  04                 const type 4
5F12  14                 string size (20)
5F13  416D62756C617342+  "AmbulasB"
5F1B  6F737344726F7073+  "ossDrops"
5F23  68697000           "hip\0"
                         const [93]: "AmbulasBossDropship"
5F27  04                 const type 4
5F28  14                 string size (20)
5F29  436172676F536869+  "CargoShi"
5F31  70537061776E506F+  "pSpawnPo"
5F39  696E7400           "int\0"
                         const [94]: "CargoShipSpawnPoint"
5F3D  04                 const type 4
5F3E  06                 string size (6)
5F3F  526573657400       "Reset\0"
                         const [95]: "Reset"
5F45  03                 const type 3
5F46  00000041           const [96]: (0)
5F4A  04                 const type 4
5F4B  14                 string size (20)
5F4C  436172676F205368+  "Cargo Sh"
5F54  6970206172726976+  "ip arriv"
5F5C  65642000           "ed \0"
                         const [97]: "Cargo Ship arrived "
5F60  03                 const type 3
5F61  00002041           const [98]: (0)
5F65  01                 const type 3
5F66  1390280E           const [99]: (237539347)
5F6A  01                 const type 3
5F6B  6AE3F4C3           const [100]: (-1007361174)
5F6F  04                 const type 4
5F70  13                 string size (19)
5F71  74726163746F7242+  "tractorB"
5F79  65616D5472696767+  "eamTrigg"
5F81  657200             "er\0"
                         const [101]: "tractorBeamTrigger"
5F84  03                 const type 3
5F85  00003041           const [102]: (0)
5F89  03                 const type 3
5F8A  00004041           const [103]: (0)
5F8E  04                 const type 4
5F8F  17                 string size (23)
5F90  436172676F205368+  "Cargo Sh"
5F98  69702064656C6976+  "ip deliv"
5FA0  6572696E672000     "ering \0"
                         const [104]: "Cargo Ship delivering "
5FA7  03                 const type 3
5FA8  0000403F           const [105]: (0)
5FAC  04                 const type 4
5FAD  13                 string size (19)
5FAE  416D62756C617342+  "AmbulasB"
5FB6  6F73735069636B75+  "ossPicku"
5FBE  703100             "p1\0"
                         const [106]: "AmbulasBossPickup1"
5FC1  03                 const type 3
5FC2  0000003F           const [107]: (0)
5FC6  04                 const type 4
5FC7  13                 string size (19)
5FC8  416D62756C617342+  "AmbulasB"
5FD0  6F73735069636B75+  "ossPicku"
5FD8  703200             "p2\0"
                         const [108]: "AmbulasBossPickup2"
5FDB  03                 const type 3
5FDC  0000803E           const [109]: (0)
5FE0  04                 const type 4
5FE1  13                 string size (19)
5FE2  416D62756C617342+  "AmbulasB"
5FEA  6F73735069636B75+  "ossPicku"
5FF2  703300             "p3\0"
                         const [110]: "AmbulasBossPickup3"
5FF5  04                 const type 4
5FF6  13                 string size (19)
5FF7  416D62756C617342+  "AmbulasB"
5FFF  6F73735069636B75+  "ossPicku"
6007  703400             "p4\0"
                         const [111]: "AmbulasBossPickup4"
600A  04                 const type 4
600B  19                 string size (25)
600C  416D62756C617342+  "AmbulasB"
6014  6F73735069636B75+  "ossPicku"
601C  70566963746F7279+  "pVictory"
6024  00                 "\0"
                         const [112]: "AmbulasBossPickupVictory"
6025  04                 const type 4
6026  19                 string size (25)
6027  416D62756C617355+  "AmbulasU"
602F  6E6861636B656444+  "nhackedD"
6037  656C697665726564+  "elivered"
603F  00                 "\0"
                         const [113]: "AmbulasUnhackedDelivered"
6040  04                 const type 4
6041  16                 string size (22)
6042  43757272656E7420+  "Current "
604A  5368697020486561+  "Ship Hea"
6052  6C74683A2000       "lth: \0"
                         const [114]: "Current Ship Health: "
6058  03                 const type 3
6059  00005041           const [115]: (0)
605D  04                 const type 4
605E  14                 string size (20)
605F  436172676F205368+  "Cargo Sh"
6067  6970206C65617669+  "ip leavi"
606F  6E672000           "ng \0"
                         const [116]: "Cargo Ship leaving "
6073  03                 const type 3
6074  00006041           const [117]: (0)
6078  03                 const type 3
6079  6666263F           const [118]: (102)
607D  04                 const type 4
607E  15                 string size (21)
607F  416D62756C617342+  "AmbulasB"
6087  6F73734D69644669+  "ossMidFi"
608F  6768743100         "ght1\0"
                         const [119]: "AmbulasBossMidFight1"
6094  04                 const type 4
6095  15                 string size (21)
6096  416D62756C617342+  "AmbulasB"
609E  6F73734D69644669+  "ossMidFi"
60A6  6768743200         "ght2\0"
                         const [120]: "AmbulasBossMidFight2"
60AB  04                 const type 4
60AC  18                 string size (24)
60AD  64726F6E65546561+  "droneTea"
60B5  6D537061776E6572+  "mSpawner"
60BD  5472696767657200   "Trigger\0"
                         const [121]: "droneTeamSpawnerTrigger"
60C5  04                 const type 4
60C6  1B                 string size (27)
60C7  7365637572697479+  "security"
60CF  5465616D53706177+  "TeamSpaw"
60D7  6E65725472696767+  "nerTrigg"
60DF  657200             "er\0"
                         const [122]: "securityTeamSpawnerTrigger"
60E2  03                 const type 3
60E3  0000C642           const [123]: (0)
60E7  04                 const type 4
60E8  14                 string size (20)
60E9  416D62756C617342+  "AmbulasB"
60F1  6F7373566963746F+  "ossVicto"
60F9  72793400           "ry4\0"
                         const [124]: "AmbulasBossVictory4"
60FD  04                 const type 4
60FE  14                 string size (20)
60FF  416D62756C617342+  "AmbulasB"
6107  6F7373566963746F+  "ossVicto"
610F  72793300           "ry3\0"
                         const [125]: "AmbulasBossVictory3"
6113  04                 const type 4
6114  1B                 string size (27)
6115  6361706974616C53+  "capitalS"
611D  68697043696E4465+  "hipCinDe"
6125  6174685472696767+  "athTrigg"
612D  657200             "er\0"
                         const [126]: "capitalShipCinDeathTrigger"
6130  04                 const type 4
6131  0D                 string size (13)
6132  5374617274506C61+  "StartPla"
613A  79696E6700         "ying\0"
                         const [127]: "StartPlaying"
613F  03                 const type 3
6140  00007041           const [128]: (0)
6144  01                 const type 3
6145  ACF5F2FD           const [129]: (-34409044)
6149  04                 const type 4
614A  07                 string size (7)
614B  456E67696E6500     "Engine\0"
                         const [130]: "Engine"
6152  04                 const type 4
6153  15                 string size (21)
6154  47616D6552756C65+  "GameRule"
615C  735F47535F464149+  "s_GS_FAI"
6164  4C55524500         "LURE\0"
                         const [131]: "GameRules_GS_FAILURE"
6169  04                 const type 4
616A  13                 string size (19)
616B  416D62756C617342+  "AmbulasB"
6173  6F73734661696C75+  "ossFailu"
617B  726500             "re\0"
                         const [132]: "AmbulasBossFailure"
617E  04                 const type 4
617F  1B                 string size (27)
6180  6361706974616C53+  "capitalS"
6188  68697043696E4C65+  "hipCinLe"
6190  6176655472696767+  "aveTrigg"
6198  657200             "er\0"
                         const [133]: "capitalShipCinLeaveTrigger"
                         * functions:
619B  00                 sizep (0)
                         * lines:
619D  0A                 sizelineinfo (1286)
                         [pc] (line)
619E  11                 [0001] (17)
619F  03                 [0002] (17)
61A0  00                 [0003] (17)
61A1  00                 [0004] (17)
61A2  11                 [0005] (17)
61A3  03                 [0006] (18)
61A4  00                 [0007] (21)
61A5  00                 [0008] (21)
61A6  11                 [0009] (21)
61A7  03                 [0010] (21)
61A8  00                 [0011] (22)
61A9  00                 [0012] (22)
61AA  11                 [0013] (22)
61AB  03                 [0014] (25)
61AC  00                 [0015] (25)
61AD  00                 [0016] (25)
61AE  11                 [0017] (25)
61AF  03                 [0018] (25)
61B0  00                 [0019] (26)
61B1  00                 [0020] (26)
61B2  12                 [0021] (26)
61B3  03                 [0022] (27)
61B4  00                 [0023] (27)
61B5  00                 [0024] (27)
61B6  15                 [0025] (30)
61B7  03                 [0026] (30)
61B8  00                 [0027] (30)
61B9  00                 [0028] (31)
61BA  15                 [0029] (31)
61BB  03                 [0030] (31)
61BC  00                 [0031] (31)
61BD  00                 [0032] (33)
61BE  15                 [0033] (33)
61BF  03                 [0034] (33)
61C0  00                 [0035] (33)
61C1  00                 [0036] (33)
61C2  15                 [0037] (34)
61C3  03                 [0038] (34)
61C4  00                 [0039] (34)
61C5  00                 [0040] (36)
61C6  16                 [0041] (36)
61C7  03                 [0042] (37)
61C8  00                 [0043] (37)
61C9  00                 [0044] (37)
61CA  16                 [0045] (37)
61CB  03                 [0046] (37)
61CC  00                 [0047] (39)
61CD  00                 [0048] (39)
61CE  16                 [0049] (39)
61CF  03                 [0050] (39)
61D0  00                 [0051] (40)
61D1  00                 [0052] (40)
61D2  19                 [0053] (41)
61D3  03                 [0054] (44)
61D4  00                 [0055] (44)
61D5  00                 [0056] (44)
61D6  19                 [0057] (44)
61D7  03                 [0058] (44)
61D8  00                 [0059] (45)
61D9  00                 [0060] (45)
61DA  19                 [0061] (45)
61DB  03                 [0062] (45)
61DC  00                 [0063] (45)
61DD  00                 [0064] (46)
61DE  19                 [0065] (46)
61DF  03                 [0066] (46)
61E0  00                 [0067] (46)
61E1  00                 [0068] (46)
61E2  19                 [0069] (47)
61E3  03                 [0070] (47)
61E4  00                 [0071] (47)
61E5  00                 [0072] (47)
61E6  1A                 [0073] (47)
61E7  03                 [0074] (48)
61E8  00                 [0075] (48)
61E9  00                 [0076] (48)
61EA  1A                 [0077] (48)
61EB  03                 [0078] (48)
61EC  00                 [0079] (49)
61ED  00                 [0080] (49)
61EE  1A                 [0081] (49)
61EF  03                 [0082] (49)
61F0  00                 [0083] (49)
61F1  00                 [0084] (50)
61F2  1B                 [0085] (50)
61F3  03                 [0086] (50)
61F4  00                 [0087] (50)
61F5  00                 [0088] (50)
61F6  1B                 [0089] (51)
61F7  03                 [0090] (51)
61F8  00                 [0091] (51)
61F9  00                 [0092] (51)
61FA  1B                 [0093] (51)
61FB  03                 [0094] (52)
61FC  00                 [0095] (52)
61FD  00                 [0096] (52)
61FE  1E                 [0097] (52)
61FF  03                 [0098] (52)
6200  00                 [0099] (54)
6201  00                 [0100] (54)
6202  1E                 [0101] (54)
6203  03                 [0102] (54)
6204  00                 [0103] (56)
6205  00                 [0104] (56)
6206  1E                 [0105] (56)
6207  03                 [0106] (56)
6208  00                 [0107] (56)
6209  00                 [0108] (56)
620A  1F                 [0109] (56)
620B  03                 [0110] (56)
620C  00                 [0111] (57)
620D  00                 [0112] (57)
620E  1F                 [0113] (57)
620F  03                 [0114] (57)
6210  00                 [0115] (58)
6211  00                 [0116] (58)
6212  1F                 [0117] (58)
6213  03                 [0118] (58)
6214  00                 [0119] (58)
6215  00                 [0120] (58)
6216  1F                 [0121] (58)
6217  03                 [0122] (58)
6218  00                 [0123] (58)
6219  00                 [0124] (58)
621A  21                 [0125] (58)
621B  03                 [0126] (58)
621C  00                 [0127] (58)
621D  00                 [0128] (58)
621E  21                 [0129] (58)
621F  03                 [0130] (58)
6220  00                 [0131] (59)
6221  00                 [0132] (59)
6222  21                 [0133] (59)
6223  03                 [0134] (57)
6224  00                 [0135] (61)
6225  00                 [0136] (63)
6226  21                 [0137] (63)
6227  03                 [0138] (63)
6228  00                 [0139] (64)
6229  00                 [0140] (64)
622A  21                 [0141] (64)
622B  03                 [0142] (66)
622C  00                 [0143] (66)
622D  00                 [0144] (66)
622E  22                 [0145] (66)
622F  03                 [0146] (66)
6230  00                 [0147] (66)
6231  00                 [0148] (67)
6232  22                 [0149] (67)
6233  03                 [0150] (67)
6234  00                 [0151] (67)
6235  00                 [0152] (68)
6236  22                 [0153] (68)
6237  03                 [0154] (68)
6238  00                 [0155] (68)
6239  00                 [0156] (68)
623A  24                 [0157] (69)
623B  03                 [0158] (69)
623C  00                 [0159] (69)
623D  00                 [0160] (69)
623E  24                 [0161] (69)
623F  03                 [0162] (69)
6240  00                 [0163] (69)
6241  00                 [0164] (69)
6242  25                 [0165] (69)
6243  03                 [0166] (69)
6244  00                 [0167] (69)
6245  00                 [0168] (69)
6246  25                 [0169] (69)
6247  03                 [0170] (70)
6248  00                 [0171] (70)
6249  00                 [0172] (71)
624A  25                 [0173] (71)
624B  03                 [0174] (71)
624C  00                 [0175] (71)
624D  00                 [0176] (71)
624E  25                 [0177] (72)
624F  03                 [0178] (72)
6250  00                 [0179] (72)
6251  00                 [0180] (72)
6252  25                 [0181] (73)
6253  03                 [0182] (73)
6254  00                 [0183] (73)
6255  00                 [0184] (73)
6256  27                 [0185] (73)
6257  03                 [0186] (74)
6258  00                 [0187] (74)
6259  00                 [0188] (74)
625A  27                 [0189] (74)
625B  03                 [0190] (74)
625C  00                 [0191] (74)
625D  00                 [0192] (74)
625E  27                 [0193] (74)
625F  03                 [0194] (74)
6260  00                 [0195] (77)
6261  00                 [0196] (77)
6262  27                 [0197] (77)
6263  03                 [0198] (77)
6264  00                 [0199] (77)
6265  00                 [0200] (78)
6266  28                 [0201] (78)
6267  03                 [0202] (80)
6268  00                 [0203] (82)
6269  00                 [0204] (82)
626A  28                 [0205] (82)
626B  03                 [0206] (82)
626C  00                 [0207] (82)
626D  00                 [0208] (83)
626E  29                 [0209] (83)
626F  03                 [0210] (83)
6270  00                 [0211] (83)
6271  00                 [0212] (84)
6272  2C                 [0213] (84)
6273  03                 [0214] (84)
6274  00                 [0215] (84)
6275  00                 [0216] (84)
6276  2C                 [0217] (85)
6277  03                 [0218] (85)
6278  00                 [0219] (85)
6279  00                 [0220] (85)
627A  2C                 [0221] (85)
627B  03                 [0222] (85)
627C  00                 [0223] (85)
627D  00                 [0224] (85)
627E  2C                 [0225] (85)
627F  03                 [0226] (88)
6280  00                 [0227] (88)
6281  00                 [0228] (88)
6282  2C                 [0229] (88)
6283  03                 [0230] (88)
6284  00                 [0231] (89)
6285  00                 [0232] (89)
6286  2D                 [0233] (67)
6287  03                 [0234] (95)
6288  00                 [0235] (95)
6289  00                 [0236] (95)
628A  2D                 [0237] (95)
628B  03                 [0238] (95)
628C  00                 [0239] (95)
628D  00                 [0240] (95)
628E  2D                 [0241] (95)
628F  03                 [0242] (95)
6290  00                 [0243] (95)
6291  00                 [0244] (95)
6292  2D                 [0245] (96)
6293  03                 [0246] (96)
6294  00                 [0247] (96)
6295  00                 [0248] (96)
6296  2D                 [0249] (101)
6297  03                 [0250] (101)
6298  00                 [0251] (101)
6299  00                 [0252] (101)
629A  2E                 [0253] (101)
629B  03                 [0254] (101)
629C  00                 [0255] (101)
629D  00                 [0256] (101)
629E  2E                 [0257] (101)
629F  03                 [0258] (101)
62A0  00                 [0259] (101)
62A1  00                 [0260] (101)
62A2  2E                 [0261] (101)
62A3  03                 [0262] (103)
62A4  00                 [0263] (103)
62A5  00                 [0264] (104)
62A6  2E                 [0265] (104)
62A7  03                 [0266] (105)
62A8  00                 [0267] (105)
62A9  00                 [0268] (106)
62AA  2E                 [0269] (106)
62AB  03                 [0270] (107)
62AC  00                 [0271] (107)
62AD  00                 [0272] (108)
62AE  2F                 [0273] (108)
62AF  03                 [0274] (109)
62B0  00                 [0275] (109)
62B1  00                 [0276] (111)
62B2  2F                 [0277] (111)
62B3  03                 [0278] (111)
62B4  00                 [0279] (111)
62B5  00                 [0280] (111)
62B6  2F                 [0281] (111)
62B7  03                 [0282] (111)
62B8  00                 [0283] (111)
62B9  00                 [0284] (111)
62BA  2F                 [0285] (113)
62BB  03                 [0286] (113)
62BC  00                 [0287] (113)
62BD  00                 [0288] (113)
62BE  2F                 [0289] (113)
62BF  03                 [0290] (114)
62C0  00                 [0291] (114)
62C1  00                 [0292] (114)
62C2  30                 [0293] (114)
62C3  03                 [0294] (114)
62C4  00                 [0295] (116)
62C5  00                 [0296] (116)
62C6  30                 [0297] (116)
62C7  03                 [0298] (116)
62C8  00                 [0299] (117)
62C9  00                 [0300] (117)
62CA  30                 [0301] (117)
62CB  03                 [0302] (117)
62CC  00                 [0303] (116)
62CD  00                 [0304] (119)
62CE  30                 [0305] (119)
62CF  03                 [0306] (119)
62D0  00                 [0307] (119)
62D1  00                 [0308] (119)
62D2  30                 [0309] (121)
62D3  03                 [0310] (121)
62D4  00                 [0311] (121)
62D5  00                 [0312] (121)
62D6  31                 [0313] (121)
62D7  03                 [0314] (121)
62D8  00                 [0315] (121)
62D9  00                 [0316] (121)
62DA  31                 [0317] (121)
62DB  03                 [0318] (121)
62DC  00                 [0319] (121)
62DD  00                 [0320] (121)
62DE  31                 [0321] (121)
62DF  03                 [0322] (121)
62E0  00                 [0323] (121)
62E1  00                 [0324] (125)
62E2  31                 [0325] (125)
62E3  03                 [0326] (125)
62E4  00                 [0327] (125)
62E5  00                 [0328] (125)
62E6  31                 [0329] (125)
62E7  03                 [0330] (126)
62E8  00                 [0331] (127)
62E9  00                 [0332] (127)
62EA  32                 [0333] (127)
62EB  03                 [0334] (127)
62EC  00                 [0335] (127)
62ED  00                 [0336] (-128)
62EE  32                 [0337] (-128)
62EF  03                 [0338] (-128)
62F0  00                 [0339] (-128)
62F1  00                 [0340] (-128)
62F2  32                 [0341] (-125)
62F3  03                 [0342] (-125)
62F4  00                 [0343] (-123)
62F5  00                 [0344] (-123)
62F6  32                 [0345] (-123)
62F7  03                 [0346] (-121)
62F8  00                 [0347] (-121)
62F9  00                 [0348] (-120)
62FA  32                 [0349] (-120)
62FB  03                 [0350] (-120)
62FC  00                 [0351] (-120)
62FD  00                 [0352] (-120)
62FE  33                 [0353] (-118)
62FF  03                 [0354] (-118)
6300  00                 [0355] (-118)
6301  00                 [0356] (-118)
6302  33                 [0357] (-117)
6303  03                 [0358] (-117)
6304  00                 [0359] (-117)
6305  00                 [0360] (-117)
6306  33                 [0361] (-116)
6307  03                 [0362] (-116)
6308  00                 [0363] (-116)
6309  00                 [0364] (-115)
630A  33                 [0365] (-115)
630B  03                 [0366] (-115)
630C  00                 [0367] (-115)
630D  00                 [0368] (-115)
630E  33                 [0369] (-115)
630F  03                 [0370] (-115)
6310  00                 [0371] (-115)
6311  00                 [0372] (-115)
6312  34                 [0373] (-115)
6313  03                 [0374] (-115)
6314  00                 [0375] (-115)
6315  00                 [0376] (-117)
6316  34                 [0377] (-111)
6317  03                 [0378] (-111)
6318  00                 [0379] (-111)
6319  00                 [0380] (-109)
631A  34                 [0381] (-107)
631B  03                 [0382] (-107)
631C  00                 [0383] (-106)
631D  00                 [0384] (-106)
631E  34                 [0385] (-105)
631F  03                 [0386] (-104)
6320  00                 [0387] (-103)
6321  00                 [0388] (-103)
6322  34                 [0389] (-102)
6323  03                 [0390] (-102)
6324  00                 [0391] (-101)
6325  00                 [0392] (-100)
6326  36                 [0393] (-99)
6327  03                 [0394] (-99)
6328  00                 [0395] (-98)
6329  00                 [0396] (-98)
632A  36                 [0397] (-97)
632B  03                 [0398] (-96)
632C  00                 [0399] (-95)
632D  00                 [0400] (-95)
632E  36                 [0401] (-94)
632F  03                 [0402] (-94)
6330  00                 [0403] (-93)
6331  00                 [0404] (-89)
6332  36                 [0405] (-86)
6333  03                 [0406] (-85)
6334  00                 [0407] (-84)
6335  00                 [0408] (-84)
6336  38                 [0409] (-84)
6337  03                 [0410] (-84)
6338  00                 [0411] (-82)
6339  00                 [0412] (-82)
633A  38                 [0413] (-82)
633B  03                 [0414] (-82)
633C  00                 [0415] (-82)
633D  00                 [0416] (-81)
633E  38                 [0417] (-81)
633F  03                 [0418] (-81)
6340  00                 [0419] (-81)
6341  00                 [0420] (-81)
6342  38                 [0421] (-81)
6343  03                 [0422] (-82)
6344  00                 [0423] (-78)
6345  00                 [0424] (-78)
6346  38                 [0425] (-77)
6347  03                 [0426] (-77)
6348  00                 [0427] (-77)
6349  00                 [0428] (-77)
634A  38                 [0429] (-77)
634B  03                 [0430] (-76)
634C  00                 [0431] (-76)
634D  00                 [0432] (-76)
634E  38                 [0433] (-76)
634F  03                 [0434] (-76)
6350  00                 [0435] (-75)
6351  00                 [0436] (-74)
6352  38                 [0437] (-74)
6353  03                 [0438] (-74)
6354  00                 [0439] (-74)
6355  00                 [0440] (-72)
6356  39                 [0441] (-72)
6357  03                 [0442] (-72)
6358  00                 [0443] (-72)
6359  00                 [0444] (-72)
635A  39                 [0445] (-72)
635B  03                 [0446] (-71)
635C  00                 [0447] (-71)
635D  00                 [0448] (-71)
635E  39                 [0449] (-71)
635F  03                 [0450] (-71)
6360  00                 [0451] (-70)
6361  00                 [0452] (-70)
6362  39                 [0453] (-68)
6363  03                 [0454] (-68)
6364  00                 [0455] (-68)
6365  00                 [0456] (-68)
6366  3A                 [0457] (-68)
6367  03                 [0458] (-67)
6368  00                 [0459] (-67)
6369  00                 [0460] (-67)
636A  3A                 [0461] (-67)
636B  03                 [0462] (-67)
636C  00                 [0463] (-66)
636D  00                 [0464] (-65)
636E  3A                 [0465] (-62)
636F  03                 [0466] (-62)
6370  00                 [0467] (-62)
6371  00                 [0468] (-60)
6372  3A                 [0469] (-60)
6373  03                 [0470] (-60)
6374  00                 [0471] (-57)
6375  00                 [0472] (-57)
6376  3A                 [0473] (-56)
6377  03                 [0474] (-56)
6378  00                 [0475] (-56)
6379  00                 [0476] (-56)
637A  3A                 [0477] (-56)
637B  03                 [0478] (-56)
637C  00                 [0479] (-56)
637D  00                 [0480] (-56)
637E  3A                 [0481] (-56)
637F  03                 [0482] (-52)
6380  00                 [0483] (-52)
6381  00                 [0484] (-52)
6382  3A                 [0485] (-52)
6383  03                 [0486] (-52)
6384  00                 [0487] (-51)
6385  00                 [0488] (-51)
6386  3A                 [0489] (-51)
6387  03                 [0490] (-51)
6388  00                 [0491] (-51)
6389  00                 [0492] (-51)
638A  3A                 [0493] (-51)
638B  03                 [0494] (-51)
638C  00                 [0495] (-51)
638D  00                 [0496] (-51)
638E  3A                 [0497] (-50)
638F  03                 [0498] (-50)
6390  00                 [0499] (-50)
6391  00                 [0500] (-50)
6392  3A                 [0501] (-50)
6393  03                 [0502] (-49)
6394  00                 [0503] (-49)
6395  00                 [0504] (-49)
6396  3A                 [0505] (-49)
6397  03                 [0506] (-49)
6398  00                 [0507] (-49)
6399  00                 [0508] (-49)
639A  3A                 [0509] (-49)
639B  03                 [0510] (-49)
639C  00                 [0511] (-49)
639D  00                 [0512] (-48)
639E  3A                 [0513] (-48)
639F  03                 [0514] (-48)
63A0  00                 [0515] (-48)
63A1  00                 [0516] (-48)
63A2  3A                 [0517] (-45)
63A3  03                 [0518] (-45)
63A4  00                 [0519] (-45)
63A5  00                 [0520] (-45)
63A6  3B                 [0521] (-41)
63A7  03                 [0522] (-41)
63A8  00                 [0523] (-40)
63A9  00                 [0524] (-40)
63AA  3B                 [0525] (-40)
63AB  03                 [0526] (-40)
63AC  00                 [0527] (-40)
63AD  00                 [0528] (-40)
63AE  3B                 [0529] (-39)
63AF  03                 [0530] (-39)
63B0  00                 [0531] (-39)
63B1  00                 [0532] (-39)
63B2  39                 [0533] (-39)
63B3  03                 [0534] (-37)
63B4  00                 [0535] (-37)
63B5  00                 [0536] (-37)
63B6  3D                 [0537] (-37)
63B7  03                 [0538] (-37)
63B8  00                 [0539] (-37)
63B9  00                 [0540] (-36)
63BA  3F                 [0541] (-36)
63BB  03                 [0542] (-36)
63BC  00                 [0543] (-34)
63BD  00                 [0544] (-34)
63BE  3F                 [0545] (-33)
63BF  03                 [0546] (-33)
63C0  00                 [0547] (-33)
63C1  00                 [0548] (-33)
63C2  3F                 [0549] (-32)
63C3  03                 [0550] (-32)
63C4  00                 [0551] (-32)
63C5  00                 [0552] (-32)
63C6  40                 [0553] (-32)
63C7  03                 [0554] (-31)
63C8  00                 [0555] (-31)
63C9  00                 [0556] (-31)
63CA  40                 [0557] (-31)
63CB  03                 [0558] (-31)
63CC  00                 [0559] (-30)
63CD  00                 [0560] (-29)
63CE  40                 [0561] (-29)
63CF  03                 [0562] (-29)
63D0  00                 [0563] (-29)
63D1  00                 [0564] (-29)
63D2  42                 [0565] (-28)
63D3  03                 [0566] (-28)
63D4  00                 [0567] (-28)
63D5  00                 [0568] (-28)
63D6  42                 [0569] (-27)
63D7  03                 [0570] (-33)
63D8  00                 [0571] (-23)
63D9  00                 [0572] (-23)
63DA  42                 [0573] (-23)
63DB  03                 [0574] (-23)
63DC  00                 [0575] (-23)
63DD  00                 [0576] (-23)
63DE  42                 [0577] (-22)
63DF  03                 [0578] (-18)
63E0  00                 [0579] (-18)
63E1  00                 [0580] (-18)
63E2  42                 [0581] (-18)
63E3  03                 [0582] (-14)
63E4  00                 [0583] (-14)
63E5  00                 [0584] (-13)
63E6  42                 [0585] (-13)
63E7  03                 [0586] (-13)
63E8  00                 [0587] (-10)
63E9  00                 [0588] (-10)
63EA  43                 [0589] (-10)
63EB  03                 [0590] (-10)
63EC  00                 [0591] (-10)
63ED  00                 [0592] (-10)
63EE  43                 [0593] (-10)
63EF  03                 [0594] (-9)
63F0  00                 [0595] (-9)
63F1  00                 [0596] (-9)
63F2  43                 [0597] (-9)
63F3  03                 [0598] (-6)
63F4  00                 [0599] (-6)
63F5  00                 [0600] (-6)
63F6  43                 [0601] (-6)
63F7  03                 [0602] (-2)
63F8  00                 [0603] (-2)
63F9  00                 [0604] (-1)
63FA  44                 [0605] (-1)
63FB  03                 [0606] (-1)
63FC  00                 [0607] (-1)
63FD  00                 [0608] (-1)
63FE  44                 [0609] (-1)
63FF  03                 [0610] (0)
6400  00                 [0611] (0)
6401  00                 [0612] (0)
6402  44                 [0613] (0)
6403  03                 [0614] (2)
6404  00                 [0615] (2)
6405  00                 [0616] (2)
6406  44                 [0617] (2)
6407  03                 [0618] (6)
6408  00                 [0619] (6)
6409  00                 [0620] (7)
640A  44                 [0621] (7)
640B  03                 [0622] (7)
640C  00                 [0623] (8)
640D  00                 [0624] (8)
640E  45                 [0625] (10)
640F  03                 [0626] (10)
6410  00                 [0627] (10)
6411  00                 [0628] (10)
6412  45                 [0629] (10)
6413  03                 [0630] (10)
6414  00                 [0631] (11)
6415  00                 [0632] (11)
6416  45                 [0633] (11)
6417  03                 [0634] (11)
6418  00                 [0635] (11)
6419  00                 [0636] (12)
641A  45                 [0637] (12)
641B  03                 [0638] (17)
641C  00                 [0639] (17)
641D  00                 [0640] (17)
641E  45                 [0641] (17)
641F  03                 [0642] (17)
6420  00                 [0643] (17)
6421  00                 [0644] (17)
6422  45                 [0645] (17)
6423  03                 [0646] (17)
6424  00                 [0647] (19)
6425  00                 [0648] (19)
6426  45                 [0649] (20)
6427  03                 [0650] (20)
6428  00                 [0651] (20)
6429  00                 [0652] (20)
642A  45                 [0653] (20)
642B  03                 [0654] (22)
642C  00                 [0655] (22)
642D  00                 [0656] (23)
642E  45                 [0657] (23)
642F  03                 [0658] (23)
6430  00                 [0659] (23)
6431  00                 [0660] (23)
6432  45                 [0661] (25)
6433  03                 [0662] (25)
6434  00                 [0663] (25)
6435  00                 [0664] (25)
6436  45                 [0665] (26)
6437  03                 [0666] (26)
6438  00                 [0667] (26)
6439  00                 [0668] (26)
643A  45                 [0669] (31)
643B  03                 [0670] (31)
643C  00                 [0671] (31)
643D  00                 [0672] (31)
643E  45                 [0673] (35)
643F  03                 [0674] (35)
6440  00                 [0675] (36)
6441  00                 [0676] (36)
6442  46                 [0677] (36)
6443  03                 [0678] (36)
6444  00                 [0679] (36)
6445  00                 [0680] (36)
6446  46                 [0681] (37)
6447  03                 [0682] (37)
6448  00                 [0683] (37)
6449  00                 [0684] (37)
644A  47                 [0685] (39)
644B  03                 [0686] (39)
644C  00                 [0687] (39)
644D  00                 [0688] (39)
644E  47                 [0689] (43)
644F  03                 [0690] (43)
6450  00                 [0691] (45)
6451  00                 [0692] (45)
6452  47                 [0693] (45)
6453  03                 [0694] (46)
6454  00                 [0695] (46)
6455  00                 [0696] (46)
6456  47                 [0697] (46)
6457  03                 [0698] (53)
6458  00                 [0699] (53)
6459  00                 [0700] (53)
645A  47                 [0701] (53)
645B  03                 [0702] (53)
645C  00                 [0703] (53)
645D  00                 [0704] (53)
645E  48                 [0705] (53)
645F  03                 [0706] (53)
6460  00                 [0707] (56)
6461  00                 [0708] (56)
6462  48                 [0709] (56)
6463  03                 [0710] (56)
6464  00                 [0711] (58)
6465  00                 [0712] (58)
6466  48                 [0713] (58)
6467  03                 [0714] (58)
6468  00                 [0715] (62)
6469  00                 [0716] (62)
646A  48                 [0717] (63)
646B  03                 [0718] (63)
646C  00                 [0719] (63)
646D  00                 [0720] (63)
646E  49                 [0721] (63)
646F  03                 [0722] (63)
6470  00                 [0723] (64)
6471  00                 [0724] (64)
6472  49                 [0725] (64)
6473  03                 [0726] (64)
6474  00                 [0727] (66)
6475  00                 [0728] (66)
6476  49                 [0729] (66)
6477  03                 [0730] (66)
6478  00                 [0731] (70)
6479  00                 [0732] (70)
647A  49                 [0733] (73)
647B  03                 [0734] (73)
647C  00                 [0735] (73)
647D  00                 [0736] (75)
647E  49                 [0737] (75)
647F  03                 [0738] (75)
6480  00                 [0739] (75)
6481  00                 [0740] (75)
6482  4A                 [0741] (75)
6483  03                 [0742] (76)
6484  00                 [0743] (76)
6485  00                 [0744] (76)
6486  4A                 [0745] (76)
6487  03                 [0746] (79)
6488  00                 [0747] (79)
6489  00                 [0748] (79)
648A  4A                 [0749] (79)
648B  03                 [0750] (83)
648C  00                 [0751] (83)
648D  00                 [0752] (85)
648E  4A                 [0753] (85)
648F  03                 [0754] (85)
6490  00                 [0755] (85)
6491  00                 [0756] (86)
6492  4A                 [0757] (86)
6493  03                 [0758] (86)
6494  00                 [0759] (86)
6495  00                 [0760] (86)
6496  4A                 [0761] (88)
6497  03                 [0762] (88)
6498  00                 [0763] (88)
6499  00                 [0764] (88)
649A  4A                 [0765] (90)
649B  03                 [0766] (90)
649C  00                 [0767] (90)
649D  00                 [0768] (90)
649E  4A                 [0769] (94)
649F  03                 [0770] (94)
64A0  00                 [0771] (95)
64A1  00                 [0772] (95)
64A2  4A                 [0773] (95)
64A3  03                 [0774] (95)
64A4  00                 [0775] (95)
64A5  00                 [0776] (95)
64A6  4D                 [0777] (95)
64A7  03                 [0778] (96)
64A8  00                 [0779] (96)
64A9  00                 [0780] (96)
64AA  4D                 [0781] (96)
64AB  03                 [0782] (98)
64AC  00                 [0783] (98)
64AD  00                 [0784] (98)
64AE  4D                 [0785] (98)
64AF  03                 [0786] (102)
64B0  00                 [0787] (102)
64B1  00                 [0788] (104)
64B2  4D                 [0789] (104)
64B3  03                 [0790] (104)
64B4  00                 [0791] (105)
64B5  00                 [0792] (105)
64B6  4D                 [0793] (105)
64B7  03                 [0794] (105)
64B8  00                 [0795] (105)
64B9  00                 [0796] (106)
64BA  4E                 [0797] (106)
64BB  03                 [0798] (107)
64BC  00                 [0799] (107)
64BD  00                 [0800] (107)
64BE  4E                 [0801] (107)
64BF  03                 [0802] (108)
64C0  00                 [0803] (108)
64C1  00                 [0804] (108)
64C2  50                 [0805] (108)
64C3  03                 [0806] (109)
64C4  00                 [0807] (109)
64C5  00                 [0808] (109)
64C6  52                 [0809] (110)
64C7  03                 [0810] (110)
64C8  00                 [0811] (110)
64C9  00                 [0812] (110)
64CA  52                 [0813] (110)
64CB  03                 [0814] (110)
64CC  00                 [0815] (110)
64CD  00                 [0816] (110)
64CE  52                 [0817] (110)
64CF  03                 [0818] (110)
64D0  00                 [0819] (110)
64D1  00                 [0820] (110)
64D2  52                 [0821] (108)
64D3  03                 [0822] (113)
64D4  00                 [0823] (115)
64D5  00                 [0824] (115)
64D6  52                 [0825] (116)
64D7  03                 [0826] (119)
64D8  00                 [0827] (119)
64D9  00                 [0828] (119)
64DA  53                 [0829] (119)
64DB  03                 [0830] (119)
64DC  00                 [0831] (121)
64DD  00                 [0832] (122)
64DE  53                 [0833] (122)
64DF  03                 [0834] (122)
64E0  00                 [0835] (122)
64E1  00                 [0836] (122)
64E2  53                 [0837] (124)
64E3  03                 [0838] (124)
64E4  00                 [0839] (124)
64E5  00                 [0840] (124)
64E6  53                 [0841] (125)
64E7  03                 [0842] (125)
64E8  00                 [0843] (125)
64E9  00                 [0844] (125)
64EA  54                 [0845] (125)
64EB  03                 [0846] (125)
64EC  00                 [0847] (125)
64ED  00                 [0848] (125)
64EE  54                 [0849] (125)
64EF  03                 [0850] (126)
64F0  00                 [0851] (126)
64F1  00                 [0852] (126)
64F2  54                 [0853] (126)
64F3  03                 [0854] (126)
64F4  00                 [0855] (126)
64F5  00                 [0856] (127)
64F6  54                 [0857] (127)
64F7  03                 [0858] (127)
64F8  00                 [0859] (127)
64F9  00                 [0860] (127)
64FA  54                 [0861] (127)
64FB  03                 [0862] (-128)
64FC  00                 [0863] (-128)
64FD  00                 [0864] (-128)
64FE  55                 [0865] (-128)
64FF  03                 [0866] (-128)
6500  00                 [0867] (-128)
6501  00                 [0868] (-128)
6502  55                 [0869] (-128)
6503  03                 [0870] (-128)
6504  00                 [0871] (-127)
6505  00                 [0872] (-127)
6506  55                 [0873] (-127)
6507  03                 [0874] (-127)
6508  00                 [0875] (-127)
6509  00                 [0876] (-127)
650A  55                 [0877] (-126)
650B  03                 [0878] (-126)
650C  00                 [0879] (-126)
650D  00                 [0880] (-126)
650E  55                 [0881] (-126)
650F  03                 [0882] (-126)
6510  00                 [0883] (-125)
6511  00                 [0884] (-125)
6512  55                 [0885] (-125)
6513  03                 [0886] (-125)
6514  00                 [0887] (-125)
6515  00                 [0888] (-125)
6516  55                 [0889] (-125)
6517  03                 [0890] (-125)
6518  00                 [0891] (-125)
6519  00                 [0892] (-124)
651A  55                 [0893] (-124)
651B  03                 [0894] (-124)
651C  00                 [0895] (-124)
651D  00                 [0896] (-124)
651E  55                 [0897] (-124)
651F  03                 [0898] (-123)
6520  00                 [0899] (-123)
6521  00                 [0900] (-123)
6522  58                 [0901] (-123)
6523  03                 [0902] (-123)
6524  00                 [0903] (-123)
6525  00                 [0904] (-122)
6526  58                 [0905] (-122)
6527  03                 [0906] (-122)
6528  00                 [0907] (-122)
6529  00                 [0908] (-122)
652A  58                 [0909] (-122)
652B  03                 [0910] (-122)
652C  00                 [0911] (-122)
652D  00                 [0912] (-122)
652E  58                 [0913] (-121)
652F  03                 [0914] (-121)
6530  00                 [0915] (-121)
6531  00                 [0916] (-121)
6532  58                 [0917] (-121)
6533  03                 [0918] (-121)
6534  00                 [0919] (-120)
6535  00                 [0920] (-120)
6536  59                 [0921] (-120)
6537  03                 [0922] (-120)
6538  00                 [0923] (-120)
6539  00                 [0924] (-120)
653A  59                 [0925] (-119)
653B  03                 [0926] (-119)
653C  00                 [0927] (-119)
653D  00                 [0928] (-119)
653E  43                 [0929] (-119)
653F  03                 [0930] (-119)
6540  00                 [0931] (-119)
6541  00                 [0932] (-119)
6542  5F                 [0933] (-119)
6543  03                 [0934] (-118)
6544  00                 [0935] (-118)
6545  00                 [0936] (-118)
6546  5F                 [0937] (-118)
6547  03                 [0938] (-118)
6548  00                 [0939] (-118)
6549  00                 [0940] (-117)
654A  5F                 [0941] (-117)
654B  03                 [0942] (-116)
654C  00                 [0943] (-116)
654D  00                 [0944] (-116)
654E  5F                 [0945] (-116)
654F  03                 [0946] (-116)
6550  00                 [0947] (-116)
6551  00                 [0948] (-116)
6552  5F                 [0949] (-116)
6553  03                 [0950] (-116)
6554  00                 [0951] (-115)
6555  00                 [0952] (-113)
6556  5F                 [0953] (-113)
6557  03                 [0954] (-113)
6558  00                 [0955] (-113)
6559  00                 [0956] (-112)
655A  5F                 [0957] (-112)
655B  03                 [0958] (-111)
655C  00                 [0959] (-111)
655D  00                 [0960] (-111)
655E  5F                 [0961] (-111)
655F  03                 [0962] (-111)
6560  00                 [0963] (-111)
6561  00                 [0964] (-111)
6562  5F                 [0965] (-111)
6563  03                 [0966] (-111)
6564  00                 [0967] (-106)
6565  00                 [0968] (-105)
6566  5F                 [0969] (-105)
6567  03                 [0970] (-105)
6568  00                 [0971] (-105)
6569  00                 [0972] (-105)
656A  5F                 [0973] (-103)
656B  03                 [0974] (-103)
656C  00                 [0975] (-103)
656D  00                 [0976] (-103)
656E  60                 [0977] (-101)
656F  03                 [0978] (-101)
6570  00                 [0979] (-101)
6571  00                 [0980] (-101)
6572  60                 [0981] (-101)
6573  03                 [0982] (-100)
6574  00                 [0983] (-100)
6575  00                 [0984] (-100)
6576  60                 [0985] (-100)
6577  03                 [0986] (-96)
6578  00                 [0987] (-96)
6579  00                 [0988] (-94)
657A  60                 [0989] (-94)
657B  03                 [0990] (-94)
657C  00                 [0991] (-92)
657D  00                 [0992] (-92)
657E  65                 [0993] (-92)
657F  03                 [0994] (-92)
6580  00                 [0995] (-92)
6581  00                 [0996] (-92)
6582  65                 [0997] (-91)
6583  03                 [0998] (-91)
6584  00                 [0999] (-91)
6585  00                 [1000] (-91)
6586  65                 [1001] (-88)
6587  03                 [1002] (-88)
6588  00                 [1003] (-88)
6589  00                 [1004] (-88)
658A  65                 [1005] (-84)
658B  03                 [1006] (-84)
658C  00                 [1007] (-84)
658D  00                 [1008] (-84)
658E  65                 [1009] (-84)
658F  03                 [1010] (-84)
6590  00                 [1011] (-84)
6591  00                 [1012] (-84)
6592  65                 [1013] (-84)
6593  03                 [1014] (-84)
6594  00                 [1015] (-84)
6595  00                 [1016] (-84)
6596  65                 [1017] (-84)
6597  03                 [1018] (-84)
6598  00                 [1019] (-84)
6599  00                 [1020] (-84)
659A  65                 [1021] (-84)
659B  03                 [1022] (-81)
659C  00                 [1023] (-81)
659D  00                 [1024] (-80)
659E  65                 [1025] (-80)
659F  03                 [1026] (-80)
65A0  00                 [1027] (-80)
65A1  00                 [1028] (-80)
65A2  65                 [1029] (-80)
65A3  03                 [1030] (-79)
65A4  00                 [1031] (-79)
65A5  00                 [1032] (-78)
65A6  65                 [1033] (-78)
65A7  03                 [1034] (-78)
65A8  00                 [1035] (-78)
65A9  00                 [1036] (-78)
65AA  65                 [1037] (-78)
65AB  03                 [1038] (-78)
65AC  00                 [1039] (-77)
65AD  00                 [1040] (-77)
65AE  65                 [1041] (-77)
65AF  03                 [1042] (-77)
65B0  00                 [1043] (-77)
65B1  00                 [1044] (-77)
65B2  67                 [1045] (-77)
65B3  03                 [1046] (-77)
65B4  00                 [1047] (-77)
65B5  00                 [1048] (-76)
65B6  67                 [1049] (-76)
65B7  03                 [1050] (-76)
65B8  00                 [1051] (-76)
65B9  00                 [1052] (-76)
65BA  68                 [1053] (-76)
65BB  03                 [1054] (-75)
65BC  00                 [1055] (-75)
65BD  00                 [1056] (-75)
65BE  68                 [1057] (-75)
65BF  03                 [1058] (-75)
65C0  00                 [1059] (-75)
65C1  00                 [1060] (-75)
65C2  69                 [1061] (-74)
65C3  03                 [1062] (-74)
65C4  00                 [1063] (-74)
65C5  00                 [1064] (-74)
65C6  69                 [1065] (-74)
65C7  03                 [1066] (-74)
65C8  00                 [1067] (-74)
65C9  00                 [1068] (-74)
65CA  6A                 [1069] (-74)
65CB  03                 [1070] (-73)
65CC  00                 [1071] (-73)
65CD  00                 [1072] (-73)
65CE  6A                 [1073] (-73)
65CF  03                 [1074] (-73)
65D0  00                 [1075] (-69)
65D1  00                 [1076] (-68)
65D2  6B                 [1077] (-68)
65D3  03                 [1078] (-67)
65D4  00                 [1079] (-67)
65D5  00                 [1080] (-66)
65D6  6B                 [1081] (-66)
65D7  03                 [1082] (-65)
65D8  00                 [1083] (-65)
65D9  00                 [1084] (-63)
65DA  6C                 [1085] (-63)
65DB  03                 [1086] (-63)
65DC  00                 [1087] (-63)
65DD  00                 [1088] (-63)
65DE  6C                 [1089] (-60)
65DF  03                 [1090] (-60)
65E0  00                 [1091] (-59)
65E1  00                 [1092] (-59)
65E2  6D                 [1093] (-59)
65E3  03                 [1094] (-59)
65E4  00                 [1095] (-59)
65E5  00                 [1096] (-58)
65E6  6D                 [1097] (-58)
65E7  03                 [1098] (-57)
65E8  00                 [1099] (-57)
65E9  00                 [1100] (-57)
65EA  6F                 [1101] (-57)
65EB  03                 [1102] (-54)
65EC  00                 [1103] (-54)
65ED  00                 [1104] (-54)
65EE  6F                 [1105] (-54)
65EF  03                 [1106] (-54)
65F0  00                 [1107] (-54)
65F1  00                 [1108] (-53)
65F2  6F                 [1109] (-53)
65F3  03                 [1110] (-53)
65F4  00                 [1111] (-53)
65F5  00                 [1112] (-50)
65F6  6F                 [1113] (-50)
65F7  03                 [1114] (-50)
65F8  00                 [1115] (-50)
65F9  00                 [1116] (-49)
65FA  6F                 [1117] (-49)
65FB  03                 [1118] (-49)
65FC  00                 [1119] (-49)
65FD  00                 [1120] (-49)
65FE  6F                 [1121] (-49)
65FF  03                 [1122] (-49)
6600  00                 [1123] (-49)
6601  00                 [1124] (-49)
6602  6F                 [1125] (-49)
6603  03                 [1126] (-48)
6604  00                 [1127] (-48)
6605  00                 [1128] (-48)
6606  6F                 [1129] (-48)
6607  03                 [1130] (-48)
6608  00                 [1131] (-46)
6609  00                 [1132] (-46)
660A  6F                 [1133] (-46)
660B  03                 [1134] (-46)
660C  00                 [1135] (-45)
660D  00                 [1136] (-45)
660E  71                 [1137] (-45)
660F  03                 [1138] (-45)
6610  00                 [1139] (-45)
6611  00                 [1140] (-45)
6612  71                 [1141] (-45)
6613  03                 [1142] (-45)
6614  00                 [1143] (-45)
6615  00                 [1144] (-45)
6616  71                 [1145] (-44)
6617  03                 [1146] (-44)
6618  00                 [1147] (-44)
6619  00                 [1148] (-44)
661A  71                 [1149] (-42)
661B  03                 [1150] (-40)
661C  00                 [1151] (-40)
661D  00                 [1152] (-40)
661E  71                 [1153] (-40)
661F  03                 [1154] (-40)
6620  00                 [1155] (-40)
6621  00                 [1156] (-40)
6622  72                 [1157] (-39)
6623  03                 [1158] (-39)
6624  00                 [1159] (-38)
6625  00                 [1160] (-38)
6626  72                 [1161] (-38)
6627  03                 [1162] (-37)
6628  00                 [1163] (-37)
6629  00                 [1164] (-37)
662A  72                 [1165] (-37)
662B  03                 [1166] (-37)
662C  00                 [1167] (-37)
662D  00                 [1168] (-36)
662E  72                 [1169] (-36)
662F  03                 [1170] (-36)
6630  00                 [1171] (-36)
6631  00                 [1172] (-36)
6632  72                 [1173] (-35)
6633  03                 [1174] (-35)
6634  00                 [1175] (-35)
6635  00                 [1176] (-33)
6636  74                 [1177] (-33)
6637  03                 [1178] (-33)
6638  00                 [1179] (-33)
6639  00                 [1180] (-33)
663A  74                 [1181] (-33)
663B  03                 [1182] (-33)
663C  00                 [1183] (-33)
663D  00                 [1184] (-33)
663E  74                 [1185] (-33)
663F  03                 [1186] (-31)
6640  00                 [1187] (-31)
6641  00                 [1188] (-31)
6642  74                 [1189] (-31)
6643  03                 [1190] (-31)
6644  00                 [1191] (-30)
6645  00                 [1192] (-30)
6646  75                 [1193] (-30)
6647  03                 [1194] (-30)
6648  00                 [1195] (-30)
6649  00                 [1196] (-30)
664A  75                 [1197] (-29)
664B  03                 [1198] (-29)
664C  00                 [1199] (-29)
664D  00                 [1200] (-27)
664E  75                 [1201] (-27)
664F  03                 [1202] (-27)
6650  00                 [1203] (-27)
6651  00                 [1204] (-27)
6652  75                 [1205] (-27)
6653  03                 [1206] (-27)
6654  00                 [1207] (-27)
6655  00                 [1208] (-27)
6656  74                 [1209] (-26)
6657  03                 [1210] (-26)
6658  00                 [1211] (-26)
6659  00                 [1212] (-26)
665A  77                 [1213] (-24)
665B  03                 [1214] (-23)
665C  00                 [1215] (-23)
665D  00                 [1216] (-23)
665E  77                 [1217] (-23)
665F  03                 [1218] (-23)
6660  00                 [1219] (-22)
6661  00                 [1220] (-22)
6662  77                 [1221] (-22)
6663  03                 [1222] (-21)
6664  00                 [1223] (-21)
6665  00                 [1224] (-21)
6666  77                 [1225] (-20)
6667  03                 [1226] (-20)
6668  00                 [1227] (-20)
6669  00                 [1228] (-20)
666A  77                 [1229] (-20)
666B  03                 [1230] (-20)
666C  00                 [1231] (-20)
666D  00                 [1232] (-20)
666E  79                 [1233] (-20)
666F  03                 [1234] (-19)
6670  00                 [1235] (-18)
6671  00                 [1236] (-18)
6672  79                 [1237] (-18)
6673  03                 [1238] (-18)
6674  00                 [1239] (-18)
6675  00                 [1240] (-18)
6676  79                 [1241] (-18)
6677  03                 [1242] (-18)
6678  00                 [1243] (-17)
6679  00                 [1244] (-17)
667A  79                 [1245] (-16)
667B  03                 [1246] (-16)
667C  00                 [1247] (-16)
667D  00                 [1248] (-15)
667E  79                 [1249] (-15)
667F  03                 [1250] (-15)
6680  00                 [1251] (-15)
6681  00                 [1252] (-15)
6682  79                 [1253] (-15)
6683  03                 [1254] (-13)
6684  00                 [1255] (-13)
6685  00                 [1256] (-13)
6686  79                 [1257] (-13)
6687  03                 [1258] (-13)
6688  00                 [1259] (-11)
6689  00                 [1260] (-11)
668A  79                 [1261] (-11)
668B  03                 [1262] (-11)
668C  00                 [1263] (-11)
668D  00                 [1264] (-11)
668E  79                 [1265] (-11)
668F  03                 [1266] (-11)
6690  00                 [1267] (-11)
6691  00                 [1268] (-10)
6692  79                 [1269] (-10)
6693  03                 [1270] (-10)
6694  00                 [1271] (-10)
6695  00                 [1272] (-9)
6696  79                 [1273] (-8)
6697  03                 [1274] (-8)
6698  00                 [1275] (-8)
6699  00                 [1276] (-8)
669A  79                 [1277] (-8)
669B  03                 [1278] (-7)
669C  00                 [1279] (-7)
669D  00                 [1280] (-7)
669E  79                 [1281] (-6)
669F  03                 [1282] (-6)
66A0  00                 [1283] (-6)
66A1  00                 [1284] (-6)
66A2  79                 [1285] (-6)
66A3  03                 [1286] (-3)
                         * locals:
75B6  00                 sizelocvars (0)
                         * upvalues:
75B7  00                 sizeupvalues (0)
                         ** end of function **

                         * lines:
75B9  01                 sizelineinfo (175)
                         [pc] (line)
75BA  34                 [001] (52)
75BB  00                 [002] (53)
75BC  00                 [003] (54)
75BD  00                 [004] (55)
75BE  35                 [005] (56)
75BF  00                 [006] (58)
75C0  00                 [007] (58)
75C1  00                 [008] (58)
75C2  36                 [009] (59)
75C3  00                 [010] (59)
75C4  00                 [011] (59)
75C5  00                 [012] (60)
75C6  37                 [013] (60)
75C7  00                 [014] (60)
75C8  00                 [015] (80)
75C9  00                 [016] (80)
75CA  38                 [017] (80)
75CB  00                 [018] (81)
75CC  00                 [019] (81)
75CD  00                 [020] (81)
75CE  3A                 [021] (82)
75CF  00                 [022] (82)
75D0  00                 [023] (82)
75D1  00                 [024] (85)
75D2  3A                 [025] (85)
75D3  00                 [026] (85)
75D4  00                 [027] (86)
75D5  00                 [028] (86)
75D6  3A                 [029] (86)
75D7  00                 [030] (88)
75D8  00                 [031] (88)
75D9  00                 [032] (88)
75DA  3B                 [033] (89)
75DB  00                 [034] (89)
75DC  00                 [035] (89)
75DD  00                 [036] (90)
75DE  3B                 [037] (90)
75DF  00                 [038] (90)
75E0  00                 [039] (91)
75E1  00                 [040] (91)
75E2  3B                 [041] (91)
75E3  00                 [042] (92)
75E4  00                 [043] (92)
75E5  00                 [044] (92)
75E6  3C                 [045] (93)
75E7  00                 [046] (93)
75E8  00                 [047] (93)
75E9  00                 [048] (94)
75EA  3C                 [049] (94)
75EB  00                 [050] (94)
75EC  00                 [051] (95)
75ED  00                 [052] (95)
75EE  3C                 [053] (95)
75EF  00                 [054] (96)
75F0  00                 [055] (96)
75F1  00                 [056] (96)
75F2  50                 [057] (97)
75F3  00                 [058] (97)
75F4  00                 [059] (97)
75F5  00                 [060] (98)
75F6  50                 [061] (98)
75F7  00                 [062] (98)
75F8  00                 [063] (100)
75F9  00                 [064] (101)
75FA  50                 [065] (101)
75FB  00                 [066] (101)
75FC  00                 [067] (102)
75FD  00                 [068] (102)
75FE  51                 [069] (102)
75FF  00                 [070] (102)
7600  00                 [071] (102)
7601  00                 [072] (107)
7602  51                 [073] (126)
7603  00                 [074] (126)
7604  00                 [075] (109)
7605  00                 [076] (-61)
7606  51                 [077] (-61)
7607  00                 [078] (-61)
7608  00                 [079] (-61)
7609  00                 [080] (-61)
760A  52                 [081] (-61)
760B  00                 [082] (-61)
760C  00                 [083] (-61)
760D  00                 [084] (-61)
760E  52                 [085] (-61)
760F  00                 [086] (-61)
7610  00                 [087] (-128)
7611  00                 [088] (-38)
7612  52                 [089] (-38)
7613  00                 [090] (-38)
7614  00                 [091] (-11)
7615  00                 [092] (-11)
7616  55                 [093] (-11)
7617  00                 [094] (-4)
7618  00                 [095] (-4)
7619  00                 [096] (-4)
761A  55                 [097] (11)
761B  00                 [098] (11)
761C  00                 [099] (11)
761D  00                 [100] (-107)
761E  55                 [101] (-107)
761F  00                 [102] (-107)
7620  00                 [103] (-107)
7621  00                 [104] (-107)
7622  56                 [105] (-107)
7623  00                 [106] (-107)
7624  00                 [107] (-107)
7625  00                 [108] (-107)
7626  56                 [109] (13)
7627  00                 [110] (-41)
7628  00                 [111] (-41)
7629  00                 [112] (-41)
762A  56                 [113] (-41)
762B  00                 [114] (-41)
762C  00                 [115] (-41)
762D  00                 [116] (-41)
762E  58                 [117] (-41)
762F  00                 [118] (-105)
7630  00                 [119] (24)
7631  00                 [120] (24)
7632  58                 [121] (24)
7633  00                 [122] (24)
7634  00                 [123] (24)
7635  00                 [124] (24)
7636  58                 [125] (24)
7637  00                 [126] (24)
7638  00                 [127] (-39)
7639  00                 [128] (106)
763A  59                 [129] (-123)
763B  00                 [130] (-123)
763C  00                 [131] (-123)
763D  00                 [132] (-123)
763E  59                 [133] (108)
763F  00                 [134] (2)
7640  00                 [135] (2)
7641  00                 [136] (2)
7642  59                 [137] (2)
7643  00                 [138] (2)
7644  00                 [139] (2)
7645  00                 [140] (2)
7646  5A                 [141] (2)
7647  00                 [142] (2)
7648  00                 [143] (-121)
7649  00                 [144] (9)
764A  5A                 [145] (9)
764B  00                 [146] (9)
764C  00                 [147] (4)
764D  00                 [148] (13)
764E  5A                 [149] (13)
764F  00                 [150] (11)
7650  00                 [151] (-3)
7651  00                 [152] (-3)
7652  5B                 [153] (-3)
7653  00                 [154] (-3)
7654  00                 [155] (-3)
7655  00                 [156] (-3)
7656  5B                 [157] (-3)
7657  00                 [158] (-3)
7658  00                 [159] (-3)
7659  00                 [160] (-3)
765A  5B                 [161] (-3)
765B  00                 [162] (-3)
765C  00                 [163] (-3)
765D  00                 [164] (-3)
765E  5C                 [165] (-3)
765F  00                 [166] (-3)
7660  00                 [167] (-3)
7661  00                 [168] (-3)
7662  5C                 [169] (-3)
7663  00                 [170] (-3)
7664  00                 [171] (-3)
7665  00                 [172] (-3)
7666  5C                 [173] (-3)
7667  00                 [174] (15)
7668  00                 [175] (-3)
                         * locals:
7876  00                 sizelocvars (0)
                         * upvalues:
7877  00                 sizeupvalues (0)
                         ** end of function **

7878                     ** end of chunk **
