1	C:\wlua_dump\path\Lotus\ScriptsTeleportAndFade.lua
Pos   Hex Data           Description or Code
------------------------------------------------------------------------
0000                     ** source chunk: C:\wlua_dump\path\Lotus\ScriptsTeleportAndFade.lua
                         ** global header start **
0000  7F                 header signature: ""
0001  00                 version (major:minor hex digits)
0002  00                 format (0=official)
0003  00                 endianness (1=little endian)
0004  00                 size of int (bytes)
0005  00                 size of size_t (bytes)
0006  02                 size of Instruction (bytes)
0007  04                 size of number (bytes)
0008  1A                 integral (1=integral)
426
                         * number type: single
                         * x86 standard (32-bit, little endian, doubles)
                         ** global header end **
TeleportAndFade
TeleportAndFadeFromContextAction
PlayLocalSound
TriggerTeleportAndFade
PlayLocalSoundOnInstigator
gLotusInventoryControllerType
gBaseAvatarType
/EE/Types/Game/PickUp
gLotusAvatarType
_T
transferenceUmbra
none
alwaysTeleportToWaypoint
1
useTeleportWaypointTag
teleportWaypointTag
gRegion
2
3
tennoCloneAvatarType
4
5
ZERO_VECTOR
gLotusOperatorAvatarType
6
7
gGameRules
Lotus_Game
MT_LANDSCAPE
8
9
10
waypointRadiusRange
11
Script Teleport and Fade: 
 to: 
x
y
z
12
/Lotus/Types/PickUps/GameplayObjectPickup
13
14
teleportWaypoint
15a
15b
16
randomTeleportWaypoints
table
useRandomForNpcsOnly
gHumanPlayerType
17
blockingAnim
Engine
ATMM_PHYSICS_DRIVEN
PRT_ONCE
SLOT_6
MAIN_HAND
TeleportEffect
AvatarEffect
EMPTY_SYMBOL
causeDamage
damageRatio
causeProc
procType
useWaypointFacingAngle
JET_SKYMODE
18
19
maxHorizontalDistance
maxVerticalDistance
TeleportAndFade
ERROR: TeleportAndFade.lua: 
 Was not teleported to a waypoint because the waypoint for 
 was null
string
([/][^/]+)$

TeleportAndFade missing waypoint in 
closeDestinationTeleport
20
CloseTeleporter
TriggerPort
TeleportAndFade: 
 
 -> 
gRegion
postProcess
fade
postProcessVolumeToFade
initialDelay
PPF: TeleportAndFadeInstant: 
PPF: TeleportAndFadeEnd: 
gLotusVehicleAvatarType
TeleportAndFade
/EE/Types/Engine/HitProxyPhysics
gTennoAvatarType
teleportRagdolls
tennoAvatarsOnly
gLotusOperatorAvatarType
tennoCloneAvatarType
gPetAvatarType
_T
transferenceUmbra
gBaseAvatarType
gGameRules
gRegion
fadeToChangeTime
fadeToFinalValue
onlyTeleportCurrentAvatar
fullyFadedDuration
fadeFromChangeTime
fadeFromFinalValue
alwaysTeleportToWaypoint
initialDelay
gLotusSentinelAvatarType
gLotusGameRulesType
vipAgent
/EE/Types/Game/PickUp
tennoAvatarsOnly
gTennoAvatarType
gLotusOperatorAvatarType
tennoCloneAvatarType
gBaseAvatarType
gGameRules
gRegion
fadeToChangeTime
fadeToFinalValue
onlyTeleportCurrentAvatar
fullyFadedDuration
fadeFromChangeTime
fadeFromFinalValue
alwaysTeleportToWaypoint
initialDelay
gLotusSentinelAvatarType
vipAgent
/EE/Types/Game/PickUp
gRegion
trigger
inTrigger
initialDelay
sound
initialDelay
trigger
gRegion
_T
gTriggerTeleportIndex
waypoints
teleportWaypoint
fadeToChangeTime
fadeToFinalValue
/EE/Types/Game/PickUp
gBaseAvatarType
fullyFadedDuration
fadeFromChangeTime
fadeFromFinalValue
gAvatarType
initialDelay
sound
toggleTrigger
selfTrigger
                         
0001                     ** function [0] definition (level 1)
                         ** start of function **
0001  00                 string size (0)
                         source name: (none)
0002  00                 line defined (0)
0003  00                 last line defined (0)
0004  00                 nups (0)
0005  00                 numparams (0)
0006  02                 is_vararg (2)
0007  04                 maxstacksize (4)
                         * code:
0008  1A                 sizecode (26)
0009  25000000           [01] closure    0   0      
000D  65400000           [02] closure    1   1      
0011  12000000           [03] move       0   0      
0015  A5800000           [04] closure    2   2      
0019  E5C00000           [05] closure    3   3      
001D  12000001           [06] move       0   2      
0021  12008000           [07] move       0   1      
0025  E0000000           [08] setglobal  3   0        ; TeleportAndFade
0029  E0400000           [09] setglobal  3   1        ; 99125812
002D  E5000100           [10] closure    3   4      
0031  12000001           [11] move       0   2      
0035  12008000           [12] move       0   1      
0039  E0800000           [13] setglobal  3   2        ; TeleportAndFadeFromContextAction
003D  E0C00000           [14] setglobal  3   3        ; -1269053873
0041  E5400100           [15] closure    3   5      
0045  E0000100           [16] setglobal  3   4        ; PlayLocalSound
0049  E0400100           [17] setglobal  3   5        ; -957196084
004D  E5800100           [18] closure    3   6      
0051  12000001           [19] move       0   2      
0055  12008000           [20] move       0   1      
0059  E0800100           [21] setglobal  3   6        ; TriggerTeleportAndFade
005D  E0C00100           [22] setglobal  3   7        ; -642344540
0061  E5C00100           [23] closure    3   7      
0065  E0000200           [24] setglobal  3   8        ; PlayLocalSoundOnInstigator
0069  E0400200           [25] setglobal  3   9        ; 314886217
006D  1E008000           [26] return     0   1      
                         * constants:
0071  0A                 sizek (10)
0072  04                 const type 4
0073  10                 string size (16)
0074  54656C65706F7274+  "Teleport"
007C  416E644661646500   "AndFade\0"
                         const [0]: "TeleportAndFade"
0084  01                 const type 3
0085  348AE805           const [1]: (99125812)
0089  04                 const type 4
008A  21                 string size (33)
008B  54656C65706F7274+  "Teleport"
0093  416E644661646546+  "AndFadeF"
009B  726F6D436F6E7465+  "romConte"
00A3  7874416374696F6E+  "xtAction"
00AB  00                 "\0"
                         const [2]: "TeleportAndFadeFromContextAction"
00AC  01                 const type 3
00AD  4FC65BB4           const [3]: (-1269053873)
00B1  04                 const type 4
00B2  0F                 string size (15)
00B3  506C61794C6F6361+  "PlayLoca"
00BB  6C536F756E6400     "lSound\0"
                         const [4]: "PlayLocalSound"
00C2  01                 const type 3
00C3  CC58F2C6           const [5]: (-957196084)
00C7  04                 const type 4
00C8  17                 string size (23)
00C9  5472696767657254+  "TriggerT"
00D1  656C65706F727441+  "eleportA"
00D9  6E644661646500     "ndFade\0"
                         const [6]: "TriggerTeleportAndFade"
00E0  01                 const type 3
00E1  A499B6D9           const [7]: (-642344540)
00E5  04                 const type 4
00E6  1B                 string size (27)
00E7  506C61794C6F6361+  "PlayLoca"
00EF  6C536F756E644F6E+  "lSoundOn"
00F7  496E737469676174+  "Instigat"
00FF  6F7200             "or\0"
                         const [8]: "PlayLocalSoundOnInstigator"
0102  01                 const type 3
0103  49C8C412           const [9]: (314886217)
                         * functions:
0107  08                 sizep (8)
                         
0108                     ** function [0] definition (level 2)
                         ** start of function **
0108  00                 string size (0)
                         source name: (none)
0109  2A                 line defined (42)
010A  3C                 last line defined (60)
010B  00                 nups (0)
010C  03                 numparams (3)
010D  00                 is_vararg (0)
010E  08                 maxstacksize (8)
                         * code:
010F  26                 sizecode (38)
0110  DD000000           [01] getglobal  3   0        ; 1074689893
0114  12010000           [02] move       4   0      
0118  E2800001           [03] call       3   2   2  
011C  D8400000           [04] test       3       1    ; to [6] if false
0120  1AC00780           [05] jmp        32           ; to [38]
0124  E4404000           [06] self       3   0   257  ; -779797391
0128  57018000           [07] loadbool   5   1   0    ; true
012C  E2408001           [08] call       3   3   1  
0130  E4804000           [09] self       3   0   258  ; -1917464545
0134  E2800001           [10] call       3   2   2  
0138  1D010000           [11] getglobal  4   0        ; 1074689893
013C  52018001           [12] move       5   3      
0140  22810001           [13] call       4   2   2  
0144  18410000           [14] test       4       1    ; to [16] if false
0148  1A400580           [15] jmp        22           ; to [38]
014C  24C1C001           [16] self       4   3   259  ; -1957065004
0150  9D010100           [17] getglobal  6   4        ; gLotusInventoryControllerType
0154  22818001           [18] call       4   3   2  
0158  18010000           [19] test       4       0    ; to [21] if true
015C  1A000480           [20] jmp        17           ; to [38]
0160  2441C101           [21] self       4   3   261  ; 1769516121
0164  22810001           [22] call       4   2   2  
0168  5D010000           [23] getglobal  5   0        ; 1074689893
016C  92010002           [24] move       6   4      
0170  62810001           [25] call       5   2   2  
0174  58410000           [26] test       5       1    ; to [28] if false
0178  1A400280           [27] jmp        10           ; to [38]
017C  58000000           [28] test       1       0    ; to [30] if true
0180  1A400080           [29] jmp        2            ; to [32]
0184  64814102           [30] self       5   4   262  ; 1909884368
0188  62410001           [31] call       5   2   1  
018C  64C14102           [32] self       5   4   263  ; -828610723
0190  D2010001           [33] move       7   2      
0194  62418001           [34] call       5   3   1  
0198  5D010200           [35] getglobal  5   8        ; 538022378
019C  99410200           [36] loadk      6   9        ; 0
01A0  62410001           [37] call       5   2   1  
01A4  1E008000           [38] return     0   1      
                         * constants:
01A8  0A                 sizek (10)
01A9  01                 const type 3
01AA  65770E40           const [0]: (1074689893)
01AE  01                 const type 3
01AF  713C85D1           const [1]: (-779797391)
01B3  01                 const type 3
01B4  1FD0B58D           const [2]: (-1917464545)
01B8  01                 const type 3
01B9  D48E598B           const [3]: (-1957065004)
01BD  04                 const type 4
01BE  1E                 string size (30)
01BF  674C6F747573496E+  "gLotusIn"
01C7  76656E746F727943+  "ventoryC"
01CF  6F6E74726F6C6C65+  "ontrolle"
01D7  725479706500       "rType\0"
                         const [4]: "gLotusInventoryControllerType"
01DD  01                 const type 3
01DE  59AC7869           const [5]: (1769516121)
01E2  01                 const type 3
01E3  D085D671           const [6]: (1909884368)
01E7  01                 const type 3
01E8  5D679CCE           const [7]: (-828610723)
01EC  01                 const type 3
01ED  EA911120           const [8]: (538022378)
01F1  03                 const type 3
01F2  00000000           const [9]: (0)
                         * functions:
01F6  00                 sizep (0)
                         * lines:
01F7  26                 sizelineinfo (38)
                         [pc] (line)
01F8  2B                 [01] (43)
01F9  00                 [02] (43)
01FA  00                 [03] (43)
01FB  00                 [04] (43)
01FC  2B                 [05] (43)
01FD  00                 [06] (44)
01FE  00                 [07] (44)
01FF  00                 [08] (44)
0200  2B                 [09] (46)
0201  00                 [10] (46)
0202  00                 [11] (47)
0203  00                 [12] (47)
0204  2B                 [13] (47)
0205  00                 [14] (47)
0206  00                 [15] (47)
0207  00                 [16] (47)
0208  2B                 [17] (47)
0209  00                 [18] (47)
020A  00                 [19] (47)
020B  00                 [20] (47)
020C  2C                 [21] (48)
020D  00                 [22] (48)
020E  00                 [23] (49)
020F  00                 [24] (49)
0210  2C                 [25] (49)
0211  00                 [26] (49)
0212  00                 [27] (49)
0213  00                 [28] (50)
0214  2C                 [29] (50)
0215  00                 [30] (51)
0216  00                 [31] (51)
0217  00                 [32] (54)
0218  2E                 [33] (54)
0219  00                 [34] (54)
021A  00                 [35] (56)
021B  00                 [36] (56)
021C  2E                 [37] (56)
021D  00                 [38] (60)
                         * locals:
0290  00                 sizelocvars (0)
                         * upvalues:
0291  00                 sizeupvalues (0)
                         ** end of function **

                         
0292                     ** function [1] definition (level 2)
                         ** start of function **
0292  00                 string size (0)
                         source name: (none)
0293  3E                 line defined (62)
0294  F1                 last line defined (369)
0295  02                 nups (1)
0296  01                 numparams (2)
0297  02                 is_vararg (0)
0298  00                 maxstacksize (56)
                         * code:
029B  07                 sizecode (922)
029C  DD000000           [001] getglobal  3   0        ; 508519041
02A0  E2808000           [002] call       3   1   2  
02A4  1D410000           [003] getglobal  4   1        ; 1074689893
02A8  52010000           [004] move       5   0      
02AC  22810001           [005] call       4   2   2  
02B0  18410000           [006] test       4       1    ; to [8] if false
02B4  1AC00080           [007] jmp        4            ; to [12]
02B8  24814000           [008] self       4   0   258  ; -1957065004
02BC  9DC10000           [009] getglobal  6   3        ; gBaseAvatarType
02C0  22818001           [010] call       4   3   2  
02C4  1A400080           [011] jmp        2            ; to [14]
02C8  17410000           [012] loadbool   4   0   1    ; false, to [14]
02CC  17018000           [013] loadbool   4   1   0    ; true
02D0  5D410000           [014] getglobal  5   1        ; 1074689893
02D4  92010000           [015] move       6   0      
02D8  62810001           [016] call       5   2   2  
02DC  58410000           [017] test       5       1    ; to [19] if false
02E0  1A400180           [018] jmp        6            ; to [25]
02E4  64814000           [019] self       5   0   258  ; -1957065004
02E8  DD010100           [020] getglobal  7   4        ; 738251817
02EC  19420100           [021] loadk      8   5        ; "/EE/Types/Game/PickUp"
02F0  E2010001           [022] call       7   2   0  
02F4  62810000           [023] call       5   0   2  
02F8  1A400080           [024] jmp        2            ; to [27]
02FC  57410000           [025] loadbool   5   0   1    ; false, to [27]
0300  57018000           [026] loadbool   5   1   0    ; true
0304  18010000           [027] test       4       0    ; to [29] if true
0308  1A800180           [028] jmp        7            ; to [36]
030C  A4814000           [029] self       6   0   258  ; -1957065004
0310  1D820100           [030] getglobal  8   6        ; gLotusAvatarType
0314  A2818001           [031] call       6   3   2  
0318  98010000           [032] test       6       0    ; to [34] if true
031C  1A400080           [033] jmp        2            ; to [36]
0320  A4C14100           [034] self       6   0   263  ; -343505193
0324  A2410001           [035] call       6   2   1  
0328  92010000           [036] move       6   0      
032C  DD010200           [037] getglobal  7   8        ; 248503575
0330  1D420200           [038] getglobal  8   9        ; _T
0334  0E824204           [039] gettable   8   8   266  ; "transferenceUmbra"
0338  E2010101           [040] call       7   2   4  
033C  1A400180           [041] jmp        6            ; to [48]
fail op	35
0340  23008005           [042] close      0  
0344  1AC00080           [043] jmp        4            ; to [48]
0348  24C34200           [044] self       12  0   267  ; -1073689042
034C  22830001           [045] call       12  2   2  
0350  92010006           [046] move       6   12     
0354  1A400080           [047] jmp        2            ; to [50]
0358  D6810000           [048] tforloop   7       2    ; to [50] if exit
035C  1AC0FD7F           [049] jmp        -8           ; to [42]
0360  06030006           [050] loadnil    12  12     
0364  18010000           [051] test       4       0    ; to [53] if true
0368  1A800080           [052] jmp        3            ; to [56]
036C  64034303           [053] self       13  6   268  ; -1764426596
0370  62830001           [054] call       13  2   2  
0374  12038006           [055] move       12  13     
0378  59430300           [056] loadk      13  13       ; "none"
037C  9D830300           [057] getglobal  14  14       ; alwaysTeleportToWaypoint
0380  98430000           [058] test       14      1    ; to [60] if false
0384  1A402080           [059] jmp        130          ; to [190]
0388  18010000           [060] test       4       0    ; to [62] if true
038C  1AC01F80           [061] jmp        128          ; to [190]
0390  9D430000           [062] getglobal  14  1        ; 1074689893
0394  D2030006           [063] move       15  12     
0398  A2830001           [064] call       14  2   2  
039C  98430000           [065] test       14      1    ; to [67] if false
03A0  1A801E80           [066] jmp        123          ; to [190]
03A4  A4C34306           [067] self       14  12  271  ; -1888201767
03A8  A2830001           [068] call       14  2   2  
03AC  E4034400           [069] self       15  0   272  ; -394597731
03B0  E2830001           [070] call       15  2   2  
03B4  D8430000           [071] test       15      1    ; to [73] if false
03B8  1A400D80           [072] jmp        54           ; to [127]
03BC  DD430000           [073] getglobal  15  1        ; 1074689893
03C0  12040007           [074] move       16  14     
03C4  E2830001           [075] call       15  2   2  
03C8  D8430000           [076] test       15      1    ; to [78] if false
03CC  1AC00180           [077] jmp        8            ; to [86]
03D0  E4034407           [078] self       15  14  272  ; -394597731
03D4  E2830001           [079] call       15  2   2  
03D8  D8030000           [080] test       15      0    ; to [82] if true
03DC  1AC00080           [081] jmp        4            ; to [86]
03E0  E4434407           [082] self       15  14  273  ; -931961296
03E4  E2830001           [083] call       15  2   2  
03E8  92008007           [084] move       2   15     
03EC  59830400           [085] loadk      13  18       ; "1"
fail op	35
03F0  23C04401           [086] close      0  
03F4  1A800580           [087] jmp        23           ; to [111]
03F8  DD030500           [088] getglobal  15  20       ; useTeleportWaypointTag
03FC  D8030000           [089] test       15      0    ; to [91] if true
0400  1AC00480           [090] jmp        20           ; to [111]
0404  DD430000           [091] getglobal  15  1        ; 1074689893
0408  1D440500           [092] getglobal  16  21       ; teleportWaypointTag
040C  E2830001           [093] call       15  2   2  
0410  D8430000           [094] test       15      1    ; to [96] if false
0414  1A800380           [095] jmp        15           ; to [111]
0418  DD830500           [096] getglobal  15  22       ; gRegion
041C  E4C3C507           [097] self       15  15  279  ; -1593214796
0420  5D440500           [098] getglobal  17  21       ; teleportWaypointTag
0424  A4044600           [099] self       18  0   280  ; 1839670529
0428  A2040001           [100] call       18  2   0  
042C  E2830000           [101] call       15  0   2  
0430  1D440000           [102] getglobal  16  1        ; 1074689893
0434  52048007           [103] move       17  15     
0438  22840001           [104] call       16  2   2  
043C  18440000           [105] test       16      1    ; to [107] if false
0440  1AC00080           [106] jmp        4            ; to [111]
0444  2404C607           [107] self       16  15  280  ; 1839670529
0448  22840001           [108] call       16  2   2  
044C  92000008           [109] move       2   16     
0450  59430600           [110] loadk      13  25       ; "2"
fail op	35
0454  23C04401           [111] close      0  
0458  1A400D80           [112] jmp        54           ; to [167]
045C  1D840500           [113] getglobal  16  22       ; gRegion
0460  24844608           [114] self       16  16  282  ; -774964848
0464  22840001           [115] call       16  2   2  
0468  24C44608           [116] self       16  16  283  ; 537471347
046C  22840001           [117] call       16  2   2  
0470  64044708           [118] self       17  16  284  ; 1085792015
0474  E4044600           [119] self       19  0   280  ; 1839670529
0478  E2840001           [120] call       19  2   2  
047C  19450700           [121] loadk      20  29       ; 0
0480  59850700           [122] loadk      21  30       ; 0
0484  62848002           [123] call       17  5   2  
0488  92008008           [124] move       2   17     
048C  59C30700           [125] loadk      13  31       ; "3"
0490  1AC00980           [126] jmp        40           ; to [167]
0494  64844000           [127] self       17  0   258  ; -1957065004
0498  DD040800           [128] getglobal  19  32       ; tennoCloneAvatarType
049C  62848001           [129] call       17  3   2  
04A0  58040000           [130] test       17      0    ; to [132] if true
04A4  1AC00280           [131] jmp        12           ; to [144]
04A8  64444806           [132] self       17  12  289  ; -1813551355
04AC  62840001           [133] call       17  2   2  
04B0  9D440000           [134] getglobal  18  1        ; 1074689893
04B4  D2048008           [135] move       19  17     
04B8  A2840001           [136] call       18  2   2  
04BC  98440000           [137] test       18      1    ; to [139] if false
04C0  1AC00680           [138] jmp        28           ; to [167]
04C4  A444C408           [139] self       18  17  273  ; -931961296
04C8  A2840001           [140] call       18  2   2  
04CC  92000009           [141] move       2   18     
04D0  59830800           [142] loadk      13  34       ; "4"
04D4  1A800580           [143] jmp        23           ; to [167]
04D8  A4444403           [144] self       18  6   273  ; -931961296
04DC  A2840001           [145] call       18  2   2  
04E0  92000009           [146] move       2   18     
04E4  59C30800           [147] loadk      13  35       ; "5"
04E8  9D040900           [148] getglobal  18  36       ; ZERO_VECTOR
fail op	35
04EC  23800401           [149] close      0  
04F0  1AC00380           [150] jmp        16           ; to [167]
04F4  A4844000           [151] self       18  0   258  ; -1957065004
04F8  1D450900           [152] getglobal  20  37       ; gLotusOperatorAvatarType
04FC  A2848001           [153] call       18  3   2  
0500  98040000           [154] test       18      0    ; to [156] if true
0504  1A800280           [155] jmp        11           ; to [167]
0508  A4444806           [156] self       18  12  289  ; -1813551355
050C  A2840001           [157] call       18  2   2  
0510  DD440000           [158] getglobal  19  1        ; 1074689893
0514  12050009           [159] move       20  18     
0518  E2840001           [160] call       19  2   2  
051C  D8440000           [161] test       19      1    ; to [163] if false
0520  1AC00080           [162] jmp        4            ; to [167]
0524  E4444409           [163] self       19  18  273  ; -931961296
0528  E2840001           [164] call       19  2   2  
052C  92008009           [165] move       2   19     
0530  59830900           [166] loadk      13  38       ; "6"
0534  DD040000           [167] getglobal  19  0        ; 508519041
0538  E2848000           [168] call       19  1   2  
053C  D2008009           [169] move       3   19     
0540  DD440000           [170] getglobal  19  1        ; 1074689893
0544  12050007           [171] move       20  14     
0548  E2840001           [172] call       19  2   2  
054C  D8440000           [173] test       19      1    ; to [175] if false
0550  1A004880           [174] jmp        289          ; to [464]
fail op	35
0554  63800300           [175] close      1  
0558  1A804780           [176] jmp        287          ; to [464]
055C  E4044407           [177] self       19  14  272  ; -394597731
0560  E2840001           [178] call       19  2   2  
0564  D8040000           [179] test       19      0    ; to [181] if true
0568  1A804680           [180] jmp        283          ; to [464]
056C  E4C44906           [181] self       19  12  295  ; -2135866365
0570  E2840001           [182] call       19  2   2  
fail op	35
0574  23808309           [183] close      0  
0578  1A804580           [184] jmp        279          ; to [464]
057C  E4444407           [185] self       19  14  273  ; -931961296
0580  E2840001           [186] call       19  2   2  
0584  92008009           [187] move       2   19     
0588  59030A00           [188] loadk      13  40       ; "7"
058C  1A404480           [189] jmp        274          ; to [464]
0590  58010000           [190] test       5       0    ; to [192] if true
0594  1AC03280           [191] jmp        204          ; to [396]
0598  DD440000           [192] getglobal  19  1        ; 1074689893
059C  1D450A00           [193] getglobal  20  41       ; gGameRules
05A0  E2840001           [194] call       19  2   2  
05A4  D8440000           [195] test       19      1    ; to [197] if false
05A8  1A800880           [196] jmp        35           ; to [232]
05AC  DD440A00           [197] getglobal  19  41       ; gGameRules
05B0  E484CA09           [198] self       19  19  298  ; -502414055
05B4  E2840001           [199] call       19  2   2  
05B8  1DC50A00           [200] getglobal  20  43       ; Lotus_Game
05BC  0E054B0A           [201] gettable   20  20  300  ; "MT_LANDSCAPE"
fail op	35
05C0  23008509           [202] close      0  
05C4  1AC00680           [203] jmp        28           ; to [232]
05C8  DD840500           [204] getglobal  19  22       ; gRegion
05CC  E484C609           [205] self       19  19  282  ; -774964848
05D0  E2840001           [206] call       19  2   2  
05D4  24054600           [207] self       20  0   280  ; 1839670529
05D8  22850001           [208] call       20  2   2  
05DC  9200000A           [209] move       2   20     
05E0  59430B00           [210] loadk      13  45       ; "8"
05E4  2485CB09           [211] self       20  19  302  ; -682771662
05E8  92050001           [212] move       22  2      
05EC  D9C50B00           [213] loadk      23  47       ; 0
05F0  19060C00           [214] loadk      24  48       ; 0
05F4  59460C00           [215] loadk      25  49       ; 0
05F8  22850003           [216] call       20  6   2  
05FC  18450000           [217] test       20      1    ; to [219] if false
0600  1A003D80           [218] jmp        245          ; to [464]
0604  1D850500           [219] getglobal  20  22       ; gRegion
0608  24854C0A           [220] self       20  20  306  ; 65205951
060C  22850001           [221] call       20  2   2  
0610  5D450000           [222] getglobal  21  1        ; 1074689893
0614  9205000A           [223] move       22  20     
0618  62850001           [224] call       21  2   2  
061C  58450000           [225] test       21      1    ; to [227] if false
0620  1A003B80           [226] jmp        237          ; to [464]
0624  6405460A           [227] self       21  20  280  ; 1839670529
0628  62850001           [228] call       21  2   2  
062C  9200800A           [229] move       2   21     
0630  59C30C00           [230] loadk      13  51       ; "9"
0634  1AC03980           [231] jmp        232          ; to [464]
0638  64054D00           [232] self       21  0   308  ; 704919768
063C  62850001           [233] call       21  2   2  
0640  58050000           [234] test       21      0    ; to [236] if true
0644  1A001980           [235] jmp        101          ; to [337]
0648  64454D00           [236] self       21  0   309  ; -1532554085
064C  62850001           [237] call       21  2   2  
0650  9200800A           [238] move       2   21     
0654  59830D00           [239] loadk      13  54       ; "10"
0658  5D850500           [240] getglobal  21  22       ; gRegion
065C  6485C60A           [241] self       21  21  282  ; -774964848
0660  62850001           [242] call       21  2   2  
0664  A4C5CD0A           [243] self       22  21  311  ; -1265155795
0668  12060001           [244] move       24  2      
066C  59060E00           [245] loadk      25  56       ; 0
0670  A2850002           [246] call       22  4   2  
0674  98050000           [247] test       22      0    ; to [249] if true
0678  1A000D80           [248] jmp        53           ; to [302]
067C  9D050500           [249] getglobal  22  20       ; useTeleportWaypointTag
0680  98050000           [250] test       22      0    ; to [252] if true
0684  1A401380           [251] jmp        78           ; to [330]
0688  9D450000           [252] getglobal  22  1        ; 1074689893
068C  DD450500           [253] getglobal  23  21       ; teleportWaypointTag
0690  A2850001           [254] call       22  2   2  
0694  98450000           [255] test       22      1    ; to [257] if false
0698  1A001280           [256] jmp        73           ; to [330]
069C  9D850500           [257] getglobal  22  22       ; gRegion
06A0  A4C5450B           [258] self       22  22  279  ; -1593214796
06A4  1D460500           [259] getglobal  24  21       ; teleportWaypointTag
06A8  52060001           [260] move       25  2      
06AC  A2850002           [261] call       22  4   2  
06B0  DD450000           [262] getglobal  23  1        ; 1074689893
06B4  1206000B           [263] move       24  22     
06B8  E2850001           [264] call       23  2   2  
06BC  D8450000           [265] test       23      1    ; to [267] if false
06C0  1A800F80           [266] jmp        63           ; to [330]
06C4  E405460B           [267] self       23  22  280  ; 1839670529
06C8  E2850001           [268] call       23  2   2  
06CC  9200800B           [269] move       2   23     
06D0  E4454E0B           [270] self       23  22  313  ; -231049143
06D4  E2850001           [271] call       23  2   2  
06D8  D200800B           [272] move       3   23     
06DC  DD850E00           [273] getglobal  23  58       ; 572299008
06E0  1DC60E00           [274] getglobal  24  59       ; -1941280958
06E4  5D060F00           [275] getglobal  25  60       ; waypointRadiusRange
fail op	0
06E8  4006800C           [276] move       25  25     
06EC  9D060F00           [277] getglobal  26  60       ; waypointRadiusRange
06F0  22868001           [278] call       24  3   2  
06F4  59060C00           [279] loadk      25  48       ; 0
06F8  9DC60E00           [280] getglobal  26  59       ; -1941280958
06FC  DD060F00           [281] getglobal  27  60       ; waypointRadiusRange
fail op	0
0700  C006800D           [282] move       27  27     
0704  1D070F00           [283] getglobal  28  60       ; waypointRadiusRange
0708  A2068001           [284] call       26  3   0  
070C  E2850000           [285] call       23  0   2  
0710  83C00501           [286] add        2   2   23 
0714  59430F00           [287] loadk      13  61       ; "11"
0718  18410000           [288] test       4       1    ; to [290] if false
071C  1A400080           [289] jmp        2            ; to [292]
0720  58010000           [290] test       5       0    ; to [292] if true
0724  1A400980           [291] jmp        38           ; to [330]
0728  DD850F00           [292] getglobal  23  62       ; -1817107093
072C  19C60F00           [293] loadk      24  63       ; "Script Teleport and Fade: "
0730  64065000           [294] self       25  0   320  ; 455421500
0734  62860001           [295] call       25  2   2  
0738  99461000           [296] loadk      26  65       ; " to: "
073C  E406500B           [297] self       27  22  320  ; 455421500
0740  E2860001           [298] call       27  2   2  
0744  02C6060C           [299] concat     24  24  27 
0748  E2450001           [300] call       23  2   1  
074C  1AC00680           [301] jmp        28           ; to [330]
0750  DD850E00           [302] getglobal  23  58       ; 572299008
0754  E2858000           [303] call       23  1   2  
0758  1D860500           [304] getglobal  24  22       ; gRegion
075C  2486500C           [305] self       24  24  322  ; 187283819
0760  92060001           [306] move       26  2      
0764  DD860E00           [307] getglobal  27  58       ; 572299008
0768  0EC75001           [308] gettable   28  2   323  ; "x"
076C  4E075101           [309] gettable   29  2   324  ; "y"
0770  4D47D10E           [310] sub        29  29  325  ; 0
0774  8E875101           [311] gettable   30  2   326  ; "z"
0778  E2860002           [312] call       27  4   2  
077C  0607800E           [313] loadnil    28  29     
0780  9207800B           [314] move       30  23     
0784  D7078000           [315] loadbool   31  1   0    ; true
0788  22860004           [316] call       24  8   2  
078C  18060000           [317] test       24      0    ; to [319] if true
0790  1A800080           [318] jmp        3            ; to [322]
0794  9200800B           [319] move       2   23     
0798  59C31100           [320] loadk      13  71       ; "12"
079C  1AC00180           [321] jmp        8            ; to [330]
07A0  2486CB0A           [322] self       24  21  302  ; -682771662
07A4  92060001           [323] move       26  2      
07A8  D9461100           [324] loadk      27  69       ; 0
07AC  19070C00           [325] loadk      28  48       ; 0
07B0  59070C00           [326] loadk      29  48       ; 0
07B4  22860003           [327] call       24  6   2  
07B8  18060000           [328] test       24      0    ; to [330] if true
07BC  1AC0FF7F           [329] jmp        0            ; to [330]
07C0  1D860E00           [330] getglobal  24  58       ; 572299008
07C4  59060C00           [331] loadk      25  48       ; 0
07C8  99061200           [332] loadk      26  72       ; 0
07CC  D9060C00           [333] loadk      27  48       ; 0
07D0  22860002           [334] call       24  4   2  
07D4  83000601           [335] add        2   2   24 
07D8  1A801F80           [336] jmp        127          ; to [464]
07DC  24864000           [337] self       24  0   258  ; -1957065004
07E0  9D060100           [338] getglobal  26  4        ; 738251817
07E4  D9461200           [339] loadk      27  73       ; "/Lotus/Types/PickUps/GameplayObjectPickup"
07E8  A2060001           [340] call       26  2   0  
07EC  22860000           [341] call       24  0   2  
07F0  18060000           [342] test       24      0    ; to [344] if true
07F4  1A800680           [343] jmp        27           ; to [371]
07F8  1D860500           [344] getglobal  24  22       ; gRegion
07FC  2486460C           [345] self       24  24  282  ; -774964848
0800  22860001           [346] call       24  2   2  
0804  64064600           [347] self       25  0   280  ; 1839670529
0808  62860001           [348] call       25  2   2  
080C  9200800C           [349] move       2   25     
0810  59831200           [350] loadk      13  74       ; "13"
0814  64864B0C           [351] self       25  24  302  ; -682771662
0818  D2060001           [352] move       27  2      
081C  19471100           [353] loadk      28  69       ; 0
0820  59070C00           [354] loadk      29  48       ; 0
0824  99070C00           [355] loadk      30  48       ; 0
0828  62460003           [356] call       25  6   1  
082C  5D860500           [357] getglobal  25  22       ; gRegion
0830  6486C60C           [358] self       25  25  282  ; -774964848
0834  62860001           [359] call       25  2   2  
0838  64C6C60C           [360] self       25  25  283  ; 537471347
083C  62860001           [361] call       25  2   2  
0840  A4C6D20C           [362] self       26  25  331  ; 1767857257
0844  12070001           [363] move       28  2      
0848  59C70B00           [364] loadk      29  47       ; 0
084C  97078000           [365] loadbool   30  1   0    ; true
0850  D9071200           [366] loadk      31  72       ; 0
0854  A2860003           [367] call       26  6   2  
0858  9200000D           [368] move       2   26     
085C  59031300           [369] loadk      13  76       ; "14"
0860  1A001780           [370] jmp        93           ; to [464]
0864  9D460000           [371] getglobal  26  1        ; 1074689893
0868  DD461300           [372] getglobal  27  77       ; teleportWaypoint
086C  A2860001           [373] call       26  2   2  
0870  98460000           [374] test       26      1    ; to [376] if false
0874  1AC01580           [375] jmp        88           ; to [464]
0878  9D461300           [376] getglobal  26  77       ; teleportWaypoint
087C  A406460D           [377] self       26  26  280  ; 1839670529
0880  A2860001           [378] call       26  2   2  
0884  9200000D           [379] move       2   26     
0888  9D461300           [380] getglobal  26  77       ; teleportWaypoint
088C  A4464E0D           [381] self       26  26  313  ; -231049143
0890  A2860001           [382] call       26  2   2  
0894  D200000D           [383] move       3   26     
0898  59831300           [384] loadk      13  78       ; "15a"
089C  9D860F00           [385] getglobal  26  62       ; -1817107093
08A0  D9C60F00           [386] loadk      27  63       ; "Script Teleport and Fade: "
08A4  24075000           [387] self       28  0   320  ; 455421500
08A8  22870001           [388] call       28  2   2  
08AC  59471000           [389] loadk      29  65       ; " to: "
08B0  9D471300           [390] getglobal  30  77       ; teleportWaypoint
08B4  A407500F           [391] self       30  30  320  ; 455421500
08B8  A2870001           [392] call       30  2   2  
08BC  C286870D           [393] concat     27  27  30 
08C0  A2460001           [394] call       26  2   1  
08C4  1AC01080           [395] jmp        68           ; to [464]
08C8  9D460000           [396] getglobal  26  1        ; 1074689893
08CC  DD461300           [397] getglobal  27  77       ; teleportWaypoint
08D0  A2860001           [398] call       26  2   2  
08D4  98460000           [399] test       26      1    ; to [401] if false
08D8  1AC00580           [400] jmp        24           ; to [425]
08DC  9D461300           [401] getglobal  26  77       ; teleportWaypoint
08E0  A406460D           [402] self       26  26  280  ; 1839670529
08E4  A2860001           [403] call       26  2   2  
08E8  9200000D           [404] move       2   26     
08EC  9D461300           [405] getglobal  26  77       ; teleportWaypoint
08F0  A4464E0D           [406] self       26  26  313  ; -231049143
08F4  A2860001           [407] call       26  2   2  
08F8  D200000D           [408] move       3   26     
08FC  59C31300           [409] loadk      13  79       ; "15b"
0900  18410000           [410] test       4       1    ; to [412] if false
0904  1A400080           [411] jmp        2            ; to [414]
0908  58010000           [412] test       5       0    ; to [414] if true
090C  1A400C80           [413] jmp        50           ; to [464]
0910  9D860F00           [414] getglobal  26  62       ; -1817107093
0914  D9C60F00           [415] loadk      27  63       ; "Script Teleport and Fade: "
0918  24075000           [416] self       28  0   320  ; 455421500
091C  22870001           [417] call       28  2   2  
0920  59471000           [418] loadk      29  65       ; " to: "
0924  9D471300           [419] getglobal  30  77       ; teleportWaypoint
0928  A407500F           [420] self       30  30  320  ; 455421500
092C  A2870001           [421] call       30  2   2  
0930  C286870D           [422] concat     27  27  30 
0934  A2460001           [423] call       26  2   1  
0938  1A800980           [424] jmp        39           ; to [464]
093C  9D060500           [425] getglobal  26  20       ; useTeleportWaypointTag
0940  98060000           [426] test       26      0    ; to [428] if true
0944  1AC00880           [427] jmp        36           ; to [464]
0948  9D460000           [428] getglobal  26  1        ; 1074689893
094C  DD460500           [429] getglobal  27  21       ; teleportWaypointTag
0950  A2860001           [430] call       26  2   2  
0954  98460000           [431] test       26      1    ; to [433] if false
0958  1A800780           [432] jmp        31           ; to [464]
095C  9D860500           [433] getglobal  26  22       ; gRegion
0960  A4C6450D           [434] self       26  26  279  ; -1593214796
0964  1D470500           [435] getglobal  28  21       ; teleportWaypointTag
0968  64074600           [436] self       29  0   280  ; 1839670529
096C  62070001           [437] call       29  2   0  
0970  A2860000           [438] call       26  0   2  
0974  DD460000           [439] getglobal  27  1        ; 1074689893
0978  1207000D           [440] move       28  26     
097C  E2860001           [441] call       27  2   2  
0980  D8460000           [442] test       27      1    ; to [444] if false
0984  1AC00480           [443] jmp        20           ; to [464]
0988  E406460D           [444] self       27  26  280  ; 1839670529
098C  E2860001           [445] call       27  2   2  
0990  9200800D           [446] move       2   27     
0994  E4464E0D           [447] self       27  26  313  ; -231049143
0998  E2860001           [448] call       27  2   2  
099C  D200800D           [449] move       3   27     
09A0  59031400           [450] loadk      13  80       ; "16"
09A4  18410000           [451] test       4       1    ; to [453] if false
09A8  1A400080           [452] jmp        2            ; to [455]
09AC  58010000           [453] test       5       0    ; to [455] if true
09B0  1A000280           [454] jmp        9            ; to [464]
09B4  DD860F00           [455] getglobal  27  62       ; -1817107093
09B8  19C70F00           [456] loadk      28  63       ; "Script Teleport and Fade: "
09BC  64075000           [457] self       29  0   320  ; 455421500
09C0  62870001           [458] call       29  2   2  
09C4  99471000           [459] loadk      30  65       ; " to: "
09C8  E407500D           [460] self       31  26  320  ; 455421500
09CC  E2870001           [461] call       31  2   2  
09D0  02C7070E           [462] concat     28  28  31 
09D4  E2460001           [463] call       27  2   1  
09D8  DD461400           [464] getglobal  27  81       ; randomTeleportWaypoints
09DC  CA06800D           [465] len        27  27     
fail op	21
09E0  15C00698           [466] concat     0   304 27 
09E4  1A400E80           [467] jmp        58           ; to [526]
09E8  CB060000           [468] newtable   27  0   0    ; array=0, hash=0
09EC  19071200           [469] loadk      28  72       ; 0
09F0  5D471400           [470] getglobal  29  81       ; randomTeleportWaypoints
09F4  4A07800E           [471] len        29  29     
09F8  99071200           [472] loadk      30  72       ; 0
09FC  10C70280           [473] forprep    28  12       ; to [486]
0A00  1D481400           [474] getglobal  32  81       ; randomTeleportWaypoints
0A04  0EC80710           [475] gettable   32  32  31 
0A08  24885410           [476] self       32  32  338  ; -1318948062
0A0C  22880001           [477] call       32  2   2  
0A10  18080000           [478] test       32      0    ; to [480] if true
0A14  1A400180           [479] jmp        6            ; to [486]
0A18  1DC81400           [480] getglobal  32  83       ; table
0A1C  0E085510           [481] gettable   32  32  340  ; -431682403
0A20  5208800D           [482] move       33  27     
0A24  9D481400           [483] getglobal  34  81       ; randomTeleportWaypoints
0A28  8EC80711           [484] gettable   34  34  31 
0A2C  22488001           [485] call       32  3   1  
0A30  1487FC7F           [486] forloop    28  -13      ; to [474] if loop
0A34  1D481500           [487] getglobal  32  85       ; useRandomForNpcsOnly
0A38  18080000           [488] test       32      0    ; to [490] if true
0A3C  1A000180           [489] jmp        5            ; to [495]
0A40  24884000           [490] self       32  0   258  ; -1957065004
0A44  9D881500           [491] getglobal  34  86       ; gHumanPlayerType
0A48  22888001           [492] call       32  3   2  
0A4C  18480000           [493] test       32      1    ; to [495] if false
0A50  1A800080           [494] jmp        3            ; to [498]
0A54  1D481500           [495] getglobal  32  85       ; useRandomForNpcsOnly
0A58  18480000           [496] test       32      1    ; to [498] if false
0A5C  1AC00680           [497] jmp        28           ; to [526]
0A60  1DC81500           [498] getglobal  32  87       ; 2144646525
0A64  59081200           [499] loadk      33  72       ; 0
0A68  8A08800D           [500] len        34  27     
0A6C  22888001           [501] call       32  3   2  
0A70  5D480000           [502] getglobal  33  1        ; 1074689893
0A74  8E08880D           [503] gettable   34  27  32 
0A78  62880001           [504] call       33  2   2  
0A7C  58480000           [505] test       33      1    ; to [507] if false
0A80  1A800480           [506] jmp        19           ; to [526]
0A84  4E08880D           [507] gettable   33  27  32 
0A88  6408C610           [508] self       33  33  280  ; 1839670529
0A8C  62880001           [509] call       33  2   2  
0A90  92008010           [510] move       2   33     
0A94  4E08880D           [511] gettable   33  27  32 
0A98  6448CE10           [512] self       33  33  313  ; -231049143
0A9C  62880001           [513] call       33  2   2  
0AA0  D2008010           [514] move       3   33     
0AA4  59031600           [515] loadk      13  88       ; "17"
0AA8  5D880F00           [516] getglobal  33  62       ; -1817107093
0AAC  99C80F00           [517] loadk      34  63       ; "Script Teleport and Fade: "
0AB0  E4085000           [518] self       35  0   320  ; 455421500
0AB4  E2880001           [519] call       35  2   2  
0AB8  19491000           [520] loadk      36  65       ; " to: "
0ABC  4E09880D           [521] gettable   37  27  32 
0AC0  6409D012           [522] self       37  37  320  ; 455421500
0AC4  62890001           [523] call       37  2   2  
0AC8  82480911           [524] concat     34  34  37 
0ACC  62480001           [525] call       33  2   1  
0AD0  18010000           [526] test       4       0    ; to [528] if true
0AD4  1AC00680           [527] jmp        28           ; to [556]
0AD8  53080000           [528] getupval   33  0      
0ADC  92080000           [529] move       34  0      
0AE0  D7080000           [530] loadbool   35  0   0    ; false
0AE4  17098000           [531] loadbool   36  1   0    ; true
0AE8  62480002           [532] call       33  4   1  
0AEC  5D480000           [533] getglobal  33  1        ; 1074689893
0AF0  92080006           [534] move       34  12     
0AF4  62880001           [535] call       33  2   2  
0AF8  58480000           [536] test       33      1    ; to [538] if false
0AFC  1A400480           [537] jmp        18           ; to [556]
0B00  64484806           [538] self       33  12  289  ; -1813551355
0B04  62880001           [539] call       33  2   2  
0B08  A4C84306           [540] self       34  12  271  ; -1888201767
0B0C  A2880001           [541] call       34  2   2  
fail op	35
0B10  63008010           [542] close      1  
0B14  1A000180           [543] jmp        5            ; to [549]
0B18  D3080000           [544] getupval   35  0      
0B1C  12098010           [545] move       36  33     
0B20  57090000           [546] loadbool   37  0   0    ; false
0B24  97098000           [547] loadbool   38  1   0    ; true
0B28  E2480002           [548] call       35  4   1  
fail op	35
0B2C  63000011           [549] close      1  
0B30  1A000180           [550] jmp        5            ; to [556]
0B34  D3080000           [551] getupval   35  0      
0B38  12090011           [552] move       36  34     
0B3C  57090000           [553] loadbool   37  0   0    ; false
0B40  97098000           [554] loadbool   38  1   0    ; true
0B44  E2480002           [555] call       35  4   1  
fail op	35
0B48  63C04401           [556] close      1  
0B4C  1A402B80           [557] jmp        174          ; to [732]
0B50  E4485600           [558] self       35  0   345  ; 970454089
0B54  52090001           [559] move       37  2      
0B58  92098001           [560] move       38  3      
0B5C  E2480002           [561] call       35  4   1  
0B60  18010000           [562] test       4       0    ; to [564] if true
0B64  1AC00C80           [563] jmp        52           ; to [616]
0B68  DD480000           [564] getglobal  35  1        ; 1074689893
0B6C  12090006           [565] move       36  12     
0B70  E2880001           [566] call       35  2   2  
0B74  D8480000           [567] test       35      1    ; to [569] if false
0B78  1A800B80           [568] jmp        47           ; to [616]
0B7C  DD480000           [569] getglobal  35  1        ; 1074689893
0B80  1D891600           [570] getglobal  36  90       ; blockingAnim
0B84  E2880001           [571] call       35  2   2  
0B88  D8480000           [572] test       35      1    ; to [574] if false
0B8C  1A800380           [573] jmp        15           ; to [589]
0B90  DD480000           [574] getglobal  35  1        ; 1074689893
0B94  24C95600           [575] self       36  0   347  ; -564624675
0B98  22090001           [576] call       36  2   0  
0B9C  E2880000           [577] call       35  0   2  
0BA0  D8480000           [578] test       35      1    ; to [580] if false
0BA4  1A000280           [579] jmp        9            ; to [589]
0BA8  E4085700           [580] self       35  0   348  ; 2056776437
0BAC  5D891600           [581] getglobal  37  90       ; blockingAnim
0BB0  97090000           [582] loadbool   38  0   0    ; false
0BB4  DD491700           [583] getglobal  39  93       ; Engine
0BB8  CE89D713           [584] gettable   39  39  350  ; "ATMM_PHYSICS_DRIVEN"
0BBC  1D4A1700           [585] getglobal  40  93       ; Engine
0BC0  0ECA5714           [586] gettable   40  40  351  ; "PRT_ONCE"
0BC4  570A8000           [587] loadbool   41  1   0    ; true
0BC8  E2488003           [588] call       35  7   1  
0BCC  E4085800           [589] self       35  0   352  ; -1917464545
0BD0  E2880001           [590] call       35  2   2  
0BD4  E448D811           [591] self       35  35  353  ; 339947353
0BD8  E2480001           [592] call       35  2   1  
0BDC  E4085800           [593] self       35  0   352  ; -1917464545
0BE0  E2880001           [594] call       35  2   2  
0BE4  E488D811           [595] self       35  35  354  ; 1674984496
0BE8  5D491700           [596] getglobal  37  93       ; Engine
0BEC  4EC9D812           [597] gettable   37  37  355  ; "SLOT_6"
0BF0  E2888001           [598] call       35  3   2  
0BF4  1D490000           [599] getglobal  36  1        ; 1074689893
0BF8  52098011           [600] move       37  35     
0BFC  22890001           [601] call       36  2   2  
0C00  18490000           [602] test       36      1    ; to [604] if false
0C04  1AC00280           [603] jmp        12           ; to [616]
0C08  2409D911           [604] self       36  35  356  ; -227172805
0C0C  22890001           [605] call       36  2   2  
0C10  5D491700           [606] getglobal  37  93       ; Engine
0C14  4E49D912           [607] gettable   37  37  357  ; "MAIN_HAND"
fail op	35
0C18  63400912           [608] close      1  
0C1C  1A400180           [609] jmp        6            ; to [616]
0C20  24095800           [610] self       36  0   352  ; -1917464545
0C24  22890001           [611] call       36  2   2  
0C28  24895912           [612] self       36  36  358  ; 655648260
0C2C  97098000           [613] loadbool   38  1   0    ; true
0C30  D7098000           [614] loadbool   39  1   0    ; true
0C34  22490002           [615] call       36  4   1  
0C38  24C95900           [616] self       36  0   359  ; -1352804973
0C3C  9D890E00           [617] getglobal  38  58       ; 572299008
0C40  A2098000           [618] call       38  1   0  
0C44  22490000           [619] call       36  0   1  
0C48  1D490000           [620] getglobal  36  1        ; 1074689893
0C4C  5D091A00           [621] getglobal  37  104      ; TeleportEffect
0C50  22890001           [622] call       36  2   2  
0C54  18490000           [623] test       36      1    ; to [625] if false
0C58  1A400180           [624] jmp        6            ; to [631]
0C5C  1D890500           [625] getglobal  36  22       ; gRegion
0C60  24495A12           [626] self       36  36  361  ; -1110225722
0C64  9D091A00           [627] getglobal  38  104      ; TeleportEffect
0C68  D2090001           [628] move       39  2      
0C6C  120A8001           [629] move       40  3      
0C70  22498002           [630] call       36  5   1  
0C74  1D490000           [631] getglobal  36  1        ; 1074689893
0C78  5D891A00           [632] getglobal  37  106      ; AvatarEffect
0C7C  22890001           [633] call       36  2   2  
0C80  18490000           [634] test       36      1    ; to [636] if false
0C84  1AC00080           [635] jmp        4            ; to [640]
0C88  24C95A00           [636] self       36  0   363  ; -1421644046
0C8C  9D891A00           [637] getglobal  38  106      ; AvatarEffect
0C90  DD091B00           [638] getglobal  39  108      ; EMPTY_SYMBOL
0C94  22490002           [639] call       36  4   1  
0C98  18010000           [640] test       4       0    ; to [642] if true
0C9C  1A801280           [641] jmp        75           ; to [717]
0CA0  1D491B00           [642] getglobal  36  109      ; causeDamage
0CA4  18090000           [643] test       36      0    ; to [645] if true
0CA8  1A800180           [644] jmp        7            ; to [652]
0CAC  24895B00           [645] self       36  0   366  ; 1992436207
0CB0  A4C95B00           [646] self       38  0   367  ; 796523475
0CB4  A2890001           [647] call       38  2   2  
0CB8  DD091C00           [648] getglobal  39  112      ; damageRatio
0CBC  CDC909A4           [649] sub        39  328 39   ; 0
0CC0  84C90913           [650] mul        38  38  39 
0CC4  22498001           [651] call       36  3   1  
0CC8  1D491C00           [652] getglobal  36  113      ; causeProc
0CCC  18090000           [653] test       36      0    ; to [655] if true
0CD0  1A400280           [654] jmp        10           ; to [665]
0CD4  1D491700           [655] getglobal  36  93       ; Engine
0CD8  0E895C12           [656] gettable   36  36  370  ; -98643418
0CDC  22898000           [657] call       36  1   2  
0CE0  64C95C12           [658] self       37  36  371  ; 1398603399
0CE4  DD091D00           [659] getglobal  39  116      ; procType
0CE8  170A8000           [660] loadbool   40  1   0    ; true
0CEC  62490002           [661] call       37  4   1  
0CF0  64495D00           [662] self       37  0   373  ; 1193457265
0CF4  D2090012           [663] move       39  36     
0CF8  62498001           [664] call       37  3   1  
0CFC  5D891D00           [665] getglobal  37  118      ; useWaypointFacingAngle
0D00  58090000           [666] test       37      0    ; to [668] if true
0D04  1AC00180           [667] jmp        8            ; to [676]
0D08  64C95D00           [668] self       37  0   375  ; 1998801764
0D0C  D2098001           [669] move       39  3      
0D10  62498001           [670] call       37  3   1  
0D14  64095E00           [671] self       37  0   376  ; 1292478819
0D18  62890001           [672] call       37  2   2  
0D1C  6449DE12           [673] self       37  37  377  ; 1417583104
0D20  D2098001           [674] move       39  3      
0D24  62498001           [675] call       37  3   1  
0D28  64895E00           [676] self       37  0   378  ; 792460646
0D2C  62490001           [677] call       37  2   1  
0D30  64C95E00           [678] self       37  0   379  ; 1339499617
0D34  62490001           [679] call       37  2   1  
0D38  5D490000           [680] getglobal  37  1        ; 1074689893
0D3C  92090006           [681] move       38  12     
0D40  62890001           [682] call       37  2   2  
0D44  58490000           [683] test       37      1    ; to [685] if false
0D48  1AC00780           [684] jmp        32           ; to [717]
0D4C  64095800           [685] self       37  0   352  ; -1917464545
0D50  62890001           [686] call       37  2   2  
0D54  A409DF12           [687] self       38  37  380  ; 534606458
0D58  A2890001           [688] call       38  2   2  
0D5C  DD491700           [689] getglobal  39  93       ; Engine
0D60  CE49DF13           [690] gettable   39  39  381  ; "JET_SKYMODE"
fail op	35
0D64  23C00913           [691] close      0  
0D68  1A800080           [692] jmp        3            ; to [696]
0D6C  A4895F00           [693] self       38  0   382  ; -385317571
0D70  170A0000           [694] loadbool   40  0   0    ; false
0D74  A2498001           [695] call       38  3   1  
0D78  A449D812           [696] self       38  37  353  ; 339947353
0D7C  A2490001           [697] call       38  2   1  
0D80  A489D812           [698] self       38  37  354  ; 1674984496
0D84  1D4A1700           [699] getglobal  40  93       ; Engine
0D88  0ECA5814           [700] gettable   40  40  355  ; "SLOT_6"
0D8C  A2898001           [701] call       38  3   2  
0D90  DD490000           [702] getglobal  39  1        ; 1074689893
0D94  120A0013           [703] move       40  38     
0D98  E2890001           [704] call       39  2   2  
0D9C  D8490000           [705] test       39      1    ; to [707] if false
0DA0  1A400280           [706] jmp        10           ; to [717]
0DA4  E4095913           [707] self       39  38  356  ; -227172805
0DA8  E2890001           [708] call       39  2   2  
0DAC  1D4A1700           [709] getglobal  40  93       ; Engine
0DB0  0E4A5914           [710] gettable   40  40  357  ; "MAIN_HAND"
fail op	35
0DB4  63008A13           [711] close      1  
0DB8  1AC00080           [712] jmp        4            ; to [717]
0DBC  E489D912           [713] self       39  37  358  ; 655648260
0DC0  570A8000           [714] loadbool   41  1   0    ; true
0DC4  970A8000           [715] loadbool   42  1   0    ; true
0DC8  E2490002           [716] call       39  4   1  
0DCC  DDC91F00           [717] getglobal  39  127      ; 538022378
0DD0  190A2000           [718] loadk      40  128      ; -51
0DD4  E2490001           [719] call       39  2   1  
0DD8  E4495600           [720] self       39  0   345  ; 970454089
0DDC  520A0001           [721] move       41  2      
0DE0  920A8001           [722] move       42  3      
0DE4  E2490002           [723] call       39  4   1  
0DE8  DDC91F00           [724] getglobal  39  127      ; 538022378
0DEC  190A2000           [725] loadk      40  128      ; -51
0DF0  E2490001           [726] call       39  2   1  
0DF4  E4495600           [727] self       39  0   345  ; 970454089
0DF8  520A0001           [728] move       41  2      
0DFC  920A8001           [729] move       42  3      
0E00  E2490002           [730] call       39  4   1  
0E04  1A801B80           [731] jmp        111          ; to [843]
0E08  18010000           [732] test       4       0    ; to [734] if true
0E0C  1A000180           [733] jmp        5            ; to [739]
0E10  DD490000           [734] getglobal  39  1        ; 1074689893
0E14  120A0006           [735] move       40  12     
0E18  E2890001           [736] call       39  2   2  
0E1C  D8090000           [737] test       39      0    ; to [739] if true
0E20  1A400880           [738] jmp        34           ; to [773]
0E24  18010000           [739] test       4       0    ; to [741] if true
0E28  1A000280           [740] jmp        9            ; to [750]
0E2C  E4094400           [741] self       39  0   272  ; -394597731
0E30  E2890001           [742] call       39  2   2  
0E34  D8090000           [743] test       39      0    ; to [745] if true
0E38  1A000180           [744] jmp        5            ; to [750]
0E3C  E4494400           [745] self       39  0   273  ; -931961296
0E40  E2890001           [746] call       39  2   2  
0E44  92008013           [747] move       2   39     
0E48  59432000           [748] loadk      13  129      ; "18"
0E4C  1AC00080           [749] jmp        4            ; to [754]
0E50  E4094600           [750] self       39  0   280  ; 1839670529
0E54  E2890001           [751] call       39  2   2  
0E58  92008013           [752] move       2   39     
0E5C  59832000           [753] loadk      13  130      ; "19"
0E60  DD890500           [754] getglobal  39  22       ; gRegion
0E64  E489C613           [755] self       39  39  282  ; -774964848
0E68  E2890001           [756] call       39  2   2  
0E6C  E4C9C613           [757] self       39  39  283  ; 537471347
0E70  E2890001           [758] call       39  2   2  
0E74  E409C713           [759] self       39  39  284  ; 1085792015
0E78  520A0001           [760] move       41  2      
0E7C  9DCA2000           [761] getglobal  42  131      ; maxHorizontalDistance
0E80  DD0A2100           [762] getglobal  43  132      ; maxVerticalDistance
0E84  E2898002           [763] call       39  5   2  
0E88  92008013           [764] move       2   39     
0E8C  DD090000           [765] getglobal  39  0        ; 508519041
0E90  E2898000           [766] call       39  1   2  
0E94  D2008013           [767] move       3   39     
0E98  E4495600           [768] self       39  0   345  ; 970454089
0E9C  520A0001           [769] move       41  2      
0EA0  920A8001           [770] move       42  3      
0EA4  E2490002           [771] call       39  4   1  
0EA8  1A401180           [772] jmp        70           ; to [843]
0EAC  DD490000           [773] getglobal  39  1        ; 1074689893
0EB0  120A8000           [774] move       40  1      
0EB4  E2890001           [775] call       39  2   2  
0EB8  D8490000           [776] test       39      1    ; to [778] if false
0EBC  1A800C80           [777] jmp        51           ; to [829]
0EC0  DD490200           [778] getglobal  39  9        ; _T
0EC4  CE49E113           [779] gettable   39  39  389  ; "TeleportAndFade"
fail op	35
0EC8  23C0C413           [780] close      0  
0ECC  1AC00080           [781] jmp        4            ; to [786]
0ED0  0B0A0000           [782] newtable   40  0   0    ; array=0, hash=0
0ED4  D2090014           [783] move       39  40     
0ED8  1D4A0200           [784] getglobal  40  9        ; _T
0EDC  0CCA89C2           [785] settable   40  389 39   ; "TeleportAndFade"
0EE0  240AD000           [786] self       40  1   320  ; 455421500
0EE4  228A0001           [787] call       40  2   2  
0EE8  4E0A8A13           [788] gettable   41  39  40 
fail op	35
0EEC  23C0C414           [789] close      0  
0EF0  1A400980           [790] jmp        38           ; to [829]
0EF4  CC095214           [791] settable   39  40  328  ; 0
0EF8  5D8A0F00           [792] getglobal  41  62       ; -1817107093
0EFC  998A2100           [793] loadk      42  134      ; "ERROR: TeleportAndFade.lua: "
0F00  E40A5000           [794] self       43  0   320  ; 455421500
0F04  E28A0001           [795] call       43  2   2  
0F08  19CB2100           [796] loadk      44  135      ; " Was not teleported to a waypoint because the waypoint for "
0F0C  520B0014           [797] move       45  40     
0F10  990B2200           [798] loadk      46  136      ; " was null"
0F14  828A0B15           [799] concat     42  42  46 
0F18  624A0001           [800] call       41  2   1  
0F1C  644AE200           [801] self       41  1   393  ; 1927666530
0F20  628A0001           [802] call       41  2   2  
0F24  9D4A0000           [803] getglobal  42  1        ; 1074689893
0F28  D20A8014           [804] move       43  41     
0F2C  A28A0001           [805] call       42  2   2  
0F30  984A0000           [806] test       42      1    ; to [808] if false
0F34  1A000580           [807] jmp        21           ; to [829]
0F38  A48AE214           [808] self       42  41  394  ; -1298130151
0F3C  A28A0001           [809] call       42  2   2  
0F40  DD4A0000           [810] getglobal  43  1        ; 1074689893
0F44  120B0015           [811] move       44  42     
0F48  E28A0001           [812] call       43  2   2  
0F4C  D84A0000           [813] test       43      1    ; to [815] if false
0F50  1A400380           [814] jmp        14           ; to [829]
0F54  E40A5015           [815] self       43  42  320  ; 455421500
0F58  E28A0001           [816] call       43  2   2  
0F5C  1DCB2200           [817] getglobal  44  139      ; string
0F60  0E0B6316           [818] gettable   44  44  396  ; 1664893510
0F64  520B8015           [819] move       45  43     
0F68  994B2300           [820] loadk      46  141      ; "([/][^/]+)$"
0F6C  D98B2300           [821] loadk      47  142      ; ""
0F70  228B0002           [822] call       44  4   2  
0F74  D20A0016           [823] move       43  44     
0F78  1DCB2300           [824] getglobal  44  143      ; -1100462061
0F7C  590B2400           [825] loadk      45  144      ; "TeleportAndFade missing waypoint in "
0F80  920B8015           [826] move       46  43     
0F84  428B8B16           [827] concat     45  45  46 
0F88  224B0001           [828] call       44  2   1  
0F8C  1D8B0500           [829] getglobal  44  22       ; gRegion
0F90  244B6416           [830] self       44  44  401  ; 1779091680
0F94  228B0001           [831] call       44  2   2  
0F98  5D4B0000           [832] getglobal  45  1        ; 1074689893
0F9C  920B0016           [833] move       46  44     
0FA0  628B0001           [834] call       45  2   2  
0FA4  584B0000           [835] test       45      1    ; to [837] if false
0FA8  1A400180           [836] jmp        6            ; to [843]
0FAC  644B5600           [837] self       45  0   345  ; 970454089
0FB0  D20B0016           [838] move       47  44     
0FB4  244C4E00           [839] self       48  0   313  ; -231049143
0FB8  220C0001           [840] call       48  2   0  
0FBC  624B0000           [841] call       45  0   1  
0FC0  1AC0FF7F           [842] jmp        0            ; to [843]
0FC4  18010000           [843] test       4       0    ; to [845] if true
0FC8  1AC00680           [844] jmp        28           ; to [873]
0FCC  530B0000           [845] getupval   45  0      
0FD0  920B0000           [846] move       46  0      
0FD4  D70B8000           [847] loadbool   47  1   0    ; true
0FD8  170C0000           [848] loadbool   48  0   0    ; false
0FDC  624B0002           [849] call       45  4   1  
0FE0  5D4B0000           [850] getglobal  45  1        ; 1074689893
0FE4  920B0006           [851] move       46  12     
0FE8  628B0001           [852] call       45  2   2  
0FEC  584B0000           [853] test       45      1    ; to [855] if false
0FF0  1A400480           [854] jmp        18           ; to [873]
0FF4  644B4806           [855] self       45  12  289  ; -1813551355
0FF8  628B0001           [856] call       45  2   2  
0FFC  A4CB4306           [857] self       46  12  271  ; -1888201767
1000  A28B0001           [858] call       46  2   2  
fail op	35
1004  63008016           [859] close      1  
1008  1A000180           [860] jmp        5            ; to [866]
100C  D30B0000           [861] getupval   47  0      
1010  120C8016           [862] move       48  45     
1014  570C8000           [863] loadbool   49  1   0    ; true
1018  970C0000           [864] loadbool   50  0   0    ; false
101C  E24B0002           [865] call       47  4   1  
fail op	35
1020  63000017           [866] close      1  
1024  1A000180           [867] jmp        5            ; to [873]
1028  D30B0000           [868] getupval   47  0      
102C  120C0017           [869] move       48  46     
1030  570C8000           [870] loadbool   49  1   0    ; true
1034  970C0000           [871] loadbool   50  0   0    ; false
1038  E24B0002           [872] call       47  4   1  
103C  DD8B2400           [873] getglobal  47  146      ; closeDestinationTeleport
1040  D80B0000           [874] test       47      0    ; to [876] if true
1044  1A800780           [875] jmp        31           ; to [907]
1048  DD4B0000           [876] getglobal  47  1        ; 1074689893
104C  1D4C1300           [877] getglobal  48  77       ; teleportWaypoint
1050  E28B0001           [878] call       47  2   2  
1054  D84B0000           [879] test       47      1    ; to [881] if false
1058  1A400680           [880] jmp        26           ; to [907]
105C  DD4B1300           [881] getglobal  47  77       ; teleportWaypoint
1060  E40BC617           [882] self       47  47  280  ; 1839670529
1064  E28B0001           [883] call       47  2   2  
1068  92008017           [884] move       2   47     
106C  59C32400           [885] loadk      13  147      ; "20"
1070  DD8B0500           [886] getglobal  47  22       ; gRegion
1074  E40BE517           [887] self       47  47  404  ; 252987801
1078  5D4C2500           [888] getglobal  49  149      ; -332969190
107C  998C2500           [889] loadk      50  150      ; "CloseTeleporter"
1080  628C0001           [890] call       49  2   2  
1084  920C0001           [891] move       50  2      
1088  D90C0C00           [892] loadk      51  48       ; 0
108C  190D0E00           [893] loadk      52  56       ; 0
1090  E28B0003           [894] call       47  6   2  
1094  1D4C0000           [895] getglobal  48  1        ; 1074689893
1098  520C8017           [896] move       49  47     
109C  228C0001           [897] call       48  2   2  
10A0  184C0000           [898] test       48      1    ; to [900] if false
10A4  1A800180           [899] jmp        7            ; to [907]
10A8  0A0C8017           [900] len        48  47     
fail op	21
10AC  15000C98           [901] concat     0   304 48 
10B0  1AC00080           [902] jmp        4            ; to [907]
10B4  0E0CD217           [903] gettable   48  47  328  ; 0
10B8  24CC6518           [904] self       48  48  407  ; -1923578185
10BC  990C2600           [905] loadk      50  152      ; "TriggerPort"
10C0  224C8001           [906] call       48  3   1  
10C4  1D8C0F00           [907] getglobal  48  62       ; -1817107093
10C8  594C2600           [908] loadk      49  153      ; "TeleportAndFade: "
10CC  920C8006           [909] move       50  13     
10D0  D98C2600           [910] loadk      51  154      ; " "
10D4  240D5000           [911] self       52  0   320  ; 455421500
10D8  228D0001           [912] call       52  2   2  
10DC  59CD2600           [913] loadk      53  155      ; " -> "
10E0  9D0D2700           [914] getglobal  54  156      ; -1615931716
10E4  D20D0001           [915] move       55  2      
10E8  A28D0001           [916] call       54  2   2  
10EC  984D0000           [917] test       54      1    ; to [919] if false
10F0  1A000080           [918] jmp        1            ; to [920]
10F4  994D0300           [919] loadk      54  13       ; "none"
10F8  428C8D18           [920] concat     49  49  54 
10FC  224C0001           [921] call       48  2   1  
1100  1E008000           [922] return     0   1      
                         * constants:
1105  01                 sizek (157)
1106  01                 const type 3
1107  81624F1E           const [0]: (508519041)
110B  01                 const type 3
110C  65770E40           const [1]: (1074689893)
1110  01                 const type 3
1111  D48E598B           const [2]: (-1957065004)
1115  04                 const type 4
1116  10                 string size (16)
1117  6742617365417661+  "gBaseAva"
111F  7461725479706500   "tarType\0"
                         const [3]: "gBaseAvatarType"
1127  01                 const type 3
1128  29D4002C           const [4]: (738251817)
112C  04                 const type 4
112D  16                 string size (22)
112E  2F45452F54797065+  "/EE/Type"
1136  732F47616D652F50+  "s/Game/P"
113E  69636B557000       "ickUp\0"
                         const [5]: "/EE/Types/Game/PickUp"
1144  04                 const type 4
1145  11                 string size (17)
1146  674C6F7475734176+  "gLotusAv"
114E  6174617254797065+  "atarType"
1156  00                 "\0"
                         const [6]: "gLotusAvatarType"
1157  01                 const type 3
1158  D78686EB           const [7]: (-343505193)
115C  01                 const type 3
115D  17DDCF0E           const [8]: (248503575)
1161  04                 const type 4
1162  03                 string size (3)
1163  5F5400             "_T\0"
                         const [9]: "_T"
1166  04                 const type 4
1167  12                 string size (18)
1168  7472616E73666572+  "transfer"
1170  656E6365556D6272+  "enceUmbr"
1178  6100               "a\0"
                         const [10]: "transferenceUmbra"
117A  01                 const type 3
117B  2ECE00C0           const [11]: (-1073689042)
117F  01                 const type 3
1180  9CFCD496           const [12]: (-1764426596)
1184  04                 const type 4
1185  05                 string size (5)
1186  6E6F6E6500         "none\0"
                         const [13]: "none"
118B  04                 const type 4
118C  19                 string size (25)
118D  616C776179735465+  "alwaysTe"
1195  6C65706F7274546F+  "leportTo"
119D  576179706F696E74+  "Waypoint"
11A5  00                 "\0"
                         const [14]: "alwaysTeleportToWaypoint"
11A6  01                 const type 3
11A7  D953748F           const [15]: (-1888201767)
11AB  01                 const type 3
11AC  9DEA7AE8           const [16]: (-394597731)
11B0  01                 const type 3
11B1  306673C8           const [17]: (-931961296)
11B5  04                 const type 4
11B6  02                 string size (2)
11B7  3100               "1\0"
                         const [18]: "1"
11B9  00                 const type 0
                         const [19]: nil
11BA  04                 const type 4
11BB  17                 string size (23)
11BC  75736554656C6570+  "useTelep"
11C4  6F7274576179706F+  "ortWaypo"
11CC  696E7454616700     "intTag\0"
                         const [20]: "useTeleportWaypointTag"
11D3  04                 const type 4
11D4  14                 string size (20)
11D5  74656C65706F7274+  "teleport"
11DD  576179706F696E74+  "Waypoint"
11E5  54616700           "Tag\0"
                         const [21]: "teleportWaypointTag"
11E9  04                 const type 4
11EA  08                 string size (8)
11EB  67526567696F6E00   "gRegion\0"
                         const [22]: "gRegion"
11F3  01                 const type 3
11F4  B47809A1           const [23]: (-1593214796)
11F8  01                 const type 3
11F9  0125A76D           const [24]: (1839670529)
11FD  04                 const type 4
11FE  02                 string size (2)
11FF  3200               "2\0"
                         const [25]: "2"
1201  01                 const type 3
1202  90F9CED1           const [26]: (-774964848)
1206  01                 const type 3
1207  73290920           const [27]: (537471347)
120B  01                 const type 3
120C  0FDFB740           const [28]: (1085792015)
1210  03                 const type 3
1211  0000F042           const [29]: (0)
1215  03                 const type 3
1216  0000A042           const [30]: (0)
121A  04                 const type 4
121B  02                 string size (2)
121C  3300               "3\0"
                         const [31]: "3"
121E  04                 const type 4
121F  15                 string size (21)
1220  74656E6E6F436C6F+  "tennoClo"
1228  6E65417661746172+  "neAvatar"
1230  5479706500         "Type\0"
                         const [32]: "tennoCloneAvatarType"
1235  01                 const type 3
1236  0567E793           const [33]: (-1813551355)
123A  04                 const type 4
123B  02                 string size (2)
123C  3400               "4\0"
                         const [34]: "4"
123E  04                 const type 4
123F  02                 string size (2)
1240  3500               "5\0"
                         const [35]: "5"
1242  04                 const type 4
1243  0C                 string size (12)
1244  5A45524F5F564543+  "ZERO_VEC"
124C  544F5200           "TOR\0"
                         const [36]: "ZERO_VECTOR"
1250  04                 const type 4
1251  19                 string size (25)
1252  674C6F7475734F70+  "gLotusOp"
125A  657261746F724176+  "eratorAv"
1262  6174617254797065+  "atarType"
126A  00                 "\0"
                         const [37]: "gLotusOperatorAvatarType"
126B  04                 const type 4
126C  02                 string size (2)
126D  3600               "6\0"
                         const [38]: "6"
126F  01                 const type 3
1270  0344B180           const [39]: (-2135866365)
1274  04                 const type 4
1275  02                 string size (2)
1276  3700               "7\0"
                         const [40]: "7"
1278  04                 const type 4
1279  0B                 string size (11)
127A  6747616D6552756C+  "gGameRul"
1282  657300             "es\0"
                         const [41]: "gGameRules"
1285  01                 const type 3
1286  19C50DE2           const [42]: (-502414055)
128A  04                 const type 4
128B  0B                 string size (11)
128C  4C6F7475735F4761+  "Lotus_Ga"
1294  6D6500             "me\0"
                         const [43]: "Lotus_Game"
1297  04                 const type 4
1298  0D                 string size (13)
1299  4D545F4C414E4453+  "MT_LANDS"
12A1  4341504500         "CAPE\0"
                         const [44]: "MT_LANDSCAPE"
12A6  04                 const type 4
12A7  02                 string size (2)
12A8  3800               "8\0"
                         const [45]: "8"
12AA  01                 const type 3
12AB  32BB4DD7           const [46]: (-682771662)
12AF  03                 const type 3
12B0  0000A040           const [47]: (0)
12B4  03                 const type 3
12B5  00000000           const [48]: (0)
12B9  03                 const type 3
12BA  000000C0           const [49]: (0)
12BE  01                 const type 3
12BF  BFF6E203           const [50]: (65205951)
12C3  04                 const type 4
12C4  02                 string size (2)
12C5  3900               "9\0"
                         const [51]: "9"
12C7  01                 const type 3
12C8  D838042A           const [52]: (704919768)
12CC  01                 const type 3
12CD  9B14A7A4           const [53]: (-1532554085)
12D1  04                 const type 4
12D2  03                 string size (3)
12D3  313000             "10\0"
                         const [54]: "10"
12D6  01                 const type 3
12D7  2D4197B4           const [55]: (-1265155795)
12DB  03                 const type 3
12DC  00002041           const [56]: (0)
12E0  01                 const type 3
12E1  49783AF2           const [57]: (-231049143)
12E5  01                 const type 3
12E6  00971C22           const [58]: (572299008)
12EA  01                 const type 3
12EB  42674A8C           const [59]: (-1941280958)
12EF  04                 const type 4
12F0  14                 string size (20)
12F1  776179706F696E74+  "waypoint"
12F9  5261646975735261+  "RadiusRa"
1301  6E676500           "nge\0"
                         const [60]: "waypointRadiusRange"
1305  04                 const type 4
1306  03                 string size (3)
1307  313100             "11\0"
                         const [61]: "11"
130A  01                 const type 3
130B  6B25B193           const [62]: (-1817107093)
130F  04                 const type 4
1310  1B                 string size (27)
1311  5363726970742054+  "Script T"
1319  656C65706F727420+  "eleport "
1321  616E642046616465+  "and Fade"
1329  3A2000             ": \0"
                         const [63]: "Script Teleport and Fade: "
132C  01                 const type 3
132D  3C2E251B           const [64]: (455421500)
1331  04                 const type 4
1332  06                 string size (6)
1333  20746F3A2000       " to: \0"
                         const [65]: " to: "
1339  01                 const type 3
133A  6BB9290B           const [66]: (187283819)
133E  04                 const type 4
133F  02                 string size (2)
1340  7800               "x\0"
                         const [67]: "x"
1342  04                 const type 4
1343  02                 string size (2)
1344  7900               "y\0"
                         const [68]: "y"
1346  03                 const type 3
1347  0000C842           const [69]: (0)
134B  04                 const type 4
134C  02                 string size (2)
134D  7A00               "z\0"
                         const [70]: "z"
134F  04                 const type 4
1350  03                 string size (3)
1351  313200             "12\0"
                         const [71]: "12"
1354  03                 const type 3
1355  0000803F           const [72]: (0)
1359  04                 const type 4
135A  2A                 string size (42)
135B  2F4C6F7475732F54+  "/Lotus/T"
1363  797065732F506963+  "ypes/Pic"
136B  6B5570732F47616D+  "kUps/Gam"
1373  65706C61794F626A+  "eplayObj"
137B  6563745069636B75+  "ectPicku"
1383  7000               "p\0"
                         const [73]: "/Lotus/Types/PickUps/GameplayObjectPickup"
1385  04                 const type 4
1386  03                 string size (3)
1387  313300             "13\0"
                         const [74]: "13"
138A  01                 const type 3
138B  695C5F69           const [75]: (1767857257)
138F  04                 const type 4
1390  03                 string size (3)
1391  313400             "14\0"
                         const [76]: "14"
1394  04                 const type 4
1395  11                 string size (17)
1396  74656C65706F7274+  "teleport"
139E  576179706F696E74+  "Waypoint"
13A6  00                 "\0"
                         const [77]: "teleportWaypoint"
13A7  04                 const type 4
13A8  04                 string size (4)
13A9  31356100           "15a\0"
                         const [78]: "15a"
13AD  04                 const type 4
13AE  04                 string size (4)
13AF  31356200           "15b\0"
                         const [79]: "15b"
13B3  04                 const type 4
13B4  03                 string size (3)
13B5  313600             "16\0"
                         const [80]: "16"
13B8  04                 const type 4
13B9  18                 string size (24)
13BA  72616E646F6D5465+  "randomTe"
13C2  6C65706F72745761+  "leportWa"
13CA  79706F696E747300   "ypoints\0"
                         const [81]: "randomTeleportWaypoints"
13D2  01                 const type 3
13D3  227362B1           const [82]: (-1318948062)
13D7  04                 const type 4
13D8  06                 string size (6)
13D9  7461626C6500       "table\0"
                         const [83]: "table"
13DF  01                 const type 3
13E0  9D0C45E6           const [84]: (-431682403)
13E4  04                 const type 4
13E5  15                 string size (21)
13E6  75736552616E646F+  "useRando"
13EE  6D466F724E706373+  "mForNpcs"
13F6  4F6E6C7900         "Only\0"
                         const [85]: "useRandomForNpcsOnly"
13FB  04                 const type 4
13FC  11                 string size (17)
13FD  6748756D616E506C+  "gHumanPl"
1405  6179657254797065+  "ayerType"
140D  00                 "\0"
                         const [86]: "gHumanPlayerType"
140E  01                 const type 3
140F  7DB5D47F           const [87]: (2144646525)
1413  04                 const type 4
1414  03                 string size (3)
1415  313700             "17\0"
                         const [88]: "17"
1418  01                 const type 3
1419  49F4D739           const [89]: (970454089)
141D  04                 const type 4
141E  0D                 string size (13)
141F  626C6F636B696E67+  "blocking"
1427  416E696D00         "Anim\0"
                         const [90]: "blockingAnim"
142C  01                 const type 3
142D  DD8258DE           const [91]: (-564624675)
1431  01                 const type 3
1432  F5EA977A           const [92]: (2056776437)
1436  04                 const type 4
1437  07                 string size (7)
1438  456E67696E6500     "Engine\0"
                         const [93]: "Engine"
143F  04                 const type 4
1440  14                 string size (20)
1441  41544D4D5F504859+  "ATMM_PHY"
1449  534943535F445249+  "SICS_DRI"
1451  56454E00           "VEN\0"
                         const [94]: "ATMM_PHYSICS_DRIVEN"
1455  04                 const type 4
1456  09                 string size (9)
1457  5052545F4F4E4345+  "PRT_ONCE"
145F  00                 "\0"
                         const [95]: "PRT_ONCE"
1460  01                 const type 3
1461  1FD0B58D           const [96]: (-1917464545)
1465  01                 const type 3
1466  592F4314           const [97]: (339947353)
146A  01                 const type 3
146B  303CD663           const [98]: (1674984496)
146F  04                 const type 4
1470  07                 string size (7)
1471  534C4F545F3600     "SLOT_6\0"
                         const [99]: "SLOT_6"
1478  01                 const type 3
1479  3B9E75F2           const [100]: (-227172805)
147D  04                 const type 4
147E  0A                 string size (10)
147F  4D41494E5F48414E+  "MAIN_HAN"
1487  4400               "D\0"
                         const [101]: "MAIN_HAND"
1489  01                 const type 3
148A  04661427           const [102]: (655648260)
148E  01                 const type 3
148F  93D55DAF           const [103]: (-1352804973)
1493  04                 const type 4
1494  0F                 string size (15)
1495  54656C65706F7274+  "Teleport"
149D  45666665637400     "Effect\0"
                         const [104]: "TeleportEffect"
14A4  01                 const type 3
14A5  C64CD3BD           const [105]: (-1110225722)
14A9  04                 const type 4
14AA  0D                 string size (13)
14AB  4176617461724566+  "AvatarEf"
14B3  6665637400         "fect\0"
                         const [106]: "AvatarEffect"
14B8  01                 const type 3
14B9  F26E43AB           const [107]: (-1421644046)
14BD  04                 const type 4
14BE  0D                 string size (13)
14BF  454D5054595F5359+  "EMPTY_SY"
14C7  4D424F4C00         "MBOL\0"
                         const [108]: "EMPTY_SYMBOL"
14CC  04                 const type 4
14CD  0C                 string size (12)
14CE  636175736544616D+  "causeDam"
14D6  61676500           "age\0"
                         const [109]: "causeDamage"
14DA  01                 const type 3
14DB  EF29C276           const [110]: (1992436207)
14DF  01                 const type 3
14E0  D3FB792F           const [111]: (796523475)
14E4  04                 const type 4
14E5  0C                 string size (12)
14E6  64616D6167655261+  "damageRa"
14EE  74696F00           "tio\0"
                         const [112]: "damageRatio"
14F2  04                 const type 4
14F3  0A                 string size (10)
14F4  636175736550726F+  "causePro"
14FC  6300               "c\0"
                         const [113]: "causeProc"
14FE  01                 const type 3
14FF  26D21EFA           const [114]: (-98643418)
1503  01                 const type 3
1504  87FE5C53           const [115]: (1398603399)
1508  04                 const type 4
1509  09                 string size (9)
150A  70726F6354797065+  "procType"
1512  00                 "\0"
                         const [116]: "procType"
1513  01                 const type 3
1514  71B62247           const [117]: (1193457265)
1518  04                 const type 4
1519  17                 string size (23)
151A  757365576179706F+  "useWaypo"
1522  696E74466163696E+  "intFacin"
152A  67416E676C6500     "gAngle\0"
                         const [118]: "useWaypointFacingAngle"
1531  01                 const type 3
1532  644B2377           const [119]: (1998801764)
1536  01                 const type 3
1537  63A9094D           const [120]: (1292478819)
153B  01                 const type 3
153C  009A7E54           const [121]: (1417583104)
1540  01                 const type 3
1541  66FD3B2F           const [122]: (792460646)
1545  01                 const type 3
1546  6124D74F           const [123]: (1339499617)
154A  01                 const type 3
154B  7A72DD1F           const [124]: (534606458)
154F  04                 const type 4
1550  0C                 string size (12)
1551  4A45545F534B594D+  "JET_SKYM"
1559  4F444500           "ODE\0"
                         const [125]: "JET_SKYMODE"
155D  01                 const type 3
155E  3D8508E9           const [126]: (-385317571)
1562  01                 const type 3
1563  EA911120           const [127]: (538022378)
1567  03                 const type 3
1568  CDCCCC3D           const [128]: (-51)
156C  04                 const type 4
156D  03                 string size (3)
156E  313800             "18\0"
                         const [129]: "18"
1571  04                 const type 4
1572  03                 string size (3)
1573  313900             "19\0"
                         const [130]: "19"
1576  04                 const type 4
1577  16                 string size (22)
1578  6D6178486F72697A+  "maxHoriz"
1580  6F6E74616C446973+  "ontalDis"
1588  74616E636500       "tance\0"
                         const [131]: "maxHorizontalDistance"
158E  04                 const type 4
158F  14                 string size (20)
1590  6D61785665727469+  "maxVerti"
1598  63616C4469737461+  "calDista"
15A0  6E636500           "nce\0"
                         const [132]: "maxVerticalDistance"
15A4  04                 const type 4
15A5  10                 string size (16)
15A6  54656C65706F7274+  "Teleport"
15AE  416E644661646500   "AndFade\0"
                         const [133]: "TeleportAndFade"
15B6  04                 const type 4
15B7  1D                 string size (29)
15B8  4552524F523A2054+  "ERROR: T"
15C0  656C65706F727441+  "eleportA"
15C8  6E64466164652E6C+  "ndFade.l"
15D0  75613A2000         "ua: \0"
                         const [134]: "ERROR: TeleportAndFade.lua: "
15D5  04                 const type 4
15D6  3C                 string size (60)
15D7  20576173206E6F74+  " Was not"
15DF  2074656C65706F72+  " telepor"
15E7  74656420746F2061+  "ted to a"
15EF  20776179706F696E+  " waypoin"
15F7  7420626563617573+  "t becaus"
15FF  6520746865207761+  "e the wa"
1607  79706F696E742066+  "ypoint f"
160F  6F722000           "or \0"
                         const [135]: " Was not teleported to a waypoint because the waypoint for "
1613  04                 const type 4
1614  0A                 string size (10)
1615  20776173206E756C+  " was nul"
161D  6C00               "l\0"
                         const [136]: " was null"
161F  01                 const type 3
1620  62DBE572           const [137]: (1927666530)
1624  01                 const type 3
1625  191BA0B2           const [138]: (-1298130151)
1629  04                 const type 4
162A  07                 string size (7)
162B  737472696E6700     "string\0"
                         const [139]: "string"
1632  01                 const type 3
1633  46423C63           const [140]: (1664893510)
1637  04                 const type 4
1638  0C                 string size (12)
1639  285B2F5D5B5E2F5D+  "([/][^/]"
1641  2B292400           "+)$\0"
                         const [141]: "([/][^/]+)$"
1645  04                 const type 4
1646  01                 string size (0)
                         const [142]: ""
1648  01                 const type 3
1649  134868BE           const [143]: (-1100462061)
164D  04                 const type 4
164E  25                 string size (37)
164F  54656C65706F7274+  "Teleport"
1657  416E644661646520+  "AndFade "
165F  6D697373696E6720+  "missing "
1667  776179706F696E74+  "waypoint"
166F  20696E2000         " in \0"
                         const [144]: "TeleportAndFade missing waypoint in "
1674  01                 const type 3
1675  E0C80A6A           const [145]: (1779091680)
1679  04                 const type 4
167A  19                 string size (25)
167B  636C6F7365446573+  "closeDes"
1683  74696E6174696F6E+  "tination"
168B  54656C65706F7274+  "Teleport"
1693  00                 "\0"
                         const [146]: "closeDestinationTeleport"
1694  04                 const type 4
1695  03                 string size (3)
1696  323000             "20\0"
                         const [147]: "20"
1699  01                 const type 3
169A  9949140F           const [148]: (252987801)
169E  01                 const type 3
169F  1A4B27EC           const [149]: (-332969190)
16A3  04                 const type 4
16A4  10                 string size (16)
16A5  436C6F736554656C+  "CloseTel"
16AD  65706F7274657200   "eporter\0"
                         const [150]: "CloseTeleporter"
16B5  01                 const type 3
16B6  B786588D           const [151]: (-1923578185)
16BA  04                 const type 4
16BB  0C                 string size (12)
16BC  5472696767657250+  "TriggerP"
16C4  6F727400           "ort\0"
                         const [152]: "TriggerPort"
16C8  04                 const type 4
16C9  12                 string size (18)
16CA  54656C65706F7274+  "Teleport"
16D2  416E64466164653A+  "AndFade:"
16DA  2000               " \0"
                         const [153]: "TeleportAndFade: "
16DC  04                 const type 4
16DD  02                 string size (2)
16DE  2000               " \0"
                         const [154]: " "
16E0  04                 const type 4
16E1  05                 string size (5)
16E2  202D3E2000         " -> \0"
                         const [155]: " -> "
16E7  01                 const type 3
16E8  BCD6AE9F           const [156]: (-1615931716)
                         * functions:
16EC  00                 sizep (0)
                         * lines:
16EE  07                 sizelineinfo (922)
                         [pc] (line)
16EF  41                 [001] (65)
16F0  00                 [002] (65)
16F1  00                 [003] (66)
16F2  00                 [004] (66)
16F3  41                 [005] (66)
16F4  00                 [006] (66)
16F5  00                 [007] (66)
16F6  00                 [008] (66)
16F7  42                 [009] (66)
16F8  00                 [010] (66)
16F9  00                 [011] (66)
16FA  00                 [012] (66)
16FB  42                 [013] (66)
16FC  00                 [014] (67)
16FD  00                 [015] (67)
16FE  00                 [016] (67)
16FF  42                 [017] (67)
1700  00                 [018] (67)
1701  00                 [019] (67)
1702  00                 [020] (67)
1703  42                 [021] (67)
1704  00                 [022] (67)
1705  00                 [023] (67)
1706  00                 [024] (67)
1707  42                 [025] (67)
1708  00                 [026] (67)
1709  00                 [027] (69)
170A  00                 [028] (69)
170B  42                 [029] (69)
170C  00                 [030] (69)
170D  00                 [031] (69)
170E  00                 [032] (69)
170F  42                 [033] (69)
1710  00                 [034] (70)
1711  00                 [035] (70)
1712  00                 [036] (73)
1713  42                 [037] (74)
1714  00                 [038] (74)
1715  00                 [039] (74)
1716  00                 [040] (74)
1717  42                 [041] (74)
1718  00                 [042] (75)
1719  00                 [043] (75)
171A  00                 [044] (76)
171B  42                 [045] (76)
171C  00                 [046] (76)
171D  00                 [047] (77)
171E  00                 [048] (74)
171F  42                 [049] (78)
1720  00                 [050] (81)
1721  00                 [051] (82)
1722  00                 [052] (82)
1723  43                 [053] (83)
1724  00                 [054] (83)
1725  00                 [055] (83)
1726  00                 [056] (86)
1727  43                 [057] (88)
1728  00                 [058] (88)
1729  00                 [059] (88)
172A  00                 [060] (88)
172B  43                 [061] (88)
172C  00                 [062] (88)
172D  00                 [063] (88)
172E  00                 [064] (88)
172F  43                 [065] (88)
1730  00                 [066] (88)
1731  00                 [067] (89)
1732  00                 [068] (89)
1733  43                 [069] (91)
1734  00                 [070] (91)
1735  00                 [071] (91)
1736  00                 [072] (91)
1737  43                 [073] (92)
1738  00                 [074] (92)
1739  00                 [075] (92)
173A  00                 [076] (92)
173B  43                 [077] (92)
173C  00                 [078] (92)
173D  00                 [079] (92)
173E  00                 [080] (92)
173F  43                 [081] (92)
1740  00                 [082] (93)
1741  00                 [083] (93)
1742  00                 [084] (93)
1743  43                 [085] (94)
1744  00                 [086] (97)
1745  00                 [087] (97)
1746  00                 [088] (97)
1747  43                 [089] (97)
1748  00                 [090] (97)
1749  00                 [091] (97)
174A  00                 [092] (97)
174B  43                 [093] (97)
174C  00                 [094] (97)
174D  00                 [095] (97)
174E  00                 [096] (98)
174F  43                 [097] (98)
1750  00                 [098] (98)
1751  00                 [099] (98)
1752  00                 [100] (98)
1753  43                 [101] (98)
1754  00                 [102] (99)
1755  00                 [103] (99)
1756  00                 [104] (99)
1757  45                 [105] (99)
1758  00                 [106] (99)
1759  00                 [107] (100)
175A  00                 [108] (100)
175B  45                 [109] (100)
175C  00                 [110] (101)
175D  00                 [111] (105)
175E  00                 [112] (105)
175F  45                 [113] (106)
1760  00                 [114] (106)
1761  00                 [115] (106)
1762  00                 [116] (106)
1763  45                 [117] (106)
1764  00                 [118] (107)
1765  00                 [119] (107)
1766  00                 [120] (107)
1767  45                 [121] (107)
1768  00                 [122] (107)
1769  00                 [123] (107)
176A  00                 [124] (107)
176B  45                 [125] (108)
176C  00                 [126] (109)
176D  00                 [127] (111)
176E  00                 [128] (111)
176F  45                 [129] (111)
1770  00                 [130] (111)
1771  00                 [131] (111)
1772  00                 [132] (112)
1773  46                 [133] (112)
1774  00                 [134] (113)
1775  00                 [135] (113)
1776  00                 [136] (113)
1777  46                 [137] (113)
1778  00                 [138] (113)
1779  00                 [139] (114)
177A  00                 [140] (114)
177B  49                 [141] (114)
177C  00                 [142] (115)
177D  00                 [143] (116)
177E  00                 [144] (118)
177F  4A                 [145] (118)
1780  00                 [146] (118)
1781  00                 [147] (119)
1782  00                 [148] (120)
1783  4A                 [149] (120)
1784  00                 [150] (120)
1785  00                 [151] (120)
1786  00                 [152] (120)
1787  4A                 [153] (120)
1788  00                 [154] (120)
1789  00                 [155] (120)
178A  00                 [156] (121)
178B  4A                 [157] (121)
178C  00                 [158] (122)
178D  00                 [159] (122)
178E  00                 [160] (122)
178F  4A                 [161] (122)
1790  00                 [162] (122)
1791  00                 [163] (123)
1792  00                 [164] (123)
1793  4B                 [165] (123)
1794  00                 [166] (124)
1795  00                 [167] (-128)
1796  00                 [168] (-128)
1797  4B                 [169] (-128)
1798  00                 [170] (-126)
1799  00                 [171] (-126)
179A  00                 [172] (-126)
179B  4C                 [173] (-126)
179C  00                 [174] (-126)
179D  00                 [175] (-126)
179E  00                 [176] (-126)
179F  4C                 [177] (-126)
17A0  00                 [178] (-126)
17A1  00                 [179] (-126)
17A2  00                 [180] (-126)
17A3  4C                 [181] (-126)
17A4  00                 [182] (-126)
17A5  00                 [183] (-126)
17A6  00                 [184] (-126)
17A7  4D                 [185] (-124)
17A8  00                 [186] (-124)
17A9  00                 [187] (-124)
17AA  00                 [188] (-123)
17AB  4A                 [189] (-122)
17AC  00                 [190] (-120)
17AD  00                 [191] (-120)
17AE  00                 [192] (-119)
17AF  4E                 [193] (-119)
17B0  00                 [194] (-119)
17B1  00                 [195] (-119)
17B2  00                 [196] (-119)
17B3  51                 [197] (-119)
17B4  00                 [198] (-119)
17B5  00                 [199] (-119)
17B6  00                 [200] (-119)
17B7  52                 [201] (-119)
17B8  00                 [202] (-119)
17B9  00                 [203] (-119)
17BA  00                 [204] (-118)
17BB  52                 [205] (-118)
17BC  00                 [206] (-118)
17BD  00                 [207] (-117)
17BE  00                 [208] (-117)
17BF  53                 [209] (-117)
17C0  00                 [210] (-116)
17C1  00                 [211] (-115)
17C2  00                 [212] (-115)
17C3  53                 [213] (-115)
17C4  00                 [214] (-115)
17C5  00                 [215] (-115)
17C6  00                 [216] (-115)
17C7  53                 [217] (-115)
17C8  00                 [218] (-115)
17C9  00                 [219] (-114)
17CA  00                 [220] (-114)
17CB  56                 [221] (-114)
17CC  00                 [222] (-113)
17CD  00                 [223] (-113)
17CE  00                 [224] (-113)
17CF  58                 [225] (-113)
17D0  00                 [226] (-113)
17D1  00                 [227] (-112)
17D2  00                 [228] (-112)
17D3  58                 [229] (-112)
17D4  00                 [230] (-111)
17D5  00                 [231] (-109)
17D6  00                 [232] (-108)
17D7  58                 [233] (-108)
17D8  00                 [234] (-108)
17D9  00                 [235] (-108)
17DA  00                 [236] (-107)
17DB  58                 [237] (-107)
17DC  00                 [238] (-107)
17DD  00                 [239] (-106)
17DE  00                 [240] (-105)
17DF  58                 [241] (-105)
17E0  00                 [242] (-105)
17E1  00                 [243] (-104)
17E2  00                 [244] (-104)
17E3  58                 [245] (-104)
17E4  00                 [246] (-104)
17E5  00                 [247] (-104)
17E6  00                 [248] (-104)
17E7  58                 [249] (-103)
17E8  00                 [250] (-103)
17E9  00                 [251] (-103)
17EA  00                 [252] (-103)
17EB  58                 [253] (-103)
17EC  00                 [254] (-103)
17ED  00                 [255] (-103)
17EE  00                 [256] (-103)
17EF  58                 [257] (-102)
17F0  00                 [258] (-102)
17F1  00                 [259] (-102)
17F2  00                 [260] (-102)
17F3  58                 [261] (-102)
17F4  00                 [262] (-101)
17F5  00                 [263] (-101)
17F6  00                 [264] (-101)
17F7  59                 [265] (-101)
17F8  00                 [266] (-101)
17F9  00                 [267] (-100)
17FA  00                 [268] (-100)
17FB  59                 [269] (-100)
17FC  00                 [270] (-99)
17FD  00                 [271] (-99)
17FE  00                 [272] (-99)
17FF  5B                 [273] (-98)
1800  00                 [274] (-98)
1801  00                 [275] (-98)
1802  00                 [276] (-98)
1803  5B                 [277] (-98)
1804  00                 [278] (-98)
1805  00                 [279] (-98)
1806  00                 [280] (-98)
1807  5B                 [281] (-98)
1808  00                 [282] (-98)
1809  00                 [283] (-98)
180A  00                 [284] (-98)
180B  5B                 [285] (-98)
180C  00                 [286] (-98)
180D  00                 [287] (-97)
180E  00                 [288] (-96)
180F  5C                 [289] (-96)
1810  00                 [290] (-96)
1811  00                 [291] (-96)
1812  00                 [292] (-95)
1813  5C                 [293] (-95)
1814  00                 [294] (-95)
1815  00                 [295] (-95)
1816  00                 [296] (-95)
1817  5C                 [297] (-95)
1818  00                 [298] (-95)
1819  00                 [299] (-95)
181A  00                 [300] (-95)
181B  5C                 [301] (-92)
181C  00                 [302] (-90)
181D  00                 [303] (-90)
181E  00                 [304] (-89)
181F  5C                 [305] (-89)
1820  00                 [306] (-89)
1821  00                 [307] (-89)
1822  00                 [308] (-89)
1823  5C                 [309] (-89)
1824  00                 [310] (-89)
1825  00                 [311] (-89)
1826  00                 [312] (-89)
1827  5C                 [313] (-89)
1828  00                 [314] (-89)
1829  00                 [315] (-89)
182A  00                 [316] (-89)
182B  5C                 [317] (-89)
182C  00                 [318] (-89)
182D  00                 [319] (-88)
182E  00                 [320] (-87)
182F  5C                 [321] (-87)
1830  00                 [322] (-86)
1831  00                 [323] (-86)
1832  00                 [324] (-86)
1833  5D                 [325] (-86)
1834  00                 [326] (-86)
1835  00                 [327] (-86)
1836  00                 [328] (-86)
1837  5D                 [329] (-86)
1838  00                 [330] (-83)
1839  00                 [331] (-83)
183A  00                 [332] (-83)
183B  5D                 [333] (-83)
183C  00                 [334] (-83)
183D  00                 [335] (-83)
183E  00                 [336] (-83)
183F  5E                 [337] (-82)
1840  00                 [338] (-82)
1841  00                 [339] (-82)
1842  00                 [340] (-82)
1843  61                 [341] (-82)
1844  00                 [342] (-82)
1845  00                 [343] (-82)
1846  00                 [344] (-81)
1847  61                 [345] (-81)
1848  00                 [346] (-81)
1849  00                 [347] (-80)
184A  00                 [348] (-80)
184B  61                 [349] (-80)
184C  00                 [350] (-79)
184D  00                 [351] (-78)
184E  00                 [352] (-78)
184F  61                 [353] (-78)
1850  00                 [354] (-78)
1851  00                 [355] (-78)
1852  00                 [356] (-78)
1853  61                 [357] (-77)
1854  00                 [358] (-77)
1855  00                 [359] (-77)
1856  00                 [360] (-77)
1857  61                 [361] (-77)
1858  00                 [362] (-76)
1859  00                 [363] (-76)
185A  00                 [364] (-76)
185B  61                 [365] (-76)
185C  00                 [366] (-76)
185D  00                 [367] (-76)
185E  00                 [368] (-76)
185F  61                 [369] (-75)
1860  00                 [370] (-75)
1861  00                 [371] (-74)
1862  00                 [372] (-74)
1863  61                 [373] (-74)
1864  00                 [374] (-74)
1865  00                 [375] (-74)
1866  00                 [376] (-73)
1867  61                 [377] (-73)
1868  00                 [378] (-73)
1869  00                 [379] (-73)
186A  00                 [380] (-72)
186B  62                 [381] (-72)
186C  00                 [382] (-72)
186D  00                 [383] (-72)
186E  00                 [384] (-71)
186F  62                 [385] (-70)
1870  00                 [386] (-70)
1871  00                 [387] (-70)
1872  00                 [388] (-70)
1873  62                 [389] (-70)
1874  00                 [390] (-70)
1875  00                 [391] (-70)
1876  00                 [392] (-70)
1877  62                 [393] (-70)
1878  00                 [394] (-70)
1879  00                 [395] (-69)
187A  00                 [396] (-68)
187B  62                 [397] (-68)
187C  00                 [398] (-68)
187D  00                 [399] (-68)
187E  00                 [400] (-68)
187F  62                 [401] (-67)
1880  00                 [402] (-67)
1881  00                 [403] (-67)
1882  00                 [404] (-67)
1883  63                 [405] (-66)
1884  00                 [406] (-66)
1885  00                 [407] (-66)
1886  00                 [408] (-66)
1887  63                 [409] (-65)
1888  00                 [410] (-64)
1889  00                 [411] (-64)
188A  00                 [412] (-64)
188B  63                 [413] (-64)
188C  00                 [414] (-63)
188D  00                 [415] (-63)
188E  00                 [416] (-63)
188F  63                 [417] (-63)
1890  00                 [418] (-63)
1891  00                 [419] (-63)
1892  00                 [420] (-63)
1893  63                 [421] (-63)
1894  00                 [422] (-63)
1895  00                 [423] (-63)
1896  00                 [424] (-62)
1897  64                 [425] (-61)
1898  00                 [426] (-61)
1899  00                 [427] (-61)
189A  00                 [428] (-61)
189B  64                 [429] (-61)
189C  00                 [430] (-61)
189D  00                 [431] (-61)
189E  00                 [432] (-61)
189F  64                 [433] (-59)
18A0  00                 [434] (-59)
18A1  00                 [435] (-59)
18A2  00                 [436] (-59)
18A3  65                 [437] (-59)
18A4  00                 [438] (-59)
18A5  00                 [439] (-58)
18A6  00                 [440] (-58)
18A7  69                 [441] (-58)
18A8  00                 [442] (-58)
18A9  00                 [443] (-58)
18AA  00                 [444] (-57)
18AB  69                 [445] (-57)
18AC  00                 [446] (-57)
18AD  00                 [447] (-56)
18AE  00                 [448] (-56)
18AF  6A                 [449] (-56)
18B0  00                 [450] (-55)
18B1  00                 [451] (-54)
18B2  00                 [452] (-54)
18B3  6A                 [453] (-54)
18B4  00                 [454] (-54)
18B5  00                 [455] (-53)
18B6  00                 [456] (-53)
18B7  6A                 [457] (-53)
18B8  00                 [458] (-53)
18B9  00                 [459] (-53)
18BA  00                 [460] (-53)
18BB  6A                 [461] (-53)
18BC  00                 [462] (-53)
18BD  00                 [463] (-53)
18BE  00                 [464] (-48)
18BF  6A                 [465] (-48)
18C0  00                 [466] (-48)
18C1  00                 [467] (-48)
18C2  00                 [468] (-47)
18C3  6B                 [469] (-46)
18C4  00                 [470] (-46)
18C5  00                 [471] (-46)
18C6  00                 [472] (-46)
18C7  6B                 [473] (-46)
18C8  00                 [474] (-45)
18C9  00                 [475] (-45)
18CA  00                 [476] (-45)
18CB  6B                 [477] (-45)
18CC  00                 [478] (-45)
18CD  00                 [479] (-45)
18CE  00                 [480] (-44)
18CF  6B                 [481] (-44)
18D0  00                 [482] (-44)
18D1  00                 [483] (-44)
18D2  00                 [484] (-44)
18D3  6B                 [485] (-44)
18D4  00                 [486] (-46)
18D5  00                 [487] (-41)
18D6  00                 [488] (-41)
18D7  6B                 [489] (-41)
18D8  00                 [490] (-41)
18D9  00                 [491] (-41)
18DA  00                 [492] (-41)
18DB  6B                 [493] (-41)
18DC  00                 [494] (-41)
18DD  00                 [495] (-41)
18DE  00                 [496] (-41)
18DF  6C                 [497] (-41)
18E0  00                 [498] (-40)
18E1  00                 [499] (-40)
18E2  00                 [500] (-40)
18E3  6D                 [501] (-40)
18E4  00                 [502] (-39)
18E5  00                 [503] (-39)
18E6  00                 [504] (-39)
18E7  6F                 [505] (-39)
18E8  00                 [506] (-39)
18E9  00                 [507] (-38)
18EA  00                 [508] (-38)
18EB  6F                 [509] (-38)
18EC  00                 [510] (-38)
18ED  00                 [511] (-37)
18EE  00                 [512] (-37)
18EF  6F                 [513] (-37)
18F0  00                 [514] (-37)
18F1  00                 [515] (-36)
18F2  00                 [516] (-35)
18F3  6F                 [517] (-35)
18F4  00                 [518] (-35)
18F5  00                 [519] (-35)
18F6  00                 [520] (-35)
18F7  6F                 [521] (-35)
18F8  00                 [522] (-35)
18F9  00                 [523] (-35)
18FA  00                 [524] (-35)
18FB  70                 [525] (-35)
18FC  00                 [526] (-30)
18FD  00                 [527] (-30)
18FE  00                 [528] (-29)
18FF  70                 [529] (-29)
1900  00                 [530] (-29)
1901  00                 [531] (-29)
1902  00                 [532] (-29)
1903  71                 [533] (-28)
1904  00                 [534] (-28)
1905  00                 [535] (-28)
1906  00                 [536] (-28)
1907  71                 [537] (-28)
1908  00                 [538] (-27)
1909  00                 [539] (-27)
190A  00                 [540] (-26)
190B  71                 [541] (-26)
190C  00                 [542] (-25)
190D  00                 [543] (-25)
190E  00                 [544] (-24)
190F  71                 [545] (-24)
1910  00                 [546] (-24)
1911  00                 [547] (-24)
1912  00                 [548] (-24)
1913  71                 [549] (-22)
1914  00                 [550] (-22)
1915  00                 [551] (-21)
1916  00                 [552] (-21)
1917  72                 [553] (-21)
1918  00                 [554] (-21)
1919  00                 [555] (-21)
191A  00                 [556] (-16)
191B  72                 [557] (-16)
191C  00                 [558] (-15)
191D  00                 [559] (-15)
191E  00                 [560] (-15)
191F  72                 [561] (-15)
1920  00                 [562] (-14)
1921  00                 [563] (-14)
1922  00                 [564] (-14)
1923  73                 [565] (-14)
1924  00                 [566] (-14)
1925  00                 [567] (-14)
1926  00                 [568] (-14)
1927  74                 [569] (-13)
1928  00                 [570] (-13)
1929  00                 [571] (-13)
192A  00                 [572] (-13)
192B  76                 [573] (-13)
192C  00                 [574] (-13)
192D  00                 [575] (-13)
192E  00                 [576] (-13)
192F  76                 [577] (-13)
1930  00                 [578] (-13)
1931  00                 [579] (-13)
1932  00                 [580] (-12)
1933  76                 [581] (-12)
1934  00                 [582] (-12)
1935  00                 [583] (-12)
1936  00                 [584] (-12)
1937  77                 [585] (-12)
1938  00                 [586] (-12)
1939  00                 [587] (-12)
193A  00                 [588] (-12)
193B  78                 [589] (-10)
193C  00                 [590] (-10)
193D  00                 [591] (-10)
193E  00                 [592] (-10)
193F  78                 [593] (-8)
1940  00                 [594] (-8)
1941  00                 [595] (-8)
1942  00                 [596] (-8)
1943  78                 [597] (-8)
1944  00                 [598] (-8)
1945  00                 [599] (-7)
1946  00                 [600] (-7)
1947  78                 [601] (-7)
1948  00                 [602] (-7)
1949  00                 [603] (-7)
194A  00                 [604] (-7)
194B  78                 [605] (-7)
194C  00                 [606] (-7)
194D  00                 [607] (-7)
194E  00                 [608] (-7)
194F  78                 [609] (-7)
1950  00                 [610] (-6)
1951  00                 [611] (-6)
1952  00                 [612] (-6)
1953  78                 [613] (-6)
1954  00                 [614] (-6)
1955  00                 [615] (-6)
1956  00                 [616] (-3)
1957  78                 [617] (-3)
1958  00                 [618] (-3)
1959  00                 [619] (-3)
195A  00                 [620] (-2)
195B  79                 [621] (-2)
195C  00                 [622] (-2)
195D  00                 [623] (-2)
195E  00                 [624] (-2)
195F  79                 [625] (-1)
1960  00                 [626] (-1)
1961  00                 [627] (-1)
1962  00                 [628] (-1)
1963  7A                 [629] (-1)
1964  00                 [630] (-1)
1965  00                 [631] (2)
1966  00                 [632] (2)
1967  7A                 [633] (2)
1968  00                 [634] (2)
1969  00                 [635] (2)
196A  00                 [636] (4)
196B  7A                 [637] (4)
196C  00                 [638] (4)
196D  00                 [639] (4)
196E  00                 [640] (6)
196F  7A                 [641] (6)
1970  00                 [642] (7)
1971  00                 [643] (7)
1972  00                 [644] (7)
1973  7A                 [645] (8)
1974  00                 [646] (8)
1975  00                 [647] (8)
1976  00                 [648] (8)
1977  7B                 [649] (8)
1978  00                 [650] (8)
1979  00                 [651] (8)
197A  00                 [652] (10)
197B  7B                 [653] (10)
197C  00                 [654] (10)
197D  00                 [655] (11)
197E  00                 [656] (11)
197F  7B                 [657] (11)
1980  00                 [658] (12)
1981  00                 [659] (12)
1982  00                 [660] (12)
1983  7C                 [661] (12)
1984  00                 [662] (13)
1985  00                 [663] (13)
1986  00                 [664] (13)
1987  80                 [665] (15)
1988  00                 [666] (15)
1989  00                 [667] (15)
198A  00                 [668] (16)
198B  80                 [669] (16)
198C  00                 [670] (16)
198D  00                 [671] (17)
198E  00                 [672] (17)
198F  80                 [673] (17)
1990  00                 [674] (17)
1991  00                 [675] (17)
1992  00                 [676] (19)
1993  82                 [677] (19)
1994  00                 [678] (20)
1995  00                 [679] (20)
1996  00                 [680] (21)
1997  82                 [681] (21)
1998  00                 [682] (21)
1999  00                 [683] (21)
199A  00                 [684] (21)
199B  82                 [685] (22)
199C  00                 [686] (22)
199D  00                 [687] (23)
199E  00                 [688] (23)
199F  82                 [689] (23)
19A0  00                 [690] (23)
19A1  00                 [691] (23)
19A2  00                 [692] (23)
19A3  82                 [693] (24)
19A4  00                 [694] (24)
19A5  00                 [695] (24)
19A6  00                 [696] (26)
19A7  82                 [697] (26)
19A8  00                 [698] (27)
19A9  00                 [699] (27)
19AA  00                 [700] (27)
19AB  82                 [701] (27)
19AC  00                 [702] (28)
19AD  00                 [703] (28)
19AE  00                 [704] (28)
19AF  82                 [705] (28)
19B0  00                 [706] (28)
19B1  00                 [707] (28)
19B2  00                 [708] (28)
19B3  82                 [709] (28)
19B4  00                 [710] (28)
19B5  00                 [711] (28)
19B6  00                 [712] (28)
19B7  82                 [713] (29)
19B8  00                 [714] (29)
19B9  00                 [715] (29)
19BA  00                 [716] (29)
19BB  82                 [717] (34)
19BC  00                 [718] (34)
19BD  00                 [719] (34)
19BE  00                 [720] (35)
19BF  82                 [721] (35)
19C0  00                 [722] (35)
19C1  00                 [723] (35)
19C2  00                 [724] (36)
19C3  82                 [725] (36)
19C4  00                 [726] (36)
19C5  00                 [727] (37)
19C6  00                 [728] (37)
19C7  82                 [729] (37)
19C8  00                 [730] (37)
19C9  00                 [731] (37)
19CA  00                 [732] (39)
19CB  82                 [733] (39)
19CC  00                 [734] (39)
19CD  00                 [735] (39)
19CE  00                 [736] (39)
19CF  84                 [737] (39)
19D0  00                 [738] (39)
19D1  00                 [739] (41)
19D2  00                 [740] (41)
19D3  84                 [741] (41)
19D4  00                 [742] (41)
19D5  00                 [743] (41)
19D6  00                 [744] (41)
19D7  84                 [745] (42)
19D8  00                 [746] (42)
19D9  00                 [747] (42)
19DA  00                 [748] (43)
19DB  85                 [749] (43)
19DC  00                 [750] (45)
19DD  00                 [751] (45)
19DE  00                 [752] (45)
19DF  86                 [753] (46)
19E0  00                 [754] (48)
19E1  00                 [755] (48)
19E2  00                 [756] (48)
19E3  88                 [757] (48)
19E4  00                 [758] (48)
19E5  00                 [759] (48)
19E6  00                 [760] (48)
19E7  88                 [761] (48)
19E8  00                 [762] (48)
19E9  00                 [763] (48)
19EA  00                 [764] (48)
19EB  89                 [765] (49)
19EC  00                 [766] (49)
19ED  00                 [767] (49)
19EE  00                 [768] (50)
19EF  89                 [769] (50)
19F0  00                 [770] (50)
19F1  00                 [771] (50)
19F2  00                 [772] (50)
19F3  89                 [773] (53)
19F4  00                 [774] (53)
19F5  00                 [775] (53)
19F6  00                 [776] (53)
19F7  89                 [777] (53)
19F8  00                 [778] (54)
19F9  00                 [779] (54)
19FA  00                 [780] (55)
19FB  89                 [781] (55)
19FC  00                 [782] (56)
19FD  00                 [783] (56)
19FE  00                 [784] (57)
19FF  89                 [785] (57)
1A00  00                 [786] (60)
1A01  00                 [787] (60)
1A02  00                 [788] (61)
1A03  89                 [789] (61)
1A04  00                 [790] (61)
1A05  00                 [791] (62)
1A06  00                 [792] (64)
1A07  89                 [793] (64)
1A08  00                 [794] (64)
1A09  00                 [795] (64)
1A0A  00                 [796] (64)
1A0B  89                 [797] (64)
1A0C  00                 [798] (64)
1A0D  00                 [799] (64)
1A0E  00                 [800] (64)
1A0F  89                 [801] (66)
1A10  00                 [802] (66)
1A11  00                 [803] (68)
1A12  00                 [804] (68)
1A13  89                 [805] (68)
1A14  00                 [806] (68)
1A15  00                 [807] (68)
1A16  00                 [808] (69)
1A17  89                 [809] (69)
1A18  00                 [810] (70)
1A19  00                 [811] (70)
1A1A  00                 [812] (70)
1A1B  8A                 [813] (70)
1A1C  00                 [814] (70)
1A1D  00                 [815] (71)
1A1E  00                 [816] (71)
1A1F  8A                 [817] (72)
1A20  00                 [818] (72)
1A21  00                 [819] (72)
1A22  00                 [820] (72)
1A23  8A                 [821] (72)
1A24  00                 [822] (72)
1A25  00                 [823] (72)
1A26  00                 [824] (73)
1A27  8B                 [825] (73)
1A28  00                 [826] (73)
1A29  00                 [827] (73)
1A2A  00                 [828] (73)
1A2B  8B                 [829] (79)
1A2C  00                 [830] (79)
1A2D  00                 [831] (79)
1A2E  00                 [832] (80)
1A2F  8B                 [833] (80)
1A30  00                 [834] (80)
1A31  00                 [835] (80)
1A32  00                 [836] (80)
1A33  8C                 [837] (82)
1A34  00                 [838] (82)
1A35  00                 [839] (82)
1A36  00                 [840] (82)
1A37  8D                 [841] (82)
1A38  00                 [842] (82)
1A39  00                 [843] (89)
1A3A  00                 [844] (89)
1A3B  8D                 [845] (90)
1A3C  00                 [846] (90)
1A3D  00                 [847] (90)
1A3E  00                 [848] (90)
1A3F  8D                 [849] (90)
1A40  00                 [850] (91)
1A41  00                 [851] (91)
1A42  00                 [852] (91)
1A43  8D                 [853] (91)
1A44  00                 [854] (91)
1A45  00                 [855] (92)
1A46  00                 [856] (92)
1A47  8D                 [857] (93)
1A48  00                 [858] (93)
1A49  00                 [859] (94)
1A4A  00                 [860] (94)
1A4B  8D                 [861] (95)
1A4C  00                 [862] (95)
1A4D  00                 [863] (95)
1A4E  00                 [864] (95)
1A4F  8D                 [865] (95)
1A50  00                 [866] (97)
1A51  00                 [867] (97)
1A52  00                 [868] (98)
1A53  8D                 [869] (98)
1A54  00                 [870] (98)
1A55  00                 [871] (98)
1A56  00                 [872] (98)
1A57  8E                 [873] (103)
1A58  00                 [874] (103)
1A59  00                 [875] (103)
1A5A  00                 [876] (103)
1A5B  8E                 [877] (103)
1A5C  00                 [878] (103)
1A5D  00                 [879] (103)
1A5E  00                 [880] (103)
1A5F  8E                 [881] (104)
1A60  00                 [882] (104)
1A61  00                 [883] (104)
1A62  00                 [884] (104)
1A63  8F                 [885] (105)
1A64  00                 [886] (106)
1A65  00                 [887] (106)
1A66  00                 [888] (106)
1A67  8F                 [889] (106)
1A68  00                 [890] (106)
1A69  00                 [891] (106)
1A6A  00                 [892] (106)
1A6B  8F                 [893] (106)
1A6C  00                 [894] (106)
1A6D  00                 [895] (107)
1A6E  00                 [896] (107)
1A6F  8F                 [897] (107)
1A70  00                 [898] (107)
1A71  00                 [899] (107)
1A72  00                 [900] (107)
1A73  8F                 [901] (107)
1A74  00                 [902] (107)
1A75  00                 [903] (108)
1A76  00                 [904] (108)
1A77  90                 [905] (108)
1A78  00                 [906] (108)
1A79  00                 [907] (112)
1A7A  00                 [908] (112)
1A7B  90                 [909] (112)
1A7C  00                 [910] (112)
1A7D  00                 [911] (112)
1A7E  00                 [912] (112)
1A7F  90                 [913] (112)
1A80  00                 [914] (112)
1A81  00                 [915] (112)
1A82  00                 [916] (112)
1A83  91                 [917] (112)
1A84  00                 [918] (112)
1A85  00                 [919] (112)
1A86  00                 [920] (112)
1A87  93                 [921] (112)
1A88  00                 [922] (113)
                         * locals:
2557  00                 sizelocvars (0)
                         * upvalues:
2558  00                 sizeupvalues (0)
                         ** end of function **

                         
2559                     ** function [2] definition (level 2)
                         ** start of function **
2559  00                 string size (0)
                         source name: (none)
255B  02                 line defined (372)
255C  9E                 last line defined (414)
255D  03                 nups (0)
255E  00                 numparams (3)
255F  03                 is_vararg (0)
2560  00                 maxstacksize (12)
                         * code:
2562  51                 sizecode (81)
2563  DD000000           [01] getglobal  3   0        ; 1074689893
2567  24414000           [02] self       4   0   257  ; -1764426596
256B  22010001           [03] call       4   2   0  
256F  E2800000           [04] call       3   0   2  
2573  D8000000           [05] test       3       0    ; to [7] if true
2577  1A000080           [06] jmp        1            ; to [8]
257B  1E008000           [07] return     0   1      
257F  DD800000           [08] getglobal  3   2        ; 538022378
2583  19C10000           [09] loadk      4   3        ; 10
2587  E2400001           [10] call       3   2   1  
258B  DD000100           [11] getglobal  3   4        ; gRegion
258F  E440C101           [12] self       3   3   261  ; -1456226250
2593  E2800001           [13] call       3   2   2  
2597  CE80C101           [14] gettable   3   3   262  ; "postProcess"
259B  0EC1C101           [15] gettable   4   3   263  ; "fade"
259F  46018002           [16] loadnil    5   5      
25A3  9D010000           [17] getglobal  6   0        ; 1074689893
25A7  DD010200           [18] getglobal  7   8        ; postProcessVolumeToFade
25AB  A2810001           [19] call       6   2   2  
25AF  98410000           [20] test       6       1    ; to [22] if false
25B3  1AC00080           [21] jmp        4            ; to [26]
25B7  9D010200           [22] getglobal  6   8        ; postProcessVolumeToFade
25BB  A4414203           [23] self       6   6   265  ; 1262778870
25BF  A2810001           [24] call       6   2   2  
25C3  52010003           [25] move       5   6      
25C7  9D810000           [26] getglobal  6   2        ; 538022378
25CB  DD810200           [27] getglobal  7   10       ; initialDelay
25CF  A2410001           [28] call       6   2   1  
fail op	35
25D3  23C0C200           [29] close      0  
25D7  1A400280           [30] jmp        10           ; to [41]
25DB  CC808083           [31] settable   3   263 2    ; "fade"
25DF  9D010300           [32] getglobal  6   12       ; -1817107093
25E3  D9410300           [33] loadk      7   13       ; "PPF: TeleportAndFadeInstant: "
25E7  0EC2C101           [34] gettable   8   3   263  ; "fade"
25EB  C2018203           [35] concat     7   7   8  
25EF  A2410001           [36] call       6   2   1  
25F3  9D810000           [37] getglobal  6   2        ; 538022378
25F7  D9C10200           [38] loadk      7   11       ; 0
25FB  A2410001           [39] call       6   2   1  
25FF  1E008000           [40] return     0   1      
2603  99C10200           [41] loadk      6   11       ; 0
2607  C6018003           [42] loadnil    7   7      
fail op	21
260B  15804303           [43] concat     0   6   270
260F  1A000580           [44] jmp        21           ; to [66]
2613  1DC20300           [45] getglobal  8   15       ; -1828500651
2617  52020002           [46] move       9   4      
261B  92020001           [47] move       10  2      
261F  D2020003           [48] move       11  6      
2623  22820002           [49] call       8   4   2  
2627  D2010004           [50] move       7   8      
262B  CCC08183           [51] settable   3   263 7    ; "fade"
262F  1D020000           [52] getglobal  8   0        ; 1074689893
2633  52028002           [53] move       9   5      
2637  22820001           [54] call       8   2   2  
263B  18420000           [55] test       8       1    ; to [57] if false
263F  1A000080           [56] jmp        1            ; to [58]
2643  4CC18183           [57] settable   5   263 7    ; "fade"
2647  1D020400           [58] getglobal  8   16       ; 1289681407
264B  22828000           [59] call       8   1   2  
264F  1C420004           [60] div        8   8   1  
2653  83010203           [61] add        6   6   8  
2657  1D820000           [62] getglobal  8   2        ; 538022378
265B  59C20200           [63] loadk      9   11       ; 0
265F  22420001           [64] call       8   2   1  
2663  1A00FA7F           [65] jmp        -23          ; to [43]
2667  1D020000           [66] getglobal  8   0        ; 1074689893
266B  52028002           [67] move       9   5      
266F  22820001           [68] call       8   2   2  
2673  18420000           [69] test       8       1    ; to [71] if false
2677  1A000080           [70] jmp        1            ; to [72]
267B  4C818083           [71] settable   5   263 2    ; "fade"
267F  CC808083           [72] settable   3   263 2    ; "fade"
2683  1D020300           [73] getglobal  8   12       ; -1817107093
2687  59420400           [74] loadk      9   17       ; "PPF: TeleportAndFadeEnd: "
268B  8EC2C101           [75] gettable   10  3   263  ; "fade"
268F  42828204           [76] concat     9   9   10 
2693  22420001           [77] call       8   2   1  
2697  1D820000           [78] getglobal  8   2        ; 538022378
269B  59C20200           [79] loadk      9   11       ; 0
269F  22420001           [80] call       8   2   1  
26A3  1E008000           [81] return     0   1      
                         * constants:
26A7  12                 sizek (18)
26A8  01                 const type 3
26A9  65770E40           const [0]: (1074689893)
26AD  01                 const type 3
26AE  9CFCD496           const [1]: (-1764426596)
26B2  01                 const type 3
26B3  EA911120           const [2]: (538022378)
26B7  03                 const type 3
26B8  0AD7233C           const [3]: (10)
26BC  04                 const type 4
26BD  08                 string size (8)
26BE  67526567696F6E00   "gRegion\0"
                         const [4]: "gRegion"
26C6  01                 const type 3
26C7  36C033A9           const [5]: (-1456226250)
26CB  04                 const type 4
26CC  0C                 string size (12)
26CD  706F737450726F63+  "postProc"
26D5  65737300           "ess\0"
                         const [6]: "postProcess"
26D9  04                 const type 4
26DA  05                 string size (5)
26DB  6661646500         "fade\0"
                         const [7]: "fade"
26E0  04                 const type 4
26E1  18                 string size (24)
26E2  706F737450726F63+  "postProc"
26EA  657373566F6C756D+  "essVolum"
26F2  65546F4661646500   "eToFade\0"
                         const [8]: "postProcessVolumeToFade"
26FA  01                 const type 3
26FB  F679444B           const [9]: (1262778870)
26FF  04                 const type 4
2700  0D                 string size (13)
2701  696E697469616C44+  "initialD"
2709  656C617900         "elay\0"
                         const [10]: "initialDelay"
270E  03                 const type 3
270F  00000000           const [11]: (0)
2713  01                 const type 3
2714  6B25B193           const [12]: (-1817107093)
2718  04                 const type 4
2719  1E                 string size (30)
271A  5050463A2054656C+  "PPF: Tel"
2722  65706F7274416E64+  "eportAnd"
272A  46616465496E7374+  "FadeInst"
2732  616E743A2000       "ant: \0"
                         const [13]: "PPF: TeleportAndFadeInstant: "
2738  03                 const type 3
2739  0000803F           const [14]: (0)
273D  01                 const type 3
273E  554B0393           const [15]: (-1828500651)
2742  01                 const type 3
2743  FFF9DE4C           const [16]: (1289681407)
2747  04                 const type 4
2748  1A                 string size (26)
2749  5050463A2054656C+  "PPF: Tel"
2751  65706F7274416E64+  "eportAnd"
2759  46616465456E643A+  "FadeEnd:"
2761  2000               " \0"
                         const [17]: "PPF: TeleportAndFadeEnd: "
                         * functions:
2763  00                 sizep (0)
                         * lines:
2764  51                 sizelineinfo (81)
                         [pc] (line)
2765  75                 [01] (117)
2766  01                 [02] (117)
2767  00                 [03] (117)
2768  00                 [04] (117)
2769  75                 [05] (117)
276A  01                 [06] (117)
276B  00                 [07] (118)
276C  00                 [08] (121)
276D  75                 [09] (121)
276E  01                 [10] (121)
276F  00                 [11] (122)
2770  00                 [12] (122)
2771  75                 [13] (122)
2772  01                 [14] (122)
2773  00                 [15] (123)
2774  00                 [16] (124)
2775  75                 [17] (125)
2776  01                 [18] (125)
2777  00                 [19] (125)
2778  00                 [20] (125)
2779  75                 [21] (125)
277A  01                 [22] (126)
277B  00                 [23] (126)
277C  00                 [24] (126)
277D  76                 [25] (126)
277E  01                 [26] (-128)
277F  00                 [27] (-128)
2780  00                 [28] (-128)
2781  79                 [29] (-126)
2782  01                 [30] (-126)
2783  00                 [31] (-125)
2784  00                 [32] (-124)
2785  79                 [33] (-124)
2786  01                 [34] (-124)
2787  00                 [35] (-124)
2788  00                 [36] (-124)
2789  79                 [37] (-123)
278A  01                 [38] (-123)
278B  00                 [39] (-123)
278C  00                 [40] (-122)
278D  7A                 [41] (-119)
278E  01                 [42] (-118)
278F  00                 [43] (-116)
2790  00                 [44] (-116)
2791  7A                 [45] (-115)
2792  01                 [46] (-115)
2793  00                 [47] (-115)
2794  00                 [48] (-115)
2795  7A                 [49] (-115)
2796  01                 [50] (-115)
2797  00                 [51] (-114)
2798  00                 [52] (-113)
2799  7A                 [53] (-113)
279A  01                 [54] (-113)
279B  00                 [55] (-113)
279C  00                 [56] (-113)
279D  7B                 [57] (-112)
279E  01                 [58] (-110)
279F  00                 [59] (-110)
27A0  00                 [60] (-110)
27A1  7C                 [61] (-110)
27A2  01                 [62] (-109)
27A3  00                 [63] (-109)
27A4  00                 [64] (-109)
27A5  7D                 [65] (-109)
27A6  01                 [66] (-106)
27A7  00                 [67] (-106)
27A8  00                 [68] (-106)
27A9  7D                 [69] (-106)
27AA  01                 [70] (-106)
27AB  00                 [71] (-105)
27AC  00                 [72] (-102)
27AD  7D                 [73] (-101)
27AE  01                 [74] (-101)
27AF  00                 [75] (-101)
27B0  00                 [76] (-101)
27B1  7D                 [77] (-101)
27B2  01                 [78] (-100)
27B3  00                 [79] (-100)
27B4  00                 [80] (-100)
27B5  7D                 [81] (-98)
                         * locals:
28A9  00                 sizelocvars (0)
                         * upvalues:
28AA  00                 sizeupvalues (0)
                         ** end of function **

                         
28AB                     ** function [3] definition (level 2)
                         ** start of function **
28AB  00                 string size (0)
                         source name: (none)
28AD  03                 line defined (416)
28AE  9E                 last line defined (542)
28AF  04                 nups (2)
28B0  02                 numparams (2)
28B1  02                 is_vararg (0)
28B2  00                 maxstacksize (23)
                         * code:
28B5  02                 sizecode (362)
28B6  9D000000           [001] getglobal  2   0        ; 1074689893
28BA  D2000000           [002] move       3   0      
28BE  A2800001           [003] call       2   2   2  
28C2  98000000           [004] test       2       0    ; to [6] if true
28C6  1A000080           [005] jmp        1            ; to [7]
28CA  1E008000           [006] return     0   1      
28CE  A4404000           [007] self       2   0   257  ; -1957065004
28D2  1D810000           [008] getglobal  4   2        ; gLotusVehicleAvatarType
28D6  A2808001           [009] call       2   3   2  
28DA  98000000           [010] test       2       0    ; to [12] if true
28DE  1A800480           [011] jmp        19           ; to [31]
28E2  A4C04000           [012] self       2   0   259  ; 1604206412
28E6  A2800001           [013] call       2   2   2  
28EA  DD000000           [014] getglobal  3   0        ; 1074689893
28EE  12010001           [015] move       4   2      
28F2  E2800001           [016] call       3   2   2  
28F6  D8400000           [017] test       3       1    ; to [19] if false
28FA  1AC00280           [018] jmp        12           ; to [31]
28FE  E4004100           [019] self       3   0   260  ; 976802479
2902  52010001           [020] move       5   2      
2906  9D410100           [021] getglobal  6   5        ; 572299008
290A  A2818000           [022] call       6   1   2  
290E  D7018000           [023] loadbool   7   1   0    ; true
2912  E2408002           [024] call       3   5   1  
2916  E4804101           [025] self       3   2   262  ; -1302048094
291A  5DC10100           [026] getglobal  5   7        ; -332969190
291E  99010200           [027] loadk      6   8        ; "TeleportAndFade"
2922  62810001           [028] call       5   2   2  
2926  97010000           [029] loadbool   6   0   0    ; false
292A  E2400002           [030] call       3   4   1  
292E  E4404000           [031] self       3   0   257  ; -1957065004
2932  5D410200           [032] getglobal  5   9        ; 738251817
2936  99810200           [033] loadk      6   10       ; "/EE/Types/Engine/HitProxyPhysics"
293A  62010001           [034] call       5   2   0  
293E  E2800000           [035] call       3   0   2  
2942  D8000000           [036] test       3       0    ; to [38] if true
2946  1AC00A80           [037] jmp        44           ; to [82]
294A  D7000000           [038] loadbool   3   0   0    ; false
294E  24C14200           [039] self       4   0   267  ; 332067969
2952  22810001           [040] call       4   2   2  
2956  5D010000           [041] getglobal  5   0        ; 1074689893
295A  92010002           [042] move       6   4      
295E  62810001           [043] call       5   2   2  
2962  58410000           [044] test       5       1    ; to [46] if false
2966  1A000680           [045] jmp        25           ; to [71]
296A  64014302           [046] self       5   4   268  ; 1511086594
296E  62810001           [047] call       5   2   2  
2972  58410000           [048] test       5       1    ; to [50] if false
2976  1A000580           [049] jmp        21           ; to [71]
297A  64414002           [050] self       5   4   257  ; -1957065004
297E  DD410300           [051] getglobal  7   13       ; gTennoAvatarType
2982  62818001           [052] call       5   3   2  
2986  58010000           [053] test       5       0    ; to [55] if true
298A  1AC00280           [054] jmp        12           ; to [67]
298E  5D010000           [055] getglobal  5   0        ; 1074689893
2992  A4814302           [056] self       6   4   270  ; -242235676
2996  A2010001           [057] call       6   2   0  
299A  62810000           [058] call       5   0   2  
299E  58410000           [059] test       5       1    ; to [61] if false
29A2  1A400180           [060] jmp        6            ; to [67]
29A6  64C14302           [061] self       5   4   271  ; -1989965367
29AA  62810001           [062] call       5   2   2  
29AE  58010000           [063] test       5       0    ; to [65] if true
29B2  1A400080           [064] jmp        2            ; to [67]
29B6  D7008000           [065] loadbool   3   1   0    ; true
29BA  1AC00080           [066] jmp        4            ; to [71]
29BE  5D010400           [067] getglobal  5   16       ; teleportRagdolls
29C2  58010000           [068] test       5       0    ; to [70] if true
29C6  1A000080           [069] jmp        1            ; to [71]
29CA  D7008000           [070] loadbool   3   1   0    ; true
29CE  D8000000           [071] test       3       0    ; to [73] if true
29D2  1A000280           [072] jmp        9            ; to [82]
29D6  64414402           [073] self       5   4   273  ; 295533549
29DA  D7018000           [074] loadbool   7   1   0    ; true
29DE  62418001           [075] call       5   3   1  
29E2  64814102           [076] self       5   4   262  ; -1302048094
29E6  DDC10100           [077] getglobal  7   7        ; -332969190
29EA  19020200           [078] loadk      8   8        ; "TeleportAndFade"
29EE  E2810001           [079] call       7   2   2  
29F2  17020000           [080] loadbool   8   0   0    ; false
29F6  62410002           [081] call       5   4   1  
29FA  52010000           [082] move       5   0      
29FE  9D810400           [083] getglobal  6   18       ; tennoAvatarsOnly
2A02  98010000           [084] test       6       0    ; to [86] if true
2A06  1A400980           [085] jmp        38           ; to [124]
2A0A  A4414000           [086] self       6   0   257  ; -1957065004
2A0E  1D420300           [087] getglobal  8   13       ; gTennoAvatarType
2A12  A2818001           [088] call       6   3   2  
2A16  98410000           [089] test       6       1    ; to [91] if false
2A1A  1A000880           [090] jmp        33           ; to [124]
2A1E  A4414000           [091] self       6   0   257  ; -1957065004
2A22  1DC20400           [092] getglobal  8   19       ; gLotusOperatorAvatarType
2A26  A2818001           [093] call       6   3   2  
2A2A  98410000           [094] test       6       1    ; to [96] if false
2A2E  1AC00680           [095] jmp        28           ; to [124]
2A32  A4414000           [096] self       6   0   257  ; -1957065004
2A36  1D020500           [097] getglobal  8   20       ; tennoCloneAvatarType
2A3A  A2818001           [098] call       6   3   2  
2A3E  98410000           [099] test       6       1    ; to [101] if false
2A42  1A800580           [100] jmp        23           ; to [124]
2A46  A4414000           [101] self       6   0   257  ; -1957065004
2A4A  1D420500           [102] getglobal  8   21       ; gPetAvatarType
2A4E  A2818001           [103] call       6   3   2  
2A52  98410000           [104] test       6       1    ; to [106] if false
2A56  1A400480           [105] jmp        18           ; to [124]
2A5A  97010000           [106] loadbool   6   0   0    ; false
2A5E  DD810500           [107] getglobal  7   22       ; 248503575
2A62  1DC20500           [108] getglobal  8   23       ; _T
2A66  0E024604           [109] gettable   8   8   280  ; "transferenceUmbra"
2A6A  E2010101           [110] call       7   2   4  
2A6E  1A800180           [111] jmp        7            ; to [119]
fail op	35
2A72  23008005           [112] close      0  
2A76  1A000180           [113] jmp        5            ; to [119]
2A7A  97018000           [114] loadbool   6   1   0    ; true
2A7E  24434600           [115] self       12  0   281  ; -1073689042
2A82  22830001           [116] call       12  2   2  
2A86  52010006           [117] move       5   12     
2A8A  1A400080           [118] jmp        2            ; to [121]
2A8E  D6810000           [119] tforloop   7       2    ; to [121] if exit
2A92  1A80FD7F           [120] jmp        -9           ; to [112]
2A96  98410000           [121] test       6       1    ; to [123] if false
2A9A  1A000080           [122] jmp        1            ; to [124]
2A9E  1E008000           [123] return     0   1      
2AA2  24434000           [124] self       12  0   257  ; -1957065004
2AA6  9D830600           [125] getglobal  14  26       ; gBaseAvatarType
2AAA  22838001           [126] call       12  3   2  
2AAE  18030000           [127] test       12      0    ; to [129] if true
2AB2  1A403580           [128] jmp        214          ; to [343]
2AB6  24C34600           [129] self       12  0   283  ; 910063372
2ABA  22830001           [130] call       12  2   2  
2ABE  18030000           [131] test       12      0    ; to [133] if true
2AC2  1A000080           [132] jmp        1            ; to [134]
2AC6  1E008000           [133] return     0   1      
2ACA  2403C702           [134] self       12  5   284  ; -1764426596
2ACE  22830001           [135] call       12  2   2  
2AD2  5D030000           [136] getglobal  13  0        ; 1074689893
2AD6  92030006           [137] move       14  12     
2ADA  62830001           [138] call       13  2   2  
2ADE  58430000           [139] test       13      1    ; to [141] if false
2AE2  1A001C80           [140] jmp        113          ; to [254]
2AE6  64434706           [141] self       13  12  285  ; -1888573514
2AEA  62830001           [142] call       13  2   2  
2AEE  58030000           [143] test       13      0    ; to [145] if true
2AF2  1A801680           [144] jmp        91           ; to [236]
2AF6  9D830700           [145] getglobal  14  30       ; gGameRules
2AFA  DD030000           [146] getglobal  15  0        ; 1074689893
2AFE  12040007           [147] move       16  14     
2B02  E2830001           [148] call       15  2   2  
2B06  D8430000           [149] test       15      1    ; to [151] if false
2B0A  1A800080           [150] jmp        3            ; to [154]
2B0E  E4C34707           [151] self       15  14  287  ; 1861369943
2B12  57048000           [152] loadbool   17  1   0    ; true
2B16  E2438001           [153] call       15  3   1  
2B1A  E4034800           [154] self       15  0   288  ; -779797391
2B1E  57040000           [155] loadbool   17  0   0    ; false
2B22  E2438001           [156] call       15  3   1  
2B26  DD430800           [157] getglobal  15  33       ; gRegion
2B2A  E483C807           [158] self       15  15  290  ; 2066713391
2B2E  E2830001           [159] call       15  2   2  
2B32  D8430000           [160] test       15      1    ; to [162] if false
2B36  1A000180           [161] jmp        5            ; to [167]
2B3A  D3030000           [162] getupval   15  0      
2B3E  12040000           [163] move       16  0      
2B42  5DC40800           [164] getglobal  17  35       ; fadeToChangeTime
2B46  9D040900           [165] getglobal  18  36       ; fadeToFinalValue
2B4A  E2430002           [166] call       15  4   1  
2B4E  D3038000           [167] getupval   15  1      
2B52  12040000           [168] move       16  0      
2B56  52048000           [169] move       17  1      
2B5A  E2438001           [170] call       15  3   1  
2B5E  DD430900           [171] getglobal  15  37       ; onlyTeleportCurrentAvatar
2B62  D8430000           [172] test       15      1    ; to [174] if false
2B66  1A400880           [173] jmp        34           ; to [208]
2B6A  E4434000           [174] self       15  0   257  ; -1957065004
2B6E  5DC40400           [175] getglobal  17  19       ; gLotusOperatorAvatarType
2B72  E2838001           [176] call       15  3   2  
2B76  D8030000           [177] test       15      0    ; to [179] if true
2B7A  1A400380           [178] jmp        14           ; to [193]
2B7E  E4834906           [179] self       15  12  294  ; -1813551355
2B82  E2830001           [180] call       15  2   2  
2B86  1D040000           [181] getglobal  16  0        ; 1074689893
2B8A  52048007           [182] move       17  15     
2B8E  22840001           [183] call       16  2   2  
2B92  18440000           [184] test       16      1    ; to [186] if false
2B96  1A400580           [185] jmp        22           ; to [208]
fail op	35
2B9A  63008007           [186] close      1  
2B9E  1AC00480           [187] jmp        20           ; to [208]
2BA2  13048000           [188] getupval   16  1      
2BA6  52048007           [189] move       17  15     
2BAA  92048000           [190] move       18  1      
2BAE  22448001           [191] call       16  3   1  
2BB2  1A800380           [192] jmp        15           ; to [208]
2BB6  24C44906           [193] self       16  12  295  ; -1888201767
2BBA  22840001           [194] call       16  2   2  
2BBE  5D040000           [195] getglobal  17  0        ; 1074689893
2BC2  92040008           [196] move       18  16     
2BC6  62840001           [197] call       17  2   2  
2BCA  58440000           [198] test       17      1    ; to [200] if false
2BCE  1AC00180           [199] jmp        8            ; to [208]
2BD2  64C44308           [200] self       17  16  271  ; -1989965367
2BD6  62840001           [201] call       17  2   2  
2BDA  58440000           [202] test       17      1    ; to [204] if false
2BDE  1AC00080           [203] jmp        4            ; to [208]
2BE2  53048000           [204] getupval   17  1      
2BE6  92040008           [205] move       18  16     
2BEA  D2048000           [206] move       19  1      
2BEE  62448001           [207] call       17  3   1  
2BF2  5D040A00           [208] getglobal  17  40       ; 538022378
2BF6  9D440A00           [209] getglobal  18  41       ; fullyFadedDuration
2BFA  62440001           [210] call       17  2   1  
2BFE  5D440800           [211] getglobal  17  33       ; gRegion
2C02  6484C808           [212] self       17  17  290  ; 2066713391
2C06  62840001           [213] call       17  2   2  
2C0A  58440000           [214] test       17      1    ; to [216] if false
2C0E  1A400180           [215] jmp        6            ; to [222]
2C12  53040000           [216] getupval   17  0      
2C16  92040000           [217] move       18  0      
2C1A  DD840A00           [218] getglobal  19  42       ; fadeFromChangeTime
2C1E  1DC50A00           [219] getglobal  20  43       ; fadeFromFinalValue
2C22  62440002           [220] call       17  4   1  
2C26  1A000180           [221] jmp        5            ; to [227]
2C2A  53040000           [222] getupval   17  0      
2C2E  92040000           [223] move       18  0      
2C32  D9040B00           [224] loadk      19  44       ; 0
2C36  1DC50A00           [225] getglobal  20  43       ; fadeFromFinalValue
2C3A  62440002           [226] call       17  4   1  
2C3E  5D040000           [227] getglobal  17  0        ; 1074689893
2C42  92040007           [228] move       18  14     
2C46  62840001           [229] call       17  2   2  
2C4A  58440000           [230] test       17      1    ; to [232] if false
2C4E  1A402080           [231] jmp        130          ; to [362]
2C52  64C44707           [232] self       17  14  287  ; 1861369943
2C56  D7040000           [233] loadbool   19  0   0    ; false
2C5A  62448001           [234] call       17  3   1  
2C5E  1A401F80           [235] jmp        126          ; to [362]
2C62  5D440800           [236] getglobal  17  33       ; gRegion
2C66  6444CB08           [237] self       17  17  301  ; -1520831144
2C6A  62840001           [238] call       17  2   2  
2C6E  58040000           [239] test       17      0    ; to [241] if true
2C72  1A001E80           [240] jmp        121          ; to [362]
2C76  5D840B00           [241] getglobal  17  46       ; alwaysTeleportToWaypoint
2C7A  58040000           [242] test       17      0    ; to [244] if true
2C7E  1A401D80           [243] jmp        118          ; to [362]
2C82  5D040A00           [244] getglobal  17  40       ; 538022378
2C86  9DC40B00           [245] getglobal  18  47       ; initialDelay
2C8A  DDC40800           [246] getglobal  19  35       ; fadeToChangeTime
2C8E  83C40409           [247] add        18  18  19 
2C92  62440001           [248] call       17  2   1  
2C96  53048000           [249] getupval   17  1      
2C9A  92040000           [250] move       18  0      
2C9E  D2048000           [251] move       19  1      
2CA2  62448001           [252] call       17  3   1  
2CA6  1AC01A80           [253] jmp        108          ; to [362]
2CAA  6444C002           [254] self       17  5   257  ; -1957065004
2CAE  DD440500           [255] getglobal  19  21       ; gPetAvatarType
2CB2  62848001           [256] call       17  3   2  
2CB6  58040000           [257] test       17      0    ; to [259] if true
2CBA  1A400280           [258] jmp        10           ; to [269]
2CBE  5D440800           [259] getglobal  17  33       ; gRegion
2CC2  6444CB08           [260] self       17  17  301  ; -1520831144
2CC6  62840001           [261] call       17  2   2  
2CCA  58040000           [262] test       17      0    ; to [264] if true
2CCE  1A401880           [263] jmp        98           ; to [362]
2CD2  53048000           [264] getupval   17  1      
2CD6  92048002           [265] move       18  5      
2CDA  D2048000           [266] move       19  1      
2CDE  62448001           [267] call       17  3   1  
2CE2  1A001780           [268] jmp        93           ; to [362]
2CE6  5D040000           [269] getglobal  17  0        ; 1074689893
2CEA  A4044C00           [270] self       18  0   304  ; -1411785325
2CEE  A2040001           [271] call       18  2   0  
2CF2  62840000           [272] call       17  0   2  
2CF6  58440000           [273] test       17      1    ; to [275] if false
2CFA  1A800E80           [274] jmp        59           ; to [334]
2CFE  64444000           [275] self       17  0   257  ; -1957065004
2D02  DD440C00           [276] getglobal  19  49       ; gLotusSentinelAvatarType
2D06  62848001           [277] call       17  3   2  
2D0A  58440000           [278] test       17      1    ; to [280] if false
2D0E  1A400D80           [279] jmp        54           ; to [334]
2D12  5D040000           [280] getglobal  17  0        ; 1074689893
2D16  A4844C00           [281] self       18  0   306  ; -1870903749
2D1A  A2040001           [282] call       18  2   0  
2D1E  62840000           [283] call       17  0   2  
2D22  58040000           [284] test       17      0    ; to [286] if true
2D26  1AC00B80           [285] jmp        48           ; to [334]
2D2A  5D440800           [286] getglobal  17  33       ; gRegion
2D2E  6444CB08           [287] self       17  17  301  ; -1520831144
2D32  62840001           [288] call       17  2   2  
2D36  58040000           [289] test       17      0    ; to [291] if true
2D3A  1A000A80           [290] jmp        41           ; to [332]
2D3E  5D440800           [291] getglobal  17  33       ; gRegion
2D42  64C4CC08           [292] self       17  17  307  ; -774964848
2D46  62840001           [293] call       17  2   2  
2D4A  6404CD08           [294] self       17  17  308  ; 537471347
2D4E  62840001           [295] call       17  2   2  
2D52  9D840700           [296] getglobal  18  30       ; gGameRules
2D56  A4444009           [297] self       18  18  257  ; -1957065004
2D5A  1D450D00           [298] getglobal  20  53       ; gLotusGameRulesType
2D5E  A2848001           [299] call       18  3   2  
2D62  98040000           [300] test       18      0    ; to [302] if true
2D66  1A400780           [301] jmp        30           ; to [332]
2D6A  9D840700           [302] getglobal  18  30       ; gGameRules
2D6E  A4844D09           [303] self       18  18  310  ; -1201441975
2D72  A2840001           [304] call       18  2   2  
2D76  DD040000           [305] getglobal  19  0        ; 1074689893
2D7A  0EC54D09           [306] gettable   20  18  311  ; "vipAgent"
2D7E  E2840001           [307] call       19  2   2  
2D82  D8440000           [308] test       19      1    ; to [310] if false
2D86  1A800180           [309] jmp        7            ; to [317]
2D8A  E4044C00           [310] self       19  0   304  ; -1411785325
2D8E  E2840001           [311] call       19  2   2  
2D92  E444C009           [312] self       19  19  257  ; -1957065004
2D96  4EC54D09           [313] gettable   21  18  311  ; "vipAgent"
2D9A  E2848001           [314] call       19  3   2  
2D9E  D8440000           [315] test       19      1    ; to [317] if false
2DA2  1A800280           [316] jmp        11           ; to [328]
2DA6  E404CE08           [317] self       19  17  312  ; -719255983
2DAA  64054C00           [318] self       21  0   304  ; -1411785325
2DAE  62850001           [319] call       21  2   2  
2DB2  97050000           [320] loadbool   22  0   0    ; false
2DB6  E2840002           [321] call       19  4   2  
2DBA  D8040000           [322] test       19      0    ; to [324] if true
2DBE  1AC00080           [323] jmp        4            ; to [328]
2DC2  E4444E00           [324] self       19  0   313  ; -1238811972
2DC6  E2840001           [325] call       19  2   2  
2DCA  D8040000           [326] test       19      0    ; to [328] if true
2DCE  1AC00080           [327] jmp        4            ; to [332]
2DD2  D3048000           [328] getupval   19  1      
2DD6  12050000           [329] move       20  0      
2DDA  52058000           [330] move       21  1      
2DDE  E2448001           [331] call       19  3   1  
2DE2  1E008000           [332] return     0   1      
2DE6  1AC00680           [333] jmp        28           ; to [362]
2DEA  E4844E00           [334] self       19  0   314  ; 1309201817
2DEE  E2840001           [335] call       19  2   2  
2DF2  D8040000           [336] test       19      0    ; to [338] if true
2DF6  1AC00580           [337] jmp        24           ; to [362]
2DFA  D3048000           [338] getupval   19  1      
2DFE  12058002           [339] move       20  5      
2E02  52058000           [340] move       21  1      
2E06  E2448001           [341] call       19  3   1  
2E0A  1A800480           [342] jmp        19           ; to [362]
2E0E  E4444000           [343] self       19  0   257  ; -1957065004
2E12  5D450200           [344] getglobal  21  9        ; 738251817
2E16  99C50E00           [345] loadk      22  59       ; "/EE/Types/Game/PickUp"
2E1A  62050001           [346] call       21  2   0  
2E1E  E2840000           [347] call       19  0   2  
2E22  D8040000           [348] test       19      0    ; to [350] if true
2E26  1AC00280           [349] jmp        12           ; to [362]
2E2A  DD040000           [350] getglobal  19  0        ; 1074689893
2E2E  24854C00           [351] self       20  0   306  ; -1870903749
2E32  22050001           [352] call       20  2   0  
2E36  E2840000           [353] call       19  0   2  
2E3A  D8440000           [354] test       19      1    ; to [356] if false
2E3E  1A400080           [355] jmp        2            ; to [358]
2E42  E4044F00           [356] self       19  0   316  ; -1990411311
2E46  E2440001           [357] call       19  2   1  
2E4A  D3048000           [358] getupval   19  1      
2E4E  12050000           [359] move       20  0      
2E52  52058000           [360] move       21  1      
2E56  E2448001           [361] call       19  3   1  
2E5A  1E008000           [362] return     0   1      
                         * constants:
2E5E  3D                 sizek (61)
2E5F  01                 const type 3
2E60  65770E40           const [0]: (1074689893)
2E64  01                 const type 3
2E65  D48E598B           const [1]: (-1957065004)
2E69  04                 const type 4
2E6A  18                 string size (24)
2E6B  674C6F7475735665+  "gLotusVe"
2E73  6869636C65417661+  "hicleAva"
2E7B  7461725479706500   "tarType\0"
                         const [2]: "gLotusVehicleAvatarType"
2E83  01                 const type 3
2E84  4C3F9E5F           const [3]: (1604206412)
2E88  01                 const type 3
2E89  AFD2383A           const [4]: (976802479)
2E8D  01                 const type 3
2E8E  00971C22           const [5]: (572299008)
2E92  01                 const type 3
2E93  A25264B2           const [6]: (-1302048094)
2E97  01                 const type 3
2E98  1A4B27EC           const [7]: (-332969190)
2E9C  04                 const type 4
2E9D  10                 string size (16)
2E9E  54656C65706F7274+  "Teleport"
2EA6  416E644661646500   "AndFade\0"
                         const [8]: "TeleportAndFade"
2EAE  01                 const type 3
2EAF  29D4002C           const [9]: (738251817)
2EB3  04                 const type 4
2EB4  21                 string size (33)
2EB5  2F45452F54797065+  "/EE/Type"
2EBD  732F456E67696E65+  "s/Engine"
2EC5  2F48697450726F78+  "/HitProx"
2ECD  7950687973696373+  "yPhysics"
2ED5  00                 "\0"
                         const [10]: "/EE/Types/Engine/HitProxyPhysics"
2ED6  01                 const type 3
2ED7  81F4CA13           const [11]: (332067969)
2EDB  01                 const type 3
2EDC  025A115A           const [12]: (1511086594)
2EE0  04                 const type 4
2EE1  11                 string size (17)
2EE2  6754656E6E6F4176+  "gTennoAv"
2EEA  6174617254797065+  "atarType"
2EF2  00                 "\0"
                         const [13]: "gTennoAvatarType"
2EF3  01                 const type 3
2EF4  E4C68FF1           const [14]: (-242235676)
2EF8  01                 const type 3
2EF9  C9896389           const [15]: (-1989965367)
2EFD  04                 const type 4
2EFE  11                 string size (17)
2EFF  74656C65706F7274+  "teleport"
2F07  526167646F6C6C73+  "Ragdolls"
2F0F  00                 "\0"
                         const [16]: "teleportRagdolls"
2F10  01                 const type 3
2F11  ED7B9D11           const [17]: (295533549)
2F15  04                 const type 4
2F16  11                 string size (17)
2F17  74656E6E6F417661+  "tennoAva"
2F1F  746172734F6E6C79+  "tarsOnly"
2F27  00                 "\0"
                         const [18]: "tennoAvatarsOnly"
2F28  04                 const type 4
2F29  19                 string size (25)
2F2A  674C6F7475734F70+  "gLotusOp"
2F32  657261746F724176+  "eratorAv"
2F3A  6174617254797065+  "atarType"
2F42  00                 "\0"
                         const [19]: "gLotusOperatorAvatarType"
2F43  04                 const type 4
2F44  15                 string size (21)
2F45  74656E6E6F436C6F+  "tennoClo"
2F4D  6E65417661746172+  "neAvatar"
2F55  5479706500         "Type\0"
                         const [20]: "tennoCloneAvatarType"
2F5A  04                 const type 4
2F5B  0F                 string size (15)
2F5C  6750657441766174+  "gPetAvat"
2F64  61725479706500     "arType\0"
                         const [21]: "gPetAvatarType"
2F6B  01                 const type 3
2F6C  17DDCF0E           const [22]: (248503575)
2F70  04                 const type 4
2F71  03                 string size (3)
2F72  5F5400             "_T\0"
                         const [23]: "_T"
2F75  04                 const type 4
2F76  12                 string size (18)
2F77  7472616E73666572+  "transfer"
2F7F  656E6365556D6272+  "enceUmbr"
2F87  6100               "a\0"
                         const [24]: "transferenceUmbra"
2F89  01                 const type 3
2F8A  2ECE00C0           const [25]: (-1073689042)
2F8E  04                 const type 4
2F8F  10                 string size (16)
2F90  6742617365417661+  "gBaseAva"
2F98  7461725479706500   "tarType\0"
                         const [26]: "gBaseAvatarType"
2FA0  01                 const type 3
2FA1  0C773E36           const [27]: (910063372)
2FA5  01                 const type 3
2FA6  9CFCD496           const [28]: (-1764426596)
2FAA  01                 const type 3
2FAB  B6A76E8F           const [29]: (-1888573514)
2FAF  04                 const type 4
2FB0  0B                 string size (11)
2FB1  6747616D6552756C+  "gGameRul"
2FB9  657300             "es\0"
                         const [30]: "gGameRules"
2FBC  01                 const type 3
2FBD  5740F26E           const [31]: (1861369943)
2FC1  01                 const type 3
2FC2  713C85D1           const [32]: (-779797391)
2FC6  04                 const type 4
2FC7  08                 string size (8)
2FC8  67526567696F6E00   "gRegion\0"
                         const [33]: "gRegion"
2FD0  01                 const type 3
2FD1  2F8B2F7B           const [34]: (2066713391)
2FD5  04                 const type 4
2FD6  11                 string size (17)
2FD7  66616465546F4368+  "fadeToCh"
2FDF  616E676554696D65+  "angeTime"
2FE7  00                 "\0"
                         const [35]: "fadeToChangeTime"
2FE8  04                 const type 4
2FE9  11                 string size (17)
2FEA  66616465546F4669+  "fadeToFi"
2FF2  6E616C56616C7565+  "nalValue"
2FFA  00                 "\0"
                         const [36]: "fadeToFinalValue"
2FFB  04                 const type 4
2FFC  1A                 string size (26)
2FFD  6F6E6C7954656C65+  "onlyTele"
3005  706F727443757272+  "portCurr"
300D  656E744176617461+  "entAvata"
3015  7200               "r\0"
                         const [37]: "onlyTeleportCurrentAvatar"
3017  01                 const type 3
3018  0567E793           const [38]: (-1813551355)
301C  01                 const type 3
301D  D953748F           const [39]: (-1888201767)
3021  01                 const type 3
3022  EA911120           const [40]: (538022378)
3026  04                 const type 4
3027  13                 string size (19)
3028  66756C6C79466164+  "fullyFad"
3030  6564447572617469+  "edDurati"
3038  6F6E00             "on\0"
                         const [41]: "fullyFadedDuration"
303B  04                 const type 4
303C  13                 string size (19)
303D  6661646546726F6D+  "fadeFrom"
3045  4368616E67655469+  "ChangeTi"
304D  6D6500             "me\0"
                         const [42]: "fadeFromChangeTime"
3050  04                 const type 4
3051  13                 string size (19)
3052  6661646546726F6D+  "fadeFrom"
305A  46696E616C56616C+  "FinalVal"
3062  756500             "ue\0"
                         const [43]: "fadeFromFinalValue"
3065  03                 const type 3
3066  00000000           const [44]: (0)
306A  01                 const type 3
306B  58F559A5           const [45]: (-1520831144)
306F  04                 const type 4
3070  19                 string size (25)
3071  616C776179735465+  "alwaysTe"
3079  6C65706F7274546F+  "leportTo"
3081  576179706F696E74+  "Waypoint"
3089  00                 "\0"
                         const [46]: "alwaysTeleportToWaypoint"
308A  04                 const type 4
308B  0D                 string size (13)
308C  696E697469616C44+  "initialD"
3094  656C617900         "elay\0"
                         const [47]: "initialDelay"
3099  01                 const type 3
309A  93DDD9AB           const [48]: (-1411785325)
309E  04                 const type 4
309F  19                 string size (25)
30A0  674C6F7475735365+  "gLotusSe"
30A8  6E74696E656C4176+  "ntinelAv"
30B0  6174617254797065+  "atarType"
30B8  00                 "\0"
                         const [49]: "gLotusSentinelAvatarType"
30B9  01                 const type 3
30BA  3B467C90           const [50]: (-1870903749)
30BE  01                 const type 3
30BF  90F9CED1           const [51]: (-774964848)
30C3  01                 const type 3
30C4  73290920           const [52]: (537471347)
30C8  04                 const type 4
30C9  14                 string size (20)
30CA  674C6F7475734761+  "gLotusGa"
30D2  6D6552756C657354+  "meRulesT"
30DA  79706500           "ype\0"
                         const [53]: "gLotusGameRulesType"
30DE  01                 const type 3
30DF  497363B8           const [54]: (-1201441975)
30E3  04                 const type 4
30E4  09                 string size (9)
30E5  7669704167656E74+  "vipAgent"
30ED  00                 "\0"
                         const [55]: "vipAgent"
30EE  01                 const type 3
30EF  510621D5           const [56]: (-719255983)
30F3  01                 const type 3
30F4  BC3A29B6           const [57]: (-1238811972)
30F8  01                 const type 3
30F9  99D5084E           const [58]: (1309201817)
30FD  04                 const type 4
30FE  16                 string size (22)
30FF  2F45452F54797065+  "/EE/Type"
3107  732F47616D652F50+  "s/Game/P"
310F  69636B557000       "ickUp\0"
                         const [59]: "/EE/Types/Game/PickUp"
3115  01                 const type 3
3116  D1BB5C89           const [60]: (-1990411311)
                         * functions:
311A  00                 sizep (0)
                         * lines:
311C  02                 sizelineinfo (362)
                         [pc] (line)
311D  A1                 [001] (-95)
311E  01                 [002] (-95)
311F  00                 [003] (-95)
3120  00                 [004] (-95)
3121  A1                 [005] (-95)
3122  01                 [006] (-94)
3123  00                 [007] (-90)
3124  00                 [008] (-90)
3125  A1                 [009] (-90)
3126  01                 [010] (-90)
3127  00                 [011] (-90)
3128  00                 [012] (-89)
3129  A1                 [013] (-89)
312A  01                 [014] (-88)
312B  00                 [015] (-88)
312C  00                 [016] (-88)
312D  A1                 [017] (-88)
312E  01                 [018] (-88)
312F  00                 [019] (-87)
3130  00                 [020] (-87)
3131  A2                 [021] (-87)
3132  01                 [022] (-87)
3133  00                 [023] (-87)
3134  00                 [024] (-87)
3135  A6                 [025] (-86)
3136  01                 [026] (-86)
3137  00                 [027] (-86)
3138  00                 [028] (-86)
3139  A6                 [029] (-86)
313A  01                 [030] (-86)
313B  00                 [031] (-81)
313C  00                 [032] (-81)
313D  A6                 [033] (-81)
313E  01                 [034] (-81)
313F  00                 [035] (-81)
3140  00                 [036] (-81)
3141  A6                 [037] (-81)
3142  01                 [038] (-80)
3143  00                 [039] (-79)
3144  00                 [040] (-79)
3145  A6                 [041] (-78)
3146  01                 [042] (-78)
3147  00                 [043] (-78)
3148  00                 [044] (-78)
3149  A7                 [045] (-78)
314A  01                 [046] (-78)
314B  00                 [047] (-78)
314C  00                 [048] (-78)
314D  A7                 [049] (-78)
314E  01                 [050] (-77)
314F  00                 [051] (-77)
3150  00                 [052] (-77)
3151  A8                 [053] (-77)
3152  01                 [054] (-77)
3153  00                 [055] (-77)
3154  00                 [056] (-77)
3155  A8                 [057] (-77)
3156  01                 [058] (-77)
3157  00                 [059] (-77)
3158  00                 [060] (-77)
3159  A8                 [061] (-77)
315A  01                 [062] (-77)
315B  00                 [063] (-77)
315C  00                 [064] (-77)
315D  A8                 [065] (-76)
315E  01                 [066] (-76)
315F  00                 [067] (-75)
3160  00                 [068] (-75)
3161  A8                 [069] (-75)
3162  01                 [070] (-74)
3163  00                 [071] (-70)
3164  00                 [072] (-70)
3165  A9                 [073] (-69)
3166  01                 [074] (-69)
3167  00                 [075] (-69)
3168  00                 [076] (-68)
3169  A9                 [077] (-68)
316A  01                 [078] (-68)
316B  00                 [079] (-68)
316C  00                 [080] (-68)
316D  A9                 [081] (-68)
316E  01                 [082] (-64)
316F  00                 [083] (-63)
3170  00                 [084] (-63)
3171  A9                 [085] (-63)
3172  01                 [086] (-62)
3173  00                 [087] (-62)
3174  00                 [088] (-62)
3175  A9                 [089] (-62)
3176  01                 [090] (-62)
3177  00                 [091] (-62)
3178  00                 [092] (-62)
3179  A9                 [093] (-62)
317A  01                 [094] (-62)
317B  00                 [095] (-62)
317C  00                 [096] (-62)
317D  AA                 [097] (-62)
317E  01                 [098] (-62)
317F  00                 [099] (-62)
3180  00                 [100] (-62)
3181  AA                 [101] (-62)
3182  01                 [102] (-62)
3183  00                 [103] (-62)
3184  00                 [104] (-62)
3185  AA                 [105] (-62)
3186  01                 [106] (-61)
3187  00                 [107] (-60)
3188  00                 [108] (-60)
3189  AA                 [109] (-60)
318A  01                 [110] (-60)
318B  00                 [111] (-60)
318C  00                 [112] (-59)
318D  AA                 [113] (-59)
318E  01                 [114] (-58)
318F  00                 [115] (-57)
3190  00                 [116] (-57)
3191  AA                 [117] (-57)
3192  01                 [118] (-56)
3193  00                 [119] (-60)
3194  00                 [120] (-55)
3195  AF                 [121] (-52)
3196  01                 [122] (-52)
3197  00                 [123] (-51)
3198  00                 [124] (-46)
3199  AF                 [125] (-46)
319A  01                 [126] (-46)
319B  00                 [127] (-46)
319C  00                 [128] (-46)
319D  AF                 [129] (-45)
319E  01                 [130] (-45)
319F  00                 [131] (-45)
31A0  00                 [132] (-45)
31A1  AF                 [133] (-44)
31A2  01                 [134] (-41)
31A3  00                 [135] (-41)
31A4  00                 [136] (-40)
31A5  AF                 [137] (-40)
31A6  01                 [138] (-40)
31A7  00                 [139] (-40)
31A8  00                 [140] (-40)
31A9  AF                 [141] (-38)
31AA  01                 [142] (-38)
31AB  00                 [143] (-37)
31AC  00                 [144] (-37)
31AD  AF                 [145] (-36)
31AE  01                 [146] (-35)
31AF  00                 [147] (-35)
31B0  00                 [148] (-35)
31B1  B0                 [149] (-35)
31B2  01                 [150] (-35)
31B3  00                 [151] (-34)
31B4  00                 [152] (-34)
31B5  B1                 [153] (-34)
31B6  01                 [154] (-32)
31B7  00                 [155] (-32)
31B8  00                 [156] (-32)
31B9  B1                 [157] (-31)
31BA  01                 [158] (-31)
31BB  00                 [159] (-31)
31BC  00                 [160] (-31)
31BD  B2                 [161] (-31)
31BE  01                 [162] (-30)
31BF  00                 [163] (-30)
31C0  00                 [164] (-30)
31C1  B2                 [165] (-30)
31C2  01                 [166] (-30)
31C3  00                 [167] (-28)
31C4  00                 [168] (-28)
31C5  B2                 [169] (-28)
31C6  01                 [170] (-28)
31C7  00                 [171] (-27)
31C8  00                 [172] (-27)
31C9  B2                 [173] (-27)
31CA  01                 [174] (-26)
31CB  00                 [175] (-26)
31CC  00                 [176] (-26)
31CD  B2                 [177] (-26)
31CE  01                 [178] (-26)
31CF  00                 [179] (-25)
31D0  00                 [180] (-25)
31D1  B2                 [181] (-24)
31D2  01                 [182] (-24)
31D3  00                 [183] (-24)
31D4  00                 [184] (-24)
31D5  B2                 [185] (-24)
31D6  01                 [186] (-24)
31D7  00                 [187] (-24)
31D8  00                 [188] (-23)
31D9  B2                 [189] (-23)
31DA  01                 [190] (-23)
31DB  00                 [191] (-23)
31DC  00                 [192] (-22)
31DD  B2                 [193] (-20)
31DE  01                 [194] (-20)
31DF  00                 [195] (-19)
31E0  00                 [196] (-19)
31E1  B3                 [197] (-19)
31E2  01                 [198] (-19)
31E3  00                 [199] (-19)
31E4  00                 [200] (-19)
31E5  B3                 [201] (-19)
31E6  01                 [202] (-19)
31E7  00                 [203] (-19)
31E8  00                 [204] (-18)
31E9  B3                 [205] (-18)
31EA  01                 [206] (-18)
31EB  00                 [207] (-18)
31EC  00                 [208] (-14)
31ED  B3                 [209] (-14)
31EE  01                 [210] (-14)
31EF  00                 [211] (-13)
31F0  00                 [212] (-13)
31F1  B3                 [213] (-13)
31F2  01                 [214] (-13)
31F3  00                 [215] (-13)
31F4  00                 [216] (-12)
31F5  B3                 [217] (-12)
31F6  01                 [218] (-12)
31F7  00                 [219] (-12)
31F8  00                 [220] (-12)
31F9  B3                 [221] (-12)
31FA  01                 [222] (-10)
31FB  00                 [223] (-10)
31FC  00                 [224] (-10)
31FD  B3                 [225] (-10)
31FE  01                 [226] (-10)
31FF  00                 [227] (-8)
3200  00                 [228] (-8)
3201  B3                 [229] (-8)
3202  01                 [230] (-8)
3203  00                 [231] (-8)
3204  00                 [232] (-7)
3205  B3                 [233] (-7)
3206  01                 [234] (-7)
3207  00                 [235] (-6)
3208  00                 [236] (-5)
3209  B3                 [237] (-5)
320A  01                 [238] (-5)
320B  00                 [239] (-5)
320C  00                 [240] (-5)
320D  B3                 [241] (-5)
320E  01                 [242] (-5)
320F  00                 [243] (-5)
3210  00                 [244] (-4)
3211  B3                 [245] (-4)
3212  01                 [246] (-4)
3213  00                 [247] (-4)
3214  00                 [248] (-4)
3215  B3                 [249] (-3)
3216  01                 [250] (-3)
3217  00                 [251] (-3)
3218  00                 [252] (-3)
3219  B3                 [253] (-2)
321A  01                 [254] (-1)
321B  00                 [255] (-1)
321C  00                 [256] (-1)
321D  B4                 [257] (-1)
321E  01                 [258] (-1)
321F  00                 [259] (0)
3220  00                 [260] (0)
3221  B4                 [261] (0)
3222  01                 [262] (0)
3223  00                 [263] (0)
3224  00                 [264] (1)
3225  B5                 [265] (1)
3226  01                 [266] (1)
3227  00                 [267] (1)
3228  00                 [268] (2)
3229  B5                 [269] (4)
322A  01                 [270] (4)
322B  00                 [271] (4)
322C  00                 [272] (4)
322D  B5                 [273] (4)
322E  01                 [274] (4)
322F  00                 [275] (4)
3230  00                 [276] (4)
3231  B6                 [277] (4)
3232  01                 [278] (4)
3233  00                 [279] (4)
3234  00                 [280] (4)
3235  BA                 [281] (4)
3236  01                 [282] (4)
3237  00                 [283] (4)
3238  00                 [284] (4)
3239  BA                 [285] (4)
323A  01                 [286] (6)
323B  00                 [287] (6)
323C  00                 [288] (6)
323D  BB                 [289] (6)
323E  01                 [290] (6)
323F  00                 [291] (7)
3240  00                 [292] (7)
3241  BB                 [293] (7)
3242  01                 [294] (7)
3243  00                 [295] (7)
3244  00                 [296] (9)
3245  BB                 [297] (9)
3246  01                 [298] (9)
3247  00                 [299] (9)
3248  00                 [300] (9)
3249  BC                 [301] (9)
324A  01                 [302] (10)
324B  00                 [303] (10)
324C  00                 [304] (10)
324D  BC                 [305] (12)
324E  01                 [306] (12)
324F  00                 [307] (12)
3250  00                 [308] (12)
3251  BC                 [309] (12)
3252  01                 [310] (12)
3253  00                 [311] (12)
3254  00                 [312] (12)
3255  BC                 [313] (12)
3256  01                 [314] (12)
3257  00                 [315] (12)
3258  00                 [316] (12)
3259  BC                 [317] (12)
325A  01                 [318] (12)
325B  00                 [319] (12)
325C  00                 [320] (12)
325D  BC                 [321] (12)
325E  01                 [322] (12)
325F  00                 [323] (12)
3260  00                 [324] (12)
3261  C0                 [325] (12)
3262  01                 [326] (12)
3263  00                 [327] (12)
3264  00                 [328] (13)
3265  C1                 [329] (13)
3266  01                 [330] (13)
3267  00                 [331] (13)
3268  00                 [332] (19)
3269  C1                 [333] (19)
326A  01                 [334] (20)
326B  00                 [335] (20)
326C  00                 [336] (20)
326D  C1                 [337] (20)
326E  01                 [338] (21)
326F  00                 [339] (21)
3270  00                 [340] (21)
3271  C2                 [341] (21)
3272  01                 [342] (22)
3273  00                 [343] (24)
3274  00                 [344] (24)
3275  C2                 [345] (24)
3276  01                 [346] (24)
3277  00                 [347] (24)
3278  00                 [348] (24)
3279  C2                 [349] (24)
327A  01                 [350] (25)
327B  00                 [351] (25)
327C  00                 [352] (25)
327D  C2                 [353] (25)
327E  01                 [354] (25)
327F  00                 [355] (25)
3280  00                 [356] (26)
3281  C2                 [357] (26)
3282  01                 [358] (28)
3283  00                 [359] (28)
3284  00                 [360] (28)
3285  C2                 [361] (28)
3286  01                 [362] (30)
                         * locals:
36C5  00                 sizelocvars (0)
                         * upvalues:
36C6  00                 sizeupvalues (0)
                         ** end of function **

                         
36C7                     ** function [4] definition (level 2)
                         ** start of function **
36C7  00                 string size (0)
                         source name: (none)
36C9  04                 line defined (544)
36CA  ED                 last line defined (621)
36CB  04                 nups (2)
36CC  02                 numparams (2)
36CD  02                 is_vararg (0)
36CE  00                 maxstacksize (13)
                         * code:
36D1  01                 sizecode (224)
36D2  9D000000           [001] getglobal  2   0        ; 1074689893
36D6  D2008000           [002] move       3   1      
36DA  A2800001           [003] call       2   2   2  
36DE  98000000           [004] test       2       0    ; to [6] if true
36E2  1A000080           [005] jmp        1            ; to [7]
36E6  1E008000           [006] return     0   1      
36EA  9D400000           [007] getglobal  2   1        ; tennoAvatarsOnly
36EE  98000000           [008] test       2       0    ; to [10] if true
36F2  1AC00380           [009] jmp        16           ; to [26]
36F6  A480C000           [010] self       2   1   258  ; -1957065004
36FA  1DC10000           [011] getglobal  4   3        ; gTennoAvatarType
36FE  A2808001           [012] call       2   3   2  
3702  98400000           [013] test       2       1    ; to [15] if false
3706  1A800280           [014] jmp        11           ; to [26]
370A  A480C000           [015] self       2   1   258  ; -1957065004
370E  1D010100           [016] getglobal  4   4        ; gLotusOperatorAvatarType
3712  A2808001           [017] call       2   3   2  
3716  98400000           [018] test       2       1    ; to [20] if false
371A  1A400180           [019] jmp        6            ; to [26]
371E  A480C000           [020] self       2   1   258  ; -1957065004
3722  1D410100           [021] getglobal  4   5        ; tennoCloneAvatarType
3726  A2808001           [022] call       2   3   2  
372A  98400000           [023] test       2       1    ; to [25] if false
372E  1A000080           [024] jmp        1            ; to [26]
3732  1E008000           [025] return     0   1      
3736  A480C000           [026] self       2   1   258  ; -1957065004
373A  1D810100           [027] getglobal  4   6        ; gBaseAvatarType
373E  A2808001           [028] call       2   3   2  
3742  98000000           [029] test       2       0    ; to [31] if true
3746  1A402B80           [030] jmp        174          ; to [205]
374A  A4C0C100           [031] self       2   1   263  ; 910063372
374E  A2800001           [032] call       2   2   2  
3752  98000000           [033] test       2       0    ; to [35] if true
3756  1A000080           [034] jmp        1            ; to [36]
375A  1E008000           [035] return     0   1      
375E  A400C200           [036] self       2   1   264  ; -1764426596
3762  A2800001           [037] call       2   2   2  
3766  DD000000           [038] getglobal  3   0        ; 1074689893
376A  12010001           [039] move       4   2      
376E  E2800001           [040] call       3   2   2  
3772  D8400000           [041] test       3       1    ; to [43] if false
3776  1A801980           [042] jmp        103          ; to [146]
377A  E4404201           [043] self       3   2   265  ; -1888573514
377E  E2800001           [044] call       3   2   2  
3782  D8000000           [045] test       3       0    ; to [47] if true
3786  1A001480           [046] jmp        81           ; to [128]
378A  1D810200           [047] getglobal  4   10       ; gGameRules
378E  5D010000           [048] getglobal  5   0        ; 1074689893
3792  92010002           [049] move       6   4      
3796  62810001           [050] call       5   2   2  
379A  58410000           [051] test       5       1    ; to [53] if false
379E  1A800080           [052] jmp        3            ; to [56]
37A2  64C14202           [053] self       5   4   267  ; 1861369943
37A6  D7018000           [054] loadbool   7   1   0    ; true
37AA  62418001           [055] call       5   3   1  
37AE  6401C300           [056] self       5   1   268  ; -779797391
37B2  D7010000           [057] loadbool   7   0   0    ; false
37B6  62418001           [058] call       5   3   1  
37BA  5D410300           [059] getglobal  5   13       ; gRegion
37BE  6481C302           [060] self       5   5   270  ; 2066713391
37C2  62810001           [061] call       5   2   2  
37C6  58410000           [062] test       5       1    ; to [64] if false
37CA  1A000180           [063] jmp        5            ; to [69]
37CE  53010000           [064] getupval   5   0      
37D2  92018000           [065] move       6   1      
37D6  DDC10300           [066] getglobal  7   15       ; fadeToChangeTime
37DA  1D020400           [067] getglobal  8   16       ; fadeToFinalValue
37DE  62410002           [068] call       5   4   1  
37E2  53018000           [069] getupval   5   1      
37E6  92018000           [070] move       6   1      
37EA  D2010000           [071] move       7   0      
37EE  62418001           [072] call       5   3   1  
37F2  5D410400           [073] getglobal  5   17       ; onlyTeleportCurrentAvatar
37F6  58410000           [074] test       5       1    ; to [76] if false
37FA  1A400780           [075] jmp        30           ; to [106]
37FE  6481C000           [076] self       5   1   258  ; -1957065004
3802  DD010100           [077] getglobal  7   4        ; gLotusOperatorAvatarType
3806  62818001           [078] call       5   3   2  
380A  58010000           [079] test       5       0    ; to [81] if true
380E  1A400380           [080] jmp        14           ; to [95]
3812  64814401           [081] self       5   2   274  ; -1813551355
3816  62810001           [082] call       5   2   2  
381A  9D010000           [083] getglobal  6   0        ; 1074689893
381E  D2018002           [084] move       7   5      
3822  A2810001           [085] call       6   2   2  
3826  98410000           [086] test       6       1    ; to [88] if false
382A  1A400480           [087] jmp        18           ; to [106]
fail op	35
382E  63408002           [088] close      1  
3832  1AC00380           [089] jmp        16           ; to [106]
3836  93018000           [090] getupval   6   1      
383A  D2018002           [091] move       7   5      
383E  12020000           [092] move       8   0      
3842  A2418001           [093] call       6   3   1  
3846  1A800280           [094] jmp        11           ; to [106]
384A  A4C14401           [095] self       6   2   275  ; -1888201767
384E  A2810001           [096] call       6   2   2  
3852  DD010000           [097] getglobal  7   0        ; 1074689893
3856  12020003           [098] move       8   6      
385A  E2810001           [099] call       7   2   2  
385E  D8410000           [100] test       7       1    ; to [102] if false
3862  1AC00080           [101] jmp        4            ; to [106]
3866  D3018000           [102] getupval   7   1      
386A  12020003           [103] move       8   6      
386E  52020000           [104] move       9   0      
3872  E2418001           [105] call       7   3   1  
3876  DD010500           [106] getglobal  7   20       ; 538022378
387A  1D420500           [107] getglobal  8   21       ; fullyFadedDuration
387E  E2410001           [108] call       7   2   1  
3882  DD410300           [109] getglobal  7   13       ; gRegion
3886  E481C303           [110] self       7   7   270  ; 2066713391
388A  E2810001           [111] call       7   2   2  
388E  D8410000           [112] test       7       1    ; to [114] if false
3892  1A000180           [113] jmp        5            ; to [119]
3896  D3010000           [114] getupval   7   0      
389A  12028000           [115] move       8   1      
389E  5D820500           [116] getglobal  9   22       ; fadeFromChangeTime
38A2  9DC20500           [117] getglobal  10  23       ; fadeFromFinalValue
38A6  E2410002           [118] call       7   4   1  
38AA  DD010000           [119] getglobal  7   0        ; 1074689893
38AE  12020002           [120] move       8   4      
38B2  E2810001           [121] call       7   2   2  
38B6  D8410000           [122] test       7       1    ; to [124] if false
38BA  1AC01880           [123] jmp        100          ; to [224]
38BE  E4C14202           [124] self       7   4   267  ; 1861369943
38C2  57020000           [125] loadbool   9   0   0    ; false
38C6  E2418001           [126] call       7   3   1  
38CA  1AC01780           [127] jmp        96           ; to [224]
38CE  DD410300           [128] getglobal  7   13       ; gRegion
38D2  E401C603           [129] self       7   7   280  ; -1520831144
38D6  E2810001           [130] call       7   2   2  
38DA  D8010000           [131] test       7       0    ; to [133] if true
38DE  1A801680           [132] jmp        91           ; to [224]
38E2  DD410600           [133] getglobal  7   25       ; alwaysTeleportToWaypoint
38E6  D8010000           [134] test       7       0    ; to [136] if true
38EA  1AC01580           [135] jmp        88           ; to [224]
38EE  DD010500           [136] getglobal  7   20       ; 538022378
38F2  1D820600           [137] getglobal  8   26       ; initialDelay
38F6  5DC20300           [138] getglobal  9   15       ; fadeToChangeTime
38FA  03420204           [139] add        8   8   9  
38FE  E2410001           [140] call       7   2   1  
3902  D3018000           [141] getupval   7   1      
3906  12028000           [142] move       8   1      
390A  52020000           [143] move       9   0      
390E  E2418001           [144] call       7   3   1  
3912  1A401380           [145] jmp        78           ; to [224]
3916  DD010000           [146] getglobal  7   0        ; 1074689893
391A  24C2C600           [147] self       8   1   283  ; -1411785325
391E  22020001           [148] call       8   2   0  
3922  E2810000           [149] call       7   0   2  
3926  D8410000           [150] test       7       1    ; to [152] if false
392A  1AC01180           [151] jmp        72           ; to [224]
392E  E481C000           [152] self       7   1   258  ; -1957065004
3932  5D020700           [153] getglobal  9   28       ; gLotusSentinelAvatarType
3936  E2818001           [154] call       7   3   2  
393A  D8410000           [155] test       7       1    ; to [157] if false
393E  1A801080           [156] jmp        67           ; to [224]
3942  DD010000           [157] getglobal  7   0        ; 1074689893
3946  2442C700           [158] self       8   1   285  ; -1870903749
394A  22020001           [159] call       8   2   0  
394E  E2810000           [160] call       7   0   2  
3952  D8010000           [161] test       7       0    ; to [163] if true
3956  1A000F80           [162] jmp        61           ; to [224]
395A  DD410300           [163] getglobal  7   13       ; gRegion
395E  E401C603           [164] self       7   7   280  ; -1520831144
3962  E2810001           [165] call       7   2   2  
3966  D8010000           [166] test       7       0    ; to [168] if true
396A  1A800880           [167] jmp        35           ; to [203]
396E  DD410300           [168] getglobal  7   13       ; gRegion
3972  E481C703           [169] self       7   7   286  ; -774964848
3976  E2810001           [170] call       7   2   2  
397A  E4C1C703           [171] self       7   7   287  ; 537471347
397E  E2810001           [172] call       7   2   2  
3982  1D820200           [173] getglobal  8   10       ; gGameRules
3986  24024804           [174] self       8   8   288  ; -1201441975
398A  22820001           [175] call       8   2   2  
398E  5D020000           [176] getglobal  9   0        ; 1074689893
3992  8E424804           [177] gettable   10  8   289  ; "vipAgent"
3996  62820001           [178] call       9   2   2  
399A  58420000           [179] test       9       1    ; to [181] if false
399E  1A800180           [180] jmp        7            ; to [188]
39A2  64C2C600           [181] self       9   1   283  ; -1411785325
39A6  62820001           [182] call       9   2   2  
39AA  6482C004           [183] self       9   9   258  ; -1957065004
39AE  CE424804           [184] gettable   11  8   289  ; "vipAgent"
39B2  62828001           [185] call       9   3   2  
39B6  58420000           [186] test       9       1    ; to [188] if false
39BA  1A800280           [187] jmp        11           ; to [199]
39BE  6482C803           [188] self       9   7   290  ; -719255983
39C2  E4C2C600           [189] self       11  1   283  ; -1411785325
39C6  E2820001           [190] call       11  2   2  
39CA  17030000           [191] loadbool   12  0   0    ; false
39CE  62820002           [192] call       9   4   2  
39D2  58020000           [193] test       9       0    ; to [195] if true
39D6  1AC00080           [194] jmp        4            ; to [199]
39DA  64C2C800           [195] self       9   1   291  ; -1238811972
39DE  62820001           [196] call       9   2   2  
39E2  58020000           [197] test       9       0    ; to [199] if true
39E6  1AC00080           [198] jmp        4            ; to [203]
39EA  53028000           [199] getupval   9   1      
39EE  92028000           [200] move       10  1      
39F2  D2020000           [201] move       11  0      
39F6  62428001           [202] call       9   3   1  
39FA  1E008000           [203] return     0   1      
39FE  1A800480           [204] jmp        19           ; to [224]
3A02  6482C000           [205] self       9   1   258  ; -1957065004
3A06  DD020900           [206] getglobal  11  36       ; 738251817
3A0A  19430900           [207] loadk      12  37       ; "/EE/Types/Game/PickUp"
3A0E  E2020001           [208] call       11  2   0  
3A12  62820000           [209] call       9   0   2  
3A16  58020000           [210] test       9       0    ; to [212] if true
3A1A  1AC00280           [211] jmp        12           ; to [224]
3A1E  5D020000           [212] getglobal  9   0        ; 1074689893
3A22  A442C700           [213] self       10  1   285  ; -1870903749
3A26  A2020001           [214] call       10  2   0  
3A2A  62820000           [215] call       9   0   2  
3A2E  58420000           [216] test       9       1    ; to [218] if false
3A32  1A400080           [217] jmp        2            ; to [220]
3A36  6482C900           [218] self       9   1   294  ; -1990411311
3A3A  62420001           [219] call       9   2   1  
3A3E  53028000           [220] getupval   9   1      
3A42  92028000           [221] move       10  1      
3A46  D2020000           [222] move       11  0      
3A4A  62428001           [223] call       9   3   1  
3A4E  1E008000           [224] return     0   1      
                         * constants:
3A52  27                 sizek (39)
3A53  01                 const type 3
3A54  65770E40           const [0]: (1074689893)
3A58  04                 const type 4
3A59  11                 string size (17)
3A5A  74656E6E6F417661+  "tennoAva"
3A62  746172734F6E6C79+  "tarsOnly"
3A6A  00                 "\0"
                         const [1]: "tennoAvatarsOnly"
3A6B  01                 const type 3
3A6C  D48E598B           const [2]: (-1957065004)
3A70  04                 const type 4
3A71  11                 string size (17)
3A72  6754656E6E6F4176+  "gTennoAv"
3A7A  6174617254797065+  "atarType"
3A82  00                 "\0"
                         const [3]: "gTennoAvatarType"
3A83  04                 const type 4
3A84  19                 string size (25)
3A85  674C6F7475734F70+  "gLotusOp"
3A8D  657261746F724176+  "eratorAv"
3A95  6174617254797065+  "atarType"
3A9D  00                 "\0"
                         const [4]: "gLotusOperatorAvatarType"
3A9E  04                 const type 4
3A9F  15                 string size (21)
3AA0  74656E6E6F436C6F+  "tennoClo"
3AA8  6E65417661746172+  "neAvatar"
3AB0  5479706500         "Type\0"
                         const [5]: "tennoCloneAvatarType"
3AB5  04                 const type 4
3AB6  10                 string size (16)
3AB7  6742617365417661+  "gBaseAva"
3ABF  7461725479706500   "tarType\0"
                         const [6]: "gBaseAvatarType"
3AC7  01                 const type 3
3AC8  0C773E36           const [7]: (910063372)
3ACC  01                 const type 3
3ACD  9CFCD496           const [8]: (-1764426596)
3AD1  01                 const type 3
3AD2  B6A76E8F           const [9]: (-1888573514)
3AD6  04                 const type 4
3AD7  0B                 string size (11)
3AD8  6747616D6552756C+  "gGameRul"
3AE0  657300             "es\0"
                         const [10]: "gGameRules"
3AE3  01                 const type 3
3AE4  5740F26E           const [11]: (1861369943)
3AE8  01                 const type 3
3AE9  713C85D1           const [12]: (-779797391)
3AED  04                 const type 4
3AEE  08                 string size (8)
3AEF  67526567696F6E00   "gRegion\0"
                         const [13]: "gRegion"
3AF7  01                 const type 3
3AF8  2F8B2F7B           const [14]: (2066713391)
3AFC  04                 const type 4
3AFD  11                 string size (17)
3AFE  66616465546F4368+  "fadeToCh"
3B06  616E676554696D65+  "angeTime"
3B0E  00                 "\0"
                         const [15]: "fadeToChangeTime"
3B0F  04                 const type 4
3B10  11                 string size (17)
3B11  66616465546F4669+  "fadeToFi"
3B19  6E616C56616C7565+  "nalValue"
3B21  00                 "\0"
                         const [16]: "fadeToFinalValue"
3B22  04                 const type 4
3B23  1A                 string size (26)
3B24  6F6E6C7954656C65+  "onlyTele"
3B2C  706F727443757272+  "portCurr"
3B34  656E744176617461+  "entAvata"
3B3C  7200               "r\0"
                         const [17]: "onlyTeleportCurrentAvatar"
3B3E  01                 const type 3
3B3F  0567E793           const [18]: (-1813551355)
3B43  01                 const type 3
3B44  D953748F           const [19]: (-1888201767)
3B48  01                 const type 3
3B49  EA911120           const [20]: (538022378)
3B4D  04                 const type 4
3B4E  13                 string size (19)
3B4F  66756C6C79466164+  "fullyFad"
3B57  6564447572617469+  "edDurati"
3B5F  6F6E00             "on\0"
                         const [21]: "fullyFadedDuration"
3B62  04                 const type 4
3B63  13                 string size (19)
3B64  6661646546726F6D+  "fadeFrom"
3B6C  4368616E67655469+  "ChangeTi"
3B74  6D6500             "me\0"
                         const [22]: "fadeFromChangeTime"
3B77  04                 const type 4
3B78  13                 string size (19)
3B79  6661646546726F6D+  "fadeFrom"
3B81  46696E616C56616C+  "FinalVal"
3B89  756500             "ue\0"
                         const [23]: "fadeFromFinalValue"
3B8C  01                 const type 3
3B8D  58F559A5           const [24]: (-1520831144)
3B91  04                 const type 4
3B92  19                 string size (25)
3B93  616C776179735465+  "alwaysTe"
3B9B  6C65706F7274546F+  "leportTo"
3BA3  576179706F696E74+  "Waypoint"
3BAB  00                 "\0"
                         const [25]: "alwaysTeleportToWaypoint"
3BAC  04                 const type 4
3BAD  0D                 string size (13)
3BAE  696E697469616C44+  "initialD"
3BB6  656C617900         "elay\0"
                         const [26]: "initialDelay"
3BBB  01                 const type 3
3BBC  93DDD9AB           const [27]: (-1411785325)
3BC0  04                 const type 4
3BC1  19                 string size (25)
3BC2  674C6F7475735365+  "gLotusSe"
3BCA  6E74696E656C4176+  "ntinelAv"
3BD2  6174617254797065+  "atarType"
3BDA  00                 "\0"
                         const [28]: "gLotusSentinelAvatarType"
3BDB  01                 const type 3
3BDC  3B467C90           const [29]: (-1870903749)
3BE0  01                 const type 3
3BE1  90F9CED1           const [30]: (-774964848)
3BE5  01                 const type 3
3BE6  73290920           const [31]: (537471347)
3BEA  01                 const type 3
3BEB  497363B8           const [32]: (-1201441975)
3BEF  04                 const type 4
3BF0  09                 string size (9)
3BF1  7669704167656E74+  "vipAgent"
3BF9  00                 "\0"
                         const [33]: "vipAgent"
3BFA  01                 const type 3
3BFB  510621D5           const [34]: (-719255983)
3BFF  01                 const type 3
3C00  BC3A29B6           const [35]: (-1238811972)
3C04  01                 const type 3
3C05  29D4002C           const [36]: (738251817)
3C09  04                 const type 4
3C0A  16                 string size (22)
3C0B  2F45452F54797065+  "/EE/Type"
3C13  732F47616D652F50+  "s/Game/P"
3C1B  69636B557000       "ickUp\0"
                         const [37]: "/EE/Types/Game/PickUp"
3C21  01                 const type 3
3C22  D1BB5C89           const [38]: (-1990411311)
                         * functions:
3C26  00                 sizep (0)
                         * lines:
3C28  01                 sizelineinfo (224)
                         [pc] (line)
3C29  21                 [001] (33)
3C2A  02                 [002] (33)
3C2B  00                 [003] (33)
3C2C  00                 [004] (33)
3C2D  21                 [005] (33)
3C2E  02                 [006] (34)
3C2F  00                 [007] (37)
3C30  00                 [008] (37)
3C31  21                 [009] (37)
3C32  02                 [010] (38)
3C33  00                 [011] (38)
3C34  00                 [012] (38)
3C35  21                 [013] (38)
3C36  02                 [014] (38)
3C37  00                 [015] (38)
3C38  00                 [016] (38)
3C39  21                 [017] (38)
3C3A  02                 [018] (38)
3C3B  00                 [019] (38)
3C3C  00                 [020] (38)
3C3D  22                 [021] (38)
3C3E  02                 [022] (38)
3C3F  00                 [023] (38)
3C40  00                 [024] (38)
3C41  25                 [025] (39)
3C42  02                 [026] (43)
3C43  00                 [027] (43)
3C44  00                 [028] (43)
3C45  25                 [029] (43)
3C46  02                 [030] (43)
3C47  00                 [031] (44)
3C48  00                 [032] (44)
3C49  25                 [033] (44)
3C4A  02                 [034] (44)
3C4B  00                 [035] (45)
3C4C  00                 [036] (48)
3C4D  26                 [037] (48)
3C4E  02                 [038] (49)
3C4F  00                 [039] (49)
3C50  00                 [040] (49)
3C51  26                 [041] (49)
3C52  02                 [042] (49)
3C53  00                 [043] (51)
3C54  00                 [044] (51)
3C55  26                 [045] (52)
3C56  02                 [046] (52)
3C57  00                 [047] (53)
3C58  00                 [048] (54)
3C59  26                 [049] (54)
3C5A  02                 [050] (54)
3C5B  00                 [051] (54)
3C5C  00                 [052] (54)
3C5D  26                 [053] (55)
3C5E  02                 [054] (55)
3C5F  00                 [055] (55)
3C60  00                 [056] (57)
3C61  26                 [057] (57)
3C62  02                 [058] (57)
3C63  00                 [059] (58)
3C64  00                 [060] (58)
3C65  26                 [061] (58)
3C66  02                 [062] (58)
3C67  00                 [063] (58)
3C68  00                 [064] (59)
3C69  26                 [065] (59)
3C6A  02                 [066] (59)
3C6B  00                 [067] (59)
3C6C  00                 [068] (59)
3C6D  26                 [069] (61)
3C6E  02                 [070] (61)
3C6F  00                 [071] (61)
3C70  00                 [072] (61)
3C71  26                 [073] (62)
3C72  02                 [074] (62)
3C73  00                 [075] (62)
3C74  00                 [076] (63)
3C75  26                 [077] (63)
3C76  02                 [078] (63)
3C77  00                 [079] (63)
3C78  00                 [080] (63)
3C79  26                 [081] (64)
3C7A  02                 [082] (64)
3C7B  00                 [083] (65)
3C7C  00                 [084] (65)
3C7D  26                 [085] (65)
3C7E  02                 [086] (65)
3C7F  00                 [087] (65)
3C80  00                 [088] (65)
3C81  26                 [089] (65)
3C82  02                 [090] (66)
3C83  00                 [091] (66)
3C84  00                 [092] (66)
3C85  26                 [093] (66)
3C86  02                 [094] (67)
3C87  00                 [095] (69)
3C88  00                 [096] (69)
3C89  27                 [097] (70)
3C8A  02                 [098] (70)
3C8B  00                 [099] (70)
3C8C  00                 [100] (70)
3C8D  2B                 [101] (70)
3C8E  02                 [102] (71)
3C8F  00                 [103] (71)
3C90  00                 [104] (71)
3C91  2B                 [105] (71)
3C92  02                 [106] (75)
3C93  00                 [107] (75)
3C94  00                 [108] (75)
3C95  2B                 [109] (76)
3C96  02                 [110] (76)
3C97  00                 [111] (76)
3C98  00                 [112] (76)
3C99  2B                 [113] (76)
3C9A  02                 [114] (77)
3C9B  00                 [115] (77)
3C9C  00                 [116] (77)
3C9D  2B                 [117] (77)
3C9E  02                 [118] (77)
3C9F  00                 [119] (79)
3CA0  00                 [120] (79)
3CA1  2C                 [121] (79)
3CA2  02                 [122] (79)
3CA3  00                 [123] (79)
3CA4  00                 [124] (80)
3CA5  2C                 [125] (80)
3CA6  02                 [126] (80)
3CA7  00                 [127] (81)
3CA8  00                 [128] (82)
3CA9  2C                 [129] (82)
3CAA  02                 [130] (82)
3CAB  00                 [131] (82)
3CAC  00                 [132] (82)
3CAD  2C                 [133] (82)
3CAE  02                 [134] (82)
3CAF  00                 [135] (82)
3CB0  00                 [136] (83)
3CB1  2D                 [137] (83)
3CB2  02                 [138] (83)
3CB3  00                 [139] (83)
3CB4  00                 [140] (83)
3CB5  30                 [141] (84)
3CB6  02                 [142] (84)
3CB7  00                 [143] (84)
3CB8  00                 [144] (84)
3CB9  30                 [145] (85)
3CBA  02                 [146] (87)
3CBB  00                 [147] (87)
3CBC  00                 [148] (87)
3CBD  31                 [149] (87)
3CBE  02                 [150] (87)
3CBF  00                 [151] (87)
3CC0  00                 [152] (87)
3CC1  31                 [153] (87)
3CC2  02                 [154] (87)
3CC3  00                 [155] (87)
3CC4  00                 [156] (87)
3CC5  31                 [157] (87)
3CC6  02                 [158] (87)
3CC7  00                 [159] (87)
3CC8  00                 [160] (87)
3CC9  31                 [161] (87)
3CCA  02                 [162] (87)
3CCB  00                 [163] (89)
3CCC  00                 [164] (89)
3CCD  31                 [165] (89)
3CCE  02                 [166] (89)
3CCF  00                 [167] (89)
3CD0  00                 [168] (90)
3CD1  33                 [169] (90)
3CD2  02                 [170] (90)
3CD3  00                 [171] (90)
3CD4  00                 [172] (90)
3CD5  33                 [173] (91)
3CD6  02                 [174] (91)
3CD7  00                 [175] (91)
3CD8  00                 [176] (93)
3CD9  34                 [177] (93)
3CDA  02                 [178] (93)
3CDB  00                 [179] (93)
3CDC  00                 [180] (93)
3CDD  34                 [181] (93)
3CDE  02                 [182] (93)
3CDF  00                 [183] (93)
3CE0  00                 [184] (93)
3CE1  35                 [185] (93)
3CE2  02                 [186] (93)
3CE3  00                 [187] (93)
3CE4  00                 [188] (93)
3CE5  36                 [189] (93)
3CE6  02                 [190] (93)
3CE7  00                 [191] (93)
3CE8  00                 [192] (93)
3CE9  36                 [193] (93)
3CEA  02                 [194] (93)
3CEB  00                 [195] (93)
3CEC  00                 [196] (93)
3CED  36                 [197] (93)
3CEE  02                 [198] (93)
3CEF  00                 [199] (94)
3CF0  00                 [200] (94)
3CF1  36                 [201] (94)
3CF2  02                 [202] (94)
3CF3  00                 [203] (99)
3CF4  00                 [204] (101)
3CF5  36                 [205] (103)
3CF6  02                 [206] (103)
3CF7  00                 [207] (103)
3CF8  00                 [208] (103)
3CF9  37                 [209] (103)
3CFA  02                 [210] (103)
3CFB  00                 [211] (103)
3CFC  00                 [212] (104)
3CFD  37                 [213] (104)
3CFE  02                 [214] (104)
3CFF  00                 [215] (104)
3D00  00                 [216] (104)
3D01  37                 [217] (104)
3D02  02                 [218] (105)
3D03  00                 [219] (105)
3D04  00                 [220] (107)
3D05  39                 [221] (107)
3D06  02                 [222] (107)
3D07  00                 [223] (107)
3D08  00                 [224] (109)
                         * locals:
3FA9  00                 sizelocvars (0)
                         * upvalues:
3FAA  00                 sizeupvalues (0)
                         ** end of function **

                         
3FAB                     ** function [5] definition (level 2)
                         ** start of function **
3FAB  00                 string size (0)
                         source name: (none)
3FAD  04                 line defined (624)
3FAE  82                 last line defined (642)
3FAF  05                 nups (0)
3FB0  00                 numparams (0)
3FB1  00                 is_vararg (0)
3FB2  00                 maxstacksize (8)
                         * code:
3FB4  32                 sizecode (50)
3FB5  1D000000           [01] getglobal  0   0        ; gRegion
3FB9  24404000           [02] self       0   0   257  ; 65205951
3FBD  22800001           [03] call       0   2   2  
3FC1  5D800000           [04] getglobal  1   2        ; trigger
3FC5  64C0C000           [05] self       1   1   259  ; 2082429591
3FC9  62800001           [06] call       1   2   2  
3FCD  9D000100           [07] getglobal  2   4        ; 1074689893
3FD1  D2008000           [08] move       3   1      
3FD5  A2800001           [09] call       2   2   2  
3FD9  98400000           [10] test       2       1    ; to [12] if false
3FDD  1A800080           [11] jmp        3            ; to [15]
fail op	35
3FE1  63008000           [12] close      1  
3FE5  1A000080           [13] jmp        1            ; to [15]
3FE9  1E008000           [14] return     0   1      
3FED  9D400100           [15] getglobal  2   5        ; inTrigger
3FF1  98000000           [16] test       2       0    ; to [18] if true
3FF5  1A400180           [17] jmp        6            ; to [24]
3FF9  9D800000           [18] getglobal  2   2        ; trigger
3FFD  A4804101           [19] self       2   2   262  ; 238527435
4001  12010000           [20] move       4   0      
4005  A2808001           [21] call       2   3   2  
4009  98400000           [22] test       2       1    ; to [24] if false
400D  1A000280           [23] jmp        9            ; to [33]
4011  9D400100           [24] getglobal  2   5        ; inTrigger
4015  98400000           [25] test       2       1    ; to [27] if false
4019  1A800580           [26] jmp        23           ; to [50]
401D  9D800000           [27] getglobal  2   2        ; trigger
4021  A4804101           [28] self       2   2   262  ; 238527435
4025  12010000           [29] move       4   0      
4029  A2808001           [30] call       2   3   2  
402D  98400000           [31] test       2       1    ; to [33] if false
4031  1A000480           [32] jmp        17           ; to [50]
4035  9DC00100           [33] getglobal  2   7        ; initialDelay
fail op	21
4039  15800084           [34] concat     0   264 2  
403D  1A800080           [35] jmp        3            ; to [39]
4041  9D400200           [36] getglobal  2   9        ; 538022378
4045  DDC00100           [37] getglobal  3   7        ; initialDelay
4049  A2400001           [38] call       2   2   1  
404D  9D000100           [39] getglobal  2   4        ; 1074689893
4051  D2000000           [40] move       3   0      
4055  A2800001           [41] call       2   2   2  
4059  98400000           [42] test       2       1    ; to [44] if false
405D  1A400180           [43] jmp        6            ; to [50]
4061  A4804200           [44] self       2   0   266  ; 630793108
4065  1DC10200           [45] getglobal  4   11       ; sound
4069  57010000           [46] loadbool   5   0   0    ; false
406D  99010200           [47] loadk      6   8        ; 0
4071  D7010000           [48] loadbool   7   0   0    ; false
4075  A2400003           [49] call       2   6   1  
4079  1E008000           [50] return     0   1      
                         * constants:
407D  0C                 sizek (12)
407E  04                 const type 4
407F  08                 string size (8)
4080  67526567696F6E00   "gRegion\0"
                         const [0]: "gRegion"
4088  01                 const type 3
4089  BFF6E203           const [1]: (65205951)
408D  04                 const type 4
408E  08                 string size (8)
408F  7472696767657200   "trigger\0"
                         const [2]: "trigger"
4097  01                 const type 3
4098  975A1F7C           const [3]: (2082429591)
409C  01                 const type 3
409D  65770E40           const [4]: (1074689893)
40A1  04                 const type 4
40A2  0A                 string size (10)
40A3  696E547269676765+  "inTrigge"
40AB  7200               "r\0"
                         const [5]: "inTrigger"
40AD  01                 const type 3
40AE  CBA3370E           const [6]: (238527435)
40B2  04                 const type 4
40B3  0D                 string size (13)
40B4  696E697469616C44+  "initialD"
40BC  656C617900         "elay\0"
                         const [7]: "initialDelay"
40C1  03                 const type 3
40C2  00000000           const [8]: (0)
40C6  01                 const type 3
40C7  EA911120           const [9]: (538022378)
40CB  01                 const type 3
40CC  94239925           const [10]: (630793108)
40D0  04                 const type 4
40D1  06                 string size (6)
40D2  736F756E6400       "sound\0"
                         const [11]: "sound"
                         * functions:
40D8  00                 sizep (0)
                         * lines:
40D9  32                 sizelineinfo (50)
                         [pc] (line)
40DA  72                 [01] (114)
40DB  02                 [02] (114)
40DC  00                 [03] (114)
40DD  00                 [04] (115)
40DE  72                 [05] (115)
40DF  02                 [06] (115)
40E0  00                 [07] (117)
40E1  00                 [08] (117)
40E2  72                 [09] (117)
40E3  02                 [10] (117)
40E4  00                 [11] (117)
40E5  00                 [12] (117)
40E6  73                 [13] (117)
40E7  02                 [14] (118)
40E8  00                 [15] (121)
40E9  00                 [16] (121)
40EA  73                 [17] (121)
40EB  02                 [18] (121)
40EC  00                 [19] (121)
40ED  00                 [20] (121)
40EE  73                 [21] (121)
40EF  02                 [22] (121)
40F0  00                 [23] (121)
40F1  00                 [24] (121)
40F2  75                 [25] (121)
40F3  02                 [26] (121)
40F4  00                 [27] (121)
40F5  00                 [28] (121)
40F6  75                 [29] (121)
40F7  02                 [30] (121)
40F8  00                 [31] (121)
40F9  00                 [32] (121)
40FA  75                 [33] (122)
40FB  02                 [34] (122)
40FC  00                 [35] (122)
40FD  00                 [36] (123)
40FE  75                 [37] (123)
40FF  02                 [38] (123)
4100  00                 [39] (125)
4101  00                 [40] (125)
4102  75                 [41] (125)
4103  02                 [42] (125)
4104  00                 [43] (125)
4105  00                 [44] (126)
4106  75                 [45] (126)
4107  02                 [46] (126)
4108  00                 [47] (126)
4109  00                 [48] (126)
410A  75                 [49] (126)
410B  02                 [50] (-126)
                         * locals:
41A2  00                 sizelocvars (0)
                         * upvalues:
41A3  00                 sizeupvalues (0)
                         ** end of function **

                         
41A4                     ** function [6] definition (level 2)
                         ** start of function **
41A4  00                 string size (0)
                         source name: (none)
41A6  05                 line defined (645)
41A7  B1                 last line defined (689)
41A8  05                 nups (2)
41A9  02                 numparams (1)
41AA  01                 is_vararg (0)
41AB  00                 maxstacksize (13)
                         * code:
41AE  01                 sizecode (141)
41AF  5D000000           [001] getglobal  1   0        ; 538022378
41B3  9D400000           [002] getglobal  2   1        ; initialDelay
41B7  62400001           [003] call       1   2   1  
41BB  5D800000           [004] getglobal  1   2        ; trigger
41BF  64C0C000           [005] self       1   1   259  ; 1916070914
41C3  62800001           [006] call       1   2   2  
41C7  9D000100           [007] getglobal  2   4        ; gRegion
41CB  A4404101           [008] self       2   2   261  ; 65205951
41CF  A2800001           [009] call       2   2   2  
41D3  DD800000           [010] getglobal  3   2        ; trigger
41D7  E480C101           [011] self       3   3   262  ; 238527435
41DB  52010001           [012] move       5   2      
41DF  E2808001           [013] call       3   3   2  
41E3  1DC10100           [014] getglobal  4   7        ; 1074689893
41E7  5D010200           [015] getglobal  5   8        ; _T
41EB  4E41C202           [016] gettable   5   5   265  ; "gTriggerTeleportIndex"
41EF  22810001           [017] call       4   2   2  
41F3  18010000           [018] test       4       0    ; to [20] if true
41F7  1A800080           [019] jmp        3            ; to [23]
41FB  1D010200           [020] getglobal  4   8        ; _T
41FF  4B010000           [021] newtable   5   0   0    ; array=0, hash=0
4203  0C418184           [022] settable   4   265 5    ; "gTriggerTeleportIndex"
4207  1DC10100           [023] getglobal  4   7        ; 1074689893
420B  5D010200           [024] getglobal  5   8        ; _T
420F  4E41C202           [025] gettable   5   5   265  ; "gTriggerTeleportIndex"
4213  A4814200           [026] self       6   0   266  ; 455421500
4217  A2810001           [027] call       6   2   2  
421B  4E818102           [028] gettable   5   5   6  
421F  22810001           [029] call       4   2   2  
4223  18410000           [030] test       4       1    ; to [32] if false
4227  1A000280           [031] jmp        9            ; to [41]
422B  1DC10200           [032] getglobal  4   11       ; waypoints
422F  0A010002           [033] len        4   4      
4233  5D010200           [034] getglobal  5   8        ; _T
4237  4E41C202           [035] gettable   5   5   265  ; "gTriggerTeleportIndex"
423B  A4814200           [036] self       6   0   266  ; 455421500
423F  A2810001           [037] call       6   2   2  
4243  4E818102           [038] gettable   5   5   6  
fail op	21
4247  15400102           [039] concat     0   4   5  
424B  1A000180           [040] jmp        5            ; to [46]
424F  1D010200           [041] getglobal  4   8        ; _T
4253  0E414202           [042] gettable   4   4   265  ; "gTriggerTeleportIndex"
4257  64814200           [043] self       5   0   266  ; 455421500
425B  62810001           [044] call       5   2   2  
425F  0C01C302           [045] settable   4   5   268  ; 0
4263  1DC10200           [046] getglobal  4   11       ; waypoints
4267  5D010200           [047] getglobal  5   8        ; _T
426B  4E41C202           [048] gettable   5   5   265  ; "gTriggerTeleportIndex"
426F  A4814200           [049] self       6   0   266  ; 455421500
4273  A2810001           [050] call       6   2   2  
4277  4E818102           [051] gettable   5   5   6  
427B  0E410102           [052] gettable   4   4   5  
427F  20410300           [053] setglobal  4   13       ; teleportWaypoint
4283  1D010200           [054] getglobal  4   8        ; _T
4287  0E414202           [055] gettable   4   4   265  ; "gTriggerTeleportIndex"
428B  64814200           [056] self       5   0   266  ; 455421500
428F  62810001           [057] call       5   2   2  
4293  9D010200           [058] getglobal  6   8        ; _T
4297  8E414203           [059] gettable   6   6   265  ; "gTriggerTeleportIndex"
429B  E4814200           [060] self       7   0   266  ; 455421500
429F  E2810001           [061] call       7   2   2  
42A3  8EC10103           [062] gettable   6   6   7  
42A7  83014303           [063] add        6   6   268  ; 0
42AB  0C818102           [064] settable   4   5   6  
42AF  D8000000           [065] test       3       0    ; to [67] if true
42B3  1A000480           [066] jmp        17           ; to [84]
42B7  24814301           [067] self       4   2   270  ; -779797391
42BB  97010000           [068] loadbool   6   0   0    ; false
42BF  22418001           [069] call       4   3   1  
42C3  13010000           [070] getupval   4   0      
42C7  52010001           [071] move       5   2      
42CB  9DC10300           [072] getglobal  6   15       ; fadeToChangeTime
42CF  DD010400           [073] getglobal  7   16       ; fadeToFinalValue
42D3  22410002           [074] call       4   4   1  
42D7  1DC10100           [075] getglobal  4   7        ; 1074689893
42DB  52010001           [076] move       5   2      
42DF  22810001           [077] call       4   2   2  
42E3  18410000           [078] test       4       1    ; to [80] if false
42E7  1AC00080           [079] jmp        4            ; to [84]
42EB  13018000           [080] getupval   4   1      
42EF  52010001           [081] move       5   2      
42F3  92010000           [082] move       6   0      
42F7  22418001           [083] call       4   3   1  
42FB  1D010100           [084] getglobal  4   4        ; gRegion
42FF  24414402           [085] self       4   4   273  ; -1520831144
4303  22810001           [086] call       4   2   2  
4307  18010000           [087] test       4       0    ; to [89] if true
430B  1AC00880           [088] jmp        36           ; to [125]
430F  1D810400           [089] getglobal  4   18       ; 1672515847
4313  52018000           [090] move       5   1      
4317  22010101           [091] call       4   2   4  
431B  1A400780           [092] jmp        30           ; to [123]
431F  64C24404           [093] self       9   8   275  ; -1957065004
4323  DD020500           [094] getglobal  11  20       ; 738251817
4327  19430500           [095] loadk      12  21       ; "/EE/Types/Game/PickUp"
432B  E2020001           [096] call       11  2   0  
432F  62820000           [097] call       9   0   2  
4333  58020000           [098] test       9       0    ; to [100] if true
4337  1AC00180           [099] jmp        8            ; to [108]
433B  5DC20100           [100] getglobal  9   7        ; 1074689893
433F  A4824504           [101] self       10  8   278  ; -1870903749
4343  A2020001           [102] call       10  2   0  
4347  62820000           [103] call       9   0   2  
434B  58420000           [104] test       9       1    ; to [106] if false
434F  1A400080           [105] jmp        2            ; to [108]
4353  64C24504           [106] self       9   8   279  ; -1990411311
4357  62420001           [107] call       9   2   1  
435B  64C24404           [108] self       9   8   275  ; -1957065004
435F  DD020600           [109] getglobal  11  24       ; gBaseAvatarType
4363  62828001           [110] call       9   3   2  
4367  58020000           [111] test       9       0    ; to [113] if true
436B  1A400280           [112] jmp        10           ; to [123]
436F  5DC20100           [113] getglobal  9   7        ; 1074689893
4373  A4424604           [114] self       10  8   281  ; -1764426596
4377  A2020001           [115] call       10  2   0  
437B  62820000           [116] call       9   0   2  
437F  58020000           [117] test       9       0    ; to [119] if true
4383  1AC00080           [118] jmp        4            ; to [123]
4387  53028000           [119] getupval   9   1      
438B  92020004           [120] move       10  8      
438F  D2020000           [121] move       11  0      
4393  62428001           [122] call       9   3   1  
4397  16810000           [123] tforloop   4       2    ; to [125] if exit
439B  1AC0F77F           [124] jmp        -32          ; to [93]
439F  D8000000           [125] test       3       0    ; to [127] if true
43A3  1A400380           [126] jmp        14           ; to [141]
43A7  5D020000           [127] getglobal  9   0        ; 538022378
43AB  9D820600           [128] getglobal  10  26       ; fullyFadedDuration
43AF  62420001           [129] call       9   2   1  
43B3  5DC20100           [130] getglobal  9   7        ; 1074689893
43B7  92020001           [131] move       10  2      
43BB  62820001           [132] call       9   2   2  
43BF  58020000           [133] test       9       0    ; to [135] if true
43C3  1A000080           [134] jmp        1            ; to [136]
43C7  1E008000           [135] return     0   1      
43CB  53020000           [136] getupval   9   0      
43CF  92020001           [137] move       10  2      
43D3  DDC20600           [138] getglobal  11  27       ; fadeFromChangeTime
43D7  1D030700           [139] getglobal  12  28       ; fadeFromFinalValue
43DB  62420002           [140] call       9   4   1  
43DF  1E008000           [141] return     0   1      
                         * constants:
43E3  1D                 sizek (29)
43E4  01                 const type 3
43E5  EA911120           const [0]: (538022378)
43E9  04                 const type 4
43EA  0D                 string size (13)
43EB  696E697469616C44+  "initialD"
43F3  656C617900         "elay\0"
                         const [1]: "initialDelay"
43F8  04                 const type 4
43F9  08                 string size (8)
43FA  7472696767657200   "trigger\0"
                         const [2]: "trigger"
4402  01                 const type 3
4403  02EC3472           const [3]: (1916070914)
4407  04                 const type 4
4408  08                 string size (8)
4409  67526567696F6E00   "gRegion\0"
                         const [4]: "gRegion"
4411  01                 const type 3
4412  BFF6E203           const [5]: (65205951)
4416  01                 const type 3
4417  CBA3370E           const [6]: (238527435)
441B  01                 const type 3
441C  65770E40           const [7]: (1074689893)
4420  04                 const type 4
4421  03                 string size (3)
4422  5F5400             "_T\0"
                         const [8]: "_T"
4425  04                 const type 4
4426  16                 string size (22)
4427  6754726967676572+  "gTrigger"
442F  54656C65706F7274+  "Teleport"
4437  496E64657800       "Index\0"
                         const [9]: "gTriggerTeleportIndex"
443D  01                 const type 3
443E  3C2E251B           const [10]: (455421500)
4442  04                 const type 4
4443  0A                 string size (10)
4444  776179706F696E74+  "waypoint"
444C  7300               "s\0"
                         const [11]: "waypoints"
444E  03                 const type 3
444F  0000803F           const [12]: (0)
4453  04                 const type 4
4454  11                 string size (17)
4455  74656C65706F7274+  "teleport"
445D  576179706F696E74+  "Waypoint"
4465  00                 "\0"
                         const [13]: "teleportWaypoint"
4466  01                 const type 3
4467  713C85D1           const [14]: (-779797391)
446B  04                 const type 4
446C  11                 string size (17)
446D  66616465546F4368+  "fadeToCh"
4475  616E676554696D65+  "angeTime"
447D  00                 "\0"
                         const [15]: "fadeToChangeTime"
447E  04                 const type 4
447F  11                 string size (17)
4480  66616465546F4669+  "fadeToFi"
4488  6E616C56616C7565+  "nalValue"
4490  00                 "\0"
                         const [16]: "fadeToFinalValue"
4491  01                 const type 3
4492  58F559A5           const [17]: (-1520831144)
4496  01                 const type 3
4497  0791B063           const [18]: (1672515847)
449B  01                 const type 3
449C  D48E598B           const [19]: (-1957065004)
44A0  01                 const type 3
44A1  29D4002C           const [20]: (738251817)
44A5  04                 const type 4
44A6  16                 string size (22)
44A7  2F45452F54797065+  "/EE/Type"
44AF  732F47616D652F50+  "s/Game/P"
44B7  69636B557000       "ickUp\0"
                         const [21]: "/EE/Types/Game/PickUp"
44BD  01                 const type 3
44BE  3B467C90           const [22]: (-1870903749)
44C2  01                 const type 3
44C3  D1BB5C89           const [23]: (-1990411311)
44C7  04                 const type 4
44C8  10                 string size (16)
44C9  6742617365417661+  "gBaseAva"
44D1  7461725479706500   "tarType\0"
                         const [24]: "gBaseAvatarType"
44D9  01                 const type 3
44DA  9CFCD496           const [25]: (-1764426596)
44DE  04                 const type 4
44DF  13                 string size (19)
44E0  66756C6C79466164+  "fullyFad"
44E8  6564447572617469+  "edDurati"
44F0  6F6E00             "on\0"
                         const [26]: "fullyFadedDuration"
44F3  04                 const type 4
44F4  13                 string size (19)
44F5  6661646546726F6D+  "fadeFrom"
44FD  4368616E67655469+  "ChangeTi"
4505  6D6500             "me\0"
                         const [27]: "fadeFromChangeTime"
4508  04                 const type 4
4509  13                 string size (19)
450A  6661646546726F6D+  "fadeFrom"
4512  46696E616C56616C+  "FinalVal"
451A  756500             "ue\0"
                         const [28]: "fadeFromFinalValue"
                         * functions:
451D  00                 sizep (0)
                         * lines:
451F  01                 sizelineinfo (141)
                         [pc] (line)
4520  87                 [001] (-121)
4521  02                 [002] (-121)
4522  00                 [003] (-121)
4523  00                 [004] (-120)
4524  87                 [005] (-120)
4525  02                 [006] (-120)
4526  00                 [007] (-119)
4527  00                 [008] (-119)
4528  87                 [009] (-119)
4529  02                 [010] (-118)
452A  00                 [011] (-118)
452B  00                 [012] (-118)
452C  88                 [013] (-118)
452D  02                 [014] (-116)
452E  00                 [015] (-116)
452F  00                 [016] (-116)
4530  88                 [017] (-116)
4531  02                 [018] (-116)
4532  00                 [019] (-116)
4533  00                 [020] (-115)
4534  88                 [021] (-115)
4535  02                 [022] (-115)
4536  00                 [023] (-112)
4537  00                 [024] (-112)
4538  89                 [025] (-112)
4539  02                 [026] (-112)
453A  00                 [027] (-112)
453B  00                 [028] (-112)
453C  89                 [029] (-112)
453D  02                 [030] (-112)
453E  00                 [031] (-112)
453F  00                 [032] (-112)
4540  89                 [033] (-112)
4541  02                 [034] (-112)
4542  00                 [035] (-112)
4543  00                 [036] (-112)
4544  8A                 [037] (-112)
4545  02                 [038] (-112)
4546  00                 [039] (-112)
4547  00                 [040] (-112)
4548  8A                 [041] (-111)
4549  02                 [042] (-111)
454A  00                 [043] (-111)
454B  00                 [044] (-111)
454C  8A                 [045] (-111)
454D  02                 [046] (-108)
454E  00                 [047] (-108)
454F  00                 [048] (-108)
4550  8A                 [049] (-108)
4551  02                 [050] (-108)
4552  00                 [051] (-108)
4553  00                 [052] (-108)
4554  8C                 [053] (-108)
4555  02                 [054] (-107)
4556  00                 [055] (-107)
4557  00                 [056] (-107)
4558  8C                 [057] (-107)
4559  02                 [058] (-107)
455A  00                 [059] (-107)
455B  00                 [060] (-107)
455C  8C                 [061] (-107)
455D  02                 [062] (-107)
455E  00                 [063] (-107)
455F  00                 [064] (-107)
4560  8C                 [065] (-105)
4561  02                 [066] (-105)
4562  00                 [067] (-104)
4563  00                 [068] (-104)
4564  8C                 [069] (-104)
4565  02                 [070] (-103)
4566  00                 [071] (-103)
4567  00                 [072] (-103)
4568  8C                 [073] (-103)
4569  02                 [074] (-103)
456A  00                 [075] (-102)
456B  00                 [076] (-102)
456C  8D                 [077] (-102)
456D  02                 [078] (-102)
456E  00                 [079] (-102)
456F  00                 [080] (-101)
4570  8D                 [081] (-101)
4571  02                 [082] (-101)
4572  00                 [083] (-101)
4573  00                 [084] (-97)
4574  8D                 [085] (-97)
4575  02                 [086] (-97)
4576  00                 [087] (-97)
4577  00                 [088] (-97)
4578  90                 [089] (-96)
4579  02                 [090] (-96)
457A  00                 [091] (-96)
457B  00                 [092] (-96)
457C  90                 [093] (-95)
457D  02                 [094] (-95)
457E  00                 [095] (-95)
457F  00                 [096] (-95)
4580  90                 [097] (-95)
4581  02                 [098] (-95)
4582  00                 [099] (-95)
4583  00                 [100] (-95)
4584  90                 [101] (-95)
4585  02                 [102] (-95)
4586  00                 [103] (-95)
4587  00                 [104] (-95)
4588  90                 [105] (-95)
4589  02                 [106] (-94)
458A  00                 [107] (-94)
458B  00                 [108] (-92)
458C  90                 [109] (-92)
458D  02                 [110] (-92)
458E  00                 [111] (-92)
458F  00                 [112] (-92)
4590  90                 [113] (-92)
4591  02                 [114] (-92)
4592  00                 [115] (-92)
4593  00                 [116] (-92)
4594  90                 [117] (-92)
4595  02                 [118] (-92)
4596  00                 [119] (-91)
4597  00                 [120] (-91)
4598  90                 [121] (-91)
4599  02                 [122] (-91)
459A  00                 [123] (-96)
459B  00                 [124] (-90)
459C  90                 [125] (-86)
459D  02                 [126] (-86)
459E  00                 [127] (-85)
459F  00                 [128] (-85)
45A0  90                 [129] (-85)
45A1  02                 [130] (-84)
45A2  00                 [131] (-84)
45A3  00                 [132] (-84)
45A4  90                 [133] (-84)
45A5  02                 [134] (-84)
45A6  00                 [135] (-83)
45A7  00                 [136] (-81)
45A8  90                 [137] (-81)
45A9  02                 [138] (-81)
45AA  00                 [139] (-81)
45AB  00                 [140] (-81)
45AC  90                 [141] (-79)
                         * locals:
4754  00                 sizelocvars (0)
                         * upvalues:
4755  00                 sizeupvalues (0)
                         ** end of function **

                         
4756                     ** function [7] definition (level 2)
                         ** start of function **
4756  00                 string size (0)
                         source name: (none)
4758  05                 line defined (691)
4759  C4                 last line defined (708)
475A  05                 nups (0)
475B  00                 numparams (1)
475C  01                 is_vararg (0)
475D  00                 maxstacksize (7)
                         * code:
475F  2C                 sizecode (44)
4760  64004000           [01] self       1   0   256  ; -1957065004
4764  DD400000           [02] getglobal  3   1        ; gAvatarType
4768  62808001           [03] call       1   3   2  
476C  58000000           [04] test       1       0    ; to [6] if true
4770  1AC00080           [05] jmp        4            ; to [10]
4774  64804000           [06] self       1   0   258  ; -1201586349
4778  62800001           [07] call       1   2   2  
477C  58400000           [08] test       1       1    ; to [10] if false
4780  1A000080           [09] jmp        1            ; to [11]
4784  1E008000           [10] return     0   1      
4788  5DC00000           [11] getglobal  1   3        ; initialDelay
fail op	21
478C  15400082           [12] concat     0   260 1  
4790  1A800080           [13] jmp        3            ; to [17]
4794  5D400100           [14] getglobal  1   5        ; 538022378
4798  9DC00000           [15] getglobal  2   3        ; initialDelay
479C  62400001           [16] call       1   2   1  
47A0  5D800100           [17] getglobal  1   6        ; 1074689893
47A4  92000000           [18] move       2   0      
47A8  62800001           [19] call       1   2   2  
47AC  58400000           [20] test       1       1    ; to [22] if false
47B0  1A400180           [21] jmp        6            ; to [28]
47B4  64C04100           [22] self       1   0   263  ; 630793108
47B8  DD000200           [23] getglobal  3   8        ; sound
47BC  17010000           [24] loadbool   4   0   0    ; false
47C0  59010100           [25] loadk      5   4        ; 0
47C4  97010000           [26] loadbool   6   0   0    ; false
47C8  62400003           [27] call       1   6   1  
47CC  5D800100           [28] getglobal  1   6        ; 1074689893
47D0  9D400200           [29] getglobal  2   9        ; toggleTrigger
47D4  62800001           [30] call       1   2   2  
47D8  58400000           [31] test       1       1    ; to [33] if false
47DC  1A800280           [32] jmp        11           ; to [44]
47E0  5D800100           [33] getglobal  1   6        ; 1074689893
47E4  9D800200           [34] getglobal  2   10       ; selfTrigger
47E8  62800001           [35] call       1   2   2  
47EC  58400000           [36] test       1       1    ; to [38] if false
47F0  1A400180           [37] jmp        6            ; to [44]
47F4  5D800200           [38] getglobal  1   10       ; selfTrigger
47F8  64C0C200           [39] self       1   1   267  ; 766584623
47FC  62400001           [40] call       1   2   1  
4800  5D400200           [41] getglobal  1   9        ; toggleTrigger
4804  6400C300           [42] self       1   1   268  ; -974578778
4808  62400001           [43] call       1   2   1  
480C  1E008000           [44] return     0   1      
                         * constants:
4810  0D                 sizek (13)
4811  01                 const type 3
4812  D48E598B           const [0]: (-1957065004)
4816  04                 const type 4
4817  0C                 string size (12)
4818  6741766174617254+  "gAvatarT"
4820  79706500           "ype\0"
                         const [1]: "gAvatarType"
4824  01                 const type 3
4825  533F61B8           const [2]: (-1201586349)
4829  04                 const type 4
482A  0D                 string size (13)
482B  696E697469616C44+  "initialD"
4833  656C617900         "elay\0"
                         const [3]: "initialDelay"
4838  03                 const type 3
4839  00000000           const [4]: (0)
483D  01                 const type 3
483E  EA911120           const [5]: (538022378)
4842  01                 const type 3
4843  65770E40           const [6]: (1074689893)
4847  01                 const type 3
4848  94239925           const [7]: (630793108)
484C  04                 const type 4
484D  06                 string size (6)
484E  736F756E6400       "sound\0"
                         const [8]: "sound"
4854  04                 const type 4
4855  0E                 string size (14)
4856  746F67676C655472+  "toggleTr"
485E  696767657200       "igger\0"
                         const [9]: "toggleTrigger"
4864  04                 const type 4
4865  0C                 string size (12)
4866  73656C6654726967+  "selfTrig"
486E  67657200           "ger\0"
                         const [10]: "selfTrigger"
4872  01                 const type 3
4873  2F27B12D           const [11]: (766584623)
4877  01                 const type 3
4878  A61BE9C5           const [12]: (-974578778)
                         * functions:
487C  00                 sizep (0)
                         * lines:
487D  2C                 sizelineinfo (44)
                         [pc] (line)
487E  B5                 [01] (-75)
487F  02                 [02] (-75)
4880  00                 [03] (-75)
4881  00                 [04] (-75)
4882  B5                 [05] (-75)
4883  02                 [06] (-75)
4884  00                 [07] (-75)
4885  00                 [08] (-75)
4886  B5                 [09] (-75)
4887  02                 [10] (-74)
4888  00                 [11] (-71)
4889  00                 [12] (-71)
488A  B5                 [13] (-71)
488B  02                 [14] (-70)
488C  00                 [15] (-70)
488D  00                 [16] (-70)
488E  B5                 [17] (-68)
488F  02                 [18] (-68)
4890  00                 [19] (-68)
4891  00                 [20] (-68)
4892  B5                 [21] (-68)
4893  02                 [22] (-67)
4894  00                 [23] (-67)
4895  00                 [24] (-67)
4896  B5                 [25] (-67)
4897  02                 [26] (-67)
4898  00                 [27] (-67)
4899  00                 [28] (-64)
489A  B5                 [29] (-64)
489B  02                 [30] (-64)
489C  00                 [31] (-64)
489D  00                 [32] (-64)
489E  B5                 [33] (-64)
489F  02                 [34] (-64)
48A0  00                 [35] (-64)
48A1  00                 [36] (-64)
48A2  B6                 [37] (-64)
48A3  02                 [38] (-63)
48A4  00                 [39] (-63)
48A5  00                 [40] (-63)
48A6  B9                 [41] (-62)
48A7  02                 [42] (-62)
48A8  00                 [43] (-62)
48A9  00                 [44] (-60)
                         * locals:
492E  00                 sizelocvars (0)
                         * upvalues:
492F  00                 sizeupvalues (0)
                         ** end of function **

                         * lines:
4930  1A                 sizelineinfo (26)
                         [pc] (line)
4931  3C                 [01] (60)
4932  00                 [02] (113)
4933  00                 [03] (113)
4934  00                 [04] (-98)
4935  71                 [05] (30)
4936  01                 [06] (30)
4937  00                 [07] (30)
4938  00                 [08] (30)
4939  71                 [09] (-96)
493A  01                 [10] (109)
493B  00                 [11] (109)
493C  00                 [12] (109)
493D  9E                 [13] (109)
493E  01                 [14] (32)
493F  00                 [15] (-126)
4940  00                 [16] (-126)
4941  1E                 [17] (112)
4942  02                 [18] (-79)
4943  00                 [19] (-79)
4944  00                 [20] (-79)
4945  1E                 [21] (-79)
4946  02                 [22] (-123)
4947  00                 [23] (-60)
4948  00                 [24] (-60)
4949  1E                 [25] (-77)
494A  02                 [26] (-60)
                         * locals:
4999  00                 sizelocvars (0)
                         * upvalues:
499A  00                 sizeupvalues (0)
                         ** end of function **

499B                     ** end of chunk **
