1	C:\wlua_dump\path\Lotus\ScriptsConditionalDrops.lua
Pos   Hex Data           Description or Code
------------------------------------------------------------------------
0000                     ** source chunk: C:\wlua_dump\path\Lotus\ScriptsConditionalDrops.lua
                         ** global header start **
0000  7F                 header signature: ""
0001  00                 version (major:minor hex digits)
0002  00                 format (0=official)
0003  00                 endianness (1=little endian)
0004  00                 size of int (bytes)
0005  00                 size of size_t (bytes)
0006  02                 size of Instruction (bytes)
0007  04                 size of number (bytes)
0008  1F                 integral (1=integral)
431
                         * number type: single
                         * x86 standard (32-bit, little endian, doubles)
                         ** global header end **
Lotus.Interface.LotusUtilities
IsSpaceMission
IsNotSpaceMission
IsArchwingMission
IsRelayReconstructionRegion
InitEventRegionResourceDrops
InitSortieDrops
gGameRules
archwingRequired
isSharkwingMission
gGameRules
archwingRequired
mNode

name
mRegions
gGameRules
gPlayerProfileMgr
region
mGoals
mTag
goalTag
Engine
mActivation
mExpiry
gGameRules
gPlayerProfileMgr
region
mGoals
Engine
mActivation
mExpiry
mRegionDrops
gPickUpType
dropChance
dropRateUpgrade
dropRateUpgradeValidType
mArchwingDrops
faction
mFaction
minEnemyLevel
missionType
Lotus_Game
MT_RACE
gGameRules
gPlayerProfileMgr
sortieId

string
_
mSorties
Engine
mExpiry
mId
mRegionDrops
gPickUpType
dropChance
dropRateUpgrade
dropRateUpgradeValidType
                         
0001                     ** function [0] definition (level 1)
                         ** start of function **
0001  00                 string size (0)
                         source name: (none)
0002  00                 line defined (0)
0003  00                 last line defined (0)
0004  00                 nups (0)
0005  00                 numparams (0)
0006  02                 is_vararg (2)
0007  04                 maxstacksize (4)
                         * code:
0008  1F                 sizecode (31)
0009  1D000000           [01] getglobal  0   0        ; 849075268
000D  59400000           [02] loadk      1   1        ; "Lotus.Interface.LotusUtilities"
0011  22800001           [03] call       0   2   2  
0015  65000000           [04] closure    1   0      
0019  A5400000           [05] closure    2   1      
001D  12008000           [06] move       0   1      
0021  A0800000           [07] setglobal  2   2        ; IsSpaceMission
0025  A0C00000           [08] setglobal  2   3        ; 2105438817
0029  A5800000           [09] closure    2   2      
002D  12008000           [10] move       0   1      
0031  A0000100           [11] setglobal  2   4        ; IsNotSpaceMission
0035  A0400100           [12] setglobal  2   5        ; 368712042
0039  A5C00000           [13] closure    2   3      
003D  A0800100           [14] setglobal  2   6        ; IsArchwingMission
0041  A0C00100           [15] setglobal  2   7        ; 1783139686
0045  A5000100           [16] closure    2   4      
0049  E5400100           [17] closure    3   5      
004D  12000000           [18] move       0   0      
0051  12000001           [19] move       0   2      
0055  E0000200           [20] setglobal  3   8        ; IsRelayReconstructionRegion
0059  E0400200           [21] setglobal  3   9        ; -2115068742
005D  E5800100           [22] closure    3   6      
0061  12000000           [23] move       0   0      
0065  12008000           [24] move       0   1      
0069  12000001           [25] move       0   2      
006D  E0800200           [26] setglobal  3   10       ; InitEventRegionResourceDrops
0071  E0C00200           [27] setglobal  3   11       ; 1631780268
0075  E5C00100           [28] closure    3   7      
0079  E0000300           [29] setglobal  3   12       ; InitSortieDrops
007D  E0400300           [30] setglobal  3   13       ; 1601371019
0081  1E008000           [31] return     0   1      
                         * constants:
0085  0E                 sizek (14)
0086  01                 const type 3
0087  44DC9B32           const [0]: (849075268)
008B  04                 const type 4
008C  1F                 string size (31)
008D  4C6F7475732E496E+  "Lotus.In"
0095  746572666163652E+  "terface."
009D  4C6F747573557469+  "LotusUti"
00A5  6C697469657300     "lities\0"
                         const [1]: "Lotus.Interface.LotusUtilities"
00AC  04                 const type 4
00AD  0F                 string size (15)
00AE  497353706163654D+  "IsSpaceM"
00B6  697373696F6E00     "ission\0"
                         const [2]: "IsSpaceMission"
00BD  01                 const type 3
00BE  61727E7D           const [3]: (2105438817)
00C2  04                 const type 4
00C3  12                 string size (18)
00C4  49734E6F74537061+  "IsNotSpa"
00CC  63654D697373696F+  "ceMissio"
00D4  6E00               "n\0"
                         const [4]: "IsNotSpaceMission"
00D6  01                 const type 3
00D7  6A19FA15           const [5]: (368712042)
00DB  04                 const type 4
00DC  12                 string size (18)
00DD  4973417263687769+  "IsArchwi"
00E5  6E674D697373696F+  "ngMissio"
00ED  6E00               "n\0"
                         const [6]: "IsArchwingMission"
00EF  01                 const type 3
00F0  668D486A           const [7]: (1783139686)
00F4  04                 const type 4
00F5  1C                 string size (28)
00F6  497352656C617952+  "IsRelayR"
00FE  65636F6E73747275+  "econstru"
0106  6374696F6E526567+  "ctionReg"
010E  696F6E00           "ion\0"
                         const [8]: "IsRelayReconstructionRegion"
0112  01                 const type 3
0113  BA9CEE81           const [9]: (-2115068742)
0117  04                 const type 4
0118  1D                 string size (29)
0119  496E69744576656E+  "InitEven"
0121  74526567696F6E52+  "tRegionR"
0129  65736F7572636544+  "esourceD"
0131  726F707300         "rops\0"
                         const [10]: "InitEventRegionResourceDrops"
0136  01                 const type 3
0137  ACFD4261           const [11]: (1631780268)
013B  04                 const type 4
013C  10                 string size (16)
013D  496E6974536F7274+  "InitSort"
0145  696544726F707300   "ieDrops\0"
                         const [12]: "InitSortieDrops"
014D  01                 const type 3
014E  8BFB725F           const [13]: (1601371019)
                         * functions:
0152  08                 sizep (8)
                         
0153                     ** function [0] definition (level 2)
                         ** start of function **
0153  00                 string size (0)
                         source name: (none)
0154  09                 line defined (9)
0155  10                 last line defined (16)
0156  00                 nups (0)
0157  00                 numparams (0)
0158  00                 is_vararg (0)
0159  04                 maxstacksize (4)
                         * code:
015A  19                 sizecode (25)
015B  1D000000           [01] getglobal  0   0        ; gGameRules
015F  5D400000           [02] getglobal  1   1        ; 1074689893
0163  92000000           [03] move       2   0      
0167  62800001           [04] call       1   2   2  
016B  58400000           [05] test       1       1    ; to [7] if false
016F  1A400180           [06] jmp        6            ; to [13]
0173  5D400000           [07] getglobal  1   1        ; 1074689893
0177  A4804000           [08] self       2   0   258  ; -1201441975
017B  A2000001           [09] call       2   2   0  
017F  62800000           [10] call       1   0   2  
0183  58000000           [11] test       1       0    ; to [13] if true
0187  1A400080           [12] jmp        2            ; to [15]
018B  57000000           [13] loadbool   1   0   0    ; false
018F  5E000001           [14] return     1   2      
0193  64804000           [15] self       1   0   258  ; -1201441975
0197  62800001           [16] call       1   2   2  
019B  4EC0C000           [17] gettable   1   1   259  ; "archwingRequired"
019F  58000000           [18] test       1       0    ; to [20] if true
01A3  1AC00080           [19] jmp        4            ; to [24]
01A7  64804000           [20] self       1   0   258  ; -1201441975
01AB  62800001           [21] call       1   2   2  
01AF  4E00C100           [22] gettable   1   1   260  ; "isSharkwingMission"
fail op	9
01B3  49008000           [23] settable   1   1   0  
01B7  5E000001           [24] return     1   2      
01BB  1E008000           [25] return     0   1      
                         * constants:
01BF  05                 sizek (5)
01C0  04                 const type 4
01C1  0B                 string size (11)
01C2  6747616D6552756C+  "gGameRul"
01CA  657300             "es\0"
                         const [0]: "gGameRules"
01CD  01                 const type 3
01CE  65770E40           const [1]: (1074689893)
01D2  01                 const type 3
01D3  497363B8           const [2]: (-1201441975)
01D7  04                 const type 4
01D8  11                 string size (17)
01D9  6172636877696E67+  "archwing"
01E1  5265717569726564+  "Required"
01E9  00                 "\0"
                         const [3]: "archwingRequired"
01EA  04                 const type 4
01EB  13                 string size (19)
01EC  6973536861726B77+  "isSharkw"
01F4  696E674D69737369+  "ingMissi"
01FC  6F6E00             "on\0"
                         const [4]: "isSharkwingMission"
                         * functions:
01FF  00                 sizep (0)
                         * lines:
0200  19                 sizelineinfo (25)
                         [pc] (line)
0201  0A                 [01] (10)
0202  00                 [02] (11)
0203  00                 [03] (11)
0204  00                 [04] (11)
0205  0B                 [05] (11)
0206  00                 [06] (11)
0207  00                 [07] (11)
0208  00                 [08] (11)
0209  0B                 [09] (11)
020A  00                 [10] (11)
020B  00                 [11] (11)
020C  00                 [12] (11)
020D  0B                 [13] (12)
020E  00                 [14] (12)
020F  00                 [15] (15)
0210  00                 [16] (15)
0211  0B                 [17] (15)
0212  00                 [18] (15)
0213  00                 [19] (15)
0214  00                 [20] (15)
0215  0B                 [21] (15)
0216  00                 [22] (15)
0217  00                 [23] (15)
0218  00                 [24] (15)
0219  0B                 [25] (16)
                         * locals:
0265  00                 sizelocvars (0)
                         * upvalues:
0266  00                 sizeupvalues (0)
                         ** end of function **

                         
0267                     ** function [1] definition (level 2)
                         ** start of function **
0267  00                 string size (0)
                         source name: (none)
0268  12                 line defined (18)
0269  14                 last line defined (20)
026A  01                 nups (1)
026B  00                 numparams (0)
026C  00                 is_vararg (0)
026D  02                 maxstacksize (2)
                         * code:
026E  04                 sizecode (4)
026F  13000000           [1] getupval   0   0      
0273  07008000           [2] tailcall   0   1   0  
0277  1E000000           [3] return     0   0      
027B  1E008000           [4] return     0   1      
                         * constants:
027F  00                 sizek (0)
                         * functions:
0280  00                 sizep (0)
                         * lines:
0281  04                 sizelineinfo (4)
                         [pc] (line)
0282  13                 [1] (19)
0283  00                 [2] (19)
0284  00                 [3] (19)
0285  00                 [4] (20)
                         * locals:
0292  00                 sizelocvars (0)
                         * upvalues:
0293  00                 sizeupvalues (0)
                         ** end of function **

                         
0294                     ** function [2] definition (level 2)
                         ** start of function **
0294  00                 string size (0)
                         source name: (none)
0295  16                 line defined (22)
0296  18                 last line defined (24)
0297  01                 nups (1)
0298  00                 numparams (0)
0299  00                 is_vararg (0)
029A  02                 maxstacksize (2)
                         * code:
029B  05                 sizecode (5)
029C  13000000           [1] getupval   0   0      
02A0  22808000           [2] call       0   1   2  
fail op	9
02A4  09000000           [3] settable   0   0   0  
02A8  1E000001           [4] return     0   2      
02AC  1E008000           [5] return     0   1      
                         * constants:
02B0  00                 sizek (0)
                         * functions:
02B1  00                 sizep (0)
                         * lines:
02B2  05                 sizelineinfo (5)
                         [pc] (line)
02B3  17                 [1] (23)
02B4  00                 [2] (23)
02B5  00                 [3] (23)
02B6  00                 [4] (23)
02B7  17                 [5] (24)
                         * locals:
02C7  00                 sizelocvars (0)
                         * upvalues:
02C8  00                 sizeupvalues (0)
                         ** end of function **

                         
02C9                     ** function [3] definition (level 2)
                         ** start of function **
02C9  00                 string size (0)
                         source name: (none)
02CA  1A                 line defined (26)
02CB  21                 last line defined (33)
02CC  00                 nups (0)
02CD  00                 numparams (0)
02CE  00                 is_vararg (0)
02CF  04                 maxstacksize (4)
                         * code:
02D0  13                 sizecode (19)
02D1  1D000000           [01] getglobal  0   0        ; gGameRules
02D5  5D400000           [02] getglobal  1   1        ; 1074689893
02D9  92000000           [03] move       2   0      
02DD  62800001           [04] call       1   2   2  
02E1  58400000           [05] test       1       1    ; to [7] if false
02E5  1A400180           [06] jmp        6            ; to [13]
02E9  5D400000           [07] getglobal  1   1        ; 1074689893
02ED  A4804000           [08] self       2   0   258  ; -1201441975
02F1  A2000001           [09] call       2   2   0  
02F5  62800000           [10] call       1   0   2  
02F9  58000000           [11] test       1       0    ; to [13] if true
02FD  1A400080           [12] jmp        2            ; to [15]
0301  57000000           [13] loadbool   1   0   0    ; false
0305  5E000001           [14] return     1   2      
0309  64804000           [15] self       1   0   258  ; -1201441975
030D  62800001           [16] call       1   2   2  
0311  4EC0C000           [17] gettable   1   1   259  ; "archwingRequired"
0315  5E000001           [18] return     1   2      
0319  1E008000           [19] return     0   1      
                         * constants:
031D  04                 sizek (4)
031E  04                 const type 4
031F  0B                 string size (11)
0320  6747616D6552756C+  "gGameRul"
0328  657300             "es\0"
                         const [0]: "gGameRules"
032B  01                 const type 3
032C  65770E40           const [1]: (1074689893)
0330  01                 const type 3
0331  497363B8           const [2]: (-1201441975)
0335  04                 const type 4
0336  11                 string size (17)
0337  6172636877696E67+  "archwing"
033F  5265717569726564+  "Required"
0347  00                 "\0"
                         const [3]: "archwingRequired"
                         * functions:
0348  00                 sizep (0)
                         * lines:
0349  13                 sizelineinfo (19)
                         [pc] (line)
034A  1B                 [01] (27)
034B  00                 [02] (28)
034C  00                 [03] (28)
034D  00                 [04] (28)
034E  1C                 [05] (28)
034F  00                 [06] (28)
0350  00                 [07] (28)
0351  00                 [08] (28)
0352  1C                 [09] (28)
0353  00                 [10] (28)
0354  00                 [11] (28)
0355  00                 [12] (28)
0356  1C                 [13] (29)
0357  00                 [14] (29)
0358  00                 [15] (32)
0359  00                 [16] (32)
035A  1C                 [17] (32)
035B  00                 [18] (32)
035C  00                 [19] (33)
                         * locals:
0396  00                 sizelocvars (0)
                         * upvalues:
0397  00                 sizeupvalues (0)
                         ** end of function **

                         
0398                     ** function [4] definition (level 2)
                         ** start of function **
0398  00                 string size (0)
                         source name: (none)
0399  23                 line defined (35)
039A  36                 last line defined (54)
039B  00                 nups (0)
039C  04                 numparams (4)
039D  00                 is_vararg (0)
039E  0E                 maxstacksize (14)
                         * code:
039F  1E                 sizecode (30)
03A0  17010000           [01] loadbool   4   0   0    ; false
03A4  4E01C001           [02] gettable   5   3   256  ; "mNode"
fail op	35
03A8  6340C002           [03] close      1  
03AC  1A800280           [04] jmp        11           ; to [16]
03B0  A4814000           [05] self       6   0   258  ; -163473155
03B4  1DC20000           [06] getglobal  8   3        ; -332969190
03B8  52028002           [07] move       9   5      
03BC  22020001           [08] call       8   2   0  
03C0  A2810000           [09] call       6   0   2  
03C4  CE01C100           [10] gettable   7   1   260  ; "name"
03C8  0E024103           [11] gettable   8   6   260  ; "name"
fail op	35
03CC  63008203           [12] close      1  
03D0  1A000080           [13] jmp        1            ; to [15]
03D4  17410000           [14] loadbool   4   0   1    ; false, to [16]
03D8  17018000           [15] loadbool   4   1   0    ; true
03DC  18410000           [16] test       4       1    ; to [18] if false
03E0  1A800280           [17] jmp        11           ; to [29]
03E4  CE41C101           [18] gettable   7   3   261  ; "mRegions"
03E8  1D820100           [19] getglobal  8   6        ; 1672515847
03EC  52028003           [20] move       9   7      
03F0  22020101           [21] call       8   2   4  
03F4  1AC00080           [22] jmp        4            ; to [27]
fail op	35
03F8  23800006           [23] close      0  
03FC  1A400080           [24] jmp        2            ; to [27]
0400  17018000           [25] loadbool   4   1   0    ; true
0404  1A400080           [26] jmp        2            ; to [29]
0408  16820000           [27] tforloop   8       2    ; to [29] if exit
040C  1A40FE7F           [28] jmp        -6           ; to [23]
0410  1E010001           [29] return     4   2      
0414  1E008000           [30] return     0   1      
                         * constants:
0418  07                 sizek (7)
0419  04                 const type 4
041A  06                 string size (6)
041B  6D4E6F646500       "mNode\0"
                         const [0]: "mNode"
0421  04                 const type 4
0422  01                 string size (0)
                         const [1]: ""
0424  01                 const type 3
0425  FD9841F6           const [2]: (-163473155)
0429  01                 const type 3
042A  1A4B27EC           const [3]: (-332969190)
042E  04                 const type 4
042F  05                 string size (5)
0430  6E616D6500         "name\0"
                         const [4]: "name"
0435  04                 const type 4
0436  09                 string size (9)
0437  6D526567696F6E73+  "mRegions"
043F  00                 "\0"
                         const [5]: "mRegions"
0440  01                 const type 3
0441  0791B063           const [6]: (1672515847)
                         * functions:
0445  00                 sizep (0)
                         * lines:
0446  1E                 sizelineinfo (30)
                         [pc] (line)
0447  24                 [01] (36)
0448  00                 [02] (37)
0449  00                 [03] (38)
044A  00                 [04] (38)
044B  25                 [05] (39)
044C  00                 [06] (39)
044D  00                 [07] (39)
044E  00                 [08] (39)
044F  26                 [09] (39)
0450  00                 [10] (40)
0451  00                 [11] (40)
0452  00                 [12] (40)
0453  26                 [13] (40)
0454  00                 [14] (40)
0455  00                 [15] (40)
0456  00                 [16] (43)
0457  27                 [17] (43)
0458  00                 [18] (44)
0459  00                 [19] (45)
045A  00                 [20] (45)
045B  27                 [21] (45)
045C  00                 [22] (45)
045D  00                 [23] (46)
045E  00                 [24] (46)
045F  27                 [25] (47)
0460  00                 [26] (48)
0461  00                 [27] (45)
0462  00                 [28] (49)
0463  27                 [29] (53)
0464  00                 [30] (54)
                         * locals:
04BF  00                 sizelocvars (0)
                         * upvalues:
04C0  00                 sizeupvalues (0)
                         ** end of function **

                         
04C1                     ** function [5] definition (level 2)
                         ** start of function **
04C1  00                 string size (0)
                         source name: (none)
04C2  38                 line defined (56)
04C3  5C                 last line defined (92)
04C4  02                 nups (2)
04C5  00                 numparams (0)
04C6  00                 is_vararg (0)
04C7  12                 maxstacksize (18)
                         * code:
04C8  5E                 sizecode (94)
04C9  1D000000           [01] getglobal  0   0        ; gGameRules
04CD  5D400000           [02] getglobal  1   1        ; 1074689893
04D1  92000000           [03] move       2   0      
04D5  62800001           [04] call       1   2   2  
04D9  58400000           [05] test       1       1    ; to [7] if false
04DD  1A400180           [06] jmp        6            ; to [13]
04E1  5D400000           [07] getglobal  1   1        ; 1074689893
04E5  A4804000           [08] self       2   0   258  ; -1201441975
04E9  A2000001           [09] call       2   2   0  
04ED  62800000           [10] call       1   0   2  
04F1  58000000           [11] test       1       0    ; to [13] if true
04F5  1A400080           [12] jmp        2            ; to [15]
04F9  57000000           [13] loadbool   1   0   0    ; false
04FD  5E000001           [14] return     1   2      
0501  5DC00000           [15] getglobal  1   3        ; gPlayerProfileMgr
0505  6400C100           [16] self       1   1   260  ; 569342746
0509  D9400100           [17] loadk      3   5        ; 0
050D  62808001           [18] call       1   3   2  
0511  9D400000           [19] getglobal  2   1        ; 1074689893
0515  D2008000           [20] move       3   1      
0519  A2800001           [21] call       2   2   2  
051D  98000000           [22] test       2       0    ; to [24] if true
0521  1A400080           [23] jmp        2            ; to [26]
0525  97000000           [24] loadbool   2   0   0    ; false
0529  9E000001           [25] return     2   2      
052D  A480C100           [26] self       2   1   262  ; 1699680402
0531  A2800001           [27] call       2   2   2  
0535  DD400000           [28] getglobal  3   1        ; 1074689893
0539  12010001           [29] move       4   2      
053D  E2800001           [30] call       3   2   2  
0541  D8000000           [31] test       3       0    ; to [33] if true
0545  1A400080           [32] jmp        2            ; to [35]
0549  D7000000           [33] loadbool   3   0   0    ; false
054D  DE000001           [34] return     3   2      
0551  E4C04100           [35] self       3   0   263  ; 1144774979
0555  E2800001           [36] call       3   2   2  
0559  1D410000           [37] getglobal  4   1        ; 1074689893
055D  52018001           [38] move       5   3      
0561  22810001           [39] call       4   2   2  
0565  18410000           [40] test       4       1    ; to [42] if false
0569  1AC00080           [41] jmp        4            ; to [46]
056D  2401C201           [42] self       4   3   264  ; 828278287
0571  22810001           [43] call       4   2   2  
0575  18410000           [44] test       4       1    ; to [46] if false
0579  1A400080           [45] jmp        2            ; to [48]
057D  17010000           [46] loadbool   4   0   0    ; false
0581  1E010001           [47] return     4   2      
0585  13010000           [48] getupval   4   0      
0589  0E414202           [49] gettable   4   4   265  ; -1153782542
058D  22818000           [50] call       4   1   2  
0591  64814202           [51] self       5   4   266  ; -163473155
0595  D2018001           [52] move       7   3      
0599  62818001           [53] call       5   3   2  
059D  A4C14202           [54] self       6   4   267  ; -551469855
05A1  12028001           [55] move       8   3      
05A5  A2818001           [56] call       6   3   2  
05A9  8E014303           [57] gettable   6   6   268  ; "region"
05AD  E4414301           [58] self       7   2   269  ; 755731078
05B1  E2810001           [59] call       7   2   2  
05B5  1D820300           [60] getglobal  8   14       ; 1672515847
05B9  4EC2C303           [61] gettable   9   7   271  ; "mGoals"
05BD  22020101           [62] call       8   2   4  
05C1  1A400680           [63] jmp        26           ; to [90]
05C5  4E034406           [64] gettable   13  12  272  ; "mTag"
05C9  9D430400           [65] getglobal  14  17       ; goalTag
fail op	35
05CD  23808306           [66] close      0  
05D1  1A400580           [67] jmp        22           ; to [90]
05D5  5D830400           [68] getglobal  13  18       ; Engine
05D9  4EC3C406           [69] gettable   13  13  275  ; -794986224
05DD  8E034506           [70] gettable   14  12  276  ; "mActivation"
05E1  62830001           [71] call       13  2   2  
fail op	21
05E5  1540C106           [72] concat     0   13  261
05E9  1AC00380           [73] jmp        16           ; to [90]
05ED  5D830400           [74] getglobal  13  18       ; Engine
05F1  4EC3C406           [75] gettable   13  13  275  ; -794986224
05F5  8E434506           [76] gettable   14  12  277  ; "mExpiry"
05F9  62830001           [77] call       13  2   2  
fail op	21
05FD  15408382           [78] concat     0   261 13 
0601  1A400280           [79] jmp        10           ; to [90]
0605  53038000           [80] getupval   13  1      
0609  92030002           [81] move       14  4      
060D  D2038002           [82] move       15  5      
0611  12040003           [83] move       16  6      
0615  52040006           [84] move       17  12     
0619  62838002           [85] call       13  5   2  
061D  58030000           [86] test       13      0    ; to [88] if true
0621  1A400080           [87] jmp        2            ; to [90]
0625  97038000           [88] loadbool   14  1   0    ; true
0629  9E030001           [89] return     14  2      
062D  16820000           [90] tforloop   8       2    ; to [92] if exit
0631  1AC0F87F           [91] jmp        -28          ; to [64]
0635  97030000           [92] loadbool   14  0   0    ; false
0639  9E030001           [93] return     14  2      
063D  1E008000           [94] return     0   1      
                         * constants:
0641  16                 sizek (22)
0642  04                 const type 4
0643  0B                 string size (11)
0644  6747616D6552756C+  "gGameRul"
064C  657300             "es\0"
                         const [0]: "gGameRules"
064F  01                 const type 3
0650  65770E40           const [1]: (1074689893)
0654  01                 const type 3
0655  497363B8           const [2]: (-1201441975)
0659  04                 const type 4
065A  12                 string size (18)
065B  67506C6179657250+  "gPlayerP"
0663  726F66696C654D67+  "rofileMg"
066B  7200               "r\0"
                         const [3]: "gPlayerProfileMgr"
066D  01                 const type 3
066E  1A7BEF21           const [4]: (569342746)
0672  03                 const type 3
0673  00000000           const [5]: (0)
0677  01                 const type 3
0678  92104F65           const [6]: (1699680402)
067C  01                 const type 3
067D  43E13B44           const [7]: (1144774979)
0681  01                 const type 3
0682  0F865E31           const [8]: (828278287)
0686  01                 const type 3
0687  F2AC3ABB           const [9]: (-1153782542)
068B  01                 const type 3
068C  FD9841F6           const [10]: (-163473155)
0690  01                 const type 3
0691  E13C21DF           const [11]: (-551469855)
0695  04                 const type 4
0696  07                 string size (7)
0697  726567696F6E00     "region\0"
                         const [12]: "region"
069E  01                 const type 3
069F  868A0B2D           const [13]: (755731078)
06A3  01                 const type 3
06A4  0791B063           const [14]: (1672515847)
06A8  04                 const type 4
06A9  07                 string size (7)
06AA  6D476F616C7300     "mGoals\0"
                         const [15]: "mGoals"
06B1  04                 const type 4
06B2  05                 string size (5)
06B3  6D54616700         "mTag\0"
                         const [16]: "mTag"
06B8  04                 const type 4
06B9  08                 string size (8)
06BA  676F616C54616700   "goalTag\0"
                         const [17]: "goalTag"
06C2  04                 const type 4
06C3  07                 string size (7)
06C4  456E67696E6500     "Engine\0"
                         const [18]: "Engine"
06CB  01                 const type 3
06CC  10799DD0           const [19]: (-794986224)
06D0  04                 const type 4
06D1  0C                 string size (12)
06D2  6D41637469766174+  "mActivat"
06DA  696F6E00           "ion\0"
                         const [20]: "mActivation"
06DE  04                 const type 4
06DF  08                 string size (8)
06E0  6D45787069727900   "mExpiry\0"
                         const [21]: "mExpiry"
                         * functions:
06E8  00                 sizep (0)
                         * lines:
06E9  5E                 sizelineinfo (94)
                         [pc] (line)
06EA  39                 [01] (57)
06EB  00                 [02] (58)
06EC  00                 [03] (58)
06ED  00                 [04] (58)
06EE  3A                 [05] (58)
06EF  00                 [06] (58)
06F0  00                 [07] (58)
06F1  00                 [08] (58)
06F2  3A                 [09] (58)
06F3  00                 [10] (58)
06F4  00                 [11] (58)
06F5  00                 [12] (58)
06F6  3A                 [13] (59)
06F7  00                 [14] (59)
06F8  00                 [15] (62)
06F9  00                 [16] (62)
06FA  3A                 [17] (62)
06FB  00                 [18] (62)
06FC  00                 [19] (63)
06FD  00                 [20] (63)
06FE  3A                 [21] (63)
06FF  00                 [22] (63)
0700  00                 [23] (63)
0701  00                 [24] (64)
0702  3A                 [25] (64)
0703  00                 [26] (67)
0704  00                 [27] (67)
0705  00                 [28] (68)
0706  3A                 [29] (68)
0707  00                 [30] (68)
0708  00                 [31] (68)
0709  00                 [32] (68)
070A  3A                 [33] (69)
070B  00                 [34] (69)
070C  00                 [35] (72)
070D  00                 [36] (72)
070E  3A                 [37] (73)
070F  00                 [38] (73)
0710  00                 [39] (73)
0711  00                 [40] (73)
0712  3A                 [41] (73)
0713  00                 [42] (73)
0714  00                 [43] (73)
0715  00                 [44] (73)
0716  3A                 [45] (73)
0717  00                 [46] (74)
0718  00                 [47] (74)
0719  00                 [48] (77)
071A  3B                 [49] (77)
071B  00                 [50] (77)
071C  00                 [51] (78)
071D  00                 [52] (78)
071E  3B                 [53] (78)
071F  00                 [54] (79)
0720  00                 [55] (79)
0721  00                 [56] (79)
0722  3E                 [57] (79)
0723  00                 [58] (81)
0724  00                 [59] (81)
0725  00                 [60] (82)
0726  3E                 [61] (82)
0727  00                 [62] (82)
0728  00                 [63] (82)
0729  00                 [64] (83)
072A  3E                 [65] (83)
072B  00                 [66] (83)
072C  00                 [67] (83)
072D  00                 [68] (83)
072E  3E                 [69] (83)
072F  00                 [70] (83)
0730  00                 [71] (83)
0731  00                 [72] (83)
0732  3F                 [73] (83)
0733  00                 [74] (83)
0734  00                 [75] (83)
0735  00                 [76] (83)
0736  3F                 [77] (83)
0737  00                 [78] (83)
0738  00                 [79] (83)
0739  00                 [80] (84)
073A  3F                 [81] (84)
073B  00                 [82] (84)
073C  00                 [83] (84)
073D  00                 [84] (84)
073E  3F                 [85] (84)
073F  00                 [86] (85)
0740  00                 [87] (85)
0741  00                 [88] (86)
0742  3F                 [89] (86)
0743  00                 [90] (82)
0744  00                 [91] (88)
0745  00                 [92] (91)
0746  40                 [93] (91)
0747  00                 [94] (92)
                         * locals:
0862  00                 sizelocvars (0)
                         * upvalues:
0863  00                 sizeupvalues (0)
                         ** end of function **

                         
0864                     ** function [6] definition (level 2)
                         ** start of function **
0864  00                 string size (0)
                         source name: (none)
0865  5E                 line defined (94)
0866  91                 last line defined (145)
0867  01                 nups (3)
0868  03                 numparams (1)
0869  01                 is_vararg (0)
086A  00                 maxstacksize (34)
                         * code:
086D  01                 sizecode (157)
086E  5D000000           [001] getglobal  1   0        ; gGameRules
0872  9D400000           [002] getglobal  2   1        ; 1074689893
0876  D2008000           [003] move       3   1      
087A  A2800001           [004] call       2   2   2  
087E  98400000           [005] test       2       1    ; to [7] if false
0882  1A400180           [006] jmp        6            ; to [13]
0886  9D400000           [007] getglobal  2   1        ; 1074689893
088A  E480C000           [008] self       3   1   258  ; -1201441975
088E  E2000001           [009] call       3   2   0  
0892  A2800000           [010] call       2   0   2  
0896  98000000           [011] test       2       0    ; to [13] if true
089A  1A000080           [012] jmp        1            ; to [14]
089E  1E008000           [013] return     0   1      
08A2  9DC00000           [014] getglobal  2   3        ; gPlayerProfileMgr
08A6  A4004101           [015] self       2   2   260  ; 569342746
08AA  19410100           [016] loadk      4   5        ; 0
08AE  A2808001           [017] call       2   3   2  
08B2  DD400000           [018] getglobal  3   1        ; 1074689893
08B6  12010001           [019] move       4   2      
08BA  E2800001           [020] call       3   2   2  
08BE  D8000000           [021] test       3       0    ; to [23] if true
08C2  1A000080           [022] jmp        1            ; to [24]
08C6  1E008000           [023] return     0   1      
08CA  E4804101           [024] self       3   2   262  ; 1699680402
08CE  E2800001           [025] call       3   2   2  
08D2  1D410000           [026] getglobal  4   1        ; 1074689893
08D6  52018001           [027] move       5   3      
08DA  22810001           [028] call       4   2   2  
08DE  18010000           [029] test       4       0    ; to [31] if true
08E2  1A000080           [030] jmp        1            ; to [32]
08E6  1E008000           [031] return     0   1      
08EA  24C1C100           [032] self       4   1   263  ; 1144774979
08EE  22810001           [033] call       4   2   2  
08F2  5D410000           [034] getglobal  5   1        ; 1074689893
08F6  92010002           [035] move       6   4      
08FA  62810001           [036] call       5   2   2  
08FE  58410000           [037] test       5       1    ; to [39] if false
0902  1AC00080           [038] jmp        4            ; to [43]
0906  64014202           [039] self       5   4   264  ; 828278287
090A  62810001           [040] call       5   2   2  
090E  58410000           [041] test       5       1    ; to [43] if false
0912  1A000080           [042] jmp        1            ; to [44]
0916  1E008000           [043] return     0   1      
091A  53010000           [044] getupval   5   0      
091E  4E41C202           [045] gettable   5   5   265  ; -1153782542
0922  62818000           [046] call       5   1   2  
0926  A481C202           [047] self       6   5   266  ; -163473155
092A  12020002           [048] move       8   4      
092E  A2818001           [049] call       6   3   2  
0932  DD010000           [050] getglobal  7   0        ; gGameRules
0936  E481C003           [051] self       7   7   258  ; -1201441975
093A  E2810001           [052] call       7   2   2  
093E  13028000           [053] getupval   8   1      
0942  22828000           [054] call       8   1   2  
0946  64C2C202           [055] self       9   5   267  ; -551469855
094A  D2020002           [056] move       11  4      
094E  62828001           [057] call       9   3   2  
0952  4E02C304           [058] gettable   9   9   268  ; "region"
0956  A442C301           [059] self       10  3   269  ; 755731078
095A  A2820001           [060] call       10  2   2  
095E  DD820300           [061] getglobal  11  14       ; 1672515847
0962  0EC34305           [062] gettable   12  10  271  ; "mGoals"
0966  E2020101           [063] call       11  2   4  
096A  1A401680           [064] jmp        90           ; to [155]
096E  1D040400           [065] getglobal  16  16       ; Engine
0972  0E444408           [066] gettable   16  16  273  ; -794986224
0976  4E84C407           [067] gettable   17  15  274  ; "mActivation"
097A  22840001           [068] call       16  2   2  
fail op	21
097E  15404108           [069] concat     0   16  261
0982  1AC01480           [070] jmp        84           ; to [155]
0986  1D040400           [071] getglobal  16  16       ; Engine
098A  0E444408           [072] gettable   16  16  273  ; -794986224
098E  4EC4C407           [073] gettable   17  15  275  ; "mExpiry"
0992  22840001           [074] call       16  2   2  
fail op	21
0996  15008482           [075] concat     0   261 16 
099A  1A401380           [076] jmp        78           ; to [155]
099E  13040001           [077] getupval   16  2      
09A2  52048002           [078] move       17  5      
09A6  92040003           [079] move       18  6      
09AA  D2048004           [080] move       19  9      
09AE  12058007           [081] move       20  15     
09B2  22848002           [082] call       16  5   2  
09B6  18040000           [083] test       16      0    ; to [85] if true
09BA  1A800680           [084] jmp        27           ; to [112]
09BE  18420000           [085] test       8       1    ; to [87] if false
09C2  1A000680           [086] jmp        25           ; to [112]
09C6  5D840300           [087] getglobal  17  14       ; 1672515847
09CA  8E04C507           [088] gettable   18  15  276  ; "mRegionDrops"
09CE  62040101           [089] call       17  2   4  
09D2  1A800480           [090] jmp        19           ; to [110]
09D6  9D450000           [091] getglobal  22  1        ; 1074689893
09DA  D205800A           [092] move       23  21     
09DE  A2850001           [093] call       22  2   2  
09E2  98450000           [094] test       22      1    ; to [96] if false
09E6  1A400380           [095] jmp        14           ; to [110]
09EA  A445C50A           [096] self       22  21  277  ; -1957065004
09EE  1D860500           [097] getglobal  24  22       ; gPickUpType
09F2  A2858001           [098] call       22  3   2  
09F6  98050000           [099] test       22      0    ; to [101] if true
09FA  1A000280           [100] jmp        9            ; to [110]
09FE  A4C54500           [101] self       22  0   279  ; -1410754067
0A02  1D060600           [102] getglobal  24  24       ; -895206725
0A06  5206800A           [103] move       25  21     
0A0A  22860001           [104] call       24  2   2  
0A0E  5D460600           [105] getglobal  25  25       ; dropChance
0A12  8B060000           [106] newtable   26  0   0    ; array=0, hash=0
0A16  DD860600           [107] getglobal  27  26       ; dropRateUpgrade
0A1A  1DC70600           [108] getglobal  28  27       ; dropRateUpgradeValidType
0A1E  A2458003           [109] call       22  7   1  
0A22  56840000           [110] tforloop   17      2    ; to [112] if exit
0A26  1A80FA7F           [111] jmp        -21          ; to [91]
0A2A  8E05C707           [112] gettable   22  15  284  ; "mArchwingDrops"
0A2E  8A05000B           [113] len        22  22     
fail op	21
0A32  15808582           [114] concat     0   261 22 
0A36  1A800980           [115] jmp        39           ; to [155]
0A3A  18020000           [116] test       8       0    ; to [118] if true
0A3E  1A000980           [117] jmp        37           ; to [155]
0A42  8E45C703           [118] gettable   22  7   285  ; "faction"
0A46  CE85C707           [119] gettable   23  15  286  ; "mFaction"
fail op	35
0A4A  23C0050B           [120] close      0  
0A4E  1A000880           [121] jmp        33           ; to [155]
0A52  8EC5C703           [122] gettable   22  7   287  ; "minEnemyLevel"
fail op	21
0A56  15800590           [123] concat     0   288 22 
0A5A  1A400780           [124] jmp        30           ; to [155]
0A5E  8E45C803           [125] gettable   22  7   289  ; "missionType"
0A62  DD850800           [126] getglobal  23  34       ; Lotus_Game
0A66  CEC5C80B           [127] gettable   23  23  291  ; "MT_RACE"
fail op	35
0A6A  63C0050B           [128] close      1  
0A6E  1A000680           [129] jmp        25           ; to [155]
0A72  9D850300           [130] getglobal  22  14       ; 1672515847
0A76  CE05C707           [131] gettable   23  15  284  ; "mArchwingDrops"
0A7A  A2050101           [132] call       22  2   4  
0A7E  1A800480           [133] jmp        19           ; to [153]
0A82  DD460000           [134] getglobal  27  1        ; 1074689893
0A86  1207000D           [135] move       28  26     
0A8A  E2860001           [136] call       27  2   2  
0A8E  D8460000           [137] test       27      1    ; to [139] if false
0A92  1A400380           [138] jmp        14           ; to [153]
0A96  E446450D           [139] self       27  26  277  ; -1957065004
0A9A  5D870500           [140] getglobal  29  22       ; gPickUpType
0A9E  E2868001           [141] call       27  3   2  
0AA2  D8060000           [142] test       27      0    ; to [144] if true
0AA6  1A000280           [143] jmp        9            ; to [153]
0AAA  E4C64500           [144] self       27  0   279  ; -1410754067
0AAE  5D070600           [145] getglobal  29  24       ; -895206725
0AB2  9207000D           [146] move       30  26     
0AB6  62870001           [147] call       29  2   2  
0ABA  9D470600           [148] getglobal  30  25       ; dropChance
0ABE  CB070000           [149] newtable   31  0   0    ; array=0, hash=0
0AC2  1D880600           [150] getglobal  32  26       ; dropRateUpgrade
0AC6  5DC80600           [151] getglobal  33  27       ; dropRateUpgradeValidType
0ACA  E2468003           [152] call       27  7   1  
0ACE  96850000           [153] tforloop   22      2    ; to [155] if exit
0AD2  1A80FA7F           [154] jmp        -21          ; to [134]
0AD6  D6820000           [155] tforloop   11      2    ; to [157] if exit
0ADA  1AC0E87F           [156] jmp        -92          ; to [65]
0ADE  1E008000           [157] return     0   1      
                         * constants:
0AE2  24                 sizek (36)
0AE3  04                 const type 4
0AE4  0B                 string size (11)
0AE5  6747616D6552756C+  "gGameRul"
0AED  657300             "es\0"
                         const [0]: "gGameRules"
0AF0  01                 const type 3
0AF1  65770E40           const [1]: (1074689893)
0AF5  01                 const type 3
0AF6  497363B8           const [2]: (-1201441975)
0AFA  04                 const type 4
0AFB  12                 string size (18)
0AFC  67506C6179657250+  "gPlayerP"
0B04  726F66696C654D67+  "rofileMg"
0B0C  7200               "r\0"
                         const [3]: "gPlayerProfileMgr"
0B0E  01                 const type 3
0B0F  1A7BEF21           const [4]: (569342746)
0B13  03                 const type 3
0B14  00000000           const [5]: (0)
0B18  01                 const type 3
0B19  92104F65           const [6]: (1699680402)
0B1D  01                 const type 3
0B1E  43E13B44           const [7]: (1144774979)
0B22  01                 const type 3
0B23  0F865E31           const [8]: (828278287)
0B27  01                 const type 3
0B28  F2AC3ABB           const [9]: (-1153782542)
0B2C  01                 const type 3
0B2D  FD9841F6           const [10]: (-163473155)
0B31  01                 const type 3
0B32  E13C21DF           const [11]: (-551469855)
0B36  04                 const type 4
0B37  07                 string size (7)
0B38  726567696F6E00     "region\0"
                         const [12]: "region"
0B3F  01                 const type 3
0B40  868A0B2D           const [13]: (755731078)
0B44  01                 const type 3
0B45  0791B063           const [14]: (1672515847)
0B49  04                 const type 4
0B4A  07                 string size (7)
0B4B  6D476F616C7300     "mGoals\0"
                         const [15]: "mGoals"
0B52  04                 const type 4
0B53  07                 string size (7)
0B54  456E67696E6500     "Engine\0"
                         const [16]: "Engine"
0B5B  01                 const type 3
0B5C  10799DD0           const [17]: (-794986224)
0B60  04                 const type 4
0B61  0C                 string size (12)
0B62  6D41637469766174+  "mActivat"
0B6A  696F6E00           "ion\0"
                         const [18]: "mActivation"
0B6E  04                 const type 4
0B6F  08                 string size (8)
0B70  6D45787069727900   "mExpiry\0"
                         const [19]: "mExpiry"
0B78  04                 const type 4
0B79  0D                 string size (13)
0B7A  6D526567696F6E44+  "mRegionD"
0B82  726F707300         "rops\0"
                         const [20]: "mRegionDrops"
0B87  01                 const type 3
0B88  D48E598B           const [21]: (-1957065004)
0B8C  04                 const type 4
0B8D  0C                 string size (12)
0B8E  675069636B557054+  "gPickUpT"
0B96  79706500           "ype\0"
                         const [22]: "gPickUpType"
0B9A  01                 const type 3
0B9B  ED99E9AB           const [23]: (-1410754067)
0B9F  01                 const type 3
0BA0  BB3AA4CA           const [24]: (-895206725)
0BA4  04                 const type 4
0BA5  0B                 string size (11)
0BA6  64726F704368616E+  "dropChan"
0BAE  636500             "ce\0"
                         const [25]: "dropChance"
0BB1  04                 const type 4
0BB2  10                 string size (16)
0BB3  64726F7052617465+  "dropRate"
0BBB  5570677261646500   "Upgrade\0"
                         const [26]: "dropRateUpgrade"
0BC3  04                 const type 4
0BC4  19                 string size (25)
0BC5  64726F7052617465+  "dropRate"
0BCD  5570677261646556+  "UpgradeV"
0BD5  616C696454797065+  "alidType"
0BDD  00                 "\0"
                         const [27]: "dropRateUpgradeValidType"
0BDE  04                 const type 4
0BDF  0F                 string size (15)
0BE0  6D4172636877696E+  "mArchwin"
0BE8  6744726F707300     "gDrops\0"
                         const [28]: "mArchwingDrops"
0BEF  04                 const type 4
0BF0  08                 string size (8)
0BF1  66616374696F6E00   "faction\0"
                         const [29]: "faction"
0BF9  04                 const type 4
0BFA  09                 string size (9)
0BFB  6D46616374696F6E+  "mFaction"
0C03  00                 "\0"
                         const [30]: "mFaction"
0C04  04                 const type 4
0C05  0E                 string size (14)
0C06  6D696E456E656D79+  "minEnemy"
0C0E  4C6576656C00       "Level\0"
                         const [31]: "minEnemyLevel"
0C14  03                 const type 3
0C15  00002041           const [32]: (0)
0C19  04                 const type 4
0C1A  0C                 string size (12)
0C1B  6D697373696F6E54+  "missionT"
0C23  79706500           "ype\0"
                         const [33]: "missionType"
0C27  04                 const type 4
0C28  0B                 string size (11)
0C29  4C6F7475735F4761+  "Lotus_Ga"
0C31  6D6500             "me\0"
                         const [34]: "Lotus_Game"
0C34  04                 const type 4
0C35  08                 string size (8)
0C36  4D545F5241434500   "MT_RACE\0"
                         const [35]: "MT_RACE"
                         * functions:
0C3E  00                 sizep (0)
                         * lines:
0C40  01                 sizelineinfo (157)
                         [pc] (line)
0C41  5F                 [001] (95)
0C42  00                 [002] (96)
0C43  00                 [003] (96)
0C44  00                 [004] (96)
0C45  60                 [005] (96)
0C46  00                 [006] (96)
0C47  00                 [007] (96)
0C48  00                 [008] (96)
0C49  60                 [009] (96)
0C4A  00                 [010] (96)
0C4B  00                 [011] (96)
0C4C  00                 [012] (96)
0C4D  60                 [013] (97)
0C4E  00                 [014] (100)
0C4F  00                 [015] (100)
0C50  00                 [016] (100)
0C51  60                 [017] (100)
0C52  00                 [018] (101)
0C53  00                 [019] (101)
0C54  00                 [020] (101)
0C55  60                 [021] (101)
0C56  00                 [022] (101)
0C57  00                 [023] (102)
0C58  00                 [024] (105)
0C59  60                 [025] (105)
0C5A  00                 [026] (106)
0C5B  00                 [027] (106)
0C5C  00                 [028] (106)
0C5D  60                 [029] (106)
0C5E  00                 [030] (106)
0C5F  00                 [031] (107)
0C60  00                 [032] (110)
0C61  60                 [033] (110)
0C62  00                 [034] (112)
0C63  00                 [035] (112)
0C64  00                 [036] (112)
0C65  60                 [037] (112)
0C66  00                 [038] (112)
0C67  00                 [039] (112)
0C68  00                 [040] (112)
0C69  60                 [041] (112)
0C6A  00                 [042] (112)
0C6B  00                 [043] (113)
0C6C  00                 [044] (116)
0C6D  60                 [045] (116)
0C6E  00                 [046] (116)
0C6F  00                 [047] (117)
0C70  00                 [048] (117)
0C71  61                 [049] (117)
0C72  00                 [050] (118)
0C73  00                 [051] (118)
0C74  00                 [052] (118)
0C75  64                 [053] (119)
0C76  00                 [054] (119)
0C77  00                 [055] (120)
0C78  00                 [056] (120)
0C79  64                 [057] (120)
0C7A  00                 [058] (120)
0C7B  00                 [059] (122)
0C7C  00                 [060] (122)
0C7D  64                 [061] (123)
0C7E  00                 [062] (123)
0C7F  00                 [063] (123)
0C80  00                 [064] (123)
0C81  64                 [065] (124)
0C82  00                 [066] (124)
0C83  00                 [067] (124)
0C84  00                 [068] (124)
0C85  65                 [069] (124)
0C86  00                 [070] (124)
0C87  00                 [071] (124)
0C88  00                 [072] (124)
0C89  65                 [073] (124)
0C8A  00                 [074] (124)
0C8B  00                 [075] (124)
0C8C  00                 [076] (124)
0C8D  65                 [077] (125)
0C8E  00                 [078] (125)
0C8F  00                 [079] (125)
0C90  00                 [080] (125)
0C91  65                 [081] (125)
0C92  00                 [082] (125)
0C93  00                 [083] (127)
0C94  00                 [084] (127)
0C95  65                 [085] (127)
0C96  00                 [086] (127)
0C97  00                 [087] (-128)
0C98  00                 [088] (-128)
0C99  66                 [089] (-128)
0C9A  00                 [090] (-128)
0C9B  00                 [091] (-127)
0C9C  00                 [092] (-127)
0C9D  69                 [093] (-127)
0C9E  00                 [094] (-127)
0C9F  00                 [095] (-127)
0CA0  00                 [096] (-127)
0CA1  69                 [097] (-127)
0CA2  00                 [098] (-127)
0CA3  00                 [099] (-127)
0CA4  00                 [100] (-127)
0CA5  6A                 [101] (-126)
0CA6  00                 [102] (-126)
0CA7  00                 [103] (-126)
0CA8  00                 [104] (-126)
0CA9  6A                 [105] (-126)
0CAA  00                 [106] (-126)
0CAB  00                 [107] (-126)
0CAC  00                 [108] (-126)
0CAD  6A                 [109] (-126)
0CAE  00                 [110] (-128)
0CAF  00                 [111] (-125)
0CB0  00                 [112] (-121)
0CB1  6A                 [113] (-121)
0CB2  00                 [114] (-121)
0CB3  00                 [115] (-121)
0CB4  00                 [116] (-121)
0CB5  6A                 [117] (-121)
0CB6  00                 [118] (-121)
0CB7  00                 [119] (-121)
0CB8  00                 [120] (-121)
0CB9  6B                 [121] (-121)
0CBA  00                 [122] (-121)
0CBB  00                 [123] (-121)
0CBC  00                 [124] (-121)
0CBD  6E                 [125] (-121)
0CBE  00                 [126] (-121)
0CBF  00                 [127] (-121)
0CC0  00                 [128] (-121)
0CC1  6E                 [129] (-121)
0CC2  00                 [130] (-120)
0CC3  00                 [131] (-120)
0CC4  00                 [132] (-120)
0CC5  70                 [133] (-120)
0CC6  00                 [134] (-119)
0CC7  00                 [135] (-119)
0CC8  00                 [136] (-119)
0CC9  70                 [137] (-119)
0CCA  00                 [138] (-119)
0CCB  00                 [139] (-119)
0CCC  00                 [140] (-119)
0CCD  70                 [141] (-119)
0CCE  00                 [142] (-119)
0CCF  00                 [143] (-119)
0CD0  00                 [144] (-118)
0CD1  70                 [145] (-118)
0CD2  00                 [146] (-118)
0CD3  00                 [147] (-118)
0CD4  00                 [148] (-118)
0CD5  70                 [149] (-118)
0CD6  00                 [150] (-118)
0CD7  00                 [151] (-118)
0CD8  00                 [152] (-118)
0CD9  70                 [153] (-120)
0CDA  00                 [154] (-117)
0CDB  00                 [155] (123)
0CDC  00                 [156] (-114)
0CDD  70                 [157] (-111)
                         * locals:
0EB5  00                 sizelocvars (0)
                         * upvalues:
0EB6  00                 sizeupvalues (0)
                         ** end of function **

                         
0EB7                     ** function [7] definition (level 2)
                         ** start of function **
0EB7  00                 string size (0)
                         source name: (none)
0EB9  01                 line defined (147)
0EBA  B8                 last line defined (184)
0EBB  01                 nups (0)
0EBC  00                 numparams (1)
0EBD  01                 is_vararg (0)
0EBE  00                 maxstacksize (25)
                         * code:
0EC0  5D                 sizecode (93)
0EC1  5D000000           [01] getglobal  1   0        ; gGameRules
0EC5  9D400000           [02] getglobal  2   1        ; 1074689893
0EC9  D2008000           [03] move       3   1      
0ECD  A2800001           [04] call       2   2   2  
0ED1  98400000           [05] test       2       1    ; to [7] if false
0ED5  1A400180           [06] jmp        6            ; to [13]
0ED9  9D400000           [07] getglobal  2   1        ; 1074689893
0EDD  E480C000           [08] self       3   1   258  ; -1201441975
0EE1  E2000001           [09] call       3   2   0  
0EE5  A2800000           [10] call       2   0   2  
0EE9  98000000           [11] test       2       0    ; to [13] if true
0EED  1A000080           [12] jmp        1            ; to [14]
0EF1  1E008000           [13] return     0   1      
0EF5  9DC00000           [14] getglobal  2   3        ; gPlayerProfileMgr
0EF9  A4004101           [15] self       2   2   260  ; 569342746
0EFD  19410100           [16] loadk      4   5        ; 0
0F01  A2808001           [17] call       2   3   2  
0F05  DD400000           [18] getglobal  3   1        ; 1074689893
0F09  12010001           [19] move       4   2      
0F0D  E2800001           [20] call       3   2   2  
0F11  D8000000           [21] test       3       0    ; to [23] if true
0F15  1A000080           [22] jmp        1            ; to [24]
0F19  1E008000           [23] return     0   1      
0F1D  E4804101           [24] self       3   2   262  ; 1699680402
0F21  E2800001           [25] call       3   2   2  
0F25  1D410000           [26] getglobal  4   1        ; 1074689893
0F29  52018001           [27] move       5   3      
0F2D  22810001           [28] call       4   2   2  
0F31  18010000           [29] test       4       0    ; to [31] if true
0F35  1A000080           [30] jmp        1            ; to [32]
0F39  1E008000           [31] return     0   1      
0F3D  2481C000           [32] self       4   1   258  ; -1201441975
0F41  22810001           [33] call       4   2   2  
0F45  0EC14102           [34] gettable   4   4   263  ; "sortieId"
fail op	35
0F49  23004202           [35] close      0  
0F4D  1A000080           [36] jmp        1            ; to [38]
0F51  1E008000           [37] return     0   1      
0F55  5D410200           [38] getglobal  5   9        ; string
0F59  4E81C202           [39] gettable   5   5   266  ; -565905820
0F5D  92010002           [40] move       6   4      
0F61  D9C10200           [41] loadk      7   11       ; "_"
0F65  62818001           [42] call       5   3   2  
fail op	35
0F69  6300C302           [43] close      1  
0F6D  1AC00B80           [44] jmp        48           ; to [93]
0F71  A441C301           [45] self       6   3   269  ; 755731078
0F75  A2810001           [46] call       6   2   2  
0F79  DD410200           [47] getglobal  7   9        ; string
0F7D  CE81C303           [48] gettable   7   7   270  ; 2071470131
0F81  12020002           [49] move       8   4      
0F85  43C2C302           [50] add        9   5   271  ; 0
0F89  E2818001           [51] call       7   3   2  
0F8D  1D020400           [52] getglobal  8   16       ; 1672515847
0F91  4E424403           [53] gettable   9   6   273  ; "mSorties"
0F95  22020101           [54] call       8   2   4  
0F99  1A800880           [55] jmp        35           ; to [91]
0F9D  5D830400           [56] getglobal  13  18       ; Engine
0FA1  4EC3C406           [57] gettable   13  13  275  ; -794986224
0FA5  8E034506           [58] gettable   14  12  276  ; "mExpiry"
0FA9  62830001           [59] call       13  2   2  
fail op	21
0FAD  15408382           [60] concat     0   261 13 
0FB1  1A000780           [61] jmp        29           ; to [91]
0FB5  4E434506           [62] gettable   13  12  277  ; "mId"
0FB9  4E43C506           [63] gettable   13  13  277  ; "mId"
fail op	35
0FBD  23C08106           [64] close      0  
0FC1  1A000680           [65] jmp        25           ; to [91]
0FC5  5D030400           [66] getglobal  13  16       ; 1672515847
0FC9  8E834506           [67] gettable   14  12  278  ; "mRegionDrops"
0FCD  62030101           [68] call       13  2   4  
0FD1  1A800480           [69] jmp        19           ; to [89]
0FD5  9D440000           [70] getglobal  18  1        ; 1074689893
0FD9  D2048008           [71] move       19  17     
0FDD  A2840001           [72] call       18  2   2  
0FE1  98440000           [73] test       18      1    ; to [75] if false
0FE5  1A400380           [74] jmp        14           ; to [89]
0FE9  A4C4C508           [75] self       18  17  279  ; -1957065004
0FED  1D050600           [76] getglobal  20  24       ; gPickUpType
0FF1  A2848001           [77] call       18  3   2  
0FF5  98040000           [78] test       18      0    ; to [80] if true
0FF9  1A000280           [79] jmp        9            ; to [89]
0FFD  A4444600           [80] self       18  0   281  ; -1410754067
1001  1D850600           [81] getglobal  20  26       ; -895206725
1005  52058008           [82] move       21  17     
1009  22850001           [83] call       20  2   2  
100D  5DC50600           [84] getglobal  21  27       ; dropChance
1011  8B050000           [85] newtable   22  0   0    ; array=0, hash=0
1015  DD050700           [86] getglobal  23  28       ; dropRateUpgrade
1019  1D460700           [87] getglobal  24  29       ; dropRateUpgradeValidType
101D  A2448003           [88] call       18  7   1  
1021  56830000           [89] tforloop   13      2    ; to [91] if exit
1025  1A80FA7F           [90] jmp        -21          ; to [70]
1029  16820000           [91] tforloop   8       2    ; to [93] if exit
102D  1A80F67F           [92] jmp        -37          ; to [56]
1031  1E008000           [93] return     0   1      
                         * constants:
1035  1E                 sizek (30)
1036  04                 const type 4
1037  0B                 string size (11)
1038  6747616D6552756C+  "gGameRul"
1040  657300             "es\0"
                         const [0]: "gGameRules"
1043  01                 const type 3
1044  65770E40           const [1]: (1074689893)
1048  01                 const type 3
1049  497363B8           const [2]: (-1201441975)
104D  04                 const type 4
104E  12                 string size (18)
104F  67506C6179657250+  "gPlayerP"
1057  726F66696C654D67+  "rofileMg"
105F  7200               "r\0"
                         const [3]: "gPlayerProfileMgr"
1061  01                 const type 3
1062  1A7BEF21           const [4]: (569342746)
1066  03                 const type 3
1067  00000000           const [5]: (0)
106B  01                 const type 3
106C  92104F65           const [6]: (1699680402)
1070  04                 const type 4
1071  09                 string size (9)
1072  736F727469654964+  "sortieId"
107A  00                 "\0"
                         const [7]: "sortieId"
107B  04                 const type 4
107C  01                 string size (0)
                         const [8]: ""
107E  04                 const type 4
107F  07                 string size (7)
1080  737472696E6700     "string\0"
                         const [9]: "string"
1087  01                 const type 3
1088  64F644DE           const [10]: (-565905820)
108C  04                 const type 4
108D  02                 string size (2)
108E  5F00               "_\0"
                         const [11]: "_"
1090  00                 const type 0
                         const [12]: nil
1091  01                 const type 3
1092  868A0B2D           const [13]: (755731078)
1096  01                 const type 3
1097  3320787B           const [14]: (2071470131)
109B  03                 const type 3
109C  0000803F           const [15]: (0)
10A0  01                 const type 3
10A1  0791B063           const [16]: (1672515847)
10A5  04                 const type 4
10A6  09                 string size (9)
10A7  6D536F7274696573+  "mSorties"
10AF  00                 "\0"
                         const [17]: "mSorties"
10B0  04                 const type 4
10B1  07                 string size (7)
10B2  456E67696E6500     "Engine\0"
                         const [18]: "Engine"
10B9  01                 const type 3
10BA  10799DD0           const [19]: (-794986224)
10BE  04                 const type 4
10BF  08                 string size (8)
10C0  6D45787069727900   "mExpiry\0"
                         const [20]: "mExpiry"
10C8  04                 const type 4
10C9  04                 string size (4)
10CA  6D496400           "mId\0"
                         const [21]: "mId"
10CE  04                 const type 4
10CF  0D                 string size (13)
10D0  6D526567696F6E44+  "mRegionD"
10D8  726F707300         "rops\0"
                         const [22]: "mRegionDrops"
10DD  01                 const type 3
10DE  D48E598B           const [23]: (-1957065004)
10E2  04                 const type 4
10E3  0C                 string size (12)
10E4  675069636B557054+  "gPickUpT"
10EC  79706500           "ype\0"
                         const [24]: "gPickUpType"
10F0  01                 const type 3
10F1  ED99E9AB           const [25]: (-1410754067)
10F5  01                 const type 3
10F6  BB3AA4CA           const [26]: (-895206725)
10FA  04                 const type 4
10FB  0B                 string size (11)
10FC  64726F704368616E+  "dropChan"
1104  636500             "ce\0"
                         const [27]: "dropChance"
1107  04                 const type 4
1108  10                 string size (16)
1109  64726F7052617465+  "dropRate"
1111  5570677261646500   "Upgrade\0"
                         const [28]: "dropRateUpgrade"
1119  04                 const type 4
111A  19                 string size (25)
111B  64726F7052617465+  "dropRate"
1123  5570677261646556+  "UpgradeV"
112B  616C696454797065+  "alidType"
1133  00                 "\0"
                         const [29]: "dropRateUpgradeValidType"
                         * functions:
1134  00                 sizep (0)
                         * lines:
1135  5D                 sizelineinfo (93)
                         [pc] (line)
1136  94                 [01] (-108)
1137  00                 [02] (-107)
1138  00                 [03] (-107)
1139  00                 [04] (-107)
113A  95                 [05] (-107)
113B  00                 [06] (-107)
113C  00                 [07] (-107)
113D  00                 [08] (-107)
113E  95                 [09] (-107)
113F  00                 [10] (-107)
1140  00                 [11] (-107)
1141  00                 [12] (-107)
1142  95                 [13] (-106)
1143  00                 [14] (-103)
1144  00                 [15] (-103)
1145  00                 [16] (-103)
1146  95                 [17] (-103)
1147  00                 [18] (-102)
1148  00                 [19] (-102)
1149  00                 [20] (-102)
114A  95                 [21] (-102)
114B  00                 [22] (-102)
114C  00                 [23] (-101)
114D  00                 [24] (-98)
114E  95                 [25] (-98)
114F  00                 [26] (-97)
1150  00                 [27] (-97)
1151  00                 [28] (-97)
1152  95                 [29] (-97)
1153  00                 [30] (-97)
1154  00                 [31] (-96)
1155  00                 [32] (-92)
1156  95                 [33] (-92)
1157  00                 [34] (-92)
1158  00                 [35] (-91)
1159  00                 [36] (-91)
115A  95                 [37] (-90)
115B  00                 [38] (-87)
115C  00                 [39] (-87)
115D  00                 [40] (-87)
115E  95                 [41] (-87)
115F  00                 [42] (-87)
1160  00                 [43] (-86)
1161  00                 [44] (-86)
1162  95                 [45] (-85)
1163  00                 [46] (-85)
1164  00                 [47] (-84)
1165  00                 [48] (-84)
1166  96                 [49] (-84)
1167  00                 [50] (-84)
1168  00                 [51] (-84)
1169  00                 [52] (-82)
116A  99                 [53] (-82)
116B  00                 [54] (-82)
116C  00                 [55] (-82)
116D  00                 [56] (-81)
116E  99                 [57] (-81)
116F  00                 [58] (-81)
1170  00                 [59] (-81)
1171  00                 [60] (-81)
1172  99                 [61] (-81)
1173  00                 [62] (-81)
1174  00                 [63] (-81)
1175  00                 [64] (-81)
1176  99                 [65] (-81)
1177  00                 [66] (-80)
1178  00                 [67] (-80)
1179  00                 [68] (-80)
117A  9A                 [69] (-80)
117B  00                 [70] (-79)
117C  00                 [71] (-79)
117D  00                 [72] (-79)
117E  9A                 [73] (-79)
117F  00                 [74] (-79)
1180  00                 [75] (-79)
1181  00                 [76] (-79)
1182  9A                 [77] (-79)
1183  00                 [78] (-79)
1184  00                 [79] (-79)
1185  00                 [80] (-78)
1186  9A                 [81] (-78)
1187  00                 [82] (-78)
1188  00                 [83] (-78)
1189  00                 [84] (-78)
118A  9A                 [85] (-78)
118B  00                 [86] (-78)
118C  00                 [87] (-78)
118D  00                 [88] (-78)
118E  9B                 [89] (-80)
118F  00                 [90] (-77)
1190  00                 [91] (-82)
1191  00                 [92] (-75)
1192  9E                 [93] (-72)
                         * locals:
12AA  00                 sizelocvars (0)
                         * upvalues:
12AB  00                 sizeupvalues (0)
                         ** end of function **

                         * lines:
12AC  1F                 sizelineinfo (31)
                         [pc] (line)
12AD  06                 [01] (6)
12AE  00                 [02] (6)
12AF  00                 [03] (6)
12B0  00                 [04] (16)
12B1  06                 [05] (20)
12B2  00                 [06] (20)
12B3  00                 [07] (20)
12B4  00                 [08] (18)
12B5  06                 [09] (24)
12B6  00                 [10] (24)
12B7  00                 [11] (24)
12B8  00                 [12] (22)
12B9  10                 [13] (33)
12BA  00                 [14] (33)
12BB  00                 [15] (26)
12BC  00                 [16] (54)
12BD  14                 [17] (92)
12BE  00                 [18] (92)
12BF  00                 [19] (92)
12C0  00                 [20] (92)
12C1  14                 [21] (56)
12C2  00                 [22] (-111)
12C3  00                 [23] (-111)
12C4  00                 [24] (-111)
12C5  14                 [25] (-111)
12C6  00                 [26] (-111)
12C7  00                 [27] (94)
12C8  00                 [28] (-72)
12C9  12                 [29] (-72)
12CA  00                 [30] (-109)
12CB  00                 [31] (-72)
                         * locals:
1329  00                 sizelocvars (0)
                         * upvalues:
132A  00                 sizeupvalues (0)
                         ** end of function **

132B                     ** end of chunk **
