1	C:\wlua_dump\path\Lotus\ScriptsDojo.lua
Pos   Hex Data           Description or Code
------------------------------------------------------------------------
0000                     ** source chunk: C:\wlua_dump\path\Lotus\ScriptsDojo.lua
                         ** global header start **
0000  7F                 header signature: ""
0001  00                 version (major:minor hex digits)
0002  00                 format (0=official)
0003  00                 endianness (1=little endian)
0004  00                 size of int (bytes)
0005  00                 size of size_t (bytes)
0006  02                 size of Instruction (bytes)
0007  11                 size of number (bytes)
0008  42                 integral (1=integral)
466
                         * number type: single
                         * x86 standard (32-bit, little endian, doubles)
                         ** global header end **
EE.Interface.Utilities
Lotus.Interface.LotusUtilities
/Lotus/Language/ActivityFeed/ActivityFeedRankPromoted
/Lotus/Language/Ranks/Rank1
args
FlyIn
ToWhite
ToWhiteAndBack
Tutorial
ToggleTriggers
OnTrainingResultUploaded
TestOne
TestTutorial
TestSetup
gGameRules
message
duration
expiryEndMission
gGameRules
gFlashMgr
endMissionMovie
AutoClose

gGameRules
_T
tutorialActive
gRegion
hudEmphasisFX
ScreenDuck

gRegion
postProcess
transitionSound
fade
music
gFlashMgr
introTextMovie
gRegion
postProcess
fade
gRegion
postProcess
fade
enemyProjectorFX
EMPTY_SYMBOL
gEntityType
gFlashMgr
transmissionMovie
_T
tutorialActive
gRegion
postProcess
gGameRules
Game
AVATAR_SHIELD_MAX
SET
warframe
SuitFrame
_visible
WeaponFrame
DisableMiniMap
Reticle
bloom
fade
trans
SuitFrame.EnergyPanel.Health
Engine
healthType
healthSpawn
energySpawn
SuitFrame.EnergyPanel.Shield
waypoints
DT_EXPLOSION
meleeWeapon
enemy
weaponTwo
SLOT_6
EXTRA2
InventoryControllerBase_ES_INSTANT_EQUIP
SLOT_2
MAIN_HAND
SuitFrame.EnergyPanel.XPBar
WeaponFrame.XPBar
weaponOne
meleeEnemy
spawnPoints
marineEnemy
RandomTeam
firstPowerUpgradeType
x
y
SuitFrame.EnergyPanel.Ability1
energyType
gPlayerProfileMgr
abilityNoTouchpadTrans
modType
ZERO_ROTATION
teleporttrigger
portalmeshes
objectivemarker
Enable
MiniMapContainer.MiniMap
preBridgeTrigger
postBridgeTrigger
wallrunGuide
wallrunGuideAnim
Show
pitFallTrigger
Hide
Disable
fightingMusic
disableTrig
enableTrig
Dojo: OnTrainingResultUploaded result=
, body=
gRegion
gPlayerProfileMgr
gGameRules
endcin
StartPlaying
_T
tutorialActive
OnTrainingResultUploaded
PLAYER_NAME
 
eomDialog
Open
gRegion
dojoFX
EMPTY_SYMBOL
StandAnim
Engine
ATMM_PHYSICS_DRIVEN
PRT_ONCE
                         
0001                     ** function [0] definition (level 1)
                         ** start of function **
0001  00                 string size (0)
                         source name: (none)
0002  00                 line defined (0)
0003  00                 last line defined (0)
0004  00                 nups (0)
0005  00                 numparams (0)
0006  02                 is_vararg (2)
0007  11                 maxstacksize (17)
                         * code:
0008  42                 sizecode (66)
0009  5D000000           [01] getglobal  1   0        ; 849075268
000D  99400000           [02] loadk      2   1        ; "EE.Interface.Utilities"
0011  62800001           [03] call       1   2   2  
0015  9D000000           [04] getglobal  2   0        ; 849075268
0019  D9800000           [05] loadk      3   2        ; "Lotus.Interface.LotusUtilities"
001D  A2800001           [06] call       2   2   2  
0021  D9C00000           [07] loadk      3   3        ; "/Lotus/Language/ActivityFeed/ActivityFeedRankPromoted"
0025  1D010100           [08] getglobal  4   4        ; -421772368
0029  59410100           [09] loadk      5   5        ; "/Lotus/Language/Ranks/Rank1"
002D  9D810100           [10] getglobal  6   6        ; args
0031  22818001           [11] call       4   3   2  
0035  65010000           [12] closure    5   0      
0039  A5410000           [13] closure    6   1      
003D  E5810000           [14] closure    7   2      
0041  25C20000           [15] closure    8   3      
0045  65020100           [16] closure    9   4      
0049  A5420100           [17] closure    10  5      
004D  12000001           [18] move       0   2      
0051  E5820100           [19] closure    11  6      
0055  12008000           [20] move       0   1      
0059  25C30100           [21] closure    12  7      
005D  12008000           [22] move       0   1      
0061  20C30100           [23] setglobal  12  7        ; FlyIn
0065  20030200           [24] setglobal  12  8        ; 1297289157
0069  25030200           [25] closure    12  8      
006D  20430200           [26] setglobal  12  9        ; ToWhite
0071  20830200           [27] setglobal  12  10       ; 1157714508
0075  25430200           [28] closure    12  9      
0079  20C30200           [29] setglobal  12  11       ; ToWhiteAndBack
007D  20030300           [30] setglobal  12  12       ; -835929917
0081  25830200           [31] closure    12  10     
0085  65C30200           [32] closure    13  11     
0089  A5030300           [33] closure    14  12     
008D  12008006           [34] move       0   13     
0091  E5430300           [35] closure    15  13     
0095  12008005           [36] move       0   11     
0099  12000007           [37] move       0   14     
009D  12000005           [38] move       0   10     
00A1  12000006           [39] move       0   12     
00A5  12008000           [40] move       0   1      
00A9  12000000           [41] move       0   0      
00AD  E0430300           [42] setglobal  15  13       ; Tutorial
00B1  E0830300           [43] setglobal  15  14       ; -1217318201
00B5  E5830300           [44] closure    15  14     
00B9  E0C30300           [45] setglobal  15  15       ; ToggleTriggers
00BD  E0030400           [46] setglobal  15  16       ; -488744565
00C1  E5C30300           [47] closure    15  15     
00C5  E0430400           [48] setglobal  15  17       ; OnTrainingResultUploaded
00C9  E0830400           [49] setglobal  15  18       ; -1279103505
00CD  E5030400           [50] closure    15  16     
00D1  12008001           [51] move       0   3      
00D5  12000002           [52] move       0   4      
00D9  12000004           [53] move       0   8      
00DD  12008003           [54] move       0   7      
00E1  25440400           [55] closure    16  17     
00E5  12008007           [56] move       0   15     
00E9  20C40400           [57] setglobal  16  19       ; TestOne
00ED  20040500           [58] setglobal  16  20       ; -621168704
00F1  25840400           [59] closure    16  18     
00F5  12008007           [60] move       0   15     
00F9  20440500           [61] setglobal  16  21       ; TestTutorial
00FD  20840500           [62] setglobal  16  22       ; 763384420
0101  25C40400           [63] closure    16  19     
0105  20C40500           [64] setglobal  16  23       ; TestSetup
0109  20040600           [65] setglobal  16  24       ; -736795508
010D  1E008000           [66] return     0   1      
                         * constants:
0111  19                 sizek (25)
0112  01                 const type 3
0113  44DC9B32           const [0]: (849075268)
0117  04                 const type 4
0118  17                 string size (23)
0119  45452E496E746572+  "EE.Inter"
0121  666163652E557469+  "face.Uti"
0129  6C697469657300     "lities\0"
                         const [1]: "EE.Interface.Utilities"
0130  04                 const type 4
0131  1F                 string size (31)
0132  4C6F7475732E496E+  "Lotus.In"
013A  746572666163652E+  "terface."
0142  4C6F747573557469+  "LotusUti"
014A  6C697469657300     "lities\0"
                         const [2]: "Lotus.Interface.LotusUtilities"
0151  04                 const type 4
0152  36                 string size (54)
0153  2F4C6F7475732F4C+  "/Lotus/L"
015B  616E67756167652F+  "anguage/"
0163  4163746976697479+  "Activity"
016B  466565642F416374+  "Feed/Act"
0173  6976697479466565+  "ivityFee"
017B  6452616E6B50726F+  "dRankPro"
0183  6D6F74656400       "moted\0"
                         const [3]: "/Lotus/Language/ActivityFeed/ActivityFeedRankPromoted"
0189  01                 const type 3
018A  B043DCE6           const [4]: (-421772368)
018E  04                 const type 4
018F  1C                 string size (28)
0190  2F4C6F7475732F4C+  "/Lotus/L"
0198  616E67756167652F+  "anguage/"
01A0  52616E6B732F5261+  "Ranks/Ra"
01A8  6E6B3100           "nk1\0"
                         const [5]: "/Lotus/Language/Ranks/Rank1"
01AC  04                 const type 4
01AD  05                 string size (5)
01AE  6172677300         "args\0"
                         const [6]: "args"
01B3  04                 const type 4
01B4  06                 string size (6)
01B5  466C79496E00       "FlyIn\0"
                         const [7]: "FlyIn"
01BB  01                 const type 3
01BC  C50F534D           const [8]: (1297289157)
01C0  04                 const type 4
01C1  08                 string size (8)
01C2  546F576869746500   "ToWhite\0"
                         const [9]: "ToWhite"
01CA  01                 const type 3
01CB  4C520145           const [10]: (1157714508)
01CF  04                 const type 4
01D0  0F                 string size (15)
01D1  546F576869746541+  "ToWhiteA"
01D9  6E644261636B00     "ndBack\0"
                         const [11]: "ToWhiteAndBack"
01E0  01                 const type 3
01E1  C3B82CCE           const [12]: (-835929917)
01E5  04                 const type 4
01E6  09                 string size (9)
01E7  5475746F7269616C+  "Tutorial"
01EF  00                 "\0"
                         const [13]: "Tutorial"
01F0  01                 const type 3
01F1  C73271B7           const [14]: (-1217318201)
01F5  04                 const type 4
01F6  0F                 string size (15)
01F7  546F67676C655472+  "ToggleTr"
01FF  69676765727300     "iggers\0"
                         const [15]: "ToggleTriggers"
0206  01                 const type 3
0207  8B59DEE2           const [16]: (-488744565)
020B  04                 const type 4
020C  19                 string size (25)
020D  4F6E547261696E69+  "OnTraini"
0215  6E67526573756C74+  "ngResult"
021D  55706C6F61646564+  "Uploaded"
0225  00                 "\0"
                         const [17]: "OnTrainingResultUploaded"
0226  01                 const type 3
0227  EF6DC2B3           const [18]: (-1279103505)
022B  04                 const type 4
022C  08                 string size (8)
022D  546573744F6E6500   "TestOne\0"
                         const [19]: "TestOne"
0235  01                 const type 3
0236  C0B7F9DA           const [20]: (-621168704)
023A  04                 const type 4
023B  0D                 string size (13)
023C  546573745475746F+  "TestTuto"
0244  7269616C00         "rial\0"
                         const [21]: "TestTutorial"
0249  01                 const type 3
024A  6452802D           const [22]: (763384420)
024E  04                 const type 4
024F  0A                 string size (10)
0250  5465737453657475+  "TestSetu"
0258  7000               "p\0"
                         const [23]: "TestSetup"
025A  01                 const type 3
025B  8C6415D4           const [24]: (-736795508)
                         * functions:
025F  14                 sizep (20)
                         
0260                     ** function [0] definition (level 2)
                         ** start of function **
0260  00                 string size (0)
                         source name: (none)
0261  3D                 line defined (61)
0262  3F                 last line defined (63)
0263  00                 nups (0)
0264  00                 numparams (0)
0265  00                 is_vararg (0)
0266  07                 maxstacksize (7)
                         * code:
0267  0A                 sizecode (10)
0268  1D000000           [01] getglobal  0   0        ; gGameRules
026C  24404000           [02] self       0   0   257  ; -249861443
0270  9D800000           [03] getglobal  2   2        ; -332969190
0274  A2808000           [04] call       2   1   2  
0278  DDC00000           [05] getglobal  3   3        ; message
027C  1D010100           [06] getglobal  4   4        ; duration
0280  5D410100           [07] getglobal  5   5        ; expiryEndMission
0284  97018000           [08] loadbool   6   1   0    ; true
0288  22408003           [09] call       0   7   1  
028C  1E008000           [10] return     0   1      
                         * constants:
0290  06                 sizek (6)
0291  04                 const type 4
0292  0B                 string size (11)
0293  6747616D6552756C+  "gGameRul"
029B  657300             "es\0"
                         const [0]: "gGameRules"
029E  01                 const type 3
029F  BD6A1BF1           const [1]: (-249861443)
02A3  01                 const type 3
02A4  1A4B27EC           const [2]: (-332969190)
02A8  04                 const type 4
02A9  08                 string size (8)
02AA  6D65737361676500   "message\0"
                         const [3]: "message"
02B2  04                 const type 4
02B3  09                 string size (9)
02B4  6475726174696F6E+  "duration"
02BC  00                 "\0"
                         const [4]: "duration"
02BD  04                 const type 4
02BE  11                 string size (17)
02BF  657870697279456E+  "expiryEn"
02C7  644D697373696F6E+  "dMission"
02CF  00                 "\0"
                         const [5]: "expiryEndMission"
                         * functions:
02D0  00                 sizep (0)
                         * lines:
02D1  0A                 sizelineinfo (10)
                         [pc] (line)
02D2  3E                 [01] (62)
02D3  00                 [02] (62)
02D4  00                 [03] (62)
02D5  00                 [04] (62)
02D6  3E                 [05] (62)
02D7  00                 [06] (62)
02D8  00                 [07] (62)
02D9  00                 [08] (62)
02DA  3E                 [09] (62)
02DB  00                 [10] (63)
                         * locals:
02FA  00                 sizelocvars (0)
                         * upvalues:
02FB  00                 sizeupvalues (0)
                         ** end of function **

                         
02FC                     ** function [1] definition (level 2)
                         ** start of function **
02FC  00                 string size (0)
                         source name: (none)
02FD  41                 line defined (65)
02FE  43                 last line defined (67)
02FF  00                 nups (0)
0300  00                 numparams (0)
0301  00                 is_vararg (0)
0302  06                 maxstacksize (6)
                         * code:
0303  0A                 sizecode (10)
0304  1D000000           [01] getglobal  0   0        ; gGameRules
0308  24404000           [02] self       0   0   257  ; -249861443
030C  9D800000           [03] getglobal  2   2        ; -332969190
0310  A2808000           [04] call       2   1   2  
0314  DD800000           [05] getglobal  3   2        ; -332969190
0318  E2808000           [06] call       3   1   2  
031C  19C10000           [07] loadk      4   3        ; 0
0320  57010000           [08] loadbool   5   0   0    ; false
0324  22400003           [09] call       0   6   1  
0328  1E008000           [10] return     0   1      
                         * constants:
032C  04                 sizek (4)
032D  04                 const type 4
032E  0B                 string size (11)
032F  6747616D6552756C+  "gGameRul"
0337  657300             "es\0"
                         const [0]: "gGameRules"
033A  01                 const type 3
033B  BD6A1BF1           const [1]: (-249861443)
033F  01                 const type 3
0340  1A4B27EC           const [2]: (-332969190)
0344  03                 const type 3
0345  000080BF           const [3]: (0)
                         * functions:
0349  00                 sizep (0)
                         * lines:
034A  0A                 sizelineinfo (10)
                         [pc] (line)
034B  42                 [01] (66)
034C  00                 [02] (66)
034D  00                 [03] (66)
034E  00                 [04] (66)
034F  42                 [05] (66)
0350  00                 [06] (66)
0351  00                 [07] (66)
0352  00                 [08] (66)
0353  42                 [09] (66)
0354  00                 [10] (67)
                         * locals:
0373  00                 sizelocvars (0)
                         * upvalues:
0374  00                 sizeupvalues (0)
                         ** end of function **

                         
0375                     ** function [2] definition (level 2)
                         ** start of function **
0375  00                 string size (0)
                         source name: (none)
0376  45                 line defined (69)
0377  4C                 last line defined (76)
0378  00                 nups (0)
0379  00                 numparams (0)
037A  00                 is_vararg (0)
037B  05                 maxstacksize (5)
                         * code:
037C  0E                 sizecode (14)
037D  1D000000           [01] getglobal  0   0        ; gFlashMgr
0381  24404000           [02] self       0   0   257  ; 1634586770
0385  9D800000           [03] getglobal  2   2        ; endMissionMovie
0389  22808001           [04] call       0   3   2  
038D  5DC00000           [05] getglobal  1   3        ; 1074689893
0391  92000000           [06] move       2   0      
0395  62800001           [07] call       1   2   2  
0399  58400000           [08] test       1       1    ; to [10] if false
039D  1AC00080           [09] jmp        4            ; to [14]
03A1  64004100           [10] self       1   0   260  ; 1167009705
03A5  D9400100           [11] loadk      3   5        ; "AutoClose"
03A9  19810100           [12] loadk      4   6        ; ""
03AD  62400002           [13] call       1   4   1  
03B1  1E008000           [14] return     0   1      
                         * constants:
03B5  07                 sizek (7)
03B6  04                 const type 4
03B7  0A                 string size (10)
03B8  67466C6173684D67+  "gFlashMg"
03C0  7200               "r\0"
                         const [0]: "gFlashMgr"
03C2  01                 const type 3
03C3  92D06D61           const [1]: (1634586770)
03C7  04                 const type 4
03C8  10                 string size (16)
03C9  656E644D69737369+  "endMissi"
03D1  6F6E4D6F76696500   "onMovie\0"
                         const [2]: "endMissionMovie"
03D9  01                 const type 3
03DA  65770E40           const [3]: (1074689893)
03DE  01                 const type 3
03DF  A9278F45           const [4]: (1167009705)
03E3  04                 const type 4
03E4  0A                 string size (10)
03E5  4175746F436C6F73+  "AutoClos"
03ED  6500               "e\0"
                         const [5]: "AutoClose"
03EF  04                 const type 4
03F0  01                 string size (0)
                         const [6]: ""
                         * functions:
03F2  00                 sizep (0)
                         * lines:
03F3  0E                 sizelineinfo (14)
                         [pc] (line)
03F4  47                 [01] (71)
03F5  00                 [02] (71)
03F6  00                 [03] (71)
03F7  00                 [04] (71)
03F8  47                 [05] (72)
03F9  00                 [06] (72)
03FA  00                 [07] (72)
03FB  00                 [08] (72)
03FC  47                 [09] (72)
03FD  00                 [10] (73)
03FE  00                 [11] (73)
03FF  00                 [12] (73)
0400  47                 [13] (73)
0401  00                 [14] (76)
                         * locals:
042C  00                 sizelocvars (0)
                         * upvalues:
042D  00                 sizeupvalues (0)
                         ** end of function **

                         
042E                     ** function [3] definition (level 2)
                         ** start of function **
042E  00                 string size (0)
                         source name: (none)
042F  4E                 line defined (78)
0430  55                 last line defined (85)
0431  00                 nups (0)
0432  00                 numparams (0)
0433  00                 is_vararg (0)
0434  04                 maxstacksize (4)
                         * code:
0435  0E                 sizecode (14)
0436  1D000000           [01] getglobal  0   0        ; gGameRules
043A  24404000           [02] self       0   0   257  ; -2029400442
043E  22800001           [03] call       0   2   2  
0442  5D800000           [04] getglobal  1   2        ; 1074689893
0446  92000000           [05] move       2   0      
044A  62800001           [06] call       1   2   2  
044E  58400000           [07] test       1       1    ; to [9] if false
0452  1A800080           [08] jmp        3            ; to [12]
0456  64C04000           [09] self       1   0   259  ; 1649906088
045A  D7000000           [10] loadbool   3   0   0    ; false
045E  62408001           [11] call       1   3   1  
0462  5D000100           [12] getglobal  1   4        ; _T
0466  4C80C182           [13] settable   1   261 262  ; "tutorialActive" 0
046A  1E008000           [14] return     0   1      
                         * constants:
046E  07                 sizek (7)
046F  04                 const type 4
0470  0B                 string size (11)
0471  6747616D6552756C+  "gGameRul"
0479  657300             "es\0"
                         const [0]: "gGameRules"
047C  01                 const type 3
047D  86CE0987           const [1]: (-2029400442)
0481  01                 const type 3
0482  65770E40           const [2]: (1074689893)
0486  01                 const type 3
0487  A8915762           const [3]: (1649906088)
048B  04                 const type 4
048C  03                 string size (3)
048D  5F5400             "_T\0"
                         const [4]: "_T"
0490  04                 const type 4
0491  0F                 string size (15)
0492  7475746F7269616C+  "tutorial"
049A  41637469766500     "Active\0"
                         const [5]: "tutorialActive"
04A1  01                 const type 3
04A2  00000000           const [6]: (0)
                         * functions:
04A6  00                 sizep (0)
                         * lines:
04A7  0E                 sizelineinfo (14)
                         [pc] (line)
04A8  4F                 [01] (79)
04A9  00                 [02] (79)
04AA  00                 [03] (79)
04AB  00                 [04] (80)
04AC  4F                 [05] (80)
04AD  00                 [06] (80)
04AE  00                 [07] (80)
04AF  00                 [08] (80)
04B0  4F                 [09] (81)
04B1  00                 [10] (81)
04B2  00                 [11] (81)
04B3  00                 [12] (84)
04B4  50                 [13] (84)
04B5  00                 [14] (85)
                         * locals:
04E0  00                 sizelocvars (0)
                         * upvalues:
04E1  00                 sizeupvalues (0)
                         ** end of function **

                         
04E2                     ** function [4] definition (level 2)
                         ** start of function **
04E2  00                 string size (0)
                         source name: (none)
04E3  57                 line defined (87)
04E4  6B                 last line defined (107)
04E5  00                 nups (0)
04E6  02                 numparams (2)
04E7  00                 is_vararg (0)
04E8  0C                 maxstacksize (12)
                         * code:
04E9  1C                 sizecode (28)
04EA  9D000000           [01] getglobal  2   0        ; gRegion
04EE  A4404001           [02] self       2   2   257  ; 19448449
04F2  A2800001           [03] call       2   2   2  
04F6  D9800000           [04] loadk      3   2        ; 0
04FA  19C10000           [05] loadk      4   3        ; 0
04FE  4A010001           [06] len        5   2      
0502  99C10000           [07] loadk      6   3        ; 0
0506  10010480           [08] forprep    4   17       ; to [26]
050A  0EC20101           [09] gettable   8   2   7  
050E  64024104           [10] self       9   8   260  ; 1511086594
0512  62820001           [11] call       9   2   2  
0516  58420000           [12] test       9       1    ; to [14] if false
051A  1AC00280           [13] jmp        12           ; to [26]
051E  5D420100           [14] getglobal  9   5        ; 1074689893
0522  A4824104           [15] self       10  8   262  ; -1411785325
0526  A2020001           [16] call       10  2   0  
052A  62820000           [17] call       9   0   2  
052E  58420000           [18] test       9       1    ; to [20] if false
0532  1A400180           [19] jmp        6            ; to [26]
0536  64C24104           [20] self       9   8   263  ; -1399888605
053A  D2020000           [21] move       11  0      
053E  62828001           [22] call       9   3   2  
fail op	21
0542  15408004           [23] concat     0   9   1  
0546  1A000080           [24] jmp        1            ; to [26]
054A  C3C0C001           [25] add        3   3   259  ; 0
054E  1441FB7F           [26] forloop    4   -18      ; to [9] if loop
0552  DE000001           [27] return     3   2      
0556  1E008000           [28] return     0   1      
                         * constants:
055A  08                 sizek (8)
055B  04                 const type 4
055C  08                 string size (8)
055D  67526567696F6E00   "gRegion\0"
                         const [0]: "gRegion"
0565  01                 const type 3
0566  81C22801           const [1]: (19448449)
056A  03                 const type 3
056B  00000000           const [2]: (0)
056F  03                 const type 3
0570  0000803F           const [3]: (0)
0574  01                 const type 3
0575  025A115A           const [4]: (1511086594)
0579  01                 const type 3
057A  65770E40           const [5]: (1074689893)
057E  01                 const type 3
057F  93DDD9AB           const [6]: (-1411785325)
0583  01                 const type 3
0584  23658FAC           const [7]: (-1399888605)
                         * functions:
0588  00                 sizep (0)
                         * lines:
0589  1C                 sizelineinfo (28)
                         [pc] (line)
058A  58                 [01] (88)
058B  00                 [02] (88)
058C  00                 [03] (88)
058D  00                 [04] (89)
058E  58                 [05] (91)
058F  00                 [06] (91)
0590  00                 [07] (91)
0591  00                 [08] (91)
0592  58                 [09] (93)
0593  00                 [10] (94)
0594  00                 [11] (94)
0595  00                 [12] (94)
0596  59                 [13] (94)
0597  00                 [14] (95)
0598  00                 [15] (95)
0599  00                 [16] (95)
059A  5B                 [17] (95)
059B  00                 [18] (95)
059C  00                 [19] (95)
059D  00                 [20] (96)
059E  5B                 [21] (96)
059F  00                 [22] (96)
05A0  00                 [23] (97)
05A1  00                 [24] (97)
05A2  5B                 [25] (98)
05A3  00                 [26] (91)
05A4  00                 [27] (105)
05A5  00                 [28] (107)
                         * locals:
05FA  00                 sizelocvars (0)
                         * upvalues:
05FB  00                 sizeupvalues (0)
                         ** end of function **

                         
05FC                     ** function [5] definition (level 2)
                         ** start of function **
05FC  00                 string size (0)
                         source name: (none)
05FD  6D                 line defined (109)
05FE  7B                 last line defined (123)
05FF  01                 nups (1)
0600  04                 numparams (4)
0601  00                 is_vararg (0)
0602  0B                 maxstacksize (11)
                         * code:
0603  21                 sizecode (33)
fail op	35
0604  23004001           [01] close      0  
0608  1A000080           [02] jmp        1            ; to [4]
060C  99400000           [03] loadk      2   1        ; 0
fail op	35
0610  2300C001           [04] close      0  
0614  1A000080           [05] jmp        1            ; to [7]
0618  D9400000           [06] loadk      3   1        ; 0
061C  1D810000           [07] getglobal  4   2        ; 1074689893
0620  5DC10000           [08] getglobal  5   3        ; hudEmphasisFX
0624  22810001           [09] call       4   2   2  
0628  18410000           [10] test       4       1    ; to [12] if false
062C  1A000580           [11] jmp        21           ; to [33]
0630  13010000           [12] getupval   4   0      
0634  0E014102           [13] gettable   4   4   260  ; 110860349
0638  52010000           [14] move       5   0      
063C  92018000           [15] move       6   1      
0640  22C18001           [16] call       4   3   3  
fail op	35
0644  63004002           [17] close      1  
0648  1A400380           [18] jmp        14           ; to [33]
fail op	35
064C  6300C002           [19] close      1  
0650  1AC00280           [20] jmp        12           ; to [33]
0654  A4414100           [21] self       6   0   261  ; 1167009705
0658  19820100           [22] loadk      8   6        ; "ScreenDuck"
065C  59C20100           [23] loadk      9   7        ; ""
0660  A2410002           [24] call       6   4   1  
0664  93010000           [25] getupval   6   0      
0668  8E014203           [26] gettable   6   6   264  ; -1154517407
066C  D2010000           [27] move       7   0      
0670  1DC20000           [28] getglobal  8   3        ; hudEmphasisFX
0674  43820002           [29] add        9   4   2  
0678  83C28002           [30] add        10  5   3  
067C  87018002           [31] tailcall   6   5   0  
0680  9E010000           [32] return     6   0      
0684  1E008000           [33] return     0   1      
                         * constants:
0688  09                 sizek (9)
0689  00                 const type 0
                         const [0]: nil
068A  03                 const type 3
068B  00000000           const [1]: (0)
068F  01                 const type 3
0690  65770E40           const [2]: (1074689893)
0694  04                 const type 4
0695  0E                 string size (14)
0696  687564456D706861+  "hudEmpha"
069E  736973465800       "sisFX\0"
                         const [3]: "hudEmphasisFX"
06A4  01                 const type 3
06A5  3D989B06           const [4]: (110860349)
06A9  01                 const type 3
06AA  A9278F45           const [5]: (1167009705)
06AE  04                 const type 4
06AF  0B                 string size (11)
06B0  53637265656E4475+  "ScreenDu"
06B8  636B00             "ck\0"
                         const [6]: "ScreenDuck"
06BB  04                 const type 4
06BC  01                 string size (0)
                         const [7]: ""
06BE  01                 const type 3
06BF  61762FBB           const [8]: (-1154517407)
                         * functions:
06C3  00                 sizep (0)
                         * lines:
06C4  21                 sizelineinfo (33)
                         [pc] (line)
06C5  6E                 [01] (110)
06C6  00                 [02] (110)
06C7  00                 [03] (111)
06C8  00                 [04] (113)
06C9  6E                 [05] (113)
06CA  00                 [06] (114)
06CB  00                 [07] (116)
06CC  00                 [08] (116)
06CD  6F                 [09] (116)
06CE  00                 [10] (116)
06CF  00                 [11] (116)
06D0  00                 [12] (117)
06D1  71                 [13] (117)
06D2  00                 [14] (117)
06D3  00                 [15] (117)
06D4  00                 [16] (117)
06D5  71                 [17] (118)
06D6  00                 [18] (118)
06D7  00                 [19] (118)
06D8  00                 [20] (118)
06D9  72                 [21] (119)
06DA  00                 [22] (119)
06DB  00                 [23] (119)
06DC  00                 [24] (119)
06DD  74                 [25] (120)
06DE  00                 [26] (120)
06DF  00                 [27] (120)
06E0  00                 [28] (120)
06E1  74                 [29] (120)
06E2  00                 [30] (120)
06E3  00                 [31] (120)
06E4  00                 [32] (120)
06E5  74                 [33] (123)
                         * locals:
0749  00                 sizelocvars (0)
                         * upvalues:
074A  00                 sizeupvalues (0)
                         ** end of function **

                         
074B                     ** function [6] definition (level 2)
                         ** start of function **
074B  00                 string size (0)
                         source name: (none)
074C  7D                 line defined (125)
074D  89                 last line defined (137)
074E  01                 nups (1)
074F  01                 numparams (0)
0750  00                 is_vararg (0)
0751  00                 maxstacksize (5)
                         * code:
0753  16                 sizecode (22)
0754  1D000000           [01] getglobal  0   0        ; gRegion
0758  24404000           [02] self       0   0   257  ; -1456226250
075C  22800001           [03] call       0   2   2  
0760  4E804000           [04] gettable   1   0   258  ; "postProcess"
0764  93000000           [05] getupval   2   0      
0768  8EC04001           [06] gettable   2   2   259  ; 630793108
076C  DD000100           [07] getglobal  3   4        ; transitionSound
0770  A2400001           [08] call       2   2   1  
0774  99400100           [09] loadk      2   5        ; 0
fail op	21
0778  15800083           [10] concat     0   262 2  
077C  1A000280           [11] jmp        9            ; to [21]
fail op	0
0780  C0000001           [12] move       3   2      
0784  4CC08083           [13] settable   1   263 3    ; "fade"
0788  DD000200           [14] getglobal  3   8        ; 1289681407
078C  E2808000           [15] call       3   1   2  
0790  8DC00001           [16] sub        2   2   3  
0794  DD400200           [17] getglobal  3   9        ; 538022378
0798  19810100           [18] loadk      4   6        ; 0
079C  E2400001           [19] call       3   2   1  
07A0  1A00FD7F           [20] jmp        -11          ; to [10]
07A4  4C80C183           [21] settable   1   263 262  ; "fade" 0
07A8  1E008000           [22] return     0   1      
                         * constants:
07AC  0A                 sizek (10)
07AD  04                 const type 4
07AE  08                 string size (8)
07AF  67526567696F6E00   "gRegion\0"
                         const [0]: "gRegion"
07B7  01                 const type 3
07B8  36C033A9           const [1]: (-1456226250)
07BC  04                 const type 4
07BD  0C                 string size (12)
07BE  706F737450726F63+  "postProc"
07C6  65737300           "ess\0"
                         const [2]: "postProcess"
07CA  01                 const type 3
07CB  94239925           const [3]: (630793108)
07CF  04                 const type 4
07D0  10                 string size (16)
07D1  7472616E73697469+  "transiti"
07D9  6F6E536F756E6400   "onSound\0"
                         const [4]: "transitionSound"
07E1  03                 const type 3
07E2  0000803F           const [5]: (0)
07E6  03                 const type 3
07E7  00000000           const [6]: (0)
07EB  04                 const type 4
07EC  05                 string size (5)
07ED  6661646500         "fade\0"
                         const [7]: "fade"
07F2  01                 const type 3
07F3  FFF9DE4C           const [8]: (1289681407)
07F7  01                 const type 3
07F8  EA911120           const [9]: (538022378)
                         * functions:
07FC  00                 sizep (0)
                         * lines:
07FD  16                 sizelineinfo (22)
                         [pc] (line)
07FE  7E                 [01] (126)
07FF  00                 [02] (126)
0800  00                 [03] (126)
0801  00                 [04] (127)
0802  7E                 [05] (-127)
0803  00                 [06] (-127)
0804  00                 [07] (-127)
0805  00                 [08] (-127)
0806  7E                 [09] (-126)
0807  00                 [10] (-125)
0808  00                 [11] (-125)
0809  00                 [12] (-124)
080A  7F                 [13] (-124)
080B  00                 [14] (-123)
080C  00                 [15] (-123)
080D  00                 [16] (-123)
080E  81                 [17] (-122)
080F  00                 [18] (-122)
0810  00                 [19] (-122)
0811  00                 [20] (-122)
0812  81                 [21] (-120)
0813  00                 [22] (-119)
                         * locals:
0856  00                 sizelocvars (0)
                         * upvalues:
0857  00                 sizeupvalues (0)
                         ** end of function **

                         
0858                     ** function [7] definition (level 2)
                         ** start of function **
0858  00                 string size (0)
                         source name: (none)
085A  01                 line defined (139)
085B  8E                 last line defined (142)
085C  01                 nups (1)
085D  01                 numparams (0)
085E  00                 is_vararg (0)
085F  00                 maxstacksize (3)
                         * code:
0861  09                 sizecode (9)
0862  13000000           [1] getupval   0   0      
0866  0E004000           [2] gettable   0   0   256  ; 630793108
086A  5D400000           [3] getglobal  1   1        ; music
086E  22400001           [4] call       0   2   1  
0872  1D800000           [5] getglobal  0   2        ; gFlashMgr
0876  24C04000           [6] self       0   0   259  ; 38794118
087A  9D000100           [7] getglobal  2   4        ; introTextMovie
087E  22408001           [8] call       0   3   1  
0882  1E008000           [9] return     0   1      
                         * constants:
0886  05                 sizek (5)
0887  01                 const type 3
0888  94239925           const [0]: (630793108)
088C  04                 const type 4
088D  06                 string size (6)
088E  6D7573696300       "music\0"
                         const [1]: "music"
0894  04                 const type 4
0895  0A                 string size (10)
0896  67466C6173684D67+  "gFlashMg"
089E  7200               "r\0"
                         const [2]: "gFlashMgr"
08A0  01                 const type 3
08A1  86F34F02           const [3]: (38794118)
08A5  04                 const type 4
08A6  0F                 string size (15)
08A7  696E74726F546578+  "introTex"
08AF  744D6F76696500     "tMovie\0"
                         const [4]: "introTextMovie"
                         * functions:
08B6  00                 sizep (0)
                         * lines:
08B7  09                 sizelineinfo (9)
                         [pc] (line)
08B8  8C                 [1] (-116)
08B9  00                 [2] (-116)
08BA  00                 [3] (-116)
08BB  00                 [4] (-116)
08BC  8C                 [5] (-115)
08BD  00                 [6] (-115)
08BE  00                 [7] (-115)
08BF  00                 [8] (-115)
08C0  8C                 [9] (-114)
                         * locals:
08DC  00                 sizelocvars (0)
                         * upvalues:
08DD  00                 sizeupvalues (0)
                         ** end of function **

                         
08DE                     ** function [8] definition (level 2)
                         ** start of function **
08DE  00                 string size (0)
                         source name: (none)
08E0  01                 line defined (144)
08E1  9A                 last line defined (154)
08E2  01                 nups (0)
08E3  00                 numparams (0)
08E4  00                 is_vararg (0)
08E5  00                 maxstacksize (5)
                         * code:
08E7  12                 sizecode (18)
08E8  1D000000           [01] getglobal  0   0        ; gRegion
08EC  24404000           [02] self       0   0   257  ; -1456226250
08F0  22800001           [03] call       0   2   2  
08F4  4E804000           [04] gettable   1   0   258  ; "postProcess"
08F8  99C00000           [05] loadk      2   3        ; 0
fail op	21
08FC  15800082           [06] concat     0   260 2  
0900  1A000280           [07] jmp        9            ; to [17]
0904  DD400100           [08] getglobal  3   5        ; 1289681407
0908  E2808000           [09] call       3   1   2  
090C  C480C101           [10] mul        3   3   262  ; 0
0910  8DC00001           [11] sub        2   2   3  
0914  4C808083           [12] settable   1   263 2    ; "fade"
0918  DD000200           [13] getglobal  3   8        ; 538022378
091C  19C10000           [14] loadk      4   3        ; 0
0920  E2400001           [15] call       3   2   1  
0924  1A00FD7F           [16] jmp        -11          ; to [6]
0928  4C00C183           [17] settable   1   263 260  ; "fade" 0
092C  1E008000           [18] return     0   1      
                         * constants:
0930  09                 sizek (9)
0931  04                 const type 4
0932  08                 string size (8)
0933  67526567696F6E00   "gRegion\0"
                         const [0]: "gRegion"
093B  01                 const type 3
093C  36C033A9           const [1]: (-1456226250)
0940  04                 const type 4
0941  0C                 string size (12)
0942  706F737450726F63+  "postProc"
094A  65737300           "ess\0"
                         const [2]: "postProcess"
094E  03                 const type 3
094F  00000000           const [3]: (0)
0953  03                 const type 3
0954  000080BF           const [4]: (0)
0958  01                 const type 3
0959  FFF9DE4C           const [5]: (1289681407)
095D  03                 const type 3
095E  0000803F           const [6]: (0)
0962  04                 const type 4
0963  05                 string size (5)
0964  6661646500         "fade\0"
                         const [7]: "fade"
0969  01                 const type 3
096A  EA911120           const [8]: (538022378)
                         * functions:
096E  00                 sizep (0)
                         * lines:
096F  12                 sizelineinfo (18)
                         [pc] (line)
0970  91                 [01] (-111)
0971  00                 [02] (-111)
0972  00                 [03] (-111)
0973  00                 [04] (-110)
0974  91                 [05] (-109)
0975  00                 [06] (-108)
0976  00                 [07] (-108)
0977  00                 [08] (-107)
0978  91                 [09] (-107)
0979  00                 [10] (-107)
097A  00                 [11] (-107)
097B  00                 [12] (-106)
097C  92                 [13] (-105)
097D  00                 [14] (-105)
097E  00                 [15] (-105)
097F  00                 [16] (-105)
0980  93                 [17] (-103)
0981  00                 [18] (-102)
                         * locals:
09B8  00                 sizelocvars (0)
                         * upvalues:
09B9  00                 sizeupvalues (0)
                         ** end of function **

                         
09BA                     ** function [9] definition (level 2)
                         ** start of function **
09BA  00                 string size (0)
                         source name: (none)
09BC  01                 line defined (156)
09BD  AD                 last line defined (173)
09BE  01                 nups (0)
09BF  00                 numparams (0)
09C0  00                 is_vararg (0)
09C1  00                 maxstacksize (5)
                         * code:
09C3  21                 sizecode (33)
09C4  1D000000           [01] getglobal  0   0        ; gRegion
09C8  24404000           [02] self       0   0   257  ; -1456226250
09CC  22800001           [03] call       0   2   2  
09D0  4E804000           [04] gettable   1   0   258  ; "postProcess"
09D4  99C00000           [05] loadk      2   3        ; 0
fail op	21
09D8  15800082           [06] concat     0   260 2  
09DC  1A000280           [07] jmp        9            ; to [17]
09E0  DD400100           [08] getglobal  3   5        ; 1289681407
09E4  E2808000           [09] call       3   1   2  
09E8  C480C101           [10] mul        3   3   262  ; 0
09EC  8DC00001           [11] sub        2   2   3  
09F0  4C808083           [12] settable   1   263 2    ; "fade"
09F4  DD000200           [13] getglobal  3   8        ; 538022378
09F8  19C10000           [14] loadk      4   3        ; 0
09FC  E2400001           [15] call       3   2   1  
0A00  1A00FD7F           [16] jmp        -11          ; to [6]
0A04  4C00C183           [17] settable   1   263 260  ; "fade" 0
0A08  DD000200           [18] getglobal  3   8        ; 538022378
0A0C  19410200           [19] loadk      4   9        ; 0
0A10  E2400001           [20] call       3   2   1  
fail op	21
0A14  15C04001           [21] concat     0   2   259
0A18  1A000280           [22] jmp        9            ; to [32]
0A1C  DD400100           [23] getglobal  3   5        ; 1289681407
0A20  E2808000           [24] call       3   1   2  
0A24  C440C201           [25] mul        3   3   265  ; 0
0A28  83C00001           [26] add        2   2   3  
0A2C  4C808083           [27] settable   1   263 2    ; "fade"
0A30  DD000200           [28] getglobal  3   8        ; 538022378
0A34  19C10000           [29] loadk      4   3        ; 0
0A38  E2400001           [30] call       3   2   1  
0A3C  1A00FD7F           [31] jmp        -11          ; to [21]
0A40  4CC0C083           [32] settable   1   263 259  ; "fade" 0
0A44  1E008000           [33] return     0   1      
                         * constants:
0A48  0A                 sizek (10)
0A49  04                 const type 4
0A4A  08                 string size (8)
0A4B  67526567696F6E00   "gRegion\0"
                         const [0]: "gRegion"
0A53  01                 const type 3
0A54  36C033A9           const [1]: (-1456226250)
0A58  04                 const type 4
0A59  0C                 string size (12)
0A5A  706F737450726F63+  "postProc"
0A62  65737300           "ess\0"
                         const [2]: "postProcess"
0A66  03                 const type 3
0A67  00000000           const [3]: (0)
0A6B  03                 const type 3
0A6C  000080BF           const [4]: (0)
0A70  01                 const type 3
0A71  FFF9DE4C           const [5]: (1289681407)
0A75  03                 const type 3
0A76  00001040           const [6]: (0)
0A7A  04                 const type 4
0A7B  05                 string size (5)
0A7C  6661646500         "fade\0"
                         const [7]: "fade"
0A81  01                 const type 3
0A82  EA911120           const [8]: (538022378)
0A86  03                 const type 3
0A87  0000803F           const [9]: (0)
                         * functions:
0A8B  00                 sizep (0)
                         * lines:
0A8C  21                 sizelineinfo (33)
                         [pc] (line)
0A8D  9D                 [01] (-99)
0A8E  00                 [02] (-99)
0A8F  00                 [03] (-99)
0A90  00                 [04] (-98)
0A91  9D                 [05] (-97)
0A92  00                 [06] (-96)
0A93  00                 [07] (-96)
0A94  00                 [08] (-95)
0A95  9D                 [09] (-95)
0A96  00                 [10] (-95)
0A97  00                 [11] (-95)
0A98  00                 [12] (-94)
0A99  9E                 [13] (-93)
0A9A  00                 [14] (-93)
0A9B  00                 [15] (-93)
0A9C  00                 [16] (-93)
0A9D  9F                 [17] (-91)
0A9E  00                 [18] (-90)
0A9F  00                 [19] (-90)
0AA0  00                 [20] (-90)
0AA1  A0                 [21] (-89)
0AA2  00                 [22] (-89)
0AA3  00                 [23] (-88)
0AA4  00                 [24] (-88)
0AA5  A0                 [25] (-88)
0AA6  00                 [26] (-88)
0AA7  00                 [27] (-87)
0AA8  00                 [28] (-86)
0AA9  A1                 [29] (-86)
0AAA  00                 [30] (-86)
0AAB  00                 [31] (-86)
0AAC  00                 [32] (-84)
0AAD  A1                 [33] (-83)
                         * locals:
0B11  00                 sizelocvars (0)
                         * upvalues:
0B12  00                 sizeupvalues (0)
                         ** end of function **

                         
0B13                     ** function [10] definition (level 2)
                         ** start of function **
0B13  00                 string size (0)
                         source name: (none)
0B15  01                 line defined (176)
0B16  B9                 last line defined (185)
0B17  01                 nups (0)
0B18  00                 numparams (1)
0B19  01                 is_vararg (0)
0B1A  00                 maxstacksize (10)
                         * code:
0B1C  18                 sizecode (24)
0B1D  5D000000           [01] getglobal  1   0        ; 1074689893
0B21  92000000           [02] move       2   0      
0B25  62800001           [03] call       1   2   2  
0B29  58000000           [04] test       1       0    ; to [6] if true
0B2D  1A000080           [05] jmp        1            ; to [7]
0B31  1E008000           [06] return     0   1      
0B35  64404000           [07] self       1   0   257  ; -1421644046
0B39  DD800000           [08] getglobal  3   2        ; enemyProjectorFX
0B3D  1DC10000           [09] getglobal  4   3        ; EMPTY_SYMBOL
0B41  62400002           [10] call       1   4   1  
0B45  64004100           [11] self       1   0   260  ; 366271214
0B49  DD400100           [12] getglobal  3   5        ; gEntityType
0B4D  62808001           [13] call       1   3   2  
0B51  99800100           [14] loadk      2   6        ; 0
0B55  CA008000           [15] len        3   1      
0B59  19810100           [16] loadk      4   6        ; 0
0B5D  90000180           [17] forprep    2   5        ; to [23]
0B61  8E418100           [18] gettable   6   1   5  
0B65  A4414003           [19] self       6   6   257  ; -1421644046
0B69  1D820000           [20] getglobal  8   2        ; enemyProjectorFX
0B6D  5DC20000           [21] getglobal  9   3        ; EMPTY_SYMBOL
0B71  A2410002           [22] call       6   4   1  
0B75  9440FE7F           [23] forloop    2   -6       ; to [18] if loop
0B79  1E008000           [24] return     0   1      
                         * constants:
0B7D  07                 sizek (7)
0B7E  01                 const type 3
0B7F  65770E40           const [0]: (1074689893)
0B83  01                 const type 3
0B84  F26E43AB           const [1]: (-1421644046)
0B88  04                 const type 4
0B89  11                 string size (17)
0B8A  656E656D7950726F+  "enemyPro"
0B92  6A6563746F724658+  "jectorFX"
0B9A  00                 "\0"
                         const [2]: "enemyProjectorFX"
0B9B  04                 const type 4
0B9C  0D                 string size (13)
0B9D  454D5054595F5359+  "EMPTY_SY"
0BA5  4D424F4C00         "MBOL\0"
                         const [3]: "EMPTY_SYMBOL"
0BAA  01                 const type 3
0BAB  EEDAD415           const [4]: (366271214)
0BAF  04                 const type 4
0BB0  0C                 string size (12)
0BB1  67456E7469747954+  "gEntityT"
0BB9  79706500           "ype\0"
                         const [5]: "gEntityType"
0BBD  03                 const type 3
0BBE  0000803F           const [6]: (0)
                         * functions:
0BC2  00                 sizep (0)
                         * lines:
0BC3  18                 sizelineinfo (24)
                         [pc] (line)
0BC4  B1                 [01] (-79)
0BC5  00                 [02] (-79)
0BC6  00                 [03] (-79)
0BC7  00                 [04] (-79)
0BC8  B1                 [05] (-79)
0BC9  00                 [06] (-78)
0BCA  00                 [07] (-76)
0BCB  00                 [08] (-76)
0BCC  B1                 [09] (-76)
0BCD  00                 [10] (-76)
0BCE  00                 [11] (-75)
0BCF  00                 [12] (-75)
0BD0  B1                 [13] (-75)
0BD1  00                 [14] (-74)
0BD2  00                 [15] (-74)
0BD3  00                 [16] (-74)
0BD4  B1                 [17] (-74)
0BD5  00                 [18] (-73)
0BD6  00                 [19] (-73)
0BD7  00                 [20] (-73)
0BD8  B2                 [21] (-73)
0BD9  00                 [22] (-73)
0BDA  00                 [23] (-74)
0BDB  00                 [24] (-71)
                         * locals:
0C24  00                 sizelocvars (0)
                         * upvalues:
0C25  00                 sizeupvalues (0)
                         ** end of function **

                         
0C26                     ** function [11] definition (level 2)
                         ** start of function **
0C26  00                 string size (0)
                         source name: (none)
0C28  01                 line defined (187)
0C29  C0                 last line defined (192)
0C2A  01                 nups (0)
0C2B  00                 numparams (0)
0C2C  00                 is_vararg (0)
0C2D  00                 maxstacksize (3)
                         * code:
0C2F  0B                 sizecode (11)
0C30  1D000000           [01] getglobal  0   0        ; gFlashMgr
0C34  24404000           [02] self       0   0   257  ; -872305030
0C38  9D800000           [03] getglobal  2   2        ; transmissionMovie
0C3C  22808001           [04] call       0   3   2  
0C40  18000000           [05] test       0       0    ; to [7] if true
0C44  1A400080           [06] jmp        2            ; to [9]
0C48  17008000           [07] loadbool   0   1   0    ; true
0C4C  1E000001           [08] return     0   2      
0C50  17000000           [09] loadbool   0   0   0    ; false
0C54  1E000001           [10] return     0   2      
0C58  1E008000           [11] return     0   1      
                         * constants:
0C5C  03                 sizek (3)
0C5D  04                 const type 4
0C5E  0A                 string size (10)
0C5F  67466C6173684D67+  "gFlashMg"
0C67  7200               "r\0"
                         const [0]: "gFlashMgr"
0C69  01                 const type 3
0C6A  7AAE01CC           const [1]: (-872305030)
0C6E  04                 const type 4
0C6F  12                 string size (18)
0C70  7472616E736D6973+  "transmis"
0C78  73696F6E4D6F7669+  "sionMovi"
0C80  6500               "e\0"
                         const [2]: "transmissionMovie"
                         * functions:
0C82  00                 sizep (0)
                         * lines:
0C83  0B                 sizelineinfo (11)
                         [pc] (line)
0C84  BC                 [01] (-68)
0C85  00                 [02] (-68)
0C86  00                 [03] (-68)
0C87  00                 [04] (-68)
0C88  BC                 [05] (-68)
0C89  00                 [06] (-68)
0C8A  00                 [07] (-67)
0C8B  00                 [08] (-67)
0C8C  BC                 [09] (-65)
0C8D  00                 [10] (-65)
0C8E  00                 [11] (-64)
                         * locals:
0CB0  00                 sizelocvars (0)
                         * upvalues:
0CB1  00                 sizeupvalues (0)
                         ** end of function **

                         
0CB2                     ** function [12] definition (level 2)
                         ** start of function **
0CB2  00                 string size (0)
                         source name: (none)
0CB4  01                 line defined (194)
0CB5  C6                 last line defined (198)
0CB6  01                 nups (1)
0CB7  01                 numparams (0)
0CB8  00                 is_vararg (0)
0CB9  00                 maxstacksize (2)
                         * code:
0CBB  09                 sizecode (9)
0CBC  13000000           [1] getupval   0   0      
0CC0  22808000           [2] call       0   1   2  
0CC4  18000000           [3] test       0       0    ; to [5] if true
0CC8  1AC00080           [4] jmp        4            ; to [9]
0CCC  1D000000           [5] getglobal  0   0        ; 538022378
0CD0  59400000           [6] loadk      1   1        ; 0
0CD4  22400001           [7] call       0   2   1  
0CD8  1AC0FD7F           [8] jmp        -8           ; to [1]
0CDC  1E008000           [9] return     0   1      
                         * constants:
0CE0  02                 sizek (2)
0CE1  01                 const type 3
0CE2  EA911120           const [0]: (538022378)
0CE6  03                 const type 3
0CE7  00000000           const [1]: (0)
                         * functions:
0CEB  00                 sizep (0)
                         * lines:
0CEC  09                 sizelineinfo (9)
                         [pc] (line)
0CED  C3                 [1] (-61)
0CEE  00                 [2] (-61)
0CEF  00                 [3] (-61)
0CF0  00                 [4] (-61)
0CF1  C3                 [5] (-60)
0CF2  00                 [6] (-60)
0CF3  00                 [7] (-60)
0CF4  00                 [8] (-60)
0CF5  C3                 [9] (-58)
                         * locals:
0D11  00                 sizelocvars (0)
                         * upvalues:
0D12  00                 sizeupvalues (0)
                         ** end of function **

                         
0D13                     ** function [13] definition (level 2)
                         ** start of function **
0D13  00                 string size (0)
                         source name: (none)
0D15  01                 line defined (200)
0D16  B6                 last line defined (566)
0D17  04                 nups (6)
0D18  06                 numparams (0)
0D19  00                 is_vararg (0)
0D1A  00                 maxstacksize (47)
                         * code:
0D1D  07                 sizecode (1008)
0D1E  1D000000           [0001] getglobal  0   0        ; _T
0D22  0E404000           [0002] gettable   0   0   257  ; "tutorialActive"
0D26  18000000           [0003] test       0       0    ; to [5] if true
0D2A  1A000080           [0004] jmp        1            ; to [6]
0D2E  1E008000           [0005] return     0   1      
0D32  1D000000           [0006] getglobal  0   0        ; _T
0D36  0C80C080           [0007] settable   0   257 258  ; "tutorialActive" 1
0D3A  1DC00000           [0008] getglobal  0   3        ; gRegion
0D3E  24004100           [0009] self       0   0   260  ; -1456226250
0D42  22800001           [0010] call       0   2   2  
0D46  4E404100           [0011] gettable   1   0   261  ; "postProcess"
0D4A  9D800100           [0012] getglobal  2   6        ; gGameRules
0D4E  A4C04101           [0013] self       2   2   263  ; 158382610
0D52  17018000           [0014] loadbool   4   1   0    ; true
0D56  A2408001           [0015] call       2   3   1  
0D5A  9D800100           [0016] getglobal  2   6        ; gGameRules
0D5E  A4004201           [0017] self       2   2   264  ; -700739259
0D62  17018000           [0018] loadbool   4   1   0    ; true
0D66  A2408001           [0019] call       2   3   1  
0D6A  9D800100           [0020] getglobal  2   6        ; gGameRules
0D6E  A4404201           [0021] self       2   2   265  ; -1168769871
0D72  17018000           [0022] loadbool   4   1   0    ; true
0D76  A2408001           [0023] call       2   3   1  
0D7A  9D800100           [0024] getglobal  2   6        ; gGameRules
0D7E  A4804201           [0025] self       2   2   266  ; 1809680017
0D82  17018000           [0026] loadbool   4   1   0    ; true
0D86  A2408001           [0027] call       2   3   1  
0D8A  9DC00000           [0028] getglobal  2   3        ; gRegion
0D8E  A4C04201           [0029] self       2   2   267  ; -774964848
0D92  A2800001           [0030] call       2   2   2  
0D96  DDC00000           [0031] getglobal  3   3        ; gRegion
0D9A  E400C301           [0032] self       3   3   268  ; 1224466847
0D9E  E2800001           [0033] call       3   2   2  
0DA2  0E41C301           [0034] gettable   4   3   269  ; 0
0DA6  24814302           [0035] self       4   4   270  ; -2135866365
0DAA  22810001           [0036] call       4   2   2  
0DAE  64C14302           [0037] self       5   4   271  ; -1917464545
0DB2  62810001           [0038] call       5   2   2  
0DB6  A4014402           [0039] self       6   4   272  ; -1544157541
0DBA  A2810001           [0040] call       6   2   2  
0DBE  E441C402           [0041] self       7   5   273  ; -1011769797
0DC2  E2410001           [0042] call       7   2   1  
0DC6  E481C402           [0043] self       7   5   274  ; 991629753
0DCA  5DC20400           [0044] getglobal  9   19       ; Game
0DCE  4E02C504           [0045] gettable   9   9   276  ; "AVATAR_SHIELD_MAX"
0DD2  9DC20400           [0046] getglobal  10  19       ; Game
0DD6  8E424505           [0047] gettable   10  10  277  ; "SET"
0DDA  D9820500           [0048] loadk      11  22       ; 0
0DDE  E2418002           [0049] call       7   5   1  
0DE2  E4C14503           [0050] self       7   6   279  ; -1992773175
0DE6  59820500           [0051] loadk      9   22       ; 0
0DEA  E2418001           [0052] call       7   3   1  
0DEE  E4014602           [0053] self       7   4   280  ; 1479835399
0DF2  5D420600           [0054] getglobal  9   25       ; warframe
0DF6  97028000           [0055] loadbool   10  1   0    ; true
0DFA  E2810002           [0056] call       7   4   2  
0DFE  2482C603           [0057] self       8   7   282  ; -67235551
0E02  99820500           [0058] loadk      10  22       ; 0
0E06  22428001           [0059] call       8   3   1  
0E0A  1D820100           [0060] getglobal  8   6        ; gGameRules
0E0E  24C24604           [0061] self       8   8   283  ; -2029400442
0E12  22820001           [0062] call       8   2   2  
0E16  64024704           [0063] self       9   8   284  ; 471456102
0E1A  D9420700           [0064] loadk      11  29       ; "SuitFrame"
0E1E  19830700           [0065] loadk      12  30       ; "_visible"
0E22  57030000           [0066] loadbool   13  0   0    ; false
0E26  62428002           [0067] call       9   5   1  
0E2A  64024704           [0068] self       9   8   284  ; 471456102
0E2E  D9C20700           [0069] loadk      11  31       ; "WeaponFrame"
0E32  19830700           [0070] loadk      12  30       ; "_visible"
0E36  57030000           [0071] loadbool   13  0   0    ; false
0E3A  62428002           [0072] call       9   5   1  
0E3E  5D020000           [0073] getglobal  9   0        ; _T
0E42  4C824090           [0074] settable   9   288 258  ; "DisableMiniMap" 1
0E46  64024704           [0075] self       9   8   284  ; 471456102
0E4A  D9420800           [0076] loadk      11  33       ; "Reticle"
0E4E  19830700           [0077] loadk      12  30       ; "_visible"
0E52  57030000           [0078] loadbool   13  0   0    ; false
0E56  62428002           [0079] call       9   5   1  
0E5A  4CC04891           [0080] settable   1   290 291  ; "bloom" -51
0E5E  59420300           [0081] loadk      9   13       ; 0
fail op	21
0E62  1540028B           [0082] concat     0   278 9  
0E66  1A400280           [0083] jmp        10           ; to [94]
fail op	0
0E6A  80028004           [0084] move       10  9      
0E6E  4C800292           [0085] settable   1   292 10   ; "fade"
0E72  9D420900           [0086] getglobal  10  37       ; 1289681407
0E76  A2828000           [0087] call       10  1   2  
0E7A  84824905           [0088] mul        10  10  294  ; 0
0E7E  4D828204           [0089] sub        9   9   10 
0E82  9DC20900           [0090] getglobal  10  39       ; 538022378
0E86  D9820500           [0091] loadk      11  22       ; 0
0E8A  A2420001           [0092] call       10  2   1  
0E8E  1AC0FC7F           [0093] jmp        -12          ; to [82]
0E92  4C804592           [0094] settable   1   292 278  ; "fade" 0
0E96  9D020A00           [0095] getglobal  10  40       ; 1074689893
0E9A  DDC20000           [0096] getglobal  11  3        ; gRegion
0E9E  E442CA05           [0097] self       11  11  297  ; 2066713391
0EA2  E2020001           [0098] call       11  2   0  
0EA6  A2820000           [0099] call       10  0   2  
0EAA  98420000           [0100] test       10      1    ; to [102] if false
0EAE  1AC00080           [0101] jmp        4            ; to [106]
0EB2  9DC20900           [0102] getglobal  10  39       ; 538022378
0EB6  D9820500           [0103] loadk      11  22       ; 0
0EBA  A2420001           [0104] call       10  2   1  
0EBE  1A00FD7F           [0105] jmp        -11          ; to [95]
0EC2  9DC20900           [0106] getglobal  10  39       ; 538022378
0EC6  D9420300           [0107] loadk      11  13       ; 0
0ECA  A2420001           [0108] call       10  2   1  
0ECE  A4824A02           [0109] self       10  4   298  ; 145557915
0ED2  1DC30A00           [0110] getglobal  12  43       ; trans
0ED6  0E434306           [0111] gettable   12  12  269  ; 0
0EDA  A2428001           [0112] call       10  3   1  
0EDE  93020000           [0113] getupval   10  0      
0EE2  A2428000           [0114] call       10  1   1  
0EE6  93028000           [0115] getupval   10  1      
0EEA  A2428000           [0116] call       10  1   1  
0EEE  A4824A02           [0117] self       10  4   298  ; 145557915
0EF2  1DC30A00           [0118] getglobal  12  43       ; trans
0EF6  0E034B06           [0119] gettable   12  12  300  ; 0
0EFA  A2428001           [0120] call       10  3   1  
0EFE  9DC20900           [0121] getglobal  10  39       ; 538022378
0F02  D9420B00           [0122] loadk      11  45       ; 0
0F06  A2420001           [0123] call       10  2   1  
0F0A  A482CB02           [0124] self       10  5   302  ; 1769516121
0F0E  A2820001           [0125] call       10  2   2  
0F12  A4C24B05           [0126] self       10  10  303  ; -1209210956
0F16  19830500           [0127] loadk      12  22       ; 0
0F1A  A2428001           [0128] call       10  3   1  
0F1E  A4024C02           [0129] self       10  4   304  ; 1992436207
0F22  24434C02           [0130] self       12  4   305  ; 796523475
0F26  22830001           [0131] call       12  2   2  
0F2A  0D834C06           [0132] sub        12  12  306  ; 0
0F2E  A2428001           [0133] call       10  3   1  
0F32  A4024704           [0134] self       10  8   284  ; 471456102
0F36  19430700           [0135] loadk      12  29       ; "SuitFrame"
0F3A  59830700           [0136] loadk      13  30       ; "_visible"
0F3E  97038000           [0137] loadbool   14  1   0    ; true
0F42  A2428002           [0138] call       10  5   1  
0F46  93020001           [0139] getupval   10  2      
0F4A  D2020004           [0140] move       11  8      
0F4E  19C30C00           [0141] loadk      12  51       ; "SuitFrame.EnergyPanel.Health"
0F52  59830C00           [0142] loadk      13  50       ; 0
0F56  99030D00           [0143] loadk      14  52       ; 0
0F5A  A2428002           [0144] call       10  5   1  
0F5E  9DC20900           [0145] getglobal  10  39       ; 538022378
0F62  D9420D00           [0146] loadk      11  53       ; 0
0F66  A2420001           [0147] call       10  2   1  
0F6A  A4824A02           [0148] self       10  4   298  ; 145557915
0F6E  1DC30A00           [0149] getglobal  12  43       ; trans
0F72  0E834D06           [0150] gettable   12  12  310  ; 0
0F76  A2428001           [0151] call       10  3   1  
0F7A  9DC20900           [0152] getglobal  10  39       ; 538022378
0F7E  D9420D00           [0153] loadk      11  53       ; 0
0F82  A2420001           [0154] call       10  2   1  
0F86  9DC20D00           [0155] getglobal  10  55       ; Engine
0F8A  8E024E05           [0156] gettable   10  10  312  ; -578647490
0F8E  A2828000           [0157] call       10  1   2  
0F92  98020000           [0158] test       10      0    ; to [160] if true
0F96  1A000180           [0159] jmp        5            ; to [165]
0F9A  A4824A02           [0160] self       10  4   298  ; 145557915
0F9E  1DC30A00           [0161] getglobal  12  43       ; trans
0FA2  0E434E06           [0162] gettable   12  12  313  ; 0
0FA6  A2428001           [0163] call       10  3   1  
0FAA  1AC00080           [0164] jmp        4            ; to [169]
0FAE  A4824A02           [0165] self       10  4   298  ; 145557915
0FB2  1DC30A00           [0166] getglobal  12  43       ; trans
0FB6  0E434B06           [0167] gettable   12  12  301  ; 0
0FBA  A2428001           [0168] call       10  3   1  
0FBE  9DC20900           [0169] getglobal  10  39       ; 538022378
0FC2  D9020B00           [0170] loadk      11  44       ; 0
0FC6  A2420001           [0171] call       10  2   1  
0FCA  9DC20000           [0172] getglobal  10  3        ; gRegion
0FCE  A4824E05           [0173] self       10  10  314  ; -1110225722
0FD2  1DC30E00           [0174] getglobal  12  59       ; healthType
0FD6  5D030F00           [0175] getglobal  13  60       ; healthSpawn
0FDA  6443CF06           [0176] self       13  13  317  ; 1839670529
0FDE  62830001           [0177] call       13  2   2  
0FE2  9D830F00           [0178] getglobal  14  62       ; energySpawn
0FE6  A4C34F07           [0179] self       14  14  319  ; -231049143
0FEA  A2030001           [0180] call       14  2   0  
0FEE  A2820000           [0181] call       10  0   2  
0FF2  DD020A00           [0182] getglobal  11  40       ; 1074689893
0FF6  12030005           [0183] move       12  10     
0FFA  E2820001           [0184] call       11  2   2  
0FFE  D8420000           [0185] test       11      1    ; to [187] if false
1002  1AC00080           [0186] jmp        4            ; to [191]
1006  DDC20900           [0187] getglobal  11  39       ; 538022378
100A  19830500           [0188] loadk      12  22       ; 0
100E  E2420001           [0189] call       11  2   1  
1012  1A80FD7F           [0190] jmp        -9           ; to [182]
1016  DDC20900           [0191] getglobal  11  39       ; 538022378
101A  19430300           [0192] loadk      12  13       ; 0
101E  E2420001           [0193] call       11  2   1  
1022  E4824A02           [0194] self       11  4   298  ; 145557915
1026  5DC30A00           [0195] getglobal  13  43       ; trans
102A  4E43CD06           [0196] gettable   13  13  309  ; 0
102E  E2428001           [0197] call       11  3   1  
1032  E402D002           [0198] self       11  5   320  ; -233482841
1036  5DC30400           [0199] getglobal  13  19       ; Game
103A  4E03C506           [0200] gettable   13  13  276  ; "AVATAR_SHIELD_MAX"
103E  9DC30400           [0201] getglobal  14  19       ; Game
1042  8E434507           [0202] gettable   14  14  277  ; "SET"
1046  D9830500           [0203] loadk      15  22       ; 0
104A  E2428002           [0204] call       11  5   1  
104E  E4C24503           [0205] self       11  6   279  ; -1992773175
1052  64435003           [0206] self       13  6   321  ; -227502409
1056  62030001           [0207] call       13  2   0  
105A  E2420000           [0208] call       11  0   1  
105E  D3020001           [0209] getupval   11  2      
1062  12030004           [0210] move       12  8      
1066  59831000           [0211] loadk      13  66       ; "SuitFrame.EnergyPanel.Shield"
106A  99830C00           [0212] loadk      14  50       ; 0
106E  D9030D00           [0213] loadk      15  52       ; 0
1072  E2428002           [0214] call       11  5   1  
1076  DDC20900           [0215] getglobal  11  39       ; 538022378
107A  19C31000           [0216] loadk      12  67       ; 0
107E  E2420001           [0217] call       11  2   1  
1082  DDC20000           [0218] getglobal  11  3        ; gRegion
1086  E402D105           [0219] self       11  11  324  ; 1271047331
108A  5D431100           [0220] getglobal  13  69       ; waypoints
108E  4E43C306           [0221] gettable   13  13  269  ; 0
1092  A4835102           [0222] self       14  4   326  ; 196800914
1096  A2830001           [0223] call       14  2   2  
109A  D9C31100           [0224] loadk      15  71       ; 0
109E  19440D00           [0225] loadk      16  53       ; 0
10A2  59C41100           [0226] loadk      17  71       ; 0
10A6  9DC40D00           [0227] getglobal  18  55       ; Engine
10AA  8E045209           [0228] gettable   18  18  328  ; "DT_EXPLOSION"
10AE  E2420004           [0229] call       11  8   1  
10B2  E4824A02           [0230] self       11  4   298  ; 145557915
10B6  5DC30A00           [0231] getglobal  13  43       ; trans
10BA  4E43D206           [0232] gettable   13  13  329  ; 0
10BE  E2428001           [0233] call       11  3   1  
10C2  D3020001           [0234] getupval   11  2      
10C6  12030004           [0235] move       12  8      
10CA  59831000           [0236] loadk      13  66       ; "SuitFrame.EnergyPanel.Shield"
10CE  99830C00           [0237] loadk      14  50       ; 0
10D2  D9030D00           [0238] loadk      15  52       ; 0
10D6  E2428002           [0239] call       11  5   1  
10DA  DDC20900           [0240] getglobal  11  39       ; 538022378
10DE  19430D00           [0241] loadk      12  53       ; 0
10E2  E2420001           [0242] call       11  2   1  
10E6  E4824A02           [0243] self       11  4   298  ; 145557915
10EA  5DC30A00           [0244] getglobal  13  43       ; trans
10EE  4EC3D006           [0245] gettable   13  13  323  ; 0
10F2  E2428001           [0246] call       11  3   1  
10F6  DDC20900           [0247] getglobal  11  39       ; 538022378
10FA  19831200           [0248] loadk      12  74       ; 0
10FE  E2420001           [0249] call       11  2   1  
1102  E4024602           [0250] self       11  4   280  ; 1479835399
1106  5DC31200           [0251] getglobal  13  75       ; meleeWeapon
110A  97038000           [0252] loadbool   14  1   0    ; true
110E  E2820002           [0253] call       11  4   2  
1112  2483C605           [0254] self       12  11  282  ; -67235551
1116  99830500           [0255] loadk      14  22       ; 0
111A  22438001           [0256] call       12  3   1  
111E  13030000           [0257] getupval   12  0      
1122  22438000           [0258] call       12  1   1  
1126  24035303           [0259] self       12  6   332  ; 570758569
112A  97038000           [0260] loadbool   14  1   0    ; true
112E  22438001           [0261] call       12  3   1  
1132  1DC30900           [0262] getglobal  12  39       ; 538022378
1136  59430300           [0263] loadk      13  13       ; 0
113A  22430001           [0264] call       12  2   1  
113E  24834A02           [0265] self       12  4   298  ; 145557915
1142  9DC30A00           [0266] getglobal  14  43       ; trans
1146  8E835207           [0267] gettable   14  14  330  ; 0
114A  22438001           [0268] call       12  3   1  
114E  1DC30000           [0269] getglobal  12  3        ; gRegion
1152  24834E06           [0270] self       12  12  314  ; -1110225722
1156  9D431300           [0271] getglobal  14  77       ; enemy
115A  DD431100           [0272] getglobal  15  69       ; waypoints
115E  CE83CD07           [0273] gettable   15  15  310  ; 0
1162  E443CF07           [0274] self       15  15  317  ; 1839670529
1166  E2830001           [0275] call       15  2   2  
116A  1D441100           [0276] getglobal  16  69       ; waypoints
116E  0E444308           [0277] gettable   16  16  269  ; 0
1172  24C44F08           [0278] self       16  16  319  ; -231049143
1176  22040001           [0279] call       16  2   0  
117A  22830000           [0280] call       12  0   2  
117E  53038001           [0281] getupval   13  3      
1182  92030006           [0282] move       14  12     
1186  62430001           [0283] call       13  2   1  
118A  64835306           [0284] self       13  12  334  ; -1862702724
118E  E4835102           [0285] self       15  4   326  ; 196800914
1192  E2030001           [0286] call       15  2   0  
1196  62430000           [0287] call       13  0   1  
119A  64034704           [0288] self       13  8   284  ; 471456102
119E  D9430800           [0289] loadk      15  33       ; "Reticle"
11A2  19840700           [0290] loadk      16  30       ; "_visible"
11A6  57048000           [0291] loadbool   17  1   0    ; true
11AA  62438002           [0292] call       13  5   1  
11AE  64434C06           [0293] self       13  12  305  ; 796523475
11B2  62830001           [0294] call       13  2   2  
fail op	21
11B6  1540038B           [0295] concat     0   278 13 
11BA  1AC00080           [0296] jmp        4            ; to [301]
11BE  5DC30900           [0297] getglobal  13  39       ; 538022378
11C2  99830500           [0298] loadk      14  22       ; 0
11C6  62430001           [0299] call       13  2   1  
11CA  1AC0FD7F           [0300] jmp        -8           ; to [293]
11CE  64834A02           [0301] self       13  4   298  ; 145557915
11D2  DDC30A00           [0302] getglobal  15  43       ; trans
11D6  CEC3D307           [0303] gettable   15  15  335  ; 0
11DA  62438001           [0304] call       13  3   1  
11DE  5DC30900           [0305] getglobal  13  39       ; 538022378
11E2  99430B00           [0306] loadk      14  45       ; 0
11E6  62430001           [0307] call       13  2   1  
11EA  64034602           [0308] self       13  4   280  ; 1479835399
11EE  DD031400           [0309] getglobal  15  80       ; weaponTwo
11F2  17040000           [0310] loadbool   16  0   0    ; false
11F6  62830002           [0311] call       13  4   2  
11FA  A483C606           [0312] self       14  13  282  ; -67235551
11FE  19840500           [0313] loadk      16  22       ; 0
1202  A2438001           [0314] call       14  3   1  
1206  A443D402           [0315] self       14  5   337  ; 688774453
120A  1DC40D00           [0316] getglobal  16  55       ; Engine
120E  0E845408           [0317] gettable   16  16  338  ; "SLOT_6"
1212  5DC40D00           [0318] getglobal  17  55       ; Engine
1216  4EC4D408           [0319] gettable   17  17  339  ; "EXTRA2"
121A  9DC40D00           [0320] getglobal  18  55       ; Engine
121E  8E045509           [0321] gettable   18  18  340  ; "InventoryControllerBase_ES_INSTANT_EQUIP"
1222  A2438002           [0322] call       14  5   1  
1226  A443D402           [0323] self       14  5   337  ; 688774453
122A  1DC40D00           [0324] getglobal  16  55       ; Engine
122E  0E445508           [0325] gettable   16  16  341  ; "SLOT_2"
1232  5DC40D00           [0326] getglobal  17  55       ; Engine
1236  4E84D508           [0327] gettable   17  17  342  ; "MAIN_HAND"
123A  9DC40D00           [0328] getglobal  18  55       ; Engine
123E  8E045509           [0329] gettable   18  18  340  ; "InventoryControllerBase_ES_INSTANT_EQUIP"
1242  A2438002           [0330] call       14  5   1  
1246  93030000           [0331] getupval   14  0      
124A  A2438000           [0332] call       14  1   1  
124E  9DC30900           [0333] getglobal  14  39       ; 538022378
1252  D9030B00           [0334] loadk      15  44       ; 0
1256  A2430001           [0335] call       14  2   1  
125A  A4834A02           [0336] self       14  4   298  ; 145557915
125E  1DC40A00           [0337] getglobal  16  43       ; trans
1262  0EC45508           [0338] gettable   16  16  343  ; 0
1266  A2438001           [0339] call       14  3   1  
126A  9DC30900           [0340] getglobal  14  39       ; 538022378
126E  D9030B00           [0341] loadk      15  44       ; 0
1272  A2430001           [0342] call       14  2   1  
1276  9DC30000           [0343] getglobal  14  3        ; gRegion
127A  A4834E07           [0344] self       14  14  314  ; -1110225722
127E  1D441300           [0345] getglobal  16  77       ; enemy
1282  5D441100           [0346] getglobal  17  69       ; waypoints
1286  4E04CB08           [0347] gettable   17  17  300  ; 0
128A  6444CF08           [0348] self       17  17  317  ; 1839670529
128E  62840001           [0349] call       17  2   2  
1292  9D441100           [0350] getglobal  18  69       ; waypoints
1296  8E044B09           [0351] gettable   18  18  300  ; 0
129A  A4C44F09           [0352] self       18  18  319  ; -231049143
129E  A2040001           [0353] call       18  2   0  
12A2  A2830000           [0354] call       14  0   2  
12A6  DDC30000           [0355] getglobal  15  3        ; gRegion
12AA  E483CE07           [0356] self       15  15  314  ; -1110225722
12AE  5D441300           [0357] getglobal  17  77       ; enemy
12B2  9D441100           [0358] getglobal  18  69       ; waypoints
12B6  8E444309           [0359] gettable   18  18  269  ; 0
12BA  A4444F09           [0360] self       18  18  317  ; 1839670529
12BE  A2840001           [0361] call       18  2   2  
12C2  DD441100           [0362] getglobal  19  69       ; waypoints
12C6  CE84CD09           [0363] gettable   19  19  310  ; 0
12CA  E4C4CF09           [0364] self       19  19  319  ; -231049143
12CE  E2040001           [0365] call       19  2   0  
12D2  E2830000           [0366] call       15  0   2  
12D6  24845307           [0367] self       16  14  334  ; -1862702724
12DA  A4845102           [0368] self       18  4   326  ; 196800914
12DE  A2040001           [0369] call       18  2   0  
12E2  22440000           [0370] call       16  0   1  
12E6  2484D307           [0371] self       16  15  334  ; -1862702724
12EA  A4845102           [0372] self       18  4   326  ; 196800914
12EE  A2040001           [0373] call       18  2   0  
12F2  22440000           [0374] call       16  0   1  
12F6  13048001           [0375] getupval   16  3      
12FA  52040007           [0376] move       17  14     
12FE  22440001           [0377] call       16  2   1  
1302  13048001           [0378] getupval   16  3      
1306  52048007           [0379] move       17  15     
130A  22440001           [0380] call       16  2   1  
130E  1D040A00           [0381] getglobal  16  40       ; 1074689893
1312  52040007           [0382] move       17  14     
1316  22840001           [0383] call       16  2   2  
131A  18440000           [0384] test       16      1    ; to [386] if false
131E  1AC00080           [0385] jmp        4            ; to [390]
1322  24444C07           [0386] self       16  14  305  ; 796523475
1326  22840001           [0387] call       16  2   2  
fail op	21
132A  5500048B           [0388] concat     1   278 16 
132E  1A000280           [0389] jmp        9            ; to [399]
1332  1D040A00           [0390] getglobal  16  40       ; 1074689893
1336  52048007           [0391] move       17  15     
133A  22840001           [0392] call       16  2   2  
133E  18440000           [0393] test       16      1    ; to [395] if false
1342  1AC00180           [0394] jmp        8            ; to [403]
1346  2444CC07           [0395] self       16  15  305  ; 796523475
134A  22840001           [0396] call       16  2   2  
fail op	21
134E  1500048B           [0397] concat     0   278 16 
1352  1AC00080           [0398] jmp        4            ; to [403]
1356  1DC40900           [0399] getglobal  16  39       ; 538022378
135A  59840500           [0400] loadk      17  22       ; 0
135E  22440001           [0401] call       16  2   1  
1362  1A40FA7F           [0402] jmp        -22          ; to [381]
1366  1DC40900           [0403] getglobal  16  39       ; 538022378
136A  59440300           [0404] loadk      17  13       ; 0
136E  22440001           [0405] call       16  2   1  
1372  24044704           [0406] self       16  8   284  ; 471456102
1376  99C40700           [0407] loadk      18  31       ; "WeaponFrame"
137A  D9840700           [0408] loadk      19  30       ; "_visible"
137E  17058000           [0409] loadbool   20  1   0    ; true
1382  22448002           [0410] call       16  5   1  
1386  2404D603           [0411] self       16  7   344  ; 314865748
138A  22840001           [0412] call       16  2   2  
138E  6444D602           [0413] self       17  5   345  ; 1856017039
1392  DDC40D00           [0414] getglobal  19  55       ; Engine
1396  CE84D509           [0415] gettable   19  19  342  ; "MAIN_HAND"
139A  62848001           [0416] call       17  3   2  
139E  6404D608           [0417] self       17  17  344  ; 314865748
13A2  62840001           [0418] call       17  2   2  
13A6  93040001           [0419] getupval   18  2      
13AA  D2040004           [0420] move       19  8      
13AE  19851600           [0421] loadk      20  90       ; "SuitFrame.EnergyPanel.XPBar"
13B2  5DC51600           [0422] getglobal  21  91       ; -1828500651
13B6  99051700           [0423] loadk      22  92       ; 0
13BA  D9850500           [0424] loadk      23  22       ; 0
13BE  12060008           [0425] move       24  16     
13C2  62850002           [0426] call       21  4   2  
13C6  99C51500           [0427] loadk      22  87       ; 0
13CA  A2448002           [0428] call       18  5   1  
13CE  93040001           [0429] getupval   18  2      
13D2  D2040004           [0430] move       19  8      
13D6  19451700           [0431] loadk      20  93       ; "WeaponFrame.XPBar"
13DA  5DC51600           [0432] getglobal  21  91       ; -1828500651
13DE  99851700           [0433] loadk      22  94       ; 0
13E2  D9850500           [0434] loadk      23  22       ; 0
13E6  12068008           [0435] move       24  17     
13EA  62850002           [0436] call       21  4   2  
13EE  99C51700           [0437] loadk      22  95       ; 0
13F2  A2448002           [0438] call       18  5   1  
13F6  A4844A02           [0439] self       18  4   298  ; 145557915
13FA  1DC50A00           [0440] getglobal  20  43       ; trans
13FE  0E05580A           [0441] gettable   20  20  352  ; 0
1402  A2448001           [0442] call       18  3   1  
1406  9DC40900           [0443] getglobal  18  39       ; 538022378
140A  D9441200           [0444] loadk      19  73       ; 0
140E  A2440001           [0445] call       18  2   1  
1412  A4844A02           [0446] self       18  4   298  ; 145557915
1416  1DC50A00           [0447] getglobal  20  43       ; trans
141A  0E45580A           [0448] gettable   20  20  353  ; 0
141E  A2448001           [0449] call       18  3   1  
1422  9DC40900           [0450] getglobal  18  39       ; 538022378
1426  D9C41500           [0451] loadk      19  87       ; 0
142A  A2440001           [0452] call       18  2   1  
142E  A4844A02           [0453] self       18  4   298  ; 145557915
1432  1DC50A00           [0454] getglobal  20  43       ; trans
1436  0E85580A           [0455] gettable   20  20  354  ; 0
143A  A2448001           [0456] call       18  3   1  
143E  9DC40900           [0457] getglobal  18  39       ; 538022378
1442  D9440B00           [0458] loadk      19  45       ; 0
1446  A2440001           [0459] call       18  2   1  
144A  A4044602           [0460] self       18  4   280  ; 1479835399
144E  1DC51800           [0461] getglobal  20  99       ; weaponOne
1452  57050000           [0462] loadbool   21  0   0    ; false
1456  A2840002           [0463] call       18  4   2  
145A  E4844609           [0464] self       19  18  282  ; -67235551
145E  59850500           [0465] loadk      21  22       ; 0
1462  E2448001           [0466] call       19  3   1  
1466  D3040000           [0467] getupval   19  0      
146A  E2448000           [0468] call       19  1   1  
146E  DDC40900           [0469] getglobal  19  39       ; 538022378
1472  19450300           [0470] loadk      20  13       ; 0
1476  E2440001           [0471] call       19  2   1  
147A  E444D602           [0472] self       19  5   345  ; 1856017039
147E  5DC50D00           [0473] getglobal  21  55       ; Engine
1482  4E85D50A           [0474] gettable   21  21  342  ; "MAIN_HAND"
1486  E2848001           [0475] call       19  3   2  
fail op	35
148A  63808409           [0476] close      1  
148E  1AC00080           [0477] jmp        4            ; to [482]
1492  DDC40900           [0478] getglobal  19  39       ; 538022378
1496  19850500           [0479] loadk      20  22       ; 0
149A  E2440001           [0480] call       19  2   1  
149E  1A40FD7F           [0481] jmp        -10          ; to [472]
14A2  DDC40900           [0482] getglobal  19  39       ; 538022378
14A6  19450300           [0483] loadk      20  13       ; 0
14AA  E2440001           [0484] call       19  2   1  
14AE  E4844A02           [0485] self       19  4   298  ; 145557915
14B2  5DC50A00           [0486] getglobal  21  43       ; trans
14B6  4E05D90A           [0487] gettable   21  21  356  ; 0
14BA  E2448001           [0488] call       19  3   1  
14BE  DDC40900           [0489] getglobal  19  39       ; 538022378
14C2  19050B00           [0490] loadk      20  44       ; 0
14C6  E2440001           [0491] call       19  2   1  
14CA  DDC40000           [0492] getglobal  19  3        ; gRegion
14CE  E484CE09           [0493] self       19  19  314  ; -1110225722
14D2  5D451300           [0494] getglobal  21  77       ; enemy
14D6  9D451100           [0495] getglobal  22  69       ; waypoints
14DA  8E45430B           [0496] gettable   22  22  269  ; 0
14DE  A4454F0B           [0497] self       22  22  317  ; 1839670529
14E2  A2850001           [0498] call       22  2   2  
14E6  DD451100           [0499] getglobal  23  69       ; waypoints
14EA  CE45C30B           [0500] gettable   23  23  269  ; 0
14EE  E4C5CF0B           [0501] self       23  23  319  ; -231049143
14F2  E2050001           [0502] call       23  2   0  
14F6  E2840000           [0503] call       19  0   2  
14FA  1DC50000           [0504] getglobal  20  3        ; gRegion
14FE  24854E0A           [0505] self       20  20  314  ; -1110225722
1502  9D451300           [0506] getglobal  22  77       ; enemy
1506  DD451100           [0507] getglobal  23  69       ; waypoints
150A  CE45CD0B           [0508] gettable   23  23  309  ; 0
150E  E445CF0B           [0509] self       23  23  317  ; 1839670529
1512  E2850001           [0510] call       23  2   2  
1516  1D461100           [0511] getglobal  24  69       ; waypoints
151A  0E464D0C           [0512] gettable   24  24  309  ; 0
151E  24C64F0C           [0513] self       24  24  319  ; -231049143
1522  22060001           [0514] call       24  2   0  
1526  22850000           [0515] call       20  0   2  
152A  6485D309           [0516] self       21  19  334  ; -1862702724
152E  E4855102           [0517] self       23  4   326  ; 196800914
1532  E2050001           [0518] call       23  2   0  
1536  62450000           [0519] call       21  0   1  
153A  6485530A           [0520] self       21  20  334  ; -1862702724
153E  E4855102           [0521] self       23  4   326  ; 196800914
1542  E2050001           [0522] call       23  2   0  
1546  62450000           [0523] call       21  0   1  
154A  53058001           [0524] getupval   21  3      
154E  92058009           [0525] move       22  19     
1552  62450001           [0526] call       21  2   1  
1556  53058001           [0527] getupval   21  3      
155A  9205000A           [0528] move       22  20     
155E  62450001           [0529] call       21  2   1  
1562  5D050A00           [0530] getglobal  21  40       ; 1074689893
1566  92058009           [0531] move       22  19     
156A  62850001           [0532] call       21  2   2  
156E  58450000           [0533] test       21      1    ; to [535] if false
1572  1AC00080           [0534] jmp        4            ; to [539]
1576  6445CC09           [0535] self       21  19  305  ; 796523475
157A  62850001           [0536] call       21  2   2  
fail op	21
157E  5540058B           [0537] concat     1   278 21 
1582  1A000280           [0538] jmp        9            ; to [548]
1586  5D050A00           [0539] getglobal  21  40       ; 1074689893
158A  9205000A           [0540] move       22  20     
158E  62850001           [0541] call       21  2   2  
1592  58450000           [0542] test       21      1    ; to [544] if false
1596  1AC00180           [0543] jmp        8            ; to [552]
159A  64454C0A           [0544] self       21  20  305  ; 796523475
159E  62850001           [0545] call       21  2   2  
fail op	21
15A2  1540058B           [0546] concat     0   278 21 
15A6  1AC00080           [0547] jmp        4            ; to [552]
15AA  5DC50900           [0548] getglobal  21  39       ; 538022378
15AE  99850500           [0549] loadk      22  22       ; 0
15B2  62450001           [0550] call       21  2   1  
15B6  1A40FA7F           [0551] jmp        -22          ; to [530]
15BA  5DC50900           [0552] getglobal  21  39       ; 538022378
15BE  99450300           [0553] loadk      22  13       ; 0
15C2  62450001           [0554] call       21  2   1  
15C6  64854A02           [0555] self       21  4   298  ; 145557915
15CA  DDC50A00           [0556] getglobal  23  43       ; trans
15CE  CE45D90B           [0557] gettable   23  23  357  ; 0
15D2  62458001           [0558] call       21  3   1  
15D6  53050000           [0559] getupval   21  0      
15DA  62458000           [0560] call       21  1   1  
15DE  5DC50900           [0561] getglobal  21  39       ; 538022378
15E2  99450B00           [0562] loadk      22  45       ; 0
15E6  62450001           [0563] call       21  2   1  
15EA  64854A02           [0564] self       21  4   298  ; 145557915
15EE  DDC50A00           [0565] getglobal  23  43       ; trans
15F2  CE85D90B           [0566] gettable   23  23  358  ; 0
15F6  62458001           [0567] call       21  3   1  
15FA  5DC50900           [0568] getglobal  21  39       ; 538022378
15FE  99450B00           [0569] loadk      22  45       ; 0
1602  62450001           [0570] call       21  2   1  
1606  59850500           [0571] loadk      21  22       ; 0
160A  8B050000           [0572] newtable   22  0   0    ; array=0, hash=0
160E  C605800B           [0573] loadnil    23  23     
fail op	33
1612  2180CD0A           [0574] tforloop   0       310  ; to [576] if exit
1616  1A000C80           [0575] jmp        49           ; to [625]
161A  1DC61900           [0576] getglobal  24  103      ; 2144646525
161E  59460300           [0577] loadk      25  13       ; 0
1622  99060B00           [0578] loadk      26  44       ; 0
1626  22868001           [0579] call       24  3   2  
fail op	35
162A  2340430C           [0580] close      0  
162E  1AC00280           [0581] jmp        12           ; to [594]
1632  64065A01           [0582] self       25  2   360  ; -1642488687
1636  DD461A00           [0583] getglobal  27  105      ; meleeEnemy
163A  1D871A00           [0584] getglobal  28  106      ; spawnPoints
163E  5DC71900           [0585] getglobal  29  103      ; 2144646525
1642  99470300           [0586] loadk      30  13       ; 0
1646  DD871A00           [0587] getglobal  31  106      ; spawnPoints
164A  CA07800F           [0588] len        31  31     
164E  62878001           [0589] call       29  3   2  
1652  0E47070E           [0590] gettable   28  28  29 
1656  62860002           [0591] call       25  4   2  
165A  D205800C           [0592] move       23  25     
165E  1A800280           [0593] jmp        11           ; to [605]
1662  64065A01           [0594] self       25  2   360  ; -1642488687
1666  DDC61A00           [0595] getglobal  27  107      ; marineEnemy
166A  1D871A00           [0596] getglobal  28  106      ; spawnPoints
166E  5DC71900           [0597] getglobal  29  103      ; 2144646525
1672  99470300           [0598] loadk      30  13       ; 0
1676  DD871A00           [0599] getglobal  31  106      ; spawnPoints
167A  CA07800F           [0600] len        31  31     
167E  62878001           [0601] call       29  3   2  
1682  0E47070E           [0602] gettable   28  28  29 
1686  62860002           [0603] call       25  4   2  
168A  D205800C           [0604] move       23  25     
168E  6406DB0B           [0605] self       25  23  364  ; -1272115292
1692  DD461B00           [0606] getglobal  27  109      ; -332969190
1696  19871B00           [0607] loadk      28  110      ; "RandomTeam"
169A  E2060001           [0608] call       27  2   0  
169E  62460000           [0609] call       25  0   1  
16A2  53068001           [0610] getupval   25  3      
16A6  A486C30B           [0611] self       26  23  270  ; -2135866365
16AA  A2060001           [0612] call       26  2   0  
16AE  62460000           [0613] call       25  0   1  
16B2  4345C30A           [0614] add        21  21  269  ; 0
16B6  6486C30B           [0615] self       25  23  270  ; -2135866365
16BA  62860001           [0616] call       25  2   2  
16BE  8C45860A           [0617] settable   22  21  25 
16C2  5DC60900           [0618] getglobal  25  39       ; 538022378
16C6  9DC61B00           [0619] getglobal  26  111      ; -1941280958
16CA  D9060B00           [0620] loadk      27  44       ; 0
16CE  19870D00           [0621] loadk      28  54       ; 0
16D2  A2068001           [0622] call       26  3   0  
16D6  62460000           [0623] call       25  0   1  
16DA  1A00F37F           [0624] jmp        -51          ; to [574]
16DE  59460300           [0625] loadk      25  13       ; 0
16E2  8A06000B           [0626] len        26  22     
16E6  D9460300           [0627] loadk      27  13       ; 0
16EA  50460580           [0628] forprep    25  22       ; to [651]
16EE  5D070A00           [0629] getglobal  29  40       ; 1074689893
16F2  8E07070B           [0630] gettable   30  22  28 
16F6  62870001           [0631] call       29  2   2  
16FA  58470000           [0632] test       29      1    ; to [634] if false
16FE  1A000480           [0633] jmp        17           ; to [651]
1702  4E07070B           [0634] gettable   29  22  28 
1706  6407DC0E           [0635] self       29  29  368  ; 1511086594
170A  62870001           [0636] call       29  2   2  
170E  58470000           [0637] test       29      1    ; to [639] if false
1712  1AC00280           [0638] jmp        12           ; to [651]
1716  64474C02           [0639] self       29  4   305  ; 796523475
171A  62870001           [0640] call       29  2   2  
fail op	21
171E  1540DC0E           [0641] concat     0   29  369
1722  1AC00080           [0642] jmp        4            ; to [647]
1726  64074C02           [0643] self       29  4   304  ; 1992436207
172A  D9C71100           [0644] loadk      31  71       ; 0
172E  17080000           [0645] loadbool   32  0   0    ; false
1732  62470002           [0646] call       29  4   1  
1736  5DC70900           [0647] getglobal  29  39       ; 538022378
173A  99870500           [0648] loadk      30  22       ; 0
173E  62470001           [0649] call       29  2   1  
1742  1A40FA7F           [0650] jmp        -22          ; to [629]
1746  5406FA7F           [0651] forloop    25  -23      ; to [629] if loop
174A  5DC70000           [0652] getglobal  29  3        ; gRegion
174E  6487DC0E           [0653] self       29  29  370  ; -1151016513
1752  DDC71C00           [0654] getglobal  31  115      ; firstPowerUpgradeType
1756  62878001           [0655] call       29  3   2  
175A  A487CB02           [0656] self       30  5   302  ; 1769516121
175E  A2870001           [0657] call       30  2   2  
1762  A487440F           [0658] self       30  30  274  ; 991629753
1766  1208800E           [0659] move       32  29     
176A  A2478001           [0660] call       30  3   1  
176E  A487CB02           [0661] self       30  5   302  ; 1769516121
1772  A2870001           [0662] call       30  2   2  
1776  A4075D0F           [0663] self       30  30  372  ; 1881278475
177A  19880500           [0664] loadk      32  22       ; 0
177E  A2478001           [0665] call       30  3   1  
1782  9DC70900           [0666] getglobal  30  39       ; 538022378
1786  D9470300           [0667] loadk      31  13       ; 0
178A  A2470001           [0668] call       30  2   1  
178E  8B870000           [0669] newtable   30  0   2    ; array=0, hash=2
1792  8C87C5BA           [0670] settable   30  373 278  ; "x" 0
1796  8C8745BB           [0671] settable   30  374 278  ; "y" 0
179A  D3070001           [0672] getupval   31  2      
179E  12080004           [0673] move       32  8      
17A2  59C81D00           [0674] loadk      33  119      ; "SuitFrame.EnergyPanel.Ability1"
17A6  8E485D0F           [0675] gettable   34  30  373  ; "x"
17AA  CE885D0F           [0676] gettable   35  30  374  ; "y"
17AE  E2478002           [0677] call       31  5   1  
17B2  E4874A02           [0678] self       31  4   298  ; 145557915
17B6  5DC80A00           [0679] getglobal  33  43       ; trans
17BA  4E08CD10           [0680] gettable   33  33  308  ; 0
17BE  E2478001           [0681] call       31  3   1  
17C2  DDC70900           [0682] getglobal  31  39       ; 538022378
17C6  19881200           [0683] loadk      32  74       ; 0
17CA  E2470001           [0684] call       31  2   1  
17CE  E4874A02           [0685] self       31  4   298  ; 145557915
17D2  5DC80A00           [0686] getglobal  33  43       ; trans
17D6  4E08DE10           [0687] gettable   33  33  376  ; 0
17DA  E2478001           [0688] call       31  3   1  
17DE  DDC70900           [0689] getglobal  31  39       ; 538022378
17E2  19080B00           [0690] loadk      32  44       ; 0
17E6  E2470001           [0691] call       31  2   1  
17EA  E487CB02           [0692] self       31  5   302  ; 1769516121
17EE  E2870001           [0693] call       31  2   2  
17F2  E4C7CB0F           [0694] self       31  31  303  ; -1209210956
17F6  59880500           [0695] loadk      33  22       ; 0
17FA  E2478001           [0696] call       31  3   1  
17FE  DDC70000           [0697] getglobal  31  3        ; gRegion
1802  E487CE0F           [0698] self       31  31  314  ; -1110225722
1806  5D481E00           [0699] getglobal  33  121      ; energyType
180A  9D880F00           [0700] getglobal  34  62       ; energySpawn
180E  A4484F11           [0701] self       34  34  317  ; 1839670529
1812  A2880001           [0702] call       34  2   2  
1816  DD880F00           [0703] getglobal  35  62       ; energySpawn
181A  E4C8CF11           [0704] self       35  35  319  ; -231049143
181E  E2080001           [0705] call       35  2   0  
1822  E2870000           [0706] call       31  0   2  
1826  1D080A00           [0707] getglobal  32  40       ; 1074689893
182A  5208800F           [0708] move       33  31     
182E  22880001           [0709] call       32  2   2  
1832  18480000           [0710] test       32      1    ; to [712] if false
1836  1AC00080           [0711] jmp        4            ; to [716]
183A  1DC80900           [0712] getglobal  32  39       ; 538022378
183E  59880500           [0713] loadk      33  22       ; 0
1842  22480001           [0714] call       32  2   1  
1846  1A80FD7F           [0715] jmp        -9           ; to [707]
184A  13080001           [0716] getupval   32  2      
184E  52080004           [0717] move       33  8      
1852  99C81D00           [0718] loadk      34  119      ; "SuitFrame.EnergyPanel.Ability1"
1856  CE485D0F           [0719] gettable   35  30  373  ; "x"
185A  0E895D0F           [0720] gettable   36  30  374  ; "y"
185E  22488002           [0721] call       32  5   1  
1862  1DC80D00           [0722] getglobal  32  55       ; Engine
1866  0E885E10           [0723] gettable   32  32  378  ; -1802437008
186A  22888000           [0724] call       32  1   2  
186E  18080000           [0725] test       32      0    ; to [727] if true
1872  1A000980           [0726] jmp        37           ; to [764]
1876  17080000           [0727] loadbool   32  0   0    ; false
187A  5DC81E00           [0728] getglobal  33  123      ; gPlayerProfileMgr
187E  6408DF10           [0729] self       33  33  380  ; 569342746
1882  D9880500           [0730] loadk      35  22       ; 0
1886  62888001           [0731] call       33  3   2  
188A  9D080A00           [0732] getglobal  34  40       ; 1074689893
188E  D2088010           [0733] move       35  33     
1892  A2880001           [0734] call       34  2   2  
1896  98480000           [0735] test       34      1    ; to [737] if false
189A  1A800280           [0736] jmp        11           ; to [748]
189E  A448DF10           [0737] self       34  33  381  ; 1055613230
18A2  A2880001           [0738] call       34  2   2  
18A6  D3080002           [0739] getupval   35  4      
18AA  CE88DF11           [0740] gettable   35  35  382  ; -132701534
18AE  1DC90D00           [0741] getglobal  36  55       ; Engine
18B2  0EC95F12           [0742] gettable   36  36  383  ; -1852901170
18B6  22898000           [0743] call       36  1   2  
18BA  57090000           [0744] loadbool   37  0   0    ; false
18BE  97098000           [0745] loadbool   38  1   0    ; true
18C2  E2880002           [0746] call       35  4   2  
18C6  12088011           [0747] move       32  35     
18CA  18480000           [0748] test       32      1    ; to [750] if false
18CE  1A000180           [0749] jmp        5            ; to [755]
18D2  DDC80D00           [0750] getglobal  35  55       ; Engine
18D6  CE08CE11           [0751] gettable   35  35  312  ; -578647490
18DA  E2888000           [0752] call       35  1   2  
18DE  D8080000           [0753] test       35      0    ; to [755] if true
18E2  1AC00080           [0754] jmp        4            ; to [759]
18E6  E4884A02           [0755] self       35  4   298  ; 145557915
18EA  5D092000           [0756] getglobal  37  128      ; abilityNoTouchpadTrans
18EE  E2488001           [0757] call       35  3   1  
18F2  1A000280           [0758] jmp        9            ; to [768]
18F6  E4884A02           [0759] self       35  4   298  ; 145557915
18FA  5DC90A00           [0760] getglobal  37  43       ; trans
18FE  4E49E012           [0761] gettable   37  37  385  ; 0
1902  E2488001           [0762] call       35  3   1  
1906  1AC00080           [0763] jmp        4            ; to [768]
190A  E4884A02           [0764] self       35  4   298  ; 145557915
190E  5DC90A00           [0765] getglobal  37  43       ; trans
1912  4E49E012           [0766] gettable   37  37  385  ; 0
1916  E2488001           [0767] call       35  3   1  
191A  DDC80000           [0768] getglobal  35  3        ; gRegion
191E  E488CE11           [0769] self       35  35  314  ; -1110225722
1922  5D491300           [0770] getglobal  37  77       ; enemy
1926  9D491100           [0771] getglobal  38  69       ; waypoints
192A  8E494313           [0772] gettable   38  38  269  ; 0
192E  A4494F13           [0773] self       38  38  317  ; 1839670529
1932  A2890001           [0774] call       38  2   2  
1936  DD491100           [0775] getglobal  39  69       ; waypoints
193A  CE49C313           [0776] gettable   39  39  269  ; 0
193E  E4C9CF13           [0777] self       39  39  319  ; -231049143
1942  E2090001           [0778] call       39  2   0  
1946  E2880000           [0779] call       35  0   2  
194A  12038011           [0780] move       12  35     
194E  E4885306           [0781] self       35  12  334  ; -1862702724
1952  64895102           [0782] self       37  4   326  ; 196800914
1956  62090001           [0783] call       37  2   0  
195A  E2480000           [0784] call       35  0   1  
195E  D3088001           [0785] getupval   35  3      
1962  12090006           [0786] move       36  12     
1966  E2480001           [0787] call       35  2   1  
196A  E4484F06           [0788] self       35  12  317  ; 1839670529
196E  E2880001           [0789] call       35  2   2  
1972  24494C06           [0790] self       36  12  305  ; 796523475
1976  22890001           [0791] call       36  2   2  
fail op	21
197A  1500098B           [0792] concat     0   278 36 
197E  1AC00080           [0793] jmp        4            ; to [798]
1982  1DC90900           [0794] getglobal  36  39       ; 538022378
1986  59890500           [0795] loadk      37  22       ; 0
198A  22490001           [0796] call       36  2   1  
198E  1AC0FD7F           [0797] jmp        -8           ; to [790]
1992  1DC91E00           [0798] getglobal  36  123      ; gPlayerProfileMgr
1996  24095F12           [0799] self       36  36  380  ; 569342746
199A  99890500           [0800] loadk      38  22       ; 0
199E  22898001           [0801] call       36  3   2  
19A2  24896012           [0802] self       36  36  386  ; 1699680402
19A6  22890001           [0803] call       36  2   2  
19AA  5D090A00           [0804] getglobal  37  40       ; 1074689893
19AE  92090012           [0805] move       38  36     
19B2  62890001           [0806] call       37  2   2  
19B6  58490000           [0807] test       37      1    ; to [809] if false
19BA  1A000780           [0808] jmp        29           ; to [838]
19BE  64C96012           [0809] self       37  36  387  ; -664673307
19C2  62890001           [0810] call       37  2   2  
19C6  58490000           [0811] test       37      1    ; to [813] if false
19CA  1A000680           [0812] jmp        25           ; to [838]
19CE  5DC90900           [0813] getglobal  37  39       ; 538022378
19D2  99092100           [0814] loadk      38  132      ; 0
19D6  62490001           [0815] call       37  2   1  
19DA  5DC90000           [0816] getglobal  37  3        ; gRegion
19DE  6489CE12           [0817] self       37  37  314  ; -1110225722
19E2  DD492100           [0818] getglobal  39  133      ; modType
19E6  120A8011           [0819] move       40  35     
19EA  5D8A2100           [0820] getglobal  41  134      ; ZERO_ROTATION
19EE  62898002           [0821] call       37  5   2  
19F2  9DC90900           [0822] getglobal  38  39       ; 538022378
19F6  D9490300           [0823] loadk      39  13       ; 0
19FA  A2490001           [0824] call       38  2   1  
19FE  A4894A02           [0825] self       38  4   298  ; 145557915
1A02  1DCA0A00           [0826] getglobal  40  43       ; trans
1A06  0ECA6114           [0827] gettable   40  40  391  ; 0
1A0A  A2498001           [0828] call       38  3   1  
1A0E  9D090A00           [0829] getglobal  38  40       ; 1074689893
1A12  D2098012           [0830] move       39  37     
1A16  A2890001           [0831] call       38  2   2  
1A1A  98490000           [0832] test       38      1    ; to [834] if false
1A1E  1AC00080           [0833] jmp        4            ; to [838]
1A22  9DC90900           [0834] getglobal  38  39       ; 538022378
1A26  D9890500           [0835] loadk      39  22       ; 0
1A2A  A2490001           [0836] call       38  2   1  
1A2E  1A80FD7F           [0837] jmp        -9           ; to [829]
1A32  9DC90900           [0838] getglobal  38  39       ; 538022378
1A36  D9490300           [0839] loadk      39  13       ; 0
1A3A  A2490001           [0840] call       38  2   1  
1A3E  A4894A02           [0841] self       38  4   298  ; 145557915
1A42  1DCA0A00           [0842] getglobal  40  43       ; trans
1A46  0E0A6214           [0843] gettable   40  40  392  ; 0
1A4A  A2498001           [0844] call       38  3   1  
1A4E  9DC90900           [0845] getglobal  38  39       ; 538022378
1A52  D9491200           [0846] loadk      39  73       ; 0
1A56  A2490001           [0847] call       38  2   1  
1A5A  9D090000           [0848] getglobal  38  0        ; _T
1A5E  8C496290           [0849] settable   38  288 393  ; "DisableMiniMap" nil
1A62  9DC90900           [0850] getglobal  38  39       ; 538022378
1A66  D9892200           [0851] loadk      39  138      ; 0
1A6A  A2490001           [0852] call       38  2   1  
1A6E  9DC92200           [0853] getglobal  38  139      ; teleporttrigger
1A72  A4096313           [0854] self       38  38  396  ; 766584623
1A76  A2490001           [0855] call       38  2   1  
1A7A  99490300           [0856] loadk      38  13       ; 0
1A7E  DD492300           [0857] getglobal  39  141      ; portalmeshes
1A82  CA098013           [0858] len        39  39     
1A86  194A0300           [0859] loadk      40  13       ; 0
1A8A  90C90080           [0860] forprep    38  4        ; to [865]
1A8E  9D4A2300           [0861] getglobal  42  141      ; portalmeshes
1A92  8E4A0A15           [0862] gettable   42  42  41 
1A96  A48A6315           [0863] self       42  42  398  ; -725453761
1A9A  A24A0001           [0864] call       42  2   1  
1A9E  9489FE7F           [0865] forloop    38  -5       ; to [861] if loop
1AA2  9DCA2300           [0866] getglobal  42  143      ; objectivemarker
1AA6  A40A6415           [0867] self       42  42  400  ; -1923578185
1AAA  194B2400           [0868] loadk      44  145      ; "Enable"
1AAE  A24A8001           [0869] call       42  3   1  
1AB2  930A0001           [0870] getupval   42  2      
1AB6  D20A0004           [0871] move       43  8      
1ABA  198B2400           [0872] loadk      44  146      ; "MiniMapContainer.MiniMap"
1ABE  598B0500           [0873] loadk      45  22       ; 0
1AC2  998B0500           [0874] loadk      46  22       ; 0
1AC6  A24A8002           [0875] call       42  5   1  
1ACA  9D0A0A00           [0876] getglobal  42  40       ; 1074689893
1ACE  DDCA2400           [0877] getglobal  43  147      ; preBridgeTrigger
1AD2  A28A0001           [0878] call       42  2   2  
1AD6  984A0000           [0879] test       42      1    ; to [881] if false
1ADA  1AC00080           [0880] jmp        4            ; to [885]
1ADE  9DCA0900           [0881] getglobal  42  39       ; 538022378
1AE2  D98A0500           [0882] loadk      43  22       ; 0
1AE6  A24A0001           [0883] call       42  2   1  
1AEA  1A80FD7F           [0884] jmp        -9           ; to [876]
1AEE  A48A4A02           [0885] self       42  4   298  ; 145557915
1AF2  1DCB0A00           [0886] getglobal  44  43       ; trans
1AF6  0E0B6516           [0887] gettable   44  44  404  ; 0
1AFA  A24A8001           [0888] call       42  3   1  
1AFE  9DCA0900           [0889] getglobal  42  39       ; 538022378
1B02  D94A1200           [0890] loadk      43  73       ; 0
1B06  A24A0001           [0891] call       42  2   1  
1B0A  9D0A0A00           [0892] getglobal  42  40       ; 1074689893
1B0E  DD4A2500           [0893] getglobal  43  149      ; postBridgeTrigger
1B12  A28A0001           [0894] call       42  2   2  
1B16  984A0000           [0895] test       42      1    ; to [897] if false
1B1A  1A000680           [0896] jmp        25           ; to [922]
1B1E  A48A4A02           [0897] self       42  4   298  ; 145557915
1B22  1DCB0A00           [0898] getglobal  44  43       ; trans
1B26  0E8B6516           [0899] gettable   44  44  406  ; 0
1B2A  A24A8001           [0900] call       42  3   1  
1B2E  9D0A0A00           [0901] getglobal  42  40       ; 1074689893
1B32  DDCA2500           [0902] getglobal  43  151      ; wallrunGuide
1B36  A28A0001           [0903] call       42  2   2  
1B3A  984A0000           [0904] test       42      1    ; to [906] if false
1B3E  1A000380           [0905] jmp        13           ; to [919]
1B42  9D0A0A00           [0906] getglobal  42  40       ; 1074689893
1B46  DD0A2600           [0907] getglobal  43  152      ; wallrunGuideAnim
1B4A  A28A0001           [0908] call       42  2   2  
1B4E  984A0000           [0909] test       42      1    ; to [911] if false
1B52  1AC00180           [0910] jmp        8            ; to [919]
1B56  9DCA2500           [0911] getglobal  42  151      ; wallrunGuide
1B5A  A40A6415           [0912] self       42  42  400  ; -1923578185
1B5E  194B2600           [0913] loadk      44  153      ; "Show"
1B62  A24A8001           [0914] call       42  3   1  
1B66  9DCA2500           [0915] getglobal  42  151      ; wallrunGuide
1B6A  A48A6615           [0916] self       42  42  410  ; 1489721288
1B6E  1D0B2600           [0917] getglobal  44  152      ; wallrunGuideAnim
1B72  A24A8001           [0918] call       42  3   1  
1B76  9DCA0900           [0919] getglobal  42  39       ; 538022378
1B7A  D94A0B00           [0920] loadk      43  45       ; 0
1B7E  A24A0001           [0921] call       42  2   1  
1B82  9D0A0A00           [0922] getglobal  42  40       ; 1074689893
1B86  DD4A2500           [0923] getglobal  43  149      ; postBridgeTrigger
1B8A  A28A0001           [0924] call       42  2   2  
1B8E  984A0000           [0925] test       42      1    ; to [927] if false
1B92  1AC00080           [0926] jmp        4            ; to [931]
1B96  9DCA0900           [0927] getglobal  42  39       ; 538022378
1B9A  D98A0500           [0928] loadk      43  22       ; 0
1B9E  A24A0001           [0929] call       42  2   1  
1BA2  1A80FD7F           [0930] jmp        -9           ; to [922]
1BA6  9D0A0A00           [0931] getglobal  42  40       ; 1074689893
1BAA  DDCA2600           [0932] getglobal  43  155      ; pitFallTrigger
1BAE  A28A0001           [0933] call       42  2   2  
1BB2  984A0000           [0934] test       42      1    ; to [936] if false
1BB6  1A400280           [0935] jmp        10           ; to [946]
1BBA  9DCA2600           [0936] getglobal  42  155      ; pitFallTrigger
1BBE  A40A6715           [0937] self       42  42  412  ; -1318948062
1BC2  A28A0001           [0938] call       42  2   2  
1BC6  984A0000           [0939] test       42      1    ; to [941] if false
1BCA  1A000180           [0940] jmp        5            ; to [946]
1BCE  A48A4A02           [0941] self       42  4   298  ; 145557915
1BD2  1DCB0A00           [0942] getglobal  44  43       ; trans
1BD6  0E4B6716           [0943] gettable   44  44  413  ; 0
1BDA  A24A8001           [0944] call       42  3   1  
1BDE  1AC00080           [0945] jmp        4            ; to [950]
1BE2  A48A4A02           [0946] self       42  4   298  ; 145557915
1BE6  1DCB0A00           [0947] getglobal  44  43       ; trans
1BEA  0E8B6716           [0948] gettable   44  44  414  ; 0
1BEE  A24A8001           [0949] call       42  3   1  
1BF2  9D0A0A00           [0950] getglobal  42  40       ; 1074689893
1BF6  DDCA2500           [0951] getglobal  43  151      ; wallrunGuide
1BFA  A28A0001           [0952] call       42  2   2  
1BFE  984A0000           [0953] test       42      1    ; to [955] if false
1C02  1AC00080           [0954] jmp        4            ; to [959]
1C06  9DCA2500           [0955] getglobal  42  151      ; wallrunGuide
1C0A  A40A6415           [0956] self       42  42  400  ; -1923578185
1C0E  19CB2700           [0957] loadk      44  159      ; "Hide"
1C12  A24A8001           [0958] call       42  3   1  
1C16  99CA1100           [0959] loadk      42  71       ; 0
fail op	21
1C1A  15808A9A           [0960] concat     0   309 42 
1C1E  1AC00180           [0961] jmp        8            ; to [970]
1C22  E40A6802           [0962] self       43  4   416  ; -2082918326
1C26  5DCB2300           [0963] getglobal  45  143      ; objectivemarker
1C2A  E28A8001           [0964] call       43  3   2  
1C2E  920A8015           [0965] move       42  43     
1C32  DDCA0900           [0966] getglobal  43  39       ; 538022378
1C36  198B0500           [0967] loadk      44  22       ; 0
1C3A  E24A0001           [0968] call       43  2   1  
1C3E  1A40FD7F           [0969] jmp        -10          ; to [960]
1C42  DDCA2300           [0970] getglobal  43  143      ; objectivemarker
1C46  E40AE415           [0971] self       43  43  400  ; -1923578185
1C4A  594B2800           [0972] loadk      45  161      ; "Disable"
1C4E  E24A8001           [0973] call       43  3   1  
1C52  E40A5C02           [0974] self       43  4   368  ; 1511086594
1C56  E28A0001           [0975] call       43  2   2  
1C5A  D84A0000           [0976] test       43      1    ; to [978] if false
1C5E  1AC00080           [0977] jmp        4            ; to [982]
1C62  E40A4C02           [0978] self       43  4   304  ; 1992436207
1C66  59CB1100           [0979] loadk      45  71       ; 0
1C6A  970B0000           [0980] loadbool   46  0   0    ; false
1C6E  E24A0002           [0981] call       43  4   1  
1C72  D30A0002           [0982] getupval   43  4      
1C76  CE8AE815           [0983] gettable   43  43  418  ; 630793108
1C7A  1DCB2800           [0984] getglobal  44  163      ; fightingMusic
1C7E  E28A0001           [0985] call       43  2   2  
fail op	8
1C82  C80A8002           [0986] setupval   43  5      
1C86  DD0A0A00           [0987] getglobal  43  40       ; 1074689893
1C8A  120B0002           [0988] move       44  4      
1C8E  E28A0001           [0989] call       43  2   2  
1C92  D84A0000           [0990] test       43      1    ; to [992] if false
1C96  1AC00380           [0991] jmp        16           ; to [1008]
1C9A  E44A4C02           [0992] self       43  4   305  ; 796523475
1C9E  E28A0001           [0993] call       43  2   2  
fail op	21
1CA2  1540DC15           [0994] concat     0   43  369
1CA6  1AC00180           [0995] jmp        8            ; to [1004]
1CAA  E40A5C02           [0996] self       43  4   368  ; 1511086594
1CAE  E28A0001           [0997] call       43  2   2  
1CB2  D84A0000           [0998] test       43      1    ; to [1000] if false
1CB6  1AC00080           [0999] jmp        4            ; to [1004]
1CBA  E40A4C02           [1000] self       43  4   304  ; 1992436207
1CBE  59CB1100           [1001] loadk      45  71       ; 0
1CC2  970B0000           [1002] loadbool   46  0   0    ; false
1CC6  E24A0002           [1003] call       43  4   1  
1CCA  DDCA0900           [1004] getglobal  43  39       ; 538022378
1CCE  198B0500           [1005] loadk      44  22       ; 0
1CD2  E24A0001           [1006] call       43  2   1  
1CD6  1A80FA7F           [1007] jmp        -21          ; to [987]
1CDA  1E008000           [1008] return     0   1      
                         * constants:
1CDF  01                 sizek (164)
1CE0  04                 const type 4
1CE1  03                 string size (3)
1CE2  5F5400             "_T\0"
                         const [0]: "_T"
1CE5  04                 const type 4
1CE6  0F                 string size (15)
1CE7  7475746F7269616C+  "tutorial"
1CEF  41637469766500     "Active\0"
                         const [1]: "tutorialActive"
1CF6  01                 const type 3
1CF7  01000000           const [2]: (1)
1CFB  04                 const type 4
1CFC  08                 string size (8)
1CFD  67526567696F6E00   "gRegion\0"
                         const [3]: "gRegion"
1D05  01                 const type 3
1D06  36C033A9           const [4]: (-1456226250)
1D0A  04                 const type 4
1D0B  0C                 string size (12)
1D0C  706F737450726F63+  "postProc"
1D14  65737300           "ess\0"
                         const [5]: "postProcess"
1D18  04                 const type 4
1D19  0B                 string size (11)
1D1A  6747616D6552756C+  "gGameRul"
1D22  657300             "es\0"
                         const [6]: "gGameRules"
1D25  01                 const type 3
1D26  12BA7009           const [7]: (158382610)
1D2A  01                 const type 3
1D2B  45913BD6           const [8]: (-700739259)
1D2F  01                 const type 3
1D30  B1FC55BA           const [9]: (-1168769871)
1D34  01                 const type 3
1D35  9186DD6B           const [10]: (1809680017)
1D39  01                 const type 3
1D3A  90F9CED1           const [11]: (-774964848)
1D3E  01                 const type 3
1D3F  9FE1FB48           const [12]: (1224466847)
1D43  03                 const type 3
1D44  0000803F           const [13]: (0)
1D48  01                 const type 3
1D49  0344B180           const [14]: (-2135866365)
1D4D  01                 const type 3
1D4E  1FD0B58D           const [15]: (-1917464545)
1D52  01                 const type 3
1D53  9B06F6A3           const [16]: (-1544157541)
1D57  01                 const type 3
1D58  3B9EB1C3           const [17]: (-1011769797)
1D5C  01                 const type 3
1D5D  B9111B3B           const [18]: (991629753)
1D61  04                 const type 4
1D62  05                 string size (5)
1D63  47616D6500         "Game\0"
                         const [19]: "Game"
1D68  04                 const type 4
1D69  12                 string size (18)
1D6A  4156415441525F53+  "AVATAR_S"
1D72  4849454C445F4D41+  "HIELD_MA"
1D7A  5800               "X\0"
                         const [20]: "AVATAR_SHIELD_MAX"
1D7C  04                 const type 4
1D7D  04                 string size (4)
1D7E  53455400           "SET\0"
                         const [21]: "SET"
1D82  03                 const type 3
1D83  00000000           const [22]: (0)
1D87  01                 const type 3
1D88  C9B13889           const [23]: (-1992773175)
1D8C  01                 const type 3
1D8D  077F3458           const [24]: (1479835399)
1D91  04                 const type 4
1D92  09                 string size (9)
1D93  7761726672616D65+  "warframe"
1D9B  00                 "\0"
                         const [25]: "warframe"
1D9C  01                 const type 3
1D9D  2111FEFB           const [26]: (-67235551)
1DA1  01                 const type 3
1DA2  86CE0987           const [27]: (-2029400442)
1DA6  01                 const type 3
1DA7  66D9191C           const [28]: (471456102)
1DAB  04                 const type 4
1DAC  0A                 string size (10)
1DAD  537569744672616D+  "SuitFram"
1DB5  6500               "e\0"
                         const [29]: "SuitFrame"
1DB7  04                 const type 4
1DB8  09                 string size (9)
1DB9  5F76697369626C65+  "_visible"
1DC1  00                 "\0"
                         const [30]: "_visible"
1DC2  04                 const type 4
1DC3  0C                 string size (12)
1DC4  576561706F6E4672+  "WeaponFr"
1DCC  616D6500           "ame\0"
                         const [31]: "WeaponFrame"
1DD0  04                 const type 4
1DD1  0F                 string size (15)
1DD2  44697361626C654D+  "DisableM"
1DDA  696E694D617000     "iniMap\0"
                         const [32]: "DisableMiniMap"
1DE1  04                 const type 4
1DE2  08                 string size (8)
1DE3  52657469636C6500   "Reticle\0"
                         const [33]: "Reticle"
1DEB  04                 const type 4
1DEC  06                 string size (6)
1DED  626C6F6F6D00       "bloom\0"
                         const [34]: "bloom"
1DF3  03                 const type 3
1DF4  CDCCCC3D           const [35]: (-51)
1DF8  04                 const type 4
1DF9  05                 string size (5)
1DFA  6661646500         "fade\0"
                         const [36]: "fade"
1DFF  01                 const type 3
1E00  FFF9DE4C           const [37]: (1289681407)
1E04  03                 const type 3
1E05  0000803E           const [38]: (0)
1E09  01                 const type 3
1E0A  EA911120           const [39]: (538022378)
1E0E  01                 const type 3
1E0F  65770E40           const [40]: (1074689893)
1E13  01                 const type 3
1E14  2F8B2F7B           const [41]: (2066713391)
1E18  01                 const type 3
1E19  9B09AD08           const [42]: (145557915)
1E1D  04                 const type 4
1E1E  06                 string size (6)
1E1F  7472616E7300       "trans\0"
                         const [43]: "trans"
1E25  03                 const type 3
1E26  00000040           const [44]: (0)
1E2A  03                 const type 3
1E2B  00008040           const [45]: (0)
1E2F  01                 const type 3
1E30  59AC7869           const [46]: (1769516121)
1E34  01                 const type 3
1E35  B4E7ECB7           const [47]: (-1209210956)
1E39  01                 const type 3
1E3A  EF29C276           const [48]: (1992436207)
1E3E  01                 const type 3
1E3F  D3FB792F           const [49]: (796523475)
1E43  03                 const type 3
1E44  0000C841           const [50]: (0)
1E48  04                 const type 4
1E49  1D                 string size (29)
1E4A  537569744672616D+  "SuitFram"
1E52  652E456E65726779+  "e.Energy"
1E5A  50616E656C2E4865+  "Panel.He"
1E62  616C746800         "alth\0"
                         const [51]: "SuitFrame.EnergyPanel.Health"
1E67  03                 const type 3
1E68  0000A041           const [52]: (0)
1E6C  03                 const type 3
1E6D  0000A040           const [53]: (0)
1E71  03                 const type 3
1E72  00004040           const [54]: (0)
1E76  04                 const type 4
1E77  07                 string size (7)
1E78  456E67696E6500     "Engine\0"
                         const [55]: "Engine"
1E7F  01                 const type 3
1E80  3E8A82DD           const [56]: (-578647490)
1E84  03                 const type 3
1E85  0000F041           const [57]: (0)
1E89  01                 const type 3
1E8A  C64CD3BD           const [58]: (-1110225722)
1E8E  04                 const type 4
1E8F  0B                 string size (11)
1E90  6865616C74685479+  "healthTy"
1E98  706500             "pe\0"
                         const [59]: "healthType"
1E9B  04                 const type 4
1E9C  0C                 string size (12)
1E9D  6865616C74685370+  "healthSp"
1EA5  61776E00           "awn\0"
                         const [60]: "healthSpawn"
1EA9  01                 const type 3
1EAA  0125A76D           const [61]: (1839670529)
1EAE  04                 const type 4
1EAF  0C                 string size (12)
1EB0  656E657267795370+  "energySp"
1EB8  61776E00           "awn\0"
                         const [62]: "energySpawn"
1EBC  01                 const type 3
1EBD  49783AF2           const [63]: (-231049143)
1EC1  01                 const type 3
1EC2  A75515F2           const [64]: (-233482841)
1EC6  01                 const type 3
1EC7  B79670F2           const [65]: (-227502409)
1ECB  04                 const type 4
1ECC  1D                 string size (29)
1ECD  537569744672616D+  "SuitFram"
1ED5  652E456E65726779+  "e.Energy"
1EDD  50616E656C2E5368+  "Panel.Sh"
1EE5  69656C6400         "ield\0"
                         const [66]: "SuitFrame.EnergyPanel.Shield"
1EEA  03                 const type 3
1EEB  0000E040           const [67]: (0)
1EEF  01                 const type 3
1EF0  A3A4C24B           const [68]: (1271047331)
1EF4  04                 const type 4
1EF5  0A                 string size (10)
1EF6  776179706F696E74+  "waypoint"
1EFE  7300               "s\0"
                         const [69]: "waypoints"
1F00  01                 const type 3
1F01  92F1BA0B           const [70]: (196800914)
1F05  03                 const type 3
1F06  0000C842           const [71]: (0)
1F0A  04                 const type 4
1F0B  0D                 string size (13)
1F0C  44545F4558504C4F+  "DT_EXPLO"
1F14  53494F4E00         "SION\0"
                         const [72]: "DT_EXPLOSION"
1F19  03                 const type 3
1F1A  0000C040           const [73]: (0)
1F1E  03                 const type 3
1F1F  00000041           const [74]: (0)
1F23  04                 const type 4
1F24  0C                 string size (12)
1F25  6D656C6565576561+  "meleeWea"
1F2D  706F6E00           "pon\0"
                         const [75]: "meleeWeapon"
1F31  01                 const type 3
1F32  A9150522           const [76]: (570758569)
1F36  04                 const type 4
1F37  06                 string size (6)
1F38  656E656D7900       "enemy\0"
                         const [77]: "enemy"
1F3E  01                 const type 3
1F3F  7C69F990           const [78]: (-1862702724)
1F43  03                 const type 3
1F44  00001041           const [79]: (0)
1F48  04                 const type 4
1F49  0A                 string size (10)
1F4A  776561706F6E5477+  "weaponTw"
1F52  6F00               "o\0"
                         const [80]: "weaponTwo"
1F54  01                 const type 3
1F55  35DD0D29           const [81]: (688774453)
1F59  04                 const type 4
1F5A  07                 string size (7)
1F5B  534C4F545F3600     "SLOT_6\0"
                         const [82]: "SLOT_6"
1F62  04                 const type 4
1F63  07                 string size (7)
1F64  45585452413200     "EXTRA2\0"
                         const [83]: "EXTRA2"
1F6B  04                 const type 4
1F6C  29                 string size (41)
1F6D  496E76656E746F72+  "Inventor"
1F75  79436F6E74726F6C+  "yControl"
1F7D  6C6572426173655F+  "lerBase_"
1F85  45535F494E535441+  "ES_INSTA"
1F8D  4E545F4551554950+  "NT_EQUIP"
1F95  00                 "\0"
                         const [84]: "InventoryControllerBase_ES_INSTANT_EQUIP"
1F96  04                 const type 4
1F97  07                 string size (7)
1F98  534C4F545F3200     "SLOT_2\0"
                         const [85]: "SLOT_2"
1F9F  04                 const type 4
1FA0  0A                 string size (10)
1FA1  4D41494E5F48414E+  "MAIN_HAN"
1FA9  4400               "D\0"
                         const [86]: "MAIN_HAND"
1FAB  03                 const type 3
1FAC  00002041           const [87]: (0)
1FB0  01                 const type 3
1FB1  5478C412           const [88]: (314865748)
1FB5  01                 const type 3
1FB6  8F92A06E           const [89]: (1856017039)
1FBA  04                 const type 4
1FBB  1C                 string size (28)
1FBC  537569744672616D+  "SuitFram"
1FC4  652E456E65726779+  "e.Energy"
1FCC  50616E656C2E5850+  "Panel.XP"
1FD4  42617200           "Bar\0"
                         const [90]: "SuitFrame.EnergyPanel.XPBar"
1FD8  01                 const type 3
1FD9  554B0393           const [91]: (-1828500651)
1FDD  03                 const type 3
1FDE  000075C3           const [92]: (0)
1FE2  04                 const type 4
1FE3  12                 string size (18)
1FE4  576561706F6E4672+  "WeaponFr"
1FEC  616D652E58504261+  "ame.XPBa"
1FF4  7200               "r\0"
                         const [93]: "WeaponFrame.XPBar"
1FF6  03                 const type 3
1FF7  000053C3           const [94]: (0)
1FFB  03                 const type 3
1FFC  000020C1           const [95]: (0)
2000  03                 const type 3
2001  00006041           const [96]: (0)
2005  03                 const type 3
2006  00007041           const [97]: (0)
200A  03                 const type 3
200B  00008041           const [98]: (0)
200F  04                 const type 4
2010  0A                 string size (10)
2011  776561706F6E4F6E+  "weaponOn"
2019  6500               "e\0"
                         const [99]: "weaponOne"
201B  03                 const type 3
201C  00008841           const [100]: (0)
2020  03                 const type 3
2021  00009041           const [101]: (0)
2025  03                 const type 3
2026  00009841           const [102]: (0)
202A  01                 const type 3
202B  7DB5D47F           const [103]: (2144646525)
202F  01                 const type 3
2030  919C199E           const [104]: (-1642488687)
2034  04                 const type 4
2035  0B                 string size (11)
2036  6D656C6565456E65+  "meleeEne"
203E  6D7900             "my\0"
                         const [105]: "meleeEnemy"
2041  04                 const type 4
2042  0C                 string size (12)
2043  737061776E506F69+  "spawnPoi"
204B  6E747300           "nts\0"
                         const [106]: "spawnPoints"
204F  04                 const type 4
2050  0C                 string size (12)
2051  6D6172696E65456E+  "marineEn"
2059  656D7900           "emy\0"
                         const [107]: "marineEnemy"
205D  01                 const type 3
205E  A40F2DB4           const [108]: (-1272115292)
2062  01                 const type 3
2063  1A4B27EC           const [109]: (-332969190)
2067  04                 const type 4
2068  0B                 string size (11)
2069  52616E646F6D5465+  "RandomTe"
2071  616D00             "am\0"
                         const [110]: "RandomTeam"
2074  01                 const type 3
2075  42674A8C           const [111]: (-1941280958)
2079  01                 const type 3
207A  025A115A           const [112]: (1511086594)
207E  03                 const type 3
207F  00004842           const [113]: (0)
2083  01                 const type 3
2084  BFE164BB           const [114]: (-1151016513)
2088  04                 const type 4
2089  16                 string size (22)
208A  6669727374506F77+  "firstPow"
2092  6572557067726164+  "erUpgrad"
209A  655479706500       "eType\0"
                         const [115]: "firstPowerUpgradeType"
20A0  01                 const type 3
20A1  0B082270           const [116]: (1881278475)
20A5  04                 const type 4
20A6  02                 string size (2)
20A7  7800               "x\0"
                         const [117]: "x"
20A9  04                 const type 4
20AA  02                 string size (2)
20AB  7900               "y\0"
                         const [118]: "y"
20AD  04                 const type 4
20AE  1F                 string size (31)
20AF  537569744672616D+  "SuitFram"
20B7  652E456E65726779+  "e.Energy"
20BF  50616E656C2E4162+  "Panel.Ab"
20C7  696C6974793100     "ility1\0"
                         const [119]: "SuitFrame.EnergyPanel.Ability1"
20CE  03                 const type 3
20CF  0000A841           const [120]: (0)
20D3  04                 const type 4
20D4  0B                 string size (11)
20D5  656E657267795479+  "energyTy"
20DD  706500             "pe\0"
                         const [121]: "energyType"
20E0  01                 const type 3
20E1  70FE9094           const [122]: (-1802437008)
20E5  04                 const type 4
20E6  12                 string size (18)
20E7  67506C6179657250+  "gPlayerP"
20EF  726F66696C654D67+  "rofileMg"
20F7  7200               "r\0"
                         const [123]: "gPlayerProfileMgr"
20F9  01                 const type 3
20FA  1A7BEF21           const [124]: (569342746)
20FE  01                 const type 3
20FF  2E61EB3E           const [125]: (1055613230)
2103  01                 const type 3
2104  A22217F8           const [126]: (-132701534)
2108  01                 const type 3
2109  CEF88E91           const [127]: (-1852901170)
210D  04                 const type 4
210E  17                 string size (23)
210F  6162696C6974794E+  "abilityN"
2117  6F546F7563687061+  "oTouchpa"
211F  645472616E7300     "dTrans\0"
                         const [128]: "abilityNoTouchpadTrans"
2126  03                 const type 3
2127  0000B041           const [129]: (0)
212B  01                 const type 3
212C  92104F65           const [130]: (1699680402)
2130  01                 const type 3
2131  E5E361D8           const [131]: (-664673307)
2135  03                 const type 3
2136  0000003F           const [132]: (0)
213A  04                 const type 4
213B  08                 string size (8)
213C  6D6F645479706500   "modType\0"
                         const [133]: "modType"
2144  04                 const type 4
2145  0E                 string size (14)
2146  5A45524F5F524F54+  "ZERO_ROT"
214E  4154494F4E00       "ATION\0"
                         const [134]: "ZERO_ROTATION"
2154  03                 const type 3
2155  0000B841           const [135]: (0)
2159  03                 const type 3
215A  0000C041           const [136]: (0)
215E  00                 const type 0
                         const [137]: nil
215F  03                 const type 3
2160  0000C03F           const [138]: (0)
2164  04                 const type 4
2165  10                 string size (16)
2166  74656C65706F7274+  "teleport"
216E  7472696767657200   "trigger\0"
                         const [139]: "teleporttrigger"
2176  01                 const type 3
2177  2F27B12D           const [140]: (766584623)
217B  04                 const type 4
217C  0D                 string size (13)
217D  706F7274616C6D65+  "portalme"
2185  7368657300         "shes\0"
                         const [141]: "portalmeshes"
218A  01                 const type 3
218B  3F74C2D4           const [142]: (-725453761)
218F  04                 const type 4
2190  10                 string size (16)
2191  6F626A6563746976+  "objectiv"
2199  656D61726B657200   "emarker\0"
                         const [143]: "objectivemarker"
21A1  01                 const type 3
21A2  B786588D           const [144]: (-1923578185)
21A6  04                 const type 4
21A7  07                 string size (7)
21A8  456E61626C6500     "Enable\0"
                         const [145]: "Enable"
21AF  04                 const type 4
21B0  19                 string size (25)
21B1  4D696E694D617043+  "MiniMapC"
21B9  6F6E7461696E6572+  "ontainer"
21C1  2E4D696E694D6170+  ".MiniMap"
21C9  00                 "\0"
                         const [146]: "MiniMapContainer.MiniMap"
21CA  04                 const type 4
21CB  11                 string size (17)
21CC  7072654272696467+  "preBridg"
21D4  6554726967676572+  "eTrigger"
21DC  00                 "\0"
                         const [147]: "preBridgeTrigger"
21DD  03                 const type 3
21DE  0000D041           const [148]: (0)
21E2  04                 const type 4
21E3  12                 string size (18)
21E4  706F737442726964+  "postBrid"
21EC  6765547269676765+  "geTrigge"
21F4  7200               "r\0"
                         const [149]: "postBridgeTrigger"
21F6  03                 const type 3
21F7  0000D841           const [150]: (0)
21FB  04                 const type 4
21FC  0D                 string size (13)
21FD  77616C6C72756E47+  "wallrunG"
2205  7569646500         "uide\0"
                         const [151]: "wallrunGuide"
220A  04                 const type 4
220B  11                 string size (17)
220C  77616C6C72756E47+  "wallrunG"
2214  75696465416E696D+  "uideAnim"
221C  00                 "\0"
                         const [152]: "wallrunGuideAnim"
221D  04                 const type 4
221E  05                 string size (5)
221F  53686F7700         "Show\0"
                         const [153]: "Show"
2224  01                 const type 3
2225  C857CB58           const [154]: (1489721288)
2229  04                 const type 4
222A  0F                 string size (15)
222B  70697446616C6C54+  "pitFallT"
2233  72696767657200     "rigger\0"
                         const [155]: "pitFallTrigger"
223A  01                 const type 3
223B  227362B1           const [156]: (-1318948062)
223F  03                 const type 3
2240  0000E041           const [157]: (0)
2244  03                 const type 3
2245  0000E841           const [158]: (0)
2249  04                 const type 4
224A  05                 string size (5)
224B  4869646500         "Hide\0"
                         const [159]: "Hide"
2250  01                 const type 3
2251  4A30D983           const [160]: (-2082918326)
2255  04                 const type 4
2256  08                 string size (8)
2257  44697361626C6500   "Disable\0"
                         const [161]: "Disable"
225F  01                 const type 3
2260  94239925           const [162]: (630793108)
2264  04                 const type 4
2265  0E                 string size (14)
2266  6669676874696E67+  "fighting"
226E  4D7573696300       "Music\0"
                         const [163]: "fightingMusic"
                         * functions:
2274  00                 sizep (0)
                         * lines:
2276  07                 sizelineinfo (1008)
                         [pc] (line)
2277  C9                 [0001] (-55)
2278  00                 [0002] (-55)
2279  00                 [0003] (-55)
227A  00                 [0004] (-55)
227B  C9                 [0005] (-54)
227C  00                 [0006] (-52)
227D  00                 [0007] (-52)
227E  00                 [0008] (-50)
227F  C9                 [0009] (-50)
2280  00                 [0010] (-50)
2281  00                 [0011] (-49)
2282  00                 [0012] (-46)
2283  C9                 [0013] (-46)
2284  00                 [0014] (-46)
2285  00                 [0015] (-46)
2286  00                 [0016] (-45)
2287  CA                 [0017] (-45)
2288  00                 [0018] (-45)
2289  00                 [0019] (-45)
228A  00                 [0020] (-44)
228B  CC                 [0021] (-44)
228C  00                 [0022] (-44)
228D  00                 [0023] (-44)
228E  00                 [0024] (-43)
228F  CC                 [0025] (-43)
2290  00                 [0026] (-43)
2291  00                 [0027] (-43)
2292  00                 [0028] (-41)
2293  CE                 [0029] (-41)
2294  00                 [0030] (-41)
2295  00                 [0031] (-40)
2296  00                 [0032] (-40)
2297  CE                 [0033] (-40)
2298  00                 [0034] (-39)
2299  00                 [0035] (-39)
229A  00                 [0036] (-39)
229B  CE                 [0037] (-38)
229C  00                 [0038] (-38)
229D  00                 [0039] (-37)
229E  00                 [0040] (-37)
229F  CF                 [0041] (-36)
22A0  00                 [0042] (-36)
22A1  00                 [0043] (-33)
22A2  00                 [0044] (-33)
22A3  D2                 [0045] (-33)
22A4  00                 [0046] (-33)
22A5  00                 [0047] (-33)
22A6  00                 [0048] (-33)
22A7  D2                 [0049] (-33)
22A8  00                 [0050] (-32)
22A9  00                 [0051] (-32)
22AA  00                 [0052] (-32)
22AB  D2                 [0053] (-29)
22AC  00                 [0054] (-29)
22AD  00                 [0055] (-29)
22AE  00                 [0056] (-29)
22AF  D2                 [0057] (-28)
22B0  00                 [0058] (-28)
22B1  00                 [0059] (-28)
22B2  00                 [0060] (-27)
22B3  D3                 [0061] (-27)
22B4  00                 [0062] (-27)
22B5  00                 [0063] (-24)
22B6  00                 [0064] (-24)
22B7  D3                 [0065] (-24)
22B8  00                 [0066] (-24)
22B9  00                 [0067] (-24)
22BA  00                 [0068] (-23)
22BB  D3                 [0069] (-23)
22BC  00                 [0070] (-23)
22BD  00                 [0071] (-23)
22BE  00                 [0072] (-23)
22BF  D3                 [0073] (-22)
22C0  00                 [0074] (-22)
22C1  00                 [0075] (-21)
22C2  00                 [0076] (-21)
22C3  D4                 [0077] (-21)
22C4  00                 [0078] (-21)
22C5  00                 [0079] (-21)
22C6  00                 [0080] (-19)
22C7  D4                 [0081] (-17)
22C8  00                 [0082] (-16)
22C9  00                 [0083] (-16)
22CA  00                 [0084] (-15)
22CB  D4                 [0085] (-15)
22CC  00                 [0086] (-14)
22CD  00                 [0087] (-14)
22CE  00                 [0088] (-14)
22CF  D4                 [0089] (-14)
22D0  00                 [0090] (-13)
22D1  00                 [0091] (-13)
22D2  00                 [0092] (-13)
22D3  D5                 [0093] (-13)
22D4  00                 [0094] (-11)
22D5  00                 [0095] (-4)
22D6  00                 [0096] (-4)
22D7  D5                 [0097] (-4)
22D8  00                 [0098] (-4)
22D9  00                 [0099] (-4)
22DA  00                 [0100] (-4)
22DB  D5                 [0101] (-4)
22DC  00                 [0102] (-3)
22DD  00                 [0103] (-3)
22DE  00                 [0104] (-3)
22DF  D5                 [0105] (-3)
22E0  00                 [0106] (-1)
22E1  00                 [0107] (-1)
22E2  00                 [0108] (-1)
22E3  D7                 [0109] (0)
22E4  00                 [0110] (0)
22E5  00                 [0111] (0)
22E6  00                 [0112] (0)
22E7  D7                 [0113] (1)
22E8  00                 [0114] (1)
22E9  00                 [0115] (2)
22EA  00                 [0116] (2)
22EB  D7                 [0117] (4)
22EC  00                 [0118] (4)
22ED  00                 [0119] (4)
22EE  00                 [0120] (4)
22EF  D8                 [0121] (5)
22F0  00                 [0122] (5)
22F1  00                 [0123] (5)
22F2  00                 [0124] (7)
22F3  D8                 [0125] (7)
22F4  00                 [0126] (7)
22F5  00                 [0127] (7)
22F6  00                 [0128] (7)
22F7  D8                 [0129] (8)
22F8  00                 [0130] (8)
22F9  00                 [0131] (8)
22FA  00                 [0132] (8)
22FB  D9                 [0133] (8)
22FC  00                 [0134] (9)
22FD  00                 [0135] (9)
22FE  00                 [0136] (9)
22FF  D9                 [0137] (9)
2300  00                 [0138] (9)
2301  00                 [0139] (10)
2302  00                 [0140] (10)
2303  D9                 [0141] (10)
2304  00                 [0142] (10)
2305  00                 [0143] (10)
2306  00                 [0144] (10)
2307  DA                 [0145] (12)
2308  00                 [0146] (12)
2309  00                 [0147] (12)
230A  00                 [0148] (13)
230B  DA                 [0149] (13)
230C  00                 [0150] (13)
230D  00                 [0151] (13)
230E  00                 [0152] (14)
230F  DB                 [0153] (14)
2310  00                 [0154] (14)
2311  00                 [0155] (16)
2312  00                 [0156] (16)
2313  DB                 [0157] (16)
2314  00                 [0158] (16)
2315  00                 [0159] (16)
2316  00                 [0160] (17)
2317  DC                 [0161] (17)
2318  00                 [0162] (17)
2319  00                 [0163] (17)
231A  00                 [0164] (17)
231B  DC                 [0165] (19)
231C  00                 [0166] (19)
231D  00                 [0167] (19)
231E  00                 [0168] (19)
231F  DF                 [0169] (21)
2320  00                 [0170] (21)
2321  00                 [0171] (21)
2322  00                 [0172] (22)
2323  DF                 [0173] (22)
2324  00                 [0174] (22)
2325  00                 [0175] (22)
2326  00                 [0176] (22)
2327  DF                 [0177] (22)
2328  00                 [0178] (22)
2329  00                 [0179] (22)
232A  00                 [0180] (22)
232B  DF                 [0181] (22)
232C  00                 [0182] (23)
232D  00                 [0183] (23)
232E  00                 [0184] (23)
232F  DF                 [0185] (23)
2330  00                 [0186] (23)
2331  00                 [0187] (24)
2332  00                 [0188] (24)
2333  DF                 [0189] (24)
2334  00                 [0190] (24)
2335  00                 [0191] (26)
2336  00                 [0192] (26)
2337  DF                 [0193] (26)
2338  00                 [0194] (27)
2339  00                 [0195] (27)
233A  00                 [0196] (27)
233B  E0                 [0197] (27)
233C  00                 [0198] (29)
233D  00                 [0199] (29)
233E  00                 [0200] (29)
233F  E0                 [0201] (29)
2340  00                 [0202] (29)
2341  00                 [0203] (29)
2342  00                 [0204] (29)
2343  E0                 [0205] (30)
2344  00                 [0206] (30)
2345  00                 [0207] (30)
2346  00                 [0208] (30)
2347  E3                 [0209] (32)
2348  00                 [0210] (32)
2349  00                 [0211] (32)
234A  00                 [0212] (32)
234B  E3                 [0213] (32)
234C  00                 [0214] (32)
234D  00                 [0215] (33)
234E  00                 [0216] (33)
234F  E3                 [0217] (33)
2350  00                 [0218] (34)
2351  00                 [0219] (34)
2352  00                 [0220] (34)
2353  E3                 [0221] (34)
2354  00                 [0222] (34)
2355  00                 [0223] (34)
2356  00                 [0224] (34)
2357  E4                 [0225] (34)
2358  00                 [0226] (34)
2359  00                 [0227] (34)
235A  00                 [0228] (34)
235B  E4                 [0229] (34)
235C  00                 [0230] (35)
235D  00                 [0231] (35)
235E  00                 [0232] (35)
235F  E4                 [0233] (35)
2360  00                 [0234] (36)
2361  00                 [0235] (36)
2362  00                 [0236] (36)
2363  E5                 [0237] (36)
2364  00                 [0238] (36)
2365  00                 [0239] (36)
2366  00                 [0240] (37)
2367  E5                 [0241] (37)
2368  00                 [0242] (37)
2369  00                 [0243] (38)
236A  00                 [0244] (38)
236B  E5                 [0245] (38)
236C  00                 [0246] (38)
236D  00                 [0247] (39)
236E  00                 [0248] (39)
236F  E8                 [0249] (39)
2370  00                 [0250] (42)
2371  00                 [0251] (42)
2372  00                 [0252] (42)
2373  E8                 [0253] (42)
2374  00                 [0254] (43)
2375  00                 [0255] (43)
2376  00                 [0256] (43)
2377  E8                 [0257] (44)
2378  00                 [0258] (44)
2379  00                 [0259] (47)
237A  00                 [0260] (47)
237B  E8                 [0261] (47)
237C  00                 [0262] (49)
237D  00                 [0263] (49)
237E  00                 [0264] (49)
237F  E8                 [0265] (52)
2380  00                 [0266] (52)
2381  00                 [0267] (52)
2382  00                 [0268] (52)
2383  E9                 [0269] (53)
2384  00                 [0270] (53)
2385  00                 [0271] (53)
2386  00                 [0272] (53)
2387  E9                 [0273] (53)
2388  00                 [0274] (53)
2389  00                 [0275] (53)
238A  00                 [0276] (53)
238B  E9                 [0277] (53)
238C  00                 [0278] (53)
238D  00                 [0279] (53)
238E  00                 [0280] (53)
238F  E9                 [0281] (54)
2390  00                 [0282] (54)
2391  00                 [0283] (54)
2392  00                 [0284] (55)
2393  E9                 [0285] (55)
2394  00                 [0286] (55)
2395  00                 [0287] (55)
2396  00                 [0288] (56)
2397  EA                 [0289] (56)
2398  00                 [0290] (56)
2399  00                 [0291] (56)
239A  00                 [0292] (56)
239B  EA                 [0293] (57)
239C  00                 [0294] (57)
239D  00                 [0295] (57)
239E  00                 [0296] (57)
239F  EB                 [0297] (58)
23A0  00                 [0298] (58)
23A1  00                 [0299] (58)
23A2  00                 [0300] (58)
23A3  EB                 [0301] (62)
23A4  00                 [0302] (62)
23A5  00                 [0303] (62)
23A6  00                 [0304] (62)
23A7  EB                 [0305] (63)
23A8  00                 [0306] (63)
23A9  00                 [0307] (63)
23AA  00                 [0308] (64)
23AB  EB                 [0309] (64)
23AC  00                 [0310] (64)
23AD  00                 [0311] (64)
23AE  00                 [0312] (65)
23AF  EB                 [0313] (65)
23B0  00                 [0314] (65)
23B1  00                 [0315] (66)
23B2  00                 [0316] (66)
23B3  ED                 [0317] (66)
23B4  00                 [0318] (66)
23B5  00                 [0319] (66)
23B6  00                 [0320] (66)
23B7  EF                 [0321] (66)
23B8  00                 [0322] (66)
23B9  00                 [0323] (67)
23BA  00                 [0324] (67)
23BB  F0                 [0325] (67)
23BC  00                 [0326] (67)
23BD  00                 [0327] (67)
23BE  00                 [0328] (67)
23BF  F0                 [0329] (67)
23C0  00                 [0330] (67)
23C1  00                 [0331] (68)
23C2  00                 [0332] (68)
23C3  F1                 [0333] (69)
23C4  00                 [0334] (69)
23C5  00                 [0335] (69)
23C6  00                 [0336] (72)
23C7  F1                 [0337] (72)
23C8  00                 [0338] (72)
23C9  00                 [0339] (72)
23CA  00                 [0340] (73)
23CB  F2                 [0341] (73)
23CC  00                 [0342] (73)
23CD  00                 [0343] (74)
23CE  00                 [0344] (74)
23CF  F2                 [0345] (74)
23D0  00                 [0346] (74)
23D1  00                 [0347] (74)
23D2  00                 [0348] (74)
23D3  F2                 [0349] (74)
23D4  00                 [0350] (74)
23D5  00                 [0351] (74)
23D6  00                 [0352] (74)
23D7  F2                 [0353] (74)
23D8  00                 [0354] (74)
23D9  00                 [0355] (75)
23DA  00                 [0356] (75)
23DB  F3                 [0357] (75)
23DC  00                 [0358] (75)
23DD  00                 [0359] (75)
23DE  00                 [0360] (75)
23DF  F3                 [0361] (75)
23E0  00                 [0362] (75)
23E1  00                 [0363] (75)
23E2  00                 [0364] (75)
23E3  F3                 [0365] (75)
23E4  00                 [0366] (75)
23E5  00                 [0367] (76)
23E6  00                 [0368] (76)
23E7  F3                 [0369] (76)
23E8  00                 [0370] (76)
23E9  00                 [0371] (77)
23EA  00                 [0372] (77)
23EB  F5                 [0373] (77)
23EC  00                 [0374] (77)
23ED  00                 [0375] (79)
23EE  00                 [0376] (79)
23EF  FC                 [0377] (79)
23F0  00                 [0378] (80)
23F1  00                 [0379] (80)
23F2  00                 [0380] (80)
23F3  FC                 [0381] (82)
23F4  00                 [0382] (82)
23F5  00                 [0383] (82)
23F6  00                 [0384] (82)
23F7  FC                 [0385] (82)
23F8  00                 [0386] (82)
23F9  00                 [0387] (82)
23FA  00                 [0388] (82)
23FB  FC                 [0389] (82)
23FC  00                 [0390] (82)
23FD  00                 [0391] (82)
23FE  00                 [0392] (82)
23FF  FC                 [0393] (82)
2400  00                 [0394] (82)
2401  00                 [0395] (82)
2402  00                 [0396] (82)
2403  FC                 [0397] (82)
2404  00                 [0398] (82)
2405  00                 [0399] (83)
2406  00                 [0400] (83)
2407  FC                 [0401] (83)
2408  00                 [0402] (83)
2409  00                 [0403] (85)
240A  00                 [0404] (85)
240B  FD                 [0405] (85)
240C  00                 [0406] (89)
240D  00                 [0407] (89)
240E  00                 [0408] (89)
240F  FD                 [0409] (89)
2410  00                 [0410] (89)
2411  00                 [0411] (106)
2412  00                 [0412] (106)
2413  FD                 [0413] (107)
2414  00                 [0414] (107)
2415  00                 [0415] (107)
2416  00                 [0416] (107)
2417  FD                 [0417] (107)
2418  00                 [0418] (107)
2419  00                 [0419] (108)
241A  00                 [0420] (108)
241B  FF                 [0421] (108)
241C  00                 [0422] (108)
241D  00                 [0423] (108)
241E  00                 [0424] (108)
241F  FF                 [0425] (108)
2420  00                 [0426] (108)
2421  00                 [0427] (108)
2422  00                 [0428] (108)
2423  FF                 [0429] (109)
2424  00                 [0430] (109)
2425  00                 [0431] (109)
2426  00                 [0432] (109)
2427  00                 [0433] (109)
2428  01                 [0434] (109)
2429  00                 [0435] (109)
242A  00                 [0436] (109)
242B  00                 [0437] (109)
242C  01                 [0438] (109)
242D  00                 [0439] (111)
242E  00                 [0440] (111)
242F  00                 [0441] (111)
2430  01                 [0442] (111)
2431  00                 [0443] (112)
2432  00                 [0444] (112)
2433  00                 [0445] (112)
2434  01                 [0446] (113)
2435  00                 [0447] (113)
2436  00                 [0448] (113)
2437  01                 [0449] (113)
2438  01                 [0450] (114)
2439  00                 [0451] (114)
243A  00                 [0452] (114)
243B  01                 [0453] (117)
243C  01                 [0454] (117)
243D  00                 [0455] (117)
243E  00                 [0456] (117)
243F  02                 [0457] (118)
2440  01                 [0458] (118)
2441  00                 [0459] (118)
2442  00                 [0460] (119)
2443  02                 [0461] (119)
2444  01                 [0462] (119)
2445  00                 [0463] (119)
2446  00                 [0464] (120)
2447  04                 [0465] (120)
2448  01                 [0466] (120)
2449  00                 [0467] (121)
244A  00                 [0468] (121)
244B  04                 [0469] (122)
244C  01                 [0470] (122)
244D  00                 [0471] (122)
244E  00                 [0472] (124)
244F  04                 [0473] (124)
2450  01                 [0474] (124)
2451  00                 [0475] (124)
2452  00                 [0476] (124)
2453  04                 [0477] (124)
2454  01                 [0478] (125)
2455  00                 [0479] (125)
2456  00                 [0480] (125)
2457  05                 [0481] (125)
2458  01                 [0482] (127)
2459  00                 [0483] (127)
245A  00                 [0484] (127)
245B  05                 [0485] (-126)
245C  01                 [0486] (-126)
245D  00                 [0487] (-126)
245E  00                 [0488] (-126)
245F  05                 [0489] (-125)
2460  01                 [0490] (-125)
2461  00                 [0491] (-125)
2462  00                 [0492] (-124)
2463  07                 [0493] (-124)
2464  01                 [0494] (-124)
2465  00                 [0495] (-124)
2466  00                 [0496] (-124)
2467  07                 [0497] (-124)
2468  01                 [0498] (-124)
2469  00                 [0499] (-124)
246A  00                 [0500] (-124)
246B  07                 [0501] (-124)
246C  01                 [0502] (-124)
246D  00                 [0503] (-124)
246E  00                 [0504] (-123)
246F  07                 [0505] (-123)
2470  01                 [0506] (-123)
2471  00                 [0507] (-123)
2472  00                 [0508] (-123)
2473  07                 [0509] (-123)
2474  01                 [0510] (-123)
2475  00                 [0511] (-123)
2476  00                 [0512] (-123)
2477  08                 [0513] (-123)
2478  01                 [0514] (-123)
2479  00                 [0515] (-123)
247A  00                 [0516] (-122)
247B  08                 [0517] (-122)
247C  01                 [0518] (-122)
247D  00                 [0519] (-122)
247E  00                 [0520] (-121)
247F  08                 [0521] (-121)
2480  01                 [0522] (-121)
2481  00                 [0523] (-121)
2482  00                 [0524] (-119)
2483  08                 [0525] (-119)
2484  01                 [0526] (-119)
2485  00                 [0527] (-118)
2486  00                 [0528] (-118)
2487  08                 [0529] (-118)
2488  01                 [0530] (-116)
2489  00                 [0531] (-116)
248A  00                 [0532] (-116)
248B  09                 [0533] (-116)
248C  01                 [0534] (-116)
248D  00                 [0535] (-116)
248E  00                 [0536] (-116)
248F  09                 [0537] (-116)
2490  01                 [0538] (-116)
2491  00                 [0539] (-116)
2492  00                 [0540] (-116)
2493  09                 [0541] (-116)
2494  01                 [0542] (-116)
2495  00                 [0543] (-116)
2496  00                 [0544] (-116)
2497  09                 [0545] (-116)
2498  01                 [0546] (-116)
2499  00                 [0547] (-116)
249A  00                 [0548] (-115)
249B  09                 [0549] (-115)
249C  01                 [0550] (-115)
249D  00                 [0551] (-115)
249E  00                 [0552] (-113)
249F  0A                 [0553] (-113)
24A0  01                 [0554] (-113)
24A1  00                 [0555] (-110)
24A2  00                 [0556] (-110)
24A3  0A                 [0557] (-110)
24A4  01                 [0558] (-110)
24A5  00                 [0559] (-109)
24A6  00                 [0560] (-109)
24A7  0A                 [0561] (-108)
24A8  01                 [0562] (-108)
24A9  00                 [0563] (-108)
24AA  00                 [0564] (-105)
24AB  0A                 [0565] (-105)
24AC  01                 [0566] (-105)
24AD  00                 [0567] (-105)
24AE  00                 [0568] (-104)
24AF  0A                 [0569] (-104)
24B0  01                 [0570] (-104)
24B1  00                 [0571] (-103)
24B2  00                 [0572] (-102)
24B3  0A                 [0573] (-101)
24B4  01                 [0574] (-99)
24B5  00                 [0575] (-99)
24B6  00                 [0576] (-98)
24B7  0C                 [0577] (-98)
24B8  01                 [0578] (-98)
24B9  00                 [0579] (-98)
24BA  00                 [0580] (-97)
24BB  0C                 [0581] (-97)
24BC  01                 [0582] (-96)
24BD  00                 [0583] (-96)
24BE  00                 [0584] (-96)
24BF  0C                 [0585] (-96)
24C0  01                 [0586] (-96)
24C1  00                 [0587] (-96)
24C2  00                 [0588] (-96)
24C3  0D                 [0589] (-96)
24C4  01                 [0590] (-96)
24C5  00                 [0591] (-96)
24C6  00                 [0592] (-96)
24C7  0D                 [0593] (-96)
24C8  01                 [0594] (-94)
24C9  00                 [0595] (-94)
24CA  00                 [0596] (-94)
24CB  0D                 [0597] (-94)
24CC  01                 [0598] (-94)
24CD  00                 [0599] (-94)
24CE  00                 [0600] (-94)
24CF  0D                 [0601] (-94)
24D0  01                 [0602] (-94)
24D1  00                 [0603] (-94)
24D2  00                 [0604] (-94)
24D3  0E                 [0605] (-92)
24D4  01                 [0606] (-92)
24D5  00                 [0607] (-92)
24D6  00                 [0608] (-92)
24D7  0E                 [0609] (-92)
24D8  01                 [0610] (-91)
24D9  00                 [0611] (-91)
24DA  00                 [0612] (-91)
24DB  0E                 [0613] (-91)
24DC  01                 [0614] (-90)
24DD  00                 [0615] (-89)
24DE  00                 [0616] (-89)
24DF  10                 [0617] (-89)
24E0  01                 [0618] (-88)
24E1  00                 [0619] (-88)
24E2  00                 [0620] (-88)
24E3  10                 [0621] (-88)
24E4  01                 [0622] (-88)
24E5  00                 [0623] (-88)
24E6  00                 [0624] (-88)
24E7  10                 [0625] (-85)
24E8  01                 [0626] (-85)
24E9  00                 [0627] (-85)
24EA  00                 [0628] (-85)
24EB  10                 [0629] (-84)
24EC  01                 [0630] (-84)
24ED  00                 [0631] (-84)
24EE  00                 [0632] (-84)
24EF  10                 [0633] (-84)
24F0  01                 [0634] (-84)
24F1  00                 [0635] (-84)
24F2  00                 [0636] (-84)
24F3  11                 [0637] (-84)
24F4  01                 [0638] (-84)
24F5  00                 [0639] (-83)
24F6  00                 [0640] (-83)
24F7  11                 [0641] (-83)
24F8  01                 [0642] (-83)
24F9  00                 [0643] (-82)
24FA  00                 [0644] (-82)
24FB  11                 [0645] (-82)
24FC  01                 [0646] (-82)
24FD  00                 [0647] (-80)
24FE  00                 [0648] (-80)
24FF  11                 [0649] (-80)
2500  01                 [0650] (-80)
2501  00                 [0651] (-85)
2502  00                 [0652] (-76)
2503  11                 [0653] (-76)
2504  01                 [0654] (-76)
2505  00                 [0655] (-76)
2506  00                 [0656] (-75)
2507  13                 [0657] (-75)
2508  01                 [0658] (-75)
2509  00                 [0659] (-75)
250A  00                 [0660] (-75)
250B  13                 [0661] (-74)
250C  01                 [0662] (-74)
250D  00                 [0663] (-74)
250E  00                 [0664] (-74)
250F  13                 [0665] (-74)
2510  01                 [0666] (-73)
2511  00                 [0667] (-73)
2512  00                 [0668] (-73)
2513  13                 [0669] (-71)
2514  01                 [0670] (-71)
2515  00                 [0671] (-71)
2516  00                 [0672] (-70)
2517  15                 [0673] (-70)
2518  01                 [0674] (-70)
2519  00                 [0675] (-70)
251A  00                 [0676] (-70)
251B  15                 [0677] (-70)
251C  01                 [0678] (-68)
251D  00                 [0679] (-68)
251E  00                 [0680] (-68)
251F  15                 [0681] (-68)
2520  01                 [0682] (-67)
2521  00                 [0683] (-67)
2522  00                 [0684] (-67)
2523  16                 [0685] (-66)
2524  01                 [0686] (-66)
2525  00                 [0687] (-66)
2526  00                 [0688] (-66)
2527  16                 [0689] (-65)
2528  01                 [0690] (-65)
2529  00                 [0691] (-65)
252A  00                 [0692] (-62)
252B  16                 [0693] (-62)
252C  01                 [0694] (-62)
252D  00                 [0695] (-62)
252E  00                 [0696] (-62)
252F  16                 [0697] (-61)
2530  01                 [0698] (-61)
2531  00                 [0699] (-61)
2532  00                 [0700] (-61)
2533  16                 [0701] (-61)
2534  01                 [0702] (-61)
2535  00                 [0703] (-61)
2536  00                 [0704] (-61)
2537  16                 [0705] (-61)
2538  01                 [0706] (-61)
2539  00                 [0707] (-60)
253A  00                 [0708] (-60)
253B  16                 [0709] (-60)
253C  01                 [0710] (-60)
253D  00                 [0711] (-60)
253E  00                 [0712] (-59)
253F  16                 [0713] (-59)
2540  01                 [0714] (-59)
2541  00                 [0715] (-59)
2542  00                 [0716] (-57)
2543  16                 [0717] (-57)
2544  01                 [0718] (-57)
2545  00                 [0719] (-57)
2546  00                 [0720] (-57)
2547  16                 [0721] (-57)
2548  01                 [0722] (-54)
2549  00                 [0723] (-54)
254A  00                 [0724] (-54)
254B  17                 [0725] (-54)
254C  01                 [0726] (-54)
254D  00                 [0727] (-53)
254E  00                 [0728] (-51)
254F  17                 [0729] (-51)
2550  01                 [0730] (-51)
2551  00                 [0731] (-51)
2552  00                 [0732] (-50)
2553  17                 [0733] (-50)
2554  01                 [0734] (-50)
2555  00                 [0735] (-50)
2556  00                 [0736] (-50)
2557  17                 [0737] (-49)
2558  01                 [0738] (-49)
2559  00                 [0739] (-47)
255A  00                 [0740] (-47)
255B  17                 [0741] (-47)
255C  01                 [0742] (-47)
255D  00                 [0743] (-47)
255E  00                 [0744] (-47)
255F  18                 [0745] (-47)
2560  01                 [0746] (-47)
2561  00                 [0747] (-47)
2562  00                 [0748] (-44)
2563  18                 [0749] (-44)
2564  01                 [0750] (-44)
2565  00                 [0751] (-44)
2566  00                 [0752] (-44)
2567  18                 [0753] (-44)
2568  01                 [0754] (-44)
2569  00                 [0755] (-43)
256A  00                 [0756] (-43)
256B  18                 [0757] (-43)
256C  01                 [0758] (-43)
256D  00                 [0759] (-41)
256E  00                 [0760] (-41)
256F  1A                 [0761] (-41)
2570  01                 [0762] (-41)
2571  00                 [0763] (-40)
2572  00                 [0764] (-38)
2573  1A                 [0765] (-38)
2574  01                 [0766] (-38)
2575  00                 [0767] (-38)
2576  00                 [0768] (-35)
2577  1A                 [0769] (-35)
2578  01                 [0770] (-35)
2579  00                 [0771] (-35)
257A  00                 [0772] (-35)
257B  1B                 [0773] (-35)
257C  01                 [0774] (-35)
257D  00                 [0775] (-35)
257E  00                 [0776] (-35)
257F  1B                 [0777] (-35)
2580  01                 [0778] (-35)
2581  00                 [0779] (-35)
2582  00                 [0780] (-35)
2583  1B                 [0781] (-34)
2584  01                 [0782] (-34)
2585  00                 [0783] (-34)
2586  00                 [0784] (-34)
2587  1B                 [0785] (-33)
2588  01                 [0786] (-33)
2589  00                 [0787] (-33)
258A  00                 [0788] (-32)
258B  1D                 [0789] (-32)
258C  01                 [0790] (-31)
258D  00                 [0791] (-31)
258E  00                 [0792] (-31)
258F  1D                 [0793] (-31)
2590  01                 [0794] (-30)
2591  00                 [0795] (-30)
2592  00                 [0796] (-30)
2593  1D                 [0797] (-30)
2594  01                 [0798] (-26)
2595  00                 [0799] (-26)
2596  00                 [0800] (-26)
2597  1D                 [0801] (-26)
2598  01                 [0802] (-26)
2599  00                 [0803] (-26)
259A  00                 [0804] (-25)
259B  1D                 [0805] (-25)
259C  01                 [0806] (-25)
259D  00                 [0807] (-25)
259E  00                 [0808] (-25)
259F  1D                 [0809] (-25)
25A0  01                 [0810] (-25)
25A1  00                 [0811] (-25)
25A2  00                 [0812] (-25)
25A3  1D                 [0813] (-24)
25A4  01                 [0814] (-24)
25A5  00                 [0815] (-24)
25A6  00                 [0816] (-23)
25A7  1E                 [0817] (-23)
25A8  01                 [0818] (-23)
25A9  00                 [0819] (-23)
25AA  00                 [0820] (-23)
25AB  1E                 [0821] (-23)
25AC  01                 [0822] (-22)
25AD  00                 [0823] (-22)
25AE  00                 [0824] (-22)
25AF  1E                 [0825] (-21)
25B0  01                 [0826] (-21)
25B1  00                 [0827] (-21)
25B2  00                 [0828] (-21)
25B3  1E                 [0829] (-20)
25B4  01                 [0830] (-20)
25B5  00                 [0831] (-20)
25B6  00                 [0832] (-20)
25B7  20                 [0833] (-20)
25B8  01                 [0834] (-19)
25B9  00                 [0835] (-19)
25BA  00                 [0836] (-19)
25BB  20                 [0837] (-19)
25BC  01                 [0838] (-16)
25BD  00                 [0839] (-16)
25BE  00                 [0840] (-16)
25BF  20                 [0841] (-14)
25C0  01                 [0842] (-14)
25C1  00                 [0843] (-14)
25C2  00                 [0844] (-14)
25C3  20                 [0845] (-13)
25C4  01                 [0846] (-13)
25C5  00                 [0847] (-13)
25C6  00                 [0848] (-9)
25C7  20                 [0849] (-9)
25C8  01                 [0850] (-8)
25C9  00                 [0851] (-8)
25CA  00                 [0852] (-8)
25CB  20                 [0853] (-7)
25CC  01                 [0854] (-7)
25CD  00                 [0855] (-7)
25CE  00                 [0856] (-6)
25CF  21                 [0857] (-6)
25D0  01                 [0858] (-6)
25D1  00                 [0859] (-6)
25D2  00                 [0860] (-6)
25D3  21                 [0861] (-5)
25D4  01                 [0862] (-5)
25D5  00                 [0863] (-5)
25D6  00                 [0864] (-5)
25D7  21                 [0865] (-6)
25D8  01                 [0866] (-3)
25D9  00                 [0867] (-3)
25DA  00                 [0868] (-3)
25DB  22                 [0869] (-3)
25DC  01                 [0870] (-2)
25DD  00                 [0871] (-2)
25DE  00                 [0872] (-2)
25DF  22                 [0873] (-2)
25E0  01                 [0874] (-2)
25E1  00                 [0875] (-2)
25E2  00                 [0876] (1)
25E3  22                 [0877] (1)
25E4  01                 [0878] (1)
25E5  00                 [0879] (1)
25E6  00                 [0880] (1)
25E7  22                 [0881] (2)
25E8  01                 [0882] (2)
25E9  00                 [0883] (2)
25EA  00                 [0884] (2)
25EB  22                 [0885] (6)
25EC  01                 [0886] (6)
25ED  00                 [0887] (6)
25EE  00                 [0888] (6)
25EF  22                 [0889] (7)
25F0  01                 [0890] (7)
25F1  00                 [0891] (7)
25F2  00                 [0892] (8)
25F3  22                 [0893] (8)
25F4  01                 [0894] (8)
25F5  00                 [0895] (8)
25F6  00                 [0896] (8)
25F7  22                 [0897] (9)
25F8  01                 [0898] (9)
25F9  00                 [0899] (9)
25FA  00                 [0900] (9)
25FB  22                 [0901] (10)
25FC  01                 [0902] (10)
25FD  00                 [0903] (10)
25FE  00                 [0904] (10)
25FF  22                 [0905] (10)
2600  01                 [0906] (10)
2601  00                 [0907] (10)
2602  00                 [0908] (10)
2603  22                 [0909] (10)
2604  01                 [0910] (10)
2605  00                 [0911] (11)
2606  00                 [0912] (11)
2607  22                 [0913] (11)
2608  01                 [0914] (11)
2609  00                 [0915] (12)
260A  00                 [0916] (12)
260B  23                 [0917] (12)
260C  01                 [0918] (12)
260D  00                 [0919] (14)
260E  00                 [0920] (14)
260F  23                 [0921] (14)
2610  01                 [0922] (18)
2611  00                 [0923] (18)
2612  00                 [0924] (18)
2613  23                 [0925] (18)
2614  01                 [0926] (18)
2615  00                 [0927] (19)
2616  00                 [0928] (19)
2617  23                 [0929] (19)
2618  01                 [0930] (19)
2619  00                 [0931] (22)
261A  00                 [0932] (22)
261B  24                 [0933] (22)
261C  01                 [0934] (22)
261D  00                 [0935] (22)
261E  00                 [0936] (22)
261F  24                 [0937] (22)
2620  01                 [0938] (22)
2621  00                 [0939] (22)
2622  00                 [0940] (22)
2623  24                 [0941] (23)
2624  01                 [0942] (23)
2625  00                 [0943] (23)
2626  00                 [0944] (23)
2627  24                 [0945] (23)
2628  01                 [0946] (25)
2629  00                 [0947] (25)
262A  00                 [0948] (25)
262B  24                 [0949] (25)
262C  01                 [0950] (27)
262D  00                 [0951] (27)
262E  00                 [0952] (27)
262F  24                 [0953] (27)
2630  01                 [0954] (27)
2631  00                 [0955] (28)
2632  00                 [0956] (28)
2633  25                 [0957] (28)
2634  01                 [0958] (28)
2635  00                 [0959] (32)
2636  00                 [0960] (33)
2637  25                 [0961] (33)
2638  01                 [0962] (34)
2639  00                 [0963] (34)
263A  00                 [0964] (34)
263B  25                 [0965] (34)
263C  01                 [0966] (35)
263D  00                 [0967] (35)
263E  00                 [0968] (35)
263F  26                 [0969] (35)
2640  01                 [0970] (38)
2641  00                 [0971] (38)
2642  00                 [0972] (38)
2643  26                 [0973] (38)
2644  01                 [0974] (40)
2645  00                 [0975] (40)
2646  00                 [0976] (40)
2647  26                 [0977] (40)
2648  01                 [0978] (41)
2649  00                 [0979] (41)
264A  00                 [0980] (41)
264B  26                 [0981] (41)
264C  01                 [0982] (45)
264D  00                 [0983] (45)
264E  00                 [0984] (45)
264F  27                 [0985] (45)
2650  01                 [0986] (45)
2651  00                 [0987] (47)
2652  00                 [0988] (47)
2653  27                 [0989] (47)
2654  01                 [0990] (47)
2655  00                 [0991] (47)
2656  00                 [0992] (48)
2657  27                 [0993] (48)
2658  01                 [0994] (48)
2659  00                 [0995] (48)
265A  00                 [0996] (48)
265B  2A                 [0997] (48)
265C  01                 [0998] (48)
265D  00                 [0999] (48)
265E  00                 [1000] (49)
265F  2A                 [1001] (49)
2660  01                 [1002] (49)
2661  00                 [1003] (49)
2662  00                 [1004] (51)
2663  2A                 [1005] (51)
2664  01                 [1006] (51)
2665  00                 [1007] (51)
2666  00                 [1008] (54)
                         * locals:
3237  00                 sizelocvars (0)
                         * upvalues:
3238  00                 sizeupvalues (0)
                         ** end of function **

                         
3239                     ** function [14] definition (level 2)
                         ** start of function **
3239  00                 string size (0)
                         source name: (none)
323B  04                 line defined (568)
323C  C0                 last line defined (576)
323D  04                 nups (0)
323E  00                 numparams (0)
323F  00                 is_vararg (0)
3240  00                 maxstacksize (2)
                         * code:
3242  11                 sizecode (17)
3243  1D000000           [01] getglobal  0   0        ; 1074689893
3247  5D400000           [02] getglobal  1   1        ; disableTrig
324B  22800001           [03] call       0   2   2  
324F  18400000           [04] test       0       1    ; to [6] if false
3253  1A800080           [05] jmp        3            ; to [9]
3257  1D400000           [06] getglobal  0   1        ; disableTrig
325B  24804000           [07] self       0   0   258  ; 766584623
325F  22400001           [08] call       0   2   1  
3263  1D000000           [09] getglobal  0   0        ; 1074689893
3267  5DC00000           [10] getglobal  1   3        ; enableTrig
326B  22800001           [11] call       0   2   2  
326F  18400000           [12] test       0       1    ; to [14] if false
3273  1A800080           [13] jmp        3            ; to [17]
3277  1DC00000           [14] getglobal  0   3        ; enableTrig
327B  24004100           [15] self       0   0   260  ; -974578778
327F  22400001           [16] call       0   2   1  
3283  1E008000           [17] return     0   1      
                         * constants:
3287  05                 sizek (5)
3288  01                 const type 3
3289  65770E40           const [0]: (1074689893)
328D  04                 const type 4
328E  0C                 string size (12)
328F  64697361626C6554+  "disableT"
3297  72696700           "rig\0"
                         const [1]: "disableTrig"
329B  01                 const type 3
329C  2F27B12D           const [2]: (766584623)
32A0  04                 const type 4
32A1  0B                 string size (11)
32A2  656E61626C655472+  "enableTr"
32AA  696700             "ig\0"
                         const [3]: "enableTrig"
32AD  01                 const type 3
32AE  A61BE9C5           const [4]: (-974578778)
                         * functions:
32B2  00                 sizep (0)
                         * lines:
32B3  11                 sizelineinfo (17)
                         [pc] (line)
32B4  39                 [01] (57)
32B5  02                 [02] (57)
32B6  00                 [03] (57)
32B7  00                 [04] (57)
32B8  39                 [05] (57)
32B9  02                 [06] (58)
32BA  00                 [07] (58)
32BB  00                 [08] (58)
32BC  39                 [09] (61)
32BD  02                 [10] (61)
32BE  00                 [11] (61)
32BF  00                 [12] (61)
32C0  39                 [13] (61)
32C1  02                 [14] (62)
32C2  00                 [15] (62)
32C3  00                 [16] (62)
32C4  39                 [17] (64)
                         * locals:
32F8  00                 sizelocvars (0)
                         * upvalues:
32F9  00                 sizeupvalues (0)
                         ** end of function **

                         
32FA                     ** function [15] definition (level 2)
                         ** start of function **
32FA  00                 string size (0)
                         source name: (none)
32FC  04                 line defined (578)
32FD  C4                 last line defined (580)
32FE  04                 nups (0)
32FF  00                 numparams (2)
3300  02                 is_vararg (0)
3301  00                 maxstacksize (8)
                         * code:
3303  0C                 sizecode (12)
3304  9D000000           [01] getglobal  2   0        ; -1817107093
3308  D9400000           [02] loadk      3   1        ; "Dojo: OnTrainingResultUploaded result="
330C  1D810000           [03] getglobal  4   2        ; -1615931716
3310  52010000           [04] move       5   0      
3314  22810001           [05] call       4   2   2  
3318  59C10000           [06] loadk      5   3        ; ", body="
331C  9D810000           [07] getglobal  6   2        ; -1615931716
3320  D2018000           [08] move       7   1      
3324  A2810001           [09] call       6   2   2  
3328  C2808101           [10] concat     3   3   6  
332C  A2400001           [11] call       2   2   1  
3330  1E008000           [12] return     0   1      
                         * constants:
3334  04                 sizek (4)
3335  01                 const type 3
3336  6B25B193           const [0]: (-1817107093)
333A  04                 const type 4
333B  27                 string size (39)
333C  446F6A6F3A204F6E+  "Dojo: On"
3344  547261696E696E67+  "Training"
334C  526573756C745570+  "ResultUp"
3354  6C6F616465642072+  "loaded r"
335C  6573756C743D00     "esult=\0"
                         const [1]: "Dojo: OnTrainingResultUploaded result="
3363  01                 const type 3
3364  BCD6AE9F           const [2]: (-1615931716)
3368  04                 const type 4
3369  08                 string size (8)
336A  2C20626F64793D00   ", body=\0"
                         const [3]: ", body="
                         * functions:
3372  00                 sizep (0)
                         * lines:
3373  0C                 sizelineinfo (12)
                         [pc] (line)
3374  43                 [01] (67)
3375  02                 [02] (67)
3376  00                 [03] (67)
3377  00                 [04] (67)
3378  43                 [05] (67)
3379  02                 [06] (67)
337A  00                 [07] (67)
337B  00                 [08] (67)
337C  43                 [09] (67)
337D  02                 [10] (67)
337E  00                 [11] (67)
337F  00                 [12] (68)
                         * locals:
33A4  00                 sizelocvars (0)
                         * upvalues:
33A5  00                 sizeupvalues (0)
                         ** end of function **

                         
33A6                     ** function [16] definition (level 2)
                         ** start of function **
33A6  00                 string size (0)
                         source name: (none)
33A8  04                 line defined (582)
33A9  EA                 last line defined (618)
33AA  04                 nups (4)
33AB  04                 numparams (1)
33AC  01                 is_vararg (0)
33AD  00                 maxstacksize (13)
                         * code:
33AF  64                 sizecode (100)
33B0  5D000000           [001] getglobal  1   0        ; gRegion
33B4  6440C000           [002] self       1   1   257  ; 1224466847
33B8  62800001           [003] call       1   2   2  
33BC  8E80C000           [004] gettable   2   1   258  ; 0
33C0  A4C04001           [005] self       2   2   259  ; -2135866365
33C4  A2800001           [006] call       2   2   2  
33C8  DD000100           [007] getglobal  3   4        ; gPlayerProfileMgr
33CC  E440C101           [008] self       3   3   261  ; 569342746
33D0  59810100           [009] loadk      5   6        ; 0
33D4  E2808001           [010] call       3   3   2  
33D8  E4C0C101           [011] self       3   3   263  ; 1699680402
33DC  E2800001           [012] call       3   2   2  
33E0  E400C201           [013] self       3   3   264  ; 827662890
33E4  E2800001           [014] call       3   2   2  
33E8  1D410200           [015] getglobal  4   9        ; gGameRules
33EC  24814202           [016] self       4   4   266  ; 1809680017
33F0  97018000           [017] loadbool   6   1   0    ; true
33F4  22418001           [018] call       4   3   1  
33F8  1DC10200           [019] getglobal  4   11       ; 1074689893
33FC  5D010300           [020] getglobal  5   12       ; endcin
3400  22810001           [021] call       4   2   2  
3404  18410000           [022] test       4       1    ; to [24] if false
3408  1AC00080           [023] jmp        4            ; to [28]
340C  1D010300           [024] getglobal  4   12       ; endcin
3410  24414302           [025] self       4   4   269  ; -1923578185
3414  99810300           [026] loadk      6   14       ; "StartPlaying"
3418  22418001           [027] call       4   3   1  
341C  1DC10300           [028] getglobal  4   15       ; 538022378
3420  59010400           [029] loadk      5   16       ; 0
3424  22410001           [030] call       4   2   1  
3428  1DC10200           [031] getglobal  4   11       ; 1074689893
342C  5D010000           [032] getglobal  5   0        ; gRegion
3430  6441C402           [033] self       5   5   273  ; 2066713391
3434  62010001           [034] call       5   2   0  
3438  22810000           [035] call       4   0   2  
343C  18410000           [036] test       4       1    ; to [38] if false
3440  1AC00080           [037] jmp        4            ; to [42]
3444  1DC10300           [038] getglobal  4   15       ; 538022378
3448  59810100           [039] loadk      5   6        ; 0
344C  22410001           [040] call       4   2   1  
3450  1A00FD7F           [041] jmp        -11          ; to [31]
3454  18000000           [042] test       0       0    ; to [44] if true
3458  1AC00980           [043] jmp        40           ; to [84]
345C  1D810400           [044] getglobal  4   18       ; _T
3460  0EC14402           [045] gettable   4   4   275  ; "tutorialActive"
fail op	35
3464  23004502           [046] close      0  
3468  1A400080           [047] jmp        2            ; to [50]
fail op	35
346C  2380C101           [048] close      0  
3470  1A400880           [049] jmp        34           ; to [84]
3474  19810000           [050] loadk      4   2        ; 0
3478  5D810400           [051] getglobal  5   18       ; _T
347C  4EC1C402           [052] gettable   5   5   275  ; "tutorialActive"
fail op	35
3480  2300C502           [053] close      0  
3484  1A000080           [054] jmp        1            ; to [56]
3488  19810100           [055] loadk      4   6        ; 0
348C  5D010100           [056] getglobal  5   4        ; gPlayerProfileMgr
3490  6441C102           [057] self       5   5   261  ; 569342746
3494  D9810100           [058] loadk      7   6        ; 0
3498  62818001           [059] call       5   3   2  
349C  A4C1C102           [060] self       6   5   263  ; 1699680402
34A0  A2810001           [061] call       6   2   2  
34A4  A4414503           [062] self       6   6   277  ; 555194740
34A8  12020002           [063] move       8   4      
34AC  59820500           [064] loadk      9   22       ; "OnTrainingResultUploaded"
34B0  A2410002           [065] call       6   4   1  
34B4  8B010000           [066] newtable   6   0   0    ; array=0, hash=0
34B8  DD010100           [067] getglobal  7   4        ; gPlayerProfileMgr
34BC  E441C103           [068] self       7   7   261  ; 569342746
34C0  59820100           [069] loadk      9   6        ; 0
34C4  E2818001           [070] call       7   3   2  
34C8  E401C603           [071] self       7   7   280  ; 340404473
34CC  E2810001           [072] call       7   2   2  
34D0  8CC1818B           [073] settable   6   279 7    ; "PLAYER_NAME"
34D4  DD410600           [074] getglobal  7   25       ; -421772368
34D8  13020000           [075] getupval   8   0      
34DC  52020003           [076] move       9   6      
34E0  E2818001           [077] call       7   3   2  
34E4  2482C602           [078] self       8   5   282  ; 1814805274
34E8  92028003           [079] move       10  7      
34EC  D9C20600           [080] loadk      11  27       ; " "
34F0  13038000           [081] getupval   12  1      
34F4  82020305           [082] concat     10  10  12 
34F8  22428001           [083] call       8   3   1  
34FC  1D820400           [084] getglobal  8   18       ; _T
3500  0EC24404           [085] gettable   8   8   275  ; "tutorialActive"
3504  18020000           [086] test       8       0    ; to [88] if true
3508  1A800080           [087] jmp        3            ; to [91]
350C  13020001           [088] getupval   8   2      
3510  22428000           [089] call       8   1   1  
3514  1A000280           [090] jmp        9            ; to [100]
3518  1D020700           [091] getglobal  8   28       ; eomDialog
351C  24424304           [092] self       8   8   269  ; -1923578185
3520  99420700           [093] loadk      10  29       ; "Open"
3524  22428001           [094] call       8   3   1  
3528  1DC20300           [095] getglobal  8   15       ; 538022378
352C  59820700           [096] loadk      9   30       ; 0
3530  22420001           [097] call       8   2   1  
3534  13028001           [098] getupval   8   3      
3538  22428000           [099] call       8   1   1  
353C  1E008000           [100] return     0   1      
                         * constants:
3540  1F                 sizek (31)
3541  04                 const type 4
3542  08                 string size (8)
3543  67526567696F6E00   "gRegion\0"
                         const [0]: "gRegion"
354B  01                 const type 3
354C  9FE1FB48           const [1]: (1224466847)
3550  03                 const type 3
3551  0000803F           const [2]: (0)
3555  01                 const type 3
3556  0344B180           const [3]: (-2135866365)
355A  04                 const type 4
355B  12                 string size (18)
355C  67506C6179657250+  "gPlayerP"
3564  726F66696C654D67+  "rofileMg"
356C  7200               "r\0"
                         const [4]: "gPlayerProfileMgr"
356E  01                 const type 3
356F  1A7BEF21           const [5]: (569342746)
3573  03                 const type 3
3574  00000000           const [6]: (0)
3578  01                 const type 3
3579  92104F65           const [7]: (1699680402)
357D  01                 const type 3
357E  2A225531           const [8]: (827662890)
3582  04                 const type 4
3583  0B                 string size (11)
3584  6747616D6552756C+  "gGameRul"
358C  657300             "es\0"
                         const [9]: "gGameRules"
358F  01                 const type 3
3590  9186DD6B           const [10]: (1809680017)
3594  01                 const type 3
3595  65770E40           const [11]: (1074689893)
3599  04                 const type 4
359A  07                 string size (7)
359B  656E6463696E00     "endcin\0"
                         const [12]: "endcin"
35A2  01                 const type 3
35A3  B786588D           const [13]: (-1923578185)
35A7  04                 const type 4
35A8  0D                 string size (13)
35A9  5374617274506C61+  "StartPla"
35B1  79696E6700         "ying\0"
                         const [14]: "StartPlaying"
35B6  01                 const type 3
35B7  EA911120           const [15]: (538022378)
35BB  03                 const type 3
35BC  00000040           const [16]: (0)
35C0  01                 const type 3
35C1  2F8B2F7B           const [17]: (2066713391)
35C5  04                 const type 4
35C6  03                 string size (3)
35C7  5F5400             "_T\0"
                         const [18]: "_T"
35CA  04                 const type 4
35CB  0F                 string size (15)
35CC  7475746F7269616C+  "tutorial"
35D4  41637469766500     "Active\0"
                         const [19]: "tutorialActive"
35DB  01                 const type 3
35DC  01000000           const [20]: (1)
35E0  01                 const type 3
35E1  74991721           const [21]: (555194740)
35E5  04                 const type 4
35E6  19                 string size (25)
35E7  4F6E547261696E69+  "OnTraini"
35EF  6E67526573756C74+  "ngResult"
35F7  55706C6F61646564+  "Uploaded"
35FF  00                 "\0"
                         const [22]: "OnTrainingResultUploaded"
3600  04                 const type 4
3601  0C                 string size (12)
3602  504C415945525F4E+  "PLAYER_N"
360A  414D4500           "AME\0"
                         const [23]: "PLAYER_NAME"
360E  01                 const type 3
360F  F9284A14           const [24]: (340404473)
3613  01                 const type 3
3614  B043DCE6           const [25]: (-421772368)
3618  01                 const type 3
3619  1ABB2B6C           const [26]: (1814805274)
361D  04                 const type 4
361E  02                 string size (2)
361F  2000               " \0"
                         const [27]: " "
3621  04                 const type 4
3622  0A                 string size (10)
3623  656F6D4469616C6F+  "eomDialo"
362B  6700               "g\0"
                         const [28]: "eomDialog"
362D  04                 const type 4
362E  05                 string size (5)
362F  4F70656E00         "Open\0"
                         const [29]: "Open"
3634  03                 const type 3
3635  00004040           const [30]: (0)
                         * functions:
3639  00                 sizep (0)
                         * lines:
363A  64                 sizelineinfo (100)
                         [pc] (line)
363B  47                 [001] (71)
363C  02                 [002] (71)
363D  00                 [003] (71)
363E  00                 [004] (72)
363F  47                 [005] (72)
3640  02                 [006] (72)
3641  00                 [007] (73)
3642  00                 [008] (73)
3643  47                 [009] (73)
3644  02                 [010] (73)
3645  00                 [011] (73)
3646  00                 [012] (73)
3647  48                 [013] (73)
3648  02                 [014] (73)
3649  00                 [015] (75)
364A  00                 [016] (75)
364B  48                 [017] (75)
364C  02                 [018] (75)
364D  00                 [019] (77)
364E  00                 [020] (77)
364F  48                 [021] (77)
3650  02                 [022] (77)
3651  00                 [023] (77)
3652  00                 [024] (78)
3653  49                 [025] (78)
3654  02                 [026] (78)
3655  00                 [027] (78)
3656  00                 [028] (80)
3657  49                 [029] (80)
3658  02                 [030] (80)
3659  00                 [031] (82)
365A  00                 [032] (82)
365B  49                 [033] (82)
365C  02                 [034] (82)
365D  00                 [035] (82)
365E  00                 [036] (82)
365F  49                 [037] (82)
3660  02                 [038] (83)
3661  00                 [039] (83)
3662  00                 [040] (83)
3663  49                 [041] (83)
3664  02                 [042] (86)
3665  00                 [043] (86)
3666  00                 [044] (86)
3667  49                 [045] (86)
3668  02                 [046] (86)
3669  00                 [047] (86)
366A  00                 [048] (86)
366B  49                 [049] (86)
366C  02                 [050] (87)
366D  00                 [051] (88)
366E  00                 [052] (88)
366F  49                 [053] (88)
3670  02                 [054] (88)
3671  00                 [055] (89)
3672  00                 [056] (91)
3673  4B                 [057] (91)
3674  02                 [058] (91)
3675  00                 [059] (91)
3676  00                 [060] (92)
3677  4B                 [061] (92)
3678  02                 [062] (92)
3679  00                 [063] (92)
367A  00                 [064] (92)
367B  4B                 [065] (92)
367C  02                 [066] (93)
367D  00                 [067] (94)
367E  00                 [068] (94)
367F  4B                 [069] (94)
3680  02                 [070] (94)
3681  00                 [071] (94)
3682  00                 [072] (94)
3683  4D                 [073] (94)
3684  02                 [074] (95)
3685  00                 [075] (95)
3686  00                 [076] (95)
3687  4D                 [077] (95)
3688  02                 [078] (96)
3689  00                 [079] (96)
368A  00                 [080] (96)
368B  4D                 [081] (96)
368C  02                 [082] (96)
368D  00                 [083] (96)
368E  00                 [084] (99)
368F  4D                 [085] (99)
3690  02                 [086] (99)
3691  00                 [087] (99)
3692  00                 [088] (100)
3693  4D                 [089] (100)
3694  02                 [090] (100)
3695  00                 [091] (102)
3696  00                 [092] (102)
3697  4E                 [093] (102)
3698  02                 [094] (102)
3699  00                 [095] (103)
369A  00                 [096] (103)
369B  4E                 [097] (103)
369C  02                 [098] (104)
369D  00                 [099] (104)
369E  00                 [100] (106)
                         * locals:
37CB  00                 sizelocvars (0)
                         * upvalues:
37CC  00                 sizeupvalues (0)
                         ** end of function **

                         
37CD                     ** function [17] definition (level 2)
                         ** start of function **
37CD  00                 string size (0)
                         source name: (none)
37CF  04                 line defined (620)
37D0  EE                 last line defined (622)
37D1  04                 nups (1)
37D2  01                 numparams (0)
37D3  00                 is_vararg (0)
37D4  00                 maxstacksize (2)
                         * code:
37D6  04                 sizecode (4)
37D7  13000000           [1] getupval   0   0      
37DB  57008000           [2] loadbool   1   1   0    ; true
37DF  22400001           [3] call       0   2   1  
37E3  1E008000           [4] return     0   1      
                         * constants:
37E7  00                 sizek (0)
                         * functions:
37E8  00                 sizep (0)
                         * lines:
37E9  04                 sizelineinfo (4)
                         [pc] (line)
37EA  6D                 [1] (109)
37EB  02                 [2] (109)
37EC  00                 [3] (109)
37ED  00                 [4] (110)
                         * locals:
37FA  00                 sizelocvars (0)
                         * upvalues:
37FB  00                 sizeupvalues (0)
                         ** end of function **

                         
37FC                     ** function [18] definition (level 2)
                         ** start of function **
37FC  00                 string size (0)
                         source name: (none)
37FE  04                 line defined (624)
37FF  F2                 last line defined (626)
3800  04                 nups (1)
3801  01                 numparams (0)
3802  00                 is_vararg (0)
3803  00                 maxstacksize (2)
                         * code:
3805  04                 sizecode (4)
3806  13000000           [1] getupval   0   0      
380A  57000000           [2] loadbool   1   0   0    ; false
380E  22400001           [3] call       0   2   1  
3812  1E008000           [4] return     0   1      
                         * constants:
3816  00                 sizek (0)
                         * functions:
3817  00                 sizep (0)
                         * lines:
3818  04                 sizelineinfo (4)
                         [pc] (line)
3819  71                 [1] (113)
381A  02                 [2] (113)
381B  00                 [3] (113)
381C  00                 [4] (114)
                         * locals:
3829  00                 sizelocvars (0)
                         * upvalues:
382A  00                 sizeupvalues (0)
                         ** end of function **

                         
382B                     ** function [19] definition (level 2)
                         ** start of function **
382B  00                 string size (0)
                         source name: (none)
382D  04                 line defined (628)
382E  FB                 last line defined (635)
382F  04                 nups (0)
3830  00                 numparams (0)
3831  00                 is_vararg (0)
3832  00                 maxstacksize (11)
                         * code:
3834  1F                 sizecode (31)
3835  1D000000           [01] getglobal  0   0        ; gRegion
3839  24404000           [02] self       0   0   257  ; 1224466847
383D  22800001           [03] call       0   2   2  
3841  4E804000           [04] gettable   1   0   258  ; 0
3845  64C0C000           [05] self       1   1   259  ; -2135866365
3849  62800001           [06] call       1   2   2  
384D  9D000000           [07] getglobal  2   0        ; gRegion
3851  A4004101           [08] self       2   2   260  ; -138297819
3855  A2800001           [09] call       2   2   2  
3859  E4404101           [10] self       3   2   261  ; -1421644046
385D  5D810100           [11] getglobal  5   6        ; dojoFX
3861  9DC10100           [12] getglobal  6   7        ; EMPTY_SYMBOL
3865  DD010200           [13] getglobal  7   8        ; 572299008
3869  19420200           [14] loadk      8   9        ; 0
386D  59820200           [15] loadk      9   10       ; 0
3871  99420200           [16] loadk      10  9        ; 0
3875  E2010002           [17] call       7   4   0  
3879  E2400000           [18] call       3   0   1  
387D  DDC00200           [19] getglobal  3   11       ; 538022378
3881  19810000           [20] loadk      4   2        ; 0
3885  E2400001           [21] call       3   2   1  
3889  E400C300           [22] self       3   1   268  ; -2037488534
388D  5D410300           [23] getglobal  5   13       ; StandAnim
3891  97018000           [24] loadbool   6   1   0    ; true
3895  DD810300           [25] getglobal  7   14       ; Engine
3899  CEC1C303           [26] gettable   7   7   271  ; "ATMM_PHYSICS_DRIVEN"
389D  1D820300           [27] getglobal  8   14       ; Engine
38A1  0E024404           [28] gettable   8   8   272  ; "PRT_ONCE"
38A5  57028000           [29] loadbool   9   1   0    ; true
38A9  E2408003           [30] call       3   7   1  
38AD  1E008000           [31] return     0   1      
                         * constants:
38B1  11                 sizek (17)
38B2  04                 const type 4
38B3  08                 string size (8)
38B4  67526567696F6E00   "gRegion\0"
                         const [0]: "gRegion"
38BC  01                 const type 3
38BD  9FE1FB48           const [1]: (1224466847)
38C1  03                 const type 3
38C2  0000803F           const [2]: (0)
38C6  01                 const type 3
38C7  0344B180           const [3]: (-2135866365)
38CB  01                 const type 3
38CC  25BEC1F7           const [4]: (-138297819)
38D0  01                 const type 3
38D1  F26E43AB           const [5]: (-1421644046)
38D5  04                 const type 4
38D6  07                 string size (7)
38D7  646F6A6F465800     "dojoFX\0"
                         const [6]: "dojoFX"
38DE  04                 const type 4
38DF  0D                 string size (13)
38E0  454D5054595F5359+  "EMPTY_SY"
38E8  4D424F4C00         "MBOL\0"
                         const [7]: "EMPTY_SYMBOL"
38ED  01                 const type 3
38EE  00971C22           const [8]: (572299008)
38F2  03                 const type 3
38F3  00000000           const [9]: (0)
38F7  03                 const type 3
38F8  000000BF           const [10]: (0)
38FC  01                 const type 3
38FD  EA911120           const [11]: (538022378)
3901  01                 const type 3
3902  6A648E86           const [12]: (-2037488534)
3906  04                 const type 4
3907  0A                 string size (10)
3908  5374616E64416E69+  "StandAni"
3910  6D00               "m\0"
                         const [13]: "StandAnim"
3912  04                 const type 4
3913  07                 string size (7)
3914  456E67696E6500     "Engine\0"
                         const [14]: "Engine"
391B  04                 const type 4
391C  14                 string size (20)
391D  41544D4D5F504859+  "ATMM_PHY"
3925  534943535F445249+  "SICS_DRI"
392D  56454E00           "VEN\0"
                         const [15]: "ATMM_PHYSICS_DRIVEN"
3931  04                 const type 4
3932  09                 string size (9)
3933  5052545F4F4E4345+  "PRT_ONCE"
393B  00                 "\0"
                         const [16]: "PRT_ONCE"
                         * functions:
393C  00                 sizep (0)
                         * lines:
393D  1F                 sizelineinfo (31)
                         [pc] (line)
393E  75                 [01] (117)
393F  02                 [02] (117)
3940  00                 [03] (117)
3941  00                 [04] (118)
3942  75                 [05] (118)
3943  02                 [06] (118)
3944  00                 [07] (119)
3945  00                 [08] (119)
3946  75                 [09] (119)
3947  02                 [10] (120)
3948  00                 [11] (120)
3949  00                 [12] (120)
394A  76                 [13] (120)
394B  02                 [14] (120)
394C  00                 [15] (120)
394D  00                 [16] (120)
394E  76                 [17] (120)
394F  02                 [18] (120)
3950  00                 [19] (121)
3951  00                 [20] (121)
3952  76                 [21] (121)
3953  02                 [22] (122)
3954  00                 [23] (122)
3955  00                 [24] (122)
3956  77                 [25] (122)
3957  02                 [26] (122)
3958  00                 [27] (122)
3959  00                 [28] (122)
395A  77                 [29] (122)
395B  02                 [30] (122)
395C  00                 [31] (123)
                         * locals:
39BA  00                 sizelocvars (0)
                         * upvalues:
39BB  00                 sizeupvalues (0)
                         ** end of function **

                         * lines:
39BC  42                 sizelineinfo (66)
                         [pc] (line)
39BD  37                 [01] (55)
39BE  00                 [02] (55)
39BF  00                 [03] (55)
39C0  00                 [04] (56)
39C1  37                 [05] (56)
39C2  00                 [06] (56)
39C3  00                 [07] (58)
39C4  00                 [08] (59)
39C5  37                 [09] (59)
39C6  00                 [10] (59)
39C7  00                 [11] (59)
39C8  00                 [12] (63)
39C9  38                 [13] (67)
39CA  00                 [14] (76)
39CB  00                 [15] (85)
39CC  00                 [16] (107)
39CD  38                 [17] (123)
39CE  00                 [18] (123)
39CF  00                 [19] (-119)
39D0  00                 [20] (-119)
39D1  38                 [21] (-114)
39D2  00                 [22] (-114)
39D3  00                 [23] (-114)
39D4  00                 [24] (-117)
39D5  3A                 [25] (-102)
39D6  00                 [26] (-102)
39D7  00                 [27] (-112)
39D8  00                 [28] (-83)
39D9  3B                 [29] (-83)
39DA  00                 [30] (-100)
39DB  00                 [31] (-71)
39DC  00                 [32] (-64)
39DD  3B                 [33] (-58)
39DE  00                 [34] (-58)
39DF  00                 [35] (54)
39E0  00                 [36] (54)
39E1  3B                 [37] (54)
39E2  00                 [38] (54)
39E3  00                 [39] (54)
39E4  00                 [40] (54)
39E5  3B                 [41] (54)
39E6  00                 [42] (54)
39E7  00                 [43] (-56)
39E8  00                 [44] (64)
39E9  3F                 [45] (64)
39EA  00                 [46] (56)
39EB  00                 [47] (68)
39EC  00                 [48] (68)
39ED  43                 [49] (66)
39EE  00                 [50] (106)
39EF  00                 [51] (106)
39F0  00                 [52] (106)
39F1  4C                 [53] (106)
39F2  00                 [54] (106)
39F3  00                 [55] (110)
39F4  00                 [56] (110)
39F5  55                 [57] (110)
39F6  00                 [58] (108)
39F7  00                 [59] (114)
39F8  00                 [60] (114)
39F9  6B                 [61] (114)
39FA  00                 [62] (112)
39FB  00                 [63] (123)
39FC  00                 [64] (123)
39FD  7B                 [65] (116)
39FE  00                 [66] (123)
                         * locals:
3AC5  00                 sizelocvars (0)
                         * upvalues:
3AC6  00                 sizeupvalues (0)
                         ** end of function **

3AC7                     ** end of chunk **
