1	C:\wlua_dump\path\Lotus\ScriptsPanicButton.lua
Pos   Hex Data           Description or Code
------------------------------------------------------------------------
0000                     ** source chunk: C:\wlua_dump\path\Lotus\ScriptsPanicButton.lua
                         ** global header start **
0000  7F                 header signature: ""
0001  00                 version (major:minor hex digits)
0002  00                 format (0=official)
0003  00                 endianness (1=little endian)
0004  00                 size of int (bytes)
0005  00                 size of size_t (bytes)
0006  02                 size of Instruction (bytes)
0007  12                 size of number (bytes)
0008  62                 integral (1=integral)
498
                         * number type: single
                         * x86 standard (32-bit, little endian, doubles)
                         ** global header end **
Lotus.Scripts.Libs.PanicLib
Lotus.Scripts.Libs.CommonGamemodeFunctions
SecurityLevel
EmissiveTintColor
EmissiveTintColorHi
EmissiveTintColorLo
ShutterShake
CinShutterShake
RandomizeGlass
RaiseLevelAlertState
PanicButton
PanicButtonFortress
OnAvatarEnterBreach
OnAvatarLeaveBreach
HullBreach
GenericHackPanel
GenericHackPanelMultiDecos
DoorControl
CinHullBreach
Purge
GetPanicButtonActionText
PanicButtonMasterScript
Activate shutters
shutters
PlayTriggeredAnim
Engine
baseAmount
Game
PT_STAGGERED
TORSO
gRegion
LightFixtureTemplate
Lotus_Game
EMISSIVE_MAP_ATTEN
gRegion
postProcess
shakeSound
viewShake
mShakeAmbient
gRegion
postProcess
shakeSound
viewShake
mShakeAmbient
gPromotedToHost
_T
FxLayer
Ice
Fire
Infested
faction
RedVeil
glassPanes
Spawn
MaterialSwitch
Make invulnerable
gRegion
avatarType
triggerZoneObjectTags
table
Could not find objects with tag 
_T
DeactivatedBreachZone
CurrentBreachZone
coneType
Hide
Show
ClearMaterialSwitch
GreenFlareType
RedFlareType
laserScanType
Disable
Enable
grineerBeamLargeType
laserSound
gRegion
gZoneAttribsType
FlyIn
gRegion
playerAvatar
_T
SecurityOff
SecurityOn
TriggerPort
FortressCameras
SleepState
gRegion
alarmBank
gRegion
alarmBank
SecurityOn
HBColorCorrection
occlusionFilter
mixerArray
fadeInTime
filterAmount
HBColorCorrection
mixerArray
occlusionFilter
fadeOutTime
filterAmount
HullBreach()
_T
canClearHullBreach
gRegion
wait
LOCKDOWN
shakeScript
Execute
enterBreachSound
Fire
Destroy
Engine
DT_CINEMATIC
TORSO
Hull breach done
leaveBreachSound
HullBreach
Disable
UNALERT
buttonPortForwarder
TriggerPort
disableOnUse
buttonLight
buttonScreen
materialSlot
buttonScreenOff
Disable
failedPortFowarder
gGameRules
sortieId

buttonPortForwarder
TriggerPort
disableOnUse
buttonLight
decorationsToMaterialSwap
materialSlots
materialsToSwap
Disable
failedPortFowarder
gGameRules
sortieId

screenType
materialSlot
buttonScreenOff
Disable
successForwarder
TriggerPort
HullBreach()
_T
canClearHullBreach
gRegion
avatarType
shakeScript
Execute
enterBreachSound
Hull breach done
firePortTag
firePortName
gRegion
gLisetDecorationType
PurgeFlashTint
red
green
blue
postProcess
lightMapTint
PurgeTint
lightMapBoost
gRegion
/Lotus/Language/Actions/HackSystem
/Lotus/Language/Actions/HackAlarms
gRegion
PanicButton
tag
CorpusPanicDeco
lockdownMats
onMaterialsCorpus
alertMats
alertMaterialsCorpus
offMats
offMaterialsCorpus
GrineerPanicDeco
onMaterialsGrineer
alertMaterialsGrineer
offMaterialsGrineer
gDecorationType
LOCKDOWN
ALERT
                         
0001                     ** function [0] definition (level 1)
                         ** start of function **
0001  00                 string size (0)
                         source name: (none)
0002  00                 line defined (0)
0003  00                 last line defined (0)
0004  00                 nups (0)
0005  00                 numparams (0)
0006  02                 is_vararg (2)
0007  12                 maxstacksize (18)
                         * code:
0008  62                 sizecode (98)
0009  19000000           [01] loadk      0   0        ; 0
000D  59400000           [02] loadk      1   1        ; 51
0011  99400000           [03] loadk      2   1        ; 51
0015  D9800000           [04] loadk      3   2        ; -51
0019  1DC10000           [05] getglobal  4   3        ; 849075268
001D  59010100           [06] loadk      5   4        ; "Lotus.Scripts.Libs.PanicLib"
0021  22810001           [07] call       4   2   2  
0025  5DC10000           [08] getglobal  5   3        ; 849075268
0029  99410100           [09] loadk      6   5        ; "Lotus.Scripts.Libs.CommonGamemodeFunctions"
002D  62810001           [10] call       5   2   2  
0031  9D810100           [11] getglobal  6   6        ; -332969190
0035  D9C10100           [12] loadk      7   7        ; "SecurityLevel"
0039  A2810001           [13] call       6   2   2  
003D  DD810100           [14] getglobal  7   6        ; -332969190
0041  19020200           [15] loadk      8   8        ; "EmissiveTintColor"
0045  E2810001           [16] call       7   2   2  
0049  1D820100           [17] getglobal  8   6        ; -332969190
004D  59420200           [18] loadk      9   9        ; "EmissiveTintColorHi"
0051  22820001           [19] call       8   2   2  
0055  5D820100           [20] getglobal  9   6        ; -332969190
0059  99820200           [21] loadk      10  10       ; "EmissiveTintColorLo"
005D  62820001           [22] call       9   2   2  
0061  A5020000           [23] closure    10  0      
0065  E5420000           [24] closure    11  1      
0069  25830000           [25] closure    12  2      
006D  65C30000           [26] closure    13  3      
0071  60C30200           [27] setglobal  13  11       ; ShutterShake
0075  60030300           [28] setglobal  13  12       ; 972196623
0079  65030100           [29] closure    13  4      
007D  60430300           [30] setglobal  13  13       ; CinShutterShake
0081  60830300           [31] setglobal  13  14       ; 2067185817
0085  65430100           [32] closure    13  5      
0089  12000000           [33] move       0   0      
008D  12000001           [34] move       0   2      
0091  12008000           [35] move       0   1      
0095  12008001           [36] move       0   3      
0099  60C30300           [37] setglobal  13  15       ; RandomizeGlass
009D  60030400           [38] setglobal  13  16       ; 2009373978
00A1  65830100           [39] closure    13  6      
00A5  A5C30100           [40] closure    14  7      
00A9  A0430400           [41] setglobal  14  17       ; RaiseLevelAlertState
00AD  A0830400           [42] setglobal  14  18       ; 456386794
00B1  A5030200           [43] closure    14  8      
00B5  E5430200           [44] closure    15  9      
00B9  25840200           [45] closure    16  10     
00BD  12000003           [46] move       0   6      
00C1  12008007           [47] move       0   15     
00C5  12000007           [48] move       0   14     
00C9  65C40200           [49] closure    17  11     
00CD  12000002           [50] move       0   4      
00D1  60C40400           [51] setglobal  17  19       ; PanicButton
00D5  60040500           [52] setglobal  17  20       ; 116437679
00D9  65040300           [53] closure    17  12     
00DD  12000002           [54] move       0   4      
00E1  12000008           [55] move       0   16     
00E5  60440500           [56] setglobal  17  21       ; PanicButtonFortress
00E9  60840500           [57] setglobal  17  22       ; 290876637
00ED  65440300           [58] closure    17  13     
00F1  60C40500           [59] setglobal  17  23       ; OnAvatarEnterBreach
00F5  60040600           [60] setglobal  17  24       ; 251187953
00F9  65840300           [61] closure    17  14     
00FD  60440600           [62] setglobal  17  25       ; OnAvatarLeaveBreach
0101  60840600           [63] setglobal  17  26       ; -526658887
0105  65C40300           [64] closure    17  15     
0109  12008006           [65] move       0   13     
010D  12008005           [66] move       0   11     
0111  12000002           [67] move       0   4      
0115  12000006           [68] move       0   12     
0119  12000005           [69] move       0   10     
011D  60C40600           [70] setglobal  17  27       ; HullBreach
0121  60040700           [71] setglobal  17  28       ; -1474854977
0125  65040400           [72] closure    17  16     
0129  60440700           [73] setglobal  17  29       ; GenericHackPanel
012D  60840700           [74] setglobal  17  30       ; -1919591367
0131  65440400           [75] closure    17  17     
0135  60C40700           [76] setglobal  17  31       ; GenericHackPanelMultiDecos
0139  60040800           [77] setglobal  17  32       ; -18821221
013D  65840400           [78] closure    17  18     
0141  60440800           [79] setglobal  17  33       ; DoorControl
0145  60840800           [80] setglobal  17  34       ; -948710630
0149  65C40400           [81] closure    17  19     
014D  60C40800           [82] setglobal  17  35       ; CinHullBreach
0151  60040900           [83] setglobal  17  36       ; -98925151
0155  65040500           [84] closure    17  20     
0159  12008002           [85] move       0   5      
015D  12008003           [86] move       0   7      
0161  12000004           [87] move       0   8      
0165  12008004           [88] move       0   9      
0169  60440900           [89] setglobal  17  37       ; Purge
016D  60840900           [90] setglobal  17  38       ; 1554728860
0171  65440500           [91] closure    17  21     
0175  60C40900           [92] setglobal  17  39       ; GetPanicButtonActionText
0179  60040A00           [93] setglobal  17  40       ; -880889225
017D  65840500           [94] closure    17  22     
0181  12000002           [95] move       0   4      
0185  60440A00           [96] setglobal  17  41       ; PanicButtonMasterScript
0189  60840A00           [97] setglobal  17  42       ; 201000988
018D  1E008000           [98] return     0   1      
                         * constants:
0191  2B                 sizek (43)
0192  03                 const type 3
0193  0000803E           const [0]: (0)
0197  03                 const type 3
0198  3333B33E           const [1]: (51)
019C  03                 const type 3
019D  CDCCCC3E           const [2]: (-51)
01A1  01                 const type 3
01A2  44DC9B32           const [3]: (849075268)
01A6  04                 const type 4
01A7  1C                 string size (28)
01A8  4C6F7475732E5363+  "Lotus.Sc"
01B0  72697074732E4C69+  "ripts.Li"
01B8  62732E50616E6963+  "bs.Panic"
01C0  4C696200           "Lib\0"
                         const [4]: "Lotus.Scripts.Libs.PanicLib"
01C4  04                 const type 4
01C5  2B                 string size (43)
01C6  4C6F7475732E5363+  "Lotus.Sc"
01CE  72697074732E4C69+  "ripts.Li"
01D6  62732E436F6D6D6F+  "bs.Commo"
01DE  6E47616D656D6F64+  "nGamemod"
01E6  6546756E6374696F+  "eFunctio"
01EE  6E7300             "ns\0"
                         const [5]: "Lotus.Scripts.Libs.CommonGamemodeFunctions"
01F1  01                 const type 3
01F2  1A4B27EC           const [6]: (-332969190)
01F6  04                 const type 4
01F7  0E                 string size (14)
01F8  5365637572697479+  "Security"
0200  4C6576656C00       "Level\0"
                         const [7]: "SecurityLevel"
0206  04                 const type 4
0207  12                 string size (18)
0208  456D697373697665+  "Emissive"
0210  54696E74436F6C6F+  "TintColo"
0218  7200               "r\0"
                         const [8]: "EmissiveTintColor"
021A  04                 const type 4
021B  14                 string size (20)
021C  456D697373697665+  "Emissive"
0224  54696E74436F6C6F+  "TintColo"
022C  72486900           "rHi\0"
                         const [9]: "EmissiveTintColorHi"
0230  04                 const type 4
0231  14                 string size (20)
0232  456D697373697665+  "Emissive"
023A  54696E74436F6C6F+  "TintColo"
0242  724C6F00           "rLo\0"
                         const [10]: "EmissiveTintColorLo"
0246  04                 const type 4
0247  0D                 string size (13)
0248  5368757474657253+  "ShutterS"
0250  68616B6500         "hake\0"
                         const [11]: "ShutterShake"
0255  01                 const type 3
0256  0F8BF239           const [12]: (972196623)
025A  04                 const type 4
025B  10                 string size (16)
025C  43696E5368757474+  "CinShutt"
0264  65725368616B6500   "erShake\0"
                         const [13]: "CinShutterShake"
026C  01                 const type 3
026D  99C0367B           const [14]: (2067185817)
0271  04                 const type 4
0272  0F                 string size (15)
0273  52616E646F6D697A+  "Randomiz"
027B  65476C61737300     "eGlass\0"
                         const [15]: "RandomizeGlass"
0282  01                 const type 3
0283  1A9DC477           const [16]: (2009373978)
0287  04                 const type 4
0288  15                 string size (21)
0289  52616973654C6576+  "RaiseLev"
0291  656C416C65727453+  "elAlertS"
0299  7461746500         "tate\0"
                         const [17]: "RaiseLevelAlertState"
029E  01                 const type 3
029F  EAE8331B           const [18]: (456386794)
02A3  04                 const type 4
02A4  0C                 string size (12)
02A5  50616E6963427574+  "PanicBut"
02AD  746F6E00           "ton\0"
                         const [19]: "PanicButton"
02B1  01                 const type 3
02B2  AFB2F006           const [20]: (116437679)
02B6  04                 const type 4
02B7  14                 string size (20)
02B8  50616E6963427574+  "PanicBut"
02C0  746F6E466F727472+  "tonFortr"
02C8  65737300           "ess\0"
                         const [21]: "PanicButtonFortress"
02CC  01                 const type 3
02CD  DD6C5611           const [22]: (290876637)
02D1  04                 const type 4
02D2  14                 string size (20)
02D3  4F6E417661746172+  "OnAvatar"
02DB  456E746572427265+  "EnterBre"
02E3  61636800           "ach\0"
                         const [23]: "OnAvatarEnterBreach"
02E7  01                 const type 3
02E8  F1D2F80E           const [24]: (251187953)
02EC  04                 const type 4
02ED  14                 string size (20)
02EE  4F6E417661746172+  "OnAvatar"
02F6  4C65617665427265+  "LeaveBre"
02FE  61636800           "ach\0"
                         const [25]: "OnAvatarLeaveBreach"
0302  01                 const type 3
0303  B9D29BE0           const [26]: (-526658887)
0307  04                 const type 4
0308  0B                 string size (11)
0309  48756C6C42726561+  "HullBrea"
0311  636800             "ch\0"
                         const [27]: "HullBreach"
0314  01                 const type 3
0315  BF7F17A8           const [28]: (-1474854977)
0319  04                 const type 4
031A  11                 string size (17)
031B  47656E6572696348+  "GenericH"
0323  61636B50616E656C+  "ackPanel"
032B  00                 "\0"
                         const [29]: "GenericHackPanel"
032C  01                 const type 3
032D  395C958D           const [30]: (-1919591367)
0331  04                 const type 4
0332  1B                 string size (27)
0333  47656E6572696348+  "GenericH"
033B  61636B50616E656C+  "ackPanel"
0343  4D756C7469446563+  "MultiDec"
034B  6F7300             "os\0"
                         const [31]: "GenericHackPanelMultiDecos"
034E  01                 const type 3
034F  9BCFE0FE           const [32]: (-18821221)
0353  04                 const type 4
0354  0C                 string size (12)
0355  446F6F72436F6E74+  "DoorCont"
035D  726F6C00           "rol\0"
                         const [33]: "DoorControl"
0361  01                 const type 3
0362  1AD373C7           const [34]: (-948710630)
0366  04                 const type 4
0367  0E                 string size (14)
0368  43696E48756C6C42+  "CinHullB"
0370  726561636800       "reach\0"
                         const [35]: "CinHullBreach"
0376  01                 const type 3
0377  A1851AFA           const [36]: (-98925151)
037B  04                 const type 4
037C  06                 string size (6)
037D  507572676500       "Purge\0"
                         const [37]: "Purge"
0383  01                 const type 3
0384  9C47AB5C           const [38]: (1554728860)
0388  04                 const type 4
0389  19                 string size (25)
038A  47657450616E6963+  "GetPanic"
0392  427574746F6E4163+  "ButtonAc"
039A  74696F6E54657874+  "tionText"
03A2  00                 "\0"
                         const [39]: "GetPanicButtonActionText"
03A3  01                 const type 3
03A4  77B27ECB           const [40]: (-880889225)
03A8  04                 const type 4
03A9  18                 string size (24)
03AA  50616E6963427574+  "PanicBut"
03B2  746F6E4D61737465+  "tonMaste"
03BA  7253637269707400   "rScript\0"
                         const [41]: "PanicButtonMasterScript"
03C2  01                 const type 3
03C3  1C08FB0B           const [42]: (201000988)
                         * functions:
03C7  17                 sizep (23)
                         
03C8                     ** function [0] definition (level 2)
                         ** start of function **
03C8  00                 string size (0)
                         source name: (none)
03C9  65                 line defined (101)
03CA  6D                 last line defined (109)
03CB  00                 nups (0)
03CC  00                 numparams (0)
03CD  00                 is_vararg (0)
03CE  08                 maxstacksize (8)
                         * code:
03CF  15                 sizecode (21)
03D0  1D000000           [01] getglobal  0   0        ; -1817107093
03D4  59400000           [02] loadk      1   1        ; "Activate shutters"
03D8  22400001           [03] call       0   2   1  
03DC  1D800000           [04] getglobal  0   2        ; 1672515847
03E0  5DC00000           [05] getglobal  1   3        ; shutters
03E4  22000101           [06] call       0   2   4  
03E8  1AC00180           [07] jmp        8            ; to [16]
03EC  5D010100           [08] getglobal  5   4        ; 1074689893
03F0  92010002           [09] move       6   4      
03F4  62810001           [10] call       5   2   2  
03F8  58410000           [11] test       5       1    ; to [13] if false
03FC  1A800080           [12] jmp        3            ; to [16]
0400  64414102           [13] self       5   4   261  ; -1923578185
0404  D9810100           [14] loadk      7   6        ; "PlayTriggeredAnim"
0408  62418001           [15] call       5   3   1  
040C  16800000           [16] tforloop   0       2    ; to [18] if exit
0410  1A40FD7F           [17] jmp        -10          ; to [8]
0414  5DC10100           [18] getglobal  5   7        ; 538022378
0418  99010200           [19] loadk      6   8        ; 0
041C  62410001           [20] call       5   2   1  
0420  1E008000           [21] return     0   1      
                         * constants:
0424  09                 sizek (9)
0425  01                 const type 3
0426  6B25B193           const [0]: (-1817107093)
042A  04                 const type 4
042B  12                 string size (18)
042C  4163746976617465+  "Activate"
0434  2073687574746572+  " shutter"
043C  7300               "s\0"
                         const [1]: "Activate shutters"
043E  01                 const type 3
043F  0791B063           const [2]: (1672515847)
0443  04                 const type 4
0444  09                 string size (9)
0445  7368757474657273+  "shutters"
044D  00                 "\0"
                         const [3]: "shutters"
044E  01                 const type 3
044F  65770E40           const [4]: (1074689893)
0453  01                 const type 3
0454  B786588D           const [5]: (-1923578185)
0458  04                 const type 4
0459  12                 string size (18)
045A  506C617954726967+  "PlayTrig"
0462  6765726564416E69+  "geredAni"
046A  6D00               "m\0"
                         const [6]: "PlayTriggeredAnim"
046C  01                 const type 3
046D  EA911120           const [7]: (538022378)
0471  03                 const type 3
0472  00008040           const [8]: (0)
                         * functions:
0476  00                 sizep (0)
                         * lines:
0477  15                 sizelineinfo (21)
                         [pc] (line)
0478  66                 [01] (102)
0479  00                 [02] (102)
047A  00                 [03] (102)
047B  00                 [04] (103)
047C  66                 [05] (103)
047D  00                 [06] (103)
047E  00                 [07] (103)
047F  00                 [08] (104)
0480  66                 [09] (104)
0481  00                 [10] (104)
0482  00                 [11] (104)
0483  00                 [12] (104)
0484  67                 [13] (105)
0485  00                 [14] (105)
0486  00                 [15] (105)
0487  00                 [16] (103)
0488  67                 [17] (106)
0489  00                 [18] (108)
048A  00                 [19] (108)
048B  00                 [20] (108)
048C  67                 [21] (109)
                         * locals:
04CC  00                 sizelocvars (0)
                         * upvalues:
04CD  00                 sizeupvalues (0)
                         ** end of function **

                         
04CE                     ** function [1] definition (level 2)
                         ** start of function **
04CE  00                 string size (0)
                         source name: (none)
04CF  6F                 line defined (111)
04D0  81                 last line defined (129)
04D1  01                 nups (0)
04D2  00                 numparams (2)
04D3  02                 is_vararg (0)
04D4  00                 maxstacksize (13)
                         * code:
04D6  2D                 sizecode (45)
04D7  9D000000           [01] getglobal  2   0        ; 1074689893
04DB  D2008000           [02] move       3   1      
04DF  A2800001           [03] call       2   2   2  
04E3  98400000           [04] test       2       1    ; to [6] if false
04E7  1A800980           [05] jmp        39           ; to [45]
04EB  99400000           [06] loadk      2   1        ; 0
04EF  CA008000           [07] len        3   1      
04F3  19410000           [08] loadk      4   1        ; 0
04F7  90400880           [09] forprep    2   34       ; to [44]
04FB  8E418100           [10] gettable   6   1   5  
04FF  E4814000           [11] self       7   0   258  ; 1839670529
0503  E2810001           [12] call       7   2   2  
0507  24824003           [13] self       8   6   258  ; 1839670529
050B  22820001           [14] call       8   2   2  
050F  CD018203           [15] sub        7   7   8  
0513  1DC20000           [16] getglobal  8   3        ; 1166235580
0517  52028003           [17] move       9   7      
051B  22420001           [18] call       8   2   1  
051F  1D020100           [19] getglobal  8   4        ; Engine
0523  0E424104           [20] gettable   8   8   261  ; -98643418
0527  22828000           [21] call       8   1   2  
052B  0C424083           [22] settable   8   262 257  ; "baseAmount" 0
052F  64C24104           [23] self       9   8   263  ; 1398603399
0533  DD020200           [24] getglobal  11  8        ; Game
0537  CE42C205           [25] gettable   11  11  265  ; "PT_STAGGERED"
053B  17038000           [26] loadbool   12  1   0    ; true
053F  62420002           [27] call       9   4   1  
0543  64824204           [28] self       9   8   266  ; -420630141
0547  D2020000           [29] move       11  0      
054B  62428001           [30] call       9   3   1  
054F  64C24204           [31] self       9   8   267  ; -2049256907
0553  D2020000           [32] move       11  0      
0557  62428001           [33] call       9   3   1  
055B  64024304           [34] self       9   8   268  ; -793712901
055F  DD020100           [35] getglobal  11  4        ; Engine
0563  CE42C305           [36] gettable   11  11  269  ; "TORSO"
0567  62428001           [37] call       9   3   1  
056B  64824304           [38] self       9   8   270  ; 862075383
056F  C4C2C303           [39] mul        11  7   271  ; 0
0573  62428001           [40] call       9   3   1  
0577  64024403           [41] self       9   6   272  ; 1193457265
057B  D2020004           [42] move       11  8      
057F  62428001           [43] call       9   3   1  
0583  9400F77F           [44] forloop    2   -35      ; to [10] if loop
0587  1E008000           [45] return     0   1      
                         * constants:
058B  11                 sizek (17)
058C  01                 const type 3
058D  65770E40           const [0]: (1074689893)
0591  03                 const type 3
0592  0000803F           const [1]: (0)
0596  01                 const type 3
0597  0125A76D           const [2]: (1839670529)
059B  01                 const type 3
059C  BC578345           const [3]: (1166235580)
05A0  04                 const type 4
05A1  07                 string size (7)
05A2  456E67696E6500     "Engine\0"
                         const [4]: "Engine"
05A9  01                 const type 3
05AA  26D21EFA           const [5]: (-98643418)
05AE  04                 const type 4
05AF  0B                 string size (11)
05B0  62617365416D6F75+  "baseAmou"
05B8  6E7400             "nt\0"
                         const [6]: "baseAmount"
05BB  01                 const type 3
05BC  87FE5C53           const [7]: (1398603399)
05C0  04                 const type 4
05C1  05                 string size (5)
05C2  47616D6500         "Game\0"
                         const [8]: "Game"
05C7  04                 const type 4
05C8  0D                 string size (13)
05C9  50545F5354414747+  "PT_STAGG"
05D1  4552454400         "ERED\0"
                         const [9]: "PT_STAGGERED"
05D6  01                 const type 3
05D7  83B1EDE6           const [10]: (-420630141)
05DB  01                 const type 3
05DC  35D2DA85           const [11]: (-2049256907)
05E0  01                 const type 3
05E1  FBE6B0D0           const [12]: (-793712901)
05E5  04                 const type 4
05E6  06                 string size (6)
05E7  544F52534F00       "TORSO\0"
                         const [13]: "TORSO"
05ED  01                 const type 3
05EE  F7396233           const [14]: (862075383)
05F2  03                 const type 3
05F3  0000FA43           const [15]: (0)
05F7  01                 const type 3
05F8  71B62247           const [16]: (1193457265)
                         * functions:
05FC  00                 sizep (0)
                         * lines:
05FD  2D                 sizelineinfo (45)
                         [pc] (line)
05FE  70                 [01] (112)
05FF  00                 [02] (112)
0600  00                 [03] (112)
0601  00                 [04] (112)
0602  70                 [05] (112)
0603  00                 [06] (113)
0604  00                 [07] (113)
0605  00                 [08] (113)
0606  70                 [09] (113)
0607  00                 [10] (114)
0608  00                 [11] (115)
0609  00                 [12] (115)
060A  70                 [13] (115)
060B  00                 [14] (115)
060C  00                 [15] (115)
060D  00                 [16] (116)
060E  70                 [17] (116)
060F  00                 [18] (116)
0610  00                 [19] (118)
0611  00                 [20] (118)
0612  71                 [21] (118)
0613  00                 [22] (119)
0614  00                 [23] (120)
0615  00                 [24] (120)
0616  71                 [25] (120)
0617  00                 [26] (120)
0618  00                 [27] (120)
0619  00                 [28] (121)
061A  71                 [29] (121)
061B  00                 [30] (121)
061C  00                 [31] (122)
061D  00                 [32] (122)
061E  71                 [33] (122)
061F  00                 [34] (123)
0620  00                 [35] (123)
0621  00                 [36] (123)
0622  72                 [37] (123)
0623  00                 [38] (124)
0624  00                 [39] (124)
0625  00                 [40] (124)
0626  73                 [41] (126)
0627  00                 [42] (126)
0628  00                 [43] (126)
0629  00                 [44] (113)
062A  73                 [45] (-127)
                         * locals:
06B2  00                 sizelocvars (0)
                         * upvalues:
06B3  00                 sizeupvalues (0)
                         ** end of function **

                         
06B4                     ** function [2] definition (level 2)
                         ** start of function **
06B4  00                 string size (0)
                         source name: (none)
06B6  01                 line defined (131)
06B7  8F                 last line defined (143)
06B8  01                 nups (0)
06B9  00                 numparams (1)
06BA  01                 is_vararg (0)
06BB  00                 maxstacksize (9)
                         * code:
06BD  26                 sizecode (38)
06BE  64004000           [01] self       1   0   256  ; 1839670529
06C2  62800001           [02] call       1   2   2  
06C6  9D400000           [03] getglobal  2   1        ; gRegion
06CA  A4804001           [04] self       2   2   258  ; 252987801
06CE  1DC10000           [05] getglobal  4   3        ; -332969190
06D2  59010100           [06] loadk      5   4        ; "LightFixtureTemplate"
06D6  22810001           [07] call       4   2   2  
06DA  52018000           [08] move       5   1      
06DE  99410100           [09] loadk      6   5        ; 0
06E2  D9810100           [10] loadk      7   6        ; 0
06E6  A2800003           [11] call       2   6   2  
06EA  DDC00100           [12] getglobal  3   7        ; 1074689893
06EE  12010001           [13] move       4   2      
06F2  E2800001           [14] call       3   2   2  
06F6  D8400000           [15] test       3       1    ; to [17] if false
06FA  1A000580           [16] jmp        21           ; to [38]
06FE  DD000200           [17] getglobal  3   8        ; 2144646525
0702  19410200           [18] loadk      4   9        ; 0
0706  4A010001           [19] len        5   2      
070A  E2808001           [20] call       3   3   2  
070E  0EC10001           [21] gettable   4   2   3  
0712  5DC10100           [22] getglobal  5   7        ; 1074689893
0716  92010002           [23] move       6   4      
071A  62810001           [24] call       5   2   2  
071E  58410000           [25] test       5       1    ; to [27] if false
0722  1A800280           [26] jmp        11           ; to [38]
0726  64814202           [27] self       5   4   266  ; -786111647
072A  DDC10200           [28] getglobal  7   11       ; Lotus_Game
072E  CE01C303           [29] gettable   7   7   268  ; "EMISSIVE_MAP_ATTEN"
0732  19420100           [30] loadk      8   5        ; 0
0736  62410002           [31] call       5   4   1  
073A  64414302           [32] self       5   4   269  ; -971287385
073E  DDC10000           [33] getglobal  7   3        ; -332969190
0742  E2018000           [34] call       7   1   0  
0746  62410000           [35] call       5   0   1  
074A  64814302           [36] self       5   4   270  ; -725453761
074E  62410001           [37] call       5   2   1  
0752  1E008000           [38] return     0   1      
                         * constants:
0756  0F                 sizek (15)
0757  01                 const type 3
0758  0125A76D           const [0]: (1839670529)
075C  04                 const type 4
075D  08                 string size (8)
075E  67526567696F6E00   "gRegion\0"
                         const [1]: "gRegion"
0766  01                 const type 3
0767  9949140F           const [2]: (252987801)
076B  01                 const type 3
076C  1A4B27EC           const [3]: (-332969190)
0770  04                 const type 4
0771  15                 string size (21)
0772  4C69676874466978+  "LightFix"
077A  7475726554656D70+  "tureTemp"
0782  6C61746500         "late\0"
                         const [4]: "LightFixtureTemplate"
0787  03                 const type 3
0788  00000000           const [5]: (0)
078C  03                 const type 3
078D  00004842           const [6]: (0)
0791  01                 const type 3
0792  65770E40           const [7]: (1074689893)
0796  01                 const type 3
0797  7DB5D47F           const [8]: (2144646525)
079B  03                 const type 3
079C  0000803F           const [9]: (0)
07A0  01                 const type 3
07A1  61E324D1           const [10]: (-786111647)
07A5  04                 const type 4
07A6  0B                 string size (11)
07A7  4C6F7475735F4761+  "Lotus_Ga"
07AF  6D6500             "me\0"
                         const [11]: "Lotus_Game"
07B2  04                 const type 4
07B3  13                 string size (19)
07B4  454D495353495645+  "EMISSIVE"
07BC  5F4D41505F415454+  "_MAP_ATT"
07C4  454E00             "EN\0"
                         const [12]: "EMISSIVE_MAP_ATTEN"
07C7  01                 const type 3
07C8  A7541BC6           const [13]: (-971287385)
07CC  01                 const type 3
07CD  3F74C2D4           const [14]: (-725453761)
                         * functions:
07D1  00                 sizep (0)
                         * lines:
07D2  26                 sizelineinfo (38)
                         [pc] (line)
07D3  84                 [01] (-124)
07D4  00                 [02] (-124)
07D5  00                 [03] (-123)
07D6  00                 [04] (-123)
07D7  84                 [05] (-123)
07D8  00                 [06] (-123)
07D9  00                 [07] (-123)
07DA  00                 [08] (-123)
07DB  85                 [09] (-123)
07DC  00                 [10] (-123)
07DD  00                 [11] (-123)
07DE  00                 [12] (-122)
07DF  85                 [13] (-122)
07E0  00                 [14] (-122)
07E1  00                 [15] (-122)
07E2  00                 [16] (-122)
07E3  85                 [17] (-121)
07E4  00                 [18] (-121)
07E5  00                 [19] (-121)
07E6  00                 [20] (-121)
07E7  85                 [21] (-120)
07E8  00                 [22] (-119)
07E9  00                 [23] (-119)
07EA  00                 [24] (-119)
07EB  85                 [25] (-119)
07EC  00                 [26] (-119)
07ED  00                 [27] (-118)
07EE  00                 [28] (-118)
07EF  85                 [29] (-118)
07F0  00                 [30] (-118)
07F1  00                 [31] (-118)
07F2  00                 [32] (-117)
07F3  85                 [33] (-117)
07F4  00                 [34] (-117)
07F5  00                 [35] (-117)
07F6  00                 [36] (-116)
07F7  85                 [37] (-116)
07F8  00                 [38] (-113)
                         * locals:
086B  00                 sizelocvars (0)
                         * upvalues:
086C  00                 sizeupvalues (0)
                         ** end of function **

                         
086D                     ** function [3] definition (level 2)
                         ** start of function **
086D  00                 string size (0)
                         source name: (none)
086F  01                 line defined (145)
0870  AC                 last line defined (172)
0871  01                 nups (0)
0872  00                 numparams (0)
0873  00                 is_vararg (0)
0874  00                 maxstacksize (12)
                         * code:
0876  45                 sizecode (69)
0877  1D000000           [01] getglobal  0   0        ; gRegion
087B  24404000           [02] self       0   0   257  ; -2071158816
087F  22800001           [03] call       0   2   2  
0883  5D800000           [04] getglobal  1   2        ; 1074689893
0887  92000000           [05] move       2   0      
088B  62800001           [06] call       1   2   2  
088F  58000000           [07] test       1       0    ; to [9] if true
0893  1A000080           [08] jmp        1            ; to [10]
0897  1E008000           [09] return     0   1      
089B  4EC04000           [10] gettable   1   0   259  ; 0
089F  9D000000           [11] getglobal  2   0        ; gRegion
08A3  A4004101           [12] self       2   2   260  ; -1456226250
08A7  A2800001           [13] call       2   2   2  
08AB  8E404101           [14] gettable   2   2   261  ; "postProcess"
08AF  C6008001           [15] loadnil    3   3      
08B3  1D010000           [16] getglobal  4   0        ; gRegion
08B7  24814102           [17] self       4   4   262  ; -774964848
08BB  22810001           [18] call       4   2   2  
08BF  64C14102           [19] self       5   4   263  ; 537471347
08C3  62810001           [20] call       5   2   2  
08C7  A401C202           [21] self       6   5   264  ; -1359205250
08CB  A2810001           [22] call       6   2   2  
fail op	35
08CF  23404203           [23] close      0  
08D3  1A800780           [24] jmp        31           ; to [56]
08D7  A481C200           [25] self       6   1   266  ; 1839670529
08DB  A2810001           [26] call       6   2   2  
08DF  DD010000           [27] getglobal  7   0        ; gRegion
08E3  E4C1C203           [28] self       7   7   267  ; 630793108
08E7  5D020300           [29] getglobal  9   12       ; shakeSound
08EB  92020003           [30] move       10  6      
08EF  D7020000           [31] loadbool   11  0   0    ; false
08F3  E2818002           [32] call       7   5   2  
08F7  D2008003           [33] move       3   7      
08FB  DD810000           [34] getglobal  7   2        ; 1074689893
08FF  12028001           [35] move       8   3      
0903  E2810001           [36] call       7   2   2  
0907  D8410000           [37] test       7       1    ; to [39] if false
090B  1A000380           [38] jmp        13           ; to [52]
090F  E401C202           [39] self       7   5   264  ; -1359205250
0913  E2810001           [40] call       7   2   2  
fail op	35
0917  2340C203           [41] close      0  
091B  1A000280           [42] jmp        9            ; to [52]
091F  E441C301           [43] self       7   3   269  ; -688523144
0923  E2810001           [44] call       7   2   2  
0927  0E824301           [45] gettable   8   2   270  ; "viewShake"
092B  4402C403           [46] mul        9   7   272  ; 0
092F  0C428287           [47] settable   8   271 9    ; "mShakeAmbient"
0933  1D420400           [48] getglobal  8   17       ; 538022378
0937  59820400           [49] loadk      9   18       ; 0
093B  22420001           [50] call       8   2   1  
093F  1A40FB7F           [51] jmp        -18          ; to [34]
0943  1D420400           [52] getglobal  8   17       ; 538022378
0947  59820400           [53] loadk      9   18       ; 0
094B  22420001           [54] call       8   2   1  
094F  1A00F77F           [55] jmp        -35          ; to [21]
0953  1D420400           [56] getglobal  8   17       ; 538022378
0957  59C20400           [57] loadk      9   19       ; 0
095B  22420001           [58] call       8   2   1  
095F  0E824301           [59] gettable   8   2   270  ; "viewShake"
0963  0C82C487           [60] settable   8   271 274  ; "mShakeAmbient" 0
0967  1D820000           [61] getglobal  8   2        ; 1074689893
096B  52028001           [62] move       9   3      
096F  22820001           [63] call       8   2   2  
0973  18420000           [64] test       8       1    ; to [66] if false
0977  1A800080           [65] jmp        3            ; to [69]
097B  2402C501           [66] self       8   3   276  ; 675444810
097F  97020000           [67] loadbool   10  0   0    ; false
0983  22428001           [68] call       8   3   1  
0987  1E008000           [69] return     0   1      
                         * constants:
098B  15                 sizek (21)
098C  04                 const type 4
098D  08                 string size (8)
098E  67526567696F6E00   "gRegion\0"
                         const [0]: "gRegion"
0996  01                 const type 3
0997  E09F8C84           const [1]: (-2071158816)
099B  01                 const type 3
099C  65770E40           const [2]: (1074689893)
09A0  03                 const type 3
09A1  0000803F           const [3]: (0)
09A5  01                 const type 3
09A6  36C033A9           const [4]: (-1456226250)
09AA  04                 const type 4
09AB  0C                 string size (12)
09AC  706F737450726F63+  "postProc"
09B4  65737300           "ess\0"
                         const [5]: "postProcess"
09B8  01                 const type 3
09B9  90F9CED1           const [6]: (-774964848)
09BD  01                 const type 3
09BE  73290920           const [7]: (537471347)
09C2  01                 const type 3
09C3  7E2CFCAE           const [8]: (-1359205250)
09C7  01                 const type 3
09C8  01000000           const [9]: (1)
09CC  01                 const type 3
09CD  0125A76D           const [10]: (1839670529)
09D1  01                 const type 3
09D2  94239925           const [11]: (630793108)
09D6  04                 const type 4
09D7  0B                 string size (11)
09D8  7368616B65536F75+  "shakeSou"
09E0  6E6400             "nd\0"
                         const [12]: "shakeSound"
09E3  01                 const type 3
09E4  78F8F5D6           const [13]: (-688523144)
09E8  04                 const type 4
09E9  0A                 string size (10)
09EA  766965775368616B+  "viewShak"
09F2  6500               "e\0"
                         const [14]: "viewShake"
09F4  04                 const type 4
09F5  0E                 string size (14)
09F6  6D5368616B65416D+  "mShakeAm"
09FE  6269656E7400       "bient\0"
                         const [15]: "mShakeAmbient"
0A04  03                 const type 3
0A05  00002041           const [16]: (0)
0A09  01                 const type 3
0A0A  EA911120           const [17]: (538022378)
0A0E  03                 const type 3
0A0F  00000000           const [18]: (0)
0A13  03                 const type 3
0A14  00008040           const [19]: (0)
0A18  01                 const type 3
0A19  4A784228           const [20]: (675444810)
                         * functions:
0A1D  00                 sizep (0)
                         * lines:
0A1E  45                 sizelineinfo (69)
                         [pc] (line)
0A1F  92                 [01] (-110)
0A20  00                 [02] (-110)
0A21  00                 [03] (-110)
0A22  00                 [04] (-109)
0A23  92                 [05] (-109)
0A24  00                 [06] (-109)
0A25  00                 [07] (-109)
0A26  00                 [08] (-109)
0A27  92                 [09] (-108)
0A28  00                 [10] (-106)
0A29  00                 [11] (-105)
0A2A  00                 [12] (-105)
0A2B  93                 [13] (-105)
0A2C  00                 [14] (-105)
0A2D  00                 [15] (-104)
0A2E  00                 [16] (-102)
0A2F  93                 [17] (-102)
0A30  00                 [18] (-102)
0A31  00                 [19] (-101)
0A32  00                 [20] (-101)
0A33  93                 [21] (-99)
0A34  00                 [22] (-99)
0A35  00                 [23] (-99)
0A36  00                 [24] (-99)
0A37  93                 [25] (-98)
0A38  00                 [26] (-98)
0A39  00                 [27] (-97)
0A3A  00                 [28] (-97)
0A3B  93                 [29] (-97)
0A3C  00                 [30] (-97)
0A3D  00                 [31] (-97)
0A3E  00                 [32] (-97)
0A3F  94                 [33] (-97)
0A40  00                 [34] (-96)
0A41  00                 [35] (-96)
0A42  00                 [36] (-96)
0A43  96                 [37] (-96)
0A44  00                 [38] (-96)
0A45  00                 [39] (-96)
0A46  00                 [40] (-96)
0A47  97                 [41] (-96)
0A48  00                 [42] (-96)
0A49  00                 [43] (-95)
0A4A  00                 [44] (-95)
0A4B  97                 [45] (-94)
0A4C  00                 [46] (-94)
0A4D  00                 [47] (-94)
0A4E  00                 [48] (-93)
0A4F  97                 [49] (-93)
0A50  00                 [50] (-93)
0A51  00                 [51] (-93)
0A52  00                 [52] (-91)
0A53  97                 [53] (-91)
0A54  00                 [54] (-91)
0A55  00                 [55] (-91)
0A56  00                 [56] (-89)
0A57  98                 [57] (-89)
0A58  00                 [58] (-89)
0A59  00                 [59] (-88)
0A5A  00                 [60] (-88)
0A5B  9A                 [61] (-87)
0A5C  00                 [62] (-87)
0A5D  00                 [63] (-87)
0A5E  00                 [64] (-87)
0A5F  9A                 [65] (-87)
0A60  00                 [66] (-86)
0A61  00                 [67] (-86)
0A62  00                 [68] (-86)
0A63  9A                 [69] (-84)
                         * locals:
0B33  00                 sizelocvars (0)
                         * upvalues:
0B34  00                 sizeupvalues (0)
                         ** end of function **

                         
0B35                     ** function [4] definition (level 2)
                         ** start of function **
0B35  00                 string size (0)
                         source name: (none)
0B37  01                 line defined (174)
0B38  BD                 last line defined (189)
0B39  01                 nups (0)
0B3A  00                 numparams (0)
0B3B  00                 is_vararg (0)
0B3C  00                 maxstacksize (10)
                         * code:
0B3E  27                 sizecode (39)
0B3F  1D000000           [01] getglobal  0   0        ; gRegion
0B43  24404000           [02] self       0   0   257  ; -2071158816
0B47  22800001           [03] call       0   2   2  
0B4B  5D800000           [04] getglobal  1   2        ; 1074689893
0B4F  92000000           [05] move       2   0      
0B53  62800001           [06] call       1   2   2  
0B57  58000000           [07] test       1       0    ; to [9] if true
0B5B  1A000080           [08] jmp        1            ; to [10]
0B5F  1E008000           [09] return     0   1      
0B63  4EC04000           [10] gettable   1   0   259  ; 0
0B67  9D000000           [11] getglobal  2   0        ; gRegion
0B6B  A4004101           [12] self       2   2   260  ; -1456226250
0B6F  A2800001           [13] call       2   2   2  
0B73  8E404101           [14] gettable   2   2   261  ; "postProcess"
0B77  C6008001           [15] loadnil    3   3      
0B7B  2481C100           [16] self       4   1   262  ; 1839670529
0B7F  22810001           [17] call       4   2   2  
0B83  5D010000           [18] getglobal  5   0        ; gRegion
0B87  64C1C102           [19] self       5   5   263  ; 630793108
0B8B  DD010200           [20] getglobal  7   8        ; shakeSound
0B8F  12020002           [21] move       8   4      
0B93  57020000           [22] loadbool   9   0   0    ; false
0B97  62818002           [23] call       5   5   2  
0B9B  D2008002           [24] move       3   5      
0B9F  5D810000           [25] getglobal  5   2        ; 1074689893
0BA3  92018001           [26] move       6   3      
0BA7  62810001           [27] call       5   2   2  
0BAB  58410000           [28] test       5       1    ; to [30] if false
0BAF  1A000280           [29] jmp        9            ; to [39]
0BB3  6441C201           [30] self       5   3   265  ; -688523144
0BB7  62810001           [31] call       5   2   2  
0BBB  8E814201           [32] gettable   6   2   266  ; "viewShake"
0BBF  C401C302           [33] mul        7   5   268  ; 0
0BC3  8CC18185           [34] settable   6   267 7    ; "mShakeAmbient"
0BC7  9D410300           [35] getglobal  6   13       ; 538022378
0BCB  D9810300           [36] loadk      7   14       ; 0
0BCF  A2410001           [37] call       6   2   1  
0BD3  1A40FC7F           [38] jmp        -14          ; to [25]
0BD7  1E008000           [39] return     0   1      
                         * constants:
0BDB  0F                 sizek (15)
0BDC  04                 const type 4
0BDD  08                 string size (8)
0BDE  67526567696F6E00   "gRegion\0"
                         const [0]: "gRegion"
0BE6  01                 const type 3
0BE7  E09F8C84           const [1]: (-2071158816)
0BEB  01                 const type 3
0BEC  65770E40           const [2]: (1074689893)
0BF0  03                 const type 3
0BF1  0000803F           const [3]: (0)
0BF5  01                 const type 3
0BF6  36C033A9           const [4]: (-1456226250)
0BFA  04                 const type 4
0BFB  0C                 string size (12)
0BFC  706F737450726F63+  "postProc"
0C04  65737300           "ess\0"
                         const [5]: "postProcess"
0C08  01                 const type 3
0C09  0125A76D           const [6]: (1839670529)
0C0D  01                 const type 3
0C0E  94239925           const [7]: (630793108)
0C12  04                 const type 4
0C13  0B                 string size (11)
0C14  7368616B65536F75+  "shakeSou"
0C1C  6E6400             "nd\0"
                         const [8]: "shakeSound"
0C1F  01                 const type 3
0C20  78F8F5D6           const [9]: (-688523144)
0C24  04                 const type 4
0C25  0A                 string size (10)
0C26  766965775368616B+  "viewShak"
0C2E  6500               "e\0"
                         const [10]: "viewShake"
0C30  04                 const type 4
0C31  0E                 string size (14)
0C32  6D5368616B65416D+  "mShakeAm"
0C3A  6269656E7400       "bient\0"
                         const [11]: "mShakeAmbient"
0C40  03                 const type 3
0C41  00002041           const [12]: (0)
0C45  01                 const type 3
0C46  EA911120           const [13]: (538022378)
0C4A  03                 const type 3
0C4B  00000000           const [14]: (0)
                         * functions:
0C4F  00                 sizep (0)
                         * lines:
0C50  27                 sizelineinfo (39)
                         [pc] (line)
0C51  AF                 [01] (-81)
0C52  00                 [02] (-81)
0C53  00                 [03] (-81)
0C54  00                 [04] (-80)
0C55  AF                 [05] (-80)
0C56  00                 [06] (-80)
0C57  00                 [07] (-80)
0C58  00                 [08] (-80)
0C59  AF                 [09] (-79)
0C5A  00                 [10] (-77)
0C5B  00                 [11] (-76)
0C5C  00                 [12] (-76)
0C5D  B0                 [13] (-76)
0C5E  00                 [14] (-76)
0C5F  00                 [15] (-75)
0C60  00                 [16] (-74)
0C61  B0                 [17] (-74)
0C62  00                 [18] (-73)
0C63  00                 [19] (-73)
0C64  00                 [20] (-73)
0C65  B0                 [21] (-73)
0C66  00                 [22] (-73)
0C67  00                 [23] (-73)
0C68  00                 [24] (-73)
0C69  B0                 [25] (-72)
0C6A  00                 [26] (-72)
0C6B  00                 [27] (-72)
0C6C  00                 [28] (-72)
0C6D  B0                 [29] (-72)
0C6E  00                 [30] (-71)
0C6F  00                 [31] (-71)
0C70  00                 [32] (-70)
0C71  B1                 [33] (-70)
0C72  00                 [34] (-70)
0C73  00                 [35] (-69)
0C74  00                 [36] (-69)
0C75  B3                 [37] (-69)
0C76  00                 [38] (-69)
0C77  00                 [39] (-67)
                         * locals:
0CED  00                 sizelocvars (0)
                         * upvalues:
0CEE  00                 sizeupvalues (0)
                         ** end of function **

                         
0CEF                     ** function [5] definition (level 2)
                         ** start of function **
0CEF  00                 string size (0)
                         source name: (none)
0CF1  01                 line defined (191)
0CF2  DD                 last line defined (221)
0CF3  01                 nups (4)
0CF4  04                 numparams (0)
0CF5  00                 is_vararg (0)
0CF6  00                 maxstacksize (10)
                         * code:
0CF8  4A                 sizecode (74)
0CF9  1D000000           [01] getglobal  0   0        ; gPromotedToHost
0CFD  18000000           [02] test       0       0    ; to [4] if true
0D01  1A000080           [03] jmp        1            ; to [5]
0D05  1E008000           [04] return     0   1      
0D09  13000000           [05] getupval   0   0      
0D0D  5D400000           [06] getglobal  1   1        ; _T
0D11  4E80C000           [07] gettable   1   1   258  ; "FxLayer"
0D15  9DC00000           [08] getglobal  2   3        ; -332969190
0D19  D9000100           [09] loadk      3   4        ; "Ice"
0D1D  A2800001           [10] call       2   2   2  
fail op	35
0D21  23808000           [11] close      0  
0D25  1A400080           [12] jmp        2            ; to [15]
0D29  13008000           [13] getupval   0   1      
0D2D  1A000480           [14] jmp        17           ; to [32]
0D31  5D400000           [15] getglobal  1   1        ; _T
0D35  4E80C000           [16] gettable   1   1   258  ; "FxLayer"
0D39  9DC00000           [17] getglobal  2   3        ; -332969190
0D3D  D9400100           [18] loadk      3   5        ; "Fire"
0D41  A2800001           [19] call       2   2   2  
fail op	35
0D45  23808000           [20] close      0  
0D49  1A400080           [21] jmp        2            ; to [24]
0D4D  13000001           [22] getupval   0   2      
0D51  1AC00180           [23] jmp        8            ; to [32]
0D55  5D400000           [24] getglobal  1   1        ; _T
0D59  4E80C000           [25] gettable   1   1   258  ; "FxLayer"
0D5D  9DC00000           [26] getglobal  2   3        ; -332969190
0D61  D9800100           [27] loadk      3   6        ; "Infested"
0D65  A2800001           [28] call       2   2   2  
fail op	35
0D69  23808000           [29] close      0  
0D6D  1A000080           [30] jmp        1            ; to [32]
0D71  13008001           [31] getupval   0   3      
0D75  5D400000           [32] getglobal  1   1        ; _T
0D79  4EC0C100           [33] gettable   1   1   263  ; "faction"
0D7D  9DC00000           [34] getglobal  2   3        ; -332969190
0D81  D9000200           [35] loadk      3   8        ; "RedVeil"
0D85  A2800001           [36] call       2   2   2  
fail op	35
0D89  23808000           [37] close      0  
0D8D  1A000080           [38] jmp        1            ; to [40]
0D91  19400200           [39] loadk      0   9        ; 0
0D95  59800200           [40] loadk      1   10       ; 0
0D99  9DC00200           [41] getglobal  2   11       ; glassPanes
0D9D  8A000001           [42] len        2   2      
0DA1  D9800200           [43] loadk      3   10       ; 0
0DA5  50C00680           [44] forprep    1   28       ; to [73]
0DA9  5DC10200           [45] getglobal  5   11       ; glassPanes
0DAD  4E018102           [46] gettable   5   5   4  
0DB1  6401C302           [47] self       5   5   268  ; 1927666530
0DB5  62810001           [48] call       5   2   2  
0DB9  6441C302           [49] self       5   5   269  ; -830264577
0DBD  62810001           [50] call       5   2   2  
0DC1  9D810300           [51] getglobal  6   14       ; -1941280958
0DC5  D9410200           [52] loadk      7   9        ; 0
0DC9  19820200           [53] loadk      8   10       ; 0
0DCD  A2818001           [54] call       6   3   2  
fail op	33
0DD1  21000003           [55] tforloop   0       0    ; to [57] if exit
0DD5  1A800280           [56] jmp        11           ; to [68]
0DD9  DDC10000           [57] getglobal  7   3        ; -332969190
0DDD  19C20300           [58] loadk      8   15       ; "Spawn"
0DE1  E2810001           [59] call       7   2   2  
fail op	35
0DE5  63C08102           [60] close      1  
0DE9  1A400180           [61] jmp        6            ; to [68]
0DED  DDC10200           [62] getglobal  7   11       ; glassPanes
0DF1  CE018103           [63] gettable   7   7   4  
0DF5  E401C403           [64] self       7   7   272  ; -1923578185
0DF9  59420400           [65] loadk      9   17       ; "MaterialSwitch"
0DFD  E2418001           [66] call       7   3   1  
0E01  1A000180           [67] jmp        5            ; to [73]
0E05  DDC10200           [68] getglobal  7   11       ; glassPanes
0E09  CE018103           [69] gettable   7   7   4  
0E0D  E401C403           [70] self       7   7   272  ; -1923578185
0E11  59820400           [71] loadk      9   18       ; "Make invulnerable"
0E15  E2418001           [72] call       7   3   1  
0E19  5480F87F           [73] forloop    1   -29      ; to [45] if loop
0E1D  1E008000           [74] return     0   1      
                         * constants:
0E21  13                 sizek (19)
0E22  04                 const type 4
0E23  10                 string size (16)
0E24  6750726F6D6F7465+  "gPromote"
0E2C  64546F486F737400   "dToHost\0"
                         const [0]: "gPromotedToHost"
0E34  04                 const type 4
0E35  03                 string size (3)
0E36  5F5400             "_T\0"
                         const [1]: "_T"
0E39  04                 const type 4
0E3A  08                 string size (8)
0E3B  46784C6179657200   "FxLayer\0"
                         const [2]: "FxLayer"
0E43  01                 const type 3
0E44  1A4B27EC           const [3]: (-332969190)
0E48  04                 const type 4
0E49  04                 string size (4)
0E4A  49636500           "Ice\0"
                         const [4]: "Ice"
0E4E  04                 const type 4
0E4F  05                 string size (5)
0E50  4669726500         "Fire\0"
                         const [5]: "Fire"
0E55  04                 const type 4
0E56  09                 string size (9)
0E57  496E666573746564+  "Infested"
0E5F  00                 "\0"
                         const [6]: "Infested"
0E60  04                 const type 4
0E61  08                 string size (8)
0E62  66616374696F6E00   "faction\0"
                         const [7]: "faction"
0E6A  04                 const type 4
0E6B  08                 string size (8)
0E6C  5265645665696C00   "RedVeil\0"
                         const [8]: "RedVeil"
0E74  03                 const type 3
0E75  00000000           const [9]: (0)
0E79  03                 const type 3
0E7A  0000803F           const [10]: (0)
0E7E  04                 const type 4
0E7F  0B                 string size (11)
0E80  676C61737350616E+  "glassPan"
0E88  657300             "es\0"
                         const [11]: "glassPanes"
0E8B  01                 const type 3
0E8C  62DBE572           const [12]: (1927666530)
0E90  01                 const type 3
0E91  FF2A83CE           const [13]: (-830264577)
0E95  01                 const type 3
0E96  42674A8C           const [14]: (-1941280958)
0E9A  04                 const type 4
0E9B  06                 string size (6)
0E9C  537061776E00       "Spawn\0"
                         const [15]: "Spawn"
0EA2  01                 const type 3
0EA3  B786588D           const [16]: (-1923578185)
0EA7  04                 const type 4
0EA8  0F                 string size (15)
0EA9  4D6174657269616C+  "Material"
0EB1  53776974636800     "Switch\0"
                         const [17]: "MaterialSwitch"
0EB8  04                 const type 4
0EB9  12                 string size (18)
0EBA  4D616B6520696E76+  "Make inv"
0EC2  756C6E657261626C+  "ulnerabl"
0ECA  6500               "e\0"
                         const [18]: "Make invulnerable"
                         * functions:
0ECC  00                 sizep (0)
                         * lines:
0ECD  4A                 sizelineinfo (74)
                         [pc] (line)
0ECE  C1                 [01] (-63)
0ECF  00                 [02] (-63)
0ED0  00                 [03] (-63)
0ED1  00                 [04] (-62)
0ED2  C1                 [05] (-59)
0ED3  00                 [06] (-58)
0ED4  00                 [07] (-58)
0ED5  00                 [08] (-58)
0ED6  C1                 [09] (-58)
0ED7  00                 [10] (-58)
0ED8  00                 [11] (-58)
0ED9  00                 [12] (-58)
0EDA  C2                 [13] (-57)
0EDB  00                 [14] (-57)
0EDC  00                 [15] (-56)
0EDD  00                 [16] (-56)
0EDE  C5                 [17] (-56)
0EDF  00                 [18] (-56)
0EE0  00                 [19] (-56)
0EE1  00                 [20] (-56)
0EE2  C6                 [21] (-56)
0EE3  00                 [22] (-55)
0EE4  00                 [23] (-55)
0EE5  00                 [24] (-54)
0EE6  C6                 [25] (-54)
0EE7  00                 [26] (-54)
0EE8  00                 [27] (-54)
0EE9  00                 [28] (-54)
0EEA  C6                 [29] (-54)
0EEB  00                 [30] (-54)
0EEC  00                 [31] (-53)
0EED  00                 [32] (-50)
0EEE  C6                 [33] (-50)
0EEF  00                 [34] (-50)
0EF0  00                 [35] (-50)
0EF1  00                 [36] (-50)
0EF2  C6                 [37] (-50)
0EF3  00                 [38] (-50)
0EF4  00                 [39] (-49)
0EF5  00                 [40] (-46)
0EF6  C6                 [41] (-46)
0EF7  00                 [42] (-46)
0EF8  00                 [43] (-46)
0EF9  00                 [44] (-46)
0EFA  C6                 [45] (-45)
0EFB  00                 [46] (-45)
0EFC  00                 [47] (-45)
0EFD  00                 [48] (-45)
0EFE  C7                 [49] (-45)
0EFF  00                 [50] (-45)
0F00  00                 [51] (-44)
0F01  00                 [52] (-44)
0F02  C7                 [53] (-44)
0F03  00                 [54] (-44)
0F04  00                 [55] (-43)
0F05  00                 [56] (-43)
0F06  C8                 [57] (-43)
0F07  00                 [58] (-43)
0F08  00                 [59] (-43)
0F09  00                 [60] (-43)
0F0A  C8                 [61] (-43)
0F0B  00                 [62] (-40)
0F0C  00                 [63] (-40)
0F0D  00                 [64] (-40)
0F0E  C8                 [65] (-40)
0F0F  00                 [66] (-40)
0F10  00                 [67] (-40)
0F11  00                 [68] (-38)
0F12  C8                 [69] (-38)
0F13  00                 [70] (-38)
0F14  00                 [71] (-38)
0F15  00                 [72] (-38)
0F16  C8                 [73] (-46)
0F17  00                 [74] (-35)
                         * locals:
0FF6  00                 sizelocvars (0)
                         * upvalues:
0FF7  00                 sizeupvalues (0)
                         ** end of function **

                         
0FF8                     ** function [6] definition (level 2)
                         ** start of function **
0FF8  00                 string size (0)
                         source name: (none)
0FFA  01                 line defined (223)
0FFB  85                 last line defined (261)
0FFC  02                 nups (0)
0FFD  00                 numparams (1)
0FFE  01                 is_vararg (0)
0FFF  00                 maxstacksize (24)
                         * code:
1001  57                 sizecode (87)
1002  64004000           [01] self       1   0   256  ; 1839670529
1006  62800001           [02] call       1   2   2  
100A  9D400000           [03] getglobal  2   1        ; gRegion
100E  A4804001           [04] self       2   2   258  ; 152279552
1012  1DC10000           [05] getglobal  4   3        ; avatarType
1016  52018000           [06] move       5   1      
101A  99010100           [07] loadk      6   4        ; 0
101E  D9410100           [08] loadk      7   5        ; 0
1022  A2800003           [09] call       2   6   2  
1026  CB000000           [10] newtable   3   0   0    ; array=0, hash=0
102A  19810100           [11] loadk      4   6        ; 0
102E  5DC10100           [12] getglobal  5   7        ; triggerZoneObjectTags
1032  4A018002           [13] len        5   5      
1036  99810100           [14] loadk      6   6        ; 0
103A  10010680           [15] forprep    4   25       ; to [41]
103E  1D420000           [16] getglobal  8   1        ; gRegion
1042  24024204           [17] self       8   8   264  ; -1593214796
1046  9DC20100           [18] getglobal  10  7        ; triggerZoneObjectTags
104A  8EC20105           [19] gettable   10  10  7  
104E  D2028000           [20] move       11  1      
1052  22820002           [21] call       8   4   2  
1056  5D420200           [22] getglobal  9   9        ; 1074689893
105A  92020004           [23] move       10  8      
105E  62820001           [24] call       9   2   2  
1062  58420000           [25] test       9       1    ; to [27] if false
1066  1A400180           [26] jmp        6            ; to [33]
106A  5D820200           [27] getglobal  9   10       ; table
106E  4EC2C204           [28] gettable   9   9   267  ; -431682403
1072  92028001           [29] move       10  3      
1076  D2020004           [30] move       11  8      
107A  62428001           [31] call       9   3   1  
107E  1AC00180           [32] jmp        8            ; to [41]
1082  5D020300           [33] getglobal  9   12       ; -1817107093
1086  99420300           [34] loadk      10  13       ; "Could not find objects with tag "
108A  DD820300           [35] getglobal  11  14       ; -1615931716
108E  1DC30100           [36] getglobal  12  7        ; triggerZoneObjectTags
1092  0EC30106           [37] gettable   12  12  7  
1096  E2820001           [38] call       11  2   2  
109A  82C20205           [39] concat     10  10  11 
109E  62420001           [40] call       9   2   1  
10A2  1441F97F           [41] forloop    4   -26      ; to [16] if loop
10A6  4B020000           [42] newtable   9   0   0    ; array=0, hash=0
10AA  9DC20100           [43] getglobal  10  7        ; triggerZoneObjectTags
10AE  8A020005           [44] len        10  10     
fail op	21
10B2  15800282           [45] concat     0   260 10 
10B6  1A000280           [46] jmp        9            ; to [56]
10BA  9DC20100           [47] getglobal  10  7        ; triggerZoneObjectTags
10BE  8E824105           [48] gettable   10  10  262  ; 0
10C2  DDC20300           [49] getglobal  11  15       ; _T
10C6  CE02C405           [50] gettable   11  11  272  ; "DeactivatedBreachZone"
fail op	35
10CA  23808205           [51] close      0  
10CE  1A000080           [52] jmp        1            ; to [54]
10D2  5E020001           [53] return     9   2      
10D6  DDC20300           [54] getglobal  11  15       ; _T
10DA  CC828288           [55] settable   11  273 10   ; "CurrentBreachZone"
10DE  C6028005           [56] loadnil    11  11     
10E2  19830100           [57] loadk      12  6        ; 0
10E6  4A030001           [58] len        13  2      
10EA  99830100           [59] loadk      14  6        ; 0
10EE  10C30580           [60] forprep    12  24       ; to [85]
10F2  0EC40301           [61] gettable   16  2   15 
10F6  64844408           [62] self       17  16  274  ; 1927666530
10FA  62840001           [63] call       17  2   2  
10FE  D2028008           [64] move       11  17     
1102  5D440200           [65] getglobal  17  9        ; 1074689893
1106  92048005           [66] move       18  11     
110A  62840001           [67] call       17  2   2  
110E  58440000           [68] test       17      1    ; to [70] if false
1112  1A800380           [69] jmp        15           ; to [85]
1116  59840100           [70] loadk      17  6        ; 0
111A  8A048001           [71] len        18  3      
111E  D9840100           [72] loadk      19  6        ; 0
1122  50440280           [73] forprep    17  10       ; to [84]
1126  4E058501           [74] gettable   21  3   20 
112A  6485C40A           [75] self       21  21  274  ; 1927666530
112E  62850001           [76] call       21  2   2  
fail op	35
1132  23408505           [77] close      0  
1136  1A000180           [78] jmp        5            ; to [84]
113A  5D850200           [79] getglobal  21  10       ; table
113E  4EC5C20A           [80] gettable   21  21  267  ; -431682403
1142  92058004           [81] move       22  9      
1146  D2050008           [82] move       23  16     
114A  62458001           [83] call       21  3   1  
114E  5404FD7F           [84] forloop    17  -11      ; to [74] if loop
1152  1483F97F           [85] forloop    12  -25      ; to [61] if loop
1156  5E020001           [86] return     9   2      
115A  1E008000           [87] return     0   1      
                         * constants:
115E  13                 sizek (19)
115F  01                 const type 3
1160  0125A76D           const [0]: (1839670529)
1164  04                 const type 4
1165  08                 string size (8)
1166  67526567696F6E00   "gRegion\0"
                         const [1]: "gRegion"
116E  01                 const type 3
116F  009A1309           const [2]: (152279552)
1173  04                 const type 4
1174  0B                 string size (11)
1175  6176617461725479+  "avatarTy"
117D  706500             "pe\0"
                         const [3]: "avatarType"
1180  03                 const type 3
1181  00000000           const [4]: (0)
1185  03                 const type 3
1186  0000C842           const [5]: (0)
118A  03                 const type 3
118B  0000803F           const [6]: (0)
118F  04                 const type 4
1190  16                 string size (22)
1191  747269676765725A+  "triggerZ"
1199  6F6E654F626A6563+  "oneObjec"
11A1  745461677300       "tTags\0"
                         const [7]: "triggerZoneObjectTags"
11A7  01                 const type 3
11A8  B47809A1           const [8]: (-1593214796)
11AC  01                 const type 3
11AD  65770E40           const [9]: (1074689893)
11B1  04                 const type 4
11B2  06                 string size (6)
11B3  7461626C6500       "table\0"
                         const [10]: "table"
11B9  01                 const type 3
11BA  9D0C45E6           const [11]: (-431682403)
11BE  01                 const type 3
11BF  6B25B193           const [12]: (-1817107093)
11C3  04                 const type 4
11C4  21                 string size (33)
11C5  436F756C64206E6F+  "Could no"
11CD  742066696E64206F+  "t find o"
11D5  626A656374732077+  "bjects w"
11DD  6974682074616720+  "ith tag "
11E5  00                 "\0"
                         const [13]: "Could not find objects with tag "
11E6  01                 const type 3
11E7  BCD6AE9F           const [14]: (-1615931716)
11EB  04                 const type 4
11EC  03                 string size (3)
11ED  5F5400             "_T\0"
                         const [15]: "_T"
11F0  04                 const type 4
11F1  16                 string size (22)
11F2  4465616374697661+  "Deactiva"
11FA  7465644272656163+  "tedBreac"
1202  685A6F6E6500       "hZone\0"
                         const [16]: "DeactivatedBreachZone"
1208  04                 const type 4
1209  12                 string size (18)
120A  43757272656E7442+  "CurrentB"
1212  72656163685A6F6E+  "reachZon"
121A  6500               "e\0"
                         const [17]: "CurrentBreachZone"
121C  01                 const type 3
121D  62DBE572           const [18]: (1927666530)
                         * functions:
1221  00                 sizep (0)
                         * lines:
1222  57                 sizelineinfo (87)
                         [pc] (line)
1223  E0                 [01] (-32)
1224  00                 [02] (-32)
1225  00                 [03] (-31)
1226  00                 [04] (-31)
1227  E0                 [05] (-31)
1228  00                 [06] (-31)
1229  00                 [07] (-31)
122A  00                 [08] (-31)
122B  E1                 [09] (-31)
122C  00                 [10] (-29)
122D  00                 [11] (-28)
122E  00                 [12] (-28)
122F  E1                 [13] (-28)
1230  00                 [14] (-28)
1231  00                 [15] (-28)
1232  00                 [16] (-27)
1233  E1                 [17] (-27)
1234  00                 [18] (-27)
1235  00                 [19] (-27)
1236  00                 [20] (-27)
1237  E1                 [21] (-27)
1238  00                 [22] (-26)
1239  00                 [23] (-26)
123A  00                 [24] (-26)
123B  E1                 [25] (-26)
123C  00                 [26] (-26)
123D  00                 [27] (-25)
123E  00                 [28] (-25)
123F  E1                 [29] (-25)
1240  00                 [30] (-25)
1241  00                 [31] (-25)
1242  00                 [32] (-25)
1243  E1                 [33] (-23)
1244  00                 [34] (-23)
1245  00                 [35] (-23)
1246  00                 [36] (-23)
1247  E3                 [37] (-23)
1248  00                 [38] (-23)
1249  00                 [39] (-23)
124A  00                 [40] (-23)
124B  E4                 [41] (-28)
124C  00                 [42] (-18)
124D  00                 [43] (-17)
124E  00                 [44] (-17)
124F  E4                 [45] (-17)
1250  00                 [46] (-17)
1251  00                 [47] (-16)
1252  00                 [48] (-16)
1253  E4                 [49] (-15)
1254  00                 [50] (-15)
1255  00                 [51] (-15)
1256  00                 [52] (-15)
1257  E4                 [53] (-14)
1258  00                 [54] (-12)
1259  00                 [55] (-12)
125A  00                 [56] (-9)
125B  E4                 [57] (-8)
125C  00                 [58] (-8)
125D  00                 [59] (-8)
125E  00                 [60] (-8)
125F  E5                 [61] (-7)
1260  00                 [62] (-6)
1261  00                 [63] (-6)
1262  00                 [64] (-6)
1263  E5                 [65] (-5)
1264  00                 [66] (-5)
1265  00                 [67] (-5)
1266  00                 [68] (-5)
1267  E5                 [69] (-5)
1268  00                 [70] (-4)
1269  00                 [71] (-4)
126A  00                 [72] (-4)
126B  E5                 [73] (-4)
126C  00                 [74] (-3)
126D  00                 [75] (-3)
126E  00                 [76] (-3)
126F  E5                 [77] (-3)
1270  00                 [78] (-3)
1271  00                 [79] (-2)
1272  00                 [80] (-2)
1273  E5                 [81] (-2)
1274  00                 [82] (-2)
1275  00                 [83] (-2)
1276  00                 [84] (-4)
1277  E6                 [85] (-8)
1278  00                 [86] (3)
1279  00                 [87] (5)
                         * locals:
137F  00                 sizelocvars (0)
                         * upvalues:
1380  00                 sizeupvalues (0)
                         ** end of function **

                         
1381                     ** function [7] definition (level 2)
                         ** start of function **
1381  00                 string size (0)
                         source name: (none)
1383  02                 line defined (263)
1384  89                 last line defined (265)
1385  02                 nups (0)
1386  00                 numparams (0)
1387  00                 is_vararg (0)
1388  00                 maxstacksize (2)
                         * code:
138A  01                 sizecode (1)
138B  1E008000           [1] return     0   1      
                         * constants:
138F  00                 sizek (0)
                         * functions:
1390  00                 sizep (0)
                         * lines:
1391  01                 sizelineinfo (1)
                         [pc] (line)
1392  09                 [1] (9)
                         * locals:
1396  00                 sizelocvars (0)
                         * upvalues:
1397  00                 sizeupvalues (0)
                         ** end of function **

                         
1398                     ** function [8] definition (level 2)
                         ** start of function **
1398  00                 string size (0)
                         source name: (none)
139A  02                 line defined (267)
139B  D2                 last line defined (338)
139C  02                 nups (0)
139D  00                 numparams (2)
139E  02                 is_vararg (0)
139F  00                 maxstacksize (35)
                         * code:
13A2  01                 sizecode (155)
13A3  A4004000           [001] self       2   0   256  ; 366271214
13A7  1D410000           [002] getglobal  4   1        ; coneType
13AB  A2808001           [003] call       2   3   2  
13AF  DD800000           [004] getglobal  3   2        ; 1074689893
13B3  12010001           [005] move       4   2      
13B7  E2800001           [006] call       3   2   2  
13BB  D8400000           [007] test       3       1    ; to [9] if false
13BF  1AC00480           [008] jmp        20           ; to [29]
13C3  D9C00000           [009] loadk      3   3        ; 0
13C7  0A010001           [010] len        4   2      
13CB  59C10000           [011] loadk      5   3        ; 0
13CF  D0800380           [012] forprep    3   15       ; to [28]
13D3  58400000           [013] test       1       1    ; to [15] if false
13D7  1A000180           [014] jmp        5            ; to [20]
13DB  CE810101           [015] gettable   7   2   6  
13DF  E401C103           [016] self       7   7   260  ; -1923578185
13E3  59420100           [017] loadk      9   5        ; "Hide"
13E7  E2418001           [018] call       7   3   1  
13EB  1AC00180           [019] jmp        8            ; to [28]
13EF  CE810101           [020] gettable   7   2   6  
13F3  E401C103           [021] self       7   7   260  ; -1923578185
13F7  59820100           [022] loadk      9   6        ; "Show"
13FB  E2418001           [023] call       7   3   1  
13FF  CE810101           [024] gettable   7   2   6  
1403  E401C103           [025] self       7   7   260  ; -1923578185
1407  59C20100           [026] loadk      9   7        ; "ClearMaterialSwitch"
140B  E2418001           [027] call       7   3   1  
140F  D4C0FB7F           [028] forloop    3   -16      ; to [13] if loop
1413  E4014000           [029] self       7   0   256  ; 366271214
1417  5D020200           [030] getglobal  9   8        ; GreenFlareType
141B  E2818001           [031] call       7   3   2  
141F  92008003           [032] move       2   7      
1423  DD810000           [033] getglobal  7   2        ; 1074689893
1427  12020001           [034] move       8   2      
142B  E2810001           [035] call       7   2   2  
142F  D8410000           [036] test       7       1    ; to [38] if false
1433  1A400280           [037] jmp        10           ; to [48]
1437  D9C10000           [038] loadk      7   3        ; 0
143B  0A020001           [039] len        8   2      
143F  59C20000           [040] loadk      9   3        ; 0
1443  D0010180           [041] forprep    7   5        ; to [47]
1447  CE820201           [042] gettable   11  2   10 
144B  E442C205           [043] self       11  11  265  ; 2109594123
144F  52038000           [044] move       13  1      
1453  97038000           [045] loadbool   14  1   0    ; true
1457  E2420002           [046] call       11  4   1  
145B  D441FE7F           [047] forloop    7   -6       ; to [42] if loop
145F  E4024000           [048] self       11  0   256  ; 366271214
1463  5D830200           [049] getglobal  13  10       ; RedFlareType
1467  E2828001           [050] call       11  3   2  
146B  92008005           [051] move       2   11     
146F  DD820000           [052] getglobal  11  2        ; 1074689893
1473  12030001           [053] move       12  2      
1477  E2820001           [054] call       11  2   2  
147B  D8420000           [055] test       11      1    ; to [57] if false
147F  1A400280           [056] jmp        10           ; to [67]
1483  D9C20000           [057] loadk      11  3        ; 0
1487  0A030001           [058] len        12  2      
148B  59C30000           [059] loadk      13  3        ; 0
148F  D0020180           [060] forprep    11  5        ; to [66]
1493  CE830301           [061] gettable   15  2   14 
1497  E443C207           [062] self       15  15  265  ; 2109594123
fail op	9
149B  49048000           [063] settable   17  1   0  
149F  97048000           [064] loadbool   18  1   0    ; true
14A3  E2430002           [065] call       15  4   1  
14A7  D442FE7F           [066] forloop    11  -6       ; to [61] if loop
14AB  E4034000           [067] self       15  0   256  ; 366271214
14AF  5DC40200           [068] getglobal  17  11       ; laserScanType
14B3  E2838001           [069] call       15  3   2  
14B7  92008007           [070] move       2   15     
14BB  DD830000           [071] getglobal  15  2        ; 1074689893
14BF  12040001           [072] move       16  2      
14C3  E2830001           [073] call       15  2   2  
14C7  D8430000           [074] test       15      1    ; to [76] if false
14CB  1AC00480           [075] jmp        20           ; to [96]
14CF  D9C30000           [076] loadk      15  3        ; 0
14D3  0A040001           [077] len        16  2      
14D7  59C40000           [078] loadk      17  3        ; 0
14DB  D0830380           [079] forprep    15  15       ; to [95]
14DF  58400000           [080] test       1       1    ; to [82] if false
14E3  1A000180           [081] jmp        5            ; to [87]
14E7  CE840401           [082] gettable   19  2   18 
14EB  E404C109           [083] self       19  19  260  ; -1923578185
14EF  59050300           [084] loadk      21  12       ; "Disable"
14F3  E2448001           [085] call       19  3   1  
14F7  1AC00080           [086] jmp        4            ; to [91]
14FB  CE840401           [087] gettable   19  2   18 
14FF  E404C109           [088] self       19  19  260  ; -1923578185
1503  59450300           [089] loadk      21  13       ; "Enable"
1507  E2448001           [090] call       19  3   1  
150B  CE840401           [091] gettable   19  2   18 
150F  E484C309           [092] self       19  19  270  ; 906170325
1513  57050000           [093] loadbool   21  0   0    ; false
1517  E2448001           [094] call       19  3   1  
151B  D4C3FB7F           [095] forloop    15  -16      ; to [80] if loop
151F  E4044000           [096] self       19  0   256  ; 366271214
1523  5DC50300           [097] getglobal  21  15       ; grineerBeamLargeType
1527  E2848001           [098] call       19  3   2  
152B  92008009           [099] move       2   19     
152F  D9C40000           [100] loadk      19  3        ; 0
1533  0A050001           [101] len        20  2      
1537  59C50000           [102] loadk      21  3        ; 0
153B  D0040680           [103] forprep    19  25       ; to [129]
153F  CE850501           [104] gettable   23  2   22 
1543  E405C00B           [105] self       23  23  256  ; 366271214
1547  5D060400           [106] getglobal  25  16       ; laserSound
154B  E2858001           [107] call       23  3   2  
154F  1D860000           [108] getglobal  24  2        ; 1074689893
1553  5206800B           [109] move       25  23     
1557  22860001           [110] call       24  2   2  
155B  18460000           [111] test       24      1    ; to [113] if false
155F  1AC00380           [112] jmp        16           ; to [129]
1563  19C60000           [113] loadk      24  3        ; 0
1567  4A06800B           [114] len        25  23     
156B  99C60000           [115] loadk      26  3        ; 0
156F  10860280           [116] forprep    24  11       ; to [128]
1573  58400000           [117] test       1       1    ; to [119] if false
1577  1A000180           [118] jmp        5            ; to [124]
157B  0EC7860B           [119] gettable   28  23  27 
157F  2407410E           [120] self       28  28  260  ; -1923578185
1583  99070300           [121] loadk      30  12       ; "Disable"
1587  22478001           [122] call       28  3   1  
158B  1AC00080           [123] jmp        4            ; to [128]
158F  0EC7860B           [124] gettable   28  23  27 
1593  2407410E           [125] self       28  28  260  ; -1923578185
1597  99470300           [126] loadk      30  13       ; "Enable"
159B  22478001           [127] call       28  3   1  
159F  14C6FC7F           [128] forloop    24  -12      ; to [117] if loop
15A3  D444F97F           [129] forloop    19  -26      ; to [104] if loop
15A7  1D870000           [130] getglobal  28  2        ; 1074689893
15AB  52070001           [131] move       29  2      
15AF  22870001           [132] call       28  2   2  
15B3  18470000           [133] test       28      1    ; to [135] if false
15B7  1AC00480           [134] jmp        20           ; to [155]
15BB  19C70000           [135] loadk      28  3        ; 0
15BF  4A070001           [136] len        29  2      
15C3  99C70000           [137] loadk      30  3        ; 0
15C7  10870380           [138] forprep    28  15       ; to [154]
15CB  58400000           [139] test       1       1    ; to [141] if false
15CF  1A000180           [140] jmp        5            ; to [146]
15D3  0EC80701           [141] gettable   32  2   31 
15D7  24084110           [142] self       32  32  260  ; -1923578185
15DB  99080300           [143] loadk      34  12       ; "Disable"
15DF  22488001           [144] call       32  3   1  
15E3  1AC00080           [145] jmp        4            ; to [150]
15E7  0EC80701           [146] gettable   32  2   31 
15EB  24084110           [147] self       32  32  260  ; -1923578185
15EF  99480300           [148] loadk      34  13       ; "Enable"
15F3  22488001           [149] call       32  3   1  
15F7  0EC80701           [150] gettable   32  2   31 
15FB  24884310           [151] self       32  32  270  ; 906170325
15FF  97080000           [152] loadbool   34  0   0    ; false
1603  22488001           [153] call       32  3   1  
1607  14C7FB7F           [154] forloop    28  -16      ; to [139] if loop
160B  1E008000           [155] return     0   1      
                         * constants:
160F  11                 sizek (17)
1610  01                 const type 3
1611  EEDAD415           const [0]: (366271214)
1615  04                 const type 4
1616  09                 string size (9)
1617  636F6E6554797065+  "coneType"
161F  00                 "\0"
                         const [1]: "coneType"
1620  01                 const type 3
1621  65770E40           const [2]: (1074689893)
1625  03                 const type 3
1626  0000803F           const [3]: (0)
162A  01                 const type 3
162B  B786588D           const [4]: (-1923578185)
162F  04                 const type 4
1630  05                 string size (5)
1631  4869646500         "Hide\0"
                         const [5]: "Hide"
1636  04                 const type 4
1637  05                 string size (5)
1638  53686F7700         "Show\0"
                         const [6]: "Show"
163D  04                 const type 4
163E  14                 string size (20)
163F  436C6561724D6174+  "ClearMat"
1647  657269616C537769+  "erialSwi"
164F  74636800           "tch\0"
                         const [7]: "ClearMaterialSwitch"
1653  04                 const type 4
1654  0F                 string size (15)
1655  477265656E466C61+  "GreenFla"
165D  72655479706500     "reType\0"
                         const [8]: "GreenFlareType"
1664  01                 const type 3
1665  0BDABD7D           const [9]: (2109594123)
1669  04                 const type 4
166A  0D                 string size (13)
166B  526564466C617265+  "RedFlare"
1673  5479706500         "Type\0"
                         const [10]: "RedFlareType"
1678  04                 const type 4
1679  0E                 string size (14)
167A  6C61736572536361+  "laserSca"
1682  6E5479706500       "nType\0"
                         const [11]: "laserScanType"
1688  04                 const type 4
1689  08                 string size (8)
168A  44697361626C6500   "Disable\0"
                         const [12]: "Disable"
1692  04                 const type 4
1693  07                 string size (7)
1694  456E61626C6500     "Enable\0"
                         const [13]: "Enable"
169B  01                 const type 3
169C  D50F0336           const [14]: (906170325)
16A0  04                 const type 4
16A1  15                 string size (21)
16A2  6772696E65657242+  "grineerB"
16AA  65616D4C61726765+  "eamLarge"
16B2  5479706500         "Type\0"
                         const [15]: "grineerBeamLargeType"
16B7  04                 const type 4
16B8  0B                 string size (11)
16B9  6C61736572536F75+  "laserSou"
16C1  6E6400             "nd\0"
                         const [16]: "laserSound"
                         * functions:
16C4  00                 sizep (0)
                         * lines:
16C6  01                 sizelineinfo (155)
                         [pc] (line)
16C7  0C                 [001] (12)
16C8  01                 [002] (12)
16C9  00                 [003] (12)
16CA  00                 [004] (13)
16CB  0C                 [005] (13)
16CC  01                 [006] (13)
16CD  00                 [007] (13)
16CE  00                 [008] (13)
16CF  0C                 [009] (14)
16D0  01                 [010] (14)
16D1  00                 [011] (14)
16D2  00                 [012] (14)
16D3  0D                 [013] (15)
16D4  01                 [014] (15)
16D5  00                 [015] (16)
16D6  00                 [016] (16)
16D7  0D                 [017] (16)
16D8  01                 [018] (16)
16D9  00                 [019] (16)
16DA  00                 [020] (18)
16DB  0D                 [021] (18)
16DC  01                 [022] (18)
16DD  00                 [023] (18)
16DE  00                 [024] (19)
16DF  0D                 [025] (19)
16E0  01                 [026] (19)
16E1  00                 [027] (19)
16E2  00                 [028] (14)
16E3  0D                 [029] (25)
16E4  01                 [030] (25)
16E5  00                 [031] (25)
16E6  00                 [032] (25)
16E7  0E                 [033] (26)
16E8  01                 [034] (26)
16E9  00                 [035] (26)
16EA  00                 [036] (26)
16EB  0E                 [037] (26)
16EC  01                 [038] (27)
16ED  00                 [039] (27)
16EE  00                 [040] (27)
16EF  0E                 [041] (27)
16F0  01                 [042] (28)
16F1  00                 [043] (28)
16F2  00                 [044] (28)
16F3  0E                 [045] (28)
16F4  01                 [046] (28)
16F5  00                 [047] (27)
16F6  00                 [048] (32)
16F7  0F                 [049] (32)
16F8  01                 [050] (32)
16F9  00                 [051] (32)
16FA  00                 [052] (33)
16FB  0F                 [053] (33)
16FC  01                 [054] (33)
16FD  00                 [055] (33)
16FE  00                 [056] (33)
16FF  10                 [057] (34)
1700  01                 [058] (34)
1701  00                 [059] (34)
1702  00                 [060] (34)
1703  10                 [061] (35)
1704  01                 [062] (35)
1705  00                 [063] (35)
1706  00                 [064] (35)
1707  10                 [065] (35)
1708  01                 [066] (34)
1709  00                 [067] (39)
170A  00                 [068] (39)
170B  10                 [069] (39)
170C  01                 [070] (39)
170D  00                 [071] (40)
170E  00                 [072] (40)
170F  10                 [073] (40)
1710  01                 [074] (40)
1711  00                 [075] (40)
1712  00                 [076] (41)
1713  12                 [077] (41)
1714  01                 [078] (41)
1715  00                 [079] (41)
1716  00                 [080] (43)
1717  12                 [081] (43)
1718  01                 [082] (44)
1719  00                 [083] (44)
171A  00                 [084] (44)
171B  12                 [085] (44)
171C  01                 [086] (44)
171D  00                 [087] (46)
171E  00                 [088] (46)
171F  12                 [089] (46)
1720  01                 [090] (46)
1721  00                 [091] (48)
1722  00                 [092] (48)
1723  13                 [093] (48)
1724  01                 [094] (48)
1725  00                 [095] (41)
1726  00                 [096] (53)
1727  13                 [097] (53)
1728  01                 [098] (53)
1729  00                 [099] (53)
172A  00                 [100] (55)
172B  13                 [101] (55)
172C  01                 [102] (55)
172D  00                 [103] (55)
172E  00                 [104] (56)
172F  13                 [105] (56)
1730  01                 [106] (56)
1731  00                 [107] (56)
1732  00                 [108] (57)
1733  0E                 [109] (57)
1734  01                 [110] (57)
1735  00                 [111] (57)
1736  00                 [112] (57)
1737  19                 [113] (58)
1738  01                 [114] (58)
1739  00                 [115] (58)
173A  00                 [116] (58)
173B  19                 [117] (59)
173C  01                 [118] (59)
173D  00                 [119] (60)
173E  00                 [120] (60)
173F  19                 [121] (60)
1740  01                 [122] (60)
1741  00                 [123] (60)
1742  00                 [124] (62)
1743  19                 [125] (62)
1744  01                 [126] (62)
1745  00                 [127] (62)
1746  00                 [128] (58)
1747  1A                 [129] (55)
1748  01                 [130] (68)
1749  00                 [131] (68)
174A  00                 [132] (68)
174B  1A                 [133] (68)
174C  01                 [134] (68)
174D  00                 [135] (69)
174E  00                 [136] (69)
174F  1A                 [137] (69)
1750  01                 [138] (69)
1751  00                 [139] (71)
1752  00                 [140] (71)
1753  1A                 [141] (72)
1754  01                 [142] (72)
1755  00                 [143] (72)
1756  00                 [144] (72)
1757  1A                 [145] (72)
1758  01                 [146] (74)
1759  00                 [147] (74)
175A  00                 [148] (74)
175B  1B                 [149] (74)
175C  01                 [150] (76)
175D  00                 [151] (76)
175E  00                 [152] (76)
175F  1B                 [153] (76)
1760  01                 [154] (69)
1761  00                 [155] (82)
                         * locals:
1933  00                 sizelocvars (0)
                         * upvalues:
1934  00                 sizeupvalues (0)
                         ** end of function **

                         
1935                     ** function [9] definition (level 2)
                         ** start of function **
1935  00                 string size (0)
                         source name: (none)
1937  02                 line defined (340)
1938  E4                 last line defined (356)
1939  02                 nups (0)
193A  00                 numparams (1)
193B  01                 is_vararg (0)
193C  00                 maxstacksize (12)
                         * code:
193E  2C                 sizecode (44)
193F  59000000           [01] loadk      1   0        ; 0
1943  9D400000           [02] getglobal  2   1        ; gRegion
1947  A4804001           [03] self       2   2   258  ; 152279552
194B  1DC10000           [04] getglobal  4   3        ; gZoneAttribsType
194F  A2808001           [05] call       2   3   2  
1953  DD000100           [06] getglobal  3   4        ; 1672515847
1957  12010001           [07] move       4   2      
195B  E2000101           [08] call       3   2   4  
195F  1A800780           [09] jmp        31           ; to [41]
1963  2442C103           [10] self       8   7   261  ; 1927666530
1967  22820001           [11] call       8   2   2  
196B  5D820100           [12] getglobal  9   6        ; 1074689893
196F  92020004           [13] move       10  8      
1973  62820001           [14] call       9   2   2  
1977  58420000           [15] test       9       1    ; to [17] if false
197B  1AC00580           [16] jmp        24           ; to [41]
197F  64C24104           [17] self       9   8   263  ; -830264577
1983  62820001           [18] call       9   2   2  
1987  9D820100           [19] getglobal  10  6        ; 1074689893
198B  D2020000           [20] move       11  0      
198F  A2820001           [21] call       10  2   2  
1993  98420000           [22] test       10      1    ; to [24] if false
1997  1A400080           [23] jmp        2            ; to [26]
fail op	35
199B  23008004           [24] close      0  
199F  1A800380           [25] jmp        15           ; to [41]
19A3  A402C203           [26] self       10  7   264  ; 387413239
19A7  A2820001           [27] call       10  2   2  
19AB  98420000           [28] test       10      1    ; to [30] if false
19AF  1A800280           [29] jmp        11           ; to [41]
19B3  A442C203           [30] self       10  7   265  ; -164607448
19B7  A2820001           [31] call       10  2   2  
19BB  A4824205           [32] self       10  10  266  ; 1590141906
19BF  A2820001           [33] call       10  2   2  
fail op	35
19C3  63C04205           [34] close      1  
19C7  1A000180           [35] jmp        5            ; to [41]
19CB  A4024304           [36] self       10  8   268  ; -2104556066
19CF  A2820001           [37] call       10  2   2  
fail op	21
19D3  15808200           [38] concat     0   1   10 
19D7  1A000080           [39] jmp        1            ; to [41]
19DB  52000005           [40] move       1   10     
19DF  D6800000           [41] tforloop   3       2    ; to [43] if exit
19E3  1A80F77F           [42] jmp        -33          ; to [10]
19E7  5E000001           [43] return     1   2      
19EB  1E008000           [44] return     0   1      
                         * constants:
19EF  0D                 sizek (13)
19F0  03                 const type 3
19F1  00000000           const [0]: (0)
19F5  04                 const type 4
19F6  08                 string size (8)
19F7  67526567696F6E00   "gRegion\0"
                         const [1]: "gRegion"
19FF  01                 const type 3
1A00  009A1309           const [2]: (152279552)
1A04  04                 const type 4
1A05  11                 string size (17)
1A06  675A6F6E65417474+  "gZoneAtt"
1A0E  7269627354797065+  "ribsType"
1A16  00                 "\0"
                         const [3]: "gZoneAttribsType"
1A17  01                 const type 3
1A18  0791B063           const [4]: (1672515847)
1A1C  01                 const type 3
1A1D  62DBE572           const [5]: (1927666530)
1A21  01                 const type 3
1A22  65770E40           const [6]: (1074689893)
1A26  01                 const type 3
1A27  FF2A83CE           const [7]: (-830264577)
1A2B  01                 const type 3
1A2C  F7741717           const [8]: (387413239)
1A30  01                 const type 3
1A31  284A30F6           const [9]: (-164607448)
1A35  01                 const type 3
1A36  D2A3C75E           const [10]: (1590141906)
1A3A  04                 const type 4
1A3B  06                 string size (6)
1A3C  466C79496E00       "FlyIn\0"
                         const [11]: "FlyIn"
1A42  01                 const type 3
1A43  DE058F82           const [12]: (-2104556066)
                         * functions:
1A47  00                 sizep (0)
                         * lines:
1A48  2C                 sizelineinfo (44)
                         [pc] (line)
1A49  55                 [01] (85)
1A4A  01                 [02] (86)
1A4B  00                 [03] (86)
1A4C  00                 [04] (86)
1A4D  56                 [05] (86)
1A4E  01                 [06] (87)
1A4F  00                 [07] (87)
1A50  00                 [08] (87)
1A51  56                 [09] (87)
1A52  01                 [10] (88)
1A53  00                 [11] (88)
1A54  00                 [12] (89)
1A55  56                 [13] (89)
1A56  01                 [14] (89)
1A57  00                 [15] (89)
1A58  00                 [16] (89)
1A59  56                 [17] (90)
1A5A  01                 [18] (90)
1A5B  00                 [19] (91)
1A5C  00                 [20] (91)
1A5D  57                 [21] (91)
1A5E  01                 [22] (91)
1A5F  00                 [23] (91)
1A60  00                 [24] (91)
1A61  57                 [25] (91)
1A62  01                 [26] (91)
1A63  00                 [27] (91)
1A64  00                 [28] (91)
1A65  57                 [29] (91)
1A66  01                 [30] (91)
1A67  00                 [31] (91)
1A68  00                 [32] (91)
1A69  57                 [33] (91)
1A6A  01                 [34] (91)
1A6B  00                 [35] (91)
1A6C  00                 [36] (92)
1A6D  58                 [37] (92)
1A6E  01                 [38] (93)
1A6F  00                 [39] (93)
1A70  00                 [40] (94)
1A71  58                 [41] (87)
1A72  01                 [42] (97)
1A73  00                 [43] (99)
1A74  00                 [44] (100)
                         * locals:
1AF9  00                 sizelocvars (0)
                         * upvalues:
1AFA  00                 sizeupvalues (0)
                         ** end of function **

                         
1AFB                     ** function [10] definition (level 2)
                         ** start of function **
1AFB  00                 string size (0)
                         source name: (none)
1AFD  02                 line defined (358)
1AFE  AA                 last line defined (426)
1AFF  03                 nups (3)
1B00  03                 numparams (2)
1B01  02                 is_vararg (0)
1B02  00                 maxstacksize (41)
                         * code:
1B05  01                 sizecode (207)
1B06  9D000000           [001] getglobal  2   0        ; 538022378
1B0A  D9400000           [002] loadk      3   1        ; 0
1B0E  A2400001           [003] call       2   2   1  
1B12  9D800000           [004] getglobal  2   2        ; gRegion
1B16  A4C04001           [005] self       2   2   259  ; -774964848
1B1A  A2800001           [006] call       2   2   2  
1B1E  A4004101           [007] self       2   2   260  ; 537471347
1B22  A2800001           [008] call       2   2   2  
1B26  E4404100           [009] self       3   0   261  ; 1927666530
1B2A  E2800001           [010] call       3   2   2  
1B2E  2481C101           [011] self       4   3   262  ; -2104556066
1B32  22810001           [012] call       4   2   2  
1B36  64C14101           [013] self       5   2   263  ; -541256264
1B3A  D2010002           [014] move       7   4      
1B3E  13020000           [015] getupval   8   0      
1B42  62810002           [016] call       5   4   2  
1B46  93018000           [017] getupval   6   1      
1B4A  A2818000           [018] call       6   1   2  
1B4E  C6018003           [019] loadnil    7   7      
1B52  1D020200           [020] getglobal  8   8        ; playerAvatar
fail op	35
1B56  23008200           [021] close      0  
1B5A  1A800A80           [022] jmp        43           ; to [66]
1B5E  19420000           [023] loadk      8   1        ; 0
1B62  52020003           [024] move       9   6      
1B66  99420000           [025] loadk      10  1        ; 0
1B6A  10020980           [026] forprep    8   37       ; to [64]
1B6E  1D430200           [027] getglobal  12  9        ; 1074689893
1B72  5D830200           [028] getglobal  13  10       ; _T
1B76  4EC3C206           [029] gettable   13  13  267  ; "SecurityOff"
1B7A  22830001           [030] call       12  2   2  
1B7E  18430000           [031] test       12      1    ; to [33] if false
1B82  1A800780           [032] jmp        31           ; to [64]
1B86  1D830200           [033] getglobal  12  10       ; _T
1B8A  0EC34206           [034] gettable   12  12  267  ; "SecurityOff"
1B8E  0EC30206           [035] gettable   12  12  11 
1B92  0A030006           [036] len        12  12     
1B96  59430000           [037] loadk      13  1        ; 0
1B9A  99030300           [038] loadk      14  12       ; 0
1B9E  10830580           [039] forprep    12  23       ; to [63]
1BA2  1D440200           [040] getglobal  16  9        ; 1074689893
1BA6  5D840200           [041] getglobal  17  10       ; _T
1BAA  4EC4C208           [042] gettable   17  17  267  ; "SecurityOff"
1BAE  4EC48208           [043] gettable   17  17  11 
1BB2  4EC48308           [044] gettable   17  17  15 
1BB6  22840001           [045] call       16  2   2  
1BBA  18440000           [046] test       16      1    ; to [48] if false
1BBE  1A800380           [047] jmp        15           ; to [63]
1BC2  1D840200           [048] getglobal  16  10       ; _T
1BC6  0EC44208           [049] gettable   16  16  267  ; "SecurityOff"
1BCA  0EC40208           [050] gettable   16  16  11 
1BCE  0EC40308           [051] gettable   16  16  15 
1BD2  24444308           [052] self       16  16  269  ; -56359878
1BD6  22840001           [053] call       16  2   2  
fail op	21
1BDA  15000487           [054] concat     0   270 16 
1BDE  1A800180           [055] jmp        7            ; to [63]
1BE2  1D840200           [056] getglobal  16  10       ; _T
1BE6  0EC44208           [057] gettable   16  16  267  ; "SecurityOff"
1BEA  0EC40208           [058] gettable   16  16  11 
1BEE  0EC40308           [059] gettable   16  16  15 
1BF2  24C44308           [060] self       16  16  271  ; 1102903757
1BF6  99040400           [061] loadk      18  16       ; 0
1BFA  22448001           [062] call       16  3   1  
1BFE  14C3F97F           [063] forloop    12  -24      ; to [40] if loop
1C02  1442F67F           [064] forloop    8   -38      ; to [27] if loop
1C06  1A002380           [065] jmp        141          ; to [207]
1C0A  24444401           [066] self       16  2   273  ; -375466777
1C0E  22840001           [067] call       16  2   2  
fail op	35
1C12  23804408           [068] close      0  
1C16  1A002280           [069] jmp        137          ; to [207]
1C1A  1D840200           [070] getglobal  16  10       ; _T
1C1E  0EC44208           [071] gettable   16  16  267  ; "SecurityOff"
1C22  0E040108           [072] gettable   16  16  4  
1C26  0A040008           [073] len        16  16     
1C2A  59440000           [074] loadk      17  1        ; 0
1C2E  99040300           [075] loadk      18  12       ; 0
1C32  10040280           [076] forprep    16  9        ; to [86]
1C36  1D850200           [077] getglobal  20  10       ; _T
1C3A  0EC5420A           [078] gettable   20  20  267  ; "SecurityOff"
1C3E  0E05010A           [079] gettable   20  20  4  
1C42  0EC5040A           [080] gettable   20  20  19 
1C46  2445430A           [081] self       20  20  269  ; -56359878
1C4A  22850001           [082] call       20  2   2  
fail op	21
1C4E  15000587           [083] concat     0   270 20 
1C52  1A000080           [084] jmp        1            ; to [86]
1C56  1E008000           [085] return     0   1      
1C5A  1444FD7F           [086] forloop    16  -10      ; to [77] if loop
1C5E  24C54401           [087] self       20  2   275  ; -1118347068
1C62  93050000           [088] getupval   22  0      
1C66  D2050002           [089] move       23  4      
1C6A  19460000           [090] loadk      24  1        ; 0
1C6E  59060300           [091] loadk      25  12       ; 0
1C72  99460000           [092] loadk      26  1        ; 0
1C76  D9060500           [093] loadk      27  20       ; 0
1C7A  22450004           [094] call       20  8   1  
1C7E  19450000           [095] loadk      20  1        ; 0
1C82  52050003           [096] move       21  6      
1C86  99450000           [097] loadk      22  1        ; 0
1C8A  10851980           [098] forprep    20  103      ; to [202]
1C8E  24C64101           [099] self       24  2   263  ; -541256264
1C92  9206800B           [100] move       26  23     
1C96  D3060000           [101] getupval   27  0      
1C9A  22860002           [102] call       24  4   2  
1C9E  D201000C           [103] move       7   24     
fail op	21
1CA2  15C00187           [104] concat     0   270 7  
1CA6  1AC00880           [105] jmp        36           ; to [142]
1CAA  1D460200           [106] getglobal  24  9        ; 1074689893
1CAE  5D860200           [107] getglobal  25  10       ; _T
1CB2  4E46C50C           [108] gettable   25  25  277  ; "SecurityOn"
1CB6  22860001           [109] call       24  2   2  
1CBA  18460000           [110] test       24      1    ; to [112] if false
1CBE  1A400780           [111] jmp        30           ; to [142]
1CC2  1D460200           [112] getglobal  24  9        ; 1074689893
1CC6  5D860200           [113] getglobal  25  10       ; _T
1CCA  4E46C50C           [114] gettable   25  25  277  ; "SecurityOn"
1CCE  4EC6850C           [115] gettable   25  25  23 
1CD2  22860001           [116] call       24  2   2  
1CD6  18460000           [117] test       24      1    ; to [119] if false
1CDA  1A800580           [118] jmp        23           ; to [142]
1CDE  1D860200           [119] getglobal  24  10       ; _T
1CE2  0E46450C           [120] gettable   24  24  277  ; "SecurityOn"
1CE6  0EC6050C           [121] gettable   24  24  23 
1CEA  0A06000C           [122] len        24  24     
1CEE  59460000           [123] loadk      25  1        ; 0
1CF2  99060300           [124] loadk      26  12       ; 0
1CF6  10860380           [125] forprep    24  15       ; to [141]
1CFA  1D470200           [126] getglobal  28  9        ; 1074689893
1CFE  5D870200           [127] getglobal  29  10       ; _T
1D02  4E47C50E           [128] gettable   29  29  277  ; "SecurityOn"
1D06  4EC7850E           [129] gettable   29  29  23 
1D0A  4EC7860E           [130] gettable   29  29  27 
1D0E  22870001           [131] call       28  2   2  
1D12  18470000           [132] test       28      1    ; to [134] if false
1D16  1A800180           [133] jmp        7            ; to [141]
1D1A  1D870200           [134] getglobal  28  10       ; _T
1D1E  0E47450E           [135] gettable   28  28  277  ; "SecurityOn"
1D22  0EC7050E           [136] gettable   28  28  23 
1D26  0EC7060E           [137] gettable   28  28  27 
1D2A  2487450E           [138] self       28  28  278  ; -1923578185
1D2E  99C70500           [139] loadk      30  23       ; "TriggerPort"
1D32  22478001           [140] call       28  3   1  
1D36  14C6FB7F           [141] forloop    24  -16      ; to [126] if loop
fail op	21
1D3A  15C00187           [142] concat     0   270 7  
1D3E  1A400E80           [143] jmp        58           ; to [202]
1D42  1D470200           [144] getglobal  28  9        ; 1074689893
1D46  5D870200           [145] getglobal  29  10       ; _T
1D4A  4E07C60E           [146] gettable   29  29  280  ; "FortressCameras"
1D4E  22870001           [147] call       28  2   2  
1D52  18470000           [148] test       28      1    ; to [150] if false
1D56  1AC00C80           [149] jmp        52           ; to [202]
1D5A  1D470200           [150] getglobal  28  9        ; 1074689893
1D5E  5D870200           [151] getglobal  29  10       ; _T
1D62  4E07C60E           [152] gettable   29  29  280  ; "FortressCameras"
1D66  4EC7850E           [153] gettable   29  29  23 
1D6A  22870001           [154] call       28  2   2  
1D6E  18470000           [155] test       28      1    ; to [157] if false
1D72  1A000B80           [156] jmp        45           ; to [202]
1D76  1D870200           [157] getglobal  28  10       ; _T
1D7A  0E07460E           [158] gettable   28  28  280  ; "FortressCameras"
1D7E  0EC7050E           [159] gettable   28  28  23 
1D82  0A07000E           [160] len        28  28     
1D86  59470000           [161] loadk      29  1        ; 0
1D8A  99070300           [162] loadk      30  12       ; 0
1D8E  10070980           [163] forprep    28  37       ; to [201]
1D92  1D480200           [164] getglobal  32  9        ; 1074689893
1D96  5D880200           [165] getglobal  33  10       ; _T
1D9A  4E08C610           [166] gettable   33  33  280  ; "FortressCameras"
1D9E  4EC88510           [167] gettable   33  33  23 
1DA2  4EC88710           [168] gettable   33  33  31 
1DA6  22880001           [169] call       32  2   2  
1DAA  18480000           [170] test       32      1    ; to [172] if false
1DAE  1A000780           [171] jmp        29           ; to [201]
1DB2  1D880200           [172] getglobal  32  10       ; _T
1DB6  0E084610           [173] gettable   32  32  280  ; "FortressCameras"
1DBA  0EC80510           [174] gettable   32  32  23 
1DBE  0EC80710           [175] gettable   32  32  31 
1DC2  24484610           [176] self       32  32  281  ; 2022702902
1DC6  22880001           [177] call       32  2   2  
1DCA  5D480200           [178] getglobal  33  9        ; 1074689893
1DCE  92080010           [179] move       34  32     
1DD2  62880001           [180] call       33  2   2  
1DD6  58480000           [181] test       33      1    ; to [183] if false
1DDA  1A400480           [182] jmp        18           ; to [201]
1DDE  64884610           [183] self       33  32  282  ; -1411785325
1DE2  62880001           [184] call       33  2   2  
1DE6  A4484110           [185] self       34  32  261  ; 1927666530
1DEA  A2880001           [186] call       34  2   2  
1DEE  E4884111           [187] self       35  34  262  ; -2104556066
1DF2  E2880001           [188] call       35  2   2  
fail op	35
1DF6  23C08511           [189] close      0  
1DFA  1A400280           [190] jmp        10           ; to [201]
1DFE  24C9C610           [191] self       36  33  283  ; 1038470555
1E02  97098000           [192] loadbool   38  1   0    ; true
1E06  DD090700           [193] getglobal  39  28       ; -332969190
1E0A  194A0700           [194] loadk      40  29       ; "SleepState"
1E0E  E2090001           [195] call       39  2   0  
1E12  22490000           [196] call       36  0   1  
1E16  13090001           [197] getupval   36  2      
1E1A  52090010           [198] move       37  32     
1E1E  97090000           [199] loadbool   38  0   0    ; false
1E22  22498001           [200] call       36  3   1  
1E26  1447F67F           [201] forloop    28  -38      ; to [164] if loop
1E2A  14C5E57F           [202] forloop    20  -104     ; to [99] if loop
1E2E  24894701           [203] self       36  2   286  ; 1585168704
1E32  93090000           [204] getupval   38  0      
1E36  D2090002           [205] move       39  4      
1E3A  22490002           [206] call       36  4   1  
1E3E  1E008000           [207] return     0   1      
                         * constants:
1E42  1F                 sizek (31)
1E43  01                 const type 3
1E44  EA911120           const [0]: (538022378)
1E48  03                 const type 3
1E49  0000803F           const [1]: (0)
1E4D  04                 const type 4
1E4E  08                 string size (8)
1E4F  67526567696F6E00   "gRegion\0"
                         const [2]: "gRegion"
1E57  01                 const type 3
1E58  90F9CED1           const [3]: (-774964848)
1E5C  01                 const type 3
1E5D  73290920           const [4]: (537471347)
1E61  01                 const type 3
1E62  62DBE572           const [5]: (1927666530)
1E66  01                 const type 3
1E67  DE058F82           const [6]: (-2104556066)
1E6B  01                 const type 3
1E6C  B815BDDF           const [7]: (-541256264)
1E70  04                 const type 4
1E71  0D                 string size (13)
1E72  706C617965724176+  "playerAv"
1E7A  6174617200         "atar\0"
                         const [8]: "playerAvatar"
1E7F  01                 const type 3
1E80  65770E40           const [9]: (1074689893)
1E84  04                 const type 4
1E85  03                 string size (3)
1E86  5F5400             "_T\0"
                         const [10]: "_T"
1E89  04                 const type 4
1E8A  0C                 string size (12)
1E8B  5365637572697479+  "Security"
1E93  4F666600           "Off\0"
                         const [11]: "SecurityOff"
1E97  03                 const type 3
1E98  000080BF           const [12]: (0)
1E9C  01                 const type 3
1E9D  3A04A4FC           const [13]: (-56359878)
1EA1  03                 const type 3
1EA2  00000000           const [14]: (0)
1EA6  01                 const type 3
1EA7  CDF9BC41           const [15]: (1102903757)
1EAB  03                 const type 3
1EAC  0000003F           const [16]: (0)
1EB0  01                 const type 3
1EB1  E7D49EE9           const [17]: (-375466777)
1EB5  01                 const type 3
1EB6  01000000           const [18]: (1)
1EBA  01                 const type 3
1EBB  C46057BD           const [19]: (-1118347068)
1EBF  03                 const type 3
1EC0  00000040           const [20]: (0)
1EC4  04                 const type 4
1EC5  0B                 string size (11)
1EC6  5365637572697479+  "Security"
1ECE  4F6E00             "On\0"
                         const [21]: "SecurityOn"
1ED1  01                 const type 3
1ED2  B786588D           const [22]: (-1923578185)
1ED6  04                 const type 4
1ED7  0C                 string size (12)
1ED8  5472696767657250+  "TriggerP"
1EE0  6F727400           "ort\0"
                         const [23]: "TriggerPort"
1EE4  04                 const type 4
1EE5  10                 string size (16)
1EE6  466F727472657373+  "Fortress"
1EEE  43616D6572617300   "Cameras\0"
                         const [24]: "FortressCameras"
1EF6  01                 const type 3
1EF7  36FF8F78           const [25]: (2022702902)
1EFB  01                 const type 3
1EFC  93DDD9AB           const [26]: (-1411785325)
1F00  01                 const type 3
1F01  9BCDE53D           const [27]: (1038470555)
1F05  01                 const type 3
1F06  1A4B27EC           const [28]: (-332969190)
1F0A  04                 const type 4
1F0B  0B                 string size (11)
1F0C  536C656570537461+  "SleepSta"
1F14  746500             "te\0"
                         const [29]: "SleepState"
1F17  01                 const type 3
1F18  40C17B5E           const [30]: (1585168704)
                         * functions:
1F1C  00                 sizep (0)
                         * lines:
1F1E  01                 sizelineinfo (207)
                         [pc] (line)
1F1F  68                 [001] (104)
1F20  01                 [002] (104)
1F21  00                 [003] (104)
1F22  00                 [004] (105)
1F23  68                 [005] (105)
1F24  01                 [006] (105)
1F25  00                 [007] (105)
1F26  00                 [008] (105)
1F27  68                 [009] (106)
1F28  01                 [010] (106)
1F29  00                 [011] (107)
1F2A  00                 [012] (107)
1F2B  69                 [013] (108)
1F2C  01                 [014] (108)
1F2D  00                 [015] (108)
1F2E  00                 [016] (108)
1F2F  69                 [017] (109)
1F30  01                 [018] (109)
1F31  00                 [019] (110)
1F32  00                 [020] (112)
1F33  69                 [021] (112)
1F34  01                 [022] (112)
1F35  00                 [023] (113)
1F36  00                 [024] (113)
1F37  69                 [025] (113)
1F38  01                 [026] (113)
1F39  00                 [027] (114)
1F3A  00                 [028] (114)
1F3B  69                 [029] (114)
1F3C  01                 [030] (114)
1F3D  00                 [031] (114)
1F3E  00                 [032] (114)
1F3F  6A                 [033] (115)
1F40  01                 [034] (115)
1F41  00                 [035] (115)
1F42  00                 [036] (115)
1F43  6A                 [037] (115)
1F44  01                 [038] (115)
1F45  00                 [039] (115)
1F46  00                 [040] (116)
1F47  6B                 [041] (116)
1F48  01                 [042] (116)
1F49  00                 [043] (116)
1F4A  00                 [044] (116)
1F4B  6B                 [045] (116)
1F4C  01                 [046] (116)
1F4D  00                 [047] (116)
1F4E  00                 [048] (117)
1F4F  6C                 [049] (117)
1F50  01                 [050] (117)
1F51  00                 [051] (117)
1F52  00                 [052] (117)
1F53  6C                 [053] (117)
1F54  01                 [054] (117)
1F55  00                 [055] (117)
1F56  00                 [056] (118)
1F57  6C                 [057] (118)
1F58  01                 [058] (118)
1F59  00                 [059] (118)
1F5A  00                 [060] (118)
1F5B  6C                 [061] (118)
1F5C  01                 [062] (118)
1F5D  00                 [063] (115)
1F5E  00                 [064] (113)
1F5F  6D                 [065] (123)
1F60  01                 [066] (124)
1F61  00                 [067] (124)
1F62  00                 [068] (124)
1F63  6D                 [069] (124)
1F64  01                 [070] (126)
1F65  00                 [071] (126)
1F66  00                 [072] (126)
1F67  6E                 [073] (126)
1F68  01                 [074] (126)
1F69  00                 [075] (126)
1F6A  00                 [076] (126)
1F6B  70                 [077] (127)
1F6C  01                 [078] (127)
1F6D  00                 [079] (127)
1F6E  00                 [080] (127)
1F6F  70                 [081] (127)
1F70  01                 [082] (127)
1F71  00                 [083] (127)
1F72  00                 [084] (127)
1F73  70                 [085] (-128)
1F74  01                 [086] (126)
1F75  00                 [087] (-124)
1F76  00                 [088] (-124)
1F77  71                 [089] (-124)
1F78  01                 [090] (-124)
1F79  00                 [091] (-124)
1F7A  00                 [092] (-124)
1F7B  71                 [093] (-124)
1F7C  01                 [094] (-124)
1F7D  00                 [095] (-122)
1F7E  00                 [096] (-122)
1F7F  71                 [097] (-122)
1F80  01                 [098] (-122)
1F81  00                 [099] (-121)
1F82  00                 [100] (-121)
1F83  71                 [101] (-121)
1F84  01                 [102] (-121)
1F85  00                 [103] (-121)
1F86  00                 [104] (-120)
1F87  72                 [105] (-120)
1F88  01                 [106] (-120)
1F89  00                 [107] (-120)
1F8A  00                 [108] (-120)
1F8B  72                 [109] (-120)
1F8C  01                 [110] (-120)
1F8D  00                 [111] (-120)
1F8E  00                 [112] (-119)
1F8F  72                 [113] (-119)
1F90  01                 [114] (-119)
1F91  00                 [115] (-119)
1F92  00                 [116] (-119)
1F93  72                 [117] (-119)
1F94  01                 [118] (-119)
1F95  00                 [119] (-118)
1F96  00                 [120] (-118)
1F97  72                 [121] (-118)
1F98  01                 [122] (-118)
1F99  00                 [123] (-118)
1F9A  00                 [124] (-118)
1F9B  72                 [125] (-118)
1F9C  01                 [126] (-116)
1F9D  00                 [127] (-116)
1F9E  00                 [128] (-116)
1F9F  73                 [129] (-116)
1FA0  01                 [130] (-116)
1FA1  00                 [131] (-116)
1FA2  00                 [132] (-116)
1FA3  73                 [133] (-116)
1FA4  01                 [134] (-115)
1FA5  00                 [135] (-115)
1FA6  00                 [136] (-115)
1FA7  73                 [137] (-115)
1FA8  01                 [138] (-115)
1FA9  00                 [139] (-115)
1FAA  00                 [140] (-115)
1FAB  73                 [141] (-118)
1FAC  01                 [142] (-108)
1FAD  00                 [143] (-108)
1FAE  00                 [144] (-108)
1FAF  73                 [145] (-108)
1FB0  01                 [146] (-108)
1FB1  00                 [147] (-108)
1FB2  00                 [148] (-108)
1FB3  73                 [149] (-108)
1FB4  01                 [150] (-107)
1FB5  00                 [151] (-107)
1FB6  00                 [152] (-107)
1FB7  73                 [153] (-107)
1FB8  01                 [154] (-107)
1FB9  00                 [155] (-107)
1FBA  00                 [156] (-107)
1FBB  74                 [157] (-106)
1FBC  01                 [158] (-106)
1FBD  00                 [159] (-106)
1FBE  00                 [160] (-106)
1FBF  74                 [161] (-106)
1FC0  01                 [162] (-106)
1FC1  00                 [163] (-106)
1FC2  00                 [164] (-105)
1FC3  74                 [165] (-105)
1FC4  01                 [166] (-105)
1FC5  00                 [167] (-105)
1FC6  00                 [168] (-105)
1FC7  74                 [169] (-105)
1FC8  01                 [170] (-105)
1FC9  00                 [171] (-105)
1FCA  00                 [172] (-104)
1FCB  74                 [173] (-104)
1FCC  01                 [174] (-104)
1FCD  00                 [175] (-104)
1FCE  00                 [176] (-104)
1FCF  74                 [177] (-104)
1FD0  01                 [178] (-103)
1FD1  00                 [179] (-103)
1FD2  00                 [180] (-103)
1FD3  74                 [181] (-103)
1FD4  01                 [182] (-103)
1FD5  00                 [183] (-102)
1FD6  00                 [184] (-102)
1FD7  74                 [185] (-101)
1FD8  01                 [186] (-101)
1FD9  00                 [187] (-100)
1FDA  00                 [188] (-100)
1FDB  75                 [189] (-99)
1FDC  01                 [190] (-99)
1FDD  00                 [191] (-98)
1FDE  00                 [192] (-98)
1FDF  75                 [193] (-98)
1FE0  01                 [194] (-98)
1FE1  00                 [195] (-98)
1FE2  00                 [196] (-98)
1FE3  75                 [197] (-97)
1FE4  01                 [198] (-97)
1FE5  00                 [199] (-97)
1FE6  00                 [200] (-97)
1FE7  75                 [201] (-106)
1FE8  01                 [202] (-122)
1FE9  00                 [203] (-88)
1FEA  00                 [204] (-88)
1FEB  75                 [205] (-88)
1FEC  01                 [206] (-88)
1FED  00                 [207] (-86)
                         * locals:
225B  00                 sizelocvars (0)
                         * upvalues:
225C  00                 sizeupvalues (0)
                         ** end of function **

                         
225D                     ** function [11] definition (level 2)
                         ** start of function **
225D  00                 string size (0)
                         source name: (none)
225F  03                 line defined (428)
2260  B3                 last line defined (435)
2261  03                 nups (1)
2262  01                 numparams (3)
2263  03                 is_vararg (0)
2264  00                 maxstacksize (7)
                         * code:
2266  17                 sizecode (23)
2267  DD000000           [01] getglobal  3   0        ; gRegion
226B  E440C001           [02] self       3   3   257  ; -1520831144
226F  E2800001           [03] call       3   2   2  
2273  D8400000           [04] test       3       1    ; to [6] if false
2277  1A000080           [05] jmp        1            ; to [7]
227B  1E008000           [06] return     0   1      
227F  DD800000           [07] getglobal  3   2        ; 1074689893
2283  24C14000           [08] self       4   0   259  ; -1411785325
2287  22010001           [09] call       4   2   0  
228B  E2800000           [10] call       3   0   2  
228F  D8000000           [11] test       3       0    ; to [13] if true
2293  1AC00080           [12] jmp        4            ; to [17]
fail op	35
2297  6300C100           [13] close      1  
229B  1A400080           [14] jmp        2            ; to [17]
fail op	35
229F  2340C100           [15] close      0  
22A3  1A400180           [16] jmp        6            ; to [23]
22A7  D3000000           [17] getupval   3   0      
22AB  CE80C101           [18] gettable   3   3   262  ; -1527005815
22AF  12010000           [19] move       4   0      
22B3  52010001           [20] move       5   2      
22B7  9DC10100           [21] getglobal  6   7        ; alarmBank
22BB  E2400002           [22] call       3   4   1  
22BF  1E008000           [23] return     0   1      
                         * constants:
22C3  08                 sizek (8)
22C4  04                 const type 4
22C5  08                 string size (8)
22C6  67526567696F6E00   "gRegion\0"
                         const [0]: "gRegion"
22CE  01                 const type 3
22CF  58F559A5           const [1]: (-1520831144)
22D3  01                 const type 3
22D4  65770E40           const [2]: (1074689893)
22D8  01                 const type 3
22D9  93DDD9AB           const [3]: (-1411785325)
22DD  00                 const type 0
                         const [4]: nil
22DE  03                 const type 3
22DF  0000803F           const [5]: (0)
22E3  01                 const type 3
22E4  89BDFBA4           const [6]: (-1527005815)
22E8  04                 const type 4
22E9  0A                 string size (10)
22EA  616C61726D42616E+  "alarmBan"
22F2  6B00               "k\0"
                         const [7]: "alarmBank"
                         * functions:
22F4  00                 sizep (0)
                         * lines:
22F5  17                 sizelineinfo (23)
                         [pc] (line)
22F6  AD                 [01] (-83)
22F7  01                 [02] (-83)
22F8  00                 [03] (-83)
22F9  00                 [04] (-83)
22FA  AD                 [05] (-83)
22FB  01                 [06] (-82)
22FC  00                 [07] (-80)
22FD  00                 [08] (-80)
22FE  AD                 [09] (-80)
22FF  01                 [10] (-80)
2300  00                 [11] (-80)
2301  00                 [12] (-80)
2302  AD                 [13] (-80)
2303  01                 [14] (-80)
2304  00                 [15] (-80)
2305  00                 [16] (-80)
2306  AD                 [17] (-79)
2307  01                 [18] (-79)
2308  00                 [19] (-79)
2309  00                 [20] (-79)
230A  AE                 [21] (-79)
230B  01                 [22] (-79)
230C  00                 [23] (-77)
                         * locals:
2352  00                 sizelocvars (0)
                         * upvalues:
2353  00                 sizeupvalues (0)
                         ** end of function **

                         
2354                     ** function [12] definition (level 2)
                         ** start of function **
2354  00                 string size (0)
                         source name: (none)
2356  03                 line defined (437)
2357  C8                 last line defined (456)
2358  03                 nups (2)
2359  02                 numparams (3)
235A  03                 is_vararg (0)
235B  00                 maxstacksize (8)
                         * code:
235D  27                 sizecode (39)
235E  DD000000           [01] getglobal  3   0        ; gRegion
2362  E440C001           [02] self       3   3   257  ; -1520831144
2366  E2800001           [03] call       3   2   2  
236A  D8400000           [04] test       3       1    ; to [6] if false
236E  1A000080           [05] jmp        1            ; to [7]
2372  1E008000           [06] return     0   1      
2376  DD800000           [07] getglobal  3   2        ; 1074689893
237A  24C14000           [08] self       4   0   259  ; -1411785325
237E  22010001           [09] call       4   2   0  
2382  E2800000           [10] call       3   0   2  
2386  D8400000           [11] test       3       1    ; to [13] if false
238A  1A000080           [12] jmp        1            ; to [14]
238E  59000100           [13] loadk      1   4        ; 0
fail op	35
2392  2340C100           [14] close      0  
2396  1A000080           [15] jmp        1            ; to [17]
239A  59000100           [16] loadk      1   4        ; 0
fail op	35
239E  2300C100           [17] close      0  
23A2  1AC00480           [18] jmp        20           ; to [39]
23A6  D3000000           [19] getupval   3   0      
23AA  CE80C101           [20] gettable   3   3   262  ; -1527005815
23AE  12010000           [21] move       4   0      
23B2  52010001           [22] move       5   2      
23B6  9DC10100           [23] getglobal  6   7        ; alarmBank
23BA  E2400002           [24] call       3   4   1  
23BE  DD800000           [25] getglobal  3   2        ; 1074689893
23C2  1D010000           [26] getglobal  4   0        ; gRegion
23C6  24014202           [27] self       4   4   264  ; -1485896174
23CA  9D410200           [28] getglobal  6   9        ; -332969190
23CE  D9810200           [29] loadk      7   10       ; "SecurityOn"
23D2  A2010001           [30] call       6   2   0  
23D6  22010000           [31] call       4   0   0  
23DA  E2800000           [32] call       3   0   2  
23DE  D8400000           [33] test       3       1    ; to [35] if false
23E2  1AC00080           [34] jmp        4            ; to [39]
23E6  D3008000           [35] getupval   3   1      
23EA  12010001           [36] move       4   2      
23EE  52010000           [37] move       5   0      
23F2  E2408001           [38] call       3   3   1  
23F6  1E008000           [39] return     0   1      
                         * constants:
23FA  0B                 sizek (11)
23FB  04                 const type 4
23FC  08                 string size (8)
23FD  67526567696F6E00   "gRegion\0"
                         const [0]: "gRegion"
2405  01                 const type 3
2406  58F559A5           const [1]: (-1520831144)
240A  01                 const type 3
240B  65770E40           const [2]: (1074689893)
240F  01                 const type 3
2410  93DDD9AB           const [3]: (-1411785325)
2414  03                 const type 3
2415  0000803F           const [4]: (0)
2419  00                 const type 0
                         const [5]: nil
241A  01                 const type 3
241B  89BDFBA4           const [6]: (-1527005815)
241F  04                 const type 4
2420  0A                 string size (10)
2421  616C61726D42616E+  "alarmBan"
2429  6B00               "k\0"
                         const [7]: "alarmBank"
242B  01                 const type 3
242C  12066FA7           const [8]: (-1485896174)
2430  01                 const type 3
2431  1A4B27EC           const [9]: (-332969190)
2435  04                 const type 4
2436  0B                 string size (11)
2437  5365637572697479+  "Security"
243F  4F6E00             "On\0"
                         const [10]: "SecurityOn"
                         * functions:
2442  00                 sizep (0)
                         * lines:
2443  27                 sizelineinfo (39)
                         [pc] (line)
2444  B6                 [01] (-74)
2445  01                 [02] (-74)
2446  00                 [03] (-74)
2447  00                 [04] (-74)
2448  B6                 [05] (-74)
2449  01                 [06] (-73)
244A  00                 [07] (-70)
244B  00                 [08] (-70)
244C  B6                 [09] (-70)
244D  01                 [10] (-70)
244E  00                 [11] (-70)
244F  00                 [12] (-70)
2450  B6                 [13] (-69)
2451  01                 [14] (-67)
2452  00                 [15] (-67)
2453  00                 [16] (-66)
2454  B6                 [17] (-63)
2455  01                 [18] (-63)
2456  00                 [19] (-62)
2457  00                 [20] (-62)
2458  B7                 [21] (-62)
2459  01                 [22] (-62)
245A  00                 [23] (-62)
245B  00                 [24] (-62)
245C  BA                 [25] (-61)
245D  01                 [26] (-61)
245E  00                 [27] (-61)
245F  00                 [28] (-61)
2460  BA                 [29] (-61)
2461  01                 [30] (-61)
2462  00                 [31] (-61)
2463  00                 [32] (-61)
2464  BA                 [33] (-61)
2465  01                 [34] (-61)
2466  00                 [35] (-60)
2467  00                 [36] (-60)
2468  BA                 [37] (-60)
2469  01                 [38] (-60)
246A  00                 [39] (-56)
                         * locals:
24E0  00                 sizelocvars (0)
                         * upvalues:
24E1  00                 sizeupvalues (0)
                         ** end of function **

                         
24E2                     ** function [13] definition (level 2)
                         ** start of function **
24E2  00                 string size (0)
                         source name: (none)
24E4  03                 line defined (458)
24E5  EA                 last line defined (490)
24E6  03                 nups (0)
24E7  00                 numparams (1)
24E8  01                 is_vararg (0)
24E9  00                 maxstacksize (20)
                         * code:
24EB  56                 sizecode (86)
24EC  64004000           [01] self       1   0   256  ; 1525877273
24F0  62800001           [02] call       1   2   2  
24F4  9D400000           [03] getglobal  2   1        ; 1074689893
24F8  D2008000           [04] move       3   1      
24FC  A2800001           [05] call       2   2   2  
2500  98400000           [06] test       2       1    ; to [8] if false
2504  1A400180           [07] jmp        6            ; to [14]
2508  A480C000           [08] self       2   1   258  ; -847416010
250C  1DC10000           [09] getglobal  4   3        ; HBColorCorrection
2510  59010100           [10] loadk      5   4        ; 0
2514  99410100           [11] loadk      6   5        ; 0
2518  D9810100           [12] loadk      7   6        ; 0
251C  A2400003           [13] call       2   6   1  
2520  A4C04100           [14] self       2   0   263  ; -1201586349
2524  A2800001           [15] call       2   2   2  
2528  98000000           [16] test       2       0    ; to [18] if true
252C  1AC01080           [17] jmp        68           ; to [86]
2530  9D400000           [18] getglobal  2   1        ; 1074689893
2534  DD000200           [19] getglobal  3   8        ; occlusionFilter
2538  A2800001           [20] call       2   2   2  
253C  98400000           [21] test       2       1    ; to [23] if false
2540  1A000180           [22] jmp        5            ; to [28]
2544  9D400000           [23] getglobal  2   1        ; 1074689893
2548  DD400200           [24] getglobal  3   9        ; mixerArray
254C  A2800001           [25] call       2   2   2  
2550  98000000           [26] test       2       0    ; to [28] if true
2554  1A000080           [27] jmp        1            ; to [29]
2558  1E008000           [28] return     0   1      
255C  9D800200           [29] getglobal  2   10       ; fadeInTime
fail op	21
2560  15800083           [30] concat     0   262 2  
2564  1A400780           [31] jmp        30           ; to [62]
2568  99C00200           [32] loadk      2   11       ; 0
fail op	21
256C  15800083           [33] concat     0   262 2  
2570  1A800980           [34] jmp        39           ; to [74]
2574  DD000300           [35] getglobal  3   12       ; -1828500651
2578  1D410300           [36] getglobal  4   13       ; filterAmount
257C  59810100           [37] loadk      5   6        ; 0
2580  92010001           [38] move       6   2      
2584  E2800002           [39] call       3   4   2  
2588  19C10200           [40] loadk      4   11       ; 0
258C  5D410200           [41] getglobal  5   9        ; mixerArray
2590  4A018002           [42] len        5   5      
2594  99C10200           [43] loadk      6   11       ; 0
2598  10410180           [44] forprep    4   6        ; to [51]
259C  1D420200           [45] getglobal  8   9        ; mixerArray
25A0  0EC20104           [46] gettable   8   8   7  
25A4  24824304           [47] self       8   8   270  ; 2082221548
25A8  9D020200           [48] getglobal  10  8        ; occlusionFilter
25AC  D2028001           [49] move       11  3      
25B0  22420002           [50] call       8   4   1  
25B4  1401FE7F           [51] forloop    4   -7       ; to [45] if loop
25B8  1DC20300           [52] getglobal  8   15       ; 1661359502
25BC  22828000           [53] call       8   1   2  
25C0  5D820200           [54] getglobal  9   10       ; fadeInTime
25C4  1C420204           [55] div        8   8   9  
25C8  8D000201           [56] sub        2   2   8  
25CC  1D020400           [57] getglobal  8   16       ; 538022378
25D0  59820100           [58] loadk      9   6        ; 0
25D4  22420001           [59] call       8   2   1  
25D8  1AC0F87F           [60] jmp        -28          ; to [33]
25DC  1AC00280           [61] jmp        12           ; to [74]
25E0  19C20200           [62] loadk      8   11       ; 0
25E4  5D420200           [63] getglobal  9   9        ; mixerArray
25E8  4A028004           [64] len        9   9      
25EC  99C20200           [65] loadk      10  11       ; 0
25F0  10420180           [66] forprep    8   6        ; to [73]
25F4  1D430200           [67] getglobal  12  9        ; mixerArray
25F8  0EC30206           [68] gettable   12  12  11 
25FC  24834306           [69] self       12  12  270  ; 2082221548
2600  9D030200           [70] getglobal  14  8        ; occlusionFilter
2604  DD430300           [71] getglobal  15  13       ; filterAmount
2608  22430002           [72] call       12  4   1  
260C  1402FE7F           [73] forloop    8   -7       ; to [67] if loop
2610  19C30200           [74] loadk      12  11       ; 0
2614  5D430200           [75] getglobal  13  9        ; mixerArray
2618  4A038006           [76] len        13  13     
261C  99C30200           [77] loadk      14  11       ; 0
2620  10430180           [78] forprep    12  6        ; to [85]
2624  1D440200           [79] getglobal  16  9        ; mixerArray
2628  0EC40308           [80] gettable   16  16  15 
262C  24844308           [81] self       16  16  270  ; 2082221548
2630  9D040200           [82] getglobal  18  8        ; occlusionFilter
2634  DD440300           [83] getglobal  19  13       ; filterAmount
2638  22440002           [84] call       16  4   1  
263C  1403FE7F           [85] forloop    12  -7       ; to [79] if loop
2640  1E008000           [86] return     0   1      
                         * constants:
2644  11                 sizek (17)
2645  01                 const type 3
2646  190AF35A           const [0]: (1525877273)
264A  01                 const type 3
264B  65770E40           const [1]: (1074689893)
264F  01                 const type 3
2650  36757DCD           const [2]: (-847416010)
2654  04                 const type 4
2655  12                 string size (18)
2656  4842436F6C6F7243+  "HBColorC"
265E  6F7272656374696F+  "orrectio"
2666  6E00               "n\0"
                         const [3]: "HBColorCorrection"
2668  03                 const type 3
2669  00004040           const [4]: (0)
266D  03                 const type 3
266E  000080BF           const [5]: (0)
2672  03                 const type 3
2673  00000000           const [6]: (0)
2677  01                 const type 3
2678  533F61B8           const [7]: (-1201586349)
267C  04                 const type 4
267D  10                 string size (16)
267E  6F63636C7573696F+  "occlusio"
2686  6E46696C74657200   "nFilter\0"
                         const [8]: "occlusionFilter"
268E  04                 const type 4
268F  0B                 string size (11)
2690  6D69786572417272+  "mixerArr"
2698  617900             "ay\0"
                         const [9]: "mixerArray"
269B  04                 const type 4
269C  0B                 string size (11)
269D  66616465496E5469+  "fadeInTi"
26A5  6D6500             "me\0"
                         const [10]: "fadeInTime"
26A8  03                 const type 3
26A9  0000803F           const [11]: (0)
26AD  01                 const type 3
26AE  554B0393           const [12]: (-1828500651)
26B2  04                 const type 4
26B3  0D                 string size (13)
26B4  66696C746572416D+  "filterAm"
26BC  6F756E7400         "ount\0"
                         const [13]: "filterAmount"
26C1  01                 const type 3
26C2  EC2D1C7C           const [14]: (2082221548)
26C6  01                 const type 3
26C7  8E550663           const [15]: (1661359502)
26CB  01                 const type 3
26CC  EA911120           const [16]: (538022378)
                         * functions:
26D0  00                 sizep (0)
                         * lines:
26D1  56                 sizelineinfo (86)
                         [pc] (line)
26D2  CB                 [01] (-53)
26D3  01                 [02] (-53)
26D4  00                 [03] (-51)
26D5  00                 [04] (-51)
26D6  CB                 [05] (-51)
26D7  01                 [06] (-51)
26D8  00                 [07] (-51)
26D9  00                 [08] (-50)
26DA  CD                 [09] (-50)
26DB  01                 [10] (-50)
26DC  00                 [11] (-50)
26DD  00                 [12] (-50)
26DE  CD                 [13] (-50)
26DF  01                 [14] (-47)
26E0  00                 [15] (-47)
26E1  00                 [16] (-47)
26E2  CD                 [17] (-47)
26E3  01                 [18] (-46)
26E4  00                 [19] (-46)
26E5  00                 [20] (-46)
26E6  CD                 [21] (-46)
26E7  01                 [22] (-46)
26E8  00                 [23] (-46)
26E9  00                 [24] (-46)
26EA  CD                 [25] (-46)
26EB  01                 [26] (-46)
26EC  00                 [27] (-46)
26ED  00                 [28] (-45)
26EE  CE                 [29] (-42)
26EF  01                 [30] (-42)
26F0  00                 [31] (-42)
26F1  00                 [32] (-41)
26F2  CE                 [33] (-40)
26F3  01                 [34] (-40)
26F4  00                 [35] (-39)
26F5  00                 [36] (-39)
26F6  CE                 [37] (-39)
26F7  01                 [38] (-39)
26F8  00                 [39] (-39)
26F9  00                 [40] (-38)
26FA  CE                 [41] (-38)
26FB  01                 [42] (-38)
26FC  00                 [43] (-38)
26FD  00                 [44] (-38)
26FE  CE                 [45] (-37)
26FF  01                 [46] (-37)
2700  00                 [47] (-37)
2701  00                 [48] (-37)
2702  CE                 [49] (-37)
2703  01                 [50] (-37)
2704  00                 [51] (-38)
2705  00                 [52] (-35)
2706  D1                 [53] (-35)
2707  01                 [54] (-35)
2708  00                 [55] (-35)
2709  00                 [56] (-35)
270A  D1                 [57] (-34)
270B  01                 [58] (-34)
270C  00                 [59] (-34)
270D  00                 [60] (-34)
270E  D1                 [61] (-33)
270F  01                 [62] (-31)
2710  00                 [63] (-31)
2711  00                 [64] (-31)
2712  D1                 [65] (-31)
2713  01                 [66] (-31)
2714  00                 [67] (-30)
2715  00                 [68] (-30)
2716  D2                 [69] (-30)
2717  01                 [70] (-30)
2718  00                 [71] (-30)
2719  00                 [72] (-30)
271A  D2                 [73] (-31)
271B  01                 [74] (-26)
271C  00                 [75] (-26)
271D  00                 [76] (-26)
271E  D2                 [77] (-26)
271F  01                 [78] (-26)
2720  00                 [79] (-25)
2721  00                 [80] (-25)
2722  D2                 [81] (-25)
2723  01                 [82] (-25)
2724  00                 [83] (-25)
2725  00                 [84] (-25)
2726  D2                 [85] (-26)
2727  01                 [86] (-22)
                         * locals:
282A  00                 sizelocvars (0)
                         * upvalues:
282B  00                 sizeupvalues (0)
                         ** end of function **

                         
282C                     ** function [14] definition (level 2)
                         ** start of function **
282C  00                 string size (0)
                         source name: (none)
282E  03                 line defined (492)
282F  88                 last line defined (520)
2830  04                 nups (0)
2831  00                 numparams (1)
2832  01                 is_vararg (0)
2833  00                 maxstacksize (14)
                         * code:
2835  44                 sizecode (68)
2836  64004000           [01] self       1   0   256  ; 1525877273
283A  62800001           [02] call       1   2   2  
283E  9D400000           [03] getglobal  2   1        ; 1074689893
2842  D2008000           [04] move       3   1      
2846  A2800001           [05] call       2   2   2  
284A  98400000           [06] test       2       1    ; to [8] if false
284E  1A800080           [07] jmp        3            ; to [11]
2852  A480C000           [08] self       2   1   258  ; 1612278193
2856  1DC10000           [09] getglobal  4   3        ; HBColorCorrection
285A  A2408001           [10] call       2   3   1  
285E  A4004100           [11] self       2   0   260  ; -1201586349
2862  A2800001           [12] call       2   2   2  
2866  98000000           [13] test       2       0    ; to [15] if true
286A  1A000D80           [14] jmp        53           ; to [68]
286E  9D400000           [15] getglobal  2   1        ; 1074689893
2872  DD400100           [16] getglobal  3   5        ; mixerArray
2876  A2800001           [17] call       2   2   2  
287A  98000000           [18] test       2       0    ; to [20] if true
287E  1A000080           [19] jmp        1            ; to [21]
2882  1E008000           [20] return     0   1      
2886  9D400000           [21] getglobal  2   1        ; 1074689893
288A  DD800100           [22] getglobal  3   6        ; occlusionFilter
288E  A2800001           [23] call       2   2   2  
2892  98400000           [24] test       2       1    ; to [26] if false
2896  1AC00780           [25] jmp        32           ; to [58]
289A  9DC00100           [26] getglobal  2   7        ; fadeOutTime
fail op	21
289E  15800084           [27] concat     0   264 2  
28A2  1A000780           [28] jmp        29           ; to [58]
28A6  99400200           [29] loadk      2   9        ; 0
fail op	21
28AA  15800084           [30] concat     0   264 2  
28AE  1A400680           [31] jmp        26           ; to [58]
28B2  DD800200           [32] getglobal  3   10       ; -1828500651
28B6  19010200           [33] loadk      4   8        ; 0
28BA  5DC10200           [34] getglobal  5   11       ; filterAmount
28BE  92010001           [35] move       6   2      
28C2  E2800002           [36] call       3   4   2  
28C6  19410200           [37] loadk      4   9        ; 0
28CA  5D410100           [38] getglobal  5   5        ; mixerArray
28CE  4A018002           [39] len        5   5      
28D2  99410200           [40] loadk      6   9        ; 0
28D6  10410180           [41] forprep    4   6        ; to [48]
28DA  1D420100           [42] getglobal  8   5        ; mixerArray
28DE  0EC20104           [43] gettable   8   8   7  
28E2  24024304           [44] self       8   8   268  ; 2082221548
28E6  9D820100           [45] getglobal  10  6        ; occlusionFilter
28EA  D2028001           [46] move       11  3      
28EE  22420002           [47] call       8   4   1  
28F2  1401FE7F           [48] forloop    4   -7       ; to [42] if loop
28F6  1D420300           [49] getglobal  8   13       ; 1661359502
28FA  22828000           [50] call       8   1   2  
28FE  5DC20100           [51] getglobal  9   7        ; fadeOutTime
2902  1C420204           [52] div        8   8   9  
2906  8D000201           [53] sub        2   2   8  
290A  1D820300           [54] getglobal  8   14       ; 538022378
290E  59020200           [55] loadk      9   8        ; 0
2912  22420001           [56] call       8   2   1  
2916  1AC0F87F           [57] jmp        -28          ; to [30]
291A  19420200           [58] loadk      8   9        ; 0
291E  5D420100           [59] getglobal  9   5        ; mixerArray
2922  4A028004           [60] len        9   9      
2926  99420200           [61] loadk      10  9        ; 0
292A  10C20080           [62] forprep    8   4        ; to [67]
292E  1D430100           [63] getglobal  12  5        ; mixerArray
2932  0EC30206           [64] gettable   12  12  11 
2936  24C34306           [65] self       12  12  271  ; 1112602382
293A  22430001           [66] call       12  2   1  
293E  1482FE7F           [67] forloop    8   -5       ; to [63] if loop
2942  1E008000           [68] return     0   1      
                         * constants:
2946  10                 sizek (16)
2947  01                 const type 3
2948  190AF35A           const [0]: (1525877273)
294C  01                 const type 3
294D  65770E40           const [1]: (1074689893)
2951  01                 const type 3
2952  B1691960           const [2]: (1612278193)
2956  04                 const type 4
2957  12                 string size (18)
2958  4842436F6C6F7243+  "HBColorC"
2960  6F7272656374696F+  "orrectio"
2968  6E00               "n\0"
                         const [3]: "HBColorCorrection"
296A  01                 const type 3
296B  533F61B8           const [4]: (-1201586349)
296F  04                 const type 4
2970  0B                 string size (11)
2971  6D69786572417272+  "mixerArr"
2979  617900             "ay\0"
                         const [5]: "mixerArray"
297C  04                 const type 4
297D  10                 string size (16)
297E  6F63636C7573696F+  "occlusio"
2986  6E46696C74657200   "nFilter\0"
                         const [6]: "occlusionFilter"
298E  04                 const type 4
298F  0C                 string size (12)
2990  666164654F757454+  "fadeOutT"
2998  696D6500           "ime\0"
                         const [7]: "fadeOutTime"
299C  03                 const type 3
299D  00000000           const [8]: (0)
29A1  03                 const type 3
29A2  0000803F           const [9]: (0)
29A6  01                 const type 3
29A7  554B0393           const [10]: (-1828500651)
29AB  04                 const type 4
29AC  0D                 string size (13)
29AD  66696C746572416D+  "filterAm"
29B5  6F756E7400         "ount\0"
                         const [11]: "filterAmount"
29BA  01                 const type 3
29BB  EC2D1C7C           const [12]: (2082221548)
29BF  01                 const type 3
29C0  8E550663           const [13]: (1661359502)
29C4  01                 const type 3
29C5  EA911120           const [14]: (538022378)
29C9  01                 const type 3
29CA  0EF75042           const [15]: (1112602382)
                         * functions:
29CE  00                 sizep (0)
                         * lines:
29CF  44                 sizelineinfo (68)
                         [pc] (line)
29D0  EE                 [01] (-18)
29D1  01                 [02] (-18)
29D2  00                 [03] (-17)
29D3  00                 [04] (-17)
29D4  EE                 [05] (-17)
29D5  01                 [06] (-17)
29D6  00                 [07] (-17)
29D7  00                 [08] (-16)
29D8  EF                 [09] (-16)
29D9  01                 [10] (-16)
29DA  00                 [11] (-13)
29DB  00                 [12] (-13)
29DC  EF                 [13] (-13)
29DD  01                 [14] (-13)
29DE  00                 [15] (-12)
29DF  00                 [16] (-12)
29E0  EF                 [17] (-12)
29E1  01                 [18] (-12)
29E2  00                 [19] (-12)
29E3  00                 [20] (-11)
29E4  EF                 [21] (-8)
29E5  01                 [22] (-8)
29E6  00                 [23] (-8)
29E7  00                 [24] (-8)
29E8  EF                 [25] (-8)
29E9  01                 [26] (-8)
29EA  00                 [27] (-8)
29EB  00                 [28] (-8)
29EC  F0                 [29] (-7)
29ED  01                 [30] (-6)
29EE  00                 [31] (-6)
29EF  00                 [32] (-5)
29F0  F0                 [33] (-5)
29F1  01                 [34] (-5)
29F2  00                 [35] (-5)
29F3  00                 [36] (-5)
29F4  F0                 [37] (-4)
29F5  01                 [38] (-4)
29F6  00                 [39] (-4)
29F7  00                 [40] (-4)
29F8  F3                 [41] (-4)
29F9  01                 [42] (-3)
29FA  00                 [43] (-3)
29FB  00                 [44] (-3)
29FC  F3                 [45] (-3)
29FD  01                 [46] (-3)
29FE  00                 [47] (-3)
29FF  00                 [48] (-4)
2A00  F3                 [49] (-1)
2A01  01                 [50] (-1)
2A02  00                 [51] (-1)
2A03  00                 [52] (-1)
2A04  F3                 [53] (-1)
2A05  01                 [54] (0)
2A06  00                 [55] (0)
2A07  00                 [56] (0)
2A08  F4                 [57] (0)
2A09  01                 [58] (4)
2A0A  00                 [59] (4)
2A0B  00                 [60] (4)
2A0C  F4                 [61] (4)
2A0D  01                 [62] (4)
2A0E  00                 [63] (5)
2A0F  00                 [64] (5)
2A10  F4                 [65] (5)
2A11  01                 [66] (5)
2A12  00                 [67] (4)
2A13  00                 [68] (8)
                         * locals:
2AE0  00                 sizelocvars (0)
                         * upvalues:
2AE1  00                 sizeupvalues (0)
                         ** end of function **

                         
2AE2                     ** function [15] definition (level 2)
                         ** start of function **
2AE2  00                 string size (0)
                         source name: (none)
2AE4  04                 line defined (522)
2AE5  80                 last line defined (640)
2AE6  05                 nups (5)
2AE7  05                 numparams (1)
2AE8  01                 is_vararg (0)
2AE9  00                 maxstacksize (45)
                         * code:
2AEC  01                 sizecode (247)
2AED  5D000000           [001] getglobal  1   0        ; -1817107093
2AF1  99400000           [002] loadk      2   1        ; "HullBreach()"
2AF5  62400001           [003] call       1   2   1  
2AF9  5D800000           [004] getglobal  1   2        ; _T
2AFD  4C00C181           [005] settable   1   259 260  ; "canClearHullBreach" 0
2B01  5D400100           [006] getglobal  1   5        ; gRegion
2B05  6480C100           [007] self       1   1   262  ; -774964848
2B09  62800001           [008] call       1   2   2  
2B0D  A4C0C100           [009] self       2   1   263  ; 537471347
2B11  A2800001           [010] call       2   2   2  
2B15  E4004201           [011] self       3   2   264  ; 1367346735
2B19  52010000           [012] move       5   0      
2B1D  E2408001           [013] call       3   3   1  
2B21  D3000000           [014] getupval   3   0      
2B25  12010000           [015] move       4   0      
2B29  E2800001           [016] call       3   2   2  
2B2D  06010002           [017] loadnil    4   4      
2B31  64414201           [018] self       5   2   265  ; 1884333127
2B35  D7018000           [019] loadbool   7   1   0    ; true
2B39  62418001           [020] call       5   3   1  
2B3D  53018000           [021] getupval   5   1      
2B41  92010000           [022] move       6   0      
2B45  D2018001           [023] move       7   3      
2B49  62418001           [024] call       5   3   1  
2B4D  57010000           [025] loadbool   5   0   0    ; false
2B51  60810200           [026] setglobal  5   10       ; wait
2B55  53010001           [027] getupval   5   2      
2B59  4EC1C202           [028] gettable   5   5   267  ; -1628296218
2B5D  93010001           [029] getupval   6   2      
2B61  8E014303           [030] gettable   6   6   268  ; "LOCKDOWN"
2B65  62410001           [031] call       5   2   1  
2B69  57010000           [032] loadbool   5   0   0    ; false
2B6D  9D410300           [033] getglobal  6   13       ; 1074689893
2B71  D2018001           [034] move       7   3      
2B75  A2810001           [035] call       6   2   2  
2B79  98410000           [036] test       6       1    ; to [38] if false
2B7D  1A000380           [037] jmp        13           ; to [51]
2B81  99810300           [038] loadk      6   14       ; 0
2B85  CA018001           [039] len        7   3      
2B89  19820300           [040] loadk      8   14       ; 0
2B8D  90C10180           [041] forprep    6   8        ; to [50]
2B91  8E428201           [042] gettable   10  3   9  
2B95  A4C24305           [043] self       10  10  271  ; -1201586349
2B99  A2820001           [044] call       10  2   2  
2B9D  52010005           [045] move       5   10     
2BA1  58010000           [046] test       5       0    ; to [48] if true
2BA5  1A400080           [047] jmp        2            ; to [50]
2BA9  0E418201           [048] gettable   4   3   9  
2BAD  1A000080           [049] jmp        1            ; to [51]
2BB1  9481FD7F           [050] forloop    6   -9       ; to [42] if loop
2BB5  58010000           [051] test       5       0    ; to [53] if true
2BB9  1AC00480           [052] jmp        20           ; to [73]
2BBD  9D420300           [053] getglobal  10  13       ; 1074689893
2BC1  DD020400           [054] getglobal  11  16       ; shakeScript
2BC5  A2820001           [055] call       10  2   2  
2BC9  98420000           [056] test       10      1    ; to [58] if false
2BCD  1AC00080           [057] jmp        4            ; to [62]
2BD1  9D020400           [058] getglobal  10  16       ; shakeScript
2BD5  A4424405           [059] self       10  10  273  ; -1923578185
2BD9  19830400           [060] loadk      12  18       ; "Execute"
2BDD  A2428001           [061] call       10  3   1  
2BE1  9D420300           [062] getglobal  10  13       ; 1074689893
2BE5  D2020002           [063] move       11  4      
2BE9  A2820001           [064] call       10  2   2  
2BED  98420000           [065] test       10      1    ; to [67] if false
2BF1  1A400180           [066] jmp        6            ; to [73]
2BF5  A4C24402           [067] self       10  4   275  ; 630793108
2BF9  1D030500           [068] getglobal  12  20       ; enterBreachSound
2BFD  57030000           [069] loadbool   13  0   0    ; false
2C01  99430500           [070] loadk      14  21       ; 0
2C05  D7030000           [071] loadbool   15  0   0    ; false
2C09  A2420003           [072] call       10  6   1  
2C0D  8B020000           [073] newtable   10  0   0    ; array=0, hash=0
2C11  DD420100           [074] getglobal  11  5        ; gRegion
2C15  E482C505           [075] self       11  11  278  ; 252987801
2C19  5DC30500           [076] getglobal  13  23       ; -332969190
2C1D  99030600           [077] loadk      14  24       ; "Fire"
2C21  62830001           [078] call       13  2   2  
2C25  A4434600           [079] self       14  0   281  ; 1839670529
2C29  A2830001           [080] call       14  2   2  
2C2D  D9430500           [081] loadk      15  21       ; 0
2C31  19840600           [082] loadk      16  26       ; 0
2C35  E2820003           [083] call       11  6   2  
2C39  1DC30600           [084] getglobal  12  27       ; 1672515847
2C3D  52038005           [085] move       13  11     
2C41  22030101           [086] call       12  2   4  
2C45  1A800080           [087] jmp        3            ; to [91]
2C49  64444408           [088] self       17  16  273  ; -1923578185
2C4D  D9040700           [089] loadk      19  28       ; "Destroy"
2C51  62448001           [090] call       17  3   1  
2C55  16830000           [091] tforloop   12      2    ; to [93] if exit
2C59  1A80FE7F           [092] jmp        -5           ; to [88]
2C5D  64444701           [093] self       17  2   285  ; -1359205250
2C61  62840001           [094] call       17  2   2  
fail op	35
2C65  2380C708           [095] close      0  
2C69  1AC01480           [096] jmp        84           ; to [181]
2C6D  5D440100           [097] getglobal  17  5        ; gRegion
2C71  64C4C708           [098] self       17  17  287  ; -1520831144
2C75  62840001           [099] call       17  2   2  
2C79  58040000           [100] test       17      0    ; to [102] if true
2C7D  1AC00780           [101] jmp        32           ; to [134]
2C81  64044801           [102] self       17  2   288  ; -1487415256
2C85  62840001           [103] call       17  2   2  
2C89  D2008008           [104] move       3   17     
2C8D  59840300           [105] loadk      17  14       ; 0
2C91  8A040005           [106] len        18  10     
2C95  D9840300           [107] loadk      19  14       ; 0
2C99  50840580           [108] forprep    17  23       ; to [132]
2C9D  57050000           [109] loadbool   21  0   0    ; false
2CA1  99850300           [110] loadk      22  14       ; 0
2CA5  CA058001           [111] len        23  3      
2CA9  19860300           [112] loadk      24  14       ; 0
2CAD  90450180           [113] forprep    22  6        ; to [120]
2CB1  8E468601           [114] gettable   26  3   25 
2CB5  CE060505           [115] gettable   27  10  20 
fail op	35
2CB9  23C0060D           [116] close      0  
2CBD  1A400080           [117] jmp        2            ; to [120]
2CC1  57058000           [118] loadbool   21  1   0    ; true
2CC5  1A000080           [119] jmp        1            ; to [121]
2CC9  9405FE7F           [120] forloop    22  -7       ; to [114] if loop
2CCD  58450000           [121] test       21      1    ; to [123] if false
2CD1  1A000280           [122] jmp        9            ; to [132]
2CD5  9D460300           [123] getglobal  26  13       ; 1074689893
2CD9  CE060505           [124] gettable   27  10  20 
2CDD  A2860001           [125] call       26  2   2  
2CE1  98460000           [126] test       26      1    ; to [128] if false
2CE5  1AC00080           [127] jmp        4            ; to [132]
2CE9  8E060505           [128] gettable   26  10  20 
2CED  A446480D           [129] self       26  26  289  ; -1444325826
2CF1  17070000           [130] loadbool   28  0   0    ; false
2CF5  A2468001           [131] call       26  3   1  
2CF9  54C4F97F           [132] forloop    17  -24      ; to [109] if loop
2CFD  92028001           [133] move       10  3      
2D01  9D460300           [134] getglobal  26  13       ; 1074689893
2D05  D2068001           [135] move       27  3      
2D09  A2860001           [136] call       26  2   2  
2D0D  98460000           [137] test       26      1    ; to [139] if false
2D11  1A000780           [138] jmp        29           ; to [168]
2D15  9D460100           [139] getglobal  26  5        ; gRegion
2D19  A4C6470D           [140] self       26  26  287  ; -1520831144
2D1D  A2860001           [141] call       26  2   2  
2D21  98060000           [142] test       26      0    ; to [144] if true
2D25  1AC00580           [143] jmp        24           ; to [168]
2D29  99860300           [144] loadk      26  14       ; 0
2D2D  CA068001           [145] len        27  3      
2D31  19870300           [146] loadk      28  14       ; 0
2D35  90860480           [147] forprep    26  19       ; to [167]
2D39  9D470300           [148] getglobal  30  13       ; 1074689893
2D3D  CE478701           [149] gettable   31  3   29 
2D41  A2870001           [150] call       30  2   2  
2D45  98470000           [151] test       30      1    ; to [153] if false
2D49  1A400380           [152] jmp        14           ; to [167]
2D4D  8E478701           [153] gettable   30  3   29 
2D51  E447480F           [154] self       31  30  289  ; -1444325826
2D55  57088000           [155] loadbool   33  1   0    ; true
2D59  E2478001           [156] call       31  3   1  
2D5D  E487480F           [157] self       31  30  290  ; 1353558453
2D61  59880300           [158] loadk      33  14       ; 0
2D65  9DC80800           [159] getglobal  34  35       ; Engine
2D69  8E084911           [160] gettable   34  34  292  ; "DT_CINEMATIC"
2D6D  DDC80800           [161] getglobal  35  35       ; Engine
2D71  CE48C911           [162] gettable   35  35  293  ; "TORSO"
2D75  19890900           [163] loadk      36  38       ; 0
2D79  52090000           [164] move       37  0      
2D7D  92090000           [165] move       38  0      
2D81  E2470004           [166] call       31  8   1  
2D85  94C6FA7F           [167] forloop    26  -20      ; to [148] if loop
2D89  DDC70900           [168] getglobal  31  39       ; -1941280958
2D8D  19480500           [169] loadk      32  21       ; 0
2D91  59880300           [170] loadk      33  14       ; 0
2D95  E2878001           [171] call       31  3   2  
fail op	21
2D99  15C00794           [172] concat     0   296 31 
2D9D  1A800080           [173] jmp        3            ; to [177]
2DA1  D3078001           [174] getupval   31  3      
2DA5  12080000           [175] move       32  0      
2DA9  E2470001           [176] call       31  2   1  
2DAD  DD470A00           [177] getglobal  31  41       ; 538022378
2DB1  19880A00           [178] loadk      32  42       ; 0
2DB5  E2470001           [179] call       31  2   1  
2DB9  1AC0E97F           [180] jmp        -88          ; to [93]
2DBD  DD070000           [181] getglobal  31  0        ; -1817107093
2DC1  19C80A00           [182] loadk      32  43       ; "Hull breach done"
2DC5  E2470001           [183] call       31  2   1  
2DC9  DD470300           [184] getglobal  31  13       ; 1074689893
2DCD  12080002           [185] move       32  4      
2DD1  E2870001           [186] call       31  2   2  
2DD5  D8470000           [187] test       31      1    ; to [189] if false
2DD9  1A400180           [188] jmp        6            ; to [195]
2DDD  E4C74402           [189] self       31  4   275  ; 630793108
2DE1  5D080B00           [190] getglobal  33  44       ; leaveBreachSound
2DE5  97080000           [191] loadbool   34  0   0    ; false
2DE9  D9480500           [192] loadk      35  21       ; 0
2DED  17090000           [193] loadbool   36  0   0    ; false
2DF1  E2470003           [194] call       31  6   1  
2DF5  D3070002           [195] getupval   31  4      
2DF9  E2478000           [196] call       31  1   1  
2DFD  E4474B01           [197] self       31  2   301  ; 2057548501
2E01  52080000           [198] move       33  0      
2E05  E2478001           [199] call       31  3   1  
2E09  E4474201           [200] self       31  2   265  ; 1884333127
2E0D  57080000           [201] loadbool   33  0   0    ; false
2E11  E2478001           [202] call       31  3   1  
2E15  DD470300           [203] getglobal  31  13       ; 1074689893
2E19  12080005           [204] move       32  10     
2E1D  E2870001           [205] call       31  2   2  
2E21  D8470000           [206] test       31      1    ; to [208] if false
2E25  1A400380           [207] jmp        14           ; to [222]
2E29  D9870300           [208] loadk      31  14       ; 0
2E2D  0A080005           [209] len        32  10     
2E31  59880300           [210] loadk      33  14       ; 0
2E35  D0070280           [211] forprep    31  9        ; to [221]
2E39  DD480300           [212] getglobal  35  13       ; 1074689893
2E3D  0E898801           [213] gettable   36  3   34 
2E41  E2880001           [214] call       35  2   2  
2E45  D8480000           [215] test       35      1    ; to [217] if false
2E49  1AC00080           [216] jmp        4            ; to [221]
2E4D  CE888801           [217] gettable   35  3   34 
2E51  2449C811           [218] self       36  35  289  ; -1444325826
2E55  97090000           [219] loadbool   38  0   0    ; false
2E59  22498001           [220] call       36  3   1  
2E5D  D447FD7F           [221] forloop    31  -10      ; to [212] if loop
2E61  1D490100           [222] getglobal  36  5        ; gRegion
2E65  24894B12           [223] self       36  36  302  ; -1485896174
2E69  9DC90500           [224] getglobal  38  23       ; -332969190
2E6D  D9C90B00           [225] loadk      39  47       ; "HullBreach"
2E71  A2090001           [226] call       38  2   0  
2E75  22890000           [227] call       36  0   2  
2E79  5DC90600           [228] getglobal  37  27       ; 1672515847
2E7D  92090012           [229] move       38  36     
2E81  62090101           [230] call       37  2   4  
2E85  1AC00180           [231] jmp        8            ; to [240]
2E89  9D4A0300           [232] getglobal  42  13       ; 1074689893
2E8D  D20A8014           [233] move       43  41     
2E91  A28A0001           [234] call       42  2   2  
2E95  984A0000           [235] test       42      1    ; to [237] if false
2E99  1A800080           [236] jmp        3            ; to [240]
2E9D  A44AC414           [237] self       42  41  273  ; -1923578185
2EA1  190B0C00           [238] loadk      44  48       ; "Disable"
2EA5  A24A8001           [239] call       42  3   1  
2EA9  56890000           [240] tforloop   37      2    ; to [242] if exit
2EAD  1A40FD7F           [241] jmp        -10          ; to [232]
2EB1  930A0001           [242] getupval   42  2      
2EB5  8ECA4215           [243] gettable   42  42  267  ; -1628296218
2EB9  D30A0001           [244] getupval   43  2      
2EBD  CE4ACC15           [245] gettable   43  43  305  ; "UNALERT"
2EC1  A24A0001           [246] call       42  2   1  
2EC5  1E008000           [247] return     0   1      
                         * constants:
2EC9  32                 sizek (50)
2ECA  01                 const type 3
2ECB  6B25B193           const [0]: (-1817107093)
2ECF  04                 const type 4
2ED0  0D                 string size (13)
2ED1  48756C6C42726561+  "HullBrea"
2ED9  6368282900         "ch()\0"
                         const [1]: "HullBreach()"
2EDE  04                 const type 4
2EDF  03                 string size (3)
2EE0  5F5400             "_T\0"
                         const [2]: "_T"
2EE3  04                 const type 4
2EE4  13                 string size (19)
2EE5  63616E436C656172+  "canClear"
2EED  48756C6C42726561+  "HullBrea"
2EF5  636800             "ch\0"
                         const [3]: "canClearHullBreach"
2EF8  01                 const type 3
2EF9  00000000           const [4]: (0)
2EFD  04                 const type 4
2EFE  08                 string size (8)
2EFF  67526567696F6E00   "gRegion\0"
                         const [5]: "gRegion"
2F07  01                 const type 3
2F08  90F9CED1           const [6]: (-774964848)
2F0C  01                 const type 3
2F0D  73290920           const [7]: (537471347)
2F11  01                 const type 3
2F12  2F0E8051           const [8]: (1367346735)
2F16  01                 const type 3
2F17  47A45070           const [9]: (1884333127)
2F1B  04                 const type 4
2F1C  05                 string size (5)
2F1D  7761697400         "wait\0"
                         const [10]: "wait"
2F22  01                 const type 3
2F23  E62BF29E           const [11]: (-1628296218)
2F27  04                 const type 4
2F28  09                 string size (9)
2F29  4C4F434B444F574E+  "LOCKDOWN"
2F31  00                 "\0"
                         const [12]: "LOCKDOWN"
2F32  01                 const type 3
2F33  65770E40           const [13]: (1074689893)
2F37  03                 const type 3
2F38  0000803F           const [14]: (0)
2F3C  01                 const type 3
2F3D  533F61B8           const [15]: (-1201586349)
2F41  04                 const type 4
2F42  0C                 string size (12)
2F43  7368616B65536372+  "shakeScr"
2F4B  69707400           "ipt\0"
                         const [16]: "shakeScript"
2F4F  01                 const type 3
2F50  B786588D           const [17]: (-1923578185)
2F54  04                 const type 4
2F55  08                 string size (8)
2F56  4578656375746500   "Execute\0"
                         const [18]: "Execute"
2F5E  01                 const type 3
2F5F  94239925           const [19]: (630793108)
2F63  04                 const type 4
2F64  11                 string size (17)
2F65  656E746572427265+  "enterBre"
2F6D  616368536F756E64+  "achSound"
2F75  00                 "\0"
                         const [20]: "enterBreachSound"
2F76  03                 const type 3
2F77  00000000           const [21]: (0)
2F7B  01                 const type 3
2F7C  9949140F           const [22]: (252987801)
2F80  01                 const type 3
2F81  1A4B27EC           const [23]: (-332969190)
2F85  04                 const type 4
2F86  05                 string size (5)
2F87  4669726500         "Fire\0"
                         const [24]: "Fire"
2F8C  01                 const type 3
2F8D  0125A76D           const [25]: (1839670529)
2F91  03                 const type 3
2F92  00004842           const [26]: (0)
2F96  01                 const type 3
2F97  0791B063           const [27]: (1672515847)
2F9B  04                 const type 4
2F9C  08                 string size (8)
2F9D  44657374726F7900   "Destroy\0"
                         const [28]: "Destroy"
2FA5  01                 const type 3
2FA6  7E2CFCAE           const [29]: (-1359205250)
2FAA  01                 const type 3
2FAB  01000000           const [30]: (1)
2FAF  01                 const type 3
2FB0  58F559A5           const [31]: (-1520831144)
2FB4  01                 const type 3
2FB5  28D857A7           const [32]: (-1487415256)
2FB9  01                 const type 3
2FBA  3E56E9A9           const [33]: (-1444325826)
2FBE  01                 const type 3
2FBF  B5A9AD50           const [34]: (1353558453)
2FC3  04                 const type 4
2FC4  07                 string size (7)
2FC5  456E67696E6500     "Engine\0"
                         const [35]: "Engine"
2FCC  04                 const type 4
2FCD  0D                 string size (13)
2FCE  44545F43494E454D+  "DT_CINEM"
2FD6  4154494300         "ATIC\0"
                         const [36]: "DT_CINEMATIC"
2FDB  04                 const type 4
2FDC  06                 string size (6)
2FDD  544F52534F00       "TORSO\0"
                         const [37]: "TORSO"
2FE3  03                 const type 3
2FE4  0000FA43           const [38]: (0)
2FE8  01                 const type 3
2FE9  42674A8C           const [39]: (-1941280958)
2FED  03                 const type 3
2FEE  CDCC4C3F           const [40]: (-51)
2FF2  01                 const type 3
2FF3  EA911120           const [41]: (538022378)
2FF7  03                 const type 3
2FF8  0000803E           const [42]: (0)
2FFC  04                 const type 4
2FFD  11                 string size (17)
2FFE  48756C6C20627265+  "Hull bre"
3006  61636820646F6E65+  "ach done"
300E  00                 "\0"
                         const [43]: "Hull breach done"
300F  04                 const type 4
3010  11                 string size (17)
3011  6C65617665427265+  "leaveBre"
3019  616368536F756E64+  "achSound"
3021  00                 "\0"
                         const [44]: "leaveBreachSound"
3022  01                 const type 3
3023  D5B2A37A           const [45]: (2057548501)
3027  01                 const type 3
3028  12066FA7           const [46]: (-1485896174)
302C  04                 const type 4
302D  0B                 string size (11)
302E  48756C6C42726561+  "HullBrea"
3036  636800             "ch\0"
                         const [47]: "HullBreach"
3039  04                 const type 4
303A  08                 string size (8)
303B  44697361626C6500   "Disable\0"
                         const [48]: "Disable"
3043  04                 const type 4
3044  08                 string size (8)
3045  554E414C45525400   "UNALERT\0"
                         const [49]: "UNALERT"
                         * functions:
304D  00                 sizep (0)
                         * lines:
304F  01                 sizelineinfo (247)
                         [pc] (line)
3050  0C                 [001] (12)
3051  02                 [002] (12)
3052  00                 [003] (12)
3053  00                 [004] (13)
3054  0C                 [005] (13)
3055  02                 [006] (15)
3056  00                 [007] (15)
3057  00                 [008] (15)
3058  0C                 [009] (16)
3059  02                 [010] (16)
305A  00                 [011] (18)
305B  00                 [012] (18)
305C  0D                 [013] (18)
305D  02                 [014] (20)
305E  00                 [015] (20)
305F  00                 [016] (20)
3060  0D                 [017] (21)
3061  02                 [018] (23)
3062  00                 [019] (23)
3063  00                 [020] (23)
3064  0F                 [021] (24)
3065  02                 [022] (24)
3066  00                 [023] (24)
3067  00                 [024] (24)
3068  0F                 [025] (26)
3069  02                 [026] (26)
306A  00                 [027] (27)
306B  00                 [028] (27)
306C  0F                 [029] (27)
306D  02                 [030] (27)
306E  00                 [031] (27)
306F  00                 [032] (29)
3070  10                 [033] (30)
3071  02                 [034] (30)
3072  00                 [035] (30)
3073  00                 [036] (30)
3074  10                 [037] (30)
3075  02                 [038] (31)
3076  00                 [039] (31)
3077  00                 [040] (31)
3078  12                 [041] (31)
3079  02                 [042] (32)
307A  00                 [043] (32)
307B  00                 [044] (32)
307C  12                 [045] (32)
307D  02                 [046] (34)
307E  00                 [047] (34)
307F  00                 [048] (35)
3080  12                 [049] (36)
3081  02                 [050] (31)
3082  00                 [051] (41)
3083  00                 [052] (41)
3084  14                 [053] (42)
3085  02                 [054] (42)
3086  00                 [055] (42)
3087  00                 [056] (42)
3088  14                 [057] (42)
3089  02                 [058] (43)
308A  00                 [059] (43)
308B  00                 [060] (43)
308C  14                 [061] (43)
308D  02                 [062] (46)
308E  00                 [063] (46)
308F  00                 [064] (46)
3090  15                 [065] (46)
3091  02                 [066] (46)
3092  00                 [067] (47)
3093  00                 [068] (47)
3094  17                 [069] (47)
3095  02                 [070] (47)
3096  00                 [071] (47)
3097  00                 [072] (47)
3098  17                 [073] (52)
3099  02                 [074] (54)
309A  00                 [075] (54)
309B  00                 [076] (54)
309C  17                 [077] (54)
309D  02                 [078] (54)
309E  00                 [079] (54)
309F  00                 [080] (54)
30A0  18                 [081] (54)
30A1  02                 [082] (54)
30A2  00                 [083] (54)
30A3  00                 [084] (55)
30A4  18                 [085] (55)
30A5  02                 [086] (55)
30A6  00                 [087] (55)
30A7  00                 [088] (56)
30A8  18                 [089] (56)
30A9  02                 [090] (56)
30AA  00                 [091] (55)
30AB  00                 [092] (56)
30AC  18                 [093] (59)
30AD  02                 [094] (59)
30AE  00                 [095] (59)
30AF  00                 [096] (59)
30B0  1A                 [097] (60)
30B1  02                 [098] (60)
30B2  00                 [099] (60)
30B3  00                 [100] (60)
30B4  1A                 [101] (60)
30B5  02                 [102] (61)
30B6  00                 [103] (61)
30B7  00                 [104] (61)
30B8  1B                 [105] (63)
30B9  02                 [106] (63)
30BA  00                 [107] (63)
30BB  00                 [108] (63)
30BC  1B                 [109] (64)
30BD  02                 [110] (65)
30BE  00                 [111] (65)
30BF  00                 [112] (65)
30C0  1B                 [113] (65)
30C1  02                 [114] (66)
30C2  00                 [115] (66)
30C3  00                 [116] (66)
30C4  1B                 [117] (66)
30C5  02                 [118] (67)
30C6  00                 [119] (68)
30C7  00                 [120] (65)
30C8  1B                 [121] (71)
30C9  02                 [122] (71)
30CA  00                 [123] (71)
30CB  00                 [124] (71)
30CC  1D                 [125] (71)
30CD  02                 [126] (71)
30CE  00                 [127] (71)
30CF  00                 [128] (72)
30D0  1E                 [129] (72)
30D1  02                 [130] (72)
30D2  00                 [131] (72)
30D3  00                 [132] (63)
30D4  1E                 [133] (75)
30D5  02                 [134] (79)
30D6  00                 [135] (79)
30D7  00                 [136] (79)
30D8  1E                 [137] (79)
30D9  02                 [138] (79)
30DA  00                 [139] (79)
30DB  00                 [140] (79)
30DC  1E                 [141] (79)
30DD  02                 [142] (79)
30DE  00                 [143] (79)
30DF  00                 [144] (80)
30E0  1E                 [145] (80)
30E1  02                 [146] (80)
30E2  00                 [147] (80)
30E3  00                 [148] (81)
30E4  1F                 [149] (81)
30E5  02                 [150] (81)
30E6  00                 [151] (81)
30E7  00                 [152] (81)
30E8  1F                 [153] (82)
30E9  02                 [154] (83)
30EA  00                 [155] (83)
30EB  00                 [156] (83)
30EC  1F                 [157] (84)
30ED  02                 [158] (84)
30EE  00                 [159] (84)
30EF  00                 [160] (84)
30F0  1F                 [161] (84)
30F1  02                 [162] (84)
30F2  00                 [163] (84)
30F3  00                 [164] (84)
30F4  20                 [165] (84)
30F5  02                 [166] (84)
30F6  00                 [167] (80)
30F7  00                 [168] (89)
30F8  20                 [169] (89)
30F9  02                 [170] (89)
30FA  00                 [171] (89)
30FB  00                 [172] (89)
30FC  20                 [173] (89)
30FD  02                 [174] (90)
30FE  00                 [175] (90)
30FF  00                 [176] (90)
3100  20                 [177] (93)
3101  02                 [178] (93)
3102  00                 [179] (93)
3103  00                 [180] (93)
3104  22                 [181] (96)
3105  02                 [182] (96)
3106  00                 [183] (96)
3107  00                 [184] (98)
3108  22                 [185] (98)
3109  02                 [186] (98)
310A  00                 [187] (98)
310B  00                 [188] (98)
310C  23                 [189] (99)
310D  02                 [190] (99)
310E  00                 [191] (99)
310F  00                 [192] (99)
3110  24                 [193] (99)
3111  02                 [194] (99)
3112  00                 [195] (102)
3113  00                 [196] (102)
3114  1F                 [197] (104)
3115  02                 [198] (104)
3116  00                 [199] (104)
3117  00                 [200] (105)
3118  29                 [201] (105)
3119  02                 [202] (105)
311A  00                 [203] (107)
311B  00                 [204] (107)
311C  29                 [205] (107)
311D  02                 [206] (107)
311E  00                 [207] (107)
311F  00                 [208] (108)
3120  2A                 [209] (108)
3121  02                 [210] (108)
3122  00                 [211] (108)
3123  00                 [212] (109)
3124  2A                 [213] (109)
3125  02                 [214] (109)
3126  00                 [215] (109)
3127  00                 [216] (109)
3128  2A                 [217] (110)
3129  02                 [218] (111)
312A  00                 [219] (111)
312B  00                 [220] (111)
312C  2A                 [221] (108)
312D  02                 [222] (116)
312E  00                 [223] (116)
312F  00                 [224] (116)
3130  2A                 [225] (116)
3131  02                 [226] (116)
3132  00                 [227] (116)
3133  00                 [228] (117)
3134  2B                 [229] (117)
3135  02                 [230] (117)
3136  00                 [231] (117)
3137  00                 [232] (118)
3138  2B                 [233] (118)
3139  02                 [234] (118)
313A  00                 [235] (118)
313B  00                 [236] (118)
313C  2B                 [237] (119)
313D  02                 [238] (119)
313E  00                 [239] (119)
313F  00                 [240] (117)
3140  2B                 [241] (120)
3141  02                 [242] (127)
3142  00                 [243] (127)
3143  00                 [244] (127)
3144  2E                 [245] (127)
3145  02                 [246] (127)
3146  00                 [247] (-128)
                         * locals:
342C  00                 sizelocvars (0)
                         * upvalues:
342D  00                 sizeupvalues (0)
                         ** end of function **

                         
342E                     ** function [16] definition (level 2)
                         ** start of function **
342E  00                 string size (0)
                         source name: (none)
3430  05                 line defined (642)
3431  A3                 last line defined (675)
3432  05                 nups (0)
3433  00                 numparams (3)
3434  03                 is_vararg (0)
3435  00                 maxstacksize (7)
                         * code:
3437  44                 sizecode (68)
3438  DD000000           [01] getglobal  3   0        ; 1074689893
343C  12010000           [02] move       4   0      
3440  E2800001           [03] call       3   2   2  
3444  D8000000           [04] test       3       0    ; to [6] if true
3448  1A000080           [05] jmp        1            ; to [7]
344C  1E008000           [06] return     0   1      
3450  DD000000           [07] getglobal  3   0        ; 1074689893
3454  24414000           [08] self       4   0   257  ; -1411785325
3458  22010001           [09] call       4   2   0  
345C  E2800000           [10] call       3   0   2  
3460  D8400000           [11] test       3       1    ; to [13] if false
3464  1A000080           [12] jmp        1            ; to [14]
3468  59800000           [13] loadk      1   2        ; 0
fail op	35
346C  23C0C000           [14] close      0  
3470  1A000080           [15] jmp        1            ; to [17]
3474  59800000           [16] loadk      1   2        ; 0
fail op	35
3478  2380C000           [17] close      0  
347C  1A400880           [18] jmp        34           ; to [53]
3480  DD000000           [19] getglobal  3   0        ; 1074689893
3484  1D010100           [20] getglobal  4   4        ; buttonPortForwarder
3488  E2800001           [21] call       3   2   2  
348C  D8400000           [22] test       3       1    ; to [24] if false
3490  1AC00080           [23] jmp        4            ; to [28]
3494  DD000100           [24] getglobal  3   4        ; buttonPortForwarder
3498  E440C101           [25] self       3   3   261  ; -1923578185
349C  59810100           [26] loadk      5   6        ; "TriggerPort"
34A0  E2408001           [27] call       3   3   1  
34A4  DDC00100           [28] getglobal  3   7        ; disableOnUse
34A8  D8000000           [29] test       3       0    ; to [31] if true
34AC  1A000980           [30] jmp        37           ; to [68]
34B0  DD000000           [31] getglobal  3   0        ; 1074689893
34B4  1D010200           [32] getglobal  4   8        ; buttonLight
34B8  E2800001           [33] call       3   2   2  
34BC  D8400000           [34] test       3       1    ; to [36] if false
34C0  1A800080           [35] jmp        3            ; to [39]
34C4  DD000200           [36] getglobal  3   8        ; buttonLight
34C8  E440C201           [37] self       3   3   265  ; 1493508408
34CC  E2400001           [38] call       3   2   1  
34D0  DD000000           [39] getglobal  3   0        ; 1074689893
34D4  1D810200           [40] getglobal  4   10       ; buttonScreen
34D8  E2800001           [41] call       3   2   2  
34DC  D8400000           [42] test       3       1    ; to [44] if false
34E0  1A000180           [43] jmp        5            ; to [49]
34E4  DD800200           [44] getglobal  3   10       ; buttonScreen
34E8  E4C0C201           [45] self       3   3   267  ; 1728877662
34EC  5D010300           [46] getglobal  5   12       ; materialSlot
34F0  9D410300           [47] getglobal  6   13       ; buttonScreenOff
34F4  E2400002           [48] call       3   4   1  
34F8  E4404101           [49] self       3   2   261  ; -1923578185
34FC  59810300           [50] loadk      5   14       ; "Disable"
3500  E2408001           [51] call       3   3   1  
3504  1A800380           [52] jmp        15           ; to [68]
3508  DD000000           [53] getglobal  3   0        ; 1074689893
350C  1DC10300           [54] getglobal  4   15       ; failedPortFowarder
3510  E2800001           [55] call       3   2   2  
3514  D8400000           [56] test       3       1    ; to [58] if false
3518  1A400280           [57] jmp        10           ; to [68]
351C  DD000400           [58] getglobal  3   16       ; gGameRules
3520  E440C401           [59] self       3   3   273  ; -1201441975
3524  E2800001           [60] call       3   2   2  
3528  0E81C401           [61] gettable   4   3   274  ; "sortieId"
fail op	35
352C  23C04402           [62] close      0  
3530  1AC00080           [63] jmp        4            ; to [68]
3534  1DC10300           [64] getglobal  4   15       ; failedPortFowarder
3538  24414102           [65] self       4   4   261  ; -1923578185
353C  99810100           [66] loadk      6   6        ; "TriggerPort"
3540  22418001           [67] call       4   3   1  
3544  1E008000           [68] return     0   1      
                         * constants:
3548  14                 sizek (20)
3549  01                 const type 3
354A  65770E40           const [0]: (1074689893)
354E  01                 const type 3
354F  93DDD9AB           const [1]: (-1411785325)
3553  03                 const type 3
3554  0000803F           const [2]: (0)
3558  00                 const type 0
                         const [3]: nil
3559  04                 const type 4
355A  14                 string size (20)
355B  627574746F6E506F+  "buttonPo"
3563  7274466F72776172+  "rtForwar"
356B  64657200           "der\0"
                         const [4]: "buttonPortForwarder"
356F  01                 const type 3
3570  B786588D           const [5]: (-1923578185)
3574  04                 const type 4
3575  0C                 string size (12)
3576  5472696767657250+  "TriggerP"
357E  6F727400           "ort\0"
                         const [6]: "TriggerPort"
3582  04                 const type 4
3583  0D                 string size (13)
3584  64697361626C654F+  "disableO"
358C  6E55736500         "nUse\0"
                         const [7]: "disableOnUse"
3591  04                 const type 4
3592  0C                 string size (12)
3593  627574746F6E4C69+  "buttonLi"
359B  67687400           "ght\0"
                         const [8]: "buttonLight"
359F  01                 const type 3
35A0  38210559           const [9]: (1493508408)
35A4  04                 const type 4
35A5  0D                 string size (13)
35A6  627574746F6E5363+  "buttonSc"
35AE  7265656E00         "reen\0"
                         const [10]: "buttonScreen"
35B3  01                 const type 3
35B4  5E940C67           const [11]: (1728877662)
35B8  04                 const type 4
35B9  0D                 string size (13)
35BA  6D6174657269616C+  "material"
35C2  536C6F7400         "Slot\0"
                         const [12]: "materialSlot"
35C7  04                 const type 4
35C8  10                 string size (16)
35C9  627574746F6E5363+  "buttonSc"
35D1  7265656E4F666600   "reenOff\0"
                         const [13]: "buttonScreenOff"
35D9  04                 const type 4
35DA  08                 string size (8)
35DB  44697361626C6500   "Disable\0"
                         const [14]: "Disable"
35E3  04                 const type 4
35E4  13                 string size (19)
35E5  6661696C6564506F+  "failedPo"
35ED  7274466F77617264+  "rtFoward"
35F5  657200             "er\0"
                         const [15]: "failedPortFowarder"
35F8  04                 const type 4
35F9  0B                 string size (11)
35FA  6747616D6552756C+  "gGameRul"
3602  657300             "es\0"
                         const [16]: "gGameRules"
3605  01                 const type 3
3606  497363B8           const [17]: (-1201441975)
360A  04                 const type 4
360B  09                 string size (9)
360C  736F727469654964+  "sortieId"
3614  00                 "\0"
                         const [18]: "sortieId"
3615  04                 const type 4
3616  01                 string size (0)
                         const [19]: ""
                         * functions:
3618  00                 sizep (0)
                         * lines:
3619  44                 sizelineinfo (68)
                         [pc] (line)
361A  83                 [01] (-125)
361B  02                 [02] (-125)
361C  00                 [03] (-125)
361D  00                 [04] (-125)
361E  83                 [05] (-125)
361F  02                 [06] (-124)
3620  00                 [07] (-121)
3621  00                 [08] (-121)
3622  83                 [09] (-121)
3623  02                 [10] (-121)
3624  00                 [11] (-121)
3625  00                 [12] (-121)
3626  83                 [13] (-120)
3627  02                 [14] (-117)
3628  00                 [15] (-117)
3629  00                 [16] (-116)
362A  83                 [17] (-113)
362B  02                 [18] (-113)
362C  00                 [19] (-112)
362D  00                 [20] (-112)
362E  84                 [21] (-112)
362F  02                 [22] (-112)
3630  00                 [23] (-112)
3631  00                 [24] (-111)
3632  87                 [25] (-111)
3633  02                 [26] (-111)
3634  00                 [27] (-111)
3635  00                 [28] (-109)
3636  87                 [29] (-109)
3637  02                 [30] (-109)
3638  00                 [31] (-108)
3639  00                 [32] (-108)
363A  87                 [33] (-108)
363B  02                 [34] (-108)
363C  00                 [35] (-108)
363D  00                 [36] (-107)
363E  87                 [37] (-107)
363F  02                 [38] (-107)
3640  00                 [39] (-105)
3641  00                 [40] (-105)
3642  87                 [41] (-105)
3643  02                 [42] (-105)
3644  00                 [43] (-105)
3645  00                 [44] (-104)
3646  87                 [45] (-104)
3647  02                 [46] (-104)
3648  00                 [47] (-104)
3649  00                 [48] (-104)
364A  88                 [49] (-102)
364B  02                 [50] (-102)
364C  00                 [51] (-102)
364D  00                 [52] (-101)
364E  8B                 [53] (-100)
364F  02                 [54] (-100)
3650  00                 [55] (-100)
3651  00                 [56] (-100)
3652  8B                 [57] (-100)
3653  02                 [58] (-98)
3654  00                 [59] (-98)
3655  00                 [60] (-98)
3656  8C                 [61] (-97)
3657  02                 [62] (-97)
3658  00                 [63] (-97)
3659  00                 [64] (-96)
365A  8F                 [65] (-96)
365B  02                 [66] (-96)
365C  00                 [67] (-96)
365D  00                 [68] (-93)
                         * locals:
372A  00                 sizelocvars (0)
                         * upvalues:
372B  00                 sizeupvalues (0)
                         ** end of function **

                         
372C                     ** function [17] definition (level 2)
                         ** start of function **
372C  00                 string size (0)
                         source name: (none)
372E  05                 line defined (677)
372F  C6                 last line defined (710)
3730  05                 nups (0)
3731  00                 numparams (3)
3732  03                 is_vararg (0)
3733  00                 maxstacksize (11)
                         * code:
3735  48                 sizecode (72)
3736  DD000000           [01] getglobal  3   0        ; 1074689893
373A  12010000           [02] move       4   0      
373E  E2800001           [03] call       3   2   2  
3742  D8000000           [04] test       3       0    ; to [6] if true
3746  1A000080           [05] jmp        1            ; to [7]
374A  1E008000           [06] return     0   1      
374E  DD000000           [07] getglobal  3   0        ; 1074689893
3752  24414000           [08] self       4   0   257  ; -1411785325
3756  22010001           [09] call       4   2   0  
375A  E2800000           [10] call       3   0   2  
375E  D8400000           [11] test       3       1    ; to [13] if false
3762  1A000080           [12] jmp        1            ; to [14]
3766  59800000           [13] loadk      1   2        ; 0
fail op	35
376A  23C0C000           [14] close      0  
376E  1A000080           [15] jmp        1            ; to [17]
3772  59800000           [16] loadk      1   2        ; 0
fail op	35
3776  2380C000           [17] close      0  
377A  1A400980           [18] jmp        38           ; to [57]
377E  DD000000           [19] getglobal  3   0        ; 1074689893
3782  1D010100           [20] getglobal  4   4        ; buttonPortForwarder
3786  E2800001           [21] call       3   2   2  
378A  D8400000           [22] test       3       1    ; to [24] if false
378E  1AC00080           [23] jmp        4            ; to [28]
3792  DD000100           [24] getglobal  3   4        ; buttonPortForwarder
3796  E440C101           [25] self       3   3   261  ; -1923578185
379A  59810100           [26] loadk      5   6        ; "TriggerPort"
379E  E2408001           [27] call       3   3   1  
37A2  DDC00100           [28] getglobal  3   7        ; disableOnUse
37A6  D8000000           [29] test       3       0    ; to [31] if true
37AA  1A000A80           [30] jmp        41           ; to [72]
37AE  DD000000           [31] getglobal  3   0        ; 1074689893
37B2  1D010200           [32] getglobal  4   8        ; buttonLight
37B6  E2800001           [33] call       3   2   2  
37BA  D8400000           [34] test       3       1    ; to [36] if false
37BE  1A800080           [35] jmp        3            ; to [39]
37C2  DD000200           [36] getglobal  3   8        ; buttonLight
37C6  E440C201           [37] self       3   3   265  ; 1493508408
37CA  E2400001           [38] call       3   2   1  
37CE  D9800000           [39] loadk      3   2        ; 0
37D2  1D810200           [40] getglobal  4   10       ; decorationsToMaterialSwap
37D6  0A010002           [41] len        4   4      
37DA  59810000           [42] loadk      5   2        ; 0
37DE  D0C00180           [43] forprep    3   8        ; to [52]
37E2  DD810200           [44] getglobal  7   10       ; decorationsToMaterialSwap
37E6  CE818103           [45] gettable   7   7   6  
37EA  E4C1C203           [46] self       7   7   267  ; 1728877662
37EE  5D020300           [47] getglobal  9   12       ; materialSlots
37F2  4E828104           [48] gettable   9   9   6  
37F6  9D420300           [49] getglobal  10  13       ; materialsToSwap
37FA  8E820105           [50] gettable   10  10  6  
37FE  E2410002           [51] call       7   4   1  
3802  D480FD7F           [52] forloop    3   -9       ; to [44] if loop
3806  E4414101           [53] self       7   2   261  ; -1923578185
380A  59820300           [54] loadk      9   14       ; "Disable"
380E  E2418001           [55] call       7   3   1  
3812  1A800380           [56] jmp        15           ; to [72]
3816  DD010000           [57] getglobal  7   0        ; 1074689893
381A  1DC20300           [58] getglobal  8   15       ; failedPortFowarder
381E  E2810001           [59] call       7   2   2  
3822  D8410000           [60] test       7       1    ; to [62] if false
3826  1A400280           [61] jmp        10           ; to [72]
382A  DD010400           [62] getglobal  7   16       ; gGameRules
382E  E441C403           [63] self       7   7   273  ; -1201441975
3832  E2810001           [64] call       7   2   2  
3836  0E82C403           [65] gettable   8   7   274  ; "sortieId"
fail op	35
383A  23C04404           [66] close      0  
383E  1AC00080           [67] jmp        4            ; to [72]
3842  1DC20300           [68] getglobal  8   15       ; failedPortFowarder
3846  24424104           [69] self       8   8   261  ; -1923578185
384A  99820100           [70] loadk      10  6        ; "TriggerPort"
384E  22428001           [71] call       8   3   1  
3852  1E008000           [72] return     0   1      
                         * constants:
3856  14                 sizek (20)
3857  01                 const type 3
3858  65770E40           const [0]: (1074689893)
385C  01                 const type 3
385D  93DDD9AB           const [1]: (-1411785325)
3861  03                 const type 3
3862  0000803F           const [2]: (0)
3866  00                 const type 0
                         const [3]: nil
3867  04                 const type 4
3868  14                 string size (20)
3869  627574746F6E506F+  "buttonPo"
3871  7274466F72776172+  "rtForwar"
3879  64657200           "der\0"
                         const [4]: "buttonPortForwarder"
387D  01                 const type 3
387E  B786588D           const [5]: (-1923578185)
3882  04                 const type 4
3883  0C                 string size (12)
3884  5472696767657250+  "TriggerP"
388C  6F727400           "ort\0"
                         const [6]: "TriggerPort"
3890  04                 const type 4
3891  0D                 string size (13)
3892  64697361626C654F+  "disableO"
389A  6E55736500         "nUse\0"
                         const [7]: "disableOnUse"
389F  04                 const type 4
38A0  0C                 string size (12)
38A1  627574746F6E4C69+  "buttonLi"
38A9  67687400           "ght\0"
                         const [8]: "buttonLight"
38AD  01                 const type 3
38AE  38210559           const [9]: (1493508408)
38B2  04                 const type 4
38B3  1A                 string size (26)
38B4  6465636F72617469+  "decorati"
38BC  6F6E73546F4D6174+  "onsToMat"
38C4  657269616C537761+  "erialSwa"
38CC  7000               "p\0"
                         const [10]: "decorationsToMaterialSwap"
38CE  01                 const type 3
38CF  5E940C67           const [11]: (1728877662)
38D3  04                 const type 4
38D4  0E                 string size (14)
38D5  6D6174657269616C+  "material"
38DD  536C6F747300       "Slots\0"
                         const [12]: "materialSlots"
38E3  04                 const type 4
38E4  10                 string size (16)
38E5  6D6174657269616C+  "material"
38ED  73546F5377617000   "sToSwap\0"
                         const [13]: "materialsToSwap"
38F5  04                 const type 4
38F6  08                 string size (8)
38F7  44697361626C6500   "Disable\0"
                         const [14]: "Disable"
38FF  04                 const type 4
3900  13                 string size (19)
3901  6661696C6564506F+  "failedPo"
3909  7274466F77617264+  "rtFoward"
3911  657200             "er\0"
                         const [15]: "failedPortFowarder"
3914  04                 const type 4
3915  0B                 string size (11)
3916  6747616D6552756C+  "gGameRul"
391E  657300             "es\0"
                         const [16]: "gGameRules"
3921  01                 const type 3
3922  497363B8           const [17]: (-1201441975)
3926  04                 const type 4
3927  09                 string size (9)
3928  736F727469654964+  "sortieId"
3930  00                 "\0"
                         const [18]: "sortieId"
3931  04                 const type 4
3932  01                 string size (0)
                         const [19]: ""
                         * functions:
3934  00                 sizep (0)
                         * lines:
3935  48                 sizelineinfo (72)
                         [pc] (line)
3936  A6                 [01] (-90)
3937  02                 [02] (-90)
3938  00                 [03] (-90)
3939  00                 [04] (-90)
393A  A6                 [05] (-90)
393B  02                 [06] (-89)
393C  00                 [07] (-86)
393D  00                 [08] (-86)
393E  A6                 [09] (-86)
393F  02                 [10] (-86)
3940  00                 [11] (-86)
3941  00                 [12] (-86)
3942  A6                 [13] (-85)
3943  02                 [14] (-82)
3944  00                 [15] (-82)
3945  00                 [16] (-81)
3946  A6                 [17] (-78)
3947  02                 [18] (-78)
3948  00                 [19] (-77)
3949  00                 [20] (-77)
394A  A7                 [21] (-77)
394B  02                 [22] (-77)
394C  00                 [23] (-77)
394D  00                 [24] (-76)
394E  AA                 [25] (-76)
394F  02                 [26] (-76)
3950  00                 [27] (-76)
3951  00                 [28] (-74)
3952  AA                 [29] (-74)
3953  02                 [30] (-74)
3954  00                 [31] (-73)
3955  00                 [32] (-73)
3956  AA                 [33] (-73)
3957  02                 [34] (-73)
3958  00                 [35] (-73)
3959  00                 [36] (-72)
395A  AA                 [37] (-72)
395B  02                 [38] (-72)
395C  00                 [39] (-70)
395D  00                 [40] (-70)
395E  AA                 [41] (-70)
395F  02                 [42] (-70)
3960  00                 [43] (-70)
3961  00                 [44] (-69)
3962  AA                 [45] (-69)
3963  02                 [46] (-69)
3964  00                 [47] (-69)
3965  00                 [48] (-69)
3966  AB                 [49] (-69)
3967  02                 [50] (-69)
3968  00                 [51] (-69)
3969  00                 [52] (-70)
396A  AE                 [53] (-67)
396B  02                 [54] (-67)
396C  00                 [55] (-67)
396D  00                 [56] (-66)
396E  AE                 [57] (-65)
396F  02                 [58] (-65)
3970  00                 [59] (-65)
3971  00                 [60] (-65)
3972  AF                 [61] (-65)
3973  02                 [62] (-63)
3974  00                 [63] (-63)
3975  00                 [64] (-63)
3976  B2                 [65] (-62)
3977  02                 [66] (-62)
3978  00                 [67] (-62)
3979  00                 [68] (-61)
397A  B2                 [69] (-61)
397B  02                 [70] (-61)
397C  00                 [71] (-61)
397D  00                 [72] (-58)
                         * locals:
3A56  00                 sizelocvars (0)
                         * upvalues:
3A57  00                 sizeupvalues (0)
                         ** end of function **

                         
3A58                     ** function [18] definition (level 2)
                         ** start of function **
3A58  00                 string size (0)
                         source name: (none)
3A5A  05                 line defined (713)
3A5B  DF                 last line defined (735)
3A5C  05                 nups (0)
3A5D  00                 numparams (3)
3A5E  03                 is_vararg (0)
3A5F  00                 maxstacksize (8)
                         * code:
3A61  28                 sizecode (40)
3A62  DD000000           [01] getglobal  3   0        ; 1074689893
3A66  12010000           [02] move       4   0      
3A6A  E2800001           [03] call       3   2   2  
3A6E  D8000000           [04] test       3       0    ; to [6] if true
3A72  1A000080           [05] jmp        1            ; to [7]
3A76  1E008000           [06] return     0   1      
3A7A  DD000000           [07] getglobal  3   0        ; 1074689893
3A7E  24414000           [08] self       4   0   257  ; -1411785325
3A82  22010001           [09] call       4   2   0  
3A86  E2800000           [10] call       3   0   2  
3A8A  D8400000           [11] test       3       1    ; to [13] if false
3A8E  1A000080           [12] jmp        1            ; to [14]
3A92  59800000           [13] loadk      1   2        ; 0
fail op	35
3A96  23C0C000           [14] close      0  
3A9A  1A000080           [15] jmp        1            ; to [17]
3A9E  59800000           [16] loadk      1   2        ; 0
3AA2  E4004101           [17] self       3   2   260  ; -1625438872
3AA6  5D410100           [18] getglobal  5   5        ; screenType
3AAA  E2808001           [19] call       3   3   2  
fail op	35
3AAE  2380C000           [20] close      0  
3AB2  1A800180           [21] jmp        7            ; to [29]
3AB6  2481C101           [22] self       4   3   262  ; 1728877662
3ABA  9DC10100           [23] getglobal  6   7        ; materialSlot
3ABE  DD010200           [24] getglobal  7   8        ; buttonScreenOff
3AC2  22410002           [25] call       4   4   1  
3AC6  24414201           [26] self       4   2   265  ; -1923578185
3ACA  99810200           [27] loadk      6   10       ; "Disable"
3ACE  22418001           [28] call       4   3   1  
fail op	35
3AD2  2380C000           [29] close      0  
3AD6  1A000280           [30] jmp        9            ; to [40]
3ADA  1D010000           [31] getglobal  4   0        ; 1074689893
3ADE  5DC10200           [32] getglobal  5   11       ; successForwarder
3AE2  22810001           [33] call       4   2   2  
3AE6  18410000           [34] test       4       1    ; to [36] if false
3AEA  1AC00080           [35] jmp        4            ; to [40]
3AEE  1DC10200           [36] getglobal  4   11       ; successForwarder
3AF2  24414202           [37] self       4   4   265  ; -1923578185
3AF6  99010300           [38] loadk      6   12       ; "TriggerPort"
3AFA  22418001           [39] call       4   3   1  
3AFE  1E008000           [40] return     0   1      
                         * constants:
3B02  0D                 sizek (13)
3B03  01                 const type 3
3B04  65770E40           const [0]: (1074689893)
3B08  01                 const type 3
3B09  93DDD9AB           const [1]: (-1411785325)
3B0D  03                 const type 3
3B0E  0000803F           const [2]: (0)
3B12  00                 const type 0
                         const [3]: nil
3B13  01                 const type 3
3B14  68C51D9F           const [4]: (-1625438872)
3B18  04                 const type 4
3B19  0B                 string size (11)
3B1A  73637265656E5479+  "screenTy"
3B22  706500             "pe\0"
                         const [5]: "screenType"
3B25  01                 const type 3
3B26  5E940C67           const [6]: (1728877662)
3B2A  04                 const type 4
3B2B  0D                 string size (13)
3B2C  6D6174657269616C+  "material"
3B34  536C6F7400         "Slot\0"
                         const [7]: "materialSlot"
3B39  04                 const type 4
3B3A  10                 string size (16)
3B3B  627574746F6E5363+  "buttonSc"
3B43  7265656E4F666600   "reenOff\0"
                         const [8]: "buttonScreenOff"
3B4B  01                 const type 3
3B4C  B786588D           const [9]: (-1923578185)
3B50  04                 const type 4
3B51  08                 string size (8)
3B52  44697361626C6500   "Disable\0"
                         const [10]: "Disable"
3B5A  04                 const type 4
3B5B  11                 string size (17)
3B5C  7375636365737346+  "successF"
3B64  6F72776172646572+  "orwarder"
3B6C  00                 "\0"
                         const [11]: "successForwarder"
3B6D  04                 const type 4
3B6E  0C                 string size (12)
3B6F  5472696767657250+  "TriggerP"
3B77  6F727400           "ort\0"
                         const [12]: "TriggerPort"
                         * functions:
3B7B  00                 sizep (0)
                         * lines:
3B7C  28                 sizelineinfo (40)
                         [pc] (line)
3B7D  CA                 [01] (-54)
3B7E  02                 [02] (-54)
3B7F  00                 [03] (-54)
3B80  00                 [04] (-54)
3B81  CA                 [05] (-54)
3B82  02                 [06] (-53)
3B83  00                 [07] (-50)
3B84  00                 [08] (-50)
3B85  CA                 [09] (-50)
3B86  02                 [10] (-50)
3B87  00                 [11] (-50)
3B88  00                 [12] (-50)
3B89  CA                 [13] (-49)
3B8A  02                 [14] (-46)
3B8B  00                 [15] (-46)
3B8C  00                 [16] (-45)
3B8D  CA                 [17] (-43)
3B8E  02                 [18] (-43)
3B8F  00                 [19] (-43)
3B90  00                 [20] (-41)
3B91  CB                 [21] (-41)
3B92  02                 [22] (-40)
3B93  00                 [23] (-40)
3B94  00                 [24] (-40)
3B95  CE                 [25] (-40)
3B96  02                 [26] (-39)
3B97  00                 [27] (-39)
3B98  00                 [28] (-39)
3B99  CE                 [29] (-36)
3B9A  02                 [30] (-36)
3B9B  00                 [31] (-36)
3B9C  00                 [32] (-36)
3B9D  CE                 [33] (-36)
3B9E  02                 [34] (-36)
3B9F  00                 [35] (-36)
3BA0  00                 [36] (-35)
3BA1  CE                 [37] (-35)
3BA2  02                 [38] (-35)
3BA3  00                 [39] (-35)
3BA4  00                 [40] (-33)
                         * locals:
3C1D  00                 sizelocvars (0)
                         * upvalues:
3C1E  00                 sizeupvalues (0)
                         ** end of function **

                         
3C1F                     ** function [19] definition (level 2)
                         ** start of function **
3C1F  00                 string size (0)
                         source name: (none)
3C21  05                 line defined (738)
3C22  80                 last line defined (768)
3C23  06                 nups (0)
3C24  00                 numparams (1)
3C25  01                 is_vararg (0)
3C26  00                 maxstacksize (15)
                         * code:
3C28  42                 sizecode (66)
3C29  5D000000           [01] getglobal  1   0        ; 538022378
3C2D  99400000           [02] loadk      2   1        ; 0
3C31  62400001           [03] call       1   2   1  
3C35  5D800000           [04] getglobal  1   2        ; -1817107093
3C39  99C00000           [05] loadk      2   3        ; "HullBreach()"
3C3D  62400001           [06] call       1   2   1  
3C41  5D000100           [07] getglobal  1   4        ; _T
3C45  4C80C182           [08] settable   1   261 262  ; "canClearHullBreach" 0
3C49  64C04100           [09] self       1   0   263  ; 1839670529
3C4D  62800001           [10] call       1   2   2  
3C51  9D000200           [11] getglobal  2   8        ; gRegion
3C55  A4404201           [12] self       2   2   265  ; 152279552
3C59  1D810200           [13] getglobal  4   10       ; avatarType
3C5D  52018000           [14] move       5   1      
3C61  99C10200           [15] loadk      6   11       ; 0
3C65  D9010300           [16] loadk      7   12       ; 0
3C69  A2800003           [17] call       2   6   2  
3C6D  C6008001           [18] loadnil    3   3      
3C71  17010000           [19] loadbool   4   0   0    ; false
3C75  5D410300           [20] getglobal  5   13       ; 1074689893
3C79  92010001           [21] move       6   2      
3C7D  62810001           [22] call       5   2   2  
3C81  58410000           [23] test       5       1    ; to [25] if false
3C85  1A000380           [24] jmp        13           ; to [38]
3C89  59810300           [25] loadk      5   14       ; 0
3C8D  8A010001           [26] len        6   2      
3C91  D9810300           [27] loadk      7   14       ; 0
3C95  50C10180           [28] forprep    5   8        ; to [37]
3C99  4E020201           [29] gettable   9   2   8  
3C9D  64C2C304           [30] self       9   9   271  ; -1201586349
3CA1  62820001           [31] call       9   2   2  
3CA5  12018004           [32] move       4   9      
3CA9  18010000           [33] test       4       0    ; to [35] if true
3CAD  1A400080           [34] jmp        2            ; to [37]
3CB1  CE000201           [35] gettable   3   2   8  
3CB5  1A000080           [36] jmp        1            ; to [38]
3CB9  5481FD7F           [37] forloop    5   -9       ; to [29] if loop
3CBD  18010000           [38] test       4       0    ; to [40] if true
3CC1  1AC00480           [39] jmp        20           ; to [60]
3CC5  5D420300           [40] getglobal  9   13       ; 1074689893
3CC9  9D020400           [41] getglobal  10  16       ; shakeScript
3CCD  62820001           [42] call       9   2   2  
3CD1  58420000           [43] test       9       1    ; to [45] if false
3CD5  1AC00080           [44] jmp        4            ; to [49]
3CD9  5D020400           [45] getglobal  9   16       ; shakeScript
3CDD  6442C404           [46] self       9   9   273  ; -1923578185
3CE1  D9820400           [47] loadk      11  18       ; "Execute"
3CE5  62428001           [48] call       9   3   1  
3CE9  5D420300           [49] getglobal  9   13       ; 1074689893
3CED  92028001           [50] move       10  3      
3CF1  62820001           [51] call       9   2   2  
3CF5  58420000           [52] test       9       1    ; to [54] if false
3CF9  1A400180           [53] jmp        6            ; to [60]
3CFD  64C2C401           [54] self       9   3   275  ; 630793108
3D01  DD020500           [55] getglobal  11  20       ; enterBreachSound
3D05  17030000           [56] loadbool   12  0   0    ; false
3D09  59C30200           [57] loadk      13  11       ; 0
3D0D  97030000           [58] loadbool   14  0   0    ; false
3D11  62420003           [59] call       9   6   1  
3D15  6442C501           [60] self       9   3   277  ; -1444325826
3D19  D7028000           [61] loadbool   11  1   0    ; true
3D1D  62428001           [62] call       9   3   1  
3D21  5D820000           [63] getglobal  9   2        ; -1817107093
3D25  99820500           [64] loadk      10  22       ; "Hull breach done"
3D29  62420001           [65] call       9   2   1  
3D2D  1E008000           [66] return     0   1      
                         * constants:
3D31  17                 sizek (23)
3D32  01                 const type 3
3D33  EA911120           const [0]: (538022378)
3D37  03                 const type 3
3D38  0000C841           const [1]: (0)
3D3C  01                 const type 3
3D3D  6B25B193           const [2]: (-1817107093)
3D41  04                 const type 4
3D42  0D                 string size (13)
3D43  48756C6C42726561+  "HullBrea"
3D4B  6368282900         "ch()\0"
                         const [3]: "HullBreach()"
3D50  04                 const type 4
3D51  03                 string size (3)
3D52  5F5400             "_T\0"
                         const [4]: "_T"
3D55  04                 const type 4
3D56  13                 string size (19)
3D57  63616E436C656172+  "canClear"
3D5F  48756C6C42726561+  "HullBrea"
3D67  636800             "ch\0"
                         const [5]: "canClearHullBreach"
3D6A  01                 const type 3
3D6B  00000000           const [6]: (0)
3D6F  01                 const type 3
3D70  0125A76D           const [7]: (1839670529)
3D74  04                 const type 4
3D75  08                 string size (8)
3D76  67526567696F6E00   "gRegion\0"
                         const [8]: "gRegion"
3D7E  01                 const type 3
3D7F  009A1309           const [9]: (152279552)
3D83  04                 const type 4
3D84  0B                 string size (11)
3D85  6176617461725479+  "avatarTy"
3D8D  706500             "pe\0"
                         const [10]: "avatarType"
3D90  03                 const type 3
3D91  00000000           const [11]: (0)
3D95  03                 const type 3
3D96  0000C842           const [12]: (0)
3D9A  01                 const type 3
3D9B  65770E40           const [13]: (1074689893)
3D9F  03                 const type 3
3DA0  0000803F           const [14]: (0)
3DA4  01                 const type 3
3DA5  533F61B8           const [15]: (-1201586349)
3DA9  04                 const type 4
3DAA  0C                 string size (12)
3DAB  7368616B65536372+  "shakeScr"
3DB3  69707400           "ipt\0"
                         const [16]: "shakeScript"
3DB7  01                 const type 3
3DB8  B786588D           const [17]: (-1923578185)
3DBC  04                 const type 4
3DBD  08                 string size (8)
3DBE  4578656375746500   "Execute\0"
                         const [18]: "Execute"
3DC6  01                 const type 3
3DC7  94239925           const [19]: (630793108)
3DCB  04                 const type 4
3DCC  11                 string size (17)
3DCD  656E746572427265+  "enterBre"
3DD5  616368536F756E64+  "achSound"
3DDD  00                 "\0"
                         const [20]: "enterBreachSound"
3DDE  01                 const type 3
3DDF  3E56E9A9           const [21]: (-1444325826)
3DE3  04                 const type 4
3DE4  11                 string size (17)
3DE5  48756C6C20627265+  "Hull bre"
3DED  61636820646F6E65+  "ach done"
3DF5  00                 "\0"
                         const [22]: "Hull breach done"
                         * functions:
3DF6  00                 sizep (0)
                         * lines:
3DF7  42                 sizelineinfo (66)
                         [pc] (line)
3DF8  E3                 [01] (-29)
3DF9  02                 [02] (-29)
3DFA  00                 [03] (-29)
3DFB  00                 [04] (-28)
3DFC  E3                 [05] (-28)
3DFD  02                 [06] (-28)
3DFE  00                 [07] (-27)
3DFF  00                 [08] (-27)
3E00  E3                 [09] (-26)
3E01  02                 [10] (-26)
3E02  00                 [11] (-25)
3E03  00                 [12] (-25)
3E04  E4                 [13] (-25)
3E05  02                 [14] (-25)
3E06  00                 [15] (-25)
3E07  00                 [16] (-25)
3E08  E4                 [17] (-25)
3E09  02                 [18] (-24)
3E0A  00                 [19] (-23)
3E0B  00                 [20] (-22)
3E0C  E4                 [21] (-22)
3E0D  02                 [22] (-22)
3E0E  00                 [23] (-22)
3E0F  00                 [24] (-22)
3E10  E5                 [25] (-21)
3E11  02                 [26] (-21)
3E12  00                 [27] (-21)
3E13  00                 [28] (-21)
3E14  E5                 [29] (-20)
3E15  02                 [30] (-20)
3E16  00                 [31] (-20)
3E17  00                 [32] (-20)
3E18  E6                 [33] (-18)
3E19  02                 [34] (-18)
3E1A  00                 [35] (-17)
3E1B  00                 [36] (-16)
3E1C  E6                 [37] (-21)
3E1D  02                 [38] (-11)
3E1E  00                 [39] (-11)
3E1F  00                 [40] (-10)
3E20  E7                 [41] (-10)
3E21  02                 [42] (-10)
3E22  00                 [43] (-10)
3E23  00                 [44] (-10)
3E24  E7                 [45] (-9)
3E25  02                 [46] (-9)
3E26  00                 [47] (-9)
3E27  00                 [48] (-9)
3E28  E7                 [49] (-6)
3E29  02                 [50] (-6)
3E2A  00                 [51] (-6)
3E2B  00                 [52] (-6)
3E2C  E7                 [53] (-6)
3E2D  02                 [54] (-5)
3E2E  00                 [55] (-5)
3E2F  00                 [56] (-5)
3E30  E7                 [57] (-5)
3E31  02                 [58] (-5)
3E32  00                 [59] (-5)
3E33  00                 [60] (-2)
3E34  E7                 [61] (-2)
3E35  02                 [62] (-2)
3E36  00                 [63] (-1)
3E37  00                 [64] (-1)
3E38  E7                 [65] (-1)
3E39  02                 [66] (0)
                         * locals:
3F00  00                 sizelocvars (0)
                         * upvalues:
3F01  00                 sizeupvalues (0)
                         ** end of function **

                         
3F02                     ** function [20] definition (level 2)
                         ** start of function **
3F02  00                 string size (0)
                         source name: (none)
3F04  06                 line defined (771)
3F05  A0                 last line defined (800)
3F06  06                 nups (4)
3F07  04                 numparams (0)
3F08  00                 is_vararg (0)
3F09  00                 maxstacksize (13)
                         * code:
3F0B  59                 sizecode (89)
3F0C  13000000           [01] getupval   0   0      
3F10  0E004000           [02] gettable   0   0   256  ; -897269744
3F14  5D400000           [03] getglobal  1   1        ; firePortTag
3F18  9D800000           [04] getglobal  2   2        ; -1615931716
3F1C  DDC00000           [05] getglobal  3   3        ; firePortName
3F20  A2000001           [06] call       2   2   0  
3F24  22400000           [07] call       0   0   1  
3F28  1D000100           [08] getglobal  0   4        ; gRegion
3F2C  24404100           [09] self       0   0   261  ; 152279552
3F30  9D800100           [10] getglobal  2   6        ; gLisetDecorationType
3F34  22808001           [11] call       0   3   2  
3F38  5DC00100           [12] getglobal  1   7        ; 1672515847
3F3C  92000000           [13] move       2   0      
3F40  62000101           [14] call       1   2   4  
3F44  1AC00A80           [15] jmp        44           ; to [60]
3F48  A401C202           [16] self       6   5   264  ; -697717374
3F4C  19420200           [17] loadk      8   9        ; 0
3F50  59820200           [18] loadk      9   10       ; 0
3F54  99C20200           [19] loadk      10  11       ; 0
3F58  A2418002           [20] call       6   5   1  
3F5C  A401C302           [21] self       6   5   268  ; -786111647
3F60  13028000           [22] getupval   8   1      
3F64  5D420300           [23] getglobal  9   13       ; PurgeFlashTint
3F68  4E82C304           [24] gettable   9   9   270  ; "red"
3F6C  5CC2C304           [25] div        9   9   271  ; 0
3F70  9D420300           [26] getglobal  10  13       ; PurgeFlashTint
3F74  8E024405           [27] gettable   10  10  272  ; "green"
3F78  9CC24305           [28] div        10  10  271  ; 0
3F7C  DD420300           [29] getglobal  11  13       ; PurgeFlashTint
3F80  CE42C405           [30] gettable   11  11  273  ; "blue"
3F84  DCC2C305           [31] div        11  11  271  ; 0
3F88  19830400           [32] loadk      12  18       ; 0
3F8C  A2418003           [33] call       6   7   1  
3F90  A401C302           [34] self       6   5   268  ; -786111647
3F94  13020001           [35] getupval   8   2      
3F98  5D420300           [36] getglobal  9   13       ; PurgeFlashTint
3F9C  4E82C304           [37] gettable   9   9   270  ; "red"
3FA0  5CC2C304           [38] div        9   9   271  ; 0
3FA4  9D420300           [39] getglobal  10  13       ; PurgeFlashTint
3FA8  8E024405           [40] gettable   10  10  272  ; "green"
3FAC  9CC24305           [41] div        10  10  271  ; 0
3FB0  DD420300           [42] getglobal  11  13       ; PurgeFlashTint
3FB4  CE42C405           [43] gettable   11  11  273  ; "blue"
3FB8  DCC2C305           [44] div        11  11  271  ; 0
3FBC  19830400           [45] loadk      12  18       ; 0
3FC0  A2418003           [46] call       6   7   1  
3FC4  A401C302           [47] self       6   5   268  ; -786111647
3FC8  13028001           [48] getupval   8   3      
3FCC  5D420300           [49] getglobal  9   13       ; PurgeFlashTint
3FD0  4E82C304           [50] gettable   9   9   270  ; "red"
3FD4  5CC2C304           [51] div        9   9   271  ; 0
3FD8  9D420300           [52] getglobal  10  13       ; PurgeFlashTint
3FDC  8E024405           [53] gettable   10  10  272  ; "green"
3FE0  9CC24305           [54] div        10  10  271  ; 0
3FE4  DD420300           [55] getglobal  11  13       ; PurgeFlashTint
3FE8  CE42C405           [56] gettable   11  11  273  ; "blue"
3FEC  DCC2C305           [57] div        11  11  271  ; 0
3FF0  19830400           [58] loadk      12  18       ; 0
3FF4  A2418003           [59] call       6   7   1  
3FF8  56800000           [60] tforloop   1       2    ; to [62] if exit
3FFC  1A40F47F           [61] jmp        -46          ; to [16]
4000  9D010100           [62] getglobal  6   4        ; gRegion
4004  A4C14403           [63] self       6   6   275  ; -1456226250
4008  A2810001           [64] call       6   2   2  
400C  8E014503           [65] gettable   6   6   276  ; "postProcess"
4010  DD810500           [66] getglobal  7   22       ; PurgeTint
4014  8CC1818A           [67] settable   6   277 7    ; "lightMapTint"
4018  D9810400           [68] loadk      7   18       ; 0
fail op	33
401C  21C0C503           [69] tforloop   0       279  ; to [71] if exit
4020  1A400180           [70] jmp        6            ; to [77]
4024  C301C603           [71] add        7   7   280  ; -51
4028  8CC1818C           [72] settable   6   281 7    ; "lightMapBoost"
402C  1D820600           [73] getglobal  8   26       ; 538022378
4030  59C20600           [74] loadk      9   27       ; 10
4034  22420001           [75] call       8   2   1  
4038  1AC0FD7F           [76] jmp        -8           ; to [69]
fail op	33
403C  21C0018C           [77] tforloop   0       7    ; to [79] if exit
4040  1A400180           [78] jmp        6            ; to [85]
4044  CD01C603           [79] sub        7   7   280  ; -51
4048  8CC1818C           [80] settable   6   281 7    ; "lightMapBoost"
404C  1D820600           [81] getglobal  8   26       ; 538022378
4050  59C20600           [82] loadk      9   27       ; 10
4054  22420001           [83] call       8   2   1  
4058  1AC0FD7F           [84] jmp        -8           ; to [77]
405C  1D820600           [85] getglobal  8   26       ; 538022378
4060  59820200           [86] loadk      9   10       ; 0
4064  22420001           [87] call       8   2   1  
4068  1AC0FA7F           [88] jmp        -20          ; to [69]
406C  1E008000           [89] return     0   1      
                         * constants:
4070  1C                 sizek (28)
4071  01                 const type 3
4072  10C084CA           const [0]: (-897269744)
4076  04                 const type 4
4077  0C                 string size (12)
4078  66697265506F7274+  "firePort"
4080  54616700           "Tag\0"
                         const [1]: "firePortTag"
4084  01                 const type 3
4085  BCD6AE9F           const [2]: (-1615931716)
4089  04                 const type 4
408A  0D                 string size (13)
408B  66697265506F7274+  "firePort"
4093  4E616D6500         "Name\0"
                         const [3]: "firePortName"
4098  04                 const type 4
4099  08                 string size (8)
409A  67526567696F6E00   "gRegion\0"
                         const [4]: "gRegion"
40A2  01                 const type 3
40A3  009A1309           const [5]: (152279552)
40A7  04                 const type 4
40A8  15                 string size (21)
40A9  674C697365744465+  "gLisetDe"
40B1  636F726174696F6E+  "coration"
40B9  5479706500         "Type\0"
                         const [6]: "gLisetDecorationType"
40BE  01                 const type 3
40BF  0791B063           const [7]: (1672515847)
40C3  01                 const type 3
40C4  82AD69D6           const [8]: (-697717374)
40C8  03                 const type 3
40C9  00000040           const [9]: (0)
40CD  03                 const type 3
40CE  00000000           const [10]: (0)
40D2  03                 const type 3
40D3  0000A040           const [11]: (0)
40D7  01                 const type 3
40D8  61E324D1           const [12]: (-786111647)
40DC  04                 const type 4
40DD  0F                 string size (15)
40DE  5075726765466C61+  "PurgeFla"
40E6  736854696E7400     "shTint\0"
                         const [13]: "PurgeFlashTint"
40ED  04                 const type 4
40EE  04                 string size (4)
40EF  72656400           "red\0"
                         const [14]: "red"
40F3  03                 const type 3
40F4  00007F43           const [15]: (0)
40F8  04                 const type 4
40F9  06                 string size (6)
40FA  677265656E00       "green\0"
                         const [16]: "green"
4100  04                 const type 4
4101  05                 string size (5)
4102  626C756500         "blue\0"
                         const [17]: "blue"
4107  03                 const type 3
4108  0000803F           const [18]: (0)
410C  01                 const type 3
410D  36C033A9           const [19]: (-1456226250)
4111  04                 const type 4
4112  0C                 string size (12)
4113  706F737450726F63+  "postProc"
411B  65737300           "ess\0"
                         const [20]: "postProcess"
411F  04                 const type 4
4120  0D                 string size (13)
4121  6C696768744D6170+  "lightMap"
4129  54696E7400         "Tint\0"
                         const [21]: "lightMapTint"
412E  04                 const type 4
412F  0A                 string size (10)
4130  507572676554696E+  "PurgeTin"
4138  7400               "t\0"
                         const [22]: "PurgeTint"
413A  03                 const type 3
413B  00000041           const [23]: (0)
413F  03                 const type 3
4140  CDCCCC3D           const [24]: (-51)
4144  04                 const type 4
4145  0E                 string size (14)
4146  6C696768744D6170+  "lightMap"
414E  426F6F737400       "Boost\0"
                         const [25]: "lightMapBoost"
4154  01                 const type 3
4155  EA911120           const [26]: (538022378)
4159  03                 const type 3
415A  0AD7233C           const [27]: (10)
                         * functions:
415E  00                 sizep (0)
                         * lines:
415F  59                 sizelineinfo (89)
                         [pc] (line)
4160  05                 [01] (5)
4161  03                 [02] (5)
4162  00                 [03] (5)
4163  00                 [04] (5)
4164  05                 [05] (5)
4165  03                 [06] (5)
4166  00                 [07] (5)
4167  00                 [08] (8)
4168  05                 [09] (8)
4169  03                 [10] (8)
416A  00                 [11] (8)
416B  00                 [12] (9)
416C  05                 [13] (9)
416D  03                 [14] (9)
416E  00                 [15] (9)
416F  00                 [16] (10)
4170  05                 [17] (10)
4171  03                 [18] (10)
4172  00                 [19] (10)
4173  00                 [20] (10)
4174  05                 [21] (11)
4175  03                 [22] (11)
4176  00                 [23] (11)
4177  00                 [24] (11)
4178  05                 [25] (11)
4179  03                 [26] (11)
417A  00                 [27] (11)
417B  00                 [28] (11)
417C  08                 [29] (11)
417D  03                 [30] (11)
417E  00                 [31] (11)
417F  00                 [32] (11)
4180  08                 [33] (11)
4181  03                 [34] (12)
4182  00                 [35] (12)
4183  00                 [36] (12)
4184  08                 [37] (12)
4185  03                 [38] (12)
4186  00                 [39] (12)
4187  00                 [40] (12)
4188  08                 [41] (12)
4189  03                 [42] (12)
418A  00                 [43] (12)
418B  00                 [44] (12)
418C  09                 [45] (12)
418D  03                 [46] (12)
418E  00                 [47] (13)
418F  00                 [48] (13)
4190  09                 [49] (13)
4191  03                 [50] (13)
4192  00                 [51] (13)
4193  00                 [52] (13)
4194  09                 [53] (13)
4195  03                 [54] (13)
4196  00                 [55] (13)
4197  00                 [56] (13)
4198  09                 [57] (13)
4199  03                 [58] (13)
419A  00                 [59] (13)
419B  00                 [60] (9)
419C  0A                 [61] (13)
419D  03                 [62] (16)
419E  00                 [63] (16)
419F  00                 [64] (16)
41A0  0A                 [65] (16)
41A1  03                 [66] (17)
41A2  00                 [67] (17)
41A3  00                 [68] (18)
41A4  0A                 [69] (20)
41A5  03                 [70] (20)
41A6  00                 [71] (21)
41A7  00                 [72] (22)
41A8  0A                 [73] (23)
41A9  03                 [74] (23)
41AA  00                 [75] (23)
41AB  00                 [76] (23)
41AC  0A                 [77] (25)
41AD  03                 [78] (25)
41AE  00                 [79] (26)
41AF  00                 [80] (27)
41B0  0B                 [81] (28)
41B1  03                 [82] (28)
41B2  00                 [83] (28)
41B3  00                 [84] (28)
41B4  0B                 [85] (30)
41B5  03                 [86] (30)
41B6  00                 [87] (30)
41B7  00                 [88] (30)
41B8  0B                 [89] (32)
                         * locals:
42C4  00                 sizelocvars (0)
                         * upvalues:
42C5  00                 sizeupvalues (0)
                         ** end of function **

                         
42C6                     ** function [21] definition (level 2)
                         ** start of function **
42C6  00                 string size (0)
                         source name: (none)
42C8  06                 line defined (802)
42C9  AA                 last line defined (810)
42CA  06                 nups (0)
42CB  00                 numparams (2)
42CC  02                 is_vararg (0)
42CD  00                 maxstacksize (6)
                         * code:
42CF  0F                 sizecode (15)
42D0  9D000000           [01] getglobal  2   0        ; gRegion
42D4  A4404001           [02] self       2   2   257  ; -774964848
42D8  A2800001           [03] call       2   2   2  
42DC  E4804001           [04] self       3   2   258  ; 537471347
42E0  E2800001           [05] call       3   2   2  
42E4  24C1C001           [06] self       4   3   259  ; -375466777
42E8  22810001           [07] call       4   2   2  
42EC  18010000           [08] test       4       0    ; to [10] if true
42F0  1A800080           [09] jmp        3            ; to [13]
42F4  19010100           [10] loadk      4   4        ; "/Lotus/Language/Actions/HackSystem"
42F8  1E010001           [11] return     4   2      
42FC  1A400080           [12] jmp        2            ; to [15]
4300  19410100           [13] loadk      4   5        ; "/Lotus/Language/Actions/HackAlarms"
4304  1E010001           [14] return     4   2      
4308  1E008000           [15] return     0   1      
                         * constants:
430C  06                 sizek (6)
430D  04                 const type 4
430E  08                 string size (8)
430F  67526567696F6E00   "gRegion\0"
                         const [0]: "gRegion"
4317  01                 const type 3
4318  90F9CED1           const [1]: (-774964848)
431C  01                 const type 3
431D  73290920           const [2]: (537471347)
4321  01                 const type 3
4322  E7D49EE9           const [3]: (-375466777)
4326  04                 const type 4
4327  23                 string size (35)
4328  2F4C6F7475732F4C+  "/Lotus/L"
4330  616E67756167652F+  "anguage/"
4338  416374696F6E732F+  "Actions/"
4340  4861636B53797374+  "HackSyst"
4348  656D00             "em\0"
                         const [4]: "/Lotus/Language/Actions/HackSystem"
434B  04                 const type 4
434C  23                 string size (35)
434D  2F4C6F7475732F4C+  "/Lotus/L"
4355  616E67756167652F+  "anguage/"
435D  416374696F6E732F+  "Actions/"
4365  4861636B416C6172+  "HackAlar"
436D  6D7300             "ms\0"
                         const [5]: "/Lotus/Language/Actions/HackAlarms"
                         * functions:
4370  00                 sizep (0)
                         * lines:
4371  0F                 sizelineinfo (15)
                         [pc] (line)
4372  23                 [01] (35)
4373  03                 [02] (35)
4374  00                 [03] (35)
4375  00                 [04] (36)
4376  23                 [05] (36)
4377  03                 [06] (37)
4378  00                 [07] (37)
4379  00                 [08] (37)
437A  23                 [09] (37)
437B  03                 [10] (38)
437C  00                 [11] (38)
437D  00                 [12] (38)
437E  24                 [13] (40)
437F  03                 [14] (40)
4380  00                 [15] (42)
                         * locals:
43AE  00                 sizelocvars (0)
                         * upvalues:
43AF  00                 sizeupvalues (0)
                         ** end of function **

                         
43B0                     ** function [22] definition (level 2)
                         ** start of function **
43B0  00                 string size (0)
                         source name: (none)
43B2  06                 line defined (812)
43B3  D3                 last line defined (851)
43B4  06                 nups (1)
43B5  01                 numparams (0)
43B6  00                 is_vararg (0)
43B7  00                 maxstacksize (26)
                         * code:
43B9  67                 sizecode (103)
43BA  1D000000           [001] getglobal  0   0        ; gRegion
43BE  24404000           [002] self       0   0   257  ; -1485896174
43C2  9D800000           [003] getglobal  2   2        ; -332969190
43C6  D9C00000           [004] loadk      3   3        ; "PanicButton"
43CA  A2000001           [005] call       2   2   0  
43CE  22800000           [006] call       0   0   2  
43D2  5D000100           [007] getglobal  1   4        ; 1074689893
43D6  92000000           [008] move       2   0      
43DA  62800001           [009] call       1   2   2  
43DE  58400000           [010] test       1       1    ; to [12] if false
43E2  1A801680           [011] jmp        91           ; to [103]
43E6  4A000000           [012] len        1   0      
fail op	21
43EA  15408082           [013] concat     0   261 1  
43EE  1AC01580           [014] jmp        88           ; to [103]
43F2  4B000100           [015] newtable   1   0   4    ; array=0, hash=4
43F6  9D800000           [016] getglobal  2   2        ; -332969190
43FA  D9C00100           [017] loadk      3   7        ; "CorpusPanicDeco"
43FE  A2800001           [018] call       2   2   2  
4402  4C800083           [019] settable   1   262 2    ; "tag"
4406  9D400200           [020] getglobal  2   9        ; onMaterialsCorpus
440A  4C800084           [021] settable   1   264 2    ; "lockdownMats"
440E  9DC00200           [022] getglobal  2   11       ; alertMaterialsCorpus
4412  4C800085           [023] settable   1   266 2    ; "alertMats"
4416  9D400300           [024] getglobal  2   13       ; offMaterialsCorpus
441A  4C800086           [025] settable   1   268 2    ; "offMats"
441E  8B000100           [026] newtable   2   0   4    ; array=0, hash=4
4422  DD800000           [027] getglobal  3   2        ; -332969190
4426  19810300           [028] loadk      4   14       ; "GrineerPanicDeco"
442A  E2800001           [029] call       3   2   2  
442E  8CC00083           [030] settable   2   262 3    ; "tag"
4432  DDC00300           [031] getglobal  3   15       ; onMaterialsGrineer
4436  8CC00084           [032] settable   2   264 3    ; "lockdownMats"
443A  DD000400           [033] getglobal  3   16       ; alertMaterialsGrineer
443E  8CC00085           [034] settable   2   266 3    ; "alertMats"
4442  DD400400           [035] getglobal  3   17       ; offMaterialsGrineer
4446  8CC00086           [036] settable   2   268 3    ; "offMats"
444A  CB000001           [037] newtable   3   2   0    ; array=2, hash=0
444E  12018000           [038] move       4   1      
4452  52010001           [039] move       5   2      
4456  DB400001           [040] setlist    3   2   1    ; index 1 to 2
445A  13010000           [041] getupval   4   0      
445E  0E814402           [042] gettable   4   4   274  ; -1262642991
4462  22818000           [043] call       4   1   2  
4466  5DC10400           [044] getglobal  5   19       ; 1672515847
446A  92010000           [045] move       6   0      
446E  62010101           [046] call       5   2   4  
4472  1A000D80           [047] jmp        53           ; to [101]
4476  A402C504           [048] self       10  9   276  ; -1625438872
447A  1D430500           [049] getglobal  12  21       ; gDecorationType
447E  A2828001           [050] call       10  3   2  
4482  DD020100           [051] getglobal  11  4        ; 1074689893
4486  12030005           [052] move       12  10     
448A  E2820001           [053] call       11  2   2  
448E  D8420000           [054] test       11      1    ; to [56] if false
4492  1A000B80           [055] jmp        45           ; to [101]
4496  C6028005           [056] loadnil    11  11     
449A  1DC30400           [057] getglobal  12  19       ; 1672515847
449E  52038001           [058] move       13  3      
44A2  22030101           [059] call       12  2   4  
44A6  1A800180           [060] jmp        7            ; to [68]
44AA  64844505           [061] self       17  10  278  ; -830264577
44AE  62840001           [062] call       17  2   2  
44B2  8E844108           [063] gettable   18  16  262  ; "tag"
fail op	35
44B6  23808408           [064] close      0  
44BA  1A400080           [065] jmp        2            ; to [68]
44BE  D2020008           [066] move       11  16     
44C2  1A400080           [067] jmp        2            ; to [70]
44C6  16830000           [068] tforloop   12      2    ; to [70] if exit
44CA  1A80FD7F           [069] jmp        -9           ; to [61]
44CE  5D040100           [070] getglobal  17  4        ; 1074689893
44D2  92048005           [071] move       18  11     
44D6  62840001           [072] call       17  2   2  
44DA  58440000           [073] test       17      1    ; to [75] if false
44DE  1A400680           [074] jmp        26           ; to [101]
44E2  4E04C305           [075] gettable   17  11  268  ; "offMats"
44E6  93040000           [076] getupval   18  0      
44EA  8EC44509           [077] gettable   18  18  279  ; "LOCKDOWN"
fail op	35
44EE  23800402           [078] close      0  
44F2  1A400080           [079] jmp        2            ; to [82]
44F6  4E04C205           [080] gettable   17  11  264  ; "lockdownMats"
44FA  1A000180           [081] jmp        5            ; to [87]
44FE  93040000           [082] getupval   18  0      
4502  8E044609           [083] gettable   18  18  280  ; "ALERT"
fail op	35
4506  23800402           [084] close      0  
450A  1A000080           [085] jmp        1            ; to [87]
450E  4E84C205           [086] gettable   17  11  266  ; "alertMats"
4512  99440600           [087] loadk      18  25       ; 0
4516  CA048008           [088] len        19  17     
451A  19450600           [089] loadk      20  25       ; 0
451E  90040280           [090] forprep    18  9        ; to [100]
4522  9D050100           [091] getglobal  22  4        ; 1074689893
4526  CE458508           [092] gettable   23  17  21 
452A  A2850001           [093] call       22  2   2  
452E  98450000           [094] test       22      1    ; to [96] if false
4532  1AC00080           [095] jmp        4            ; to [100]
4536  A4854605           [096] self       22  10  282  ; 1728877662
453A  0D46C60A           [097] sub        24  21  281  ; 0
453E  4E468508           [098] gettable   25  17  21 
4542  A2450002           [099] call       22  4   1  
4546  9444FD7F           [100] forloop    18  -10      ; to [91] if loop
454A  56810000           [101] tforloop   5       2    ; to [103] if exit
454E  1A00F27F           [102] jmp        -55          ; to [48]
4552  1E008000           [103] return     0   1      
                         * constants:
4556  1B                 sizek (27)
4557  04                 const type 4
4558  08                 string size (8)
4559  67526567696F6E00   "gRegion\0"
                         const [0]: "gRegion"
4561  01                 const type 3
4562  12066FA7           const [1]: (-1485896174)
4566  01                 const type 3
4567  1A4B27EC           const [2]: (-332969190)
456B  04                 const type 4
456C  0C                 string size (12)
456D  50616E6963427574+  "PanicBut"
4575  746F6E00           "ton\0"
                         const [3]: "PanicButton"
4579  01                 const type 3
457A  65770E40           const [4]: (1074689893)
457E  03                 const type 3
457F  00000000           const [5]: (0)
4583  04                 const type 4
4584  04                 string size (4)
4585  74616700           "tag\0"
                         const [6]: "tag"
4589  04                 const type 4
458A  10                 string size (16)
458B  436F727075735061+  "CorpusPa"
4593  6E69634465636F00   "nicDeco\0"
                         const [7]: "CorpusPanicDeco"
459B  04                 const type 4
459C  0D                 string size (13)
459D  6C6F636B646F776E+  "lockdown"
45A5  4D61747300         "Mats\0"
                         const [8]: "lockdownMats"
45AA  04                 const type 4
45AB  12                 string size (18)
45AC  6F6E4D6174657269+  "onMateri"
45B4  616C73436F727075+  "alsCorpu"
45BC  7300               "s\0"
                         const [9]: "onMaterialsCorpus"
45BE  04                 const type 4
45BF  0A                 string size (10)
45C0  616C6572744D6174+  "alertMat"
45C8  7300               "s\0"
                         const [10]: "alertMats"
45CA  04                 const type 4
45CB  15                 string size (21)
45CC  616C6572744D6174+  "alertMat"
45D4  657269616C73436F+  "erialsCo"
45DC  7270757300         "rpus\0"
                         const [11]: "alertMaterialsCorpus"
45E1  04                 const type 4
45E2  08                 string size (8)
45E3  6F66664D61747300   "offMats\0"
                         const [12]: "offMats"
45EB  04                 const type 4
45EC  13                 string size (19)
45ED  6F66664D61746572+  "offMater"
45F5  69616C73436F7270+  "ialsCorp"
45FD  757300             "us\0"
                         const [13]: "offMaterialsCorpus"
4600  04                 const type 4
4601  11                 string size (17)
4602  4772696E65657250+  "GrineerP"
460A  616E69634465636F+  "anicDeco"
4612  00                 "\0"
                         const [14]: "GrineerPanicDeco"
4613  04                 const type 4
4614  13                 string size (19)
4615  6F6E4D6174657269+  "onMateri"
461D  616C734772696E65+  "alsGrine"
4625  657200             "er\0"
                         const [15]: "onMaterialsGrineer"
4628  04                 const type 4
4629  16                 string size (22)
462A  616C6572744D6174+  "alertMat"
4632  657269616C734772+  "erialsGr"
463A  696E65657200       "ineer\0"
                         const [16]: "alertMaterialsGrineer"
4640  04                 const type 4
4641  14                 string size (20)
4642  6F66664D61746572+  "offMater"
464A  69616C734772696E+  "ialsGrin"
4652  65657200           "eer\0"
                         const [17]: "offMaterialsGrineer"
4656  01                 const type 3
4657  D198BDB4           const [18]: (-1262642991)
465B  01                 const type 3
465C  0791B063           const [19]: (1672515847)
4660  01                 const type 3
4661  68C51D9F           const [20]: (-1625438872)
4665  04                 const type 4
4666  10                 string size (16)
4667  674465636F726174+  "gDecorat"
466F  696F6E5479706500   "ionType\0"
                         const [21]: "gDecorationType"
4677  01                 const type 3
4678  FF2A83CE           const [22]: (-830264577)
467C  04                 const type 4
467D  09                 string size (9)
467E  4C4F434B444F574E+  "LOCKDOWN"
4686  00                 "\0"
                         const [23]: "LOCKDOWN"
4687  04                 const type 4
4688  06                 string size (6)
4689  414C45525400       "ALERT\0"
                         const [24]: "ALERT"
468F  03                 const type 3
4690  0000803F           const [25]: (0)
4694  01                 const type 3
4695  5E940C67           const [26]: (1728877662)
                         * functions:
4699  00                 sizep (0)
                         * lines:
469A  67                 sizelineinfo (103)
                         [pc] (line)
469B  2D                 [001] (45)
469C  03                 [002] (45)
469D  00                 [003] (45)
469E  00                 [004] (45)
469F  2D                 [005] (45)
46A0  03                 [006] (45)
46A1  00                 [007] (47)
46A2  00                 [008] (47)
46A3  2D                 [009] (47)
46A4  03                 [010] (47)
46A5  00                 [011] (47)
46A6  00                 [012] (47)
46A7  2D                 [013] (47)
46A8  03                 [014] (47)
46A9  00                 [015] (49)
46AA  00                 [016] (49)
46AB  2D                 [017] (49)
46AC  03                 [018] (49)
46AD  00                 [019] (49)
46AE  00                 [020] (49)
46AF  2D                 [021] (49)
46B0  03                 [022] (49)
46B1  00                 [023] (49)
46B2  00                 [024] (49)
46B3  2F                 [025] (49)
46B4  03                 [026] (50)
46B5  00                 [027] (50)
46B6  00                 [028] (50)
46B7  2F                 [029] (50)
46B8  03                 [030] (50)
46B9  00                 [031] (50)
46BA  00                 [032] (50)
46BB  2F                 [033] (50)
46BC  03                 [034] (50)
46BD  00                 [035] (50)
46BE  00                 [036] (50)
46BF  2F                 [037] (51)
46C0  03                 [038] (51)
46C1  00                 [039] (51)
46C2  00                 [040] (51)
46C3  2F                 [041] (53)
46C4  03                 [042] (53)
46C5  00                 [043] (53)
46C6  00                 [044] (55)
46C7  2F                 [045] (55)
46C8  03                 [046] (55)
46C9  00                 [047] (55)
46CA  00                 [048] (56)
46CB  2F                 [049] (56)
46CC  03                 [050] (56)
46CD  00                 [051] (57)
46CE  00                 [052] (57)
46CF  2F                 [053] (57)
46D0  03                 [054] (57)
46D1  00                 [055] (57)
46D2  00                 [056] (58)
46D3  31                 [057] (59)
46D4  03                 [058] (59)
46D5  00                 [059] (59)
46D6  00                 [060] (59)
46D7  31                 [061] (60)
46D8  03                 [062] (60)
46D9  00                 [063] (60)
46DA  00                 [064] (60)
46DB  31                 [065] (60)
46DC  03                 [066] (61)
46DD  00                 [067] (62)
46DE  00                 [068] (59)
46DF  31                 [069] (63)
46E0  03                 [070] (66)
46E1  00                 [071] (66)
46E2  00                 [072] (66)
46E3  31                 [073] (66)
46E4  03                 [074] (66)
46E5  00                 [075] (67)
46E6  00                 [076] (68)
46E7  31                 [077] (68)
46E8  03                 [078] (68)
46E9  00                 [079] (68)
46EA  00                 [080] (69)
46EB  31                 [081] (69)
46EC  03                 [082] (70)
46ED  00                 [083] (70)
46EE  00                 [084] (70)
46EF  31                 [085] (70)
46F0  03                 [086] (71)
46F1  00                 [087] (73)
46F2  00                 [088] (73)
46F3  31                 [089] (73)
46F4  03                 [090] (73)
46F5  00                 [091] (74)
46F6  00                 [092] (74)
46F7  31                 [093] (74)
46F8  03                 [094] (74)
46F9  00                 [095] (74)
46FA  00                 [096] (75)
46FB  31                 [097] (75)
46FC  03                 [098] (75)
46FD  00                 [099] (75)
46FE  00                 [100] (73)
46FF  32                 [101] (55)
4700  03                 [102] (79)
4701  00                 [103] (83)
                         * locals:
4837  00                 sizelocvars (0)
                         * upvalues:
4838  00                 sizeupvalues (0)
                         ** end of function **

                         * lines:
4839  62                 sizelineinfo (98)
                         [pc] (line)
483A  54                 [01] (84)
483B  00                 [02] (85)
483C  00                 [03] (86)
483D  00                 [04] (87)
483E  55                 [05] (89)
483F  00                 [06] (89)
4840  00                 [07] (89)
4841  00                 [08] (90)
4842  56                 [09] (90)
4843  00                 [10] (90)
4844  00                 [11] (91)
4845  00                 [12] (91)
4846  57                 [13] (91)
4847  00                 [14] (97)
4848  00                 [15] (97)
4849  00                 [16] (97)
484A  59                 [17] (98)
484B  00                 [18] (98)
484C  00                 [19] (98)
484D  00                 [20] (99)
484E  59                 [21] (99)
484F  00                 [22] (99)
4850  00                 [23] (109)
4851  00                 [24] (-127)
4852  59                 [25] (-113)
4853  00                 [26] (-84)
4854  00                 [27] (-84)
4855  00                 [28] (-111)
4856  5A                 [29] (-67)
4857  00                 [30] (-67)
4858  00                 [31] (-82)
4859  00                 [32] (-35)
485A  5A                 [33] (-35)
485B  00                 [34] (-35)
485C  00                 [35] (-35)
485D  00                 [36] (-35)
485E  5A                 [37] (-35)
485F  00                 [38] (-65)
4860  00                 [39] (5)
4861  00                 [40] (9)
4862  5B                 [41] (9)
4863  00                 [42] (7)
4864  00                 [43] (82)
4865  00                 [44] (100)
4866  5B                 [45] (-86)
4867  00                 [46] (-86)
4868  00                 [47] (-86)
4869  00                 [48] (-86)
486A  5B                 [49] (-77)
486B  00                 [50] (-77)
486C  00                 [51] (-77)
486D  00                 [52] (-84)
486E  61                 [53] (-56)
486F  00                 [54] (-56)
4870  00                 [55] (-56)
4871  00                 [56] (-56)
4872  61                 [57] (-75)
4873  00                 [58] (-22)
4874  00                 [59] (-22)
4875  00                 [60] (-54)
4876  61                 [61] (8)
4877  00                 [62] (8)
4878  00                 [63] (-20)
4879  00                 [64] (-128)
487A  62                 [65] (-128)
487B  00                 [66] (-128)
487C  00                 [67] (-128)
487D  00                 [68] (-128)
487E  62                 [69] (-128)
487F  00                 [70] (-128)
4880  00                 [71] (10)
4881  00                 [72] (-93)
4882  62                 [73] (-93)
4883  00                 [74] (-126)
4884  00                 [75] (-58)
4885  00                 [76] (-58)
4886  63                 [77] (-91)
4887  00                 [78] (-33)
4888  00                 [79] (-33)
4889  00                 [80] (-55)
488A  63                 [81] (0)
488B  00                 [82] (0)
488C  00                 [83] (-30)
488D  00                 [84] (32)
488E  63                 [85] (32)
488F  00                 [86] (32)
4890  00                 [87] (32)
4891  00                 [88] (32)
4892  6D                 [89] (32)
4893  00                 [90] (3)
4894  00                 [91] (42)
4895  00                 [92] (42)
4896  81                 [93] (34)
4897  00                 [94] (83)
4898  00                 [95] (83)
4899  00                 [96] (83)
489A  8F                 [97] (44)
489B  00                 [98] (83)
                         * locals:
49C2  00                 sizelocvars (0)
                         * upvalues:
49C3  00                 sizeupvalues (0)
                         ** end of function **

49C4                     ** end of chunk **
