1	C:\wlua_dump\path\Lotus\ScriptsEnvSetup.lua
Pos   Hex Data           Description or Code
------------------------------------------------------------------------
0000                     ** source chunk: C:\wlua_dump\path\Lotus\ScriptsEnvSetup.lua
                         ** global header start **
0000  7F                 header signature: ""
0001  00                 version (major:minor hex digits)
0002  00                 format (0=official)
0003  00                 endianness (1=little endian)
0004  00                 size of int (bytes)
0005  00                 size of size_t (bytes)
0006  02                 size of Instruction (bytes)
0007  03                 size of number (bytes)
0008  26                 integral (1=integral)
438
                         * number type: single
                         * x86 standard (32-bit, little endian, doubles)
                         ** global header end **
SkyboxFlight
RandomHiding
RandomMesh
RandomTripWires
ActivateTripWire
DeActivateTripWire
RandomLayer
ShakeSoundRepeat
ExplosionSpawner
SurvivalDoors
SpawnBuddyAgents
heading
pitch
bank
Hide
ShipMeshes
gRegion
TripWire
tripWireType
gRegion
tripWireType
tripWireBeam
gRegion
tripWireType
tripWireBeam
gRegion
gRegion
Creepy
Enable
math
Light
LightFixture
LightNoVolt
LightFixtureNoVolt
LightFixtureTemplate
LightFlare
GodRay
table
Lotus_Game
EMISSIVE_MAP_ATTEN
Disable
UNLIT_ATTEN
Hide
gLightType
EMISSIVE_TINT_COLOR
TurnOff
EnvSetup Error: 
 was tagged as Light when it shouldn't be!
gZoneAttribsType
postProcess
lightMapTint
infestedLightmapTint
GrineerDoorSensor
gGameRules
_T
faction
gWeatherRain
WeatherRain
sortieId

goalTag
EMPTY_SYMBOL
keyChainName
gNoRandomLayers
FactionSwapTriggerZone
gLotusHubGameRulesType
gRegion
AllowWrinkles
Lotus_Game
MT_DEFENSE
invasionId
Infestation
infestedLightsOut
gForceDayNight
Night
fxLayer
DarkFog
CrpAnnouncerMain
Infested
archwingRequired
LightsOut
missionColorCorrectionOverride
Exit
math
forceAllyFaction
FactionSwap
Execute
/Lotus/Fx/Env/Ice/IceGenericDeco
/EE/Types/Alias/Decoration
Ice
gDecorationType
table
EnvSetup: 
 objects removed.
ElementalLayerSetup
gRegion
postProcess
repeats
mindelay
maxdelay
shakeSound
viewShake
mShakeAmbient
gRegion
FireExplosion
Enable
mindelay
maxdelay
gGameRules
Lotus_Game
MT_SURVIVAL
showDecorations
Show
destroyDecorations
Destroy
portForwarder
TriggerPort
gGameRules
_T
MissionBuddiesSpawned
buddyAgents
Spawning buddy agents
gRegion
TENNO
minEnemyLevel
maxEnemyLevel
syndicateBuddySpawnPoint
standDownActionType
                         
0001                     ** function [0] definition (level 1)
                         ** start of function **
0001  00                 string size (0)
                         source name: (none)
0002  00                 line defined (0)
0003  00                 last line defined (0)
0004  00                 nups (0)
0005  00                 numparams (0)
0006  02                 is_vararg (2)
0007  03                 maxstacksize (3)
                         * code:
0008  26                 sizecode (38)
0009  25000000           [01] closure    0   0      
000D  20000000           [02] setglobal  0   0        ; SkyboxFlight
0011  20400000           [03] setglobal  0   1        ; 870471229
0015  25400000           [04] closure    0   1      
0019  20800000           [05] setglobal  0   2        ; RandomHiding
001D  20C00000           [06] setglobal  0   3        ; 1505897235
0021  25800000           [07] closure    0   2      
0025  20000100           [08] setglobal  0   4        ; RandomMesh
0029  20400100           [09] setglobal  0   5        ; -1630132038
002D  25C00000           [10] closure    0   3      
0031  20800100           [11] setglobal  0   6        ; RandomTripWires
0035  20C00100           [12] setglobal  0   7        ; -1533765382
0039  25000100           [13] closure    0   4      
003D  20000200           [14] setglobal  0   8        ; ActivateTripWire
0041  20400200           [15] setglobal  0   9        ; -1429004927
0045  25400100           [16] closure    0   5      
0049  20800200           [17] setglobal  0   10       ; DeActivateTripWire
004D  20C00200           [18] setglobal  0   11       ; 980771104
0051  25800100           [19] closure    0   6      
0055  65C00100           [20] closure    1   7      
0059  A5000200           [21] closure    2   8      
005D  12008000           [22] move       0   1      
0061  A0000300           [23] setglobal  2   12       ; RandomLayer
0065  A0400300           [24] setglobal  2   13       ; 1299332174
0069  A5400200           [25] closure    2   9      
006D  A0800300           [26] setglobal  2   14       ; ShakeSoundRepeat
0071  A0C00300           [27] setglobal  2   15       ; 233979709
0075  A5800200           [28] closure    2   10     
0079  12000000           [29] move       0   0      
007D  A0000400           [30] setglobal  2   16       ; ExplosionSpawner
0081  A0400400           [31] setglobal  2   17       ; 533816918
0085  A5C00200           [32] closure    2   11     
0089  A0800400           [33] setglobal  2   18       ; SurvivalDoors
008D  A0C00400           [34] setglobal  2   19       ; 1608253453
0091  A5000300           [35] closure    2   12     
0095  A0000500           [36] setglobal  2   20       ; SpawnBuddyAgents
0099  A0400500           [37] setglobal  2   21       ; 939175003
009D  1E008000           [38] return     0   1      
                         * constants:
00A1  16                 sizek (22)
00A2  04                 const type 4
00A3  0D                 string size (13)
00A4  536B79626F78466C+  "SkyboxFl"
00AC  6967687400         "ight\0"
                         const [0]: "SkyboxFlight"
00B1  01                 const type 3
00B2  3D56E233           const [1]: (870471229)
00B6  04                 const type 4
00B7  0D                 string size (13)
00B8  52616E646F6D4869+  "RandomHi"
00C0  64696E6700         "ding\0"
                         const [2]: "RandomHiding"
00C5  01                 const type 3
00C6  132BC259           const [3]: (1505897235)
00CA  04                 const type 4
00CB  0B                 string size (11)
00CC  52616E646F6D4D65+  "RandomMe"
00D4  736800             "sh\0"
                         const [4]: "RandomMesh"
00D7  01                 const type 3
00D8  BA28D69E           const [5]: (-1630132038)
00DC  04                 const type 4
00DD  10                 string size (16)
00DE  52616E646F6D5472+  "RandomTr"
00E6  6970576972657300   "ipWires\0"
                         const [6]: "RandomTripWires"
00EE  01                 const type 3
00EF  FA9894A4           const [7]: (-1533765382)
00F3  04                 const type 4
00F4  11                 string size (17)
00F5  4163746976617465+  "Activate"
00FD  5472697057697265+  "TripWire"
0105  00                 "\0"
                         const [8]: "ActivateTripWire"
0106  01                 const type 3
0107  811DD3AA           const [9]: (-1429004927)
010B  04                 const type 4
010C  13                 string size (19)
010D  4465416374697661+  "DeActiva"
0115  7465547269705769+  "teTripWi"
011D  726500             "re\0"
                         const [10]: "DeActivateTripWire"
0120  01                 const type 3
0121  2061753A           const [11]: (980771104)
0125  04                 const type 4
0126  0C                 string size (12)
0127  52616E646F6D4C61+  "RandomLa"
012F  79657200           "yer\0"
                         const [12]: "RandomLayer"
0133  01                 const type 3
0134  4E3C724D           const [13]: (1299332174)
0138  04                 const type 4
0139  11                 string size (17)
013A  5368616B65536F75+  "ShakeSou"
0142  6E64526570656174+  "ndRepeat"
014A  00                 "\0"
                         const [14]: "ShakeSoundRepeat"
014B  01                 const type 3
014C  3D3FF20D           const [15]: (233979709)
0150  04                 const type 4
0151  11                 string size (17)
0152  4578706C6F73696F+  "Explosio"
015A  6E537061776E6572+  "nSpawner"
0162  00                 "\0"
                         const [16]: "ExplosionSpawner"
0163  01                 const type 3
0164  5666D11F           const [17]: (533816918)
0168  04                 const type 4
0169  0E                 string size (14)
016A  537572766976616C+  "Survival"
0172  446F6F727300       "Doors\0"
                         const [18]: "SurvivalDoors"
0178  01                 const type 3
0179  0D00DC5F           const [19]: (1608253453)
017D  04                 const type 4
017E  11                 string size (17)
017F  537061776E427564+  "SpawnBud"
0187  64794167656E7473+  "dyAgents"
018F  00                 "\0"
                         const [20]: "SpawnBuddyAgents"
0190  01                 const type 3
0191  5BACFA37           const [21]: (939175003)
                         * functions:
0195  0D                 sizep (13)
                         
0196                     ** function [0] definition (level 2)
                         ** start of function **
0196  00                 string size (0)
                         source name: (none)
0197  14                 line defined (20)
0198  2B                 last line defined (43)
0199  00                 nups (0)
019A  01                 numparams (1)
019B  00                 is_vararg (0)
019C  0C                 maxstacksize (12)
                         * code:
019D  3A                 sizecode (58)
019E  5D000000           [01] getglobal  1   0        ; 1074689893
01A2  92000000           [02] move       2   0      
01A6  62800001           [03] call       1   2   2  
01AA  58000000           [04] test       1       0    ; to [6] if true
01AE  1A000080           [05] jmp        1            ; to [7]
01B2  1E008000           [06] return     0   1      
01B6  59400000           [07] loadk      1   1        ; 111
01BA  99400000           [08] loadk      2   1        ; 111
01BE  D9800000           [09] loadk      3   2        ; 10
01C2  19C10000           [10] loadk      4   3        ; 0
01C6  59010100           [11] loadk      5   4        ; 0
01CA  99410100           [12] loadk      6   5        ; 0
01CE  E4814100           [13] self       7   0   262  ; -231049143
01D2  E2810001           [14] call       7   2   2  
01D6  1DC20100           [15] getglobal  8   7        ; 508519041
01DA  22828000           [16] call       8   1   2  
01DE  5D020000           [17] getglobal  9   0        ; 1074689893
01E2  92020000           [18] move       10  0      
01E6  62820001           [19] call       9   2   2  
01EA  58420000           [20] test       9       1    ; to [22] if false
01EE  1AC00880           [21] jmp        36           ; to [58]
01F2  5D420200           [22] getglobal  9   9        ; -1045091108
01F6  9D820200           [23] getglobal  10  10       ; 1491452635
01FA  A2828000           [24] call       10  1   2  
01FE  84420005           [25] mul        10  10  1  
0202  83C24205           [26] add        10  10  267  ; -72
0206  62820001           [27] call       9   2   2  
020A  44420202           [28] mul        9   4   9  
020E  8E02C203           [29] gettable   10  7   264  ; "heading"
0212  43828204           [30] add        9   9   10 
0216  0C420284           [31] settable   8   264 9    ; "heading"
021A  5D420200           [32] getglobal  9   9        ; -1045091108
021E  9D820200           [33] getglobal  10  10       ; 1491452635
0222  A2828000           [34] call       10  1   2  
0226  84820005           [35] mul        10  10  2  
022A  83424305           [36] add        10  10  269  ; -72
022E  62820001           [37] call       9   2   2  
0232  44428202           [38] mul        9   5   9  
0236  8E02C303           [39] gettable   10  7   268  ; "pitch"
023A  43828204           [40] add        9   9   10 
023E  0C420286           [41] settable   8   268 9    ; "pitch"
0242  5D420200           [42] getglobal  9   9        ; -1045091108
0246  9D820200           [43] getglobal  10  10       ; 1491452635
024A  A2828000           [44] call       10  1   2  
024E  84C20005           [45] mul        10  10  3  
0252  62820001           [46] call       9   2   2  
0256  44420203           [47] mul        9   6   9  
025A  8E82C303           [48] gettable   10  7   270  ; "bank"
025E  43828204           [49] add        9   9   10 
0262  0C420287           [50] settable   8   270 9    ; "bank"
0266  64C24300           [51] self       9   0   271  ; 1352138124
026A  D2020004           [52] move       11  8      
026E  62428001           [53] call       9   3   1  
0272  5D020400           [54] getglobal  9   16       ; 538022378
0276  99020100           [55] loadk      10  4        ; 0
027A  62420001           [56] call       9   2   1  
027E  1A80F57F           [57] jmp        -41          ; to [17]
0282  1E008000           [58] return     0   1      
                         * constants:
0286  11                 sizek (17)
0287  01                 const type 3
0288  65770E40           const [0]: (1074689893)
028C  03                 const type 3
028D  6F12033B           const [1]: (111)
0291  03                 const type 3
0292  0AD7233B           const [2]: (10)
0296  03                 const type 3
0297  00003443           const [3]: (0)
029B  03                 const type 3
029C  00000000           const [4]: (0)
02A0  03                 const type 3
02A1  00003442           const [5]: (0)
02A5  01                 const type 3
02A6  49783AF2           const [6]: (-231049143)
02AA  01                 const type 3
02AB  81624F1E           const [7]: (508519041)
02AF  04                 const type 4
02B0  08                 string size (8)
02B1  68656164696E6700   "heading\0"
                         const [8]: "heading"
02B9  01                 const type 3
02BA  DC2CB5C1           const [9]: (-1045091108)
02BE  01                 const type 3
02BF  DBC2E558           const [10]: (1491452635)
02C3  03                 const type 3
02C4  B81E5540           const [11]: (-72)
02C8  04                 const type 4
02C9  06                 string size (6)
02CA  706974636800       "pitch\0"
                         const [12]: "pitch"
02D0  03                 const type 3
02D1  B81EF540           const [13]: (-72)
02D5  04                 const type 4
02D6  05                 string size (5)
02D7  62616E6B00         "bank\0"
                         const [14]: "bank"
02DC  01                 const type 3
02DD  8CFD9750           const [15]: (1352138124)
02E1  01                 const type 3
02E2  EA911120           const [16]: (538022378)
                         * functions:
02E6  00                 sizep (0)
                         * lines:
02E7  3A                 sizelineinfo (58)
                         [pc] (line)
02E8  15                 [01] (21)
02E9  00                 [02] (21)
02EA  00                 [03] (21)
02EB  00                 [04] (21)
02EC  15                 [05] (21)
02ED  00                 [06] (22)
02EE  00                 [07] (25)
02EF  00                 [08] (26)
02F0  15                 [09] (27)
02F1  00                 [10] (29)
02F2  00                 [11] (30)
02F3  00                 [12] (31)
02F4  15                 [13] (33)
02F5  00                 [14] (33)
02F6  00                 [15] (34)
02F7  00                 [16] (34)
02F8  15                 [17] (35)
02F9  00                 [18] (35)
02FA  00                 [19] (35)
02FB  00                 [20] (35)
02FC  16                 [21] (35)
02FD  00                 [22] (36)
02FE  00                 [23] (36)
02FF  00                 [24] (36)
0300  19                 [25] (36)
0301  00                 [26] (36)
0302  00                 [27] (36)
0303  00                 [28] (36)
0304  1A                 [29] (36)
0305  00                 [30] (36)
0306  00                 [31] (36)
0307  00                 [32] (37)
0308  1B                 [33] (37)
0309  00                 [34] (37)
030A  00                 [35] (37)
030B  00                 [36] (37)
030C  1D                 [37] (37)
030D  00                 [38] (37)
030E  00                 [39] (37)
030F  00                 [40] (37)
0310  1E                 [41] (37)
0311  00                 [42] (38)
0312  00                 [43] (38)
0313  00                 [44] (38)
0314  1F                 [45] (38)
0315  00                 [46] (38)
0316  00                 [47] (38)
0317  00                 [48] (38)
0318  21                 [49] (38)
0319  00                 [50] (38)
031A  00                 [51] (39)
031B  00                 [52] (39)
031C  21                 [53] (39)
031D  00                 [54] (40)
031E  00                 [55] (40)
031F  00                 [56] (40)
0320  22                 [57] (40)
0321  00                 [58] (43)
                         * locals:
03D0  00                 sizelocvars (0)
                         * upvalues:
03D1  00                 sizeupvalues (0)
                         ** end of function **

                         
03D2                     ** function [1] definition (level 2)
                         ** start of function **
03D2  00                 string size (0)
                         source name: (none)
03D3  2D                 line defined (45)
03D4  32                 last line defined (50)
03D5  00                 nups (0)
03D6  01                 numparams (1)
03D7  00                 is_vararg (0)
03D8  05                 maxstacksize (5)
                         * code:
03D9  0A                 sizecode (10)
03DA  5D000000           [01] getglobal  1   0        ; 687937235
03DE  99400000           [02] loadk      2   1        ; 0
03E2  D9800000           [03] loadk      3   2        ; 0
03E6  62808001           [04] call       1   3   2  
fail op	35
03EA  2340C000           [05] close      0  
03EE  1A800080           [06] jmp        3            ; to [10]
03F2  A4C04000           [07] self       2   0   259  ; -1923578185
03F6  19010100           [08] loadk      4   4        ; "Hide"
03FA  A2408001           [09] call       2   3   1  
03FE  1E008000           [10] return     0   1      
                         * constants:
0402  05                 sizek (5)
0403  01                 const type 3
0404  D3160129           const [0]: (687937235)
0408  03                 const type 3
0409  0000803F           const [1]: (0)
040D  03                 const type 3
040E  00000040           const [2]: (0)
0412  01                 const type 3
0413  B786588D           const [3]: (-1923578185)
0417  04                 const type 4
0418  05                 string size (5)
0419  4869646500         "Hide\0"
                         const [4]: "Hide"
                         * functions:
041E  00                 sizep (0)
                         * lines:
041F  0A                 sizelineinfo (10)
                         [pc] (line)
0420  2E                 [01] (46)
0421  00                 [02] (46)
0422  00                 [03] (46)
0423  00                 [04] (46)
0424  2E                 [05] (47)
0425  00                 [06] (47)
0426  00                 [07] (48)
0427  00                 [08] (48)
0428  2E                 [09] (48)
0429  00                 [10] (50)
                         * locals:
0448  00                 sizelocvars (0)
                         * upvalues:
0449  00                 sizeupvalues (0)
                         ** end of function **

                         
044A                     ** function [2] definition (level 2)
                         ** start of function **
044A  00                 string size (0)
                         source name: (none)
044B  34                 line defined (52)
044C  38                 last line defined (56)
044D  00                 nups (0)
044E  01                 numparams (1)
044F  00                 is_vararg (0)
0450  07                 maxstacksize (7)
                         * code:
0451  0C                 sizecode (12)
0452  5D000000           [01] getglobal  1   0        ; 2144646525
0456  99400000           [02] loadk      2   1        ; 0
045A  DD800000           [03] getglobal  3   2        ; ShipMeshes
045E  CA008001           [04] len        3   3      
0462  62808001           [05] call       1   3   2  
0466  A4C04000           [06] self       2   0   259  ; 919598577
046A  1D810000           [07] getglobal  4   2        ; ShipMeshes
046E  0E410002           [08] gettable   4   4   1  
0472  57010000           [09] loadbool   5   0   0    ; false
0476  97010000           [10] loadbool   6   0   0    ; false
047A  A2408002           [11] call       2   5   1  
047E  1E008000           [12] return     0   1      
                         * constants:
0482  04                 sizek (4)
0483  01                 const type 3
0484  7DB5D47F           const [0]: (2144646525)
0488  03                 const type 3
0489  0000803F           const [1]: (0)
048D  04                 const type 4
048E  0B                 string size (11)
048F  536869704D657368+  "ShipMesh"
0497  657300             "es\0"
                         const [2]: "ShipMeshes"
049A  01                 const type 3
049B  F1F5CF36           const [3]: (919598577)
                         * functions:
049F  00                 sizep (0)
                         * lines:
04A0  0C                 sizelineinfo (12)
                         [pc] (line)
04A1  35                 [01] (53)
04A2  00                 [02] (53)
04A3  00                 [03] (53)
04A4  00                 [04] (53)
04A5  35                 [05] (53)
04A6  00                 [06] (54)
04A7  00                 [07] (54)
04A8  00                 [08] (54)
04A9  35                 [09] (54)
04AA  00                 [10] (54)
04AB  00                 [11] (54)
04AC  00                 [12] (56)
                         * locals:
04D1  00                 sizelocvars (0)
                         * upvalues:
04D2  00                 sizeupvalues (0)
                         ** end of function **

                         
04D3                     ** function [3] definition (level 2)
                         ** start of function **
04D3  00                 string size (0)
                         source name: (none)
04D4  3A                 line defined (58)
04D5  45                 last line defined (69)
04D6  00                 nups (0)
04D7  00                 numparams (0)
04D8  00                 is_vararg (0)
04D9  0C                 maxstacksize (12)
                         * code:
04DA  21                 sizecode (33)
04DB  1D000000           [01] getglobal  0   0        ; gRegion
04DF  24404000           [02] self       0   0   257  ; -1485896174
04E3  9D800000           [03] getglobal  2   2        ; -332969190
04E7  D9C00000           [04] loadk      3   3        ; "TripWire"
04EB  A2000001           [05] call       2   2   0  
04EF  22800000           [06] call       0   0   2  
04F3  5D000100           [07] getglobal  1   4        ; 1074689893
04F7  92000000           [08] move       2   0      
04FB  62800001           [09] call       1   2   2  
04FF  58400000           [10] test       1       1    ; to [12] if false
0503  1A000580           [11] jmp        21           ; to [33]
0507  59400100           [12] loadk      1   5        ; 0
050B  8A000000           [13] len        2   0      
050F  D9400100           [14] loadk      3   5        ; 0
0513  50C00380           [15] forprep    1   16       ; to [32]
0517  5D810100           [16] getglobal  5   6        ; 687937235
051B  99410100           [17] loadk      6   5        ; 0
051F  D9C10100           [18] loadk      7   7        ; 0
0523  62818001           [19] call       5   3   2  
fail op	35
0527  2340C102           [20] close      0  
052B  1A400280           [21] jmp        10           ; to [32]
052F  9D010000           [22] getglobal  6   0        ; gRegion
0533  A4014203           [23] self       6   6   264  ; -1110225722
0537  1D420200           [24] getglobal  8   9        ; tripWireType
053B  4E020100           [25] gettable   9   0   4  
053F  6482C204           [26] self       9   9   266  ; 1839670529
0543  62820001           [27] call       9   2   2  
0547  8E020100           [28] gettable   10  0   4  
054B  A4C24205           [29] self       10  10  267  ; -231049143
054F  A2020001           [30] call       10  2   0  
0553  A2410000           [31] call       6   0   1  
0557  5480FB7F           [32] forloop    1   -17      ; to [16] if loop
055B  1E008000           [33] return     0   1      
                         * constants:
055F  0C                 sizek (12)
0560  04                 const type 4
0561  08                 string size (8)
0562  67526567696F6E00   "gRegion\0"
                         const [0]: "gRegion"
056A  01                 const type 3
056B  12066FA7           const [1]: (-1485896174)
056F  01                 const type 3
0570  1A4B27EC           const [2]: (-332969190)
0574  04                 const type 4
0575  09                 string size (9)
0576  5472697057697265+  "TripWire"
057E  00                 "\0"
                         const [3]: "TripWire"
057F  01                 const type 3
0580  65770E40           const [4]: (1074689893)
0584  03                 const type 3
0585  0000803F           const [5]: (0)
0589  01                 const type 3
058A  D3160129           const [6]: (687937235)
058E  03                 const type 3
058F  00000040           const [7]: (0)
0593  01                 const type 3
0594  C64CD3BD           const [8]: (-1110225722)
0598  04                 const type 4
0599  0D                 string size (13)
059A  7472697057697265+  "tripWire"
05A2  5479706500         "Type\0"
                         const [9]: "tripWireType"
05A7  01                 const type 3
05A8  0125A76D           const [10]: (1839670529)
05AC  01                 const type 3
05AD  49783AF2           const [11]: (-231049143)
                         * functions:
05B1  00                 sizep (0)
                         * lines:
05B2  21                 sizelineinfo (33)
                         [pc] (line)
05B3  3B                 [01] (59)
05B4  00                 [02] (59)
05B5  00                 [03] (59)
05B6  00                 [04] (59)
05B7  3B                 [05] (59)
05B8  00                 [06] (59)
05B9  00                 [07] (61)
05BA  00                 [08] (61)
05BB  3B                 [09] (61)
05BC  00                 [10] (61)
05BD  00                 [11] (61)
05BE  00                 [12] (62)
05BF  3B                 [13] (62)
05C0  00                 [14] (62)
05C1  00                 [15] (62)
05C2  00                 [16] (63)
05C3  3B                 [17] (63)
05C4  00                 [18] (63)
05C5  00                 [19] (63)
05C6  00                 [20] (64)
05C7  3B                 [21] (64)
05C8  00                 [22] (65)
05C9  00                 [23] (65)
05CA  00                 [24] (65)
05CB  3D                 [25] (65)
05CC  00                 [26] (65)
05CD  00                 [27] (65)
05CE  00                 [28] (65)
05CF  3D                 [29] (65)
05D0  00                 [30] (65)
05D1  00                 [31] (65)
05D2  00                 [32] (62)
05D3  3D                 [33] (69)
                         * locals:
0637  00                 sizelocvars (0)
                         * upvalues:
0638  00                 sizeupvalues (0)
                         ** end of function **

                         
0639                     ** function [4] definition (level 2)
                         ** start of function **
0639  00                 string size (0)
                         source name: (none)
063A  47                 line defined (71)
063B  4F                 last line defined (79)
063C  00                 nups (0)
063D  00                 numparams (0)
063E  00                 is_vararg (0)
063F  08                 maxstacksize (8)
                         * code:
0640  15                 sizecode (21)
0641  1D000000           [01] getglobal  0   0        ; gRegion
0645  24404000           [02] self       0   0   257  ; 152279552
0649  9D800000           [03] getglobal  2   2        ; tripWireType
064D  22808001           [04] call       0   3   2  
0651  5DC00000           [05] getglobal  1   3        ; 1074689893
0655  92000000           [06] move       2   0      
0659  62800001           [07] call       1   2   2  
065D  58400000           [08] test       1       1    ; to [10] if false
0661  1A800280           [09] jmp        11           ; to [21]
0665  59000100           [10] loadk      1   4        ; 0
0669  8A000000           [11] len        2   0      
066D  D9000100           [12] loadk      3   4        ; 0
0671  50400180           [13] forprep    1   6        ; to [20]
0675  4E010100           [14] gettable   5   0   4  
0679  6441C102           [15] self       5   5   261  ; -1625438872
067D  DD810100           [16] getglobal  7   6        ; tripWireBeam
0681  62818001           [17] call       5   3   2  
0685  A4C1C102           [18] self       6   5   263  ; -974578778
0689  A2410001           [19] call       6   2   1  
068D  5400FE7F           [20] forloop    1   -7       ; to [14] if loop
0691  1E008000           [21] return     0   1      
                         * constants:
0695  08                 sizek (8)
0696  04                 const type 4
0697  08                 string size (8)
0698  67526567696F6E00   "gRegion\0"
                         const [0]: "gRegion"
06A0  01                 const type 3
06A1  009A1309           const [1]: (152279552)
06A5  04                 const type 4
06A6  0D                 string size (13)
06A7  7472697057697265+  "tripWire"
06AF  5479706500         "Type\0"
                         const [2]: "tripWireType"
06B4  01                 const type 3
06B5  65770E40           const [3]: (1074689893)
06B9  03                 const type 3
06BA  0000803F           const [4]: (0)
06BE  01                 const type 3
06BF  68C51D9F           const [5]: (-1625438872)
06C3  04                 const type 4
06C4  0D                 string size (13)
06C5  7472697057697265+  "tripWire"
06CD  4265616D00         "Beam\0"
                         const [6]: "tripWireBeam"
06D2  01                 const type 3
06D3  A61BE9C5           const [7]: (-974578778)
                         * functions:
06D7  00                 sizep (0)
                         * lines:
06D8  15                 sizelineinfo (21)
                         [pc] (line)
06D9  48                 [01] (72)
06DA  00                 [02] (72)
06DB  00                 [03] (72)
06DC  00                 [04] (72)
06DD  48                 [05] (73)
06DE  00                 [06] (73)
06DF  00                 [07] (73)
06E0  00                 [08] (73)
06E1  48                 [09] (73)
06E2  00                 [10] (74)
06E3  00                 [11] (74)
06E4  00                 [12] (74)
06E5  48                 [13] (74)
06E6  00                 [14] (75)
06E7  00                 [15] (75)
06E8  00                 [16] (75)
06E9  49                 [17] (75)
06EA  00                 [18] (76)
06EB  00                 [19] (76)
06EC  00                 [20] (74)
06ED  49                 [21] (79)
                         * locals:
072D  00                 sizelocvars (0)
                         * upvalues:
072E  00                 sizeupvalues (0)
                         ** end of function **

                         
072F                     ** function [5] definition (level 2)
                         ** start of function **
072F  00                 string size (0)
                         source name: (none)
0730  51                 line defined (81)
0731  5A                 last line defined (90)
0732  00                 nups (0)
0733  00                 numparams (0)
0734  00                 is_vararg (0)
0735  08                 maxstacksize (8)
                         * code:
0736  15                 sizecode (21)
0737  1D000000           [01] getglobal  0   0        ; gRegion
073B  24404000           [02] self       0   0   257  ; 152279552
073F  9D800000           [03] getglobal  2   2        ; tripWireType
0743  22808001           [04] call       0   3   2  
0747  5DC00000           [05] getglobal  1   3        ; 1074689893
074B  92000000           [06] move       2   0      
074F  62800001           [07] call       1   2   2  
0753  58400000           [08] test       1       1    ; to [10] if false
0757  1A800280           [09] jmp        11           ; to [21]
075B  59000100           [10] loadk      1   4        ; 0
075F  8A000000           [11] len        2   0      
0763  D9000100           [12] loadk      3   4        ; 0
0767  50400180           [13] forprep    1   6        ; to [20]
076B  4E010100           [14] gettable   5   0   4  
076F  6441C102           [15] self       5   5   261  ; -1625438872
0773  DD810100           [16] getglobal  7   6        ; tripWireBeam
0777  62818001           [17] call       5   3   2  
077B  A4C1C102           [18] self       6   5   263  ; 766584623
077F  A2410001           [19] call       6   2   1  
0783  5400FE7F           [20] forloop    1   -7       ; to [14] if loop
0787  1E008000           [21] return     0   1      
                         * constants:
078B  08                 sizek (8)
078C  04                 const type 4
078D  08                 string size (8)
078E  67526567696F6E00   "gRegion\0"
                         const [0]: "gRegion"
0796  01                 const type 3
0797  009A1309           const [1]: (152279552)
079B  04                 const type 4
079C  0D                 string size (13)
079D  7472697057697265+  "tripWire"
07A5  5479706500         "Type\0"
                         const [2]: "tripWireType"
07AA  01                 const type 3
07AB  65770E40           const [3]: (1074689893)
07AF  03                 const type 3
07B0  0000803F           const [4]: (0)
07B4  01                 const type 3
07B5  68C51D9F           const [5]: (-1625438872)
07B9  04                 const type 4
07BA  0D                 string size (13)
07BB  7472697057697265+  "tripWire"
07C3  4265616D00         "Beam\0"
                         const [6]: "tripWireBeam"
07C8  01                 const type 3
07C9  2F27B12D           const [7]: (766584623)
                         * functions:
07CD  00                 sizep (0)
                         * lines:
07CE  15                 sizelineinfo (21)
                         [pc] (line)
07CF  52                 [01] (82)
07D0  00                 [02] (82)
07D1  00                 [03] (82)
07D2  00                 [04] (82)
07D3  52                 [05] (83)
07D4  00                 [06] (83)
07D5  00                 [07] (83)
07D6  00                 [08] (83)
07D7  52                 [09] (83)
07D8  00                 [10] (84)
07D9  00                 [11] (84)
07DA  00                 [12] (84)
07DB  52                 [13] (84)
07DC  00                 [14] (85)
07DD  00                 [15] (85)
07DE  00                 [16] (85)
07DF  53                 [17] (85)
07E0  00                 [18] (86)
07E1  00                 [19] (86)
07E2  00                 [20] (84)
07E3  53                 [21] (90)
                         * locals:
0823  00                 sizelocvars (0)
                         * upvalues:
0824  00                 sizeupvalues (0)
                         ** end of function **

                         
0825                     ** function [6] definition (level 2)
                         ** start of function **
0825  00                 string size (0)
                         source name: (none)
0826  5C                 line defined (92)
0827  78                 last line defined (120)
0828  00                 nups (0)
0829  00                 numparams (0)
082A  00                 is_vararg (0)
082B  0C                 maxstacksize (12)
                         * code:
082C  2E                 sizecode (46)
082D  1D000000           [01] getglobal  0   0        ; gRegion
0831  24404000           [02] self       0   0   257  ; -2071158816
0835  22800001           [03] call       0   2   2  
0839  5D800000           [04] getglobal  1   2        ; 572299008
083D  62808000           [05] call       1   1   2  
0841  9D800000           [06] getglobal  2   2        ; 572299008
0845  A2808000           [07] call       2   1   2  
0849  D9C00000           [08] loadk      3   3        ; 0
084D  1D010100           [09] getglobal  4   4        ; 1074689893
0851  52010000           [10] move       5   0      
0855  22810001           [11] call       4   2   2  
0859  18410000           [12] test       4       1    ; to [14] if false
085D  1A400680           [13] jmp        26           ; to [40]
0861  19410100           [14] loadk      4   5        ; 0
0865  4A010000           [15] len        5   0      
0869  99410100           [16] loadk      6   5        ; 0
086D  10010480           [17] forprep    4   17       ; to [35]
0871  0EC20100           [18] gettable   8   0   7  
0875  24824104           [19] self       8   8   262  ; 1511086594
0879  22820001           [20] call       8   2   2  
087D  18420000           [21] test       8       1    ; to [23] if false
0881  1AC00280           [22] jmp        12           ; to [35]
0885  C340C101           [23] add        3   3   261  ; 0
0889  0EC20100           [24] gettable   8   0   7  
088D  24C24104           [25] self       8   8   263  ; 1839670529
0891  22820001           [26] call       8   2   2  
0895  43008200           [27] add        1   1   8  
0899  0EC20100           [28] gettable   8   0   7  
089D  24024204           [29] self       8   8   264  ; 2129303884
08A1  22820001           [30] call       8   2   2  
08A5  5D420200           [31] getglobal  9   9        ; -1596245111
08A9  92020004           [32] move       10  8      
08AD  62820001           [33] call       9   2   2  
08B1  83400201           [34] add        2   2   9  
08B5  1441FB7F           [35] forloop    4   -18      ; to [18] if loop
fail op	21
08B9  15C08081           [36] concat     0   259 3  
08BD  1A400080           [37] jmp        2            ; to [40]
08C1  5CC08000           [38] div        1   1   3  
08C5  9CC00001           [39] div        2   2   3  
08C9  9D820200           [40] getglobal  10  10       ; 1166235580
08CD  D2020001           [41] move       11  2      
08D1  A2420001           [42] call       10  2   1  
08D5  92028000           [43] move       10  1      
08D9  D2020001           [44] move       11  2      
08DD  9E028001           [45] return     10  3      
08E1  1E008000           [46] return     0   1      
                         * constants:
08E5  0B                 sizek (11)
08E6  04                 const type 4
08E7  08                 string size (8)
08E8  67526567696F6E00   "gRegion\0"
                         const [0]: "gRegion"
08F0  01                 const type 3
08F1  E09F8C84           const [1]: (-2071158816)
08F5  01                 const type 3
08F6  00971C22           const [2]: (572299008)
08FA  03                 const type 3
08FB  00000000           const [3]: (0)
08FF  01                 const type 3
0900  65770E40           const [4]: (1074689893)
0904  03                 const type 3
0905  0000803F           const [5]: (0)
0909  01                 const type 3
090A  025A115A           const [6]: (1511086594)
090E  01                 const type 3
090F  0125A76D           const [7]: (1839670529)
0913  01                 const type 3
0914  4C99EA7E           const [8]: (2129303884)
0918  01                 const type 3
0919  893BDBA0           const [9]: (-1596245111)
091D  01                 const type 3
091E  BC578345           const [10]: (1166235580)
                         * functions:
0922  00                 sizep (0)
                         * lines:
0923  2E                 sizelineinfo (46)
                         [pc] (line)
0924  5D                 [01] (93)
0925  00                 [02] (93)
0926  00                 [03] (93)
0927  00                 [04] (95)
0928  5D                 [05] (95)
0929  00                 [06] (96)
092A  00                 [07] (96)
092B  00                 [08] (97)
092C  5D                 [09] (98)
092D  00                 [10] (98)
092E  00                 [11] (98)
092F  00                 [12] (98)
0930  5F                 [13] (98)
0931  00                 [14] (99)
0932  00                 [15] (99)
0933  00                 [16] (99)
0934  5F                 [17] (99)
0935  00                 [18] (101)
0936  00                 [19] (101)
0937  00                 [20] (101)
0938  60                 [21] (101)
0939  00                 [22] (101)
093A  00                 [23] (102)
093B  00                 [24] (103)
093C  60                 [25] (103)
093D  00                 [26] (103)
093E  00                 [27] (103)
093F  00                 [28] (104)
0940  61                 [29] (104)
0941  00                 [30] (104)
0942  00                 [31] (105)
0943  00                 [32] (105)
0944  62                 [33] (105)
0945  00                 [34] (106)
0946  00                 [35] (99)
0947  00                 [36] (111)
0948  62                 [37] (111)
0949  00                 [38] (112)
094A  00                 [39] (113)
094B  00                 [40] (117)
094C  62                 [41] (117)
094D  00                 [42] (117)
094E  00                 [43] (119)
094F  00                 [44] (119)
0950  62                 [45] (119)
0951  00                 [46] (120)
                         * locals:
09DC  00                 sizelocvars (0)
                         * upvalues:
09DD  00                 sizeupvalues (0)
                         ** end of function **

                         
09DE                     ** function [7] definition (level 2)
                         ** start of function **
09DE  00                 string size (0)
                         source name: (none)
09DF  7A                 line defined (122)
09E0  F4                 last line defined (244)
09E1  01                 nups (0)
09E2  00                 numparams (0)
09E3  00                 is_vararg (0)
09E4  00                 maxstacksize (61)
                         * code:
09E7  02                 sizecode (335)
09E8  1D000000           [001] getglobal  0   0        ; gRegion
09EC  24404000           [002] self       0   0   257  ; -1485896174
09F0  9D800000           [003] getglobal  2   2        ; -332969190
09F4  D9C00000           [004] loadk      3   3        ; "Creepy"
09F8  A2000001           [005] call       2   2   0  
09FC  22800000           [006] call       0   0   2  
0A00  5D000100           [007] getglobal  1   4        ; 1074689893
0A04  92000000           [008] move       2   0      
0A08  62800001           [009] call       1   2   2  
0A0C  58400000           [010] test       1       1    ; to [12] if false
0A10  1A000280           [011] jmp        9            ; to [21]
0A14  59400100           [012] loadk      1   5        ; 0
0A18  8A000000           [013] len        2   0      
0A1C  D9400100           [014] loadk      3   5        ; 0
0A20  50C00080           [015] forprep    1   4        ; to [20]
0A24  4E010100           [016] gettable   5   0   4  
0A28  6481C102           [017] self       5   5   262  ; -1923578185
0A2C  D9C10100           [018] loadk      7   7        ; "Enable"
0A30  62418001           [019] call       5   3   1  
0A34  5480FE7F           [020] forloop    1   -5       ; to [16] if loop
0A38  5D010200           [021] getglobal  5   8        ; 2144646525
0A3C  99410200           [022] loadk      6   9        ; 0
0A40  D9810200           [023] loadk      7   10       ; 0
0A44  62818001           [024] call       5   3   2  
0A48  9DC10200           [025] getglobal  6   11       ; math
0A4C  8E014303           [026] gettable   6   6   268  ; 500276425
0A50  D9410300           [027] loadk      7   13       ; 64
0A54  A2410001           [028] call       6   2   1  
0A58  9D010000           [029] getglobal  6   0        ; gRegion
0A5C  A4414003           [030] self       6   6   257  ; -1485896174
0A60  1D820000           [031] getglobal  8   2        ; -332969190
0A64  59820300           [032] loadk      9   14       ; "Light"
0A68  22020001           [033] call       8   2   0  
0A6C  A2810000           [034] call       6   0   2  
0A70  DD010000           [035] getglobal  7   0        ; gRegion
0A74  E441C003           [036] self       7   7   257  ; -1485896174
0A78  5D820000           [037] getglobal  9   2        ; -332969190
0A7C  99C20300           [038] loadk      10  15       ; "LightFixture"
0A80  62020001           [039] call       9   2   0  
0A84  E2810000           [040] call       7   0   2  
0A88  1D020000           [041] getglobal  8   0        ; gRegion
0A8C  24424004           [042] self       8   8   257  ; -1485896174
0A90  9D820000           [043] getglobal  10  2        ; -332969190
0A94  D9020400           [044] loadk      11  16       ; "LightNoVolt"
0A98  A2020001           [045] call       10  2   0  
0A9C  22820000           [046] call       8   0   2  
0AA0  5D020000           [047] getglobal  9   0        ; gRegion
0AA4  6442C004           [048] self       9   9   257  ; -1485896174
0AA8  DD820000           [049] getglobal  11  2        ; -332969190
0AAC  19430400           [050] loadk      12  17       ; "LightFixtureNoVolt"
0AB0  E2020001           [051] call       11  2   0  
0AB4  62820000           [052] call       9   0   2  
0AB8  9D020000           [053] getglobal  10  0        ; gRegion
0ABC  A4424005           [054] self       10  10  257  ; -1485896174
0AC0  1D830000           [055] getglobal  12  2        ; -332969190
0AC4  59830400           [056] loadk      13  18       ; "LightFixtureTemplate"
0AC8  22030001           [057] call       12  2   0  
0ACC  A2820000           [058] call       10  0   2  
0AD0  DD020000           [059] getglobal  11  0        ; gRegion
0AD4  E442C005           [060] self       11  11  257  ; -1485896174
0AD8  5D830000           [061] getglobal  13  2        ; -332969190
0ADC  99C30400           [062] loadk      14  19       ; "LightFlare"
0AE0  62030001           [063] call       13  2   0  
0AE4  E2820000           [064] call       11  0   2  
0AE8  1D030000           [065] getglobal  12  0        ; gRegion
0AEC  24434006           [066] self       12  12  257  ; -1485896174
0AF0  9D830000           [067] getglobal  14  2        ; -332969190
0AF4  D9030500           [068] loadk      15  20       ; "GodRay"
0AF8  A2030001           [069] call       14  2   0  
0AFC  22830000           [070] call       12  0   2  
0B00  5D030100           [071] getglobal  13  4        ; 1074689893
0B04  92030003           [072] move       14  6      
0B08  62830001           [073] call       13  2   2  
0B0C  58430000           [074] test       13      1    ; to [76] if false
0B10  1A800380           [075] jmp        15           ; to [91]
0B14  5D030100           [076] getglobal  13  4        ; 1074689893
0B18  92030004           [077] move       14  8      
0B1C  62830001           [078] call       13  2   2  
0B20  58430000           [079] test       13      1    ; to [81] if false
0B24  1A400280           [080] jmp        10           ; to [91]
0B28  59430100           [081] loadk      13  5        ; 0
0B2C  8A030004           [082] len        14  8      
0B30  D9430100           [083] loadk      15  5        ; 0
0B34  50030180           [084] forprep    13  5        ; to [90]
0B38  5D440500           [085] getglobal  17  21       ; table
0B3C  4E84C508           [086] gettable   17  17  278  ; -431682403
0B40  92040003           [087] move       18  6      
0B44  CE040404           [088] gettable   19  8   16 
0B48  62448001           [089] call       17  3   1  
0B4C  5443FE7F           [090] forloop    13  -6       ; to [85] if loop
0B50  5D040100           [091] getglobal  17  4        ; 1074689893
0B54  92048003           [092] move       18  7      
0B58  62840001           [093] call       17  2   2  
0B5C  58440000           [094] test       17      1    ; to [96] if false
0B60  1A400780           [095] jmp        30           ; to [126]
0B64  5D040100           [096] getglobal  17  4        ; 1074689893
0B68  92048004           [097] move       18  9      
0B6C  62840001           [098] call       17  2   2  
0B70  58440000           [099] test       17      1    ; to [101] if false
0B74  1A400280           [100] jmp        10           ; to [111]
0B78  59440100           [101] loadk      17  5        ; 0
0B7C  8A048004           [102] len        18  9      
0B80  D9440100           [103] loadk      19  5        ; 0
0B84  50040180           [104] forprep    17  5        ; to [110]
0B88  5D450500           [105] getglobal  21  21       ; table
0B8C  4E85C50A           [106] gettable   21  21  278  ; -431682403
0B90  92058003           [107] move       22  7      
0B94  CE058504           [108] gettable   23  9   20 
0B98  62458001           [109] call       21  3   1  
0B9C  5444FE7F           [110] forloop    17  -6       ; to [105] if loop
0BA0  5D050100           [111] getglobal  21  4        ; 1074689893
0BA4  92050005           [112] move       22  10     
0BA8  62850001           [113] call       21  2   2  
0BAC  58450000           [114] test       21      1    ; to [116] if false
0BB0  1A400280           [115] jmp        10           ; to [126]
0BB4  59450100           [116] loadk      21  5        ; 0
0BB8  8A050005           [117] len        22  10     
0BBC  D9450100           [118] loadk      23  5        ; 0
0BC0  50050180           [119] forprep    21  5        ; to [125]
0BC4  5D460500           [120] getglobal  25  21       ; table
0BC8  4E86C50C           [121] gettable   25  25  278  ; -431682403
0BCC  92068003           [122] move       26  7      
0BD0  CE060605           [123] gettable   27  10  24 
0BD4  62468001           [124] call       25  3   1  
0BD8  5445FE7F           [125] forloop    21  -6       ; to [120] if loop
0BDC  5D060100           [126] getglobal  25  4        ; 1074689893
0BE0  92068003           [127] move       26  7      
0BE4  62860001           [128] call       25  2   2  
0BE8  58460000           [129] test       25      1    ; to [131] if false
0BEC  1AC00380           [130] jmp        16           ; to [147]
0BF0  59460100           [131] loadk      25  5        ; 0
0BF4  8A068003           [132] len        26  7      
0BF8  D9460100           [133] loadk      27  5        ; 0
0BFC  50860280           [134] forprep    25  11       ; to [146]
0C00  5D070100           [135] getglobal  29  4        ; 1074689893
0C04  8E078703           [136] gettable   30  7   28 
0C08  62870001           [137] call       29  2   2  
0C0C  58470000           [138] test       29      1    ; to [140] if false
0C10  1A400180           [139] jmp        6            ; to [146]
0C14  4E078703           [140] gettable   29  7   28 
0C18  64C7C50E           [141] self       29  29  279  ; -786111647
0C1C  DD070600           [142] getglobal  31  24       ; Lotus_Game
0C20  CE47C60F           [143] gettable   31  31  281  ; "EMISSIVE_MAP_ATTEN"
0C24  19480200           [144] loadk      32  9        ; 0
0C28  62470002           [145] call       29  4   1  
0C2C  54C6FC7F           [146] forloop    25  -12      ; to [135] if loop
0C30  5D070100           [147] getglobal  29  4        ; 1074689893
0C34  92078005           [148] move       30  11     
0C38  62870001           [149] call       29  2   2  
0C3C  58470000           [150] test       29      1    ; to [152] if false
0C40  1A000280           [151] jmp        9            ; to [161]
0C44  59470100           [152] loadk      29  5        ; 0
0C48  8A078005           [153] len        30  11     
0C4C  D9470100           [154] loadk      31  5        ; 0
0C50  50C70080           [155] forprep    29  4        ; to [160]
0C54  4E088805           [156] gettable   33  11  32 
0C58  6488C110           [157] self       33  33  262  ; -1923578185
0C5C  D9880600           [158] loadk      35  26       ; "Disable"
0C60  62488001           [159] call       33  3   1  
0C64  5487FE7F           [160] forloop    29  -5       ; to [156] if loop
0C68  5D080100           [161] getglobal  33  4        ; 1074689893
0C6C  92080006           [162] move       34  12     
0C70  62880001           [163] call       33  2   2  
0C74  58480000           [164] test       33      1    ; to [166] if false
0C78  1A800380           [165] jmp        15           ; to [181]
0C7C  59480100           [166] loadk      33  5        ; 0
0C80  8A080006           [167] len        34  12     
0C84  D9480100           [168] loadk      35  5        ; 0
0C88  50480280           [169] forprep    33  10       ; to [180]
0C8C  4E090906           [170] gettable   37  12  36 
0C90  64C9C512           [171] self       37  37  279  ; -786111647
0C94  DD090600           [172] getglobal  39  24       ; Lotus_Game
0C98  CEC9C613           [173] gettable   39  39  283  ; "UNLIT_ATTEN"
0C9C  194A0200           [174] loadk      40  9        ; 0
0CA0  62490002           [175] call       37  4   1  
0CA4  4E090906           [176] gettable   37  12  36 
0CA8  6489C112           [177] self       37  37  262  ; -1923578185
0CAC  D9090700           [178] loadk      39  28       ; "Hide"
0CB0  62498001           [179] call       37  3   1  
0CB4  5408FD7F           [180] forloop    33  -11      ; to [170] if loop
0CB8  5D090100           [181] getglobal  37  4        ; 1074689893
0CBC  92090003           [182] move       38  6      
0CC0  62890001           [183] call       37  2   2  
0CC4  58490000           [184] test       37      1    ; to [186] if false
0CC8  1A801A80           [185] jmp        107          ; to [293]
0CCC  59490100           [186] loadk      37  5        ; 0
0CD0  8A090003           [187] len        38  6      
0CD4  D9490100           [188] loadk      39  5        ; 0
0CD8  50491980           [189] forprep    37  102      ; to [292]
0CDC  4E0A0A03           [190] gettable   41  6   40 
0CE0  644AC714           [191] self       41  41  285  ; -1957065004
0CE4  DD8A0700           [192] getglobal  43  30       ; gLightType
0CE8  628A8001           [193] call       41  3   2  
0CEC  580A0000           [194] test       41      0    ; to [196] if true
0CF0  1AC01480           [195] jmp        84           ; to [280]
0CF4  59CA0700           [196] loadk      41  31       ; -51
0CF8  994A0100           [197] loadk      42  5        ; 0
0CFC  DDCA0200           [198] getglobal  43  11       ; math
0D00  CE0AC815           [199] gettable   43  43  288  ; -2040962569
0D04  E28A8000           [200] call       43  1   2  
fail op	33
0D08  21408A15           [201] tforloop   0       41   ; to [203] if exit
0D0C  1A000F80           [202] jmp        61           ; to [264]
0D10  CE0A0A03           [203] gettable   43  6   40 
0D14  E44AC815           [204] self       43  43  289  ; 1839670529
0D18  E28A0001           [205] call       43  2   2  
0D1C  1D0B0000           [206] getglobal  44  0        ; gRegion
0D20  248B4816           [207] self       44  44  290  ; 1851708733
0D24  9D8B0000           [208] getglobal  46  2        ; -332969190
0D28  D9CB0300           [209] loadk      47  15       ; "LightFixture"
0D2C  A28B0001           [210] call       46  2   2  
0D30  D20B8015           [211] move       47  43     
0D34  194C0200           [212] loadk      48  9        ; 0
0D38  59CC0800           [213] loadk      49  35       ; 0
0D3C  228B0003           [214] call       44  6   2  
0D40  5DCB0200           [215] getglobal  45  11       ; math
0D44  4E0BC816           [216] gettable   45  45  288  ; -2040962569
0D48  628B8000           [217] call       45  1   2  
fail op	33
0D4C  21808A16           [218] tforloop   0       42   ; to [220] if exit
0D50  1A800680           [219] jmp        27           ; to [247]
0D54  4E0B0A03           [220] gettable   45  6   40 
0D58  640BC916           [221] self       45  45  292  ; -1881992366
0D5C  DD4B0900           [222] getglobal  47  37       ; -1247440829
0D60  198C0900           [223] loadk      48  38       ; 0
0D64  59CC0900           [224] loadk      49  39       ; 0
0D68  990C0A00           [225] loadk      50  40       ; 0
0D6C  D94C0A00           [226] loadk      51  41       ; 0
0D70  E20B8002           [227] call       47  5   0  
0D74  624B0000           [228] call       45  0   1  
0D78  5D0B0100           [229] getglobal  45  4        ; 1074689893
0D7C  920B0016           [230] move       46  44     
0D80  628B0001           [231] call       45  2   2  
0D84  584B0000           [232] test       45      1    ; to [234] if false
0D88  1A000380           [233] jmp        13           ; to [247]
0D8C  64CB4516           [234] self       45  44  279  ; -786111647
0D90  DD0B0600           [235] getglobal  47  24       ; Lotus_Game
0D94  CE8BCA17           [236] gettable   47  47  298  ; "EMISSIVE_TINT_COLOR"
0D98  19CC0A00           [237] loadk      48  43       ; -55
0D9C  590C0B00           [238] loadk      49  44       ; -29
0DA0  994C0B00           [239] loadk      50  45       ; -73
0DA4  D94C0100           [240] loadk      51  5        ; 0
0DA8  624B8003           [241] call       45  7   1  
0DAC  64CB4516           [242] self       45  44  279  ; -786111647
0DB0  DD0B0600           [243] getglobal  47  24       ; Lotus_Game
0DB4  CE4BC617           [244] gettable   47  47  281  ; "EMISSIVE_MAP_ATTEN"
0DB8  194C0100           [245] loadk      48  5        ; 0
0DBC  624B0002           [246] call       45  4   1  
0DC0  4E0B0A03           [247] gettable   45  6   40 
0DC4  648BCB16           [248] self       45  45  302  ; -485547387
0DC8  DDCB0200           [249] getglobal  47  11       ; math
0DCC  CE0BC817           [250] gettable   47  47  288  ; -2040962569
0DD0  E28B8000           [251] call       47  1   2  
0DD4  C4CBCB17           [252] mul        47  47  303  ; -102
0DD8  C3CB0B98           [253] add        47  304 47   ; -51
0DDC  624B8001           [254] call       45  3   1  
0DE0  4E0B0A03           [255] gettable   45  6   40 
0DE4  644BCC16           [256] self       45  45  305  ; 1999686861
0DE8  D9CB0700           [257] loadk      47  31       ; -51
0DEC  624B8001           [258] call       45  3   1  
0DF0  4E0B0A03           [259] gettable   45  6   40 
0DF4  648BCC16           [260] self       45  45  306  ; -892579671
0DF8  D9CB0C00           [261] loadk      47  51       ; 0
0DFC  624B8001           [262] call       45  3   1  
0E00  1AC00080           [263] jmp        4            ; to [268]
0E04  4E0B0A03           [264] gettable   45  6   40 
0E08  648BC116           [265] self       45  45  262  ; -1923578185
0E0C  D90B0D00           [266] loadk      47  52       ; "TurnOff"
0E10  624B8001           [267] call       45  3   1  
0E14  4E0B0A03           [268] gettable   45  6   40 
0E18  644BCD16           [269] self       45  45  309  ; 1927666530
0E1C  628B0001           [270] call       45  2   2  
0E20  9D0B0100           [271] getglobal  46  4        ; 1074689893
0E24  D20B8016           [272] move       47  45     
0E28  A28B0001           [273] call       46  2   2  
0E2C  984B0000           [274] test       46      1    ; to [276] if false
0E30  1AC00380           [275] jmp        16           ; to [292]
0E34  A48BCD16           [276] self       46  45  310  ; -540837129
0E38  170C8000           [277] loadbool   48  1   0    ; true
0E3C  A24B8001           [278] call       46  3   1  
0E40  1AC00280           [279] jmp        12           ; to [292]
0E44  9DCB0D00           [280] getglobal  46  55       ; -1817107093
0E48  D90B0E00           [281] loadk      47  56       ; "EnvSetup Error: "
0E4C  0E0C0A03           [282] gettable   48  6   40 
0E50  244C4E18           [283] self       48  48  313  ; 455421500
0E54  228C0001           [284] call       48  2   2  
0E58  598C0E00           [285] loadk      49  58       ; " was tagged as Light when it shouldn't be!"
0E5C  C24B8C17           [286] concat     47  47  49 
0E60  A24B0001           [287] call       46  2   1  
0E64  8E0B0A03           [288] gettable   46  6   40 
0E68  A48B4117           [289] self       46  46  262  ; -1923578185
0E6C  190C0D00           [290] loadk      48  52       ; "TurnOff"
0E70  A24B8001           [291] call       46  3   1  
0E74  5409E67F           [292] forloop    37  -103     ; to [190] if loop
0E78  9D0B0000           [293] getglobal  46  0        ; gRegion
0E7C  A4CB4E17           [294] self       46  46  315  ; 152279552
0E80  1D0C0F00           [295] getglobal  48  60       ; gZoneAttribsType
0E84  A28B8001           [296] call       46  3   2  
0E88  DD4B0F00           [297] getglobal  47  61       ; 1672515847
0E8C  120C0017           [298] move       48  46     
0E90  E20B0101           [299] call       47  2   4  
0E94  1A800080           [300] jmp        3            ; to [304]
0E98  248DCD19           [301] self       52  51  310  ; -540837129
0E9C  970D8000           [302] loadbool   54  1   0    ; true
0EA0  224D8001           [303] call       52  3   1  
0EA4  D68B0000           [304] tforloop   47      2    ; to [306] if exit
0EA8  1A80FE7F           [305] jmp        -5           ; to [301]
0EAC  1DCD0200           [306] getglobal  52  11       ; math
0EB0  0E0D431A           [307] gettable   52  52  268  ; 500276425
0EB4  520D8002           [308] move       53  5      
0EB8  224D0001           [309] call       52  2   1  
0EBC  1D0D0000           [310] getglobal  52  0        ; gRegion
0EC0  248D4F1A           [311] self       52  52  318  ; -1456226250
0EC4  228D0001           [312] call       52  2   2  
0EC8  0ECD4F1A           [313] gettable   52  52  319  ; "postProcess"
0ECC  5D4D1000           [314] getglobal  53  65       ; infestedLightmapTint
0ED0  0C4D0DA0           [315] settable   52  320 53   ; "lightMapTint"
0ED4  5D0D0000           [316] getglobal  53  0        ; gRegion
0ED8  648DD01A           [317] self       53  53  322  ; -1520831144
0EDC  628D0001           [318] call       53  2   2  
0EE0  580D0000           [319] test       53      0    ; to [321] if true
0EE4  1A400380           [320] jmp        14           ; to [335]
0EE8  5D0D0000           [321] getglobal  53  0        ; gRegion
0EEC  644DC01A           [322] self       53  53  257  ; -1485896174
0EF0  DD8D0000           [323] getglobal  55  2        ; -332969190
0EF4  19CE1000           [324] loadk      56  67       ; "GrineerDoorSensor"
0EF8  E20D0001           [325] call       55  2   0  
0EFC  628D0000           [326] call       53  0   2  
0F00  9D4D0F00           [327] getglobal  54  61       ; 1672515847
0F04  D20D801A           [328] move       55  53     
0F08  A20D0101           [329] call       54  2   4  
0F0C  1A400080           [330] jmp        2            ; to [333]
0F10  E40E511D           [331] self       59  58  324  ; -725453761
0F14  E24E0001           [332] call       59  2   1  
0F18  968D0000           [333] tforloop   54      2    ; to [335] if exit
0F1C  1AC0FE7F           [334] jmp        -4           ; to [331]
0F20  1E008000           [335] return     0   1      
                         * constants:
0F24  45                 sizek (69)
0F25  04                 const type 4
0F26  08                 string size (8)
0F27  67526567696F6E00   "gRegion\0"
                         const [0]: "gRegion"
0F2F  01                 const type 3
0F30  12066FA7           const [1]: (-1485896174)
0F34  01                 const type 3
0F35  1A4B27EC           const [2]: (-332969190)
0F39  04                 const type 4
0F3A  07                 string size (7)
0F3B  43726565707900     "Creepy\0"
                         const [3]: "Creepy"
0F42  01                 const type 3
0F43  65770E40           const [4]: (1074689893)
0F47  03                 const type 3
0F48  0000803F           const [5]: (0)
0F4C  01                 const type 3
0F4D  B786588D           const [6]: (-1923578185)
0F51  04                 const type 4
0F52  07                 string size (7)
0F53  456E61626C6500     "Enable\0"
                         const [7]: "Enable"
0F5A  01                 const type 3
0F5B  7DB5D47F           const [8]: (2144646525)
0F5F  03                 const type 3
0F60  00000000           const [9]: (0)
0F64  03                 const type 3
0F65  00000047           const [10]: (0)
0F69  04                 const type 4
0F6A  05                 string size (5)
0F6B  6D61746800         "math\0"
                         const [11]: "math"
0F70  01                 const type 3
0F71  C99CD11D           const [12]: (500276425)
0F75  03                 const type 3
0F76  40552848           const [13]: (64)
0F7A  04                 const type 4
0F7B  06                 string size (6)
0F7C  4C6967687400       "Light\0"
                         const [14]: "Light"
0F82  04                 const type 4
0F83  0D                 string size (13)
0F84  4C69676874466978+  "LightFix"
0F8C  7475726500         "ture\0"
                         const [15]: "LightFixture"
0F91  04                 const type 4
0F92  0C                 string size (12)
0F93  4C696768744E6F56+  "LightNoV"
0F9B  6F6C7400           "olt\0"
                         const [16]: "LightNoVolt"
0F9F  04                 const type 4
0FA0  13                 string size (19)
0FA1  4C69676874466978+  "LightFix"
0FA9  747572654E6F566F+  "tureNoVo"
0FB1  6C7400             "lt\0"
                         const [17]: "LightFixtureNoVolt"
0FB4  04                 const type 4
0FB5  15                 string size (21)
0FB6  4C69676874466978+  "LightFix"
0FBE  7475726554656D70+  "tureTemp"
0FC6  6C61746500         "late\0"
                         const [18]: "LightFixtureTemplate"
0FCB  04                 const type 4
0FCC  0B                 string size (11)
0FCD  4C69676874466C61+  "LightFla"
0FD5  726500             "re\0"
                         const [19]: "LightFlare"
0FD8  04                 const type 4
0FD9  07                 string size (7)
0FDA  476F6452617900     "GodRay\0"
                         const [20]: "GodRay"
0FE1  04                 const type 4
0FE2  06                 string size (6)
0FE3  7461626C6500       "table\0"
                         const [21]: "table"
0FE9  01                 const type 3
0FEA  9D0C45E6           const [22]: (-431682403)
0FEE  01                 const type 3
0FEF  61E324D1           const [23]: (-786111647)
0FF3  04                 const type 4
0FF4  0B                 string size (11)
0FF5  4C6F7475735F4761+  "Lotus_Ga"
0FFD  6D6500             "me\0"
                         const [24]: "Lotus_Game"
1000  04                 const type 4
1001  13                 string size (19)
1002  454D495353495645+  "EMISSIVE"
100A  5F4D41505F415454+  "_MAP_ATT"
1012  454E00             "EN\0"
                         const [25]: "EMISSIVE_MAP_ATTEN"
1015  04                 const type 4
1016  08                 string size (8)
1017  44697361626C6500   "Disable\0"
                         const [26]: "Disable"
101F  04                 const type 4
1020  0C                 string size (12)
1021  554E4C49545F4154+  "UNLIT_AT"
1029  54454E00           "TEN\0"
                         const [27]: "UNLIT_ATTEN"
102D  04                 const type 4
102E  05                 string size (5)
102F  4869646500         "Hide\0"
                         const [28]: "Hide"
1034  01                 const type 3
1035  D48E598B           const [29]: (-1957065004)
1039  04                 const type 4
103A  0B                 string size (11)
103B  674C696768745479+  "gLightTy"
1043  706500             "pe\0"
                         const [30]: "gLightType"
1046  03                 const type 3
1047  CDCCCC3E           const [31]: (-51)
104B  01                 const type 3
104C  F7615986           const [32]: (-2040962569)
1050  01                 const type 3
1051  0125A76D           const [33]: (1839670529)
1055  01                 const type 3
1056  3DD55E6E           const [34]: (1851708733)
105A  03                 const type 3
105B  0000A041           const [35]: (0)
105F  01                 const type 3
1060  5213D38F           const [36]: (-1881992366)
1064  01                 const type 3
1065  4390A5B5           const [37]: (-1247440829)
1069  03                 const type 3
106A  0000C842           const [38]: (0)
106E  03                 const type 3
106F  0000E242           const [39]: (0)
1073  03                 const type 3
1074  0000B642           const [40]: (0)
1078  03                 const type 3
1079  00007F43           const [41]: (0)
107D  04                 const type 4
107E  14                 string size (20)
107F  454D495353495645+  "EMISSIVE"
1087  5F54494E545F434F+  "_TINT_CO"
108F  4C4F5200           "LOR\0"
                         const [42]: "EMISSIVE_TINT_COLOR"
1093  03                 const type 3
1094  C9C8C83E           const [43]: (-55)
1098  03                 const type 3
1099  E3E2E23E           const [44]: (-29)
109D  03                 const type 3
109E  B7B6B63E           const [45]: (-73)
10A2  01                 const type 3
10A3  85220FE3           const [46]: (-485547387)
10A7  03                 const type 3
10A8  9A99993E           const [47]: (-102)
10AC  03                 const type 3
10AD  CDCC4C3E           const [48]: (-51)
10B1  01                 const type 3
10B2  CDCC3077           const [49]: (1999686861)
10B6  01                 const type 3
10B7  A950CCCA           const [50]: (-892579671)
10BB  03                 const type 3
10BC  00004040           const [51]: (0)
10C0  04                 const type 4
10C1  08                 string size (8)
10C2  5475726E4F666600   "TurnOff\0"
                         const [52]: "TurnOff"
10CA  01                 const type 3
10CB  62DBE572           const [53]: (1927666530)
10CF  01                 const type 3
10D0  F77AC3DF           const [54]: (-540837129)
10D4  01                 const type 3
10D5  6B25B193           const [55]: (-1817107093)
10D9  04                 const type 4
10DA  11                 string size (17)
10DB  456E765365747570+  "EnvSetup"
10E3  204572726F723A20+  " Error: "
10EB  00                 "\0"
                         const [56]: "EnvSetup Error: "
10EC  01                 const type 3
10ED  3C2E251B           const [57]: (455421500)
10F1  04                 const type 4
10F2  2B                 string size (43)
10F3  2077617320746167+  " was tag"
10FB  676564206173204C+  "ged as L"
1103  6967687420776865+  "ight whe"
110B  6E2069742073686F+  "n it sho"
1113  756C646E27742062+  "uldn't b"
111B  652100             "e!\0"
                         const [58]: " was tagged as Light when it shouldn't be!"
111E  01                 const type 3
111F  009A1309           const [59]: (152279552)
1123  04                 const type 4
1124  11                 string size (17)
1125  675A6F6E65417474+  "gZoneAtt"
112D  7269627354797065+  "ribsType"
1135  00                 "\0"
                         const [60]: "gZoneAttribsType"
1136  01                 const type 3
1137  0791B063           const [61]: (1672515847)
113B  01                 const type 3
113C  36C033A9           const [62]: (-1456226250)
1140  04                 const type 4
1141  0C                 string size (12)
1142  706F737450726F63+  "postProc"
114A  65737300           "ess\0"
                         const [63]: "postProcess"
114E  04                 const type 4
114F  0D                 string size (13)
1150  6C696768744D6170+  "lightMap"
1158  54696E7400         "Tint\0"
                         const [64]: "lightMapTint"
115D  04                 const type 4
115E  15                 string size (21)
115F  696E666573746564+  "infested"
1167  4C696768746D6170+  "Lightmap"
116F  54696E7400         "Tint\0"
                         const [65]: "infestedLightmapTint"
1174  01                 const type 3
1175  58F559A5           const [66]: (-1520831144)
1179  04                 const type 4
117A  12                 string size (18)
117B  4772696E65657244+  "GrineerD"
1183  6F6F7253656E736F+  "oorSenso"
118B  7200               "r\0"
                         const [67]: "GrineerDoorSensor"
118D  01                 const type 3
118E  3F74C2D4           const [68]: (-725453761)
                         * functions:
1192  00                 sizep (0)
                         * lines:
1194  02                 sizelineinfo (335)
                         [pc] (line)
1195  7C                 [001] (124)
1196  00                 [002] (124)
1197  00                 [003] (124)
1198  00                 [004] (124)
1199  7C                 [005] (124)
119A  00                 [006] (124)
119B  00                 [007] (126)
119C  00                 [008] (126)
119D  7C                 [009] (126)
119E  00                 [010] (126)
119F  00                 [011] (126)
11A0  00                 [012] (127)
11A1  7C                 [013] (127)
11A2  00                 [014] (127)
11A3  00                 [015] (127)
11A4  00                 [016] (-128)
11A5  7C                 [017] (-128)
11A6  00                 [018] (-128)
11A7  00                 [019] (-128)
11A8  00                 [020] (127)
11A9  7C                 [021] (-125)
11AA  00                 [022] (-125)
11AB  00                 [023] (-125)
11AC  00                 [024] (-125)
11AD  7E                 [025] (-124)
11AE  00                 [026] (-124)
11AF  00                 [027] (-124)
11B0  00                 [028] (-124)
11B1  7E                 [029] (-121)
11B2  00                 [030] (-121)
11B3  00                 [031] (-121)
11B4  00                 [032] (-121)
11B5  7E                 [033] (-121)
11B6  00                 [034] (-121)
11B7  00                 [035] (-120)
11B8  00                 [036] (-120)
11B9  7E                 [037] (-120)
11BA  00                 [038] (-120)
11BB  00                 [039] (-120)
11BC  00                 [040] (-120)
11BD  7E                 [041] (-119)
11BE  00                 [042] (-119)
11BF  00                 [043] (-119)
11C0  00                 [044] (-119)
11C1  7F                 [045] (-119)
11C2  00                 [046] (-119)
11C3  00                 [047] (-118)
11C4  00                 [048] (-118)
11C5  7F                 [049] (-118)
11C6  00                 [050] (-118)
11C7  00                 [051] (-118)
11C8  00                 [052] (-118)
11C9  7F                 [053] (-117)
11CA  00                 [054] (-117)
11CB  00                 [055] (-117)
11CC  00                 [056] (-117)
11CD  7F                 [057] (-117)
11CE  00                 [058] (-117)
11CF  00                 [059] (-116)
11D0  00                 [060] (-116)
11D1  80                 [061] (-116)
11D2  00                 [062] (-116)
11D3  00                 [063] (-116)
11D4  00                 [064] (-116)
11D5  80                 [065] (-115)
11D6  00                 [066] (-115)
11D7  00                 [067] (-115)
11D8  00                 [068] (-115)
11D9  80                 [069] (-115)
11DA  00                 [070] (-115)
11DB  00                 [071] (-112)
11DC  00                 [072] (-112)
11DD  80                 [073] (-112)
11DE  00                 [074] (-112)
11DF  00                 [075] (-112)
11E0  00                 [076] (-111)
11E1  7F                 [077] (-111)
11E2  00                 [078] (-111)
11E3  00                 [079] (-111)
11E4  00                 [080] (-111)
11E5  83                 [081] (-110)
11E6  00                 [082] (-110)
11E7  00                 [083] (-110)
11E8  00                 [084] (-110)
11E9  83                 [085] (-109)
11EA  00                 [086] (-109)
11EB  00                 [087] (-109)
11EC  00                 [088] (-109)
11ED  83                 [089] (-109)
11EE  00                 [090] (-110)
11EF  00                 [091] (-105)
11F0  00                 [092] (-105)
11F1  83                 [093] (-105)
11F2  00                 [094] (-105)
11F3  00                 [095] (-105)
11F4  00                 [096] (-104)
11F5  84                 [097] (-104)
11F6  00                 [098] (-104)
11F7  00                 [099] (-104)
11F8  00                 [100] (-104)
11F9  84                 [101] (-103)
11FA  00                 [102] (-103)
11FB  00                 [103] (-103)
11FC  00                 [104] (-103)
11FD  84                 [105] (-102)
11FE  00                 [106] (-102)
11FF  00                 [107] (-102)
1200  00                 [108] (-102)
1201  84                 [109] (-102)
1202  00                 [110] (-103)
1203  00                 [111] (-99)
1204  00                 [112] (-99)
1205  87                 [113] (-99)
1206  00                 [114] (-99)
1207  00                 [115] (-99)
1208  00                 [116] (-98)
1209  87                 [117] (-98)
120A  00                 [118] (-98)
120B  00                 [119] (-98)
120C  00                 [120] (-97)
120D  87                 [121] (-97)
120E  00                 [122] (-97)
120F  00                 [123] (-97)
1210  00                 [124] (-97)
1211  87                 [125] (-98)
1212  00                 [126] (-92)
1213  00                 [127] (-92)
1214  00                 [128] (-92)
1215  87                 [129] (-92)
1216  00                 [130] (-92)
1217  00                 [131] (-91)
1218  00                 [132] (-91)
1219  87                 [133] (-91)
121A  00                 [134] (-91)
121B  00                 [135] (-90)
121C  00                 [136] (-90)
121D  88                 [137] (-90)
121E  00                 [138] (-90)
121F  00                 [139] (-90)
1220  00                 [140] (-89)
1221  88                 [141] (-89)
1222  00                 [142] (-89)
1223  00                 [143] (-89)
1224  00                 [144] (-89)
1225  88                 [145] (-89)
1226  00                 [146] (-91)
1227  00                 [147] (-85)
1228  00                 [148] (-85)
1229  88                 [149] (-85)
122A  00                 [150] (-85)
122B  00                 [151] (-85)
122C  00                 [152] (-84)
122D  88                 [153] (-84)
122E  00                 [154] (-84)
122F  00                 [155] (-84)
1230  00                 [156] (-83)
1231  88                 [157] (-83)
1232  00                 [158] (-83)
1233  00                 [159] (-83)
1234  00                 [160] (-84)
1235  89                 [161] (-80)
1236  00                 [162] (-80)
1237  00                 [163] (-80)
1238  00                 [164] (-80)
1239  89                 [165] (-80)
123A  00                 [166] (-79)
123B  00                 [167] (-79)
123C  00                 [168] (-79)
123D  89                 [169] (-79)
123E  00                 [170] (-78)
123F  00                 [171] (-78)
1240  00                 [172] (-78)
1241  89                 [173] (-78)
1242  00                 [174] (-78)
1243  00                 [175] (-78)
1244  00                 [176] (-77)
1245  89                 [177] (-77)
1246  00                 [178] (-77)
1247  00                 [179] (-77)
1248  00                 [180] (-79)
1249  89                 [181] (-73)
124A  00                 [182] (-73)
124B  00                 [183] (-73)
124C  00                 [184] (-73)
124D  8A                 [185] (-73)
124E  00                 [186] (-72)
124F  00                 [187] (-72)
1250  00                 [188] (-72)
1251  8A                 [189] (-72)
1252  00                 [190] (-71)
1253  00                 [191] (-71)
1254  00                 [192] (-71)
1255  8A                 [193] (-71)
1256  00                 [194] (-71)
1257  00                 [195] (-71)
1258  00                 [196] (-70)
1259  8A                 [197] (-69)
125A  00                 [198] (-68)
125B  00                 [199] (-68)
125C  00                 [200] (-68)
125D  8A                 [201] (-68)
125E  00                 [202] (-68)
125F  00                 [203] (-66)
1260  00                 [204] (-66)
1261  8A                 [205] (-66)
1262  00                 [206] (-65)
1263  00                 [207] (-65)
1264  00                 [208] (-65)
1265  8B                 [209] (-65)
1266  00                 [210] (-65)
1267  00                 [211] (-65)
1268  00                 [212] (-65)
1269  8B                 [213] (-65)
126A  00                 [214] (-65)
126B  00                 [215] (-64)
126C  00                 [216] (-64)
126D  8B                 [217] (-64)
126E  00                 [218] (-64)
126F  00                 [219] (-64)
1270  00                 [220] (-63)
1271  8B                 [221] (-63)
1272  00                 [222] (-63)
1273  00                 [223] (-63)
1274  00                 [224] (-63)
1275  8B                 [225] (-63)
1276  00                 [226] (-63)
1277  00                 [227] (-63)
1278  00                 [228] (-63)
1279  8B                 [229] (-62)
127A  00                 [230] (-62)
127B  00                 [231] (-62)
127C  00                 [232] (-62)
127D  8C                 [233] (-62)
127E  00                 [234] (-61)
127F  00                 [235] (-61)
1280  00                 [236] (-61)
1281  8C                 [237] (-61)
1282  00                 [238] (-61)
1283  00                 [239] (-61)
1284  00                 [240] (-61)
1285  8C                 [241] (-61)
1286  00                 [242] (-60)
1287  00                 [243] (-60)
1288  00                 [244] (-60)
1289  8C                 [245] (-60)
128A  00                 [246] (-60)
128B  00                 [247] (-57)
128C  00                 [248] (-57)
128D  8C                 [249] (-57)
128E  00                 [250] (-57)
128F  00                 [251] (-57)
1290  00                 [252] (-57)
1291  8C                 [253] (-57)
1292  00                 [254] (-57)
1293  00                 [255] (-56)
1294  00                 [256] (-56)
1295  8D                 [257] (-56)
1296  00                 [258] (-56)
1297  00                 [259] (-55)
1298  00                 [260] (-55)
1299  8D                 [261] (-55)
129A  00                 [262] (-55)
129B  00                 [263] (-55)
129C  00                 [264] (-53)
129D  8D                 [265] (-53)
129E  00                 [266] (-53)
129F  00                 [267] (-53)
12A0  00                 [268] (-51)
12A1  8D                 [269] (-51)
12A2  00                 [270] (-51)
12A3  00                 [271] (-50)
12A4  00                 [272] (-50)
12A5  8D                 [273] (-50)
12A6  00                 [274] (-50)
12A7  00                 [275] (-50)
12A8  00                 [276] (-49)
12A9  8D                 [277] (-49)
12AA  00                 [278] (-49)
12AB  00                 [279] (-48)
12AC  00                 [280] (-46)
12AD  90                 [281] (-46)
12AE  00                 [282] (-46)
12AF  00                 [283] (-46)
12B0  00                 [284] (-46)
12B1  90                 [285] (-46)
12B2  00                 [286] (-46)
12B3  00                 [287] (-46)
12B4  00                 [288] (-45)
12B5  90                 [289] (-45)
12B6  00                 [290] (-45)
12B7  00                 [291] (-45)
12B8  00                 [292] (-72)
12B9  90                 [293] (-40)
12BA  00                 [294] (-40)
12BB  00                 [295] (-40)
12BC  00                 [296] (-40)
12BD  90                 [297] (-39)
12BE  00                 [298] (-39)
12BF  00                 [299] (-39)
12C0  00                 [300] (-39)
12C1  91                 [301] (-38)
12C2  00                 [302] (-38)
12C3  00                 [303] (-38)
12C4  00                 [304] (-39)
12C5  91                 [305] (-38)
12C6  00                 [306] (-35)
12C7  00                 [307] (-35)
12C8  00                 [308] (-35)
12C9  91                 [309] (-35)
12CA  00                 [310] (-33)
12CB  00                 [311] (-33)
12CC  00                 [312] (-33)
12CD  91                 [313] (-33)
12CE  00                 [314] (-32)
12CF  00                 [315] (-32)
12D0  00                 [316] (-29)
12D1  91                 [317] (-29)
12D2  00                 [318] (-29)
12D3  00                 [319] (-29)
12D4  00                 [320] (-29)
12D5  92                 [321] (-28)
12D6  00                 [322] (-28)
12D7  00                 [323] (-28)
12D8  00                 [324] (-28)
12D9  92                 [325] (-28)
12DA  00                 [326] (-28)
12DB  00                 [327] (-27)
12DC  00                 [328] (-27)
12DD  92                 [329] (-27)
12DE  00                 [330] (-27)
12DF  00                 [331] (-26)
12E0  00                 [332] (-26)
12E1  92                 [333] (-27)
12E2  00                 [334] (-26)
12E3  00                 [335] (-12)
                         * locals:
16D1  00                 sizelocvars (0)
                         * upvalues:
16D2  00                 sizeupvalues (0)
                         ** end of function **

                         
16D3                     ** function [8] definition (level 2)
                         ** start of function **
16D3  00                 string size (0)
                         source name: (none)
16D5  01                 line defined (246)
16D6  8F                 last line defined (399)
16D7  03                 nups (1)
16D8  01                 numparams (0)
16D9  00                 is_vararg (0)
16DA  00                 maxstacksize (46)
                         * code:
16DD  03                 sizecode (388)
16DE  1D000000           [001] getglobal  0   0        ; gGameRules
16E2  5D400000           [002] getglobal  1   1        ; 1074689893
16E6  92000000           [003] move       2   0      
16EA  62800001           [004] call       1   2   2  
16EE  58000000           [005] test       1       0    ; to [7] if true
16F2  1A000180           [006] jmp        5            ; to [12]
16F6  5D800000           [007] getglobal  1   2        ; 538022378
16FA  99C00000           [008] loadk      2   3        ; 0
16FE  62400001           [009] call       1   2   1  
1702  1D000000           [010] getglobal  0   0        ; gGameRules
1706  1A40FD7F           [011] jmp        -10          ; to [2]
170A  64004100           [012] self       1   0   260  ; -1201441975
170E  62800001           [013] call       1   2   2  
1712  A4404100           [014] self       2   0   261  ; -1451901810
1716  A2800001           [015] call       2   2   2  
171A  DD400000           [016] getglobal  3   1        ; 1074689893
171E  12018000           [017] move       4   1      
1722  E2800001           [018] call       3   2   2  
1726  D8400000           [019] test       3       1    ; to [21] if false
172A  1A400280           [020] jmp        10           ; to [31]
172E  DD400000           [021] getglobal  3   1        ; 1074689893
1732  1D810100           [022] getglobal  4   6        ; _T
1736  0EC14102           [023] gettable   4   4   263  ; "faction"
173A  E2800001           [024] call       3   2   2  
173E  D8000000           [025] test       3       0    ; to [27] if true
1742  1AC00080           [026] jmp        4            ; to [31]
1746  DD800100           [027] getglobal  3   6        ; _T
174A  2401C200           [028] self       4   1   264  ; -272348948
174E  22810001           [029] call       4   2   2  
1752  CC008183           [030] settable   3   263 4    ; "faction"
1756  DD400200           [031] getglobal  3   9        ; -1692306532
175A  12010001           [032] move       4   2      
175E  E2400001           [033] call       3   2   1  
1762  DD800200           [034] getglobal  3   10       ; 968599890
1766  19C10000           [035] loadk      4   3        ; 0
176A  59C10200           [036] loadk      5   11       ; 0
176E  E2808001           [037] call       3   3   2  
fail op	21
1772  15C00086           [038] concat     0   268 3  
1776  1A000380           [039] jmp        13           ; to [53]
177A  DD800100           [040] getglobal  3   6        ; _T
177E  CC80C386           [041] settable   3   269 270  ; "gWeatherRain" 1
1782  E4C04300           [042] self       3   0   271  ; -1520831144
1786  E2800001           [043] call       3   2   2  
178A  D8000000           [044] test       3       0    ; to [46] if true
178E  1A800480           [045] jmp        19           ; to [65]
1792  E4004400           [046] self       3   0   272  ; -803877924
1796  5D410400           [047] getglobal  5   17       ; -332969190
179A  99810400           [048] loadk      6   18       ; "WeatherRain"
179E  62810001           [049] call       5   2   2  
17A2  99C10200           [050] loadk      6   11       ; 0
17A6  E2400002           [051] call       3   4   1  
17AA  1AC00280           [052] jmp        12           ; to [65]
17AE  DD800100           [053] getglobal  3   6        ; _T
17B2  CCC0C486           [054] settable   3   269 275  ; "gWeatherRain" 0
17B6  E4C04300           [055] self       3   0   271  ; -1520831144
17BA  E2800001           [056] call       3   2   2  
17BE  D8000000           [057] test       3       0    ; to [59] if true
17C2  1A400180           [058] jmp        6            ; to [65]
17C6  E4004400           [059] self       3   0   272  ; -803877924
17CA  5D410400           [060] getglobal  5   17       ; -332969190
17CE  99810400           [061] loadk      6   18       ; "WeatherRain"
17D2  62810001           [062] call       5   2   2  
17D6  99C10000           [063] loadk      6   3        ; 0
17DA  E2400002           [064] call       3   4   1  
17DE  CE00C500           [065] gettable   3   1   276  ; "sortieId"
fail op	35
17E2  2340C501           [066] close      0  
17E6  1A000280           [067] jmp        9            ; to [77]
17EA  CE80C500           [068] gettable   3   1   278  ; "goalTag"
17EE  1DC10500           [069] getglobal  4   23       ; EMPTY_SYMBOL
fail op	35
17F2  23008101           [070] close      0  
17F6  1A000180           [071] jmp        5            ; to [77]
17FA  DD400000           [072] getglobal  3   1        ; 1074689893
17FE  0E01C600           [073] gettable   4   1   280  ; "keyChainName"
1802  E2800001           [074] call       3   2   2  
1806  D8400000           [075] test       3       1    ; to [77] if false
180A  1A400080           [076] jmp        2            ; to [79]
180E  DD800100           [077] getglobal  3   6        ; _T
1812  CC80C38C           [078] settable   3   281 270  ; "gNoRandomLayers" 1
1816  D9800600           [079] loadk      3   26       ; 0
181A  1D810100           [080] getglobal  4   6        ; _T
181E  0CC1C08D           [081] settable   4   283 259  ; "FactionSwapTriggerZone" 0
1822  0B010000           [082] newtable   4   0   0    ; array=0, hash=0
1826  64014700           [083] self       5   0   284  ; 590154099
182A  62810001           [084] call       5   2   2  
182E  58410000           [085] test       5       1    ; to [87] if false
1832  1AC00180           [086] jmp        8            ; to [95]
1836  64414700           [087] self       5   0   285  ; -1957065004
183A  DD810700           [088] getglobal  7   30       ; gLotusHubGameRulesType
183E  62818001           [089] call       5   3   2  
1842  58410000           [090] test       5       1    ; to [92] if false
1846  1A800080           [091] jmp        3            ; to [95]
184A  64C14700           [092] self       5   0   287  ; -689167287
184E  62810001           [093] call       5   2   2  
1852  12018002           [094] move       4   5      
1856  5D010800           [095] getglobal  5   32       ; gRegion
185A  64C1C302           [096] self       5   5   271  ; -1520831144
185E  62810001           [097] call       5   2   2  
1862  58410000           [098] test       5       1    ; to [100] if false
1866  1A400380           [099] jmp        14           ; to [114]
186A  5D810100           [100] getglobal  5   6        ; _T
186E  A4814800           [101] self       6   0   290  ; -502414055
1872  A2810001           [102] call       6   2   2  
1876  DDC10800           [103] getglobal  7   35       ; Lotus_Game
187A  CE01C903           [104] gettable   7   7   292  ; "MT_DEFENSE"
fail op	35
187E  63C00103           [105] close      1  
1882  1AC00080           [106] jmp        4            ; to [111]
1886  A4014700           [107] self       6   0   284  ; 590154099
188A  A2810001           [108] call       6   2   2  
fail op	9
188E  89010003           [109] settable   6   6   0  
1892  1A400080           [110] jmp        2            ; to [113]
1896  97410000           [111] loadbool   6   0   1    ; false, to [113]
189A  97018000           [112] loadbool   6   1   0    ; true
189E  4C818190           [113] settable   5   289 6    ; "AllowWrinkles"
18A2  57010000           [114] loadbool   5   0   0    ; false
18A6  8E41C900           [115] gettable   6   1   293  ; "invasionId"
fail op	35
18AA  63404503           [116] close      1  
18AE  1A800480           [117] jmp        19           ; to [137]
18B2  9D810100           [118] getglobal  6   6        ; _T
18B6  8EC14103           [119] gettable   6   6   263  ; "faction"
18BA  DD410400           [120] getglobal  7   17       ; -332969190
18BE  19820900           [121] loadk      8   38       ; "Infestation"
18C2  E2810001           [122] call       7   2   2  
fail op	35
18C6  63C00103           [123] close      1  
18CA  1AC00280           [124] jmp        12           ; to [137]
18CE  99C10200           [125] loadk      6   11       ; 0
18D2  CA010002           [126] len        7   4      
18D6  19C20200           [127] loadk      8   11       ; 0
18DA  90810180           [128] forprep    6   7        ; to [136]
18DE  8E420202           [129] gettable   10  4   9  
18E2  DD420400           [130] getglobal  11  17       ; -332969190
18E6  19830900           [131] loadk      12  38       ; "Infestation"
18EA  E2820001           [132] call       11  2   2  
fail op	35
18EE  23C00205           [133] close      0  
18F2  1A000080           [134] jmp        1            ; to [136]
18F6  57018000           [135] loadbool   5   1   0    ; true
18FA  94C1FD7F           [136] forloop    6   -8       ; to [129] if loop
18FE  9D820100           [137] getglobal  10  6        ; _T
1902  8EC24105           [138] gettable   10  10  263  ; "faction"
1906  DD420400           [139] getglobal  11  17       ; -332969190
190A  19830900           [140] loadk      12  38       ; "Infestation"
190E  E2820001           [141] call       11  2   2  
fail op	35
1912  63C00205           [142] close      1  
1916  1A400080           [143] jmp        2            ; to [146]
191A  58010000           [144] test       5       0    ; to [146] if true
191E  1A400880           [145] jmp        34           ; to [180]
1922  9DC20900           [146] getglobal  10  39       ; infestedLightsOut
1926  98020000           [147] test       10      0    ; to [149] if true
192A  1A400280           [148] jmp        10           ; to [159]
192E  9D820100           [149] getglobal  10  6        ; _T
1932  8C424A94           [150] settable   10  296 297  ; "gForceDayNight" "Night"
1936  8E82CA00           [151] gettable   10  1   298  ; "fxLayer"
193A  DD420400           [152] getglobal  11  17       ; -332969190
193E  19C30A00           [153] loadk      12  43       ; "DarkFog"
1942  E2820001           [154] call       11  2   2  
fail op	35
1946  63C00205           [155] close      1  
194A  1A400080           [156] jmp        2            ; to [159]
194E  93020000           [157] getupval   10  0      
1952  A2428000           [158] call       10  1   1  
1956  9D020800           [159] getglobal  10  32       ; gRegion
195A  A4024B05           [160] self       10  10  300  ; -1485896174
195E  1D430400           [161] getglobal  12  17       ; -332969190
1962  59430B00           [162] loadk      13  45       ; "CrpAnnouncerMain"
1966  22030001           [163] call       12  2   0  
196A  A2820000           [164] call       10  0   2  
196E  DD420000           [165] getglobal  11  1        ; 1074689893
1972  12030005           [166] move       12  10     
1976  E2820001           [167] call       11  2   2  
197A  D8420000           [168] test       11      1    ; to [170] if false
197E  1AC00E80           [169] jmp        60           ; to [230]
1982  D9C20200           [170] loadk      11  11       ; 0
1986  0A030005           [171] len        12  10     
198A  59C30200           [172] loadk      13  11       ; 0
198E  D0C20080           [173] forprep    11  4        ; to [178]
1992  DD030800           [174] getglobal  15  32       ; gRegion
1996  E483CB07           [175] self       15  15  302  ; -1693828985
199A  4E840305           [176] gettable   17  10  14 
199E  E2438001           [177] call       15  3   1  
19A2  D482FE7F           [178] forloop    11  -5       ; to [174] if loop
19A6  1A400C80           [179] jmp        50           ; to [230]
19AA  DD030800           [180] getglobal  15  32       ; gRegion
19AE  E403CB07           [181] self       15  15  300  ; -1485896174
19B2  5D440400           [182] getglobal  17  17       ; -332969190
19B6  99C40B00           [183] loadk      18  47       ; "Infested"
19BA  62040001           [184] call       17  2   0  
19BE  E2830000           [185] call       15  0   2  
19C2  19C40200           [186] loadk      16  11       ; 0
19C6  4A048007           [187] len        17  15     
19CA  99C40200           [188] loadk      18  11       ; 0
19CE  10C40080           [189] forprep    16  4        ; to [194]
19D2  1D050800           [190] getglobal  20  32       ; gRegion
19D6  24854B0A           [191] self       20  20  302  ; -1693828985
19DA  8EC58407           [192] gettable   22  15  19 
19DE  22458001           [193] call       20  3   1  
19E2  1484FE7F           [194] forloop    16  -5       ; to [190] if loop
19E6  1D050800           [195] getglobal  20  32       ; gRegion
19EA  24054B0A           [196] self       20  20  300  ; -1485896174
19EE  9D450400           [197] getglobal  22  17       ; -332969190
19F2  D9450B00           [198] loadk      23  45       ; "CrpAnnouncerMain"
19F6  A2050001           [199] call       22  2   0  
19FA  22850000           [200] call       20  0   2  
19FE  5D450000           [201] getglobal  21  1        ; 1074689893
1A02  9205000A           [202] move       22  20     
1A06  62850001           [203] call       21  2   2  
1A0A  58450000           [204] test       21      1    ; to [206] if false
1A0E  1AC00580           [205] jmp        24           ; to [230]
1A12  59C50200           [206] loadk      21  11       ; 0
1A16  8A05000A           [207] len        22  20     
1A1A  D9C50200           [208] loadk      23  11       ; 0
1A1E  50850480           [209] forprep    21  19       ; to [229]
fail op	35
1A22  23C0420C           [210] close      0  
1A26  1A800280           [211] jmp        11           ; to [223]
1A2A  5D060000           [212] getglobal  25  0        ; gGameRules
1A2E  6406C10C           [213] self       25  25  260  ; -1201441975
1A32  62860001           [214] call       25  2   2  
1A36  4E06CC0C           [215] gettable   25  25  304  ; "archwingRequired"
1A3A  58060000           [216] test       25      0    ; to [218] if true
1A3E  1A000180           [217] jmp        5            ; to [223]
1A42  5D060800           [218] getglobal  25  32       ; gRegion
1A46  6486CB0C           [219] self       25  25  302  ; -1693828985
1A4A  CE06060A           [220] gettable   27  20  24 
1A4E  62468001           [221] call       25  3   1  
1A52  1A400180           [222] jmp        6            ; to [229]
fail op	21
1A56  15008685           [223] concat     0   267 24 
1A5A  1AC00080           [224] jmp        4            ; to [229]
1A5E  5D060800           [225] getglobal  25  32       ; gRegion
1A62  6486CB0C           [226] self       25  25  302  ; -1693828985
1A66  CE06060A           [227] gettable   27  20  24 
1A6A  62468001           [228] call       25  3   1  
1A6E  54C5FA7F           [229] forloop    21  -20      ; to [210] if loop
1A72  5D060000           [230] getglobal  25  0        ; gGameRules
1A76  6406C10C           [231] self       25  25  260  ; -1201441975
1A7A  62860001           [232] call       25  2   2  
1A7E  8E86CA0C           [233] gettable   26  25  298  ; "fxLayer"
1A82  DD460400           [234] getglobal  27  17       ; -332969190
1A86  19470C00           [235] loadk      28  49       ; "LightsOut"
1A8A  E2860001           [236] call       27  2   2  
fail op	35
1A8E  23C0060D           [237] close      0  
1A92  1A400080           [238] jmp        2            ; to [241]
1A96  93060000           [239] getupval   26  0      
1A9A  A2468000           [240] call       26  1   1  
1A9E  9D860100           [241] getglobal  26  6        ; _T
1AA2  8E864C0D           [242] gettable   26  26  306  ; "missionColorCorrectionOverride"
1AA6  98060000           [243] test       26      0    ; to [245] if true
1AAA  1A000080           [244] jmp        1            ; to [246]
1AAE  1E008000           [245] return     0   1      
1AB2  9D060800           [246] getglobal  26  32       ; gRegion
1AB6  A4C64C0D           [247] self       26  26  307  ; -1875307917
1ABA  1D470400           [248] getglobal  28  17       ; -332969190
1ABE  59070D00           [249] loadk      29  52       ; "Exit"
1AC2  22070001           [250] call       28  2   0  
1AC6  A2860000           [251] call       26  0   2  
1ACA  D9460D00           [252] loadk      27  53       ; 0
1ACE  1D470000           [253] getglobal  28  1        ; 1074689893
1AD2  5207000D           [254] move       29  26     
1AD6  22870001           [255] call       28  2   2  
1ADA  18470000           [256] test       28      1    ; to [258] if false
1ADE  1A400280           [257] jmp        10           ; to [268]
1AE2  24874D0D           [258] self       28  26  310  ; 1927666530
1AE6  22870001           [259] call       28  2   2  
1AEA  5D470000           [260] getglobal  29  1        ; 1074689893
1AEE  9207000E           [261] move       30  28     
1AF2  62870001           [262] call       29  2   2  
1AF6  58470000           [263] test       29      1    ; to [265] if false
1AFA  1A800080           [264] jmp        3            ; to [268]
1AFE  64C74D0E           [265] self       29  28  311  ; -2104556066
1B02  62870001           [266] call       29  2   2  
1B06  D206800E           [267] move       27  29     
1B0A  5D070E00           [268] getglobal  29  56       ; math
1B0E  4E47CE0E           [269] gettable   29  29  313  ; -2040962569
1B12  62878000           [270] call       29  1   2  
1B16  8E47C90C           [271] gettable   30  25  293  ; "invasionId"
1B1A  DD870100           [272] getglobal  31  6        ; _T
1B1E  CE47C80F           [273] gettable   31  31  289  ; "AllowWrinkles"
1B22  D8070000           [274] test       31      0    ; to [276] if true
1B26  1A400980           [275] jmp        38           ; to [314]
fail op	33
1B2A  2180CE0E           [276] tforloop   0       314  ; to [278] if exit
1B2E  1AC00880           [277] jmp        36           ; to [314]
1B32  DD470000           [278] getglobal  31  1        ; 1074689893
1B36  1208000F           [279] move       32  30     
1B3A  E2870001           [280] call       31  2   2  
1B3E  D8470000           [281] test       31      1    ; to [283] if false
1B42  1A400080           [282] jmp        2            ; to [285]
fail op	35
1B46  2340450F           [283] close      0  
1B4A  1A000780           [284] jmp        29           ; to [314]
1B4E  CEC7CE0C           [285] gettable   31  25  315  ; "forceAllyFaction"
1B52  D8470000           [286] test       31      1    ; to [288] if false
1B56  1A400680           [287] jmp        26           ; to [314]
1B5A  DD070E00           [288] getglobal  31  56       ; math
1B5E  CE07CF0F           [289] gettable   31  31  316  ; -150971781
1B62  1C48CF0D           [290] div        32  27  317  ; 0
1B66  E2870001           [291] call       31  2   2  
1B6A  D200800F           [292] move       3   31     
1B6E  DD870100           [293] getglobal  31  6        ; _T
1B72  0DC8C201           [294] sub        32  3   267  ; 0
1B76  CC07888D           [295] settable   31  283 32   ; "FactionSwapTriggerZone"
1B7A  DD070800           [296] getglobal  31  32       ; gRegion
1B7E  E407CB0F           [297] self       31  31  300  ; -1485896174
1B82  5D480400           [298] getglobal  33  17       ; -332969190
1B86  99880F00           [299] loadk      34  62       ; "FactionSwap"
1B8A  62080001           [300] call       33  2   0  
1B8E  E2870000           [301] call       31  0   2  
1B92  1D480000           [302] getglobal  32  1        ; 1074689893
1B96  5208800F           [303] move       33  31     
1B9A  22880001           [304] call       32  2   2  
1B9E  18480000           [305] test       32      1    ; to [307] if false
1BA2  1A800180           [306] jmp        7            ; to [314]
1BA6  0A08800F           [307] len        32  31     
fail op	21
1BAA  15008881           [308] concat     0   259 32 
1BAE  1AC00080           [309] jmp        4            ; to [314]
1BB2  0EC8C20F           [310] gettable   32  31  267  ; 0
1BB6  24C84F10           [311] self       32  32  319  ; -1923578185
1BBA  99081000           [312] loadk      34  64       ; "Execute"
1BBE  22488001           [313] call       32  3   1  
1BC2  1D481000           [314] getglobal  32  65       ; 738251817
1BC6  59881000           [315] loadk      33  66       ; "/Lotus/Fx/Env/Ice/IceGenericDeco"
1BCA  22880001           [316] call       32  2   2  
1BCE  5D481000           [317] getglobal  33  65       ; 738251817
1BD2  99C81000           [318] loadk      34  67       ; "/EE/Types/Alias/Decoration"
1BD6  62880001           [319] call       33  2   2  
1BDA  9D080800           [320] getglobal  34  32       ; gRegion
1BDE  A4084B11           [321] self       34  34  300  ; -1485896174
1BE2  1D490400           [322] getglobal  36  17       ; -332969190
1BE6  59091100           [323] loadk      37  68       ; "Ice"
1BEA  22090001           [324] call       36  2   0  
1BEE  A2880000           [325] call       34  0   2  
1BF2  DD480000           [326] getglobal  35  1        ; 1074689893
1BF6  12090011           [327] move       36  34     
1BFA  E2880001           [328] call       35  2   2  
1BFE  D8480000           [329] test       35      1    ; to [331] if false
1C02  1A800A80           [330] jmp        43           ; to [374]
1C06  CA080011           [331] len        35  34     
fail op	21
1C0A  15C08881           [332] concat     0   259 35 
1C0E  1AC00980           [333] jmp        40           ; to [374]
1C12  CA080011           [334] len        35  34     
1C16  0A090011           [335] len        36  34     
1C1A  59C90200           [336] loadk      37  11       ; 0
1C1E  99890600           [337] loadk      38  26       ; 0
1C22  10890680           [338] forprep    36  27       ; to [366]
1C26  0ECA0911           [339] gettable   40  34  39 
1C2A  244A4714           [340] self       40  40  285  ; -1957065004
1C2E  920A0010           [341] move       42  32     
1C32  228A8001           [342] call       40  3   2  
1C36  4ECA0911           [343] gettable   41  34  39 
1C3A  644AC714           [344] self       41  41  285  ; -1957065004
1C3E  D20A8010           [345] move       43  33     
1C42  628A8001           [346] call       41  3   2  
1C46  584A0000           [347] test       41      1    ; to [349] if false
1C4A  1AC00080           [348] jmp        4            ; to [353]
1C4E  4ECA0911           [349] gettable   41  34  39 
1C52  644AC714           [350] self       41  41  285  ; -1957065004
1C56  DD4A1100           [351] getglobal  43  69       ; gDecorationType
1C5A  628A8001           [352] call       41  3   2  
1C5E  580A0000           [353] test       41      0    ; to [355] if true
1C62  1A800280           [354] jmp        11           ; to [366]
1C66  184A0000           [355] test       40      1    ; to [357] if false
1C6A  1A000280           [356] jmp        9            ; to [366]
1C6E  9D0A0800           [357] getglobal  42  32       ; gRegion
1C72  A48A4B15           [358] self       42  42  302  ; -1693828985
1C76  0ECB0911           [359] gettable   44  34  39 
1C7A  A24A8001           [360] call       42  3   1  
1C7E  9D8A1100           [361] getglobal  42  70       ; table
1C82  8ECA5115           [362] gettable   42  42  327  ; -843973282
1C86  D20A0011           [363] move       43  34     
1C8A  120B8013           [364] move       44  39     
1C8E  A24A8001           [365] call       42  3   1  
1C92  14C9F87F           [366] forloop    36  -28      ; to [339] if loop
1C96  9D0A1200           [367] getglobal  42  72       ; -1817107093
1C9A  D94A1200           [368] loadk      43  73       ; "EnvSetup: "
1C9E  0A0B0011           [369] len        44  34     
1CA2  0D0B8B11           [370] sub        44  35  44 
1CA6  598B1200           [371] loadk      45  74       ; " objects removed."
1CAA  C24A8B15           [372] concat     43  43  45 
1CAE  A24A0001           [373] call       42  2   1  
1CB2  9D0A0800           [374] getglobal  42  32       ; gRegion
1CB6  A4CA4C15           [375] self       42  42  307  ; -1875307917
1CBA  1D4B0400           [376] getglobal  44  17       ; -332969190
1CBE  59CB1200           [377] loadk      45  75       ; "ElementalLayerSetup"
1CC2  220B0001           [378] call       44  2   0  
1CC6  A28A0000           [379] call       42  0   2  
1CCA  DD4A0000           [380] getglobal  43  1        ; 1074689893
1CCE  120B0015           [381] move       44  42     
1CD2  E28A0001           [382] call       43  2   2  
1CD6  D84A0000           [383] test       43      1    ; to [385] if false
1CDA  1A800080           [384] jmp        3            ; to [388]
1CDE  E4CA4F15           [385] self       43  42  319  ; -1923578185
1CE2  590B1000           [386] loadk      45  64       ; "Execute"
1CE6  E24A8001           [387] call       43  3   1  
1CEA  1E008000           [388] return     0   1      
                         * constants:
1CEE  4C                 sizek (76)
1CEF  04                 const type 4
1CF0  0B                 string size (11)
1CF1  6747616D6552756C+  "gGameRul"
1CF9  657300             "es\0"
                         const [0]: "gGameRules"
1CFC  01                 const type 3
1CFD  65770E40           const [1]: (1074689893)
1D01  01                 const type 3
1D02  EA911120           const [2]: (538022378)
1D06  03                 const type 3
1D07  00000000           const [3]: (0)
1D0B  01                 const type 3
1D0C  497363B8           const [4]: (-1201441975)
1D10  01                 const type 3
1D11  8EBC75A9           const [5]: (-1451901810)
1D15  04                 const type 4
1D16  03                 string size (3)
1D17  5F5400             "_T\0"
                         const [6]: "_T"
1D1A  04                 const type 4
1D1B  08                 string size (8)
1D1C  66616374696F6E00   "faction\0"
                         const [7]: "faction"
1D24  01                 const type 3
1D25  EC48C4EF           const [8]: (-272348948)
1D29  01                 const type 3
1D2A  9C73219B           const [9]: (-1692306532)
1D2E  01                 const type 3
1D2F  52A9BB39           const [10]: (968599890)
1D33  03                 const type 3
1D34  0000803F           const [11]: (0)
1D38  03                 const type 3
1D39  CDCC4C3E           const [12]: (-51)
1D3D  04                 const type 4
1D3E  0D                 string size (13)
1D3F  6757656174686572+  "gWeather"
1D47  5261696E00         "Rain\0"
                         const [13]: "gWeatherRain"
1D4C  01                 const type 3
1D4D  01000000           const [14]: (1)
1D51  01                 const type 3
1D52  58F559A5           const [15]: (-1520831144)
1D56  01                 const type 3
1D57  DCCB15D0           const [16]: (-803877924)
1D5B  01                 const type 3
1D5C  1A4B27EC           const [17]: (-332969190)
1D60  04                 const type 4
1D61  0C                 string size (12)
1D62  5765617468657252+  "WeatherR"
1D6A  61696E00           "ain\0"
                         const [18]: "WeatherRain"
1D6E  01                 const type 3
1D6F  00000000           const [19]: (0)
1D73  04                 const type 4
1D74  09                 string size (9)
1D75  736F727469654964+  "sortieId"
1D7D  00                 "\0"
                         const [20]: "sortieId"
1D7E  04                 const type 4
1D7F  01                 string size (0)
                         const [21]: ""
1D81  04                 const type 4
1D82  08                 string size (8)
1D83  676F616C54616700   "goalTag\0"
                         const [22]: "goalTag"
1D8B  04                 const type 4
1D8C  0D                 string size (13)
1D8D  454D5054595F5359+  "EMPTY_SY"
1D95  4D424F4C00         "MBOL\0"
                         const [23]: "EMPTY_SYMBOL"
1D9A  04                 const type 4
1D9B  0D                 string size (13)
1D9C  6B6579436861696E+  "keyChain"
1DA4  4E616D6500         "Name\0"
                         const [24]: "keyChainName"
1DA9  04                 const type 4
1DAA  10                 string size (16)
1DAB  674E6F52616E646F+  "gNoRando"
1DB3  6D4C617965727300   "mLayers\0"
                         const [25]: "gNoRandomLayers"
1DBB  03                 const type 3
1DBC  000080BF           const [26]: (0)
1DC0  04                 const type 4
1DC1  17                 string size (23)
1DC2  46616374696F6E53+  "FactionS"
1DCA  7761705472696767+  "wapTrigg"
1DD2  65725A6F6E6500     "erZone\0"
                         const [27]: "FactionSwapTriggerZone"
1DD9  01                 const type 3
1DDA  73092D23           const [28]: (590154099)
1DDE  01                 const type 3
1DDF  D48E598B           const [29]: (-1957065004)
1DE3  04                 const type 4
1DE4  17                 string size (23)
1DE5  674C6F7475734875+  "gLotusHu"
1DED  6247616D6552756C+  "bGameRul"
1DF5  65735479706500     "esType\0"
                         const [30]: "gLotusHubGameRulesType"
1DFC  01                 const type 3
1DFD  4924ECD6           const [31]: (-689167287)
1E01  04                 const type 4
1E02  08                 string size (8)
1E03  67526567696F6E00   "gRegion\0"
                         const [32]: "gRegion"
1E0B  04                 const type 4
1E0C  0E                 string size (14)
1E0D  416C6C6F77577269+  "AllowWri"
1E15  6E6B6C657300       "nkles\0"
                         const [33]: "AllowWrinkles"
1E1B  01                 const type 3
1E1C  19C50DE2           const [34]: (-502414055)
1E20  04                 const type 4
1E21  0B                 string size (11)
1E22  4C6F7475735F4761+  "Lotus_Ga"
1E2A  6D6500             "me\0"
                         const [35]: "Lotus_Game"
1E2D  04                 const type 4
1E2E  0B                 string size (11)
1E2F  4D545F444546454E+  "MT_DEFEN"
1E37  534500             "SE\0"
                         const [36]: "MT_DEFENSE"
1E3A  04                 const type 4
1E3B  0B                 string size (11)
1E3C  696E766173696F6E+  "invasion"
1E44  496400             "Id\0"
                         const [37]: "invasionId"
1E47  04                 const type 4
1E48  0C                 string size (12)
1E49  496E666573746174+  "Infestat"
1E51  696F6E00           "ion\0"
                         const [38]: "Infestation"
1E55  04                 const type 4
1E56  12                 string size (18)
1E57  696E666573746564+  "infested"
1E5F  4C69676874734F75+  "LightsOu"
1E67  7400               "t\0"
                         const [39]: "infestedLightsOut"
1E69  04                 const type 4
1E6A  0F                 string size (15)
1E6B  67466F7263654461+  "gForceDa"
1E73  794E6967687400     "yNight\0"
                         const [40]: "gForceDayNight"
1E7A  04                 const type 4
1E7B  06                 string size (6)
1E7C  4E6967687400       "Night\0"
                         const [41]: "Night"
1E82  04                 const type 4
1E83  08                 string size (8)
1E84  66784C6179657200   "fxLayer\0"
                         const [42]: "fxLayer"
1E8C  04                 const type 4
1E8D  08                 string size (8)
1E8E  4461726B466F6700   "DarkFog\0"
                         const [43]: "DarkFog"
1E96  01                 const type 3
1E97  12066FA7           const [44]: (-1485896174)
1E9B  04                 const type 4
1E9C  11                 string size (17)
1E9D  437270416E6E6F75+  "CrpAnnou"
1EA5  6E6365724D61696E+  "ncerMain"
1EAD  00                 "\0"
                         const [45]: "CrpAnnouncerMain"
1EAE  01                 const type 3
1EAF  87380A9B           const [46]: (-1693828985)
1EB3  04                 const type 4
1EB4  09                 string size (9)
1EB5  496E666573746564+  "Infested"
1EBD  00                 "\0"
                         const [47]: "Infested"
1EBE  04                 const type 4
1EBF  11                 string size (17)
1EC0  6172636877696E67+  "archwing"
1EC8  5265717569726564+  "Required"
1ED0  00                 "\0"
                         const [48]: "archwingRequired"
1ED1  04                 const type 4
1ED2  0A                 string size (10)
1ED3  4C69676874734F75+  "LightsOu"
1EDB  7400               "t\0"
                         const [49]: "LightsOut"
1EDD  04                 const type 4
1EDE  1F                 string size (31)
1EDF  6D697373696F6E43+  "missionC"
1EE7  6F6C6F72436F7272+  "olorCorr"
1EEF  656374696F6E4F76+  "ectionOv"
1EF7  65727269646500     "erride\0"
                         const [50]: "missionColorCorrectionOverride"
1EFE  01                 const type 3
1EFF  73123990           const [51]: (-1875307917)
1F03  04                 const type 4
1F04  05                 string size (5)
1F05  4578697400         "Exit\0"
                         const [52]: "Exit"
1F0A  03                 const type 3
1F0B  00002041           const [53]: (0)
1F0F  01                 const type 3
1F10  62DBE572           const [54]: (1927666530)
1F14  01                 const type 3
1F15  DE058F82           const [55]: (-2104556066)
1F19  04                 const type 4
1F1A  05                 string size (5)
1F1B  6D61746800         "math\0"
                         const [56]: "math"
1F20  01                 const type 3
1F21  F7615986           const [57]: (-2040962569)
1F25  03                 const type 3
1F26  9A99993E           const [58]: (-102)
1F2A  04                 const type 4
1F2B  11                 string size (17)
1F2C  666F726365416C6C+  "forceAll"
1F34  7946616374696F6E+  "yFaction"
1F3C  00                 "\0"
                         const [59]: "forceAllyFaction"
1F3D  01                 const type 3
1F3E  7B5A00F7           const [60]: (-150971781)
1F42  03                 const type 3
1F43  00000040           const [61]: (0)
1F47  04                 const type 4
1F48  0C                 string size (12)
1F49  46616374696F6E53+  "FactionS"
1F51  77617000           "wap\0"
                         const [62]: "FactionSwap"
1F55  01                 const type 3
1F56  B786588D           const [63]: (-1923578185)
1F5A  04                 const type 4
1F5B  08                 string size (8)
1F5C  4578656375746500   "Execute\0"
                         const [64]: "Execute"
1F64  01                 const type 3
1F65  29D4002C           const [65]: (738251817)
1F69  04                 const type 4
1F6A  21                 string size (33)
1F6B  2F4C6F7475732F46+  "/Lotus/F"
1F73  782F456E762F4963+  "x/Env/Ic"
1F7B  652F49636547656E+  "e/IceGen"
1F83  657269634465636F+  "ericDeco"
1F8B  00                 "\0"
                         const [66]: "/Lotus/Fx/Env/Ice/IceGenericDeco"
1F8C  04                 const type 4
1F8D  1B                 string size (27)
1F8E  2F45452F54797065+  "/EE/Type"
1F96  732F416C6961732F+  "s/Alias/"
1F9E  4465636F72617469+  "Decorati"
1FA6  6F6E00             "on\0"
                         const [67]: "/EE/Types/Alias/Decoration"
1FA9  04                 const type 4
1FAA  04                 string size (4)
1FAB  49636500           "Ice\0"
                         const [68]: "Ice"
1FAF  04                 const type 4
1FB0  10                 string size (16)
1FB1  674465636F726174+  "gDecorat"
1FB9  696F6E5479706500   "ionType\0"
                         const [69]: "gDecorationType"
1FC1  04                 const type 4
1FC2  06                 string size (6)
1FC3  7461626C6500       "table\0"
                         const [70]: "table"
1FC9  01                 const type 3
1FCA  5EFDB1CD           const [71]: (-843973282)
1FCE  01                 const type 3
1FCF  6B25B193           const [72]: (-1817107093)
1FD3  04                 const type 4
1FD4  0B                 string size (11)
1FD5  456E765365747570+  "EnvSetup"
1FDD  3A2000             ": \0"
                         const [73]: "EnvSetup: "
1FE0  04                 const type 4
1FE1  12                 string size (18)
1FE2  206F626A65637473+  " objects"
1FEA  2072656D6F766564+  " removed"
1FF2  2E00               ".\0"
                         const [74]: " objects removed."
1FF4  04                 const type 4
1FF5  14                 string size (20)
1FF6  456C656D656E7461+  "Elementa"
1FFE  6C4C617965725365+  "lLayerSe"
2006  74757000           "tup\0"
                         const [75]: "ElementalLayerSetup"
                         * functions:
200A  00                 sizep (0)
                         * lines:
200C  03                 sizelineinfo (388)
                         [pc] (line)
200D  F8                 [001] (-8)
200E  00                 [002] (-6)
200F  00                 [003] (-6)
2010  00                 [004] (-6)
2011  FA                 [005] (-6)
2012  00                 [006] (-6)
2013  00                 [007] (-4)
2014  00                 [008] (-4)
2015  FA                 [009] (-4)
2016  00                 [010] (-3)
2017  00                 [011] (-3)
2018  00                 [012] (0)
2019  FA                 [013] (0)
201A  00                 [014] (1)
201B  00                 [015] (1)
201C  00                 [016] (2)
201D  FA                 [017] (2)
201E  00                 [018] (2)
201F  00                 [019] (2)
2020  00                 [020] (2)
2021  FA                 [021] (4)
2022  00                 [022] (4)
2023  00                 [023] (4)
2024  00                 [024] (4)
2025  FC                 [025] (4)
2026  00                 [026] (4)
2027  00                 [027] (5)
2028  00                 [028] (5)
2029  FC                 [029] (5)
202A  00                 [030] (5)
202B  00                 [031] (9)
202C  00                 [032] (9)
202D  FC                 [033] (9)
202E  00                 [034] (12)
202F  00                 [035] (12)
2030  00                 [036] (12)
2031  FD                 [037] (12)
2032  00                 [038] (12)
2033  00                 [039] (12)
2034  00                 [040] (13)
2035  FD                 [041] (13)
2036  00                 [042] (14)
2037  00                 [043] (14)
2038  00                 [044] (14)
2039  00                 [045] (14)
203A  01                 [046] (15)
203B  00                 [047] (15)
203C  00                 [048] (15)
203D  00                 [049] (15)
203E  01                 [050] (15)
203F  00                 [051] (15)
2040  00                 [052] (16)
2041  01                 [053] (18)
2042  01                 [054] (18)
2043  00                 [055] (19)
2044  00                 [056] (19)
2045  01                 [057] (19)
2046  01                 [058] (19)
2047  00                 [059] (20)
2048  00                 [060] (20)
2049  02                 [061] (20)
204A  01                 [062] (20)
204B  00                 [063] (20)
204C  00                 [064] (20)
204D  02                 [065] (24)
204E  01                 [066] (24)
204F  00                 [067] (24)
2050  00                 [068] (24)
2051  02                 [069] (24)
2052  01                 [070] (24)
2053  00                 [071] (24)
2054  00                 [072] (24)
2055  02                 [073] (24)
2056  01                 [074] (24)
2057  00                 [075] (24)
2058  00                 [076] (24)
2059  02                 [077] (26)
205A  01                 [078] (26)
205B  00                 [079] (35)
205C  00                 [080] (36)
205D  04                 [081] (36)
205E  01                 [082] (38)
205F  00                 [083] (39)
2060  00                 [084] (39)
2061  04                 [085] (39)
2062  01                 [086] (39)
2063  00                 [087] (39)
2064  00                 [088] (39)
2065  04                 [089] (39)
2066  01                 [090] (39)
2067  00                 [091] (39)
2068  00                 [092] (40)
2069  04                 [093] (40)
206A  01                 [094] (40)
206B  00                 [095] (43)
206C  00                 [096] (43)
206D  04                 [097] (43)
206E  01                 [098] (43)
206F  00                 [099] (43)
2070  00                 [100] (45)
2071  04                 [101] (45)
2072  01                 [102] (45)
2073  00                 [103] (45)
2074  00                 [104] (45)
2075  05                 [105] (45)
2076  01                 [106] (45)
2077  00                 [107] (45)
2078  00                 [108] (45)
2079  05                 [109] (45)
207A  01                 [110] (45)
207B  00                 [111] (45)
207C  00                 [112] (45)
207D  05                 [113] (45)
207E  01                 [114] (49)
207F  00                 [115] (50)
2080  00                 [116] (50)
2081  05                 [117] (50)
2082  01                 [118] (50)
2083  00                 [119] (50)
2084  00                 [120] (50)
2085  09                 [121] (50)
2086  01                 [122] (50)
2087  00                 [123] (50)
2088  00                 [124] (50)
2089  09                 [125] (51)
208A  01                 [126] (51)
208B  00                 [127] (51)
208C  00                 [128] (51)
208D  09                 [129] (52)
208E  01                 [130] (52)
208F  00                 [131] (52)
2090  00                 [132] (52)
2091  0C                 [133] (52)
2092  01                 [134] (52)
2093  00                 [135] (53)
2094  00                 [136] (51)
2095  0C                 [137] (57)
2096  01                 [138] (57)
2097  00                 [139] (57)
2098  00                 [140] (57)
2099  0C                 [141] (57)
209A  01                 [142] (57)
209B  00                 [143] (57)
209C  00                 [144] (57)
209D  0C                 [145] (57)
209E  01                 [146] (58)
209F  00                 [147] (58)
20A0  00                 [148] (58)
20A1  0C                 [149] (59)
20A2  01                 [150] (59)
20A3  00                 [151] (60)
20A4  00                 [152] (60)
20A5  0C                 [153] (60)
20A6  01                 [154] (60)
20A7  00                 [155] (60)
20A8  00                 [156] (60)
20A9  0D                 [157] (61)
20AA  01                 [158] (61)
20AB  00                 [159] (65)
20AC  00                 [160] (65)
20AD  0D                 [161] (65)
20AE  01                 [162] (65)
20AF  00                 [163] (65)
20B0  00                 [164] (65)
20B1  0E                 [165] (66)
20B2  01                 [166] (66)
20B3  00                 [167] (66)
20B4  00                 [168] (66)
20B5  0E                 [169] (66)
20B6  01                 [170] (67)
20B7  00                 [171] (67)
20B8  00                 [172] (67)
20B9  0E                 [173] (67)
20BA  01                 [174] (68)
20BB  00                 [175] (68)
20BC  00                 [176] (68)
20BD  0E                 [177] (68)
20BE  01                 [178] (67)
20BF  00                 [179] (70)
20C0  00                 [180] (72)
20C1  0F                 [181] (72)
20C2  01                 [182] (72)
20C3  00                 [183] (72)
20C4  00                 [184] (72)
20C5  0F                 [185] (72)
20C6  01                 [186] (73)
20C7  00                 [187] (73)
20C8  00                 [188] (73)
20C9  0F                 [189] (73)
20CA  01                 [190] (74)
20CB  00                 [191] (74)
20CC  00                 [192] (74)
20CD  0F                 [193] (74)
20CE  01                 [194] (73)
20CF  00                 [195] (77)
20D0  00                 [196] (77)
20D1  0F                 [197] (77)
20D2  01                 [198] (77)
20D3  00                 [199] (77)
20D4  00                 [200] (77)
20D5  0F                 [201] (78)
20D6  01                 [202] (78)
20D7  00                 [203] (78)
20D8  00                 [204] (78)
20D9  10                 [205] (78)
20DA  01                 [206] (79)
20DB  00                 [207] (79)
20DC  00                 [208] (79)
20DD  12                 [209] (79)
20DE  01                 [210] (80)
20DF  00                 [211] (80)
20E0  00                 [212] (80)
20E1  12                 [213] (80)
20E2  01                 [214] (80)
20E3  00                 [215] (80)
20E4  00                 [216] (80)
20E5  13                 [217] (80)
20E6  01                 [218] (81)
20E7  00                 [219] (81)
20E8  00                 [220] (81)
20E9  13                 [221] (81)
20EA  01                 [222] (81)
20EB  00                 [223] (82)
20EC  00                 [224] (82)
20ED  13                 [225] (83)
20EE  01                 [226] (83)
20EF  00                 [227] (83)
20F0  00                 [228] (83)
20F1  13                 [229] (79)
20F2  01                 [230] (89)
20F3  00                 [231] (89)
20F4  00                 [232] (89)
20F5  14                 [233] (90)
20F6  01                 [234] (90)
20F7  00                 [235] (90)
20F8  00                 [236] (90)
20F9  14                 [237] (90)
20FA  01                 [238] (90)
20FB  00                 [239] (91)
20FC  00                 [240] (91)
20FD  14                 [241] (94)
20FE  01                 [242] (94)
20FF  00                 [243] (94)
2100  00                 [244] (94)
2101  14                 [245] (95)
2102  01                 [246] (99)
2103  00                 [247] (99)
2104  00                 [248] (99)
2105  14                 [249] (99)
2106  01                 [250] (99)
2107  00                 [251] (99)
2108  00                 [252] (100)
2109  14                 [253] (101)
210A  01                 [254] (101)
210B  00                 [255] (101)
210C  00                 [256] (101)
210D  18                 [257] (101)
210E  01                 [258] (102)
210F  00                 [259] (102)
2110  00                 [260] (103)
2111  18                 [261] (103)
2112  01                 [262] (103)
2113  00                 [263] (103)
2114  00                 [264] (103)
2115  18                 [265] (104)
2116  01                 [266] (104)
2117  00                 [267] (104)
2118  00                 [268] (107)
2119  18                 [269] (107)
211A  01                 [270] (107)
211B  00                 [271] (108)
211C  00                 [272] (109)
211D  18                 [273] (109)
211E  01                 [274] (109)
211F  00                 [275] (109)
2120  00                 [276] (109)
2121  18                 [277] (109)
2122  01                 [278] (109)
2123  00                 [279] (109)
2124  00                 [280] (109)
2125  18                 [281] (109)
2126  01                 [282] (109)
2127  00                 [283] (109)
2128  00                 [284] (109)
2129  18                 [285] (109)
212A  01                 [286] (109)
212B  00                 [287] (109)
212C  00                 [288] (111)
212D  18                 [289] (111)
212E  01                 [290] (111)
212F  00                 [291] (111)
2130  00                 [292] (111)
2131  18                 [293] (112)
2132  01                 [294] (112)
2133  00                 [295] (112)
2134  00                 [296] (114)
2135  18                 [297] (114)
2136  01                 [298] (114)
2137  00                 [299] (114)
2138  00                 [300] (114)
2139  18                 [301] (114)
213A  01                 [302] (115)
213B  00                 [303] (115)
213C  00                 [304] (115)
213D  1A                 [305] (115)
213E  01                 [306] (115)
213F  00                 [307] (115)
2140  00                 [308] (115)
2141  1A                 [309] (115)
2142  01                 [310] (116)
2143  00                 [311] (116)
2144  00                 [312] (116)
2145  23                 [313] (116)
2146  01                 [314] (121)
2147  00                 [315] (121)
2148  00                 [316] (121)
2149  24                 [317] (122)
214A  01                 [318] (122)
214B  00                 [319] (122)
214C  00                 [320] (123)
214D  24                 [321] (123)
214E  01                 [322] (123)
214F  00                 [323] (123)
2150  00                 [324] (123)
2151  26                 [325] (123)
2152  01                 [326] (124)
2153  00                 [327] (124)
2154  00                 [328] (124)
2155  27                 [329] (124)
2156  01                 [330] (124)
2157  00                 [331] (124)
2158  00                 [332] (124)
2159  27                 [333] (124)
215A  01                 [334] (125)
215B  00                 [335] (126)
215C  00                 [336] (126)
215D  27                 [337] (126)
215E  01                 [338] (126)
215F  00                 [339] (127)
2160  00                 [340] (127)
2161  27                 [341] (127)
2162  01                 [342] (127)
2163  00                 [343] (-128)
2164  00                 [344] (-128)
2165  27                 [345] (-128)
2166  01                 [346] (-128)
2167  00                 [347] (-128)
2168  00                 [348] (-128)
2169  27                 [349] (-128)
216A  01                 [350] (-128)
216B  00                 [351] (-128)
216C  00                 [352] (-128)
216D  27                 [353] (-127)
216E  01                 [354] (-127)
216F  00                 [355] (-127)
2170  00                 [356] (-127)
2171  27                 [357] (-126)
2172  01                 [358] (-126)
2173  00                 [359] (-126)
2174  00                 [360] (-126)
2175  27                 [361] (-125)
2176  01                 [362] (-125)
2177  00                 [363] (-125)
2178  00                 [364] (-125)
2179  28                 [365] (-125)
217A  01                 [366] (126)
217B  00                 [367] (-122)
217C  00                 [368] (-122)
217D  28                 [369] (-122)
217E  01                 [370] (-122)
217F  00                 [371] (-122)
2180  00                 [372] (-122)
2181  28                 [373] (-122)
2182  01                 [374] (-118)
2183  00                 [375] (-118)
2184  00                 [376] (-118)
2185  2B                 [377] (-118)
2186  01                 [378] (-118)
2187  00                 [379] (-118)
2188  00                 [380] (-117)
2189  2B                 [381] (-117)
218A  01                 [382] (-117)
218B  00                 [383] (-117)
218C  00                 [384] (-117)
218D  2B                 [385] (-116)
218E  01                 [386] (-116)
218F  00                 [387] (-116)
2190  00                 [388] (-113)
                         * locals:
261D  00                 sizelocvars (0)
                         * upvalues:
261E  00                 sizeupvalues (0)
                         ** end of function **

                         
261F                     ** function [9] definition (level 2)
                         ** start of function **
261F  00                 string size (0)
                         source name: (none)
2621  03                 line defined (401)
2622  B0                 last line defined (432)
2623  03                 nups (0)
2624  00                 numparams (0)
2625  00                 is_vararg (0)
2626  00                 maxstacksize (9)
                         * code:
2628  45                 sizecode (69)
2629  1D000000           [01] getglobal  0   0        ; gRegion
262D  24404000           [02] self       0   0   257  ; -2071158816
2631  22800001           [03] call       0   2   2  
2635  5D800000           [04] getglobal  1   2        ; 1074689893
2639  92000000           [05] move       2   0      
263D  62800001           [06] call       1   2   2  
2641  58000000           [07] test       1       0    ; to [9] if true
2645  1A000080           [08] jmp        1            ; to [10]
2649  1E008000           [09] return     0   1      
264D  4EC04000           [10] gettable   1   0   259  ; 0
2651  9D800000           [11] getglobal  2   2        ; 1074689893
2655  D2008000           [12] move       3   1      
2659  A2800001           [13] call       2   2   2  
265D  98000000           [14] test       2       0    ; to [16] if true
2661  1A000080           [15] jmp        1            ; to [17]
2665  1E008000           [16] return     0   1      
2669  9D000000           [17] getglobal  2   0        ; gRegion
266D  A4004101           [18] self       2   2   260  ; -1456226250
2671  A2800001           [19] call       2   2   2  
2675  8E404101           [20] gettable   2   2   261  ; "postProcess"
2679  DD800100           [21] getglobal  3   6        ; repeats
fail op	21
267D  55C08083           [22] concat     1   263 3  
2681  1A800080           [23] jmp        3            ; to [27]
2685  DD800100           [24] getglobal  3   6        ; repeats
fail op	35
2689  2300C201           [25] close      0  
268D  1A400A80           [26] jmp        42           ; to [69]
2691  DD400200           [27] getglobal  3   9        ; 538022378
2695  1D810200           [28] getglobal  4   10       ; -1941280958
2699  5DC10200           [29] getglobal  5   11       ; mindelay
269D  9D010300           [30] getglobal  6   12       ; maxdelay
26A1  22018001           [31] call       4   3   0  
26A5  E2400000           [32] call       3   0   1  
26A9  DD800000           [33] getglobal  3   2        ; 1074689893
26AD  12018000           [34] move       4   1      
26B1  E2800001           [35] call       3   2   2  
26B5  D8000000           [36] test       3       0    ; to [38] if true
26B9  1A000080           [37] jmp        1            ; to [39]
26BD  1E008000           [38] return     0   1      
26C1  E440C300           [39] self       3   1   269  ; 1839670529
26C5  E2800001           [40] call       3   2   2  
26C9  1D010000           [41] getglobal  4   0        ; gRegion
26CD  24814302           [42] self       4   4   270  ; 630793108
26D1  9DC10300           [43] getglobal  6   15       ; shakeSound
26D5  D2018001           [44] move       7   3      
26D9  17020000           [45] loadbool   8   0   0    ; false
26DD  22818002           [46] call       4   5   2  
26E1  5D810000           [47] getglobal  5   2        ; 1074689893
26E5  92010002           [48] move       6   4      
26E9  62810001           [49] call       5   2   2  
26ED  58410000           [50] test       5       1    ; to [52] if false
26F1  1A400280           [51] jmp        10           ; to [62]
26F5  64014402           [52] self       5   4   272  ; -688523144
26F9  62810001           [53] call       5   2   2  
26FD  8E414401           [54] gettable   6   2   273  ; "viewShake"
2701  DD410400           [55] getglobal  7   17       ; viewShake
2705  C4C18102           [56] mul        7   5   7  
2709  8CC10189           [57] settable   6   274 7    ; "mShakeAmbient"
270D  9D410200           [58] getglobal  6   9        ; 538022378
2711  D9C10100           [59] loadk      7   7        ; 0
2715  A2410001           [60] call       6   2   1  
2719  1A00FC7F           [61] jmp        -15          ; to [47]
271D  9D810100           [62] getglobal  6   6        ; repeats
fail op	21
2721  15808183           [63] concat     0   263 6  
2725  1AC0F47F           [64] jmp        -44          ; to [21]
2729  9D810100           [65] getglobal  6   6        ; repeats
272D  8DC14003           [66] sub        6   6   259  ; 0
2731  A0810100           [67] setglobal  6   6        ; repeats
2735  1AC0F37F           [68] jmp        -48          ; to [21]
2739  1E008000           [69] return     0   1      
                         * constants:
273D  13                 sizek (19)
273E  04                 const type 4
273F  08                 string size (8)
2740  67526567696F6E00   "gRegion\0"
                         const [0]: "gRegion"
2748  01                 const type 3
2749  E09F8C84           const [1]: (-2071158816)
274D  01                 const type 3
274E  65770E40           const [2]: (1074689893)
2752  03                 const type 3
2753  0000803F           const [3]: (0)
2757  01                 const type 3
2758  36C033A9           const [4]: (-1456226250)
275C  04                 const type 4
275D  0C                 string size (12)
275E  706F737450726F63+  "postProc"
2766  65737300           "ess\0"
                         const [5]: "postProcess"
276A  04                 const type 4
276B  08                 string size (8)
276C  7265706561747300   "repeats\0"
                         const [6]: "repeats"
2774  03                 const type 3
2775  00000000           const [7]: (0)
2779  03                 const type 3
277A  000080BF           const [8]: (0)
277E  01                 const type 3
277F  EA911120           const [9]: (538022378)
2783  01                 const type 3
2784  42674A8C           const [10]: (-1941280958)
2788  04                 const type 4
2789  09                 string size (9)
278A  6D696E64656C6179+  "mindelay"
2792  00                 "\0"
                         const [11]: "mindelay"
2793  04                 const type 4
2794  09                 string size (9)
2795  6D617864656C6179+  "maxdelay"
279D  00                 "\0"
                         const [12]: "maxdelay"
279E  01                 const type 3
279F  0125A76D           const [13]: (1839670529)
27A3  01                 const type 3
27A4  94239925           const [14]: (630793108)
27A8  04                 const type 4
27A9  0B                 string size (11)
27AA  7368616B65536F75+  "shakeSou"
27B2  6E6400             "nd\0"
                         const [15]: "shakeSound"
27B5  01                 const type 3
27B6  78F8F5D6           const [16]: (-688523144)
27BA  04                 const type 4
27BB  0A                 string size (10)
27BC  766965775368616B+  "viewShak"
27C4  6500               "e\0"
                         const [17]: "viewShake"
27C6  04                 const type 4
27C7  0E                 string size (14)
27C8  6D5368616B65416D+  "mShakeAm"
27D0  6269656E7400       "bient\0"
                         const [18]: "mShakeAmbient"
                         * functions:
27D6  00                 sizep (0)
                         * lines:
27D7  45                 sizelineinfo (69)
                         [pc] (line)
27D8  92                 [01] (-110)
27D9  01                 [02] (-110)
27DA  00                 [03] (-110)
27DB  00                 [04] (-109)
27DC  92                 [05] (-109)
27DD  01                 [06] (-109)
27DE  00                 [07] (-109)
27DF  00                 [08] (-109)
27E0  92                 [09] (-108)
27E1  01                 [10] (-106)
27E2  00                 [11] (-104)
27E3  00                 [12] (-104)
27E4  93                 [13] (-104)
27E5  01                 [14] (-104)
27E6  00                 [15] (-104)
27E7  00                 [16] (-103)
27E8  93                 [17] (-100)
27E9  01                 [18] (-100)
27EA  00                 [19] (-100)
27EB  00                 [20] (-100)
27EC  93                 [21] (-99)
27ED  01                 [22] (-99)
27EE  00                 [23] (-99)
27EF  00                 [24] (-99)
27F0  93                 [25] (-99)
27F1  01                 [26] (-99)
27F2  00                 [27] (-98)
27F3  00                 [28] (-98)
27F4  93                 [29] (-98)
27F5  01                 [30] (-98)
27F6  00                 [31] (-98)
27F7  00                 [32] (-98)
27F8  94                 [33] (-96)
27F9  01                 [34] (-96)
27FA  00                 [35] (-96)
27FB  00                 [36] (-96)
27FC  96                 [37] (-96)
27FD  01                 [38] (-95)
27FE  00                 [39] (-92)
27FF  00                 [40] (-92)
2800  98                 [41] (-91)
2801  01                 [42] (-91)
2802  00                 [43] (-91)
2803  00                 [44] (-91)
2804  98                 [45] (-91)
2805  01                 [46] (-91)
2806  00                 [47] (-90)
2807  00                 [48] (-90)
2808  98                 [49] (-90)
2809  01                 [50] (-90)
280A  00                 [51] (-90)
280B  00                 [52] (-89)
280C  98                 [53] (-89)
280D  01                 [54] (-88)
280E  00                 [55] (-88)
280F  00                 [56] (-88)
2810  98                 [57] (-88)
2811  01                 [58] (-87)
2812  00                 [59] (-87)
2813  00                 [60] (-87)
2814  99                 [61] (-87)
2815  01                 [62] (-85)
2816  00                 [63] (-85)
2817  00                 [64] (-85)
2818  9C                 [65] (-84)
2819  01                 [66] (-84)
281A  00                 [67] (-84)
281B  00                 [68] (-83)
281C  9C                 [69] (-80)
                         * locals:
28EC  00                 sizelocvars (0)
                         * upvalues:
28ED  00                 sizeupvalues (0)
                         ** end of function **

                         
28EE                     ** function [10] definition (level 2)
                         ** start of function **
28EE  00                 string size (0)
                         source name: (none)
28F0  03                 line defined (434)
28F1  C5                 last line defined (453)
28F2  03                 nups (1)
28F3  01                 numparams (0)
28F4  00                 is_vararg (0)
28F5  00                 maxstacksize (13)
                         * code:
28F7  2E                 sizecode (46)
28F8  8B000000           [01] newtable   2   0   0    ; array=0, hash=0
28FC  D3000000           [02] getupval   3   0      
2900  E2C08000           [03] call       3   1   3  
2904  52000002           [04] move       1   4      
2908  12008001           [05] move       0   3      
290C  DD000000           [06] getglobal  3   0        ; gRegion
2910  E440C001           [07] self       3   3   257  ; 252987801
2914  5D810000           [08] getglobal  5   2        ; -332969190
2918  99C10000           [09] loadk      6   3        ; "FireExplosion"
291C  62810001           [10] call       5   2   2  
2920  92010000           [11] move       6   0      
2924  D9010100           [12] loadk      7   4        ; 0
2928  19420100           [13] loadk      8   5        ; 0
292C  E2800003           [14] call       3   6   2  
2930  92008001           [15] move       2   3      
2934  CA000001           [16] len        3   2      
fail op	21
2938  15C00082           [17] concat     0   260 3  
293C  1AC00480           [18] jmp        20           ; to [39]
2940  DD800100           [19] getglobal  3   6        ; 2144646525
2944  19C10100           [20] loadk      4   7        ; 0
2948  4A010001           [21] len        5   2      
294C  E2808001           [22] call       3   3   2  
2950  19C10100           [23] loadk      4   7        ; 0
2954  52018001           [24] move       5   3      
2958  99C10100           [25] loadk      6   7        ; 0
295C  10810280           [26] forprep    4   11       ; to [38]
2960  1D820100           [27] getglobal  8   6        ; 2144646525
2964  59C20100           [28] loadk      9   7        ; 0
2968  8A020001           [29] len        10  2      
296C  22828001           [30] call       8   3   2  
2970  4E020201           [31] gettable   9   2   8  
2974  6402C204           [32] self       9   9   264  ; -1923578185
2978  D9420200           [33] loadk      11  9        ; "Enable"
297C  62428001           [34] call       9   3   1  
2980  5D820200           [35] getglobal  9   10       ; 538022378
2984  99020100           [36] loadk      10  4        ; 0
2988  62420001           [37] call       9   2   1  
298C  14C1FC7F           [38] forloop    4   -12      ; to [27] if loop
2990  5D820200           [39] getglobal  9   10       ; 538022378
2994  9DC20200           [40] getglobal  10  11       ; -1941280958
2998  DD020300           [41] getglobal  11  12       ; mindelay
299C  1D430300           [42] getglobal  12  13       ; maxdelay
29A0  A2028001           [43] call       10  3   0  
29A4  62420000           [44] call       9   0   1  
29A8  1AC0F47F           [45] jmp        -44          ; to [2]
29AC  1E008000           [46] return     0   1      
                         * constants:
29B0  0E                 sizek (14)
29B1  04                 const type 4
29B2  08                 string size (8)
29B3  67526567696F6E00   "gRegion\0"
                         const [0]: "gRegion"
29BB  01                 const type 3
29BC  9949140F           const [1]: (252987801)
29C0  01                 const type 3
29C1  1A4B27EC           const [2]: (-332969190)
29C5  04                 const type 4
29C6  0E                 string size (14)
29C7  466972654578706C+  "FireExpl"
29CF  6F73696F6E00       "osion\0"
                         const [3]: "FireExplosion"
29D5  03                 const type 3
29D6  00000000           const [4]: (0)
29DA  03                 const type 3
29DB  00004842           const [5]: (0)
29DF  01                 const type 3
29E0  7DB5D47F           const [6]: (2144646525)
29E4  03                 const type 3
29E5  0000803F           const [7]: (0)
29E9  01                 const type 3
29EA  B786588D           const [8]: (-1923578185)
29EE  04                 const type 4
29EF  07                 string size (7)
29F0  456E61626C6500     "Enable\0"
                         const [9]: "Enable"
29F7  01                 const type 3
29F8  EA911120           const [10]: (538022378)
29FC  01                 const type 3
29FD  42674A8C           const [11]: (-1941280958)
2A01  04                 const type 4
2A02  09                 string size (9)
2A03  6D696E64656C6179+  "mindelay"
2A0B  00                 "\0"
                         const [12]: "mindelay"
2A0C  04                 const type 4
2A0D  09                 string size (9)
2A0E  6D617864656C6179+  "maxdelay"
2A16  00                 "\0"
                         const [13]: "maxdelay"
                         * functions:
2A17  00                 sizep (0)
                         * lines:
2A18  2E                 sizelineinfo (46)
                         [pc] (line)
2A19  B5                 [01] (-75)
2A1A  01                 [02] (-73)
2A1B  00                 [03] (-73)
2A1C  00                 [04] (-73)
2A1D  B7                 [05] (-73)
2A1E  01                 [06] (-72)
2A1F  00                 [07] (-72)
2A20  00                 [08] (-72)
2A21  B7                 [09] (-72)
2A22  01                 [10] (-72)
2A23  00                 [11] (-72)
2A24  00                 [12] (-72)
2A25  B7                 [13] (-72)
2A26  01                 [14] (-72)
2A27  00                 [15] (-72)
2A28  00                 [16] (-71)
2A29  B7                 [17] (-71)
2A2A  01                 [18] (-71)
2A2B  00                 [19] (-70)
2A2C  00                 [20] (-70)
2A2D  B8                 [21] (-70)
2A2E  01                 [22] (-70)
2A2F  00                 [23] (-68)
2A30  00                 [24] (-68)
2A31  B8                 [25] (-68)
2A32  01                 [26] (-68)
2A33  00                 [27] (-67)
2A34  00                 [28] (-67)
2A35  B8                 [29] (-67)
2A36  01                 [30] (-67)
2A37  00                 [31] (-66)
2A38  00                 [32] (-66)
2A39  B8                 [33] (-66)
2A3A  01                 [34] (-66)
2A3B  00                 [35] (-65)
2A3C  00                 [36] (-65)
2A3D  B8                 [37] (-65)
2A3E  01                 [38] (-68)
2A3F  00                 [39] (-62)
2A40  00                 [40] (-62)
2A41  B8                 [41] (-62)
2A42  01                 [42] (-62)
2A43  00                 [43] (-62)
2A44  00                 [44] (-62)
2A45  B8                 [45] (-62)
2A46  01                 [46] (-59)
                         * locals:
2AD1  00                 sizelocvars (0)
                         * upvalues:
2AD2  00                 sizeupvalues (0)
                         ** end of function **

                         
2AD3                     ** function [11] definition (level 2)
                         ** start of function **
2AD3  00                 string size (0)
                         source name: (none)
2AD5  03                 line defined (455)
2AD6  D4                 last line defined (468)
2AD7  03                 nups (0)
2AD8  00                 numparams (0)
2AD9  00                 is_vararg (0)
2ADA  00                 maxstacksize (12)
                         * code:
2ADC  27                 sizecode (39)
2ADD  1D000000           [01] getglobal  0   0        ; gGameRules
2AE1  24404000           [02] self       0   0   257  ; -502414055
2AE5  22800001           [03] call       0   2   2  
2AE9  5D800000           [04] getglobal  1   2        ; Lotus_Game
2AED  4EC0C000           [05] gettable   1   1   259  ; "MT_SURVIVAL"
fail op	35
2AF1  23400000           [06] close      0  
2AF5  1A800780           [07] jmp        31           ; to [39]
2AF9  59000100           [08] loadk      1   4        ; 0
2AFD  9D400100           [09] getglobal  2   5        ; showDecorations
2B01  8A000001           [10] len        2   2      
2B05  D9000100           [11] loadk      3   4        ; 0
2B09  50000180           [12] forprep    1   5        ; to [18]
2B0D  5D410100           [13] getglobal  5   5        ; showDecorations
2B11  4E018102           [14] gettable   5   5   4  
2B15  6481C102           [15] self       5   5   262  ; -1923578185
2B19  D9C10100           [16] loadk      7   7        ; "Show"
2B1D  62418001           [17] call       5   3   1  
2B21  5440FE7F           [18] forloop    1   -6       ; to [13] if loop
2B25  59010100           [19] loadk      5   4        ; 0
2B29  9D010200           [20] getglobal  6   8        ; destroyDecorations
2B2D  8A010003           [21] len        6   6      
2B31  D9010100           [22] loadk      7   4        ; 0
2B35  50010180           [23] forprep    5   5        ; to [29]
2B39  5D020200           [24] getglobal  9   8        ; destroyDecorations
2B3D  4E028204           [25] gettable   9   9   8  
2B41  6482C104           [26] self       9   9   262  ; -1923578185
2B45  D9420200           [27] loadk      11  9        ; "Destroy"
2B49  62428001           [28] call       9   3   1  
2B4D  5441FE7F           [29] forloop    5   -6       ; to [24] if loop
2B51  5D820200           [30] getglobal  9   10       ; 1074689893
2B55  9DC20200           [31] getglobal  10  11       ; portForwarder
2B59  62820001           [32] call       9   2   2  
2B5D  58420000           [33] test       9       1    ; to [35] if false
2B61  1AC00080           [34] jmp        4            ; to [39]
2B65  5DC20200           [35] getglobal  9   11       ; portForwarder
2B69  6482C104           [36] self       9   9   262  ; -1923578185
2B6D  D9020300           [37] loadk      11  12       ; "TriggerPort"
2B71  62428001           [38] call       9   3   1  
2B75  1E008000           [39] return     0   1      
                         * constants:
2B79  0D                 sizek (13)
2B7A  04                 const type 4
2B7B  0B                 string size (11)
2B7C  6747616D6552756C+  "gGameRul"
2B84  657300             "es\0"
                         const [0]: "gGameRules"
2B87  01                 const type 3
2B88  19C50DE2           const [1]: (-502414055)
2B8C  04                 const type 4
2B8D  0B                 string size (11)
2B8E  4C6F7475735F4761+  "Lotus_Ga"
2B96  6D6500             "me\0"
                         const [2]: "Lotus_Game"
2B99  04                 const type 4
2B9A  0C                 string size (12)
2B9B  4D545F5355525649+  "MT_SURVI"
2BA3  56414C00           "VAL\0"
                         const [3]: "MT_SURVIVAL"
2BA7  03                 const type 3
2BA8  0000803F           const [4]: (0)
2BAC  04                 const type 4
2BAD  10                 string size (16)
2BAE  73686F774465636F+  "showDeco"
2BB6  726174696F6E7300   "rations\0"
                         const [5]: "showDecorations"
2BBE  01                 const type 3
2BBF  B786588D           const [6]: (-1923578185)
2BC3  04                 const type 4
2BC4  05                 string size (5)
2BC5  53686F7700         "Show\0"
                         const [7]: "Show"
2BCA  04                 const type 4
2BCB  13                 string size (19)
2BCC  64657374726F7944+  "destroyD"
2BD4  65636F726174696F+  "ecoratio"
2BDC  6E7300             "ns\0"
                         const [8]: "destroyDecorations"
2BDF  04                 const type 4
2BE0  08                 string size (8)
2BE1  44657374726F7900   "Destroy\0"
                         const [9]: "Destroy"
2BE9  01                 const type 3
2BEA  65770E40           const [10]: (1074689893)
2BEE  04                 const type 4
2BEF  0E                 string size (14)
2BF0  706F7274466F7277+  "portForw"
2BF8  617264657200       "arder\0"
                         const [11]: "portForwarder"
2BFE  04                 const type 4
2BFF  0C                 string size (12)
2C00  5472696767657250+  "TriggerP"
2C08  6F727400           "ort\0"
                         const [12]: "TriggerPort"
                         * functions:
2C0C  00                 sizep (0)
                         * lines:
2C0D  27                 sizelineinfo (39)
                         [pc] (line)
2C0E  C8                 [01] (-56)
2C0F  01                 [02] (-56)
2C10  00                 [03] (-56)
2C11  00                 [04] (-55)
2C12  C8                 [05] (-55)
2C13  01                 [06] (-55)
2C14  00                 [07] (-55)
2C15  00                 [08] (-54)
2C16  C8                 [09] (-54)
2C17  01                 [10] (-54)
2C18  00                 [11] (-54)
2C19  00                 [12] (-54)
2C1A  C9                 [13] (-53)
2C1B  01                 [14] (-53)
2C1C  00                 [15] (-53)
2C1D  00                 [16] (-53)
2C1E  C9                 [17] (-53)
2C1F  01                 [18] (-54)
2C20  00                 [19] (-51)
2C21  00                 [20] (-51)
2C22  C9                 [21] (-51)
2C23  01                 [22] (-51)
2C24  00                 [23] (-51)
2C25  00                 [24] (-50)
2C26  C9                 [25] (-50)
2C27  01                 [26] (-50)
2C28  00                 [27] (-50)
2C29  00                 [28] (-50)
2C2A  CA                 [29] (-51)
2C2B  01                 [30] (-48)
2C2C  00                 [31] (-48)
2C2D  00                 [32] (-48)
2C2E  CA                 [33] (-48)
2C2F  01                 [34] (-48)
2C30  00                 [35] (-47)
2C31  00                 [36] (-47)
2C32  CA                 [37] (-47)
2C33  01                 [38] (-47)
2C34  00                 [39] (-44)
                         * locals:
2CAA  00                 sizelocvars (0)
                         * upvalues:
2CAB  00                 sizeupvalues (0)
                         ** end of function **

                         
2CAC                     ** function [12] definition (level 2)
                         ** start of function **
2CAC  00                 string size (0)
                         source name: (none)
2CAE  03                 line defined (470)
2CAF  FB                 last line defined (507)
2CB0  03                 nups (0)
2CB1  00                 numparams (0)
2CB2  00                 is_vararg (0)
2CB3  00                 maxstacksize (18)
                         * code:
2CB5  73                 sizecode (115)
2CB6  1D000000           [001] getglobal  0   0        ; gGameRules
2CBA  24404000           [002] self       0   0   257  ; -1201441975
2CBE  22800001           [003] call       0   2   2  
2CC2  5D800000           [004] getglobal  1   2        ; _T
2CC6  4EC0C000           [005] gettable   1   1   259  ; "MissionBuddiesSpawned"
2CCA  58400000           [006] test       1       1    ; to [8] if false
2CCE  1A000280           [007] jmp        9            ; to [17]
2CD2  5D000100           [008] getglobal  1   4        ; 1074689893
2CD6  8E404100           [009] gettable   2   0   261  ; "buddyAgents"
2CDA  62800001           [010] call       1   2   2  
2CDE  58400000           [011] test       1       1    ; to [13] if false
2CE2  1AC00080           [012] jmp        4            ; to [17]
2CE6  4E404100           [013] gettable   1   0   261  ; "buddyAgents"
2CEA  4A008000           [014] len        1   1      
fail op	35
2CEE  2380C100           [015] close      0  
2CF2  1A000080           [016] jmp        1            ; to [18]
2CF6  1E008000           [017] return     0   1      
2CFA  5DC00100           [018] getglobal  1   7        ; -1817107093
2CFE  99000200           [019] loadk      2   8        ; "Spawning buddy agents"
2D02  62400001           [020] call       1   2   1  
2D06  5D800000           [021] getglobal  1   2        ; _T
2D0A  4C40C281           [022] settable   1   259 265  ; "MissionBuddiesSpawned" 1
2D0E  5D800200           [023] getglobal  1   10       ; gRegion
2D12  64C0C200           [024] self       1   1   267  ; -774964848
2D16  62800001           [025] call       1   2   2  
2D1A  A400C300           [026] self       2   1   268  ; 537471347
2D1E  A2800001           [027] call       2   2   2  
2D22  DD400300           [028] getglobal  3   13       ; -332969190
2D26  19810300           [029] loadk      4   14       ; "TENNO"
2D2A  E2800001           [030] call       3   2   2  
2D2E  06010002           [031] loadnil    4   4      
2D32  5D010100           [032] getglobal  5   4        ; 1074689893
2D36  9D810200           [033] getglobal  6   10       ; gRegion
2D3A  A4C14303           [034] self       6   6   271  ; -1280573509
2D3E  A2010001           [035] call       6   2   0  
2D42  62810000           [036] call       5   0   2  
2D46  58410000           [037] test       5       1    ; to [39] if false
2D4A  1A400280           [038] jmp        10           ; to [49]
2D4E  5D810200           [039] getglobal  5   10       ; gRegion
2D52  64C1C302           [040] self       5   5   271  ; -1280573509
2D56  62810001           [041] call       5   2   2  
2D5A  4A018002           [042] len        5   5      
fail op	21
2D5E  15400183           [043] concat     0   262 5  
2D62  1AC00080           [044] jmp        4            ; to [49]
2D66  5D810200           [045] getglobal  5   10       ; gRegion
2D6A  64C1C302           [046] self       5   5   271  ; -1280573509
2D6E  62810001           [047] call       5   2   2  
2D72  0E01C402           [048] gettable   4   5   272  ; 0
2D76  5D410400           [049] getglobal  5   17       ; 248503575
2D7A  8E414100           [050] gettable   6   0   261  ; "buddyAgents"
2D7E  62010101           [051] call       5   2   4  
2D82  1AC00E80           [052] jmp        60           ; to [113]
2D86  9D820400           [053] getglobal  10  18       ; 1668611480
2D8A  CEC24400           [054] gettable   11  0   275  ; "minEnemyLevel"
2D8E  1D030500           [055] getglobal  12  20       ; 2144646525
2D92  59430500           [056] loadk      13  21       ; 0
2D96  99830500           [057] loadk      14  22       ; 0
2D9A  22838001           [058] call       12  3   2  
2D9E  C3028305           [059] add        11  11  12 
2DA2  19030400           [060] loadk      12  16       ; 0
2DA6  4EC34500           [061] gettable   13  0   279  ; "maxEnemyLevel"
2DAA  A2820002           [062] call       10  4   2  
2DAE  E4024601           [063] self       11  2   280  ; -2120903900
2DB2  5D430600           [064] getglobal  13  25       ; -895206725
2DB6  92038004           [065] move       14  9      
2DBA  62830001           [066] call       13  2   2  
2DBE  9D830600           [067] getglobal  14  26       ; syndicateBuddySpawnPoint
2DC2  D9C30600           [068] loadk      15  27       ; 0
2DC6  1D440300           [069] getglobal  16  13       ; -332969190
2DCA  22848000           [070] call       16  1   2  
2DCE  52040005           [071] move       17  10     
2DD2  E2828003           [072] call       11  7   2  
2DD6  1D030100           [073] getglobal  12  4        ; 1074689893
2DDA  52038005           [074] move       13  11     
2DDE  22830001           [075] call       12  2   2  
2DE2  18430000           [076] test       12      1    ; to [78] if false
2DE6  1A800880           [077] jmp        35           ; to [113]
2DEA  2403C705           [078] self       12  11  284  ; -2135866365
2DEE  22830001           [079] call       12  2   2  
2DF2  64434706           [080] self       13  12  285  ; -1338608417
2DF6  D2038001           [081] move       15  3      
2DFA  62438001           [082] call       13  3   1  
2DFE  64834706           [083] self       13  12  286  ; 1009327987
2E02  62430001           [084] call       13  2   1  
2E06  64C34706           [085] self       13  12  287  ; 155743781
2E0A  D9030800           [086] loadk      15  32       ; 0
2E0E  62438001           [087] call       13  3   1  
2E12  5D030100           [088] getglobal  13  4        ; 1074689893
2E16  92030002           [089] move       14  4      
2E1A  62830001           [090] call       13  2   2  
2E1E  58430000           [091] test       13      1    ; to [93] if false
2E22  1AC00480           [092] jmp        20           ; to [113]
2E26  5D030100           [093] getglobal  13  4        ; 1074689893
2E2A  9D430800           [094] getglobal  14  33       ; standDownActionType
2E2E  62830001           [095] call       13  2   2  
2E32  58430000           [096] test       13      1    ; to [98] if false
2E36  1A800380           [097] jmp        15           ; to [113]
2E3A  64834806           [098] self       13  12  290  ; 366271214
2E3E  DD430800           [099] getglobal  15  33       ; standDownActionType
2E42  62838001           [100] call       13  3   2  
2E46  9D030100           [101] getglobal  14  4        ; 1074689893
2E4A  D2038006           [102] move       15  13     
2E4E  A2830001           [103] call       14  2   2  
2E52  98430000           [104] test       14      1    ; to [106] if false
2E56  1A800180           [105] jmp        7            ; to [113]
2E5A  8A038006           [106] len        14  13     
fail op	21
2E5E  15800383           [107] concat     0   262 14 
2E62  1AC00080           [108] jmp        4            ; to [113]
2E66  8E03C406           [109] gettable   14  13  272  ; 0
2E6A  A4C34807           [110] self       14  14  291  ; -439244292
2E6E  12040002           [111] move       16  4      
2E72  A2438001           [112] call       14  3   1  
2E76  56810000           [113] tforloop   5       2    ; to [115] if exit
2E7A  1A40F07F           [114] jmp        -62          ; to [53]
2E7E  1E008000           [115] return     0   1      
                         * constants:
2E82  24                 sizek (36)
2E83  04                 const type 4
2E84  0B                 string size (11)
2E85  6747616D6552756C+  "gGameRul"
2E8D  657300             "es\0"
                         const [0]: "gGameRules"
2E90  01                 const type 3
2E91  497363B8           const [1]: (-1201441975)
2E95  04                 const type 4
2E96  03                 string size (3)
2E97  5F5400             "_T\0"
                         const [2]: "_T"
2E9A  04                 const type 4
2E9B  16                 string size (22)
2E9C  4D697373696F6E42+  "MissionB"
2EA4  7564646965735370+  "uddiesSp"
2EAC  61776E656400       "awned\0"
                         const [3]: "MissionBuddiesSpawned"
2EB2  01                 const type 3
2EB3  65770E40           const [4]: (1074689893)
2EB7  04                 const type 4
2EB8  0C                 string size (12)
2EB9  6275646479416765+  "buddyAge"
2EC1  6E747300           "nts\0"
                         const [5]: "buddyAgents"
2EC5  03                 const type 3
2EC6  00000000           const [6]: (0)
2ECA  01                 const type 3
2ECB  6B25B193           const [7]: (-1817107093)
2ECF  04                 const type 4
2ED0  16                 string size (22)
2ED1  537061776E696E67+  "Spawning"
2ED9  2062756464792061+  " buddy a"
2EE1  67656E747300       "gents\0"
                         const [8]: "Spawning buddy agents"
2EE7  01                 const type 3
2EE8  01000000           const [9]: (1)
2EEC  04                 const type 4
2EED  08                 string size (8)
2EEE  67526567696F6E00   "gRegion\0"
                         const [10]: "gRegion"
2EF6  01                 const type 3
2EF7  90F9CED1           const [11]: (-774964848)
2EFB  01                 const type 3
2EFC  73290920           const [12]: (537471347)
2F00  01                 const type 3
2F01  1A4B27EC           const [13]: (-332969190)
2F05  04                 const type 4
2F06  06                 string size (6)
2F07  54454E4E4F00       "TENNO\0"
                         const [14]: "TENNO"
2F0D  01                 const type 3
2F0E  BBFFABB3           const [15]: (-1280573509)
2F12  03                 const type 3
2F13  0000803F           const [16]: (0)
2F17  01                 const type 3
2F18  17DDCF0E           const [17]: (248503575)
2F1C  01                 const type 3
2F1D  98FD7463           const [18]: (1668611480)
2F21  04                 const type 4
2F22  0E                 string size (14)
2F23  6D696E456E656D79+  "minEnemy"
2F2B  4C6576656C00       "Level\0"
                         const [19]: "minEnemyLevel"
2F31  01                 const type 3
2F32  7DB5D47F           const [20]: (2144646525)
2F36  03                 const type 3
2F37  000040C0           const [21]: (0)
2F3B  03                 const type 3
2F3C  00004040           const [22]: (0)
2F40  04                 const type 4
2F41  0E                 string size (14)
2F42  6D6178456E656D79+  "maxEnemy"
2F4A  4C6576656C00       "Level\0"
                         const [23]: "maxEnemyLevel"
2F50  01                 const type 3
2F51  24939581           const [24]: (-2120903900)
2F55  01                 const type 3
2F56  BB3AA4CA           const [25]: (-895206725)
2F5A  04                 const type 4
2F5B  19                 string size (25)
2F5C  73796E6469636174+  "syndicat"
2F64  6542756464795370+  "eBuddySp"
2F6C  61776E506F696E74+  "awnPoint"
2F74  00                 "\0"
                         const [26]: "syndicateBuddySpawnPoint"
2F75  03                 const type 3
2F76  00002041           const [27]: (0)
2F7A  01                 const type 3
2F7B  0344B180           const [28]: (-2135866365)
2F7F  01                 const type 3
2F80  DF7436B0           const [29]: (-1338608417)
2F84  01                 const type 3
2F85  731F293C           const [30]: (1009327987)
2F89  01                 const type 3
2F8A  25764809           const [31]: (155743781)
2F8E  03                 const type 3
2F8F  000080BF           const [32]: (0)
2F93  04                 const type 4
2F94  14                 string size (20)
2F95  7374616E64446F77+  "standDow"
2F9D  6E416374696F6E54+  "nActionT"
2FA5  79706500           "ype\0"
                         const [33]: "standDownActionType"
2FA9  01                 const type 3
2FAA  EEDAD415           const [34]: (366271214)
2FAE  01                 const type 3
2FAF  FCA9D1E5           const [35]: (-439244292)
                         * functions:
2FB3  00                 sizep (0)
                         * lines:
2FB4  73                 sizelineinfo (115)
                         [pc] (line)
2FB5  D7                 [001] (-41)
2FB6  01                 [002] (-41)
2FB7  00                 [003] (-41)
2FB8  00                 [004] (-39)
2FB9  D7                 [005] (-39)
2FBA  01                 [006] (-39)
2FBB  00                 [007] (-39)
2FBC  00                 [008] (-39)
2FBD  D7                 [009] (-39)
2FBE  01                 [010] (-39)
2FBF  00                 [011] (-39)
2FC0  00                 [012] (-39)
2FC1  D9                 [013] (-39)
2FC2  01                 [014] (-39)
2FC3  00                 [015] (-39)
2FC4  00                 [016] (-39)
2FC5  D9                 [017] (-38)
2FC6  01                 [018] (-35)
2FC7  00                 [019] (-35)
2FC8  00                 [020] (-35)
2FC9  D9                 [021] (-34)
2FCA  01                 [022] (-34)
2FCB  00                 [023] (-32)
2FCC  00                 [024] (-32)
2FCD  D9                 [025] (-32)
2FCE  01                 [026] (-31)
2FCF  00                 [027] (-31)
2FD0  00                 [028] (-30)
2FD1  D9                 [029] (-30)
2FD2  01                 [030] (-30)
2FD3  00                 [031] (-29)
2FD4  00                 [032] (-28)
2FD5  D9                 [033] (-28)
2FD6  01                 [034] (-28)
2FD7  00                 [035] (-28)
2FD8  00                 [036] (-28)
2FD9  D9                 [037] (-28)
2FDA  01                 [038] (-28)
2FDB  00                 [039] (-28)
2FDC  00                 [040] (-28)
2FDD  D9                 [041] (-28)
2FDE  01                 [042] (-28)
2FDF  00                 [043] (-28)
2FE0  00                 [044] (-28)
2FE1  D9                 [045] (-27)
2FE2  01                 [046] (-27)
2FE3  00                 [047] (-27)
2FE4  00                 [048] (-27)
2FE5  D9                 [049] (-24)
2FE6  01                 [050] (-24)
2FE7  00                 [051] (-24)
2FE8  00                 [052] (-24)
2FE9  D9                 [053] (-23)
2FEA  01                 [054] (-23)
2FEB  00                 [055] (-23)
2FEC  00                 [056] (-23)
2FED  D9                 [057] (-23)
2FEE  01                 [058] (-23)
2FEF  00                 [059] (-23)
2FF0  00                 [060] (-23)
2FF1  D9                 [061] (-23)
2FF2  01                 [062] (-23)
2FF3  00                 [063] (-22)
2FF4  00                 [064] (-22)
2FF5  DA                 [065] (-22)
2FF6  01                 [066] (-22)
2FF7  00                 [067] (-22)
2FF8  00                 [068] (-22)
2FF9  DD                 [069] (-22)
2FFA  01                 [070] (-22)
2FFB  00                 [071] (-22)
2FFC  00                 [072] (-22)
2FFD  DD                 [073] (-21)
2FFE  01                 [074] (-21)
2FFF  00                 [075] (-21)
3000  00                 [076] (-21)
3001  DD                 [077] (-21)
3002  01                 [078] (-20)
3003  00                 [079] (-20)
3004  00                 [080] (-19)
3005  DE                 [081] (-19)
3006  01                 [082] (-19)
3007  00                 [083] (-18)
3008  00                 [084] (-18)
3009  DE                 [085] (-17)
300A  01                 [086] (-17)
300B  00                 [087] (-17)
300C  00                 [088] (-14)
300D  E0                 [089] (-14)
300E  01                 [090] (-14)
300F  00                 [091] (-14)
3010  00                 [092] (-14)
3011  E0                 [093] (-14)
3012  01                 [094] (-14)
3013  00                 [095] (-14)
3014  00                 [096] (-14)
3015  E0                 [097] (-14)
3016  01                 [098] (-13)
3017  00                 [099] (-13)
3018  00                 [100] (-13)
3019  E1                 [101] (-12)
301A  01                 [102] (-12)
301B  00                 [103] (-12)
301C  00                 [104] (-12)
301D  E1                 [105] (-12)
301E  01                 [106] (-12)
301F  00                 [107] (-12)
3020  00                 [108] (-12)
3021  E2                 [109] (-11)
3022  01                 [110] (-11)
3023  00                 [111] (-11)
3024  00                 [112] (-11)
3025  E2                 [113] (-24)
3026  01                 [114] (-8)
3027  00                 [115] (-5)
                         * locals:
3181  00                 sizelocvars (0)
                         * upvalues:
3182  00                 sizeupvalues (0)
                         ** end of function **

                         * lines:
3183  26                 sizelineinfo (38)
                         [pc] (line)
3184  2B                 [01] (43)
3185  00                 [02] (43)
3186  00                 [03] (20)
3187  00                 [04] (50)
3188  2B                 [05] (50)
3189  00                 [06] (45)
318A  00                 [07] (56)
318B  00                 [08] (56)
318C  14                 [09] (52)
318D  00                 [10] (69)
318E  00                 [11] (69)
318F  00                 [12] (58)
3190  32                 [13] (79)
3191  00                 [14] (79)
3192  00                 [15] (71)
3193  00                 [16] (90)
3194  32                 [17] (90)
3195  00                 [18] (81)
3196  00                 [19] (120)
3197  00                 [20] (-12)
3198  2D                 [21] (-113)
3199  00                 [22] (-113)
319A  00                 [23] (-113)
319B  00                 [24] (-10)
319C  38                 [25] (-80)
319D  00                 [26] (-80)
319E  00                 [27] (-111)
319F  00                 [28] (-59)
31A0  38                 [29] (-59)
31A1  00                 [30] (-59)
31A2  00                 [31] (-78)
31A3  00                 [32] (-44)
31A4  34                 [33] (-44)
31A5  00                 [34] (-57)
31A6  00                 [35] (-5)
31A7  00                 [36] (-5)
31A8  45                 [37] (-42)
31A9  00                 [38] (-5)
                         * locals:
321C  00                 sizelocvars (0)
                         * upvalues:
321D  00                 sizeupvalues (0)
                         ** end of function **

321E                     ** end of chunk **
