1	C:\wlua_dump\path\Lotus\ScriptsDojoMisc.lua
Pos   Hex Data           Description or Code
------------------------------------------------------------------------
0000                     ** source chunk: C:\wlua_dump\path\Lotus\ScriptsDojoMisc.lua
                         ** global header start **
0000  7F                 header signature: ""
0001  00                 version (major:minor hex digits)
0002  00                 format (0=official)
0003  00                 endianness (1=little endian)
0004  00                 size of int (bytes)
0005  00                 size of size_t (bytes)
0006  02                 size of Instruction (bytes)
0007  05                 size of number (bytes)
0008  14                 integral (1=integral)
420
                         * number type: single
                         * x86 standard (32-bit, little endian, doubles)
                         ** global header end **
/Lotus/Powersuits/PowersuitAbilities/OperatorTransferenceAbility
EE.Interface.Utilities
Kneel
CancelKneel
/Lotus/Language/Dojo/KneelingNotAllowedWhileTrading
spawnerType
Kneel
NULL
_T
Kneeling
KneelingTrigger
x
y
z
Engine
WALK
ZERO_VECTOR
facePlayer
ToggleText
_T
Kneeling
KneelingTrigger
                         
0001                     ** function [0] definition (level 1)
                         ** start of function **
0001  00                 string size (0)
                         source name: (none)
0002  00                 line defined (0)
0003  00                 last line defined (0)
0004  00                 nups (0)
0005  00                 numparams (0)
0006  02                 is_vararg (2)
0007  05                 maxstacksize (5)
                         * code:
0008  14                 sizecode (20)
0009  1D000000           [01] getglobal  0   0        ; 738251817
000D  59400000           [02] loadk      1   1        ; "/Lotus/Powersuits/PowersuitAbilities/OperatorTransferenceAbility"
0011  22800001           [03] call       0   2   2  
0015  5D800000           [04] getglobal  1   2        ; 849075268
0019  99C00000           [05] loadk      2   3        ; "EE.Interface.Utilities"
001D  62800001           [06] call       1   2   2  
0021  A5000000           [07] closure    2   0      
0025  12000000           [08] move       0   0      
0029  E5400000           [09] closure    3   1      
002D  12008000           [10] move       0   1      
0031  12000001           [11] move       0   2      
0035  25810000           [12] closure    4   2      
0039  12008001           [13] move       0   3      
003D  20010100           [14] setglobal  4   4        ; Kneel
0041  20410100           [15] setglobal  4   5        ; 1776407491
0045  25C10000           [16] closure    4   3      
0049  12008001           [17] move       0   3      
004D  20810100           [18] setglobal  4   6        ; CancelKneel
0051  20C10100           [19] setglobal  4   7        ; 1704146476
0055  1E008000           [20] return     0   1      
                         * constants:
0059  08                 sizek (8)
005A  01                 const type 3
005B  29D4002C           const [0]: (738251817)
005F  04                 const type 4
0060  41                 string size (65)
0061  2F4C6F7475732F50+  "/Lotus/P"
0069  6F77657273756974+  "owersuit"
0071  732F506F77657273+  "s/Powers"
0079  7569744162696C69+  "uitAbili"
0081  746965732F4F7065+  "ties/Ope"
0089  7261746F72547261+  "ratorTra"
0091  6E73666572656E63+  "nsferenc"
0099  654162696C697479+  "eAbility"
00A1  00                 "\0"
                         const [1]: "/Lotus/Powersuits/PowersuitAbilities/OperatorTransferenceAbility"
00A2  01                 const type 3
00A3  44DC9B32           const [2]: (849075268)
00A7  04                 const type 4
00A8  17                 string size (23)
00A9  45452E496E746572+  "EE.Inter"
00B1  666163652E557469+  "face.Uti"
00B9  6C697469657300     "lities\0"
                         const [3]: "EE.Interface.Utilities"
00C0  04                 const type 4
00C1  06                 string size (6)
00C2  4B6E65656C00       "Kneel\0"
                         const [4]: "Kneel"
00C8  01                 const type 3
00C9  C3D3E169           const [5]: (1776407491)
00CD  04                 const type 4
00CE  0C                 string size (12)
00CF  43616E63656C4B6E+  "CancelKn"
00D7  65656C00           "eel\0"
                         const [6]: "CancelKneel"
00DB  01                 const type 3
00DC  2C369365           const [7]: (1704146476)
                         * functions:
00E0  04                 sizep (4)
                         
00E1                     ** function [0] definition (level 2)
                         ** start of function **
00E1  00                 string size (0)
                         source name: (none)
00E2  07                 line defined (7)
00E3  0F                 last line defined (15)
00E4  01                 nups (1)
00E5  02                 numparams (2)
00E6  00                 is_vararg (0)
00E7  07                 maxstacksize (7)
                         * code:
00E8  15                 sizecode (21)
00E9  A4004000           [01] self       2   0   256  ; -1917464545
00ED  A2800001           [02] call       2   2   2  
00F1  A4404001           [03] self       2   2   257  ; 1769516121
00F5  A2800001           [04] call       2   2   2  
00F9  DD800000           [05] getglobal  3   2        ; 1074689893
00FD  12010001           [06] move       4   2      
0101  E2800001           [07] call       3   2   2  
0105  D8400000           [08] test       3       1    ; to [10] if false
0109  1A800280           [09] jmp        11           ; to [21]
010D  E4C04001           [10] self       3   2   259  ; -340119509
0111  53010000           [11] getupval   5   0      
0115  E2808001           [12] call       3   3   2  
0119  1D810000           [13] getglobal  4   2        ; 1074689893
011D  52018001           [14] move       5   3      
0121  22810001           [15] call       4   2   2  
0125  18410000           [16] test       4       1    ; to [18] if false
0129  1A800080           [17] jmp        3            ; to [21]
012D  2401C101           [18] self       4   3   260  ; -1381367252
0131  92018000           [19] move       6   1      
0135  22418001           [20] call       4   3   1  
0139  1E008000           [21] return     0   1      
                         * constants:
013D  05                 sizek (5)
013E  01                 const type 3
013F  1FD0B58D           const [0]: (-1917464545)
0143  01                 const type 3
0144  59AC7869           const [1]: (1769516121)
0148  01                 const type 3
0149  65770E40           const [2]: (1074689893)
014D  01                 const type 3
014E  2B30BAEB           const [3]: (-340119509)
0152  01                 const type 3
0153  2C02AAAD           const [4]: (-1381367252)
                         * functions:
0157  00                 sizep (0)
                         * lines:
0158  15                 sizelineinfo (21)
                         [pc] (line)
0159  08                 [01] (8)
015A  00                 [02] (8)
015B  00                 [03] (8)
015C  00                 [04] (8)
015D  08                 [05] (9)
015E  00                 [06] (9)
015F  00                 [07] (9)
0160  00                 [08] (9)
0161  08                 [09] (9)
0162  00                 [10] (10)
0163  00                 [11] (10)
0164  00                 [12] (10)
0165  08                 [13] (11)
0166  00                 [14] (11)
0167  00                 [15] (11)
0168  00                 [16] (11)
0169  09                 [17] (11)
016A  00                 [18] (12)
016B  00                 [19] (12)
016C  00                 [20] (12)
016D  09                 [21] (15)
                         * locals:
01AD  00                 sizelocvars (0)
                         * upvalues:
01AE  00                 sizeupvalues (0)
                         ** end of function **

                         
01AF                     ** function [1] definition (level 2)
                         ** start of function **
01AF  00                 string size (0)
                         source name: (none)
01B0  11                 line defined (17)
01B1  49                 last line defined (73)
01B2  02                 nups (2)
01B3  02                 numparams (2)
01B4  00                 is_vararg (0)
01B5  0A                 maxstacksize (10)
                         * code:
01B7  01                 sizecode (144)
01B8  A400C000           [001] self       2   1   256  ; -343710576
01BC  A2800001           [002] call       2   2   2  
01C0  98000000           [003] test       2       0    ; to [5] if true
01C4  1A800180           [004] jmp        7            ; to [12]
01C8  93000000           [005] getupval   2   0      
01CC  8E404001           [006] gettable   2   2   257  ; 185724978
01D0  D9800000           [007] loadk      3   2        ; "/Lotus/Language/Dojo/KneelingNotAllowedWhileTrading"
01D4  A2400001           [008] call       2   2   1  
01D8  A4C04000           [009] self       2   0   259  ; -974578778
01DC  A2400001           [010] call       2   2   1  
01E0  1E008000           [011] return     0   1      
01E4  A4004100           [012] self       2   0   260  ; 766584623
01E8  A2400001           [013] call       2   2   1  
01EC  A4404100           [014] self       2   0   261  ; -1625438872
01F0  1D810100           [015] getglobal  4   6        ; spawnerType
01F4  A2808001           [016] call       2   3   2  
01F8  E4C0C100           [017] self       3   1   263  ; -1257890270
01FC  5D010200           [018] getglobal  5   8        ; -332969190
0200  99410200           [019] loadk      6   9        ; "Kneel"
0204  62010001           [020] call       5   2   0  
0208  E2800000           [021] call       3   0   2  
020C  D8000000           [022] test       3       0    ; to [24] if true
0210  1A000980           [023] jmp        37           ; to [61]
0214  D3008000           [024] getupval   3   1      
0218  12018000           [025] move       4   1      
021C  57010000           [026] loadbool   5   0   0    ; false
0220  E2408001           [027] call       3   3   1  
0224  E480C200           [028] self       3   1   266  ; 677420169
0228  5D010200           [029] getglobal  5   8        ; -332969190
022C  99C10200           [030] loadk      6   11       ; "NULL"
0230  62010001           [031] call       5   2   0  
0234  E2400000           [032] call       3   0   1  
0238  DD000300           [033] getglobal  3   12       ; _T
023C  CC80C386           [034] settable   3   269 270  ; "Kneeling" 0
0240  DD000300           [035] getglobal  3   12       ; _T
0244  CC00C487           [036] settable   3   271 272  ; "KneelingTrigger" nil
0248  DD400400           [037] getglobal  3   17       ; 538022378
024C  19810400           [038] loadk      4   18       ; 0
0250  E2400001           [039] call       3   2   1  
0254  E4C04400           [040] self       3   0   275  ; 250836541
0258  46018002           [041] loadnil    5   5      
025C  E2408001           [042] call       3   3   1  
0260  E400C500           [043] self       3   1   276  ; 1408791382
0264  E2800001           [044] call       3   2   2  
0268  E440C501           [045] self       3   3   277  ; -767348707
026C  57018000           [046] loadbool   5   1   0    ; true
0270  E2408001           [047] call       3   3   1  
0274  E400C500           [048] self       3   1   276  ; 1408791382
0278  E2800001           [049] call       3   2   2  
027C  E480C501           [050] self       3   3   278  ; 1532995569
0280  57018000           [051] loadbool   5   1   0    ; true
0284  E2408001           [052] call       3   3   1  
0288  DDC00500           [053] getglobal  3   23       ; 1074689893
028C  12010001           [054] move       4   2      
0290  E2800001           [055] call       3   2   2  
0294  D8400000           [056] test       3       1    ; to [58] if false
0298  1A001480           [057] jmp        81           ; to [139]
029C  E4C04001           [058] self       3   2   259  ; -974578778
02A0  E2400001           [059] call       3   2   1  
02A4  1A401380           [060] jmp        78           ; to [139]
02A8  D3008000           [061] getupval   3   1      
02AC  12018000           [062] move       4   1      
02B0  57018000           [063] loadbool   5   1   0    ; true
02B4  E2408001           [064] call       3   3   1  
02B8  E4C04400           [065] self       3   0   275  ; 250836541
02BC  52018000           [066] move       5   1      
02C0  E2408001           [067] call       3   3   1  
02C4  DDC00500           [068] getglobal  3   23       ; 1074689893
02C8  12010001           [069] move       4   2      
02CC  E2800001           [070] call       3   2   2  
02D0  D8400000           [071] test       3       1    ; to [73] if false
02D4  1A400080           [072] jmp        2            ; to [75]
02D8  E4004101           [073] self       3   2   260  ; 766584623
02DC  E2400001           [074] call       3   2   1  
02E0  E400C600           [075] self       3   1   280  ; -1201586349
02E4  E2800001           [076] call       3   2   2  
02E8  D8000000           [077] test       3       0    ; to [79] if true
02EC  1A400980           [078] jmp        38           ; to [117]
02F0  E4404600           [079] self       3   0   281  ; 1839670529
02F4  E2800001           [080] call       3   2   2  
02F8  1D810600           [081] getglobal  4   26       ; 572299008
02FC  4EC1C601           [082] gettable   5   3   283  ; "x"
0300  A441C600           [083] self       6   1   281  ; 1839670529
0304  A2810001           [084] call       6   2   2  
0308  8E014703           [085] gettable   6   6   284  ; "y"
030C  CE41C701           [086] gettable   7   3   285  ; "z"
0310  22810002           [087] call       4   4   2  
0314  6401C500           [088] self       5   1   276  ; 1408791382
0318  62810001           [089] call       5   2   2  
031C  6481C702           [090] self       5   5   286  ; 1958326506
0320  62410001           [091] call       5   2   1  
0324  64C1C700           [092] self       5   1   287  ; -529567558
0328  DD010800           [093] getglobal  7   32       ; Engine
032C  CE41C803           [094] gettable   7   7   289  ; "WALK"
0330  62418001           [095] call       5   3   1  
0334  6481C800           [096] self       5   1   290  ; 1292478819
0338  62810001           [097] call       5   2   2  
033C  64C1C802           [098] self       5   5   291  ; 176029597
0340  DD010900           [099] getglobal  7   36       ; ZERO_VECTOR
0344  62418001           [100] call       5   3   1  
0348  5D410900           [101] getglobal  5   37       ; facePlayer
034C  58010000           [102] test       5       0    ; to [104] if true
0350  1A400280           [103] jmp        10           ; to [114]
0354  6481C900           [104] self       5   1   294  ; 970454089
0358  D2010002           [105] move       7   4      
035C  24C24900           [106] self       8   0   295  ; -231049143
0360  22020001           [107] call       8   2   0  
0364  62410000           [108] call       5   0   1  
0368  6401CA00           [109] self       5   1   296  ; 1998801764
036C  E4C14900           [110] self       7   0   295  ; -231049143
0370  E2010001           [111] call       7   2   0  
0374  62410000           [112] call       5   0   1  
0378  1A800080           [113] jmp        3            ; to [117]
037C  6481C900           [114] self       5   1   294  ; 970454089
0380  D2010002           [115] move       7   4      
0384  62418001           [116] call       5   3   1  
0388  6401C500           [117] self       5   1   276  ; 1408791382
038C  62810001           [118] call       5   2   2  
0390  6441C502           [119] self       5   5   277  ; -767348707
0394  D7010000           [120] loadbool   7   0   0    ; false
0398  62418001           [121] call       5   3   1  
039C  6401C500           [122] self       5   1   276  ; 1408791382
03A0  62810001           [123] call       5   2   2  
03A4  6481C502           [124] self       5   5   278  ; 1532995569
03A8  D7010000           [125] loadbool   7   0   0    ; false
03AC  62418001           [126] call       5   3   1  
03B0  6481C200           [127] self       5   1   266  ; 677420169
03B4  DD010200           [128] getglobal  7   8        ; -332969190
03B8  19420200           [129] loadk      8   9        ; "Kneel"
03BC  E2010001           [130] call       7   2   0  
03C0  62410000           [131] call       5   0   1  
03C4  5D010300           [132] getglobal  5   12       ; _T
03C8  4C018087           [133] settable   5   271 0    ; "KneelingTrigger"
03CC  5D010300           [134] getglobal  5   12       ; _T
03D0  4C41CA86           [135] settable   5   269 297  ; "Kneeling" 1
03D4  5D410400           [136] getglobal  5   17       ; 538022378
03D8  99810400           [137] loadk      6   18       ; 0
03DC  62410001           [138] call       5   2   1  
03E0  64814A00           [139] self       5   0   298  ; -1923578185
03E4  D9C10A00           [140] loadk      7   43       ; "ToggleText"
03E8  62418001           [141] call       5   3   1  
03EC  64C14000           [142] self       5   0   259  ; -974578778
03F0  62410001           [143] call       5   2   1  
03F4  1E008000           [144] return     0   1      
                         * constants:
03F8  2C                 sizek (44)
03F9  01                 const type 3
03FA  906483EB           const [0]: (-343710576)
03FE  01                 const type 3
03FF  32F0110B           const [1]: (185724978)
0403  04                 const type 4
0404  34                 string size (52)
0405  2F4C6F7475732F4C+  "/Lotus/L"
040D  616E67756167652F+  "anguage/"
0415  446F6A6F2F4B6E65+  "Dojo/Kne"
041D  656C696E674E6F74+  "elingNot"
0425  416C6C6F77656457+  "AllowedW"
042D  68696C6554726164+  "hileTrad"
0435  696E6700           "ing\0"
                         const [2]: "/Lotus/Language/Dojo/KneelingNotAllowedWhileTrading"
0439  01                 const type 3
043A  A61BE9C5           const [3]: (-974578778)
043E  01                 const type 3
043F  2F27B12D           const [4]: (766584623)
0443  01                 const type 3
0444  68C51D9F           const [5]: (-1625438872)
0448  04                 const type 4
0449  0C                 string size (12)
044A  737061776E657254+  "spawnerT"
0452  79706500           "ype\0"
                         const [6]: "spawnerType"
0456  01                 const type 3
0457  221E06B5           const [7]: (-1257890270)
045B  01                 const type 3
045C  1A4B27EC           const [8]: (-332969190)
0460  04                 const type 4
0461  06                 string size (6)
0462  4B6E65656C00       "Kneel\0"
                         const [9]: "Kneel"
0468  01                 const type 3
0469  899C6028           const [10]: (677420169)
046D  04                 const type 4
046E  05                 string size (5)
046F  4E554C4C00         "NULL\0"
                         const [11]: "NULL"
0474  04                 const type 4
0475  03                 string size (3)
0476  5F5400             "_T\0"
                         const [12]: "_T"
0479  04                 const type 4
047A  09                 string size (9)
047B  4B6E65656C696E67+  "Kneeling"
0483  00                 "\0"
                         const [13]: "Kneeling"
0484  01                 const type 3
0485  00000000           const [14]: (0)
0489  04                 const type 4
048A  10                 string size (16)
048B  4B6E65656C696E67+  "Kneeling"
0493  5472696767657200   "Trigger\0"
                         const [15]: "KneelingTrigger"
049B  00                 const type 0
                         const [16]: nil
049C  01                 const type 3
049D  EA911120           const [17]: (538022378)
04A1  03                 const type 3
04A2  00000040           const [18]: (0)
04A6  01                 const type 3
04A7  3D76F30E           const [19]: (250836541)
04AB  01                 const type 3
04AC  5673F853           const [20]: (1408791382)
04B0  01                 const type 3
04B1  1D3043D2           const [21]: (-767348707)
04B5  01                 const type 3
04B6  F1A75F5B           const [22]: (1532995569)
04BA  01                 const type 3
04BB  65770E40           const [23]: (1074689893)
04BF  01                 const type 3
04C0  533F61B8           const [24]: (-1201586349)
04C4  01                 const type 3
04C5  0125A76D           const [25]: (1839670529)
04C9  01                 const type 3
04CA  00971C22           const [26]: (572299008)
04CE  04                 const type 4
04CF  02                 string size (2)
04D0  7800               "x\0"
                         const [27]: "x"
04D2  04                 const type 4
04D3  02                 string size (2)
04D4  7900               "y\0"
                         const [28]: "y"
04D6  04                 const type 4
04D7  02                 string size (2)
04D8  7A00               "z\0"
                         const [29]: "z"
04DA  01                 const type 3
04DB  EAB0B974           const [30]: (1958326506)
04DF  01                 const type 3
04E0  BA706FE0           const [31]: (-529567558)
04E4  04                 const type 4
04E5  07                 string size (7)
04E6  456E67696E6500     "Engine\0"
                         const [32]: "Engine"
04ED  04                 const type 4
04EE  05                 string size (5)
04EF  57414C4B00         "WALK\0"
                         const [33]: "WALK"
04F4  01                 const type 3
04F5  63A9094D           const [34]: (1292478819)
04F9  01                 const type 3
04FA  9DFF7D0A           const [35]: (176029597)
04FE  04                 const type 4
04FF  0C                 string size (12)
0500  5A45524F5F564543+  "ZERO_VEC"
0508  544F5200           "TOR\0"
                         const [36]: "ZERO_VECTOR"
050C  04                 const type 4
050D  0B                 string size (11)
050E  66616365506C6179+  "facePlay"
0516  657200             "er\0"
                         const [37]: "facePlayer"
0519  01                 const type 3
051A  49F4D739           const [38]: (970454089)
051E  01                 const type 3
051F  49783AF2           const [39]: (-231049143)
0523  01                 const type 3
0524  644B2377           const [40]: (1998801764)
0528  01                 const type 3
0529  01000000           const [41]: (1)
052D  01                 const type 3
052E  B786588D           const [42]: (-1923578185)
0532  04                 const type 4
0533  0B                 string size (11)
0534  546F67676C655465+  "ToggleTe"
053C  787400             "xt\0"
                         const [43]: "ToggleText"
                         * functions:
053F  00                 sizep (0)
                         * lines:
0541  01                 sizelineinfo (144)
                         [pc] (line)
0542  12                 [001] (18)
0543  00                 [002] (18)
0544  00                 [003] (18)
0545  00                 [004] (18)
0546  12                 [005] (19)
0547  00                 [006] (19)
0548  00                 [007] (19)
0549  00                 [008] (19)
054A  12                 [009] (20)
054B  00                 [010] (20)
054C  00                 [011] (21)
054D  00                 [012] (24)
054E  12                 [013] (24)
054F  00                 [014] (25)
0550  00                 [015] (25)
0551  00                 [016] (25)
0552  13                 [017] (27)
0553  00                 [018] (27)
0554  00                 [019] (27)
0555  00                 [020] (27)
0556  13                 [021] (27)
0557  00                 [022] (27)
0558  00                 [023] (27)
0559  00                 [024] (28)
055A  13                 [025] (28)
055B  00                 [026] (28)
055C  00                 [027] (28)
055D  00                 [028] (30)
055E  13                 [029] (30)
055F  00                 [030] (30)
0560  00                 [031] (30)
0561  00                 [032] (30)
0562  14                 [033] (31)
0563  00                 [034] (31)
0564  00                 [035] (32)
0565  00                 [036] (32)
0566  14                 [037] (33)
0567  00                 [038] (33)
0568  00                 [039] (33)
0569  00                 [040] (34)
056A  15                 [041] (34)
056B  00                 [042] (34)
056C  00                 [043] (36)
056D  00                 [044] (36)
056E  18                 [045] (36)
056F  00                 [046] (36)
0570  00                 [047] (36)
0571  00                 [048] (37)
0572  18                 [049] (37)
0573  00                 [050] (37)
0574  00                 [051] (37)
0575  00                 [052] (37)
0576  19                 [053] (38)
0577  00                 [054] (38)
0578  00                 [055] (38)
0579  00                 [056] (38)
057A  19                 [057] (38)
057B  00                 [058] (39)
057C  00                 [059] (39)
057D  00                 [060] (40)
057E  19                 [061] (42)
057F  00                 [062] (42)
0580  00                 [063] (42)
0581  00                 [064] (42)
0582  1B                 [065] (44)
0583  00                 [066] (44)
0584  00                 [067] (44)
0585  00                 [068] (45)
0586  1B                 [069] (45)
0587  00                 [070] (45)
0588  00                 [071] (45)
0589  00                 [072] (45)
058A  1B                 [073] (46)
058B  00                 [074] (46)
058C  00                 [075] (48)
058D  00                 [076] (48)
058E  1B                 [077] (48)
058F  00                 [078] (48)
0590  00                 [079] (49)
0591  00                 [080] (49)
0592  1B                 [081] (50)
0593  00                 [082] (50)
0594  00                 [083] (50)
0595  00                 [084] (50)
0596  1B                 [085] (50)
0597  00                 [086] (50)
0598  00                 [087] (50)
0599  00                 [088] (51)
059A  1B                 [089] (51)
059B  00                 [090] (51)
059C  00                 [091] (51)
059D  00                 [092] (52)
059E  1C                 [093] (52)
059F  00                 [094] (52)
05A0  00                 [095] (52)
05A1  00                 [096] (53)
05A2  1C                 [097] (53)
05A3  00                 [098] (53)
05A4  00                 [099] (53)
05A5  00                 [100] (53)
05A6  1C                 [101] (54)
05A7  00                 [102] (54)
05A8  00                 [103] (54)
05A9  00                 [104] (55)
05AA  1C                 [105] (55)
05AB  00                 [106] (55)
05AC  00                 [107] (55)
05AD  00                 [108] (55)
05AE  1E                 [109] (56)
05AF  00                 [110] (56)
05B0  00                 [111] (56)
05B1  00                 [112] (56)
05B2  1E                 [113] (56)
05B3  00                 [114] (58)
05B4  00                 [115] (58)
05B5  00                 [116] (58)
05B6  1E                 [117] (62)
05B7  00                 [118] (62)
05B8  00                 [119] (62)
05B9  00                 [120] (62)
05BA  1E                 [121] (62)
05BB  00                 [122] (63)
05BC  00                 [123] (63)
05BD  00                 [124] (63)
05BE  1E                 [125] (63)
05BF  00                 [126] (63)
05C0  00                 [127] (64)
05C1  00                 [128] (64)
05C2  1F                 [129] (64)
05C3  00                 [130] (64)
05C4  00                 [131] (64)
05C5  00                 [132] (65)
05C6  1F                 [133] (65)
05C7  00                 [134] (66)
05C8  00                 [135] (66)
05C9  00                 [136] (67)
05CA  20                 [137] (67)
05CB  00                 [138] (67)
05CC  00                 [139] (70)
05CD  00                 [140] (70)
05CE  20                 [141] (70)
05CF  00                 [142] (71)
05D0  00                 [143] (71)
05D1  00                 [144] (73)
                         * locals:
0782  00                 sizelocvars (0)
                         * upvalues:
0783  00                 sizeupvalues (0)
                         ** end of function **

                         
0784                     ** function [2] definition (level 2)
                         ** start of function **
0784  00                 string size (0)
                         source name: (none)
0785  4B                 line defined (75)
0786  4D                 last line defined (77)
0787  01                 nups (1)
0788  02                 numparams (2)
0789  00                 is_vararg (0)
078A  05                 maxstacksize (5)
                         * code:
078B  05                 sizecode (5)
078C  93000000           [1] getupval   2   0      
0790  D2000000           [2] move       3   0      
0794  12018000           [3] move       4   1      
0798  A2408001           [4] call       2   3   1  
079C  1E008000           [5] return     0   1      
                         * constants:
07A0  00                 sizek (0)
                         * functions:
07A1  00                 sizep (0)
                         * lines:
07A2  05                 sizelineinfo (5)
                         [pc] (line)
07A3  4C                 [1] (76)
07A4  00                 [2] (76)
07A5  00                 [3] (76)
07A6  00                 [4] (76)
07A7  4C                 [5] (77)
                         * locals:
07B7  00                 sizelocvars (0)
                         * upvalues:
07B8  00                 sizeupvalues (0)
                         ** end of function **

                         
07B9                     ** function [3] definition (level 2)
                         ** start of function **
07B9  00                 string size (0)
                         source name: (none)
07BA  4F                 line defined (79)
07BB  53                 last line defined (83)
07BC  01                 nups (1)
07BD  01                 numparams (1)
07BE  00                 is_vararg (0)
07BF  04                 maxstacksize (4)
                         * code:
07C0  16                 sizecode (22)
07C1  5D000000           [01] getglobal  1   0        ; 1074689893
07C5  9D400000           [02] getglobal  2   1        ; _T
07C9  8E804001           [03] gettable   2   2   258  ; "Kneeling"
07CD  62800001           [04] call       1   2   2  
07D1  58400000           [05] test       1       1    ; to [7] if false
07D5  1A800380           [06] jmp        15           ; to [22]
07D9  5D400000           [07] getglobal  1   1        ; _T
07DD  4E80C000           [08] gettable   1   1   258  ; "Kneeling"
07E1  58000000           [09] test       1       0    ; to [11] if true
07E5  1A800280           [10] jmp        11           ; to [22]
07E9  5D000000           [11] getglobal  1   0        ; 1074689893
07ED  9D400000           [12] getglobal  2   1        ; _T
07F1  8EC04001           [13] gettable   2   2   259  ; "KneelingTrigger"
07F5  62800001           [14] call       1   2   2  
07F9  58400000           [15] test       1       1    ; to [17] if false
07FD  1A000180           [16] jmp        5            ; to [22]
0801  53000000           [17] getupval   1   0      
0805  9D400000           [18] getglobal  2   1        ; _T
0809  8EC04001           [19] gettable   2   2   259  ; "KneelingTrigger"
080D  D2000000           [20] move       3   0      
0811  62408001           [21] call       1   3   1  
0815  1E008000           [22] return     0   1      
                         * constants:
0819  04                 sizek (4)
081A  01                 const type 3
081B  65770E40           const [0]: (1074689893)
081F  04                 const type 4
0820  03                 string size (3)
0821  5F5400             "_T\0"
                         const [1]: "_T"
0824  04                 const type 4
0825  09                 string size (9)
0826  4B6E65656C696E67+  "Kneeling"
082E  00                 "\0"
                         const [2]: "Kneeling"
082F  04                 const type 4
0830  10                 string size (16)
0831  4B6E65656C696E67+  "Kneeling"
0839  5472696767657200   "Trigger\0"
                         const [3]: "KneelingTrigger"
                         * functions:
0841  00                 sizep (0)
                         * lines:
0842  16                 sizelineinfo (22)
                         [pc] (line)
0843  50                 [01] (80)
0844  00                 [02] (80)
0845  00                 [03] (80)
0846  00                 [04] (80)
0847  50                 [05] (80)
0848  00                 [06] (80)
0849  00                 [07] (80)
084A  00                 [08] (80)
084B  50                 [09] (80)
084C  00                 [10] (80)
084D  00                 [11] (80)
084E  00                 [12] (80)
084F  50                 [13] (80)
0850  00                 [14] (80)
0851  00                 [15] (80)
0852  00                 [16] (80)
0853  50                 [17] (81)
0854  00                 [18] (81)
0855  00                 [19] (81)
0856  00                 [20] (81)
0857  50                 [21] (81)
0858  00                 [22] (83)
                         * locals:
089B  00                 sizelocvars (0)
                         * upvalues:
089C  00                 sizeupvalues (0)
                         ** end of function **

                         * lines:
089D  14                 sizelineinfo (20)
                         [pc] (line)
089E  04                 [01] (4)
089F  00                 [02] (4)
08A0  00                 [03] (4)
08A1  00                 [04] (5)
08A2  04                 [05] (5)
08A3  00                 [06] (5)
08A4  00                 [07] (15)
08A5  00                 [08] (15)
08A6  04                 [09] (73)
08A7  00                 [10] (73)
08A8  00                 [11] (73)
08A9  00                 [12] (77)
08AA  05                 [13] (77)
08AB  00                 [14] (77)
08AC  00                 [15] (75)
08AD  00                 [16] (83)
08AE  05                 [17] (83)
08AF  00                 [18] (83)
08B0  00                 [19] (79)
08B1  00                 [20] (83)
                         * locals:
08EE  00                 sizelocvars (0)
                         * upvalues:
08EF  00                 sizeupvalues (0)
                         ** end of function **

08F0                     ** end of chunk **
