1	C:\wlua_dump\path\Lotus\ScriptsWaveDefend.lua
Pos   Hex Data           Description or Code
------------------------------------------------------------------------
0000                     ** source chunk: C:\wlua_dump\path\Lotus\ScriptsWaveDefend.lua
                         ** global header start **
0000  7F                 header signature: ""
0001  00                 version (major:minor hex digits)
0002  00                 format (0=official)
0003  00                 endianness (1=little endian)
0004  00                 size of int (bytes)
0005  00                 size of size_t (bytes)
0006  02                 size of Instruction (bytes)
0007  5E                 size of number (bytes)
0008  E6                 integral (1=integral)
4230
                         * number type: single
                         * x86 standard (32-bit, little endian, doubles)
                         ** global header end **
/Lotus/Language/Objectives/DefendCryopod
/Lotus/Language/Objectives/DefendLocateCryopod
/Lotus/Types/Game/Pets/PetAvatar
/Lotus/Types/Friendly/Agents/DefenseAvatarMoving
/Lotus/Types/Friendly/Rescue/DefenseAgentPatrolBehavior
/Lotus/Fx/PowersuitAbilities/Ninja/SmokeScreenEndPrime
/Lotus/Materials/PostFX/Revive_v.png
/Lotus/Materials/PostFX/Corpus_R_v.png
/Lotus/Sounds/Warframes/StalkerAssassin/StalkerAssassinTease
/Lotus/Music/Cues/GrineerDeathSquadStalkerMusicSequencer
HeavyCombat
/Lotus/Types/Game/MarkerInfos/ObjectiveMarkerInfo
/Lotus/Types/Game/MarkerInfos/DefendMarkerInfo
/Lotus/Types/Friendly/Agents/DarvoDefenseAgent
DefenseMoverKeyIndex
DefenseMoverIsMoving
RandomTeam
MissionBuilder
Lotus.Scripts.Libs.ObjectiveText
Lotus.Interface.LotusUtilities
Lotus.Scripts.Libs.TransmissionSet
Lotus.Scripts.Libs.CommonGamemodeFunctions
Lotus.Scripts.Libs.SquadLink
WaveSleepTimer
Wave
TotalSpawned
TimeElapsed
LastBossSpawnWave
MissionDlgPending
HighscoreMode
SquadLinkExtraWave
LostTargetWave
DefenseTargetCount
DefenseTargetsLeft
WaveDefendDM
WaveDefendII
SHOW_PROJECTION_PICKER
TENNO
OnKilled
WaveDefense
StartDefenseTimer
MoveStartObjectsToTarget
MonitorDefenseAvatarHealth
SetupDefense
DefenseMover
DefenseMoverHostMigration
gGameRules
alertId

invasionId
syndicateTag
gGameRules
invasionId

forceAllyFaction
gGameRules
maxWaveNum
gGameRules
periodicMissionTag
ELITE_ALERT_PERIODIC_MISSION_TAG
ELITE_ALERT_PERIODIC_MISSION_TAG_ALT
_T
EndlessModeEnemyLevel
gRegion
math
firstBossTier
gGameRules
enemySpec
tier
gGameRules
enemySpec
tier
math
maxSimultaneous
Engine
EXIMUS
math
STANDARD
goal
string
%0.5f
sortKey
 
name
 (
xp
 XP)
Total base XP: 
 XP
agent
Engine
STANDARD
tier
typeName
agentType
agentRes
mergeSymbol
maxSimultaneous
probability
maxSimultaneous
math
table
merged
agentRes
Engine
STANDARD
EXIMUS
 EXIMUS
type
agentType
genus
xp
name
spacingIndex
sortKey
mergeSymbol
tier
maxSimultaneous
math
probability
merged
table
enemySpec
goalTag
ProjectSinisterBonus
ProjectSinisterC
Stalker
agent
tier
table
Could not generate spawn schedule (no enemies!)
probability
typeName
maxSimultaneous
math
Could not generate spawn schedule!
spacingIndex
type
genus
goal
sortKey
gGameRules
gRegion
gFlashMgr
Server.NumVirtualTestClients
math
Infestation
difficulty
leadersAlwaysAllowed
sortieId

alertId
goalId
Spawning 
 tier-
 enemies (
 simultaneous, 
% eximus)
gRegion
minSpawnDistance
maxSpawnDistance
DefenseAgentSpawn
spawnVisTimeout
PanicButton
Disable
gGameRules
vipAgent
gGameRules
sortieId

goalTag
vipAgent
gGameRules
gPromotedToHost
_T
gQuestMission
goalId

vipAgent
gRegion
maxEnemyLevel
math
spawncontrol
Waiting for avatar
Game
WEAPON_DAMAGE_AMOUNT
MULTIPLY
WEAPON_PROC_CHANCE
AVATAR_HEALTH_MAX
AVATAR_SHIELD_MAX
defenseMoverInitialWaypoint
gPlayerProfileMgr
Lotus_Game
LOT_SENTINEL
SUIT_SLOT
mItemType
gLotusSuitCustomizationType
Neckwear
DefenseSpawnOffset
ZERO_VECTOR
EMPTY_SYMBOL
gGameRules
waveSleepOverride
_SleepBetweenWaves(
)
/Lotus/Language/Game/WaveCleared
/Lotus/Language/Game/WaveIncoming
waveClearSound
gRegion
gRegion
Engine
DT_ANY
ANY_PART
STUN
gRegion
Engine
STUN
stayTrans
_T
gStalkerActive
StalkerPlayer
gRegion
gVorBossActive
gVoidTearActive
gActiveDropshipCount
MissionTransmissionSet
PromptContinue
string
gGameRules
activeMissionTag
Void
minWavesToComplete
Defense target avatar killed!
gRegion
gGameRules
DefenseExterminate
INITIATOR_FAILURE
Engine
GameRules_GS_FAILURE
gRegion
gGameRules
gGameRules
eomBoss
table
gRegion
eomBossTransmission
Engine
STANDARD
math
maxEnemyLevel
EXIMUS
/Lotus/Language/Bosses/DebtCollector
EMPTY_SYMBOL
Game
AVATAR_ARMOUR
ADD
AVATAR_MOVEMENT_SPEED
MULTIPLY
KNOCKDOWN
STAGGER
RAGDOLL
ENEMY
 
_T
EndOfMissionVoiceOverride

_T
SQUADLINK_ExterminateKillProgressChanged
_T
SQUADLINK_ExterminateKillTotalChanged
gRegion
gGameRules
OnKilled
math
_T
EndlessModeEnemyLevel
gPromotedToHost
Combat
/Lotus/Language/Game/waveCount
 
/Lotus/Language/Game/WaveRemaining
Defense wave: 
StartedDefenseWave
MissionTransmissionSet
DefenseExterminate
KillCount
KillsRequired
markerThreshold
Idle
eomBoss
gQuestMission
ObjectiveComplete
minWavesToComplete
eomBossTaunt
DefenseWave
DefenseMoverScript
Execute
SUCCESS
gGameRules
/Lotus/Language/Game/waveCount
 
math
+1

gGameRules
gRegion
ObjectiveStart
introTransmissionTagOverride
_T
MissionTransmissionSet
gFlashMgr
LotusGameRules.DemoMode
spawncontrol
DefenseAvatar
startupTimeout
FortStarter
portCheck
StartDefenseTrigger
DefenseExterminate
INITIATOR_FAILURE
Engine
GameRules_GS_FAILURE
ForceDefenseTimer
goal
gChallengeMgr
goalTag
ProjectSinisterBonus
objectiveMarker
Disable
ZERO_ROTATION
gPromotedToHost
WaveDefense, after migration. Wave: 
, wave sleep: 
WaveDefense: Host migration init timer restarted: 
 seconds elapsed.
spawncontrol
gRegion
gTennoAvatarType
requiredPlayerRange
gGameRules
_T
ForceDefenseTimer
Defense: Starting defense waves
proximityDeco
proximityMultiAvatarTrigger
objectiveMarker
Disable
faction
Lotus_Game
FC_CORPUS
corpusStartSeq
FC_GRINEER
grineerStartSeq
FC_OROKIN
orokinStartSeq
FC_INFESTATION
string
Orokin
infestedOrokinStartSeq
Grineer
infestedGrineerStartSeq
Corpus
infestedCorpusStartSeq
gGameRules
spawncontrol
proximityMultiAvatarTrigger
proximityDeco
objectiveMarker
PreventDeath
tubesDeco
gFlashMgr
LotusGameRules.DemoMode
Engine
DT_ANY
ANY_PART
damageStates
damagedEffectC
EMPTY_SYMBOL
tubesAnimC
damagedEffectB
tubesAnimB
damagedMeshB
damagedEffectA
tubesAnimA
damagedMeshA
gRegion
WaveDefenseStart
transmissionSet
Execute
gPromotedToHost
DefenseMoverScript
gGameRules
goalTag
KubrowQuestDefense
ExtractionTrigger
FLT_MAX
gGameRules
spawncontrol
fakeCryopodNoCollision
fakeCryopodCollision
Show
Hide
defenseMoverRandom
defenseMoverRandomWaveInterval
math
defenseMoverRandomChance
defenseMoverKeys
defenseMover
defenseMoverLoop
defenseMoverWaves
defenseMoverNavVolumes
defenseMoverWaypoints
gRegion
MoveTo
Disable
Enable
gPromotedToHost
gGameRules
spawncontrol
defenseMoverKeys
defenseMoverNavVolumes
defenseMoverWaypoints
Disable
Enable
defenseMover
objectiveMarker
gRegion
                         
0001                     ** function [0] definition (level 1)
                         ** start of function **
0001  00                 string size (0)
                         source name: (none)
0002  00                 line defined (0)
0003  00                 last line defined (0)
0004  00                 nups (0)
0005  00                 numparams (0)
0006  02                 is_vararg (2)
0007  5E                 maxstacksize (94)
                         * code:
0009  02                 sizecode (358)
000A  19000000           [001] loadk      0   0        ; 0
000E  59400000           [002] loadk      1   1        ; "/Lotus/Language/Objectives/DefendCryopod"
0012  99800000           [003] loadk      2   2        ; "/Lotus/Language/Objectives/DefendLocateCryopod"
0016  DDC00000           [004] getglobal  3   3        ; 738251817
001A  19010100           [005] loadk      4   4        ; "/Lotus/Types/Game/Pets/PetAvatar"
001E  E2800001           [006] call       3   2   2  
0022  1DC10000           [007] getglobal  4   3        ; 738251817
0026  59410100           [008] loadk      5   5        ; "/Lotus/Types/Friendly/Agents/DefenseAvatarMoving"
002A  22810001           [009] call       4   2   2  
002E  5D810100           [010] getglobal  5   6        ; -895206725
0032  99C10100           [011] loadk      6   7        ; "/Lotus/Types/Friendly/Rescue/DefenseAgentPatrolBehavior"
0036  62810001           [012] call       5   2   2  
003A  9DC10000           [013] getglobal  6   3        ; 738251817
003E  D9010200           [014] loadk      7   8        ; "/Lotus/Fx/PowersuitAbilities/Ninja/SmokeScreenEndPrime"
0042  A2810001           [015] call       6   2   2  
0046  DDC10000           [016] getglobal  7   3        ; 738251817
004A  19420200           [017] loadk      8   9        ; "/Lotus/Materials/PostFX/Revive_v.png"
004E  E2810001           [018] call       7   2   2  
0052  1DC20000           [019] getglobal  8   3        ; 738251817
0056  59820200           [020] loadk      9   10       ; "/Lotus/Materials/PostFX/Corpus_R_v.png"
005A  22820001           [021] call       8   2   2  
005E  5DC20000           [022] getglobal  9   3        ; 738251817
0062  99C20200           [023] loadk      10  11       ; "/Lotus/Sounds/Warframes/StalkerAssassin/StalkerAssassinTease"
0066  62820001           [024] call       9   2   2  
006A  9DC20000           [025] getglobal  10  3        ; 738251817
006E  D9020300           [026] loadk      11  12       ; "/Lotus/Music/Cues/GrineerDeathSquadStalkerMusicSequencer"
0072  A2820001           [027] call       10  2   2  
0076  DD420300           [028] getglobal  11  13       ; -332969190
007A  19830300           [029] loadk      12  14       ; "HeavyCombat"
007E  E2820001           [030] call       11  2   2  
0082  1DC30000           [031] getglobal  12  3        ; 738251817
0086  59C30300           [032] loadk      13  15       ; "/Lotus/Types/Game/MarkerInfos/ObjectiveMarkerInfo"
008A  22830001           [033] call       12  2   2  
008E  5D830100           [034] getglobal  13  6        ; -895206725
0092  99030400           [035] loadk      14  16       ; "/Lotus/Types/Game/MarkerInfos/DefendMarkerInfo"
0096  62830001           [036] call       13  2   2  
009A  9DC30000           [037] getglobal  14  3        ; 738251817
009E  D9430400           [038] loadk      15  17       ; "/Lotus/Types/Friendly/Agents/DarvoDefenseAgent"
00A2  A2830001           [039] call       14  2   2  
00A6  D9830400           [040] loadk      15  18       ; 0
00AA  19840400           [041] loadk      16  18       ; 0
00AE  59C40400           [042] loadk      17  19       ; 0
00B2  9D440300           [043] getglobal  18  13       ; -332969190
00B6  D9040500           [044] loadk      19  20       ; "DefenseMoverKeyIndex"
00BA  A2840001           [045] call       18  2   2  
00BE  DD440300           [046] getglobal  19  13       ; -332969190
00C2  19450500           [047] loadk      20  21       ; "DefenseMoverIsMoving"
00C6  E2840001           [048] call       19  2   2  
00CA  1D450300           [049] getglobal  20  13       ; -332969190
00CE  59850500           [050] loadk      21  22       ; "RandomTeam"
00D2  22850001           [051] call       20  2   2  
00D6  5D450300           [052] getglobal  21  13       ; -332969190
00DA  99C50500           [053] loadk      22  23       ; "MissionBuilder"
00DE  62850001           [054] call       21  2   2  
00E2  9D050600           [055] getglobal  22  24       ; 849075268
00E6  D9450600           [056] loadk      23  25       ; "Lotus.Scripts.Libs.ObjectiveText"
00EA  A2850001           [057] call       22  2   2  
00EE  DD050600           [058] getglobal  23  24       ; 849075268
00F2  19860600           [059] loadk      24  26       ; "Lotus.Interface.LotusUtilities"
00F6  E2850001           [060] call       23  2   2  
00FA  1D060600           [061] getglobal  24  24       ; 849075268
00FE  59C60600           [062] loadk      25  27       ; "Lotus.Scripts.Libs.TransmissionSet"
0102  22860001           [063] call       24  2   2  
0106  5D060600           [064] getglobal  25  24       ; 849075268
010A  99060700           [065] loadk      26  28       ; "Lotus.Scripts.Libs.CommonGamemodeFunctions"
010E  62860001           [066] call       25  2   2  
0112  9D060600           [067] getglobal  26  24       ; 849075268
0116  D9460700           [068] loadk      27  29       ; "Lotus.Scripts.Libs.SquadLink"
011A  A2860001           [069] call       26  2   2  
011E  D9860700           [070] loadk      27  30       ; 0
0122  19C70700           [071] loadk      28  31       ; 0
0126  59070800           [072] loadk      29  32       ; 0
012A  97070000           [073] loadbool   30  0   0    ; false
012E  CB070002           [074] newtable   31  4   0    ; array=4, hash=0
0132  19480800           [075] loadk      32  33       ; 0
0136  59880800           [076] loadk      33  34       ; 0
013A  99C80800           [077] loadk      34  35       ; 0
013E  D9080900           [078] loadk      35  36       ; 0
0142  DB470002           [079] setlist    31  4   1    ; index 1 to 4
0146  0B080002           [080] newtable   32  4   0    ; array=4, hash=0
014A  59480900           [081] loadk      33  37       ; 0
014E  99880900           [082] loadk      34  38       ; 0
0152  D9C80900           [083] loadk      35  39       ; 0
0156  19090A00           [084] loadk      36  40       ; 0
015A  1B480002           [085] setlist    32  4   1    ; index 1 to 4
015E  4B080002           [086] newtable   33  4   0    ; array=4, hash=0
0162  99480800           [087] loadk      34  33       ; 0
0166  D9880800           [088] loadk      35  34       ; 0
016A  19C90800           [089] loadk      36  35       ; 0
016E  59090900           [090] loadk      37  36       ; 0
0172  5B480002           [091] setlist    33  4   1    ; index 1 to 4
0176  8B080002           [092] newtable   34  4   0    ; array=4, hash=0
017A  D9480900           [093] loadk      35  37       ; 0
017E  19890900           [094] loadk      36  38       ; 0
0182  59C90900           [095] loadk      37  39       ; 0
0186  99090A00           [096] loadk      38  40       ; 0
018A  9B480002           [097] setlist    34  4   1    ; index 1 to 4
018E  D9480900           [098] loadk      35  37       ; 0
0192  19490A00           [099] loadk      36  41       ; 0
0196  59490A00           [100] loadk      37  41       ; 0
019A  99890400           [101] loadk      38  18       ; 0
019E  D9890A00           [102] loadk      39  42       ; -92
01A2  198A0400           [103] loadk      40  18       ; 0
01A6  59CA0A00           [104] loadk      41  43       ; 0
01AA  990A0B00           [105] loadk      42  44       ; 0
01AE  D94A0900           [106] loadk      43  37       ; 0
01B2  194B0B00           [107] loadk      44  45       ; 10
01B6  598B0B00           [108] loadk      45  46       ; -102
01BA  9D4B0300           [109] getglobal  46  13       ; -332969190
01BE  D9CB0B00           [110] loadk      47  47       ; "WaveSleepTimer"
01C2  A28B0001           [111] call       46  2   2  
01C6  DD4B0300           [112] getglobal  47  13       ; -332969190
01CA  190C0C00           [113] loadk      48  48       ; "Wave"
01CE  E28B0001           [114] call       47  2   2  
01D2  1D4C0300           [115] getglobal  48  13       ; -332969190
01D6  594C0C00           [116] loadk      49  49       ; "TotalSpawned"
01DA  228C0001           [117] call       48  2   2  
01DE  5D4C0300           [118] getglobal  49  13       ; -332969190
01E2  998C0C00           [119] loadk      50  50       ; "TimeElapsed"
01E6  628C0001           [120] call       49  2   2  
01EA  9D4C0300           [121] getglobal  50  13       ; -332969190
01EE  D9CC0C00           [122] loadk      51  51       ; "LastBossSpawnWave"
01F2  A28C0001           [123] call       50  2   2  
01F6  DD4C0300           [124] getglobal  51  13       ; -332969190
01FA  190D0D00           [125] loadk      52  52       ; "MissionDlgPending"
01FE  E28C0001           [126] call       51  2   2  
0202  1D4D0300           [127] getglobal  52  13       ; -332969190
0206  594D0D00           [128] loadk      53  53       ; "HighscoreMode"
020A  228D0001           [129] call       52  2   2  
020E  5D4D0300           [130] getglobal  53  13       ; -332969190
0212  998D0D00           [131] loadk      54  54       ; "SquadLinkExtraWave"
0216  628D0001           [132] call       53  2   2  
021A  9D4D0300           [133] getglobal  54  13       ; -332969190
021E  D9CD0D00           [134] loadk      55  55       ; "LostTargetWave"
0222  A28D0001           [135] call       54  2   2  
0226  DD4D0300           [136] getglobal  55  13       ; -332969190
022A  190E0E00           [137] loadk      56  56       ; "DefenseTargetCount"
022E  E28D0001           [138] call       55  2   2  
0232  1D4E0300           [139] getglobal  56  13       ; -332969190
0236  594E0E00           [140] loadk      57  57       ; "DefenseTargetsLeft"
023A  228E0001           [141] call       56  2   2  
023E  5D4E0300           [142] getglobal  57  13       ; -332969190
0242  998E0E00           [143] loadk      58  58       ; "WaveDefendDM"
0246  628E0001           [144] call       57  2   2  
024A  9D4E0300           [145] getglobal  58  13       ; -332969190
024E  D9CE0E00           [146] loadk      59  59       ; "WaveDefendII"
0252  A28E0001           [147] call       58  2   2  
0256  DD4E0300           [148] getglobal  59  13       ; -332969190
025A  190F0F00           [149] loadk      60  60       ; "SHOW_PROJECTION_PICKER"
025E  E28E0001           [150] call       59  2   2  
0262  194F0F00           [151] loadk      60  61       ; 0
0266  650F0000           [152] closure    61  0      
026A  A54F0000           [153] closure    62  1      
026E  E58F0000           [154] closure    63  2      
0272  1200801E           [155] move       0   61     
0276  1200800E           [156] move       0   29     
027A  25D00000           [157] closure    64  3      
027E  1200801F           [158] move       0   63     
0282  65100100           [159] closure    65  4      
0286  1200800B           [160] move       0   23     
028A  A5500100           [161] closure    66  5      
028E  1200000A           [162] move       0   20     
0292  E5900100           [163] closure    67  6      
0296  1D510300           [164] getglobal  68  13       ; -332969190
029A  59910F00           [165] loadk      69  62       ; "TENNO"
029E  22910001           [166] call       68  2   2  
02A2  65D10100           [167] closure    69  7      
02A6  A5110200           [168] closure    70  8      
02AA  12008008           [169] move       0   17     
02AE  E5510200           [170] closure    71  9      
02B2  12000018           [171] move       0   48     
02B6  1200001E           [172] move       0   60     
02BA  12008008           [173] move       0   17     
02BE  1200000A           [174] move       0   20     
02C2  12000019           [175] move       0   50     
02C6  12000021           [176] move       0   66     
02CA  25920200           [177] closure    72  10     
02CE  65D20200           [178] closure    73  11     
02D2  12008008           [179] move       0   17     
02D6  A5120300           [180] closure    74  12     
02DA  E5520300           [181] closure    75  13     
02DE  25930300           [182] closure    76  14     
02E2  12008023           [183] move       0   71     
02E6  12008008           [184] move       0   17     
02EA  12008024           [185] move       0   73     
02EE  12008025           [186] move       0   75     
02F2  12000025           [187] move       0   74     
02F6  12000019           [188] move       0   50     
02FA  12000018           [189] move       0   48     
02FE  1200001E           [190] move       0   60     
0302  1200000A           [191] move       0   20     
0306  12000021           [192] move       0   66     
030A  65D30300           [193] closure    77  15     
030E  12000022           [194] move       0   68     
0312  1200801C           [195] move       0   57     
0316  1200000B           [196] move       0   22     
031A  1200800F           [197] move       0   31     
031E  12000010           [198] move       0   32     
0322  12008021           [199] move       0   67     
0326  12008010           [200] move       0   33     
032A  12000011           [201] move       0   34     
032E  12008017           [202] move       0   47     
0332  12008020           [203] move       0   65     
0336  12000020           [204] move       0   64     
033A  12008007           [205] move       0   15     
033E  1200801F           [206] move       0   63     
0342  12008011           [207] move       0   35     
0346  12000008           [208] move       0   16     
034A  12000019           [209] move       0   50     
034E  12008008           [210] move       0   17     
0352  12008022           [211] move       0   69     
0356  12000023           [212] move       0   70     
035A  12000014           [213] move       0   40     
035E  12008015           [214] move       0   43     
0362  12000015           [215] move       0   42     
0366  12008014           [216] move       0   41     
036A  12000016           [217] move       0   44     
036E  12008016           [218] move       0   45     
0372  12000026           [219] move       0   76     
0376  A5130400           [220] closure    78  16     
037A  E5530400           [221] closure    79  17     
037E  25940400           [222] closure    80  18     
0382  12000007           [223] move       0   14     
0386  65D40400           [224] closure    81  19     
038A  12000028           [225] move       0   80     
038E  1200800A           [226] move       0   21     
0392  12008020           [227] move       0   65     
0396  A5140500           [228] closure    82  20     
039A  12008028           [229] move       0   81     
039E  1200801E           [230] move       0   61     
03A2  1200001F           [231] move       0   62     
03A6  12008027           [232] move       0   79     
03AA  12000022           [233] move       0   68     
03AE  12008002           [234] move       0   5      
03B2  12008020           [235] move       0   65     
03B6  12008001           [236] move       0   3      
03BA  12000006           [237] move       0   12     
03BE  12008006           [238] move       0   13     
03C2  E5540500           [239] closure    83  21     
03C6  12008017           [240] move       0   47     
03CA  12008020           [241] move       0   65     
03CE  1200000B           [242] move       0   22     
03D2  12000017           [243] move       0   46     
03D6  12008009           [244] move       0   19     
03DA  25950500           [245] closure    84  22     
03DE  1200001D           [246] move       0   58     
03E2  1200801C           [247] move       0   57     
03E6  65D50500           [248] closure    85  23     
03EA  1200001D           [249] move       0   58     
03EE  1200801C           [250] move       0   57     
03F2  A5150600           [251] closure    86  24     
03F6  1200000F           [252] move       0   30     
03FA  1200002A           [253] move       0   84     
03FE  12008019           [254] move       0   51     
0402  1200802A           [255] move       0   85     
0406  1200000C           [256] move       0   24     
040A  1200800B           [257] move       0   23     
040E  1200801D           [258] move       0   59     
0412  E5550600           [259] closure    87  25     
0416  1200000D           [260] move       0   26     
041A  E0D50F00           [261] setglobal  87  63       ; OnKilled
041E  E0151000           [262] setglobal  87  64       ; 986490728
0422  E5950600           [263] closure    87  26     
0426  25D60600           [264] closure    88  27     
042A  12008003           [265] move       0   7      
042E  12000028           [266] move       0   80     
0432  12000004           [267] move       0   8      
0436  12000003           [268] move       0   6      
043A  12008004           [269] move       0   9      
043E  12000005           [270] move       0   10     
0442  1200000A           [271] move       0   20     
0446  1200001D           [272] move       0   58     
044A  12008005           [273] move       0   11     
044E  65160700           [274] closure    89  28     
0452  A5560700           [275] closure    90  29     
0456  E5960700           [276] closure    91  30     
045A  12008017           [277] move       0   47     
045E  12008011           [278] move       0   35     
0462  12000012           [279] move       0   36     
0466  12008012           [280] move       0   37     
046A  12008013           [281] move       0   39     
046E  12000013           [282] move       0   38     
0472  12008029           [283] move       0   83     
0476  12008019           [284] move       0   51     
047A  12000020           [285] move       0   64     
047E  1200002B           [286] move       0   86     
0482  1200802B           [287] move       0   87     
0486  1200000D           [288] move       0   26     
048A  1200801A           [289] move       0   53     
048E  1200000B           [290] move       0   22     
0492  1200801F           [291] move       0   63     
0496  1200000C           [292] move       0   24     
049A  1200802C           [293] move       0   89     
049E  1200002D           [294] move       0   90     
04A2  12008026           [295] move       0   77     
04A6  12008018           [296] move       0   49     
04AA  1200002C           [297] move       0   88     
04AE  12000000           [298] move       0   0      
04B2  1200800C           [299] move       0   25     
04B6  1200000F           [300] move       0   30     
04BA  1200000E           [301] move       0   28     
04BE  25D70700           [302] closure    92  31     
04C2  1200801B           [303] move       0   55     
04C6  1200001C           [304] move       0   56     
04CA  1200001B           [305] move       0   54     
04CE  1200000C           [306] move       0   24     
04D2  1200000B           [307] move       0   22     
04D6  12000001           [308] move       0   2      
04DA  12000027           [309] move       0   78     
04DE  1200000F           [310] move       0   30     
04E2  12000029           [311] move       0   82     
04E6  1200000D           [312] move       0   26     
04EA  12008018           [313] move       0   49     
04EE  1200001A           [314] move       0   52     
04F2  12008028           [315] move       0   81     
04F6  12008000           [316] move       0   1      
04FA  12008006           [317] move       0   13     
04FE  1200000E           [318] move       0   28     
0502  12008017           [319] move       0   47     
0506  12000017           [320] move       0   46     
050A  12000020           [321] move       0   64     
050E  12000000           [322] move       0   0      
0512  1200801D           [323] move       0   59     
0516  1200802D           [324] move       0   91     
051A  20571000           [325] setglobal  92  65       ; WaveDefense
051E  20971000           [326] setglobal  92  66       ; -125078901
0522  25170800           [327] closure    92  32     
0526  1200800D           [328] move       0   27     
052A  20D71000           [329] setglobal  92  67       ; StartDefenseTimer
052E  20171100           [330] setglobal  92  68       ; -814562702
0532  25570800           [331] closure    92  33     
0536  12008017           [332] move       0   47     
053A  20571100           [333] setglobal  92  69       ; MoveStartObjectsToTarget
053E  20971100           [334] setglobal  92  70       ; 821868400
0542  25970800           [335] closure    92  34     
0546  20D71100           [336] setglobal  92  71       ; MonitorDefenseAvatarHealth
054A  20171200           [337] setglobal  92  72       ; 1662567018
054E  25D70800           [338] closure    92  35     
0552  1200000C           [339] move       0   24     
0556  20571200           [340] setglobal  92  73       ; SetupDefense
055A  20971200           [341] setglobal  92  74       ; -1712423413
055E  25170900           [342] closure    92  36     
0562  65570900           [343] closure    93  37     
0566  12000002           [344] move       0   4      
056A  12008017           [345] move       0   47     
056E  1200002E           [346] move       0   92     
0572  12000009           [347] move       0   18     
0576  12008006           [348] move       0   13     
057A  12008009           [349] move       0   19     
057E  60D71200           [350] setglobal  93  75       ; DefenseMover
0582  60171300           [351] setglobal  93  76       ; -1059712447
0586  65970900           [352] closure    93  38     
058A  12000002           [353] move       0   4      
058E  12000009           [354] move       0   18     
0592  12008009           [355] move       0   19     
0596  60571300           [356] setglobal  93  77       ; DefenseMoverHostMigration
059A  60971300           [357] setglobal  93  78       ; -1983427499
059E  1E008000           [358] return     0   1      
                         * constants:
05A2  4F                 sizek (79)
05A3  03                 const type 3
05A4  00008040           const [0]: (0)
05A8  04                 const type 4
05A9  29                 string size (41)
05AA  2F4C6F7475732F4C+  "/Lotus/L"
05B2  616E67756167652F+  "anguage/"
05BA  4F626A6563746976+  "Objectiv"
05C2  65732F446566656E+  "es/Defen"
05CA  644372796F706F64+  "dCryopod"
05D2  00                 "\0"
                         const [1]: "/Lotus/Language/Objectives/DefendCryopod"
05D3  04                 const type 4
05D4  2F                 string size (47)
05D5  2F4C6F7475732F4C+  "/Lotus/L"
05DD  616E67756167652F+  "anguage/"
05E5  4F626A6563746976+  "Objectiv"
05ED  65732F446566656E+  "es/Defen"
05F5  644C6F6361746543+  "dLocateC"
05FD  72796F706F6400     "ryopod\0"
                         const [2]: "/Lotus/Language/Objectives/DefendLocateCryopod"
0604  01                 const type 3
0605  29D4002C           const [3]: (738251817)
0609  04                 const type 4
060A  21                 string size (33)
060B  2F4C6F7475732F54+  "/Lotus/T"
0613  797065732F47616D+  "ypes/Gam"
061B  652F506574732F50+  "e/Pets/P"
0623  6574417661746172+  "etAvatar"
062B  00                 "\0"
                         const [4]: "/Lotus/Types/Game/Pets/PetAvatar"
062C  04                 const type 4
062D  31                 string size (49)
062E  2F4C6F7475732F54+  "/Lotus/T"
0636  797065732F467269+  "ypes/Fri"
063E  656E646C792F4167+  "endly/Ag"
0646  656E74732F446566+  "ents/Def"
064E  656E736541766174+  "enseAvat"
0656  61724D6F76696E67+  "arMoving"
065E  00                 "\0"
                         const [5]: "/Lotus/Types/Friendly/Agents/DefenseAvatarMoving"
065F  01                 const type 3
0660  BB3AA4CA           const [6]: (-895206725)
0664  04                 const type 4
0665  38                 string size (56)
0666  2F4C6F7475732F54+  "/Lotus/T"
066E  797065732F467269+  "ypes/Fri"
0676  656E646C792F5265+  "endly/Re"
067E  736375652F446566+  "scue/Def"
0686  656E73654167656E+  "enseAgen"
068E  74506174726F6C42+  "tPatrolB"
0696  65686176696F7200   "ehavior\0"
                         const [7]: "/Lotus/Types/Friendly/Rescue/DefenseAgentPatrolBehavior"
069E  04                 const type 4
069F  37                 string size (55)
06A0  2F4C6F7475732F46+  "/Lotus/F"
06A8  782F506F77657273+  "x/Powers"
06B0  7569744162696C69+  "uitAbili"
06B8  746965732F4E696E+  "ties/Nin"
06C0  6A612F536D6F6B65+  "ja/Smoke"
06C8  53637265656E456E+  "ScreenEn"
06D0  645072696D6500     "dPrime\0"
                         const [8]: "/Lotus/Fx/PowersuitAbilities/Ninja/SmokeScreenEndPrime"
06D7  04                 const type 4
06D8  25                 string size (37)
06D9  2F4C6F7475732F4D+  "/Lotus/M"
06E1  6174657269616C73+  "aterials"
06E9  2F506F737446582F+  "/PostFX/"
06F1  5265766976655F76+  "Revive_v"
06F9  2E706E6700         ".png\0"
                         const [9]: "/Lotus/Materials/PostFX/Revive_v.png"
06FE  04                 const type 4
06FF  27                 string size (39)
0700  2F4C6F7475732F4D+  "/Lotus/M"
0708  6174657269616C73+  "aterials"
0710  2F506F737446582F+  "/PostFX/"
0718  436F727075735F52+  "Corpus_R"
0720  5F762E706E6700     "_v.png\0"
                         const [10]: "/Lotus/Materials/PostFX/Corpus_R_v.png"
0727  04                 const type 4
0728  3D                 string size (61)
0729  2F4C6F7475732F53+  "/Lotus/S"
0731  6F756E64732F5761+  "ounds/Wa"
0739  726672616D65732F+  "rframes/"
0741  5374616C6B657241+  "StalkerA"
0749  7373617373696E2F+  "ssassin/"
0751  5374616C6B657241+  "StalkerA"
0759  7373617373696E54+  "ssassinT"
0761  6561736500         "ease\0"
                         const [11]: "/Lotus/Sounds/Warframes/StalkerAssassin/StalkerAssassinTease"
0766  04                 const type 4
0767  39                 string size (57)
0768  2F4C6F7475732F4D+  "/Lotus/M"
0770  757369632F437565+  "usic/Cue"
0778  732F4772696E6565+  "s/Grinee"
0780  7244656174685371+  "rDeathSq"
0788  7561645374616C6B+  "uadStalk"
0790  65724D7573696353+  "erMusicS"
0798  657175656E636572+  "equencer"
07A0  00                 "\0"
                         const [12]: "/Lotus/Music/Cues/GrineerDeathSquadStalkerMusicSequencer"
07A1  01                 const type 3
07A2  1A4B27EC           const [13]: (-332969190)
07A6  04                 const type 4
07A7  0C                 string size (12)
07A8  4865617679436F6D+  "HeavyCom"
07B0  62617400           "bat\0"
                         const [14]: "HeavyCombat"
07B4  04                 const type 4
07B5  32                 string size (50)
07B6  2F4C6F7475732F54+  "/Lotus/T"
07BE  797065732F47616D+  "ypes/Gam"
07C6  652F4D61726B6572+  "e/Marker"
07CE  496E666F732F4F62+  "Infos/Ob"
07D6  6A6563746976654D+  "jectiveM"
07DE  61726B6572496E66+  "arkerInf"
07E6  6F00               "o\0"
                         const [15]: "/Lotus/Types/Game/MarkerInfos/ObjectiveMarkerInfo"
07E8  04                 const type 4
07E9  2F                 string size (47)
07EA  2F4C6F7475732F54+  "/Lotus/T"
07F2  797065732F47616D+  "ypes/Gam"
07FA  652F4D61726B6572+  "e/Marker"
0802  496E666F732F4465+  "Infos/De"
080A  66656E644D61726B+  "fendMark"
0812  6572496E666F00     "erInfo\0"
                         const [16]: "/Lotus/Types/Game/MarkerInfos/DefendMarkerInfo"
0819  04                 const type 4
081A  2F                 string size (47)
081B  2F4C6F7475732F54+  "/Lotus/T"
0823  797065732F467269+  "ypes/Fri"
082B  656E646C792F4167+  "endly/Ag"
0833  656E74732F446172+  "ents/Dar"
083B  766F446566656E73+  "voDefens"
0843  654167656E7400     "eAgent\0"
                         const [17]: "/Lotus/Types/Friendly/Agents/DarvoDefenseAgent"
084A  03                 const type 3
084B  0000A040           const [18]: (0)
084F  03                 const type 3
0850  00001041           const [19]: (0)
0854  04                 const type 4
0855  15                 string size (21)
0856  446566656E73654D+  "DefenseM"
085E  6F7665724B657949+  "overKeyI"
0866  6E64657800         "ndex\0"
                         const [20]: "DefenseMoverKeyIndex"
086B  04                 const type 4
086C  15                 string size (21)
086D  446566656E73654D+  "DefenseM"
0875  6F76657249734D6F+  "overIsMo"
087D  76696E6700         "ving\0"
                         const [21]: "DefenseMoverIsMoving"
0882  04                 const type 4
0883  0B                 string size (11)
0884  52616E646F6D5465+  "RandomTe"
088C  616D00             "am\0"
                         const [22]: "RandomTeam"
088F  04                 const type 4
0890  0F                 string size (15)
0891  4D697373696F6E42+  "MissionB"
0899  75696C64657200     "uilder\0"
                         const [23]: "MissionBuilder"
08A0  01                 const type 3
08A1  44DC9B32           const [24]: (849075268)
08A5  04                 const type 4
08A6  21                 string size (33)
08A7  4C6F7475732E5363+  "Lotus.Sc"
08AF  72697074732E4C69+  "ripts.Li"
08B7  62732E4F626A6563+  "bs.Objec"
08BF  7469766554657874+  "tiveText"
08C7  00                 "\0"
                         const [25]: "Lotus.Scripts.Libs.ObjectiveText"
08C8  04                 const type 4
08C9  1F                 string size (31)
08CA  4C6F7475732E496E+  "Lotus.In"
08D2  746572666163652E+  "terface."
08DA  4C6F747573557469+  "LotusUti"
08E2  6C697469657300     "lities\0"
                         const [26]: "Lotus.Interface.LotusUtilities"
08E9  04                 const type 4
08EA  23                 string size (35)
08EB  4C6F7475732E5363+  "Lotus.Sc"
08F3  72697074732E4C69+  "ripts.Li"
08FB  62732E5472616E73+  "bs.Trans"
0903  6D697373696F6E53+  "missionS"
090B  657400             "et\0"
                         const [27]: "Lotus.Scripts.Libs.TransmissionSet"
090E  04                 const type 4
090F  2B                 string size (43)
0910  4C6F7475732E5363+  "Lotus.Sc"
0918  72697074732E4C69+  "ripts.Li"
0920  62732E436F6D6D6F+  "bs.Commo"
0928  6E47616D656D6F64+  "nGamemod"
0930  6546756E6374696F+  "eFunctio"
0938  6E7300             "ns\0"
                         const [28]: "Lotus.Scripts.Libs.CommonGamemodeFunctions"
093B  04                 const type 4
093C  1D                 string size (29)
093D  4C6F7475732E5363+  "Lotus.Sc"
0945  72697074732E4C69+  "ripts.Li"
094D  62732E5371756164+  "bs.Squad"
0955  4C696E6B00         "Link\0"
                         const [29]: "Lotus.Scripts.Libs.SquadLink"
095A  03                 const type 3
095B  00003443           const [30]: (0)
095F  03                 const type 3
0960  0000C040           const [31]: (0)
0964  03                 const type 3
0965  00007041           const [32]: (0)
0969  03                 const type 3
096A  0000E040           const [33]: (0)
096E  03                 const type 3
096F  00005041           const [34]: (0)
0973  03                 const type 3
0974  0000B041           const [35]: (0)
0978  03                 const type 3
0979  0000C841           const [36]: (0)
097D  03                 const type 3
097E  00002041           const [37]: (0)
0982  03                 const type 3
0983  0000A041           const [38]: (0)
0987  03                 const type 3
0988  0000D041           const [39]: (0)
098C  03                 const type 3
098D  0000E841           const [40]: (0)
0991  03                 const type 3
0992  0000B442           const [41]: (0)
0996  03                 const type 3
0997  A4707D3F           const [42]: (-92)
099B  03                 const type 3
099C  00000C42           const [43]: (0)
09A0  03                 const type 3
09A1  00000000           const [44]: (0)
09A5  03                 const type 3
09A6  0AD7A33C           const [45]: (10)
09AA  03                 const type 3
09AB  9A99193E           const [46]: (-102)
09AF  04                 const type 4
09B0  0F                 string size (15)
09B1  57617665536C6565+  "WaveSlee"
09B9  7054696D657200     "pTimer\0"
                         const [47]: "WaveSleepTimer"
09C0  04                 const type 4
09C1  05                 string size (5)
09C2  5761766500         "Wave\0"
                         const [48]: "Wave"
09C7  04                 const type 4
09C8  0D                 string size (13)
09C9  546F74616C537061+  "TotalSpa"
09D1  776E656400         "wned\0"
                         const [49]: "TotalSpawned"
09D6  04                 const type 4
09D7  0C                 string size (12)
09D8  54696D65456C6170+  "TimeElap"
09E0  73656400           "sed\0"
                         const [50]: "TimeElapsed"
09E4  04                 const type 4
09E5  12                 string size (18)
09E6  4C617374426F7373+  "LastBoss"
09EE  537061776E576176+  "SpawnWav"
09F6  6500               "e\0"
                         const [51]: "LastBossSpawnWave"
09F8  04                 const type 4
09F9  12                 string size (18)
09FA  4D697373696F6E44+  "MissionD"
0A02  6C6750656E64696E+  "lgPendin"
0A0A  6700               "g\0"
                         const [52]: "MissionDlgPending"
0A0C  04                 const type 4
0A0D  0E                 string size (14)
0A0E  4869676873636F72+  "Highscor"
0A16  654D6F646500       "eMode\0"
                         const [53]: "HighscoreMode"
0A1C  04                 const type 4
0A1D  13                 string size (19)
0A1E  53717561644C696E+  "SquadLin"
0A26  6B45787472615761+  "kExtraWa"
0A2E  766500             "ve\0"
                         const [54]: "SquadLinkExtraWave"
0A31  04                 const type 4
0A32  0F                 string size (15)
0A33  4C6F737454617267+  "LostTarg"
0A3B  65745761766500     "etWave\0"
                         const [55]: "LostTargetWave"
0A42  04                 const type 4
0A43  13                 string size (19)
0A44  446566656E736554+  "DefenseT"
0A4C  6172676574436F75+  "argetCou"
0A54  6E7400             "nt\0"
                         const [56]: "DefenseTargetCount"
0A57  04                 const type 4
0A58  13                 string size (19)
0A59  446566656E736554+  "DefenseT"
0A61  6172676574734C65+  "argetsLe"
0A69  667400             "ft\0"
                         const [57]: "DefenseTargetsLeft"
0A6C  04                 const type 4
0A6D  0D                 string size (13)
0A6E  5761766544656665+  "WaveDefe"
0A76  6E64444D00         "ndDM\0"
                         const [58]: "WaveDefendDM"
0A7B  04                 const type 4
0A7C  0D                 string size (13)
0A7D  5761766544656665+  "WaveDefe"
0A85  6E64494900         "ndII\0"
                         const [59]: "WaveDefendII"
0A8A  04                 const type 4
0A8B  17                 string size (23)
0A8C  53484F575F50524F+  "SHOW_PRO"
0A94  4A454354494F4E5F+  "JECTION_"
0A9C  5049434B455200     "PICKER\0"
                         const [60]: "SHOW_PROJECTION_PICKER"
0AA3  03                 const type 3
0AA4  00000045           const [61]: (0)
0AA8  04                 const type 4
0AA9  06                 string size (6)
0AAA  54454E4E4F00       "TENNO\0"
                         const [62]: "TENNO"
0AB0  04                 const type 4
0AB1  09                 string size (9)
0AB2  4F6E4B696C6C6564+  "OnKilled"
0ABA  00                 "\0"
                         const [63]: "OnKilled"
0ABB  01                 const type 3
0ABC  68A7CC3A           const [64]: (986490728)
0AC0  04                 const type 4
0AC1  0C                 string size (12)
0AC2  5761766544656665+  "WaveDefe"
0ACA  6E736500           "nse\0"
                         const [65]: "WaveDefense"
0ACE  01                 const type 3
0ACF  8B728BF8           const [66]: (-125078901)
0AD3  04                 const type 4
0AD4  12                 string size (18)
0AD5  5374617274446566+  "StartDef"
0ADD  656E736554696D65+  "enseTime"
0AE5  7200               "r\0"
                         const [67]: "StartDefenseTimer"
0AE7  01                 const type 3
0AE8  72C272CF           const [68]: (-814562702)
0AEC  04                 const type 4
0AED  19                 string size (25)
0AEE  4D6F766553746172+  "MoveStar"
0AF6  744F626A65637473+  "tObjects"
0AFE  546F546172676574+  "ToTarget"
0B06  00                 "\0"
                         const [69]: "MoveStartObjectsToTarget"
0B07  01                 const type 3
0B08  70B7FC30           const [70]: (821868400)
0B0C  04                 const type 4
0B0D  1B                 string size (27)
0B0E  4D6F6E69746F7244+  "MonitorD"
0B16  6566656E73654176+  "efenseAv"
0B1E  617461724865616C+  "atarHeal"
0B26  746800             "th\0"
                         const [71]: "MonitorDefenseAvatarHealth"
0B29  01                 const type 3
0B2A  6AC21863           const [72]: (1662567018)
0B2E  04                 const type 4
0B2F  0D                 string size (13)
0B30  5365747570446566+  "SetupDef"
0B38  656E736500         "ense\0"
                         const [73]: "SetupDefense"
0B3D  01                 const type 3
0B3E  0B7EEE99           const [74]: (-1712423413)
0B42  04                 const type 4
0B43  0D                 string size (13)
0B44  446566656E73654D+  "DefenseM"
0B4C  6F76657200         "over\0"
                         const [75]: "DefenseMover"
0B51  01                 const type 3
0B52  4112D6C0           const [76]: (-1059712447)
0B56  04                 const type 4
0B57  1A                 string size (26)
0B58  446566656E73654D+  "DefenseM"
0B60  6F766572486F7374+  "overHost"
0B68  4D6967726174696F+  "Migratio"
0B70  6E00               "n\0"
                         const [77]: "DefenseMoverHostMigration"
0B72  01                 const type 3
0B73  554CC789           const [78]: (-1983427499)
                         * functions:
0B77  27                 sizep (39)
                         
0B78                     ** function [0] definition (level 2)
                         ** start of function **
0B78  00                 string size (0)
                         source name: (none)
0B7A  01                 line defined (141)
0B7B  90                 last line defined (144)
0B7C  01                 nups (0)
0B7D  00                 numparams (0)
0B7E  00                 is_vararg (0)
0B7F  00                 maxstacksize (3)
                         * code:
0B81  11                 sizecode (17)
0B82  1D000000           [01] getglobal  0   0        ; gGameRules
0B86  24404000           [02] self       0   0   257  ; -1201441975
0B8A  22800001           [03] call       0   2   2  
0B8E  4E804000           [04] gettable   1   0   258  ; "alertId"
fail op	35
0B92  23C0C000           [05] close      0  
0B96  1AC00180           [06] jmp        8            ; to [15]
0B9A  4E004100           [07] gettable   1   0   260  ; "invasionId"
fail op	35
0B9E  23C0C000           [08] close      0  
0BA2  1A000180           [09] jmp        5            ; to [15]
0BA6  4E404100           [10] gettable   1   0   261  ; "syndicateTag"
0BAA  6480C100           [11] self       1   1   262  ; 828278287
0BAE  62800001           [12] call       1   2   2  
0BB2  1A400080           [13] jmp        2            ; to [16]
0BB6  57400000           [14] loadbool   1   0   1    ; false, to [16]
0BBA  57008000           [15] loadbool   1   1   0    ; true
0BBE  5E000001           [16] return     1   2      
0BC2  1E008000           [17] return     0   1      
                         * constants:
0BC6  07                 sizek (7)
0BC7  04                 const type 4
0BC8  0B                 string size (11)
0BC9  6747616D6552756C+  "gGameRul"
0BD1  657300             "es\0"
                         const [0]: "gGameRules"
0BD4  01                 const type 3
0BD5  497363B8           const [1]: (-1201441975)
0BD9  04                 const type 4
0BDA  08                 string size (8)
0BDB  616C657274496400   "alertId\0"
                         const [2]: "alertId"
0BE3  04                 const type 4
0BE4  01                 string size (0)
                         const [3]: ""
0BE6  04                 const type 4
0BE7  0B                 string size (11)
0BE8  696E766173696F6E+  "invasion"
0BF0  496400             "Id\0"
                         const [4]: "invasionId"
0BF3  04                 const type 4
0BF4  0D                 string size (13)
0BF5  73796E6469636174+  "syndicat"
0BFD  6554616700         "eTag\0"
                         const [5]: "syndicateTag"
0C02  01                 const type 3
0C03  0F865E31           const [6]: (828278287)
                         * functions:
0C07  00                 sizep (0)
                         * lines:
0C08  11                 sizelineinfo (17)
                         [pc] (line)
0C09  8E                 [01] (-114)
0C0A  00                 [02] (-114)
0C0B  00                 [03] (-114)
0C0C  00                 [04] (-113)
0C0D  8E                 [05] (-113)
0C0E  00                 [06] (-113)
0C0F  00                 [07] (-113)
0C10  00                 [08] (-113)
0C11  8E                 [09] (-113)
0C12  00                 [10] (-113)
0C13  00                 [11] (-113)
0C14  00                 [12] (-113)
0C15  8F                 [13] (-113)
0C16  00                 [14] (-113)
0C17  00                 [15] (-113)
0C18  00                 [16] (-113)
0C19  8F                 [17] (-112)
                         * locals:
0C4D  00                 sizelocvars (0)
                         * upvalues:
0C4E  00                 sizeupvalues (0)
                         ** end of function **

                         
0C4F                     ** function [1] definition (level 2)
                         ** start of function **
0C4F  00                 string size (0)
                         source name: (none)
0C51  01                 line defined (146)
0C52  94                 last line defined (148)
0C53  01                 nups (0)
0C54  00                 numparams (0)
0C55  00                 is_vararg (0)
0C56  00                 maxstacksize (2)
                         * code:
0C58  0F                 sizecode (15)
0C59  1D000000           [01] getglobal  0   0        ; gGameRules
0C5D  24404000           [02] self       0   0   257  ; -1201441975
0C61  22800001           [03] call       0   2   2  
0C65  0E804000           [04] gettable   0   0   258  ; "invasionId"
fail op	35
0C69  23C04000           [05] close      0  
0C6D  1A400180           [06] jmp        6            ; to [13]
0C71  1D000000           [07] getglobal  0   0        ; gGameRules
0C75  24404000           [08] self       0   0   257  ; -1201441975
0C79  22800001           [09] call       0   2   2  
0C7D  0E004100           [10] gettable   0   0   260  ; "forceAllyFaction"
0C81  1A400080           [11] jmp        2            ; to [14]
0C85  17400000           [12] loadbool   0   0   1    ; false, to [14]
0C89  17008000           [13] loadbool   0   1   0    ; true
0C8D  1E000001           [14] return     0   2      
0C91  1E008000           [15] return     0   1      
                         * constants:
0C95  05                 sizek (5)
0C96  04                 const type 4
0C97  0B                 string size (11)
0C98  6747616D6552756C+  "gGameRul"
0CA0  657300             "es\0"
                         const [0]: "gGameRules"
0CA3  01                 const type 3
0CA4  497363B8           const [1]: (-1201441975)
0CA8  04                 const type 4
0CA9  0B                 string size (11)
0CAA  696E766173696F6E+  "invasion"
0CB2  496400             "Id\0"
                         const [2]: "invasionId"
0CB5  04                 const type 4
0CB6  01                 string size (0)
                         const [3]: ""
0CB8  04                 const type 4
0CB9  11                 string size (17)
0CBA  666F726365416C6C+  "forceAll"
0CC2  7946616374696F6E+  "yFaction"
0CCA  00                 "\0"
                         const [4]: "forceAllyFaction"
                         * functions:
0CCB  00                 sizep (0)
                         * lines:
0CCC  0F                 sizelineinfo (15)
                         [pc] (line)
0CCD  93                 [01] (-109)
0CCE  00                 [02] (-109)
0CCF  00                 [03] (-109)
0CD0  00                 [04] (-109)
0CD1  93                 [05] (-109)
0CD2  00                 [06] (-109)
0CD3  00                 [07] (-109)
0CD4  00                 [08] (-109)
0CD5  93                 [09] (-109)
0CD6  00                 [10] (-109)
0CD7  00                 [11] (-109)
0CD8  00                 [12] (-109)
0CD9  93                 [13] (-109)
0CDA  00                 [14] (-109)
0CDB  00                 [15] (-108)
                         * locals:
0D09  00                 sizelocvars (0)
                         * upvalues:
0D0A  00                 sizeupvalues (0)
                         ** end of function **

                         
0D0B                     ** function [2] definition (level 2)
                         ** start of function **
0D0B  00                 string size (0)
                         source name: (none)
0D0D  01                 line defined (150)
0D0E  9E                 last line defined (158)
0D0F  01                 nups (2)
0D10  02                 numparams (0)
0D11  00                 is_vararg (0)
0D12  00                 maxstacksize (2)
                         * code:
0D14  0D                 sizecode (13)
0D15  1D000000           [01] getglobal  0   0        ; gGameRules
0D19  24404000           [02] self       0   0   257  ; -1201441975
0D1D  22800001           [03] call       0   2   2  
0D21  0E804000           [04] gettable   0   0   258  ; "maxWaveNum"
0D25  53000000           [05] getupval   1   0      
0D29  62808000           [06] call       1   1   2  
0D2D  58000000           [07] test       1       0    ; to [9] if true
0D31  1A800080           [08] jmp        3            ; to [12]
fail op	35
0D35  23C04000           [09] close      0  
0D39  1A000080           [10] jmp        1            ; to [12]
0D3D  13008000           [11] getupval   0   1      
0D41  1E000001           [12] return     0   2      
0D45  1E008000           [13] return     0   1      
                         * constants:
0D49  04                 sizek (4)
0D4A  04                 const type 4
0D4B  0B                 string size (11)
0D4C  6747616D6552756C+  "gGameRul"
0D54  657300             "es\0"
                         const [0]: "gGameRules"
0D57  01                 const type 3
0D58  497363B8           const [1]: (-1201441975)
0D5C  04                 const type 4
0D5D  0B                 string size (11)
0D5E  6D6178576176654E+  "maxWaveN"
0D66  756D00             "um\0"
                         const [2]: "maxWaveNum"
0D69  03                 const type 3
0D6A  00000000           const [3]: (0)
                         * functions:
0D6E  00                 sizep (0)
                         * lines:
0D6F  0D                 sizelineinfo (13)
                         [pc] (line)
0D70  97                 [01] (-105)
0D71  00                 [02] (-105)
0D72  00                 [03] (-105)
0D73  00                 [04] (-105)
0D74  97                 [05] (-104)
0D75  00                 [06] (-104)
0D76  00                 [07] (-104)
0D77  00                 [08] (-104)
0D78  97                 [09] (-104)
0D79  00                 [10] (-104)
0D7A  00                 [11] (-102)
0D7B  00                 [12] (-99)
0D7C  97                 [13] (-98)
                         * locals:
0DA4  00                 sizelocvars (0)
                         * upvalues:
0DA5  00                 sizeupvalues (0)
                         ** end of function **

                         
0DA6                     ** function [3] definition (level 2)
                         ** start of function **
0DA6  00                 string size (0)
                         source name: (none)
0DA8  01                 line defined (160)
0DA9  A2                 last line defined (162)
0DAA  01                 nups (1)
0DAB  01                 numparams (0)
0DAC  00                 is_vararg (0)
0DAD  00                 maxstacksize (2)
                         * code:
0DAF  08                 sizecode (8)
0DB0  13000000           [1] getupval   0   0      
0DB4  22808000           [2] call       0   1   2  
fail op	35
0DB8  63004000           [3] close      1  
0DBC  1A000080           [4] jmp        1            ; to [6]
0DC0  17400000           [5] loadbool   0   0   1    ; false, to [7]
0DC4  17008000           [6] loadbool   0   1   0    ; true
0DC8  1E000001           [7] return     0   2      
0DCC  1E008000           [8] return     0   1      
                         * constants:
0DD0  01                 sizek (1)
0DD1  03                 const type 3
0DD2  00000000           const [0]: (0)
                         * functions:
0DD6  00                 sizep (0)
                         * lines:
0DD7  08                 sizelineinfo (8)
                         [pc] (line)
0DD8  A1                 [1] (-95)
0DD9  00                 [2] (-95)
0DDA  00                 [3] (-95)
0DDB  00                 [4] (-95)
0DDC  A1                 [5] (-95)
0DDD  00                 [6] (-95)
0DDE  00                 [7] (-95)
0DDF  00                 [8] (-94)
                         * locals:
0DF8  00                 sizelocvars (0)
                         * upvalues:
0DF9  00                 sizeupvalues (0)
                         ** end of function **

                         
0DFA                     ** function [4] definition (level 2)
                         ** start of function **
0DFA  00                 string size (0)
                         source name: (none)
0DFC  01                 line defined (164)
0DFD  A6                 last line defined (166)
0DFE  01                 nups (1)
0DFF  01                 numparams (0)
0E00  00                 is_vararg (0)
0E01  00                 maxstacksize (2)
                         * code:
0E03  14                 sizecode (20)
0E04  1D000000           [01] getglobal  0   0        ; gGameRules
0E08  24404000           [02] self       0   0   257  ; -1201441975
0E0C  22800001           [03] call       0   2   2  
0E10  0E804000           [04] gettable   0   0   258  ; "periodicMissionTag"
0E14  53000000           [05] getupval   1   0      
0E18  4EC0C000           [06] gettable   1   1   259  ; "ELITE_ALERT_PERIODIC_MISSION_TAG"
fail op	35
0E1C  63400000           [07] close      1  
0E20  1A000280           [08] jmp        9            ; to [18]
0E24  1D000000           [09] getglobal  0   0        ; gGameRules
0E28  24404000           [10] self       0   0   257  ; -1201441975
0E2C  22800001           [11] call       0   2   2  
0E30  0E804000           [12] gettable   0   0   258  ; "periodicMissionTag"
0E34  53000000           [13] getupval   1   0      
0E38  4E00C100           [14] gettable   1   1   260  ; "ELITE_ALERT_PERIODIC_MISSION_TAG_ALT"
fail op	35
0E3C  63400000           [15] close      1  
0E40  1A000080           [16] jmp        1            ; to [18]
0E44  17400000           [17] loadbool   0   0   1    ; false, to [19]
0E48  17008000           [18] loadbool   0   1   0    ; true
0E4C  1E000001           [19] return     0   2      
0E50  1E008000           [20] return     0   1      
                         * constants:
0E54  05                 sizek (5)
0E55  04                 const type 4
0E56  0B                 string size (11)
0E57  6747616D6552756C+  "gGameRul"
0E5F  657300             "es\0"
                         const [0]: "gGameRules"
0E62  01                 const type 3
0E63  497363B8           const [1]: (-1201441975)
0E67  04                 const type 4
0E68  13                 string size (19)
0E69  706572696F646963+  "periodic"
0E71  4D697373696F6E54+  "MissionT"
0E79  616700             "ag\0"
                         const [2]: "periodicMissionTag"
0E7C  04                 const type 4
0E7D  21                 string size (33)
0E7E  454C4954455F414C+  "ELITE_AL"
0E86  4552545F50455249+  "ERT_PERI"
0E8E  4F4449435F4D4953+  "ODIC_MIS"
0E96  53494F4E5F544147+  "SION_TAG"
0E9E  00                 "\0"
                         const [3]: "ELITE_ALERT_PERIODIC_MISSION_TAG"
0E9F  04                 const type 4
0EA0  25                 string size (37)
0EA1  454C4954455F414C+  "ELITE_AL"
0EA9  4552545F50455249+  "ERT_PERI"
0EB1  4F4449435F4D4953+  "ODIC_MIS"
0EB9  53494F4E5F544147+  "SION_TAG"
0EC1  5F414C5400         "_ALT\0"
                         const [4]: "ELITE_ALERT_PERIODIC_MISSION_TAG_ALT"
                         * functions:
0EC6  00                 sizep (0)
                         * lines:
0EC7  14                 sizelineinfo (20)
                         [pc] (line)
0EC8  A5                 [01] (-91)
0EC9  00                 [02] (-91)
0ECA  00                 [03] (-91)
0ECB  00                 [04] (-91)
0ECC  A5                 [05] (-91)
0ECD  00                 [06] (-91)
0ECE  00                 [07] (-91)
0ECF  00                 [08] (-91)
0ED0  A5                 [09] (-91)
0ED1  00                 [10] (-91)
0ED2  00                 [11] (-91)
0ED3  00                 [12] (-91)
0ED4  A5                 [13] (-91)
0ED5  00                 [14] (-91)
0ED6  00                 [15] (-91)
0ED7  00                 [16] (-91)
0ED8  A5                 [17] (-91)
0ED9  00                 [18] (-91)
0EDA  00                 [19] (-91)
0EDB  00                 [20] (-90)
                         * locals:
0F18  00                 sizelocvars (0)
                         * upvalues:
0F19  00                 sizeupvalues (0)
                         ** end of function **

                         
0F1A                     ** function [5] definition (level 2)
                         ** start of function **
0F1A  00                 string size (0)
                         source name: (none)
0F1C  01                 line defined (168)
0F1D  B0                 last line defined (176)
0F1E  01                 nups (1)
0F1F  01                 numparams (2)
0F20  02                 is_vararg (0)
0F21  00                 maxstacksize (6)
                         * code:
0F23  15                 sizecode (21)
0F24  A4004000           [01] self       2   0   256  ; -1272115292
0F28  13010000           [02] getupval   4   0      
0F2C  A2408001           [03] call       2   3   1  
0F30  A4404000           [04] self       2   0   257  ; -1850937571
0F34  A2400001           [05] call       2   2   1  
0F38  A4804000           [06] self       2   0   258  ; -1187710491
0F3C  17010000           [07] loadbool   4   0   0    ; false
0F40  A2408001           [08] call       2   3   1  
0F44  A4C04000           [09] self       2   0   259  ; 1594371397
0F48  17018000           [10] loadbool   4   1   0    ; true
0F4C  A2408001           [11] call       2   3   1  
0F50  A4004100           [12] self       2   0   260  ; -2010255519
0F54  17018000           [13] loadbool   4   1   0    ; true
0F58  A2408001           [14] call       2   3   1  
0F5C  A4404100           [15] self       2   0   261  ; 265918238
0F60  17018000           [16] loadbool   4   1   0    ; true
0F64  59810100           [17] loadk      5   6        ; 0
0F68  A2400002           [18] call       2   4   1  
0F6C  A4404000           [19] self       2   0   257  ; -1850937571
0F70  A2400001           [20] call       2   2   1  
0F74  1E008000           [21] return     0   1      
                         * constants:
0F78  07                 sizek (7)
0F79  01                 const type 3
0F7A  A40F2DB4           const [0]: (-1272115292)
0F7E  01                 const type 3
0F7F  1DEFAC91           const [1]: (-1850937571)
0F83  01                 const type 3
0F84  E5F934B9           const [2]: (-1187710491)
0F88  01                 const type 3
0F89  452D085F           const [3]: (1594371397)
0F8D  01                 const type 3
0F8E  61EF2D88           const [4]: (-2010255519)
0F92  01                 const type 3
0F93  1E97D90F           const [5]: (265918238)
0F97  03                 const type 3
0F98  00004842           const [6]: (0)
                         * functions:
0F9C  00                 sizep (0)
                         * lines:
0F9D  15                 sizelineinfo (21)
                         [pc] (line)
0F9E  A9                 [01] (-87)
0F9F  00                 [02] (-87)
0FA0  00                 [03] (-87)
0FA1  00                 [04] (-86)
0FA2  A9                 [05] (-86)
0FA3  00                 [06] (-85)
0FA4  00                 [07] (-85)
0FA5  00                 [08] (-85)
0FA6  A9                 [09] (-84)
0FA7  00                 [10] (-84)
0FA8  00                 [11] (-84)
0FA9  00                 [12] (-83)
0FAA  AA                 [13] (-83)
0FAB  00                 [14] (-83)
0FAC  00                 [15] (-82)
0FAD  00                 [16] (-82)
0FAE  AA                 [17] (-82)
0FAF  00                 [18] (-82)
0FB0  00                 [19] (-81)
0FB1  00                 [20] (-81)
0FB2  AB                 [21] (-80)
                         * locals:
0FF2  00                 sizelocvars (0)
                         * upvalues:
0FF3  00                 sizeupvalues (0)
                         ** end of function **

                         
0FF4                     ** function [6] definition (level 2)
                         ** start of function **
0FF4  00                 string size (0)
                         source name: (none)
0FF6  01                 line defined (178)
0FF7  B9                 last line defined (185)
0FF8  01                 nups (0)
0FF9  00                 numparams (0)
0FFA  00                 is_vararg (0)
0FFB  00                 maxstacksize (4)
                         * code:
0FFD  18                 sizecode (24)
0FFE  1D000000           [01] getglobal  0   0        ; 1074689893
1002  5D400000           [02] getglobal  1   1        ; _T
1006  4E80C000           [03] gettable   1   1   258  ; "EndlessModeEnemyLevel"
100A  22800001           [04] call       0   2   2  
100E  18000000           [05] test       0       0    ; to [7] if true
1012  1A000280           [06] jmp        9            ; to [16]
1016  1DC00000           [07] getglobal  0   3        ; gRegion
101A  24004100           [08] self       0   0   260  ; -774964848
101E  22800001           [09] call       0   2   2  
1022  24404100           [10] self       0   0   261  ; 537471347
1026  22800001           [11] call       0   2   2  
102A  5D400000           [12] getglobal  1   1        ; _T
102E  A4804100           [13] self       2   0   262  ; -472735398
1032  A2800001           [14] call       2   2   2  
1036  4C800081           [15] settable   1   258 2    ; "EndlessModeEnemyLevel"
103A  5DC00100           [16] getglobal  1   7        ; math
103E  4E00C200           [17] gettable   1   1   264  ; 1710846250
1042  9D400000           [18] getglobal  2   1        ; _T
1046  8E804001           [19] gettable   2   2   258  ; "EndlessModeEnemyLevel"
104A  9C404201           [20] div        2   2   265  ; 0
104E  D9800200           [21] loadk      3   10       ; 0
1052  62808001           [22] call       1   3   2  
1056  5E000001           [23] return     1   2      
105A  1E008000           [24] return     0   1      
                         * constants:
105E  0B                 sizek (11)
105F  01                 const type 3
1060  65770E40           const [0]: (1074689893)
1064  04                 const type 4
1065  03                 string size (3)
1066  5F5400             "_T\0"
                         const [1]: "_T"
1069  04                 const type 4
106A  16                 string size (22)
106B  456E646C6573734D+  "EndlessM"
1073  6F6465456E656D79+  "odeEnemy"
107B  4C6576656C00       "Level\0"
                         const [2]: "EndlessModeEnemyLevel"
1081  04                 const type 4
1082  08                 string size (8)
1083  67526567696F6E00   "gRegion\0"
                         const [3]: "gRegion"
108B  01                 const type 3
108C  90F9CED1           const [4]: (-774964848)
1090  01                 const type 3
1091  73290920           const [5]: (537471347)
1095  01                 const type 3
1096  5AA1D2E3           const [6]: (-472735398)
109A  04                 const type 4
109B  05                 string size (5)
109C  6D61746800         "math\0"
                         const [7]: "math"
10A1  01                 const type 3
10A2  2A71F965           const [8]: (1710846250)
10A6  03                 const type 3
10A7  0000F041           const [9]: (0)
10AB  03                 const type 3
10AC  0000803F           const [10]: (0)
                         * functions:
10B0  00                 sizep (0)
                         * lines:
10B1  18                 sizelineinfo (24)
                         [pc] (line)
10B2  B3                 [01] (-77)
10B3  00                 [02] (-77)
10B4  00                 [03] (-77)
10B5  00                 [04] (-77)
10B6  B3                 [05] (-77)
10B7  00                 [06] (-77)
10B8  00                 [07] (-76)
10B9  00                 [08] (-76)
10BA  B3                 [09] (-76)
10BB  00                 [10] (-76)
10BC  00                 [11] (-76)
10BD  00                 [12] (-75)
10BE  B3                 [13] (-75)
10BF  00                 [14] (-75)
10C0  00                 [15] (-75)
10C1  00                 [16] (-73)
10C2  B3                 [17] (-73)
10C3  00                 [18] (-73)
10C4  00                 [19] (-73)
10C5  00                 [20] (-73)
10C6  B3                 [21] (-73)
10C7  00                 [22] (-73)
10C8  00                 [23] (-72)
10C9  00                 [24] (-71)
                         * locals:
1112  00                 sizelocvars (0)
                         * upvalues:
1113  00                 sizeupvalues (0)
                         ** end of function **

                         
1114                     ** function [7] definition (level 2)
                         ** start of function **
1114  00                 string size (0)
                         source name: (none)
1116  01                 line defined (190)
1117  CE                 last line defined (206)
1118  01                 nups (0)
1119  00                 numparams (1)
111A  01                 is_vararg (0)
111B  00                 maxstacksize (12)
                         * code:
111D  1F                 sizecode (31)
111E  5D000000           [01] getglobal  1   0        ; firstBossTier
1122  9D000000           [02] getglobal  2   0        ; firstBossTier
1126  83000001           [03] add        2   2   0  
112A  8D404001           [04] sub        2   2   257  ; 0
112E  DD800000           [05] getglobal  3   2        ; gGameRules
1132  24C1C001           [06] self       4   3   259  ; -1201441975
1136  22810001           [07] call       4   2   2  
113A  0E014102           [08] gettable   4   4   260  ; "enemySpec"
113E  5D410100           [09] getglobal  5   5        ; 1074689893
1142  92010002           [10] move       6   4      
1146  62810001           [11] call       5   2   2  
114A  58010000           [12] test       5       0    ; to [14] if true
114E  1A000080           [13] jmp        1            ; to [15]
1152  9E000001           [14] return     2   2      
1156  64814102           [15] self       5   4   262  ; 1891965785
115A  62810001           [16] call       5   2   2  
115E  9DC10100           [17] getglobal  6   7        ; 248503575
1162  D2018002           [18] move       7   5      
1166  A2010101           [19] call       6   2   4  
116A  1A800180           [20] jmp        7            ; to [28]
116E  CE024205           [21] gettable   11  10  264  ; "tier"
fail op	21
1172  15C08200           [22] concat     0   1   11 
1176  1AC00080           [23] jmp        4            ; to [28]
117A  CE024205           [24] gettable   11  10  264  ; "tier"
fail op	33
117E  21808005           [25] tforloop   0       2    ; to [27] if exit
1182  1A000080           [26] jmp        1            ; to [28]
1186  4E004205           [27] gettable   1   10  264  ; "tier"
118A  96810000           [28] tforloop   6       2    ; to [30] if exit
118E  1A80FD7F           [29] jmp        -9           ; to [21]
1192  5E000001           [30] return     1   2      
1196  1E008000           [31] return     0   1      
                         * constants:
119A  09                 sizek (9)
119B  04                 const type 4
119C  0E                 string size (14)
119D  6669727374426F73+  "firstBos"
11A5  735469657200       "sTier\0"
                         const [0]: "firstBossTier"
11AB  03                 const type 3
11AC  0000803F           const [1]: (0)
11B0  04                 const type 4
11B1  0B                 string size (11)
11B2  6747616D6552756C+  "gGameRul"
11BA  657300             "es\0"
                         const [2]: "gGameRules"
11BD  01                 const type 3
11BE  497363B8           const [3]: (-1201441975)
11C2  04                 const type 4
11C3  0A                 string size (10)
11C4  656E656D79537065+  "enemySpe"
11CC  6300               "c\0"
                         const [4]: "enemySpec"
11CE  01                 const type 3
11CF  65770E40           const [5]: (1074689893)
11D3  01                 const type 3
11D4  591BC570           const [6]: (1891965785)
11D8  01                 const type 3
11D9  17DDCF0E           const [7]: (248503575)
11DD  04                 const type 4
11DE  05                 string size (5)
11DF  7469657200         "tier\0"
                         const [8]: "tier"
                         * functions:
11E4  00                 sizep (0)
                         * lines:
11E5  1F                 sizelineinfo (31)
                         [pc] (line)
11E6  BF                 [01] (-65)
11E7  00                 [02] (-64)
11E8  00                 [03] (-64)
11E9  00                 [04] (-64)
11EA  C0                 [05] (-63)
11EB  00                 [06] (-62)
11EC  00                 [07] (-62)
11ED  00                 [08] (-62)
11EE  C0                 [09] (-61)
11EF  00                 [10] (-61)
11F0  00                 [11] (-61)
11F1  00                 [12] (-61)
11F2  C0                 [13] (-61)
11F3  00                 [14] (-60)
11F4  00                 [15] (-57)
11F5  00                 [16] (-57)
11F6  C1                 [17] (-56)
11F7  00                 [18] (-56)
11F8  00                 [19] (-56)
11F9  00                 [20] (-56)
11FA  C2                 [21] (-55)
11FB  00                 [22] (-55)
11FC  00                 [23] (-55)
11FD  00                 [24] (-55)
11FE  C2                 [25] (-55)
11FF  00                 [26] (-55)
1200  00                 [27] (-54)
1201  00                 [28] (-56)
1202  C2                 [29] (-53)
1203  00                 [30] (-51)
1204  00                 [31] (-50)
                         * locals:
1262  00                 sizelocvars (0)
                         * upvalues:
1263  00                 sizeupvalues (0)
                         ** end of function **

                         
1264                     ** function [8] definition (level 2)
                         ** start of function **
1264  00                 string size (0)
                         source name: (none)
1266  01                 line defined (208)
1267  DF                 last line defined (223)
1268  01                 nups (1)
1269  01                 numparams (0)
126A  00                 is_vararg (0)
126B  00                 maxstacksize (12)
                         * code:
126D  20                 sizecode (32)
126E  1D000000           [01] getglobal  0   0        ; gGameRules
1272  64404000           [02] self       1   0   257  ; -1201441975
1276  62800001           [03] call       1   2   2  
127A  4E80C000           [04] gettable   1   1   258  ; "enemySpec"
127E  9DC00000           [05] getglobal  2   3        ; 1074689893
1282  D2008000           [06] move       3   1      
1286  A2800001           [07] call       2   2   2  
128A  98000000           [08] test       2       0    ; to [10] if true
128E  1A400080           [09] jmp        2            ; to [12]
1292  99000100           [10] loadk      2   4        ; 0
1296  9E000001           [11] return     2   2      
129A  A440C100           [12] self       2   1   261  ; 1891965785
129E  A2800001           [13] call       2   2   2  
12A2  D9000100           [14] loadk      3   4        ; 0
12A6  1D810100           [15] getglobal  4   6        ; 1672515847
12AA  52010001           [16] move       5   2      
12AE  22010101           [17] call       4   2   4  
12B2  1A400280           [18] jmp        10           ; to [29]
12B6  4EC24104           [19] gettable   9   8   263  ; "tier"
12BA  93020000           [20] getupval   10  0      
fail op	35
12BE  23808204           [21] close      0  
12C2  1A400180           [22] jmp        6            ; to [29]
12C6  5D020200           [23] getglobal  9   8        ; math
12CA  4E42C204           [24] gettable   9   9   265  ; -1962864584
12CE  92028001           [25] move       10  3      
12D2  CE824204           [26] gettable   11  8   266  ; "maxSimultaneous"
12D6  62828001           [27] call       9   3   2  
12DA  D2008004           [28] move       3   9      
12DE  16810000           [29] tforloop   4       2    ; to [31] if exit
12E2  1AC0FC7F           [30] jmp        -12          ; to [19]
12E6  DE000001           [31] return     3   2      
12EA  1E008000           [32] return     0   1      
                         * constants:
12EE  0B                 sizek (11)
12EF  04                 const type 4
12F0  0B                 string size (11)
12F1  6747616D6552756C+  "gGameRul"
12F9  657300             "es\0"
                         const [0]: "gGameRules"
12FC  01                 const type 3
12FD  497363B8           const [1]: (-1201441975)
1301  04                 const type 4
1302  0A                 string size (10)
1303  656E656D79537065+  "enemySpe"
130B  6300               "c\0"
                         const [2]: "enemySpec"
130D  01                 const type 3
130E  65770E40           const [3]: (1074689893)
1312  03                 const type 3
1313  00000000           const [4]: (0)
1317  01                 const type 3
1318  591BC570           const [5]: (1891965785)
131C  01                 const type 3
131D  0791B063           const [6]: (1672515847)
1321  04                 const type 4
1322  05                 string size (5)
1323  7469657200         "tier\0"
                         const [7]: "tier"
1328  04                 const type 4
1329  05                 string size (5)
132A  6D61746800         "math\0"
                         const [8]: "math"
132F  01                 const type 3
1330  3810018B           const [9]: (-1962864584)
1334  04                 const type 4
1335  10                 string size (16)
1336  6D617853696D756C+  "maxSimul"
133E  74616E656F757300   "taneous\0"
                         const [10]: "maxSimultaneous"
                         * functions:
1346  00                 sizep (0)
                         * lines:
1347  20                 sizelineinfo (32)
                         [pc] (line)
1348  D1                 [01] (-47)
1349  00                 [02] (-46)
134A  00                 [03] (-46)
134B  00                 [04] (-46)
134C  D2                 [05] (-45)
134D  00                 [06] (-45)
134E  00                 [07] (-45)
134F  00                 [08] (-45)
1350  D2                 [09] (-45)
1351  00                 [10] (-44)
1352  00                 [11] (-44)
1353  00                 [12] (-41)
1354  D2                 [13] (-41)
1355  00                 [14] (-40)
1356  00                 [15] (-39)
1357  00                 [16] (-39)
1358  D3                 [17] (-39)
1359  00                 [18] (-39)
135A  00                 [19] (-38)
135B  00                 [20] (-38)
135C  D3                 [21] (-38)
135D  00                 [22] (-38)
135E  00                 [23] (-37)
135F  00                 [24] (-37)
1360  D3                 [25] (-37)
1361  00                 [26] (-37)
1362  00                 [27] (-37)
1363  00                 [28] (-37)
1364  D3                 [29] (-39)
1365  00                 [30] (-36)
1366  00                 [31] (-34)
1367  00                 [32] (-33)
                         * locals:
13C8  00                 sizelocvars (0)
                         * upvalues:
13C9  00                 sizeupvalues (0)
                         ** end of function **

                         
13CA                     ** function [9] definition (level 2)
                         ** start of function **
13CA  00                 string size (0)
                         source name: (none)
13CC  01                 line defined (225)
13CD  95                 last line defined (277)
13CE  02                 nups (6)
13CF  06                 numparams (9)
13D0  09                 is_vararg (0)
13D1  00                 maxstacksize (24)
                         * code:
13D3  5F                 sizecode (95)
13D4  64024001           [01] self       9   2   256  ; -317790213
13D8  D3020000           [02] getupval   11  0      
13DC  62828001           [03] call       9   3   2  
13E0  93028000           [04] getupval   10  1      
fail op	33
13E4  21400205           [05] tforloop   0       9    ; to [7] if exit
13E8  1A000080           [06] jmp        1            ; to [8]
13EC  59420000           [07] loadk      9   1        ; 0
13F0  86020005           [08] loadnil    10  10     
13F4  D7020000           [09] loadbool   11  0   0    ; false
13F8  D8020000           [10] test       11      0    ; to [12] if true
13FC  1A000080           [11] jmp        1            ; to [13]
1400  D9800000           [12] loadk      3   2        ; 0
fail op	21
1404  15C08004           [13] concat     0   9   3  
1408  1AC01280           [14] jmp        76           ; to [91]
140C  E4C2C000           [15] self       11  1   259  ; 932988922
1410  E2820001           [16] call       11  2   2  
fail op	21
1414  15008105           [17] concat     0   11  4  
1418  1AC01080           [18] jmp        68           ; to [87]
fail op	21
141C  15008280           [19] concat     0   257 8  
1420  1A400680           [20] jmp        26           ; to [47]
1424  E402C100           [21] self       11  1   260  ; -207649908
1428  53030001           [22] getupval   13  2      
142C  97038000           [23] loadbool   14  1   0    ; true
1430  E2420002           [24] call       11  4   1  
1434  D9820000           [25] loadk      11  2        ; 0
1438  12030004           [26] move       12  8      
143C  59830000           [27] loadk      13  2        ; 0
1440  D0020480           [28] forprep    11  17       ; to [46]
1444  E443C100           [29] self       15  1   261  ; 387241288
1448  52040005           [30] move       17  10     
144C  93048001           [31] getupval   18  3      
1450  D2048002           [32] move       19  5      
1454  0605000A           [33] loadnil    20  20     
1458  5D850100           [34] getglobal  21  6        ; Engine
145C  4EC5C10A           [35] gettable   21  21  263  ; "EXIMUS"
1460  E2838003           [36] call       15  7   2  
1464  1D040200           [37] getglobal  16  8        ; 1074689893
1468  52048007           [38] move       17  15     
146C  22840001           [39] call       16  2   2  
1470  18440000           [40] test       16      1    ; to [42] if false
1474  1AC00080           [41] jmp        4            ; to [46]
1478  24444201           [42] self       16  2   265  ; -803877924
147C  93040002           [43] getupval   18  4      
1480  D2040000           [44] move       19  0      
1484  22440002           [45] call       16  4   1  
1488  D442FB7F           [46] forloop    11  -18      ; to [29] if loop
148C  06040008           [47] loadnil    16  16     
1490  5D840200           [48] getglobal  17  10       ; math
1494  4EC4C208           [49] gettable   17  17  267  ; -2040962569
1498  62848000           [50] call       17  1   2  
fail op	21
149C  15C08108           [51] concat     0   17  7  
14A0  1A800080           [52] jmp        3            ; to [56]
14A4  5D840100           [53] getglobal  17  6        ; Engine
14A8  0EC4C108           [54] gettable   16  17  263  ; "EXIMUS"
14AC  1A400080           [55] jmp        2            ; to [58]
14B0  5D840100           [56] getglobal  17  6        ; Engine
14B4  0E04C308           [57] gettable   16  17  268  ; "STANDARD"
14B8  6444C300           [58] self       17  1   269  ; -882288891
14BC  62440001           [59] call       17  2   1  
14C0  6404C100           [60] self       17  1   260  ; -207649908
14C4  D2040003           [61] move       19  6      
14C8  62448001           [62] call       17  3   1  
14CC  6444C100           [63] self       17  1   261  ; 387241288
14D0  D2040005           [64] move       19  10     
14D4  13058001           [65] getupval   20  3      
14D8  52058002           [66] move       21  5      
14DC  8605000B           [67] loadnil    22  22     
14E0  D2050008           [68] move       23  16     
14E4  62848003           [69] call       17  7   2  
14E8  9D040200           [70] getglobal  18  8        ; 1074689893
14EC  D2048008           [71] move       19  17     
14F0  A2840001           [72] call       18  2   2  
14F4  98440000           [73] test       18      1    ; to [75] if false
14F8  1AC00280           [74] jmp        12           ; to [87]
14FC  4382C004           [75] add        9   9   258  ; 0
1500  A4444201           [76] self       18  2   265  ; -803877924
1504  13050000           [77] getupval   20  0      
1508  52058004           [78] move       21  9      
150C  A2440002           [79] call       18  4   1  
1510  93048002           [80] getupval   18  5      
1514  D2048008           [81] move       19  17     
1518  1D850300           [82] getglobal  20  14       ; goal
151C  A2448001           [83] call       18  3   1  
1520  A4C4C300           [84] self       18  1   271  ; -671589828
1524  12058008           [85] move       20  17     
1528  A2448001           [86] call       18  3   1  
152C  9D040400           [87] getglobal  18  16       ; 538022378
1530  D9440400           [88] loadk      19  17       ; 0
1534  A2440001           [89] call       18  2   1  
1538  1A40EC7F           [90] jmp        -78          ; to [13]
153C  A4444201           [91] self       18  2   265  ; -803877924
1540  13050000           [92] getupval   20  0      
1544  53058000           [93] getupval   21  1      
1548  A2440002           [94] call       18  4   1  
154C  1E008000           [95] return     0   1      
                         * constants:
1550  12                 sizek (18)
1551  01                 const type 3
1552  FBE70EED           const [0]: (-317790213)
1556  03                 const type 3
1557  00000000           const [1]: (0)
155B  03                 const type 3
155C  0000803F           const [2]: (0)
1560  01                 const type 3
1561  FA479C37           const [3]: (932988922)
1565  01                 const type 3
1566  8C839FF3           const [4]: (-207649908)
156A  01                 const type 3
156B  48D51417           const [5]: (387241288)
156F  04                 const type 4
1570  07                 string size (7)
1571  456E67696E6500     "Engine\0"
                         const [6]: "Engine"
1578  04                 const type 4
1579  07                 string size (7)
157A  4558494D555300     "EXIMUS\0"
                         const [7]: "EXIMUS"
1581  01                 const type 3
1582  65770E40           const [8]: (1074689893)
1586  01                 const type 3
1587  DCCB15D0           const [9]: (-803877924)
158B  04                 const type 4
158C  05                 string size (5)
158D  6D61746800         "math\0"
                         const [10]: "math"
1592  01                 const type 3
1593  F7615986           const [11]: (-2040962569)
1597  04                 const type 4
1598  09                 string size (9)
1599  5354414E44415244+  "STANDARD"
15A1  00                 "\0"
                         const [12]: "STANDARD"
15A2  01                 const type 3
15A3  055769CB           const [13]: (-882288891)
15A7  04                 const type 4
15A8  05                 string size (5)
15A9  676F616C00         "goal\0"
                         const [14]: "goal"
15AE  01                 const type 3
15AF  3C5AF8D7           const [15]: (-671589828)
15B3  01                 const type 3
15B4  EA911120           const [16]: (538022378)
15B8  03                 const type 3
15B9  0000803E           const [17]: (0)
                         * functions:
15BD  00                 sizep (0)
                         * lines:
15BE  5F                 sizelineinfo (95)
                         [pc] (line)
15BF  E3                 [01] (-29)
15C0  00                 [02] (-29)
15C1  00                 [03] (-29)
15C2  00                 [04] (-28)
15C3  E3                 [05] (-28)
15C4  00                 [06] (-28)
15C5  00                 [07] (-27)
15C6  00                 [08] (-24)
15C7  E3                 [09] (-22)
15C8  00                 [10] (-22)
15C9  00                 [11] (-22)
15CA  00                 [12] (-21)
15CB  E4                 [13] (-18)
15CC  00                 [14] (-18)
15CD  00                 [15] (-17)
15CE  00                 [16] (-17)
15CF  E4                 [17] (-17)
15D0  00                 [18] (-17)
15D1  00                 [19] (-15)
15D2  00                 [20] (-15)
15D3  E4                 [21] (-14)
15D4  00                 [22] (-14)
15D5  00                 [23] (-14)
15D6  00                 [24] (-14)
15D7  E5                 [25] (-13)
15D8  00                 [26] (-13)
15D9  00                 [27] (-13)
15DA  00                 [28] (-13)
15DB  E8                 [29] (-12)
15DC  00                 [30] (-12)
15DD  00                 [31] (-12)
15DE  00                 [32] (-12)
15DF  EA                 [33] (-12)
15E0  00                 [34] (-12)
15E1  00                 [35] (-12)
15E2  00                 [36] (-12)
15E3  EA                 [37] (-11)
15E4  00                 [38] (-11)
15E5  00                 [39] (-11)
15E6  00                 [40] (-11)
15E7  EA                 [41] (-11)
15E8  00                 [42] (-10)
15E9  00                 [43] (-10)
15EA  00                 [44] (-10)
15EB  EB                 [45] (-10)
15EC  00                 [46] (-13)
15ED  00                 [47] (-4)
15EE  00                 [48] (-2)
15EF  EE                 [49] (-2)
15F0  00                 [50] (-2)
15F1  00                 [51] (-2)
15F2  00                 [52] (-2)
15F3  EE                 [53] (-1)
15F4  00                 [54] (-1)
15F5  00                 [55] (-1)
15F6  00                 [56] (1)
15F7  EF                 [57] (1)
15F8  00                 [58] (5)
15F9  00                 [59] (5)
15FA  00                 [60] (6)
15FB  EF                 [61] (6)
15FC  00                 [62] (6)
15FD  00                 [63] (9)
15FE  00                 [64] (9)
15FF  EF                 [65] (9)
1600  00                 [66] (9)
1601  00                 [67] (9)
1602  00                 [68] (9)
1603  EF                 [69] (9)
1604  00                 [70] (10)
1605  00                 [71] (10)
1606  00                 [72] (10)
1607  F1                 [73] (10)
1608  00                 [74] (10)
1609  00                 [75] (11)
160A  00                 [76] (12)
160B  F1                 [77] (12)
160C  00                 [78] (12)
160D  00                 [79] (12)
160E  00                 [80] (13)
160F  F2                 [81] (13)
1610  00                 [82] (13)
1611  00                 [83] (13)
1612  00                 [84] (14)
1613  F2                 [85] (14)
1614  00                 [86] (14)
1615  00                 [87] (17)
1616  00                 [88] (17)
1617  F2                 [89] (17)
1618  00                 [90] (17)
1619  00                 [91] (20)
161A  00                 [92] (20)
161B  F2                 [93] (20)
161C  00                 [94] (20)
161D  00                 [95] (21)
                         * locals:
173B  00                 sizelocvars (0)
                         * upvalues:
173C  00                 sizeupvalues (0)
                         ** end of function **

                         
173D                     ** function [10] definition (level 2)
                         ** start of function **
173D  00                 string size (0)
                         source name: (none)
173F  02                 line defined (279)
1740  A0                 last line defined (288)
1741  02                 nups (0)
1742  00                 numparams (1)
1743  01                 is_vararg (0)
1744  00                 maxstacksize (14)
                         * code:
1746  1D                 sizecode (29)
1747  59000000           [01] loadk      1   0        ; 0
174B  99400000           [02] loadk      2   1        ; 0
174F  CA000000           [03] len        3   0      
1753  19410000           [04] loadk      4   1        ; 0
1757  90C00380           [05] forprep    2   16       ; to [22]
175B  8E410100           [06] gettable   6   0   5  
175F  DD810000           [07] getglobal  7   2        ; -1817107093
1763  1DC20000           [08] getglobal  8   3        ; string
1767  0E024104           [09] gettable   8   8   260  ; 1260343128
176B  59420100           [10] loadk      9   5        ; "%0.5f"
176F  8E824103           [11] gettable   10  6   262  ; "sortKey"
1773  22828001           [12] call       8   3   2  
1777  59C20100           [13] loadk      9   7        ; " "
177B  8E024203           [14] gettable   10  6   264  ; "name"
177F  D9420200           [15] loadk      11  9        ; " ("
1783  0E834203           [16] gettable   12  6   266  ; "xp"
1787  59C30200           [17] loadk      13  11       ; " XP)"
178B  02420304           [18] concat     8   8   13 
178F  E2410001           [19] call       7   2   1  
1793  CE814203           [20] gettable   7   6   266  ; "xp"
1797  43C08100           [21] add        1   1   7  
179B  9480FB7F           [22] forloop    2   -17      ; to [6] if loop
179F  DD810000           [23] getglobal  7   2        ; -1817107093
17A3  19020300           [24] loadk      8   12       ; "Total base XP: "
17A7  52028000           [25] move       9   1      
17AB  99420300           [26] loadk      10  13       ; " XP"
17AF  02820204           [27] concat     8   8   10 
17B3  E2410001           [28] call       7   2   1  
17B7  1E008000           [29] return     0   1      
                         * constants:
17BB  0E                 sizek (14)
17BC  03                 const type 3
17BD  00000000           const [0]: (0)
17C1  03                 const type 3
17C2  0000803F           const [1]: (0)
17C6  01                 const type 3
17C7  6B25B193           const [2]: (-1817107093)
17CB  04                 const type 4
17CC  07                 string size (7)
17CD  737472696E6700     "string\0"
                         const [3]: "string"
17D4  01                 const type 3
17D5  584F1F4B           const [4]: (1260343128)
17D9  04                 const type 4
17DA  06                 string size (6)
17DB  25302E356600       "%0.5f\0"
                         const [5]: "%0.5f"
17E1  04                 const type 4
17E2  08                 string size (8)
17E3  736F72744B657900   "sortKey\0"
                         const [6]: "sortKey"
17EB  04                 const type 4
17EC  02                 string size (2)
17ED  2000               " \0"
                         const [7]: " "
17EF  04                 const type 4
17F0  05                 string size (5)
17F1  6E616D6500         "name\0"
                         const [8]: "name"
17F6  04                 const type 4
17F7  03                 string size (3)
17F8  202800             " (\0"
                         const [9]: " ("
17FB  04                 const type 4
17FC  03                 string size (3)
17FD  787000             "xp\0"
                         const [10]: "xp"
1800  04                 const type 4
1801  05                 string size (5)
1802  2058502900         " XP)\0"
                         const [11]: " XP)"
1807  04                 const type 4
1808  10                 string size (16)
1809  546F74616C206261+  "Total ba"
1811  73652058503A2000   "se XP: \0"
                         const [12]: "Total base XP: "
1819  04                 const type 4
181A  04                 string size (4)
181B  20585000           " XP\0"
                         const [13]: " XP"
                         * functions:
181F  00                 sizep (0)
                         * lines:
1820  1D                 sizelineinfo (29)
                         [pc] (line)
1821  18                 [01] (24)
1822  01                 [02] (25)
1823  00                 [03] (25)
1824  00                 [04] (25)
1825  19                 [05] (25)
1826  01                 [06] (26)
1827  00                 [07] (27)
1828  00                 [08] (27)
1829  19                 [09] (27)
182A  01                 [10] (27)
182B  00                 [11] (27)
182C  00                 [12] (27)
182D  19                 [13] (27)
182E  01                 [14] (27)
182F  00                 [15] (27)
1830  00                 [16] (27)
1831  19                 [17] (27)
1832  01                 [18] (27)
1833  00                 [19] (27)
1834  00                 [20] (28)
1835  1A                 [21] (28)
1836  01                 [22] (25)
1837  00                 [23] (31)
1838  00                 [24] (31)
1839  1B                 [25] (31)
183A  01                 [26] (31)
183B  00                 [27] (31)
183C  00                 [28] (31)
183D  1B                 [29] (32)
                         * locals:
1895  00                 sizelocvars (0)
                         * upvalues:
1896  00                 sizeupvalues (0)
                         ** end of function **

                         
1897                     ** function [11] definition (level 2)
                         ** start of function **
1897  00                 string size (0)
                         source name: (none)
1899  02                 line defined (290)
189A  C1                 last line defined (321)
189B  02                 nups (1)
189C  01                 numparams (4)
189D  04                 is_vararg (0)
189E  00                 maxstacksize (11)
                         * code:
18A0  3F                 sizecode (63)
18A1  1D010000           [01] getglobal  4   0        ; -895206725
18A5  4E414000           [02] gettable   5   0   257  ; "agent"
18A9  22810001           [03] call       4   2   2  
18AD  5D810000           [04] getglobal  5   2        ; 2083004503
18B1  8E414000           [05] gettable   6   0   257  ; "agent"
18B5  62810001           [06] call       5   2   2  
18B9  9DC10000           [07] getglobal  6   3        ; 1074689893
18BD  D2018002           [08] move       7   5      
18C1  A2810001           [09] call       6   2   2  
18C5  98410000           [10] test       6       1    ; to [12] if false
18C9  1A000180           [11] jmp        5            ; to [17]
18CD  A401C102           [12] self       6   5   260  ; 365153368
18D1  12028000           [13] move       8   1      
18D5  A2818001           [14] call       6   3   2  
18D9  98410000           [15] test       6       1    ; to [17] if false
18DD  1A400080           [16] jmp        2            ; to [19]
18E1  86010003           [17] loadnil    6   6      
18E5  9E010001           [18] return     6   2      
18E9  A441C102           [19] self       6   5   261  ; -1088066739
18ED  1D820100           [20] getglobal  8   6        ; Engine
18F1  0EC24104           [21] gettable   8   8   263  ; "STANDARD"
18F5  A2818001           [22] call       6   3   2  
18F9  DD810000           [23] getglobal  7   2        ; 2083004503
18FD  12020003           [24] move       8   6      
1901  E2810001           [25] call       7   2   2  
1905  1DC20000           [26] getglobal  8   3        ; 1074689893
1909  52028003           [27] move       9   7      
190D  22820001           [28] call       8   2   2  
1911  18420000           [29] test       8       1    ; to [31] if false
1915  1AC00280           [30] jmp        12           ; to [43]
1919  0E024200           [31] gettable   8   0   264  ; "tier"
191D  53020000           [32] getupval   9   0      
fail op	35
1921  63400204           [33] close      1  
1925  1A400280           [34] jmp        10           ; to [45]
1929  2442C203           [35] self       8   7   265  ; -1081228973
192D  22820001           [36] call       8   2   2  
fail op	35
1931  63800004           [37] close      1  
1935  1A400180           [38] jmp        6            ; to [45]
1939  2442C203           [39] self       8   7   265  ; -1081228973
193D  22820001           [40] call       8   2   2  
fail op	35
1941  63C00004           [41] close      1  
1945  1A400080           [42] jmp        2            ; to [45]
1949  06020004           [43] loadnil    8   8      
194D  1E020001           [44] return     8   2      
1951  0BC20100           [45] newtable   8   0   7    ; array=0, hash=7
1955  4E424000           [46] gettable   9   0   257  ; "agent"
1959  0C428280           [47] settable   8   257 9    ; "agent"
195D  4E424000           [48] gettable   9   0   257  ; "agent"
1961  64C2C204           [49] self       9   9   267  ; 455421500
1965  62820001           [50] call       9   2   2  
1969  0C420285           [51] settable   8   266 9    ; "typeName"
196D  0C020186           [52] settable   8   268 4    ; "agentType"
1971  0C428186           [53] settable   8   269 5    ; "agentRes"
1975  5DC20300           [54] getglobal  9   15       ; -332969190
1979  8E824300           [55] gettable   10  0   270  ; "mergeSymbol"
197D  62820001           [56] call       9   2   2  
1981  0C420287           [57] settable   8   270 9    ; "mergeSymbol"
1985  4E024400           [58] gettable   9   0   272  ; "maxSimultaneous"
1989  0C420288           [59] settable   8   272 9    ; "maxSimultaneous"
198D  4E424400           [60] gettable   9   0   273  ; "probability"
1991  0C428288           [61] settable   8   273 9    ; "probability"
1995  1E020001           [62] return     8   2      
1999  1E008000           [63] return     0   1      
                         * constants:
199D  12                 sizek (18)
199E  01                 const type 3
199F  BB3AA4CA           const [0]: (-895206725)
19A3  04                 const type 4
19A4  06                 string size (6)
19A5  6167656E7400       "agent\0"
                         const [1]: "agent"
19AB  01                 const type 3
19AC  5720287C           const [2]: (2083004503)
19B0  01                 const type 3
19B1  65770E40           const [3]: (1074689893)
19B5  01                 const type 3
19B6  58CCC315           const [4]: (365153368)
19BA  01                 const type 3
19BB  4D6B25BF           const [5]: (-1088066739)
19BF  04                 const type 4
19C0  07                 string size (7)
19C1  456E67696E6500     "Engine\0"
                         const [6]: "Engine"
19C8  04                 const type 4
19C9  09                 string size (9)
19CA  5354414E44415244+  "STANDARD"
19D2  00                 "\0"
                         const [7]: "STANDARD"
19D3  04                 const type 4
19D4  05                 string size (5)
19D5  7469657200         "tier\0"
                         const [8]: "tier"
19DA  01                 const type 3
19DB  53C18DBF           const [9]: (-1081228973)
19DF  04                 const type 4
19E0  09                 string size (9)
19E1  747970654E616D65+  "typeName"
19E9  00                 "\0"
                         const [10]: "typeName"
19EA  01                 const type 3
19EB  3C2E251B           const [11]: (455421500)
19EF  04                 const type 4
19F0  0A                 string size (10)
19F1  6167656E74547970+  "agentTyp"
19F9  6500               "e\0"
                         const [12]: "agentType"
19FB  04                 const type 4
19FC  09                 string size (9)
19FD  6167656E74526573+  "agentRes"
1A05  00                 "\0"
                         const [13]: "agentRes"
1A06  04                 const type 4
1A07  0C                 string size (12)
1A08  6D6572676553796D+  "mergeSym"
1A10  626F6C00           "bol\0"
                         const [14]: "mergeSymbol"
1A14  01                 const type 3
1A15  1A4B27EC           const [15]: (-332969190)
1A19  04                 const type 4
1A1A  10                 string size (16)
1A1B  6D617853696D756C+  "maxSimul"
1A23  74616E656F757300   "taneous\0"
                         const [16]: "maxSimultaneous"
1A2B  04                 const type 4
1A2C  0C                 string size (12)
1A2D  70726F626162696C+  "probabil"
1A35  69747900           "ity\0"
                         const [17]: "probability"
                         * functions:
1A39  00                 sizep (0)
                         * lines:
1A3A  3F                 sizelineinfo (63)
                         [pc] (line)
1A3B  25                 [01] (37)
1A3C  01                 [02] (37)
1A3D  00                 [03] (37)
1A3E  00                 [04] (38)
1A3F  25                 [05] (38)
1A40  01                 [06] (38)
1A41  00                 [07] (40)
1A42  00                 [08] (40)
1A43  25                 [09] (40)
1A44  01                 [10] (40)
1A45  00                 [11] (40)
1A46  00                 [12] (40)
1A47  26                 [13] (40)
1A48  01                 [14] (40)
1A49  00                 [15] (40)
1A4A  00                 [16] (40)
1A4B  26                 [17] (41)
1A4C  01                 [18] (41)
1A4D  00                 [19] (44)
1A4E  00                 [20] (44)
1A4F  26                 [21] (44)
1A50  01                 [22] (44)
1A51  00                 [23] (45)
1A52  00                 [24] (45)
1A53  28                 [25] (45)
1A54  01                 [26] (48)
1A55  00                 [27] (48)
1A56  00                 [28] (48)
1A57  28                 [29] (48)
1A58  01                 [30] (48)
1A59  00                 [31] (48)
1A5A  00                 [32] (48)
1A5B  28                 [33] (48)
1A5C  01                 [34] (48)
1A5D  00                 [35] (48)
1A5E  00                 [36] (48)
1A5F  28                 [37] (48)
1A60  01                 [38] (48)
1A61  00                 [39] (48)
1A62  00                 [40] (48)
1A63  28                 [41] (48)
1A64  01                 [42] (48)
1A65  00                 [43] (49)
1A66  00                 [44] (49)
1A67  28                 [45] (52)
1A68  01                 [46] (53)
1A69  00                 [47] (53)
1A6A  00                 [48] (54)
1A6B  28                 [49] (54)
1A6C  01                 [50] (54)
1A6D  00                 [51] (54)
1A6E  00                 [52] (56)
1A6F  28                 [53] (57)
1A70  01                 [54] (59)
1A71  00                 [55] (59)
1A72  00                 [56] (59)
1A73  28                 [57] (59)
1A74  01                 [58] (60)
1A75  00                 [59] (60)
1A76  00                 [60] (61)
1A77  28                 [61] (61)
1A78  01                 [62] (64)
1A79  00                 [63] (65)
                         * locals:
1B37  00                 sizelocvars (0)
                         * upvalues:
1B38  00                 sizeupvalues (0)
                         ** end of function **

                         
1B39                     ** function [12] definition (level 2)
                         ** start of function **
1B39  00                 string size (0)
                         source name: (none)
1B3B  02                 line defined (323)
1B3C  95                 last line defined (405)
1B3D  03                 nups (0)
1B3E  00                 numparams (6)
1B3F  06                 is_vararg (0)
1B40  00                 maxstacksize (30)
                         * code:
1B43  01                 sizecode (141)
1B44  CE014001           [001] gettable   7   2   256  ; "maxSimultaneous"
fail op	21
1B48  15C08180           [002] concat     0   257 7  
1B4C  1AC00280           [003] jmp        12           ; to [16]
1B50  DD810000           [004] getglobal  7   2        ; math
1B54  CEC1C003           [005] gettable   7   7   259  ; -150971781
1B58  0E024001           [006] gettable   8   2   256  ; "maxSimultaneous"
1B5C  1C020202           [007] div        8   4   8  
1B60  03024104           [008] add        8   8   260  ; 0
1B64  E2810001           [009] call       7   2   2  
1B68  1D420100           [010] getglobal  8   5        ; table
1B6C  0E824104           [011] gettable   8   8   262  ; -431682403
1B70  52028000           [012] move       9   1      
1B74  92028003           [013] move       10  7      
1B78  22428001           [014] call       8   3   1  
1B7C  8A018000           [015] len        6   1      
1B80  19C20100           [016] loadk      8   7        ; 0
1B84  4E024201           [017] gettable   9   2   264  ; "merged"
1B88  9D420200           [018] getglobal  10  9        ; 1074689893
1B8C  D2028004           [019] move       11  9      
1B90  A2820001           [020] call       10  2   2  
fail op	9
1B94  89020005           [021] settable   10  10  0  
1B98  C6020006           [022] loadnil    11  12     
1B9C  59430000           [023] loadk      13  1        ; 0
1BA0  99430000           [024] loadk      14  1        ; 0
1BA4  D9830200           [025] loadk      15  10       ; 0
1BA8  12048001           [026] move       16  3      
1BAC  59840200           [027] loadk      17  10       ; 0
1BB0  D0831B80           [028] forprep    15  111      ; to [140]
1BB4  DD440200           [029] getglobal  19  9        ; 1074689893
1BB8  12058005           [030] move       20  11     
1BBC  E2840001           [031] call       19  2   2  
1BC0  D8440000           [032] test       19      1    ; to [34] if false
1BC4  1A400080           [033] jmp        2            ; to [36]
1BC8  98020000           [034] test       10      0    ; to [36] if true
1BCC  1AC00D80           [035] jmp        56           ; to [92]
1BD0  98020000           [036] test       10      0    ; to [38] if true
1BD4  1A400180           [037] jmp        6            ; to [44]
1BD8  DD840000           [038] getglobal  19  2        ; math
1BDC  CEC4C209           [039] gettable   19  19  267  ; -2040962569
1BE0  19850200           [040] loadk      20  10       ; 0
1BE4  4A058004           [041] len        21  9      
1BE8  E2848001           [042] call       19  3   2  
1BEC  8EC08404           [043] gettable   2   9   19 
1BF0  06030006           [044] loadnil    12  12     
1BF4  59430000           [045] loadk      13  1        ; 0
1BF8  99430000           [046] loadk      14  1        ; 0
1BFC  CE044301           [047] gettable   19  2   268  ; "agentRes"
1C00  E444C309           [048] self       19  19  269  ; -1088066739
1C04  5D850300           [049] getglobal  21  14       ; Engine
1C08  4EC5C30A           [050] gettable   21  21  271  ; "STANDARD"
1C0C  E2848001           [051] call       19  3   2  
1C10  1D050400           [052] getglobal  20  16       ; 2083004503
1C14  52058009           [053] move       21  19     
1C18  22850001           [054] call       20  2   2  
1C1C  5D450200           [055] getglobal  21  9        ; 1074689893
1C20  9205000A           [056] move       22  20     
1C24  62850001           [057] call       21  2   2  
1C28  58450000           [058] test       21      1    ; to [60] if false
1C2C  1AC00780           [059] jmp        32           ; to [92]
1C30  5D450400           [060] getglobal  21  17       ; -421772368
1C34  A485440A           [061] self       22  20  274  ; -1334436347
1C38  A2850001           [062] call       22  2   2  
1C3C  A4C5440B           [063] self       22  22  275  ; 1590141906
1C40  A2850001           [064] call       22  2   2  
1C44  CB050000           [065] newtable   23  0   0    ; array=0, hash=0
1C48  62858001           [066] call       21  3   2  
1C4C  D202800A           [067] move       11  21     
1C50  6405450A           [068] self       21  20  276  ; -1130565576
1C54  62850001           [069] call       21  2   2  
1C58  5203800A           [070] move       13  21     
1C5C  4E054301           [071] gettable   21  2   268  ; "agentRes"
1C60  6445C30A           [072] self       21  21  269  ; -1088066739
1C64  DD850300           [073] getglobal  23  14       ; Engine
1C68  CE45C50B           [074] gettable   23  23  277  ; "EXIMUS"
1C6C  62858001           [075] call       21  3   2  
1C70  D204800A           [076] move       19  21     
1C74  5D050400           [077] getglobal  21  16       ; 2083004503
1C78  92058009           [078] move       22  19     
1C7C  62850001           [079] call       21  2   2  
1C80  1205800A           [080] move       20  21     
1C84  5D450200           [081] getglobal  21  9        ; 1074689893
1C88  9205000A           [082] move       22  20     
1C8C  62850001           [083] call       21  2   2  
1C90  58450000           [084] test       21      1    ; to [86] if false
1C94  1A400180           [085] jmp        6            ; to [92]
1C98  52058005           [086] move       21  11     
1C9C  99850500           [087] loadk      22  22       ; " EXIMUS"
1CA0  0283850A           [088] concat     12  21  22 
1CA4  6405450A           [089] self       21  20  276  ; -1130565576
1CA8  62850001           [090] call       21  2   2  
1CAC  8403820A           [091] mul        14  21  8  
1CB0  4B450000           [092] newtable   21  0   1    ; array=0, hash=1
1CB4  8E054601           [093] gettable   22  2   280  ; "agentType"
1CB8  4C85858B           [094] settable   21  279 22   ; "type"
fail op	35
1CBC  63404606           [095] close      1  
1CC0  1A800280           [096] jmp        11           ; to [108]
1CC4  9D850000           [097] getglobal  22  2        ; math
1CC8  8EC5420B           [098] gettable   22  22  267  ; -2040962569
1CCC  A2858000           [099] call       22  1   2  
fail op	21
1CD0  1540010B           [100] concat     0   22  5  
1CD4  1A400180           [101] jmp        6            ; to [108]
1CD8  9D850300           [102] getglobal  22  14       ; Engine
1CDC  8E45450B           [103] gettable   22  22  277  ; "EXIMUS"
1CE0  4C85058D           [104] settable   21  282 22   ; "genus"
1CE4  4C85838D           [105] settable   21  283 14   ; "xp"
1CE8  4C05038E           [106] settable   21  284 12   ; "name"
1CEC  1A000180           [107] jmp        5            ; to [113]
1CF0  9D850300           [108] getglobal  22  14       ; Engine
1CF4  8EC5430B           [109] gettable   22  22  271  ; "STANDARD"
1CF8  4C85058D           [110] settable   21  282 22   ; "genus"
1CFC  4C45838D           [111] settable   21  283 13   ; "xp"
1D00  4CC5028E           [112] settable   21  284 11   ; "name"
1D04  8E054001           [113] gettable   22  2   256  ; "maxSimultaneous"
fail op	21
1D08  15808580           [114] concat     0   257 22 
1D0C  1A000080           [115] jmp        1            ; to [117]
1D10  4C85818E           [116] settable   21  285 6    ; "spacingIndex"
1D14  99450000           [117] loadk      22  1        ; 0
1D18  D9850200           [118] loadk      23  10       ; 0
1D1C  19860700           [119] loadk      24  30       ; 0
1D20  59860200           [120] loadk      25  10       ; 0
1D24  D0050180           [121] forprep    23  5        ; to [127]
1D28  DD860000           [122] getglobal  27  2        ; math
1D2C  CEC6C20D           [123] gettable   27  27  267  ; -2040962569
1D30  E2868000           [124] call       27  1   2  
1D34  C4C6C70D           [125] mul        27  27  287  ; -102
1D38  83C5060B           [126] add        22  22  27 
1D3C  D445FE7F           [127] forloop    23  -6       ; to [122] if loop
1D40  DD860000           [128] getglobal  27  2        ; math
1D44  CE46C80D           [129] gettable   27  27  289  ; 815255507
1D48  0EC7C60A           [130] gettable   28  21  283  ; "xp"
1D4C  E2860001           [131] call       27  2   2  
1D50  C386850D           [132] add        27  27  22 
1D54  4CC50690           [133] settable   21  288 27   ; "sortKey"
1D58  DD460100           [134] getglobal  27  5        ; table
1D5C  CE86C10D           [135] gettable   27  27  262  ; -431682403
1D60  12070000           [136] move       28  0      
1D64  5207800A           [137] move       29  21     
1D68  E2468001           [138] call       27  3   1  
1D6C  CD80C201           [139] sub        3   3   266  ; 0
1D70  D4C3E37F           [140] forloop    15  -112     ; to [29] if loop
1D74  1E008000           [141] return     0   1      
                         * constants:
1D78  22                 sizek (34)
1D79  04                 const type 4
1D7A  10                 string size (16)
1D7B  6D617853696D756C+  "maxSimul"
1D83  74616E656F757300   "taneous\0"
                         const [0]: "maxSimultaneous"
1D8B  03                 const type 3
1D8C  00000000           const [1]: (0)
1D90  04                 const type 4
1D91  05                 string size (5)
1D92  6D61746800         "math\0"
                         const [2]: "math"
1D97  01                 const type 3
1D98  7B5A00F7           const [3]: (-150971781)
1D9C  03                 const type 3
1D9D  0000003F           const [4]: (0)
1DA1  04                 const type 4
1DA2  06                 string size (6)
1DA3  7461626C6500       "table\0"
                         const [5]: "table"
1DA9  01                 const type 3
1DAA  9D0C45E6           const [6]: (-431682403)
1DAE  03                 const type 3
1DAF  0000C03F           const [7]: (0)
1DB3  04                 const type 4
1DB4  07                 string size (7)
1DB5  6D657267656400     "merged\0"
                         const [8]: "merged"
1DBC  01                 const type 3
1DBD  65770E40           const [9]: (1074689893)
1DC1  03                 const type 3
1DC2  0000803F           const [10]: (0)
1DC6  01                 const type 3
1DC7  F7615986           const [11]: (-2040962569)
1DCB  04                 const type 4
1DCC  09                 string size (9)
1DCD  6167656E74526573+  "agentRes"
1DD5  00                 "\0"
                         const [12]: "agentRes"
1DD6  01                 const type 3
1DD7  4D6B25BF           const [13]: (-1088066739)
1DDB  04                 const type 4
1DDC  07                 string size (7)
1DDD  456E67696E6500     "Engine\0"
                         const [14]: "Engine"
1DE4  04                 const type 4
1DE5  09                 string size (9)
1DE6  5354414E44415244+  "STANDARD"
1DEE  00                 "\0"
                         const [15]: "STANDARD"
1DEF  01                 const type 3
1DF0  5720287C           const [16]: (2083004503)
1DF4  01                 const type 3
1DF5  B043DCE6           const [17]: (-421772368)
1DF9  01                 const type 3
1DFA  051E76B0           const [18]: (-1334436347)
1DFE  01                 const type 3
1DFF  D2A3C75E           const [19]: (1590141906)
1E03  01                 const type 3
1E04  38F09CBC           const [20]: (-1130565576)
1E08  04                 const type 4
1E09  07                 string size (7)
1E0A  4558494D555300     "EXIMUS\0"
                         const [21]: "EXIMUS"
1E11  04                 const type 4
1E12  08                 string size (8)
1E13  204558494D555300   " EXIMUS\0"
                         const [22]: " EXIMUS"
1E1B  04                 const type 4
1E1C  05                 string size (5)
1E1D  7479706500         "type\0"
                         const [23]: "type"
1E22  04                 const type 4
1E23  0A                 string size (10)
1E24  6167656E74547970+  "agentTyp"
1E2C  6500               "e\0"
                         const [24]: "agentType"
1E2E  00                 const type 0
                         const [25]: nil
1E2F  04                 const type 4
1E30  06                 string size (6)
1E31  67656E757300       "genus\0"
                         const [26]: "genus"
1E37  04                 const type 4
1E38  03                 string size (3)
1E39  787000             "xp\0"
                         const [27]: "xp"
1E3C  04                 const type 4
1E3D  05                 string size (5)
1E3E  6E616D6500         "name\0"
                         const [28]: "name"
1E43  04                 const type 4
1E44  0D                 string size (13)
1E45  73706163696E6749+  "spacingI"
1E4D  6E64657800         "ndex\0"
                         const [29]: "spacingIndex"
1E52  03                 const type 3
1E53  00008040           const [30]: (0)
1E57  03                 const type 3
1E58  9A99993E           const [31]: (-102)
1E5C  04                 const type 4
1E5D  08                 string size (8)
1E5E  736F72744B657900   "sortKey\0"
                         const [32]: "sortKey"
1E66  01                 const type 3
1E67  D3CF9730           const [33]: (815255507)
                         * functions:
1E6B  00                 sizep (0)
                         * lines:
1E6D  01                 sizelineinfo (141)
                         [pc] (line)
1E6E  45                 [001] (69)
1E6F  01                 [002] (69)
1E70  00                 [003] (69)
1E71  00                 [004] (70)
1E72  45                 [005] (70)
1E73  01                 [006] (70)
1E74  00                 [007] (70)
1E75  00                 [008] (70)
1E76  45                 [009] (70)
1E77  01                 [010] (73)
1E78  00                 [011] (73)
1E79  00                 [012] (73)
1E7A  46                 [013] (73)
1E7B  01                 [014] (73)
1E7C  00                 [015] (74)
1E7D  00                 [016] (81)
1E7E  46                 [017] (83)
1E7F  01                 [018] (84)
1E80  00                 [019] (84)
1E81  00                 [020] (84)
1E82  46                 [021] (84)
1E83  01                 [022] (85)
1E84  00                 [023] (87)
1E85  00                 [024] (88)
1E86  46                 [025] (89)
1E87  01                 [026] (89)
1E88  00                 [027] (89)
1E89  00                 [028] (89)
1E8A  46                 [029] (90)
1E8B  01                 [030] (90)
1E8C  00                 [031] (90)
1E8D  00                 [032] (90)
1E8E  46                 [033] (90)
1E8F  01                 [034] (90)
1E90  00                 [035] (90)
1E91  00                 [036] (91)
1E92  49                 [037] (91)
1E93  01                 [038] (92)
1E94  00                 [039] (92)
1E95  00                 [040] (92)
1E96  49                 [041] (92)
1E97  01                 [042] (92)
1E98  00                 [043] (92)
1E99  00                 [044] (94)
1E9A  49                 [045] (95)
1E9B  01                 [046] (96)
1E9C  00                 [047] (98)
1E9D  00                 [048] (98)
1E9E  49                 [049] (98)
1E9F  01                 [050] (98)
1EA0  00                 [051] (98)
1EA1  00                 [052] (99)
1EA2  49                 [053] (99)
1EA3  01                 [054] (99)
1EA4  00                 [055] (101)
1EA5  00                 [056] (101)
1EA6  4A                 [057] (101)
1EA7  01                 [058] (101)
1EA8  00                 [059] (101)
1EA9  00                 [060] (102)
1EAA  51                 [061] (102)
1EAB  01                 [062] (102)
1EAC  00                 [063] (102)
1EAD  00                 [064] (102)
1EAE  53                 [065] (102)
1EAF  01                 [066] (102)
1EB0  00                 [067] (102)
1EB1  00                 [068] (103)
1EB2  54                 [069] (103)
1EB3  01                 [070] (103)
1EB4  00                 [071] (105)
1EB5  00                 [072] (105)
1EB6  54                 [073] (105)
1EB7  01                 [074] (105)
1EB8  00                 [075] (105)
1EB9  00                 [076] (105)
1EBA  54                 [077] (106)
1EBB  01                 [078] (106)
1EBC  00                 [079] (106)
1EBD  00                 [080] (106)
1EBE  54                 [081] (108)
1EBF  01                 [082] (108)
1EC0  00                 [083] (108)
1EC1  00                 [084] (108)
1EC2  55                 [085] (108)
1EC3  01                 [086] (109)
1EC4  00                 [087] (109)
1EC5  00                 [088] (109)
1EC6  57                 [089] (110)
1EC7  01                 [090] (110)
1EC8  00                 [091] (110)
1EC9  00                 [092] (115)
1ECA  58                 [093] (115)
1ECB  01                 [094] (115)
1ECC  00                 [095] (117)
1ECD  00                 [096] (117)
1ECE  59                 [097] (117)
1ECF  01                 [098] (117)
1ED0  00                 [099] (117)
1ED1  00                 [100] (117)
1ED2  59                 [101] (117)
1ED3  01                 [102] (118)
1ED4  00                 [103] (118)
1ED5  00                 [104] (118)
1ED6  59                 [105] (119)
1ED7  01                 [106] (120)
1ED8  00                 [107] (120)
1ED9  00                 [108] (122)
1EDA  59                 [109] (122)
1EDB  01                 [110] (122)
1EDC  00                 [111] (123)
1EDD  00                 [112] (124)
1EDE  5A                 [113] (127)
1EDF  01                 [114] (127)
1EE0  00                 [115] (127)
1EE1  00                 [116] (-128)
1EE2  5A                 [117] (-116)
1EE3  01                 [118] (-115)
1EE4  00                 [119] (-115)
1EE5  00                 [120] (-115)
1EE6  5A                 [121] (-115)
1EE7  01                 [122] (-114)
1EE8  00                 [123] (-114)
1EE9  00                 [124] (-114)
1EEA  5A                 [125] (-114)
1EEB  01                 [126] (-114)
1EEC  00                 [127] (-115)
1EED  00                 [128] (-112)
1EEE  5A                 [129] (-112)
1EEF  01                 [130] (-112)
1EF0  00                 [131] (-112)
1EF1  00                 [132] (-112)
1EF2  5A                 [133] (-112)
1EF3  01                 [134] (-110)
1EF4  00                 [135] (-110)
1EF5  00                 [136] (-110)
1EF6  5A                 [137] (-110)
1EF7  01                 [138] (-110)
1EF8  00                 [139] (-109)
1EF9  00                 [140] (89)
1EFA  5B                 [141] (-107)
                         * locals:
20A2  00                 sizelocvars (0)
                         * upvalues:
20A3  00                 sizeupvalues (0)
                         ** end of function **

                         
20A4                     ** function [13] definition (level 2)
                         ** start of function **
20A4  00                 string size (0)
                         source name: (none)
20A6  03                 line defined (408)
20A7  AF                 last line defined (431)
20A8  03                 nups (0)
20A9  00                 numparams (1)
20AA  01                 is_vararg (0)
20AB  00                 maxstacksize (12)
                         * code:
20AD  3E                 sizecode (62)
20AE  4A000000           [01] len        1   0      
20B2  99000000           [02] loadk      2   0        ; 0
fail op	21
20B6  15400001           [03] concat     0   2   1  
20BA  1A000E80           [04] jmp        57           ; to [62]
20BE  CE800000           [05] gettable   3   0   2  
20C2  1D410000           [06] getglobal  4   1        ; 1074689893
20C6  4E81C001           [07] gettable   5   3   258  ; "mergeSymbol"
20CA  22810001           [08] call       4   2   2  
20CE  18410000           [09] test       4       1    ; to [11] if false
20D2  1A000C80           [10] jmp        49           ; to [60]
20D6  0E81C001           [11] gettable   4   3   258  ; "mergeSymbol"
20DA  24C14002           [12] self       4   4   259  ; 828278287
20DE  22810001           [13] call       4   2   2  
20E2  18010000           [14] test       4       0    ; to [16] if true
20E6  1AC00A80           [15] jmp        44           ; to [60]
20EA  12018000           [16] move       4   1      
20EE  43014001           [17] add        5   2   256  ; 0
20F2  99010100           [18] loadk      6   4        ; 0
20F6  10810980           [19] forprep    4   39       ; to [59]
20FA  0EC20100           [20] gettable   8   0   7  
20FE  4E824004           [21] gettable   9   8   258  ; "mergeSymbol"
2102  8E82C001           [22] gettable   10  3   258  ; "mergeSymbol"
fail op	35
2106  23808204           [23] close      0  
210A  1A400880           [24] jmp        34           ; to [59]
210E  4E424104           [25] gettable   9   8   261  ; "tier"
2112  8E42C101           [26] gettable   10  3   261  ; "tier"
fail op	35
2116  23808204           [27] close      0  
211A  1A400780           [28] jmp        30           ; to [59]
211E  5DC20100           [29] getglobal  9   7        ; math
2122  4E02C204           [30] gettable   9   9   264  ; -1962864584
2126  8E82C101           [31] gettable   10  3   262  ; "maxSimultaneous"
212A  CE824104           [32] gettable   11  8   262  ; "maxSimultaneous"
212E  62828001           [33] call       9   3   2  
2132  CC400283           [34] settable   3   262 9    ; "maxSimultaneous"
2136  4E42C201           [35] gettable   9   3   265  ; "probability"
213A  8E424204           [36] gettable   10  8   265  ; "probability"
213E  43828204           [37] add        9   9   10 
2142  CC408284           [38] settable   3   265 9    ; "probability"
2146  5D420000           [39] getglobal  9   1        ; 1074689893
214A  8E82C201           [40] gettable   10  3   266  ; "merged"
214E  62820001           [41] call       9   2   2  
2152  58020000           [42] test       9       0    ; to [44] if true
2156  1AC00080           [43] jmp        4            ; to [48]
215A  4B028000           [44] newtable   9   1   0    ; array=1, hash=0
215E  92028001           [45] move       10  3      
2162  5B428000           [46] setlist    9   1   1    ; index 1 to 1
2166  CC400285           [47] settable   3   266 9    ; "merged"
216A  5DC20200           [48] getglobal  9   11       ; table
216E  4E02C304           [49] gettable   9   9   268  ; -431682403
2172  8E82C201           [50] gettable   10  3   266  ; "merged"
2176  D2020004           [51] move       11  8      
217A  62428001           [52] call       9   3   1  
217E  5DC20200           [53] getglobal  9   11       ; table
2182  4E42C304           [54] gettable   9   9   269  ; -843973282
2186  92020000           [55] move       10  0      
218A  D2028003           [56] move       11  7      
218E  62428001           [57] call       9   3   1  
2192  4D00C000           [58] sub        1   1   256  ; 0
2196  14C1F57F           [59] forloop    4   -40      ; to [20] if loop
219A  83004001           [60] add        2   2   256  ; 0
219E  1A00F17F           [61] jmp        -59          ; to [3]
21A2  1E008000           [62] return     0   1      
                         * constants:
21A6  0E                 sizek (14)
21A7  03                 const type 3
21A8  0000803F           const [0]: (0)
21AC  01                 const type 3
21AD  65770E40           const [1]: (1074689893)
21B1  04                 const type 4
21B2  0C                 string size (12)
21B3  6D6572676553796D+  "mergeSym"
21BB  626F6C00           "bol\0"
                         const [2]: "mergeSymbol"
21BF  01                 const type 3
21C0  0F865E31           const [3]: (828278287)
21C4  03                 const type 3
21C5  000080BF           const [4]: (0)
21C9  04                 const type 4
21CA  05                 string size (5)
21CB  7469657200         "tier\0"
                         const [5]: "tier"
21D0  04                 const type 4
21D1  10                 string size (16)
21D2  6D617853696D756C+  "maxSimul"
21DA  74616E656F757300   "taneous\0"
                         const [6]: "maxSimultaneous"
21E2  04                 const type 4
21E3  05                 string size (5)
21E4  6D61746800         "math\0"
                         const [7]: "math"
21E9  01                 const type 3
21EA  3810018B           const [8]: (-1962864584)
21EE  04                 const type 4
21EF  0C                 string size (12)
21F0  70726F626162696C+  "probabil"
21F8  69747900           "ity\0"
                         const [9]: "probability"
21FC  04                 const type 4
21FD  07                 string size (7)
21FE  6D657267656400     "merged\0"
                         const [10]: "merged"
2205  04                 const type 4
2206  06                 string size (6)
2207  7461626C6500       "table\0"
                         const [11]: "table"
220D  01                 const type 3
220E  9D0C45E6           const [12]: (-431682403)
2212  01                 const type 3
2213  5EFDB1CD           const [13]: (-843973282)
                         * functions:
2217  00                 sizep (0)
                         * lines:
2218  3E                 sizelineinfo (62)
                         [pc] (line)
2219  99                 [01] (-103)
221A  01                 [02] (-102)
221B  00                 [03] (-101)
221C  00                 [04] (-101)
221D  9A                 [05] (-100)
221E  01                 [06] (-99)
221F  00                 [07] (-99)
2220  00                 [08] (-99)
2221  9B                 [09] (-99)
2222  01                 [10] (-99)
2223  00                 [11] (-99)
2224  00                 [12] (-99)
2225  9B                 [13] (-99)
2226  01                 [14] (-99)
2227  00                 [15] (-99)
2228  00                 [16] (-98)
2229  9C                 [17] (-98)
222A  01                 [18] (-98)
222B  00                 [19] (-98)
222C  00                 [20] (-97)
222D  9D                 [21] (-95)
222E  01                 [22] (-95)
222F  00                 [23] (-95)
2230  00                 [24] (-95)
2231  9D                 [25] (-95)
2232  01                 [26] (-95)
2233  00                 [27] (-95)
2234  00                 [28] (-95)
2235  9D                 [29] (-94)
2236  01                 [30] (-94)
2237  00                 [31] (-94)
2238  00                 [32] (-94)
2239  9D                 [33] (-94)
223A  01                 [34] (-94)
223B  00                 [35] (-93)
223C  00                 [36] (-93)
223D  9D                 [37] (-93)
223E  01                 [38] (-93)
223F  00                 [39] (-92)
2240  00                 [40] (-92)
2241  9D                 [41] (-92)
2242  01                 [42] (-92)
2243  00                 [43] (-92)
2244  00                 [44] (-91)
2245  9D                 [45] (-91)
2246  01                 [46] (-91)
2247  00                 [47] (-91)
2248  00                 [48] (-89)
2249  9D                 [49] (-89)
224A  01                 [50] (-89)
224B  00                 [51] (-89)
224C  00                 [52] (-89)
224D  9D                 [53] (-88)
224E  01                 [54] (-88)
224F  00                 [55] (-88)
2250  00                 [56] (-88)
2251  9D                 [57] (-88)
2252  01                 [58] (-87)
2253  00                 [59] (-98)
2254  00                 [60] (-83)
2255  9E                 [61] (-83)
2256  01                 [62] (-81)
                         * locals:
2311  00                 sizelocvars (0)
                         * upvalues:
2312  00                 sizeupvalues (0)
                         ** end of function **

                         
2313                     ** function [14] definition (level 2)
                         ** start of function **
2313  00                 string size (0)
                         source name: (none)
2315  03                 line defined (433)
2316  8E                 last line defined (654)
2317  05                 nups (10)
2318  0A                 numparams (9)
2319  09                 is_vararg (0)
231A  00                 maxstacksize (74)
                         * code:
231D  03                 sizecode (413)
231E  64024001           [001] self       9   2   256  ; -1201441975
2322  62820001           [002] call       9   2   2  
2326  8E42C004           [003] gettable   10  9   257  ; "enemySpec"
232A  E482C004           [004] self       11  9   258  ; -272348948
232E  E2820001           [005] call       11  2   2  
2332  1DC30000           [006] getglobal  12  3        ; 1074689893
2336  52030005           [007] move       13  10     
233A  22830001           [008] call       12  2   2  
233E  18030000           [009] test       12      0    ; to [11] if true
2342  1AC00280           [010] jmp        12           ; to [23]
2346  13030000           [011] getupval   12  0      
234A  52030000           [012] move       13  0      
234E  92038000           [013] move       14  1      
2352  D2030001           [014] move       15  2      
2356  12048001           [015] move       16  3      
235A  52040002           [016] move       17  4      
235E  92048002           [017] move       18  5      
2362  D2040003           [018] move       19  6      
2366  12058003           [019] move       20  7      
236A  52050004           [020] move       21  8      
236E  22430005           [021] call       12  10  1  
2372  1E008000           [022] return     0   1      
2376  06030006           [023] loadnil    12  12     
237A  4E03C104           [024] gettable   13  9   260  ; "goalTag"
237E  9D430100           [025] getglobal  14  5        ; -332969190
2382  D9830100           [026] loadk      15  6        ; "ProjectSinisterBonus"
2386  A2830001           [027] call       14  2   2  
fail op	35
238A  63808306           [028] close      1  
238E  1A400180           [029] jmp        6            ; to [36]
2392  4E03C104           [030] gettable   13  9   260  ; "goalTag"
2396  9D430100           [031] getglobal  14  5        ; -332969190
239A  D9C30100           [032] loadk      15  7        ; "ProjectSinisterC"
239E  A2830001           [033] call       14  2   2  
fail op	35
23A2  23808306           [034] close      0  
23A6  1AC00080           [035] jmp        4            ; to [40]
23AA  5D430100           [036] getglobal  13  5        ; -332969190
23AE  99030200           [037] loadk      14  8        ; "Stalker"
23B2  62830001           [038] call       13  2   2  
23B6  12038006           [039] move       12  13     
23BA  4B030000           [040] newtable   13  0   0    ; array=0, hash=0
23BE  A4434205           [041] self       14  10  265  ; 1891965785
23C2  A2830001           [042] call       14  2   2  
23C6  CB030000           [043] newtable   15  0   0    ; array=0, hash=0
23CA  0A040007           [044] len        16  14     
23CE  59840200           [045] loadk      17  10       ; 0
23D2  99C40200           [046] loadk      18  11       ; 0
23D6  10440D80           [047] forprep    16  54       ; to [102]
23DA  0EC50407           [048] gettable   20  14  19 
fail op	21
23DE  15000286           [049] concat     0   268 8  
23E2  1A400580           [050] jmp        22           ; to [73]
23E6  5DC50000           [051] getglobal  21  3        ; 1074689893
23EA  8E45430A           [052] gettable   22  20  269  ; "agent"
23EE  62850001           [053] call       21  2   2  
23F2  58450000           [054] test       21      1    ; to [56] if false
23F6  1A000480           [055] jmp        17           ; to [73]
23FA  4E85430A           [056] gettable   21  20  270  ; "tier"
23FE  93058000           [057] getupval   22  1      
fail op	35
2402  2380850A           [058] close      0  
2406  1A000380           [059] jmp        13           ; to [73]
240A  53050001           [060] getupval   21  2      
240E  9205000A           [061] move       22  20     
2412  D2058002           [062] move       23  5      
2416  12068005           [063] move       24  11     
241A  52060006           [064] move       25  12     
241E  62858002           [065] call       21  5   2  
fail op	35
2422  63C0C30A           [066] close      1  
2426  1A000180           [067] jmp        5            ; to [73]
242A  9D050400           [068] getglobal  22  16       ; table
242E  8E45440B           [069] gettable   22  22  273  ; -431682403
2432  D2058007           [070] move       23  15     
2436  1206800A           [071] move       24  21     
243A  A2458001           [072] call       22  3   1  
243E  9DC50000           [073] getglobal  22  3        ; 1074689893
2442  CE45430A           [074] gettable   23  20  269  ; "agent"
2446  A2850001           [075] call       22  2   2  
244A  98450000           [076] test       22      1    ; to [78] if false
244E  1A800080           [077] jmp        3            ; to [81]
2452  8E85430A           [078] gettable   22  20  270  ; "tier"
fail op	21
2456  15800503           [079] concat     0   6   22 
245A  1A400180           [080] jmp        6            ; to [87]
245E  9D050400           [081] getglobal  22  16       ; table
2462  8E85440B           [082] gettable   22  22  274  ; -843973282
2466  D2050007           [083] move       23  14     
246A  12068009           [084] move       24  19     
246E  A2458001           [085] call       22  3   1  
2472  1A800380           [086] jmp        15           ; to [102]
2476  93050001           [087] getupval   22  2      
247A  D205000A           [088] move       23  20     
247E  12068002           [089] move       24  5      
2482  52068005           [090] move       25  11     
2486  92060006           [091] move       26  12     
248A  A2858002           [092] call       22  5   2  
fail op	35
248E  23C0430B           [093] close      0  
2492  1A400180           [094] jmp        6            ; to [101]
2496  DD050400           [095] getglobal  23  16       ; table
249A  CE85C40B           [096] gettable   23  23  274  ; -843973282
249E  12060007           [097] move       24  14     
24A2  52068009           [098] move       25  19     
24A6  E2458001           [099] call       23  3   1  
24AA  1A000080           [100] jmp        1            ; to [102]
24AE  8C838509           [101] settable   14  19  22 
24B2  1404F27F           [102] forloop    16  -55      ; to [48] if loop
24B6  CA050007           [103] len        23  14     
fail op	35
24BA  2300C30B           [104] close      0  
24BE  1A800380           [105] jmp        15           ; to [121]
24C2  DDC50400           [106] getglobal  23  19       ; -1817107093
24C6  19060500           [107] loadk      24  20       ; "Could not generate spawn schedule (no enemies!)"
24CA  E2450001           [108] call       23  2   1  
24CE  D3050000           [109] getupval   23  0      
24D2  12060000           [110] move       24  0      
24D6  52068000           [111] move       25  1      
24DA  92060001           [112] move       26  2      
24DE  D2068001           [113] move       27  3      
24E2  12070002           [114] move       28  4      
24E6  52078002           [115] move       29  5      
24EA  92070003           [116] move       30  6      
24EE  D2078003           [117] move       31  7      
24F2  12080004           [118] move       32  8      
24F6  E2450005           [119] call       23  10  1  
24FA  1E008000           [120] return     0   1      
24FE  D3058001           [121] getupval   23  3      
2502  12060007           [122] move       24  14     
2506  E2450001           [123] call       23  2   1  
250A  D3058001           [124] getupval   23  3      
250E  12068007           [125] move       24  15     
2512  E2450001           [126] call       23  2   1  
2516  D9050300           [127] loadk      23  12       ; 0
251A  0A060007           [128] len        24  14     
251E  59860200           [129] loadk      25  10       ; 0
2522  99C60200           [130] loadk      26  11       ; 0
2526  10060A80           [131] forprep    24  41       ; to [173]
252A  0EC70607           [132] gettable   28  14  27 
252E  4E47450E           [133] gettable   29  28  277  ; "probability"
2532  C345870B           [134] add        23  23  29 
2536  57070000           [135] loadbool   29  0   0    ; false
253A  8E47430E           [136] gettable   30  28  269  ; "agent"
253E  A487450F           [137] self       30  30  278  ; 455421500
2542  A2870001           [138] call       30  2   2  
2546  C387C20D           [139] add        31  27  266  ; 0
254A  0A080007           [140] len        32  14     
254E  59880200           [141] loadk      33  10       ; 0
2552  D0470580           [142] forprep    31  22       ; to [165]
2556  CE880807           [143] gettable   35  14  34 
255A  0EC9C511           [144] gettable   36  35  279  ; "typeName"
fail op	35
255E  23800712           [145] close      0  
2562  1A400480           [146] jmp        18           ; to [165]
2566  0E49C511           [147] gettable   36  35  277  ; "probability"
256A  4E49450E           [148] gettable   37  28  277  ; "probability"
256E  03490912           [149] add        36  36  37 
2572  CC08898A           [150] settable   35  277 36   ; "probability"
2576  0E09C611           [151] gettable   36  35  280  ; "maxSimultaneous"
fail op	35
257A  63004312           [152] close      1  
257E  1A800080           [153] jmp        3            ; to [157]
2582  0E09460E           [154] gettable   36  28  280  ; "maxSimultaneous"
fail op	35
2586  23004312           [155] close      0  
258A  1A400080           [156] jmp        2            ; to [159]
258E  CC08438C           [157] settable   35  280 268  ; "maxSimultaneous" 0
2592  1AC00080           [158] jmp        4            ; to [163]
2596  0E09C611           [159] gettable   36  35  280  ; "maxSimultaneous"
259A  4E09460E           [160] gettable   37  28  280  ; "maxSimultaneous"
259E  03490912           [161] add        36  36  37 
25A2  CC08098C           [162] settable   35  280 36   ; "maxSimultaneous"
25A6  57078000           [163] loadbool   29  1   0    ; true
25AA  1A000080           [164] jmp        1            ; to [166]
25AE  D407FA7F           [165] forloop    31  -23      ; to [143] if loop
25B2  58070000           [166] test       29      0    ; to [168] if true
25B6  1A000180           [167] jmp        5            ; to [173]
25BA  1D090400           [168] getglobal  36  16       ; table
25BE  0E894412           [169] gettable   36  36  274  ; -843973282
25C2  52090007           [170] move       37  14     
25C6  9209800D           [171] move       38  27     
25CA  22498001           [172] call       36  3   1  
25CE  1446F57F           [173] forloop    24  -42      ; to [132] if loop
25D2  0B090000           [174] newtable   36  0   0    ; array=0, hash=0
25D6  59890200           [175] loadk      37  10       ; 0
25DA  8A090007           [176] len        38  14     
25DE  D9890200           [177] loadk      39  10       ; 0
25E2  50090980           [178] forprep    37  37       ; to [216]
25E6  4E0A0A07           [179] gettable   41  14  40 
25EA  8E4AC514           [180] gettable   42  41  277  ; "probability"
25EE  848A8A01           [181] mul        42  3   42 
25F2  9CCA0515           [182] div        42  42  23 
25F6  DD4A0600           [183] getglobal  43  25       ; math
25FA  CE8AC615           [184] gettable   43  43  282  ; -150971781
25FE  1D4B0600           [185] getglobal  44  25       ; math
2602  0ECB4616           [186] gettable   44  44  283  ; -2040962569
2606  228B8000           [187] call       44  1   2  
260A  030B0B15           [188] add        44  42  44 
260E  E28A0001           [189] call       43  2   2  
2612  920A8015           [190] move       42  43     
2616  CE0AC614           [191] gettable   43  41  280  ; "maxSimultaneous"
fail op	21
261A  15C00A86           [192] concat     0   268 43 
261E  1AC00280           [193] jmp        12           ; to [206]
2622  DD4A0600           [194] getglobal  43  25       ; math
2626  CE8AC615           [195] gettable   43  43  282  ; -150971781
262A  0E0BC614           [196] gettable   44  41  280  ; "maxSimultaneous"
262E  5C0B8101           [197] div        45  3   4  
2632  044B0B16           [198] mul        44  44  45 
2636  E28A0001           [199] call       43  2   2  
263A  1D4B0600           [200] getglobal  44  25       ; math
263E  0E0B4716           [201] gettable   44  44  284  ; 1710846250
2642  520B8015           [202] move       45  43     
2646  920B0015           [203] move       46  42     
264A  228B8001           [204] call       44  3   2  
264E  920A0016           [205] move       42  44     
fail op	21
2652  15800A86           [206] concat     0   268 42 
2656  1AC00180           [207] jmp        8            ; to [216]
265A  130B0002           [208] getupval   44  4      
265E  520B8006           [209] move       45  13     
2662  920B0012           [210] move       46  36     
2666  D20B8014           [211] move       47  41     
266A  120C0015           [212] move       48  42     
266E  520C0002           [213] move       49  4      
2672  920C8003           [214] move       50  7      
2676  224B8003           [215] call       44  7   1  
267A  5449F67F           [216] forloop    37  -38      ; to [179] if loop
267E  0A0B8006           [217] len        44  13     
fail op	35
2682  23004316           [218] close      0  
2686  1A800380           [219] jmp        15           ; to [235]
268A  1DCB0400           [220] getglobal  44  19       ; -1817107093
268E  594B0700           [221] loadk      45  29       ; "Could not generate spawn schedule!"
2692  224B0001           [222] call       44  2   1  
2696  130B0000           [223] getupval   44  0      
269A  520B0000           [224] move       45  0      
269E  920B8000           [225] move       46  1      
26A2  D20B0001           [226] move       47  2      
26A6  120C8001           [227] move       48  3      
26AA  520C0002           [228] move       49  4      
26AE  920C8002           [229] move       50  5      
26B2  D20C0003           [230] move       51  6      
26B6  120D8003           [231] move       52  7      
26BA  520D0004           [232] move       53  8      
26BE  224B0005           [233] call       44  10  1  
26C2  1E008000           [234] return     0   1      
26C6  1D0B0400           [235] getglobal  44  16       ; table
26CA  0E8B4716           [236] gettable   44  44  286  ; -1513783280
26CE  520B8006           [237] move       45  13     
26D2  A50B0000           [238] closure    46  0      
26D6  224B8001           [239] call       44  3   1  
26DA  0A0B8007           [240] len        44  15     
fail op	21
26DE  15000B86           [241] concat     0   268 44 
26E2  1AC00580           [242] jmp        24           ; to [267]
26E6  1D4B0600           [243] getglobal  44  25       ; math
26EA  0ECB4616           [244] gettable   44  44  283  ; -2040962569
26EE  598B0200           [245] loadk      45  10       ; 0
26F2  8A0B8007           [246] len        46  15     
26F6  228B8001           [247] call       44  3   2  
26FA  0E0B8B07           [248] gettable   44  15  44 
26FE  4E0B4616           [249] gettable   45  44  280  ; "maxSimultaneous"
fail op	33
2702  2100C316           [250] tforloop   0       268  ; to [252] if exit
2706  1A000080           [251] jmp        1            ; to [253]
270A  598B0200           [252] loadk      45  10       ; 0
270E  0C0B438C           [253] settable   44  280 268  ; "maxSimultaneous" 0
2712  99CB0700           [254] loadk      46  31       ; 0
2716  D30B0002           [255] getupval   47  4      
271A  120C8006           [256] move       48  13     
271E  520C0012           [257] move       49  36     
2722  920C0016           [258] move       50  44     
2726  D20C8016           [259] move       51  45     
272A  120D0002           [260] move       52  4      
272E  520D0017           [261] move       53  46     
2732  E24B8003           [262] call       47  7   1  
2736  E40B4801           [263] self       47  2   288  ; -803877924
273A  530C8002           [264] getupval   49  5      
273E  920C0000           [265] move       50  0      
2742  E24B0002           [266] call       47  4   1  
2746  D98B0200           [267] loadk      47  10       ; 0
274A  0A0C0012           [268] len        48  36     
274E  598C0200           [269] loadk      49  10       ; 0
2752  D04B1080           [270] forprep    47  66       ; to [337]
2756  CE8C0C12           [271] gettable   51  36  50 
275A  060D001A           [272] loadnil    52  52     
275E  598D0200           [273] loadk      53  10       ; 0
2762  8A0D8006           [274] len        54  13     
2766  D98D0200           [275] loadk      55  10       ; 0
276A  508D0680           [276] forprep    53  27       ; to [304]
276E  4E0E8E06           [277] gettable   57  13  56 
2772  8E4EC81C           [278] gettable   58  57  289  ; "spacingIndex"
fail op	35
2776  63800C1D           [279] close      1  
277A  1A000080           [280] jmp        1            ; to [282]
277E  1A400580           [281] jmp        22           ; to [304]
fail op	35
2782  63C0431A           [282] close      1  
2786  1A800080           [283] jmp        3            ; to [287]
278A  8D0E0D1C           [284] sub        58  56  52 
fail op	33
278E  21808E19           [285] tforloop   0       58   ; to [287] if exit
2792  1A400080           [286] jmp        2            ; to [289]
2796  120D001C           [287] move       52  56     
279A  1A800380           [288] jmp        15           ; to [304]
279E  83CE0C1C           [289] add        58  56  51 
27A2  CA0E8006           [290] len        59  13     
fail op	21
27A6  15C00E1D           [291] concat     0   58  59 
27AA  1A800280           [292] jmp        11           ; to [304]
27AE  9D0E0400           [293] getglobal  58  16       ; table
27B2  8E8E441D           [294] gettable   58  58  274  ; -843973282
27B6  D20E8006           [295] move       59  13     
27BA  120F001C           [296] move       60  56     
27BE  A24E8001           [297] call       58  3   1  
27C2  9D0E0400           [298] getglobal  58  16       ; table
27C6  8E4E441D           [299] gettable   58  58  273  ; -431682403
27CA  D20E8006           [300] move       59  13     
27CE  03CF0C1C           [301] add        60  56  51 
27D2  520F801C           [302] move       61  57     
27D6  A24E0002           [303] call       58  4   1  
27DA  54CDF87F           [304] forloop    53  -28      ; to [277] if loop
27DE  060D001A           [305] loadnil    52  52     
27E2  8A0E8006           [306] len        58  13     
27E6  D98E0200           [307] loadk      59  10       ; 0
27EA  19CF0200           [308] loadk      60  11       ; 0
27EE  904E0680           [309] forprep    58  26       ; to [336]
27F2  8E4F8F06           [310] gettable   62  13  61 
27F6  CE4F481F           [311] gettable   63  62  289  ; "spacingIndex"
fail op	35
27FA  63808C1F           [312] close      1  
27FE  1A000080           [313] jmp        1            ; to [315]
2802  1A000580           [314] jmp        21           ; to [336]
fail op	35
2806  63C0431A           [315] close      1  
280A  1A800080           [316] jmp        3            ; to [320]
280E  CD4F0F1A           [317] sub        63  52  61 
fail op	33
2812  21C08F19           [318] tforloop   0       63   ; to [320] if exit
2816  1A400080           [319] jmp        2            ; to [322]
281A  120D801E           [320] move       52  61     
281E  1A400380           [321] jmp        14           ; to [336]
2822  CDCF8C1E           [322] sub        63  61  51 
fail op	21
2826  15C00F86           [323] concat     0   268 63 
282A  1A800280           [324] jmp        11           ; to [336]
282E  DD0F0400           [325] getglobal  63  16       ; table
2832  CE8FC41F           [326] gettable   63  63  274  ; -843973282
2836  12108006           [327] move       64  13     
283A  5210801E           [328] move       65  61     
283E  E24F8001           [329] call       63  3   1  
2842  DD0F0400           [330] getglobal  63  16       ; table
2846  CE4FC41F           [331] gettable   63  63  273  ; -431682403
284A  12108006           [332] move       64  13     
284E  4DD08C1E           [333] sub        65  61  51 
2852  9210001F           [334] move       66  62     
2856  E24F0002           [335] call       63  4   1  
285A  940EF97F           [336] forloop    58  -27      ; to [310] if loop
285E  D40BEF7F           [337] forloop    47  -67      ; to [271] if loop
2862  CA0F8006           [338] len        63  13     
fail op	21
2866  15C08F01           [339] concat     0   3   63 
286A  1A400180           [340] jmp        6            ; to [347]
286E  DD0F0400           [341] getglobal  63  16       ; table
2872  CE8FC41F           [342] gettable   63  63  274  ; -843973282
2876  12108006           [343] move       64  13     
287A  59900200           [344] loadk      65  10       ; 0
287E  E24F8001           [345] call       63  3   1  
2882  1A80FD7F           [346] jmp        -9           ; to [338]
2886  E48F4801           [347] self       63  2   290  ; -317790213
288A  53100003           [348] getupval   65  6      
288E  E28F8001           [349] call       63  3   2  
2892  13108003           [350] getupval   64  7      
fail op	33
2896  21C00F20           [351] tforloop   0       63   ; to [353] if exit
289A  1A000080           [352] jmp        1            ; to [354]
289E  D90F0300           [353] loadk      63  12       ; 0
28A2  17100000           [354] loadbool   64  0   0    ; false
28A6  18100000           [355] test       64      0    ; to [357] if true
28AA  1A000080           [356] jmp        1            ; to [358]
28AE  D9800200           [357] loadk      3   10       ; 0
28B2  06100020           [358] loadnil    64  64     
28B6  5D500600           [359] getglobal  65  25       ; math
28BA  4E10C720           [360] gettable   65  65  284  ; 1710846250
28BE  92108001           [361] move       66  3      
28C2  CA108006           [362] len        67  13     
28C6  62908001           [363] call       65  3   2  
28CA  D2008020           [364] move       3   65     
fail op	21
28CE  15C0801F           [365] concat     0   63  3  
28D2  1A400A80           [366] jmp        42           ; to [409]
28D6  64D0C800           [367] self       65  1   291  ; 932988922
28DA  62900001           [368] call       65  2   2  
fail op	21
28DE  15008120           [369] concat     0   65  4  
28E2  1A400880           [370] jmp        34           ; to [405]
28E6  6410C900           [371] self       65  1   292  ; -1626084341
28EA  62900001           [372] call       65  2   2  
fail op	21
28EE  15008120           [373] concat     0   65  4  
28F2  1A400780           [374] jmp        30           ; to [405]
28F6  4390C21F           [375] add        65  63  266  ; 0
28FA  4E509006           [376] gettable   65  13  65 
28FE  A450C900           [377] self       66  1   293  ; -882288891
2902  A2500001           [378] call       66  2   1  
2906  A490C900           [379] self       66  1   294  ; -1642488687
290A  0ED1C920           [380] gettable   68  65  295  ; "type"
290E  52110020           [381] move       69  64     
2912  93110004           [382] getupval   70  8      
2916  D2118002           [383] move       71  5      
291A  06120024           [384] loadnil    72  72     
291E  4E12CA20           [385] gettable   73  65  296  ; "genus"
2922  A2900004           [386] call       66  8   2  
2926  DDD00000           [387] getglobal  67  3        ; 1074689893
292A  12110021           [388] move       68  66     
292E  E2900001           [389] call       67  2   2  
2932  D8100000           [390] test       67      0    ; to [392] if true
2936  1A000080           [391] jmp        1            ; to [393]
293A  1AC00280           [392] jmp        12           ; to [405]
293E  C38FC21F           [393] add        63  63  266  ; 0
2942  E4104801           [394] self       67  2   288  ; -803877924
2946  53110003           [395] getupval   69  6      
294A  9211801F           [396] move       70  63     
294E  E2500002           [397] call       67  4   1  
2952  D3108004           [398] getupval   67  9      
2956  12110021           [399] move       68  66     
295A  5D510A00           [400] getglobal  69  41       ; goal
295E  E2508001           [401] call       67  3   1  
2962  E490CA00           [402] self       67  1   298  ; -671589828
2966  52110021           [403] move       69  66     
296A  E2508001           [404] call       67  3   1  
296E  DDD00A00           [405] getglobal  67  43       ; 538022378
2972  19110B00           [406] loadk      68  44       ; 0
2976  E2500001           [407] call       67  2   1  
297A  1AC0F47F           [408] jmp        -44          ; to [365]
297E  E4104801           [409] self       67  2   288  ; -803877924
2982  53110003           [410] getupval   69  6      
2986  93118003           [411] getupval   70  7      
298A  E2500002           [412] call       67  4   1  
298E  1E008000           [413] return     0   1      
                         * constants:
2992  2D                 sizek (45)
2993  01                 const type 3
2994  497363B8           const [0]: (-1201441975)
2998  04                 const type 4
2999  0A                 string size (10)
299A  656E656D79537065+  "enemySpe"
29A2  6300               "c\0"
                         const [1]: "enemySpec"
29A4  01                 const type 3
29A5  EC48C4EF           const [2]: (-272348948)
29A9  01                 const type 3
29AA  65770E40           const [3]: (1074689893)
29AE  04                 const type 4
29AF  08                 string size (8)
29B0  676F616C54616700   "goalTag\0"
                         const [4]: "goalTag"
29B8  01                 const type 3
29B9  1A4B27EC           const [5]: (-332969190)
29BD  04                 const type 4
29BE  15                 string size (21)
29BF  50726F6A65637453+  "ProjectS"
29C7  696E697374657242+  "inisterB"
29CF  6F6E757300         "onus\0"
                         const [6]: "ProjectSinisterBonus"
29D4  04                 const type 4
29D5  11                 string size (17)
29D6  50726F6A65637453+  "ProjectS"
29DE  696E697374657243+  "inisterC"
29E6  00                 "\0"
                         const [7]: "ProjectSinisterC"
29E7  04                 const type 4
29E8  08                 string size (8)
29E9  5374616C6B657200   "Stalker\0"
                         const [8]: "Stalker"
29F1  01                 const type 3
29F2  591BC570           const [9]: (1891965785)
29F6  03                 const type 3
29F7  0000803F           const [10]: (0)
29FB  03                 const type 3
29FC  000080BF           const [11]: (0)
2A00  03                 const type 3
2A01  00000000           const [12]: (0)
2A05  04                 const type 4
2A06  06                 string size (6)
2A07  6167656E7400       "agent\0"
                         const [13]: "agent"
2A0D  04                 const type 4
2A0E  05                 string size (5)
2A0F  7469657200         "tier\0"
                         const [14]: "tier"
2A14  00                 const type 0
                         const [15]: nil
2A15  04                 const type 4
2A16  06                 string size (6)
2A17  7461626C6500       "table\0"
                         const [16]: "table"
2A1D  01                 const type 3
2A1E  9D0C45E6           const [17]: (-431682403)
2A22  01                 const type 3
2A23  5EFDB1CD           const [18]: (-843973282)
2A27  01                 const type 3
2A28  6B25B193           const [19]: (-1817107093)
2A2C  04                 const type 4
2A2D  30                 string size (48)
2A2E  436F756C64206E6F+  "Could no"
2A36  742067656E657261+  "t genera"
2A3E  746520737061776E+  "te spawn"
2A46  207363686564756C+  " schedul"
2A4E  6520286E6F20656E+  "e (no en"
2A56  656D696573212900   "emies!)\0"
                         const [20]: "Could not generate spawn schedule (no enemies!)"
2A5E  04                 const type 4
2A5F  0C                 string size (12)
2A60  70726F626162696C+  "probabil"
2A68  69747900           "ity\0"
                         const [21]: "probability"
2A6C  01                 const type 3
2A6D  3C2E251B           const [22]: (455421500)
2A71  04                 const type 4
2A72  09                 string size (9)
2A73  747970654E616D65+  "typeName"
2A7B  00                 "\0"
                         const [23]: "typeName"
2A7C  04                 const type 4
2A7D  10                 string size (16)
2A7E  6D617853696D756C+  "maxSimul"
2A86  74616E656F757300   "taneous\0"
                         const [24]: "maxSimultaneous"
2A8E  04                 const type 4
2A8F  05                 string size (5)
2A90  6D61746800         "math\0"
                         const [25]: "math"
2A95  01                 const type 3
2A96  7B5A00F7           const [26]: (-150971781)
2A9A  01                 const type 3
2A9B  F7615986           const [27]: (-2040962569)
2A9F  01                 const type 3
2AA0  2A71F965           const [28]: (1710846250)
2AA4  04                 const type 4
2AA5  23                 string size (35)
2AA6  436F756C64206E6F+  "Could no"
2AAE  742067656E657261+  "t genera"
2AB6  746520737061776E+  "te spawn"
2ABE  207363686564756C+  " schedul"
2AC6  652100             "e!\0"
                         const [29]: "Could not generate spawn schedule!"
2AC9  01                 const type 3
2ACA  1080C5A5           const [30]: (-1513783280)
2ACE  03                 const type 3
2ACF  0000C842           const [31]: (0)
2AD3  01                 const type 3
2AD4  DCCB15D0           const [32]: (-803877924)
2AD8  04                 const type 4
2AD9  0D                 string size (13)
2ADA  73706163696E6749+  "spacingI"
2AE2  6E64657800         "ndex\0"
                         const [33]: "spacingIndex"
2AE7  01                 const type 3
2AE8  FBE70EED           const [34]: (-317790213)
2AEC  01                 const type 3
2AED  FA479C37           const [35]: (932988922)
2AF1  01                 const type 3
2AF2  0BEC139F           const [36]: (-1626084341)
2AF6  01                 const type 3
2AF7  055769CB           const [37]: (-882288891)
2AFB  01                 const type 3
2AFC  919C199E           const [38]: (-1642488687)
2B00  04                 const type 4
2B01  05                 string size (5)
2B02  7479706500         "type\0"
                         const [39]: "type"
2B07  04                 const type 4
2B08  06                 string size (6)
2B09  67656E757300       "genus\0"
                         const [40]: "genus"
2B0F  04                 const type 4
2B10  05                 string size (5)
2B11  676F616C00         "goal\0"
                         const [41]: "goal"
2B16  01                 const type 3
2B17  3C5AF8D7           const [42]: (-671589828)
2B1B  01                 const type 3
2B1C  EA911120           const [43]: (538022378)
2B20  03                 const type 3
2B21  0000803E           const [44]: (0)
                         * functions:
2B25  01                 sizep (1)
                         
2B26                     ** function [0] definition (level 3)
                         ** start of function **
2B26  00                 string size (0)
                         source name: (none)
2B28  04                 line defined (551)
2B29  A7                 last line defined (551)
2B2A  04                 nups (0)
2B2B  00                 numparams (2)
2B2C  02                 is_vararg (0)
2B2D  00                 maxstacksize (4)
                         * code:
2B2F  08                 sizecode (8)
2B30  8E004000           [1] gettable   2   0   256  ; "sortKey"
2B34  CE00C000           [2] gettable   3   1   256  ; "sortKey"
fail op	21
2B38  55C00001           [3] concat     1   2   3  
2B3C  1A000080           [4] jmp        1            ; to [6]
2B40  97400000           [5] loadbool   2   0   1    ; false, to [7]
2B44  97008000           [6] loadbool   2   1   0    ; true
2B48  9E000001           [7] return     2   2      
2B4C  1E008000           [8] return     0   1      
                         * constants:
2B50  01                 sizek (1)
2B51  04                 const type 4
2B52  08                 string size (8)
2B53  736F72744B657900   "sortKey\0"
                         const [0]: "sortKey"
                         * functions:
2B5B  00                 sizep (0)
                         * lines:
2B5C  08                 sizelineinfo (8)
                         [pc] (line)
2B5D  27                 [1] (39)
2B5E  02                 [2] (39)
2B5F  00                 [3] (39)
2B60  00                 [4] (39)
2B61  27                 [5] (39)
2B62  02                 [6] (39)
2B63  00                 [7] (39)
2B64  00                 [8] (39)
                         * locals:
2B7D  00                 sizelocvars (0)
                         * upvalues:
2B7E  00                 sizeupvalues (0)
                         ** end of function **

                         * lines:
2B80  03                 sizelineinfo (413)
                         [pc] (line)
2B81  B3                 [001] (-77)
2B82  01                 [002] (-77)
2B83  00                 [003] (-76)
2B84  00                 [004] (-75)
2B85  B3                 [005] (-75)
2B86  01                 [006] (-73)
2B87  00                 [007] (-73)
2B88  00                 [008] (-73)
2B89  B4                 [009] (-73)
2B8A  01                 [010] (-73)
2B8B  00                 [011] (-72)
2B8C  00                 [012] (-72)
2B8D  B5                 [013] (-72)
2B8E  01                 [014] (-72)
2B8F  00                 [015] (-72)
2B90  00                 [016] (-72)
2B91  B5                 [017] (-72)
2B92  01                 [018] (-72)
2B93  00                 [019] (-72)
2B94  00                 [020] (-72)
2B95  B7                 [021] (-72)
2B96  01                 [022] (-71)
2B97  00                 [023] (-65)
2B98  00                 [024] (-64)
2B99  B7                 [025] (-64)
2B9A  01                 [026] (-64)
2B9B  00                 [027] (-64)
2B9C  00                 [028] (-64)
2B9D  B7                 [029] (-64)
2B9E  01                 [030] (-64)
2B9F  00                 [031] (-64)
2BA0  00                 [032] (-64)
2BA1  B7                 [033] (-64)
2BA2  01                 [034] (-64)
2BA3  00                 [035] (-64)
2BA4  00                 [036] (-63)
2BA5  B7                 [037] (-63)
2BA6  01                 [038] (-63)
2BA7  00                 [039] (-63)
2BA8  00                 [040] (-59)
2BA9  B8                 [041] (-58)
2BAA  01                 [042] (-58)
2BAB  00                 [043] (-57)
2BAC  00                 [044] (-54)
2BAD  B8                 [045] (-54)
2BAE  01                 [046] (-54)
2BAF  00                 [047] (-54)
2BB0  00                 [048] (-53)
2BB1  B8                 [049] (-51)
2BB2  01                 [050] (-51)
2BB3  00                 [051] (-51)
2BB4  00                 [052] (-51)
2BB5  B8                 [053] (-51)
2BB6  01                 [054] (-51)
2BB7  00                 [055] (-51)
2BB8  00                 [056] (-51)
2BB9  B8                 [057] (-51)
2BBA  01                 [058] (-51)
2BBB  00                 [059] (-51)
2BBC  00                 [060] (-50)
2BBD  B8                 [061] (-50)
2BBE  01                 [062] (-50)
2BBF  00                 [063] (-50)
2BC0  00                 [064] (-50)
2BC1  B8                 [065] (-50)
2BC2  01                 [066] (-48)
2BC3  00                 [067] (-48)
2BC4  00                 [068] (-47)
2BC5  B8                 [069] (-47)
2BC6  01                 [070] (-47)
2BC7  00                 [071] (-47)
2BC8  00                 [072] (-47)
2BC9  B8                 [073] (-43)
2BCA  01                 [074] (-43)
2BCB  00                 [075] (-43)
2BCC  00                 [076] (-43)
2BCD  B8                 [077] (-43)
2BCE  01                 [078] (-43)
2BCF  00                 [079] (-43)
2BD0  00                 [080] (-43)
2BD1  B8                 [081] (-42)
2BD2  01                 [082] (-42)
2BD3  00                 [083] (-42)
2BD4  00                 [084] (-42)
2BD5  B9                 [085] (-42)
2BD6  01                 [086] (-42)
2BD7  00                 [087] (-40)
2BD8  00                 [088] (-40)
2BD9  BF                 [089] (-40)
2BDA  01                 [090] (-40)
2BDB  00                 [091] (-40)
2BDC  00                 [092] (-40)
2BDD  C0                 [093] (-38)
2BDE  01                 [094] (-38)
2BDF  00                 [095] (-37)
2BE0  00                 [096] (-37)
2BE1  C0                 [097] (-37)
2BE2  01                 [098] (-37)
2BE3  00                 [099] (-37)
2BE4  00                 [100] (-37)
2BE5  C0                 [101] (-35)
2BE6  01                 [102] (-54)
2BE7  00                 [103] (-30)
2BE8  00                 [104] (-30)
2BE9  C0                 [105] (-30)
2BEA  01                 [106] (-29)
2BEB  00                 [107] (-29)
2BEC  00                 [108] (-29)
2BED  C0                 [109] (-28)
2BEE  01                 [110] (-28)
2BEF  00                 [111] (-28)
2BF0  00                 [112] (-28)
2BF1  C0                 [113] (-28)
2BF2  01                 [114] (-28)
2BF3  00                 [115] (-28)
2BF4  00                 [116] (-28)
2BF5  C0                 [117] (-28)
2BF6  01                 [118] (-28)
2BF7  00                 [119] (-28)
2BF8  00                 [120] (-27)
2BF9  C0                 [121] (-24)
2BFA  01                 [122] (-24)
2BFB  00                 [123] (-24)
2BFC  00                 [124] (-23)
2BFD  C0                 [125] (-23)
2BFE  01                 [126] (-23)
2BFF  00                 [127] (-20)
2C00  00                 [128] (-19)
2C01  C0                 [129] (-19)
2C02  01                 [130] (-19)
2C03  00                 [131] (-19)
2C04  00                 [132] (-18)
2C05  C0                 [133] (-16)
2C06  01                 [134] (-16)
2C07  00                 [135] (-13)
2C08  00                 [136] (-12)
2C09  C0                 [137] (-12)
2C0A  01                 [138] (-12)
2C0B  00                 [139] (-10)
2C0C  00                 [140] (-10)
2C0D  C1                 [141] (-10)
2C0E  01                 [142] (-10)
2C0F  00                 [143] (-9)
2C10  00                 [144] (-7)
2C11  C1                 [145] (-7)
2C12  01                 [146] (-7)
2C13  00                 [147] (-6)
2C14  00                 [148] (-6)
2C15  C1                 [149] (-6)
2C16  01                 [150] (-6)
2C17  00                 [151] (-4)
2C18  00                 [152] (-4)
2C19  C1                 [153] (-4)
2C1A  01                 [154] (-4)
2C1B  00                 [155] (-4)
2C1C  00                 [156] (-4)
2C1D  C5                 [157] (-3)
2C1E  01                 [158] (-3)
2C1F  00                 [159] (-1)
2C20  00                 [160] (-1)
2C21  C6                 [161] (-1)
2C22  01                 [162] (-1)
2C23  00                 [163] (2)
2C24  00                 [164] (3)
2C25  C6                 [165] (-10)
2C26  01                 [166] (7)
2C27  00                 [167] (7)
2C28  00                 [168] (8)
2C29  C7                 [169] (8)
2C2A  01                 [170] (8)
2C2B  00                 [171] (8)
2C2C  00                 [172] (8)
2C2D  CA                 [173] (-19)
2C2E  01                 [174] (13)
2C2F  00                 [175] (17)
2C30  00                 [176] (17)
2C31  CA                 [177] (17)
2C32  01                 [178] (17)
2C33  00                 [179] (18)
2C34  00                 [180] (20)
2C35  CA                 [181] (20)
2C36  01                 [182] (20)
2C37  00                 [183] (21)
2C38  00                 [184] (21)
2C39  CA                 [185] (21)
2C3A  01                 [186] (21)
2C3B  00                 [187] (21)
2C3C  00                 [188] (21)
2C3D  CB                 [189] (21)
2C3E  01                 [190] (21)
2C3F  00                 [191] (23)
2C40  00                 [192] (23)
2C41  CD                 [193] (23)
2C42  01                 [194] (24)
2C43  00                 [195] (24)
2C44  00                 [196] (24)
2C45  CD                 [197] (24)
2C46  01                 [198] (24)
2C47  00                 [199] (24)
2C48  00                 [200] (25)
2C49  CD                 [201] (25)
2C4A  01                 [202] (25)
2C4B  00                 [203] (25)
2C4C  00                 [204] (25)
2C4D  CD                 [205] (25)
2C4E  01                 [206] (28)
2C4F  00                 [207] (28)
2C50  00                 [208] (29)
2C51  CD                 [209] (29)
2C52  01                 [210] (29)
2C53  00                 [211] (29)
2C54  00                 [212] (29)
2C55  CD                 [213] (29)
2C56  01                 [214] (29)
2C57  00                 [215] (29)
2C58  00                 [216] (17)
2C59  CD                 [217] (33)
2C5A  01                 [218] (33)
2C5B  00                 [219] (33)
2C5C  00                 [220] (34)
2C5D  CD                 [221] (34)
2C5E  01                 [222] (34)
2C5F  00                 [223] (35)
2C60  00                 [224] (35)
2C61  CD                 [225] (35)
2C62  01                 [226] (35)
2C63  00                 [227] (35)
2C64  00                 [228] (35)
2C65  CD                 [229] (35)
2C66  01                 [230] (35)
2C67  00                 [231] (35)
2C68  00                 [232] (35)
2C69  CD                 [233] (35)
2C6A  01                 [234] (36)
2C6B  00                 [235] (39)
2C6C  00                 [236] (39)
2C6D  CE                 [237] (39)
2C6E  01                 [238] (39)
2C6F  00                 [239] (39)
2C70  00                 [240] (41)
2C71  CE                 [241] (41)
2C72  01                 [242] (41)
2C73  00                 [243] (42)
2C74  00                 [244] (42)
2C75  CE                 [245] (42)
2C76  01                 [246] (42)
2C77  00                 [247] (42)
2C78  00                 [248] (42)
2C79  CE                 [249] (45)
2C7A  01                 [250] (47)
2C7B  00                 [251] (47)
2C7C  00                 [252] (48)
2C7D  CE                 [253] (51)
2C7E  01                 [254] (53)
2C7F  00                 [255] (54)
2C80  00                 [256] (54)
2C81  CE                 [257] (54)
2C82  01                 [258] (54)
2C83  00                 [259] (54)
2C84  00                 [260] (54)
2C85  D0                 [261] (54)
2C86  01                 [262] (54)
2C87  00                 [263] (56)
2C88  00                 [264] (56)
2C89  D0                 [265] (56)
2C8A  01                 [266] (56)
2C8B  00                 [267] (60)
2C8C  00                 [268] (60)
2C8D  D1                 [269] (60)
2C8E  01                 [270] (60)
2C8F  00                 [271] (61)
2C90  00                 [272] (64)
2C91  D1                 [273] (65)
2C92  01                 [274] (65)
2C93  00                 [275] (65)
2C94  00                 [276] (65)
2C95  D1                 [277] (66)
2C96  01                 [278] (68)
2C97  00                 [279] (68)
2C98  00                 [280] (68)
2C99  D1                 [281] (68)
2C9A  01                 [282] (70)
2C9B  00                 [283] (70)
2C9C  00                 [284] (70)
2C9D  D1                 [285] (70)
2C9E  01                 [286] (70)
2C9F  00                 [287] (71)
2CA0  00                 [288] (71)
2CA1  D5                 [289] (72)
2CA2  01                 [290] (72)
2CA3  00                 [291] (72)
2CA4  00                 [292] (72)
2CA5  D5                 [293] (73)
2CA6  01                 [294] (73)
2CA7  00                 [295] (73)
2CA8  00                 [296] (73)
2CA9  D5                 [297] (73)
2CAA  01                 [298] (74)
2CAB  00                 [299] (74)
2CAC  00                 [300] (74)
2CAD  D5                 [301] (74)
2CAE  01                 [302] (74)
2CAF  00                 [303] (74)
2CB0  00                 [304] (65)
2CB1  D5                 [305] (79)
2CB2  01                 [306] (80)
2CB3  00                 [307] (80)
2CB4  00                 [308] (80)
2CB5  D5                 [309] (80)
2CB6  01                 [310] (81)
2CB7  00                 [311] (83)
2CB8  00                 [312] (83)
2CB9  D5                 [313] (83)
2CBA  01                 [314] (83)
2CBB  00                 [315] (85)
2CBC  00                 [316] (85)
2CBD  D5                 [317] (85)
2CBE  01                 [318] (85)
2CBF  00                 [319] (85)
2CC0  00                 [320] (86)
2CC1  D6                 [321] (86)
2CC2  01                 [322] (87)
2CC3  00                 [323] (87)
2CC4  00                 [324] (87)
2CC5  D6                 [325] (88)
2CC6  01                 [326] (88)
2CC7  00                 [327] (88)
2CC8  00                 [328] (88)
2CC9  D6                 [329] (88)
2CCA  01                 [330] (89)
2CCB  00                 [331] (89)
2CCC  00                 [332] (89)
2CCD  D6                 [333] (89)
2CCE  01                 [334] (89)
2CCF  00                 [335] (89)
2CD0  00                 [336] (80)
2CD1  D6                 [337] (60)
2CD2  01                 [338] (94)
2CD3  00                 [339] (94)
2CD4  00                 [340] (94)
2CD5  D6                 [341] (95)
2CD6  01                 [342] (95)
2CD7  00                 [343] (95)
2CD8  00                 [344] (95)
2CD9  D8                 [345] (95)
2CDA  01                 [346] (95)
2CDB  00                 [347] (100)
2CDC  00                 [348] (100)
2CDD  D8                 [349] (100)
2CDE  01                 [350] (101)
2CDF  00                 [351] (101)
2CE0  00                 [352] (101)
2CE1  D8                 [353] (102)
2CE2  01                 [354] (105)
2CE3  00                 [355] (105)
2CE4  00                 [356] (105)
2CE5  D8                 [357] (106)
2CE6  01                 [358] (109)
2CE7  00                 [359] (111)
2CE8  00                 [360] (111)
2CE9  D8                 [361] (111)
2CEA  01                 [362] (111)
2CEB  00                 [363] (111)
2CEC  00                 [364] (111)
2CED  D8                 [365] (113)
2CEE  01                 [366] (113)
2CEF  00                 [367] (114)
2CF0  00                 [368] (114)
2CF1  DA                 [369] (114)
2CF2  01                 [370] (114)
2CF3  00                 [371] (114)
2CF4  00                 [372] (114)
2CF5  DA                 [373] (114)
2CF6  01                 [374] (114)
2CF7  00                 [375] (116)
2CF8  00                 [376] (116)
2CF9  DB                 [377] (118)
2CFA  01                 [378] (118)
2CFB  00                 [379] (121)
2CFC  00                 [380] (121)
2CFD  DB                 [381] (121)
2CFE  01                 [382] (121)
2CFF  00                 [383] (121)
2D00  00                 [384] (121)
2D01  DB                 [385] (121)
2D02  01                 [386] (121)
2D03  00                 [387] (123)
2D04  00                 [388] (123)
2D05  DB                 [389] (123)
2D06  01                 [390] (123)
2D07  00                 [391] (123)
2D08  00                 [392] (123)
2D09  DB                 [393] (-124)
2D0A  01                 [394] (-123)
2D0B  00                 [395] (-123)
2D0C  00                 [396] (-123)
2D0D  DB                 [397] (-123)
2D0E  01                 [398] (-122)
2D0F  00                 [399] (-122)
2D10  00                 [400] (-122)
2D11  DD                 [401] (-122)
2D12  01                 [402] (-121)
2D13  00                 [403] (-121)
2D14  00                 [404] (-121)
2D15  CA                 [405] (-118)
2D16  01                 [406] (-118)
2D17  00                 [407] (-118)
2D18  00                 [408] (-118)
2D19  E2                 [409] (-115)
2D1A  01                 [410] (-115)
2D1B  00                 [411] (-115)
2D1C  00                 [412] (-115)
2D1D  E2                 [413] (-114)
                         * locals:
31F5  00                 sizelocvars (0)
                         * upvalues:
31F6  00                 sizeupvalues (0)
                         ** end of function **

                         
31F7                     ** function [15] definition (level 2)
                         ** start of function **
31F7  00                 string size (0)
                         source name: (none)
31F9  05                 line defined (656)
31FA  F5                 last line defined (757)
31FB  05                 nups (26)
31FC  1A                 numparams (2)
31FD  02                 is_vararg (0)
31FE  00                 maxstacksize (34)
                         * code:
3201  01                 sizecode (242)
3202  9D000000           [001] getglobal  2   0        ; gGameRules
3206  DD400000           [002] getglobal  3   1        ; gRegion
320A  E480C001           [003] self       3   3   258  ; -774964848
320E  E2800001           [004] call       3   2   2  
3212  24C1C001           [005] self       4   3   259  ; 537471347
3216  22810001           [006] call       4   2   2  
321A  64014101           [007] self       5   2   260  ; 2035260829
321E  D2010000           [008] move       7   0      
3222  62418001           [009] call       5   3   1  
3226  64414100           [010] self       5   0   261  ; -1338608417
322A  D3010000           [011] getupval   7   0      
322E  62418001           [012] call       5   3   1  
3232  64814100           [013] self       5   0   262  ; 155743781
3236  D9C10100           [014] loadk      7   7        ; 0
323A  62418001           [015] call       5   3   1  
323E  64014200           [016] self       5   0   264  ; -1544157541
3242  62810001           [017] call       5   2   2  
3246  6441C202           [018] self       5   5   265  ; 391699238
324A  D3018000           [019] getupval   7   1      
324E  62418001           [020] call       5   3   1  
3252  64814200           [021] self       5   0   266  ; 840728497
3256  D7010000           [022] loadbool   7   0   0    ; false
325A  62418001           [023] call       5   3   1  
325E  64C14202           [024] self       5   4   267  ; -930924190
3262  62410001           [025] call       5   2   1  
3266  64014302           [026] self       5   4   268  ; 447196028
326A  D7018000           [027] loadbool   7   1   0    ; true
326E  62418001           [028] call       5   3   1  
3272  64414302           [029] self       5   4   269  ; -906150570
3276  D2010000           [030] move       7   0      
327A  62418001           [031] call       5   3   1  
327E  53010001           [032] getupval   5   2      
3282  4E81C302           [033] gettable   5   5   270  ; 1718561806
3286  92010000           [034] move       6   0      
328A  62410001           [035] call       5   2   1  
328E  5D410000           [036] getglobal  5   1        ; gRegion
3292  64C1C302           [037] self       5   5   271  ; -2071158816
3296  62810001           [038] call       5   2   2  
329A  A4014401           [039] self       6   2   272  ; -1201441975
329E  A2810001           [040] call       6   2   2  
32A2  CA018002           [041] len        7   5      
32A6  1D420400           [042] getglobal  8   17       ; gFlashMgr
32AA  24824404           [043] self       8   8   274  ; -1998378965
32AE  99C20400           [044] loadk      10  19       ; "Server.NumVirtualTestClients"
32B2  22828001           [045] call       8   3   2  
32B6  C3018203           [046] add        7   7   8  
32BA  13028001           [047] getupval   8   3      
32BE  53020002           [048] getupval   9   4      
32C2  9D020500           [049] getglobal  10  20       ; math
32C6  8E424505           [050] gettable   10  10  277  ; 1710846250
32CA  D2028003           [051] move       11  7      
32CE  19830500           [052] loadk      12  22       ; 0
32D2  A2828001           [053] call       10  3   2  
32D6  D9C20500           [054] loadk      11  23       ; 0
32DA  19030600           [055] loadk      12  24       ; 0
32DE  5D430600           [056] getglobal  13  25       ; 1074689893
32E2  92030003           [057] move       14  6      
32E6  62830001           [058] call       13  2   2  
32EA  58430000           [059] test       13      1    ; to [61] if false
32EE  1A000380           [060] jmp        13           ; to [74]
32F2  53038002           [061] getupval   13  5      
32F6  62838000           [062] call       13  1   2  
32FA  D2028006           [063] move       11  13     
32FE  12038005           [064] move       12  11     
3302  64834603           [065] self       13  6   282  ; -272348948
3306  62830001           [066] call       13  2   2  
330A  9DC30600           [067] getglobal  14  27       ; -332969190
330E  D9030700           [068] loadk      15  28       ; "Infestation"
3312  A2830001           [069] call       14  2   2  
fail op	35
3316  23808306           [070] close      0  
331A  1A400080           [071] jmp        2            ; to [74]
331E  13020003           [072] getupval   8   6      
3322  53028003           [073] getupval   9   7      
3326  5D430700           [074] getglobal  13  29       ; -1828500651
332A  8E830204           [075] gettable   14  8   10 
332E  CE838204           [076] gettable   15  9   10 
3332  12048005           [077] move       16  11     
3336  62830002           [078] call       13  4   2  
333A  9D030500           [079] getglobal  14  20       ; math
333E  8E834707           [080] gettable   14  14  286  ; -150971781
3342  D2038006           [081] move       15  13     
3346  A2830001           [082] call       14  2   2  
334A  52030007           [083] move       13  14     
334E  A4C34701           [084] self       14  2   287  ; -317790213
3352  13040004           [085] getupval   16  8      
3356  A2838001           [086] call       14  3   2  
335A  DD030500           [087] getglobal  15  20       ; math
335E  CE03C807           [088] gettable   15  15  288  ; -1124579617
3362  1D440700           [089] getglobal  16  29       ; -1828500651
3366  59C40100           [090] loadk      17  7        ; 0
336A  99440800           [091] loadk      18  33       ; 0
336E  DD040500           [092] getglobal  19  20       ; math
3372  CE44C509           [093] gettable   19  19  277  ; 1710846250
3376  12050007           [094] move       20  14     
337A  59850800           [095] loadk      21  34       ; 0
337E  E2848001           [096] call       19  3   2  
3382  C4C4C809           [097] mul        19  19  291  ; -51
3386  22840002           [098] call       16  4   2  
338A  04048406           [099] mul        16  13  16 
338E  E2830001           [100] call       15  2   2  
3392  13048004           [101] getupval   16  9      
3396  22848000           [102] call       16  1   2  
339A  18040000           [103] test       16      0    ; to [105] if true
339E  1A000180           [104] jmp        5            ; to [110]
33A2  1D040500           [105] getglobal  16  20       ; math
33A6  0E044808           [106] gettable   16  16  288  ; -1124579617
33AA  4404C907           [107] mul        17  15  292  ; -51
33AE  22840001           [108] call       16  2   2  
33B2  D2030008           [109] move       15  16     
33B6  13040005           [110] getupval   16  10     
33BA  22848000           [111] call       16  1   2  
33BE  18440000           [112] test       16      1    ; to [114] if false
33C2  1A800180           [113] jmp        7            ; to [121]
33C6  13040006           [114] getupval   16  12     
33CA  22848000           [115] call       16  1   2  
fail op	8
33CE  08048005           [116] setupval   16  11     
33D2  13040006           [117] getupval   16  12     
33D6  22848000           [118] call       16  1   2  
33DA  1CC44108           [119] div        16  16  263  ; 0
fail op	8
33DE  08048006           [120] setupval   16  13     
33E2  1D040500           [121] getglobal  16  20       ; math
33E6  0E444508           [122] gettable   16  16  277  ; 1710846250
33EA  5D040500           [123] getglobal  17  20       ; math
33EE  4E84C708           [124] gettable   17  17  286  ; -150971781
33F2  9C444907           [125] div        18  14  293  ; 0
33F6  62840001           [126] call       17  2   2  
33FA  93040007           [127] getupval   18  14     
33FE  22848001           [128] call       16  3   2  
3402  46048008           [129] loadnil    17  17     
3406  93048005           [130] getupval   18  11     
340A  9F840407           [131] mod        18  14  18 
fail op	35
340E  23C04509           [132] close      0  
3412  1A800380           [133] jmp        15           ; to [149]
fail op	21
3416  1580838B           [134] concat     0   279 14 
341A  1A000380           [135] jmp        13           ; to [149]
341E  A4C44701           [136] self       18  2   287  ; -317790213
3422  13058007           [137] getupval   20  15     
3426  A2848001           [138] call       18  3   2  
fail op	21
342A  15800309           [139] concat     0   18  14 
342E  1AC00180           [140] jmp        8            ; to [149]
3432  93048008           [141] getupval   18  17     
3436  D2040008           [142] move       19  16     
343A  A2840001           [143] call       18  2   2  
fail op	8
343E  88040008           [144] setupval   18  16     
3442  93040009           [145] getupval   18  18     
3446  A2848000           [146] call       18  1   2  
344A  52040009           [147] move       17  18     
344E  1A000080           [148] jmp        1            ; to [150]
3452  59C40500           [149] loadk      17  23       ; 0
3456  93048009           [150] getupval   18  19     
345A  DD040500           [151] getglobal  19  20       ; math
345E  CE84C709           [152] gettable   19  19  286  ; -150971781
3462  1D450700           [153] getglobal  20  29       ; -1828500651
3466  5305000A           [154] getupval   21  20     
346A  9305800A           [155] getupval   22  21     
346E  CE854903           [156] gettable   23  6   294  ; "difficulty"
3472  22050002           [157] call       20  4   0  
3476  E2840000           [158] call       19  0   2  
347A  83C40409           [159] add        18  18  19 
347E  D304000B           [160] getupval   19  22     
3482  1D050500           [161] getglobal  20  20       ; math
3486  0E85470A           [162] gettable   20  20  286  ; -150971781
348A  5D450700           [163] getglobal  21  29       ; -1828500651
348E  9305000A           [164] getupval   22  20     
3492  D305800A           [165] getupval   23  21     
3496  0E864903           [166] gettable   24  6   294  ; "difficulty"
349A  62050002           [167] call       21  4   0  
349E  22850000           [168] call       20  0   2  
34A2  C3048509           [169] add        19  19  20 
34A6  1305800B           [170] getupval   20  23     
34AA  5305000C           [171] getupval   21  24     
34AE  8605000B           [172] loadnil    22  22     
34B2  CEC54903           [173] gettable   23  6   295  ; "leadersAlwaysAllowed"
34B6  D8050000           [174] test       23      0    ; to [176] if true
34BA  1A800580           [175] jmp        23           ; to [199]
34BE  CE054A03           [176] gettable   23  6   296  ; "sortieId"
fail op	35
34C2  2340CA0B           [177] close      0  
34C6  1A400180           [178] jmp        6            ; to [185]
34CA  CE854A03           [179] gettable   23  6   298  ; "alertId"
fail op	35
34CE  2340CA0B           [180] close      0  
34D2  1A800080           [181] jmp        3            ; to [185]
34D6  CEC54A03           [182] gettable   23  6   299  ; "goalId"
fail op	35
34DA  6340CA0B           [183] close      1  
34DE  1A400380           [184] jmp        14           ; to [199]
34E2  DD050B00           [185] getglobal  23  44       ; 1668611480
34E6  04C64809           [186] mul        24  18  291  ; -51
34EA  59460B00           [187] loadk      25  45       ; 0
34EE  92060009           [188] move       26  18     
34F2  E2850002           [189] call       23  4   2  
34F6  9204800B           [190] move       18  23     
34FA  DD050B00           [191] getglobal  23  44       ; 1668611480
34FE  0486CB09           [192] mul        24  19  302  ; 51
3502  59460B00           [193] loadk      25  45       ; 0
3506  92068009           [194] move       26  19     
350A  E2850002           [195] call       23  4   2  
350E  D204800B           [196] move       19  23     
3512  0485480A           [197] mul        20  20  290  ; 0
3516  4485C80A           [198] mul        21  21  290  ; 0
fail op	21
351A  15800407           [199] concat     0   14  18 
351E  1A400080           [200] jmp        2            ; to [203]
3522  99C50500           [201] loadk      22  23       ; 0
3526  1A000380           [202] jmp        13           ; to [216]
352A  DD050500           [203] getglobal  23  20       ; math
352E  CE45C50B           [204] gettable   23  23  277  ; 1710846250
3532  0D860407           [205] sub        24  14  18 
3536  4D868409           [206] sub        25  19  18 
353A  1C46060C           [207] div        24  24  25 
353E  59460B00           [208] loadk      25  45       ; 0
3542  E2858001           [209] call       23  3   2  
3546  1D460700           [210] getglobal  24  29       ; -1828500651
354A  5206000A           [211] move       25  20     
354E  9206800A           [212] move       26  21     
3552  D206800B           [213] move       27  23     
3556  22860002           [214] call       24  4   2  
355A  9205000C           [215] move       22  24     
355E  1DC60B00           [216] getglobal  24  47       ; -1817107093
3562  59060C00           [217] loadk      25  48       ; "Spawning "
3566  92068007           [218] move       26  15     
356A  D9460C00           [219] loadk      27  49       ; " tier-"
356E  12070008           [220] move       28  16     
3572  59870C00           [221] loadk      29  50       ; " enemies ("
3576  92078006           [222] move       30  13     
357A  D9C70C00           [223] loadk      31  51       ; " simultaneous, "
357E  1D080500           [224] getglobal  32  20       ; math
3582  0E884710           [225] gettable   32  32  286  ; -150971781
3586  44084D0B           [226] mul        33  22  308  ; 0
358A  22880001           [227] call       32  2   2  
358E  59480D00           [228] loadk      33  53       ; "% eximus)"
3592  4246880C           [229] concat     25  25  33 
3596  22460001           [230] call       24  2   1  
359A  1306800C           [231] getupval   24  25     
359E  52060007           [232] move       25  14     
35A2  92060002           [233] move       26  4      
35A6  D2060001           [234] move       27  2      
35AA  12078007           [235] move       28  15     
35AE  52078006           [236] move       29  13     
35B2  92078000           [237] move       30  1      
35B6  D2070008           [238] move       31  16     
35BA  1208000B           [239] move       32  22     
35BE  52088008           [240] move       33  17     
35C2  22460005           [241] call       24  10  1  
35C6  1E008000           [242] return     0   1      
                         * constants:
35CA  36                 sizek (54)
35CB  04                 const type 4
35CC  0B                 string size (11)
35CD  6747616D6552756C+  "gGameRul"
35D5  657300             "es\0"
                         const [0]: "gGameRules"
35D8  04                 const type 4
35D9  08                 string size (8)
35DA  67526567696F6E00   "gRegion\0"
                         const [1]: "gRegion"
35E2  01                 const type 3
35E3  90F9CED1           const [2]: (-774964848)
35E7  01                 const type 3
35E8  73290920           const [3]: (537471347)
35EC  01                 const type 3
35ED  9D9D4F79           const [4]: (2035260829)
35F1  01                 const type 3
35F2  DF7436B0           const [5]: (-1338608417)
35F6  01                 const type 3
35F7  25764809           const [6]: (155743781)
35FB  03                 const type 3
35FC  00000040           const [7]: (0)
3600  01                 const type 3
3601  9B06F6A3           const [8]: (-1544157541)
3605  01                 const type 3
3606  26DB5817           const [9]: (391699238)
360A  01                 const type 3
360B  B17F1C32           const [10]: (840728497)
360F  01                 const type 3
3610  623983C8           const [11]: (-930924190)
3614  01                 const type 3
3615  7CABA71A           const [12]: (447196028)
3619  01                 const type 3
361A  563DFDC9           const [13]: (-906150570)
361E  01                 const type 3
361F  0E2C6F66           const [14]: (1718561806)
3623  01                 const type 3
3624  E09F8C84           const [15]: (-2071158816)
3628  01                 const type 3
3629  497363B8           const [16]: (-1201441975)
362D  04                 const type 4
362E  0A                 string size (10)
362F  67466C6173684D67+  "gFlashMg"
3637  7200               "r\0"
                         const [17]: "gFlashMgr"
3639  01                 const type 3
363A  2B28E388           const [18]: (-1998378965)
363E  04                 const type 4
363F  1D                 string size (29)
3640  5365727665722E4E+  "Server.N"
3648  756D566972747561+  "umVirtua"
3650  6C54657374436C69+  "lTestCli"
3658  656E747300         "ents\0"
                         const [19]: "Server.NumVirtualTestClients"
365D  04                 const type 4
365E  05                 string size (5)
365F  6D61746800         "math\0"
                         const [20]: "math"
3664  01                 const type 3
3665  2A71F965           const [21]: (1710846250)
3669  03                 const type 3
366A  00008040           const [22]: (0)
366E  03                 const type 3
366F  00000000           const [23]: (0)
3673  03                 const type 3
3674  0000003F           const [24]: (0)
3678  01                 const type 3
3679  65770E40           const [25]: (1074689893)
367D  01                 const type 3
367E  EC48C4EF           const [26]: (-272348948)
3682  01                 const type 3
3683  1A4B27EC           const [27]: (-332969190)
3687  04                 const type 4
3688  0C                 string size (12)
3689  496E666573746174+  "Infestat"
3691  696F6E00           "ion\0"
                         const [28]: "Infestation"
3695  01                 const type 3
3696  554B0393           const [29]: (-1828500651)
369A  01                 const type 3
369B  7B5A00F7           const [30]: (-150971781)
369F  01                 const type 3
36A0  FBE70EED           const [31]: (-317790213)
36A4  01                 const type 3
36A5  DF46F8BC           const [32]: (-1124579617)
36A9  03                 const type 3
36AA  00004040           const [33]: (0)
36AE  03                 const type 3
36AF  00002041           const [34]: (0)
36B3  03                 const type 3
36B4  CDCCCC3D           const [35]: (-51)
36B8  03                 const type 3
36B9  CDCC4C3F           const [36]: (-51)
36BD  03                 const type 3
36BE  0000A040           const [37]: (0)
36C2  04                 const type 4
36C3  0B                 string size (11)
36C4  646966666963756C+  "difficul"
36CC  747900             "ty\0"
                         const [38]: "difficulty"
36CF  04                 const type 4
36D0  15                 string size (21)
36D1  6C65616465727341+  "leadersA"
36D9  6C77617973416C6C+  "lwaysAll"
36E1  6F77656400         "owed\0"
                         const [39]: "leadersAlwaysAllowed"
36E6  04                 const type 4
36E7  09                 string size (9)
36E8  736F727469654964+  "sortieId"
36F0  00                 "\0"
                         const [40]: "sortieId"
36F1  04                 const type 4
36F2  01                 string size (0)
                         const [41]: ""
36F4  04                 const type 4
36F5  08                 string size (8)
36F6  616C657274496400   "alertId\0"
                         const [42]: "alertId"
36FE  04                 const type 4
36FF  07                 string size (7)
3700  676F616C496400     "goalId\0"
                         const [43]: "goalId"
3707  01                 const type 3
3708  98FD7463           const [44]: (1668611480)
370C  03                 const type 3
370D  0000803F           const [45]: (0)
3711  03                 const type 3
3712  3333B33E           const [46]: (51)
3716  01                 const type 3
3717  6B25B193           const [47]: (-1817107093)
371B  04                 const type 4
371C  0A                 string size (10)
371D  537061776E696E67+  "Spawning"
3725  2000               " \0"
                         const [48]: "Spawning "
3727  04                 const type 4
3728  07                 string size (7)
3729  20746965722D00     " tier-\0"
                         const [49]: " tier-"
3730  04                 const type 4
3731  0B                 string size (11)
3732  20656E656D696573+  " enemies"
373A  202800             " (\0"
                         const [50]: " enemies ("
373D  04                 const type 4
373E  10                 string size (16)
373F  2073696D756C7461+  " simulta"
3747  6E656F75732C2000   "neous, \0"
                         const [51]: " simultaneous, "
374F  03                 const type 3
3750  0000C842           const [52]: (0)
3754  04                 const type 4
3755  0A                 string size (10)
3756  25206578696D7573+  "% eximus"
375E  2900               ")\0"
                         const [53]: "% eximus)"
                         * functions:
3760  00                 sizep (0)
                         * lines:
3762  01                 sizelineinfo (242)
                         [pc] (line)
3763  92                 [001] (-110)
3764  02                 [002] (-109)
3765  00                 [003] (-109)
3766  00                 [004] (-109)
3767  93                 [005] (-108)
3768  02                 [006] (-108)
3769  00                 [007] (-106)
376A  00                 [008] (-106)
376B  93                 [009] (-106)
376C  02                 [010] (-105)
376D  00                 [011] (-105)
376E  00                 [012] (-105)
376F  93                 [013] (-104)
3770  02                 [014] (-104)
3771  00                 [015] (-104)
3772  00                 [016] (-103)
3773  94                 [017] (-103)
3774  02                 [018] (-103)
3775  00                 [019] (-103)
3776  00                 [020] (-103)
3777  94                 [021] (-102)
3778  02                 [022] (-102)
3779  00                 [023] (-102)
377A  00                 [024] (-100)
377B  96                 [025] (-100)
377C  02                 [026] (-99)
377D  00                 [027] (-99)
377E  00                 [028] (-99)
377F  96                 [029] (-98)
3780  02                 [030] (-98)
3781  00                 [031] (-98)
3782  00                 [032] (-90)
3783  96                 [033] (-90)
3784  02                 [034] (-90)
3785  00                 [035] (-90)
3786  00                 [036] (-88)
3787  97                 [037] (-88)
3788  02                 [038] (-88)
3789  00                 [039] (-87)
378A  00                 [040] (-87)
378B  97                 [041] (-86)
378C  02                 [042] (-86)
378D  00                 [043] (-86)
378E  00                 [044] (-86)
378F  97                 [045] (-86)
3790  02                 [046] (-86)
3791  00                 [047] (-84)
3792  00                 [048] (-83)
3793  98                 [049] (-82)
3794  02                 [050] (-82)
3795  00                 [051] (-82)
3796  00                 [052] (-82)
3797  98                 [053] (-82)
3798  02                 [054] (-79)
3799  00                 [055] (-78)
379A  00                 [056] (-76)
379B  98                 [057] (-76)
379C  02                 [058] (-76)
379D  00                 [059] (-76)
379E  00                 [060] (-76)
379F  99                 [061] (-75)
37A0  02                 [062] (-75)
37A1  00                 [063] (-75)
37A2  00                 [064] (-74)
37A3  99                 [065] (-72)
37A4  02                 [066] (-72)
37A5  00                 [067] (-72)
37A6  00                 [068] (-72)
37A7  99                 [069] (-72)
37A8  02                 [070] (-72)
37A9  00                 [071] (-72)
37AA  00                 [072] (-71)
37AB  99                 [073] (-70)
37AC  02                 [074] (-66)
37AD  00                 [075] (-66)
37AE  00                 [076] (-66)
37AF  99                 [077] (-66)
37B0  02                 [078] (-66)
37B1  00                 [079] (-65)
37B2  00                 [080] (-65)
37B3  9A                 [081] (-65)
37B4  02                 [082] (-65)
37B5  00                 [083] (-65)
37B6  00                 [084] (-62)
37B7  9A                 [085] (-62)
37B8  02                 [086] (-62)
37B9  00                 [087] (-60)
37BA  00                 [088] (-60)
37BB  9A                 [089] (-60)
37BC  02                 [090] (-60)
37BD  00                 [091] (-60)
37BE  00                 [092] (-60)
37BF  9C                 [093] (-60)
37C0  02                 [094] (-60)
37C1  00                 [095] (-60)
37C2  00                 [096] (-60)
37C3  9C                 [097] (-60)
37C4  02                 [098] (-60)
37C5  00                 [099] (-60)
37C6  00                 [100] (-60)
37C7  9D                 [101] (-58)
37C8  02                 [102] (-58)
37C9  00                 [103] (-58)
37CA  00                 [104] (-58)
37CB  9D                 [105] (-56)
37CC  02                 [106] (-56)
37CD  00                 [107] (-56)
37CE  00                 [108] (-56)
37CF  9D                 [109] (-56)
37D0  02                 [110] (-52)
37D1  00                 [111] (-52)
37D2  00                 [112] (-52)
37D3  9E                 [113] (-52)
37D4  02                 [114] (-51)
37D5  00                 [115] (-51)
37D6  00                 [116] (-51)
37D7  9E                 [117] (-50)
37D8  02                 [118] (-50)
37D9  00                 [119] (-50)
37DA  00                 [120] (-50)
37DB  9E                 [121] (-46)
37DC  02                 [122] (-46)
37DD  00                 [123] (-46)
37DE  00                 [124] (-46)
37DF  A6                 [125] (-46)
37E0  02                 [126] (-46)
37E1  00                 [127] (-46)
37E2  00                 [128] (-46)
37E3  A6                 [129] (-44)
37E4  02                 [130] (-42)
37E5  00                 [131] (-42)
37E6  00                 [132] (-42)
37E7  A6                 [133] (-42)
37E8  02                 [134] (-42)
37E9  00                 [135] (-42)
37EA  00                 [136] (-42)
37EB  A6                 [137] (-42)
37EC  02                 [138] (-42)
37ED  00                 [139] (-42)
37EE  00                 [140] (-42)
37EF  A8                 [141] (-41)
37F0  02                 [142] (-41)
37F1  00                 [143] (-41)
37F2  00                 [144] (-41)
37F3  A8                 [145] (-40)
37F4  02                 [146] (-40)
37F5  00                 [147] (-40)
37F6  00                 [148] (-40)
37F7  A8                 [149] (-38)
37F8  02                 [150] (-35)
37F9  00                 [151] (-35)
37FA  00                 [152] (-35)
37FB  A9                 [153] (-35)
37FC  02                 [154] (-35)
37FD  00                 [155] (-35)
37FE  00                 [156] (-35)
37FF  A9                 [157] (-35)
3800  02                 [158] (-35)
3801  00                 [159] (-35)
3802  00                 [160] (-34)
3803  AA                 [161] (-34)
3804  02                 [162] (-34)
3805  00                 [163] (-34)
3806  00                 [164] (-34)
3807  AA                 [165] (-34)
3808  02                 [166] (-34)
3809  00                 [167] (-34)
380A  00                 [168] (-34)
380B  AA                 [169] (-34)
380C  02                 [170] (-33)
380D  00                 [171] (-32)
380E  00                 [172] (-31)
380F  AA                 [173] (-29)
3810  02                 [174] (-29)
3811  00                 [175] (-29)
3812  00                 [176] (-29)
3813  AA                 [177] (-29)
3814  02                 [178] (-29)
3815  00                 [179] (-29)
3816  00                 [180] (-29)
3817  AA                 [181] (-29)
3818  02                 [182] (-29)
3819  00                 [183] (-29)
381A  00                 [184] (-29)
381B  AC                 [185] (-28)
381C  02                 [186] (-28)
381D  00                 [187] (-28)
381E  00                 [188] (-28)
381F  AD                 [189] (-28)
3820  02                 [190] (-28)
3821  00                 [191] (-27)
3822  00                 [192] (-27)
3823  AE                 [193] (-27)
3824  02                 [194] (-27)
3825  00                 [195] (-27)
3826  00                 [196] (-27)
3827  AE                 [197] (-26)
3828  02                 [198] (-25)
3829  00                 [199] (-22)
382A  00                 [200] (-22)
382B  AE                 [201] (-21)
382C  02                 [202] (-21)
382D  00                 [203] (-19)
382E  00                 [204] (-19)
382F  AE                 [205] (-19)
3830  02                 [206] (-19)
3831  00                 [207] (-19)
3832  00                 [208] (-19)
3833  AE                 [209] (-19)
3834  02                 [210] (-18)
3835  00                 [211] (-18)
3836  00                 [212] (-18)
3837  B1                 [213] (-18)
3838  02                 [214] (-18)
3839  00                 [215] (-18)
383A  00                 [216] (-15)
383B  B2                 [217] (-15)
383C  02                 [218] (-15)
383D  00                 [219] (-15)
383E  00                 [220] (-15)
383F  B4                 [221] (-15)
3840  02                 [222] (-15)
3841  00                 [223] (-15)
3842  00                 [224] (-15)
3843  B4                 [225] (-15)
3844  02                 [226] (-15)
3845  00                 [227] (-15)
3846  00                 [228] (-15)
3847  B4                 [229] (-15)
3848  02                 [230] (-15)
3849  00                 [231] (-12)
384A  00                 [232] (-12)
384B  B4                 [233] (-12)
384C  02                 [234] (-12)
384D  00                 [235] (-12)
384E  00                 [236] (-12)
384F  B4                 [237] (-12)
3850  02                 [238] (-12)
3851  00                 [239] (-12)
3852  00                 [240] (-12)
3853  B5                 [241] (-12)
3854  02                 [242] (-11)
                         * locals:
3B2B  00                 sizelocvars (0)
                         * upvalues:
3B2C  00                 sizeupvalues (0)
                         ** end of function **

                         
3B2D                     ** function [16] definition (level 2)
                         ** start of function **
3B2D  00                 string size (0)
                         source name: (none)
3B2F  05                 line defined (759)
3B30  88                 last line defined (776)
3B31  06                 nups (0)
3B32  00                 numparams (0)
3B33  00                 is_vararg (0)
3B34  00                 maxstacksize (11)
                         * code:
3B36  32                 sizecode (50)
3B37  1D000000           [01] getglobal  0   0        ; gRegion
3B3B  24404000           [02] self       0   0   257  ; -774964848
3B3F  22800001           [03] call       0   2   2  
3B43  64804000           [04] self       1   0   258  ; 537471347
3B47  62800001           [05] call       1   2   2  
3B4B  A4C0C000           [06] self       2   1   259  ; -110386376
3B4F  17010000           [07] loadbool   4   0   0    ; false
3B53  A2408001           [08] call       2   3   1  
3B57  A400C100           [09] self       2   1   260  ; -1504288900
3B5B  1D410100           [10] getglobal  4   5        ; minSpawnDistance
3B5F  5D810100           [11] getglobal  5   6        ; maxSpawnDistance
3B63  99C10100           [12] loadk      6   7        ; 0
3B67  D9010200           [13] loadk      7   8        ; 0
3B6B  17028000           [14] loadbool   8   1   0    ; true
3B6F  57020000           [15] loadbool   9   0   0    ; false
3B73  97028000           [16] loadbool   10  1   0    ; true
3B77  A2408004           [17] call       2   9   1  
3B7B  A440C200           [18] self       2   1   265  ; -1305026318
3B7F  17010000           [19] loadbool   4   0   0    ; false
3B83  A2408001           [20] call       2   3   1  
3B87  A480C200           [21] self       2   1   266  ; 1022855233
3B8B  17018000           [22] loadbool   4   1   0    ; true
3B8F  A2408001           [23] call       2   3   1  
3B93  A4C0C200           [24] self       2   1   267  ; -736036065
3B97  1D010300           [25] getglobal  4   12       ; -332969190
3B9B  59410300           [26] loadk      5   13       ; "DefenseAgentSpawn"
3B9F  22010001           [27] call       4   2   0  
3BA3  A2400000           [28] call       2   0   1  
3BA7  A480C300           [29] self       2   1   270  ; -1859611084
3BAB  19C10100           [30] loadk      4   7        ; 0
3BAF  A2408001           [31] call       2   3   1  
3BB3  A4C0C300           [32] self       2   1   271  ; -375046116
3BB7  1D010400           [33] getglobal  4   16       ; spawnVisTimeout
3BBB  A2408001           [34] call       2   3   1  
3BBF  9D000000           [35] getglobal  2   0        ; gRegion
3BC3  A4404401           [36] self       2   2   273  ; -1485896174
3BC7  1D010300           [37] getglobal  4   12       ; -332969190
3BCB  59810400           [38] loadk      5   18       ; "PanicButton"
3BCF  22010001           [39] call       4   2   0  
3BD3  A2800000           [40] call       2   0   2  
3BD7  D9C00400           [41] loadk      3   19       ; 0
3BDB  0A010001           [42] len        4   2      
3BDF  59C10400           [43] loadk      5   19       ; 0
3BE3  D0C00080           [44] forprep    3   4        ; to [49]
3BE7  CE810101           [45] gettable   7   2   6  
3BEB  E401C503           [46] self       7   7   276  ; -1923578185
3BEF  59420500           [47] loadk      9   21       ; "Disable"
3BF3  E2418001           [48] call       7   3   1  
3BF7  D480FE7F           [49] forloop    3   -5       ; to [45] if loop
3BFB  1E008000           [50] return     0   1      
                         * constants:
3BFF  16                 sizek (22)
3C00  04                 const type 4
3C01  08                 string size (8)
3C02  67526567696F6E00   "gRegion\0"
                         const [0]: "gRegion"
3C0A  01                 const type 3
3C0B  90F9CED1           const [1]: (-774964848)
3C0F  01                 const type 3
3C10  73290920           const [2]: (537471347)
3C14  01                 const type 3
3C15  38A36BF9           const [3]: (-110386376)
3C19  01                 const type 3
3C1A  7C5F56A6           const [4]: (-1504288900)
3C1E  04                 const type 4
3C1F  11                 string size (17)
3C20  6D696E537061776E+  "minSpawn"
3C28  44697374616E6365+  "Distance"
3C30  00                 "\0"
                         const [5]: "minSpawnDistance"
3C31  04                 const type 4
3C32  11                 string size (17)
3C33  6D6178537061776E+  "maxSpawn"
3C3B  44697374616E6365+  "Distance"
3C43  00                 "\0"
                         const [6]: "maxSpawnDistance"
3C44  03                 const type 3
3C45  00000000           const [7]: (0)
3C49  03                 const type 3
3C4A  00000040           const [8]: (0)
3C4E  01                 const type 3
3C4F  F2E036B2           const [9]: (-1305026318)
3C53  01                 const type 3
3C54  4188F73C           const [10]: (1022855233)
3C58  01                 const type 3
3C59  1FFB20D4           const [11]: (-736036065)
3C5D  01                 const type 3
3C5E  1A4B27EC           const [12]: (-332969190)
3C62  04                 const type 4
3C63  12                 string size (18)
3C64  446566656E736541+  "DefenseA"
3C6C  67656E7453706177+  "gentSpaw"
3C74  6E00               "n\0"
                         const [13]: "DefenseAgentSpawn"
3C76  01                 const type 3
3C77  34962891           const [14]: (-1859611084)
3C7B  01                 const type 3
3C7C  1C40A5E9           const [15]: (-375046116)
3C80  04                 const type 4
3C81  10                 string size (16)
3C82  737061776E566973+  "spawnVis"
3C8A  54696D656F757400   "Timeout\0"
                         const [16]: "spawnVisTimeout"
3C92  01                 const type 3
3C93  12066FA7           const [17]: (-1485896174)
3C97  04                 const type 4
3C98  0C                 string size (12)
3C99  50616E6963427574+  "PanicBut"
3CA1  746F6E00           "ton\0"
                         const [18]: "PanicButton"
3CA5  03                 const type 3
3CA6  0000803F           const [19]: (0)
3CAA  01                 const type 3
3CAB  B786588D           const [20]: (-1923578185)
3CAF  04                 const type 4
3CB0  08                 string size (8)
3CB1  44697361626C6500   "Disable\0"
                         const [21]: "Disable"
                         * functions:
3CB9  00                 sizep (0)
                         * lines:
3CBA  32                 sizelineinfo (50)
                         [pc] (line)
3CBB  F8                 [01] (-8)
3CBC  02                 [02] (-8)
3CBD  00                 [03] (-8)
3CBE  00                 [04] (-7)
3CBF  F8                 [05] (-7)
3CC0  02                 [06] (-5)
3CC1  00                 [07] (-5)
3CC2  00                 [08] (-5)
3CC3  F8                 [09] (-4)
3CC4  02                 [10] (-4)
3CC5  00                 [11] (-4)
3CC6  00                 [12] (-4)
3CC7  F9                 [13] (-4)
3CC8  02                 [14] (-4)
3CC9  00                 [15] (-4)
3CCA  00                 [16] (-4)
3CCB  F9                 [17] (-4)
3CCC  02                 [18] (-3)
3CCD  00                 [19] (-3)
3CCE  00                 [20] (-3)
3CCF  FB                 [21] (-2)
3CD0  02                 [22] (-2)
3CD1  00                 [23] (-2)
3CD2  00                 [24] (-1)
3CD3  FB                 [25] (-1)
3CD4  02                 [26] (-1)
3CD5  00                 [27] (-1)
3CD6  00                 [28] (-1)
3CD7  FB                 [29] (0)
3CD8  02                 [30] (0)
3CD9  00                 [31] (0)
3CDA  00                 [32] (1)
3CDB  FC                 [33] (1)
3CDC  02                 [34] (1)
3CDD  00                 [35] (3)
3CDE  00                 [36] (3)
3CDF  FC                 [37] (3)
3CE0  02                 [38] (3)
3CE1  00                 [39] (3)
3CE2  00                 [40] (3)
3CE3  FC                 [41] (4)
3CE4  02                 [42] (4)
3CE5  00                 [43] (4)
3CE6  00                 [44] (4)
3CE7  FC                 [45] (5)
3CE8  02                 [46] (5)
3CE9  00                 [47] (5)
3CEA  00                 [48] (5)
3CEB  FC                 [49] (4)
3CEC  02                 [50] (8)
                         * locals:
3D83  00                 sizelocvars (0)
                         * upvalues:
3D84  00                 sizeupvalues (0)
                         ** end of function **

                         
3D85                     ** function [17] definition (level 2)
                         ** start of function **
3D85  00                 string size (0)
                         source name: (none)
3D87  06                 line defined (778)
3D88  94                 last line defined (788)
3D89  06                 nups (0)
3D8A  00                 numparams (1)
3D8B  01                 is_vararg (0)
3D8C  00                 maxstacksize (8)
                         * code:
3D8E  11                 sizecode (17)
3D8F  99000000           [01] loadk      2   0        ; 0
3D93  CA000000           [02] len        3   0      
3D97  19010000           [03] loadk      4   0        ; 0
3D9B  90400280           [04] forprep    2   10       ; to [15]
3D9F  8E410100           [05] gettable   6   0   5  
3DA3  A4414003           [06] self       6   6   257  ; 2022702902
3DA7  A2810001           [07] call       6   2   2  
3DAB  52000003           [08] move       1   6      
3DAF  9D810000           [09] getglobal  6   2        ; 1074689893
3DB3  D2018000           [10] move       7   1      
3DB7  A2810001           [11] call       6   2   2  
3DBB  98410000           [12] test       6       1    ; to [14] if false
3DBF  1A000080           [13] jmp        1            ; to [15]
3DC3  1A000080           [14] jmp        1            ; to [16]
3DC7  9400FD7F           [15] forloop    2   -11      ; to [5] if loop
3DCB  5E000001           [16] return     1   2      
3DCF  1E008000           [17] return     0   1      
                         * constants:
3DD3  03                 sizek (3)
3DD4  03                 const type 3
3DD5  0000803F           const [0]: (0)
3DD9  01                 const type 3
3DDA  36FF8F78           const [1]: (2022702902)
3DDE  01                 const type 3
3DDF  65770E40           const [2]: (1074689893)
                         * functions:
3DE3  00                 sizep (0)
                         * lines:
3DE4  11                 sizelineinfo (17)
                         [pc] (line)
3DE5  0C                 [01] (12)
3DE6  03                 [02] (12)
3DE7  00                 [03] (12)
3DE8  00                 [04] (12)
3DE9  0C                 [05] (13)
3DEA  03                 [06] (13)
3DEB  00                 [07] (13)
3DEC  00                 [08] (13)
3DED  0C                 [09] (14)
3DEE  03                 [10] (14)
3DEF  00                 [11] (14)
3DF0  00                 [12] (14)
3DF1  0C                 [13] (14)
3DF2  03                 [14] (15)
3DF3  00                 [15] (12)
3DF4  00                 [16] (19)
3DF5  0D                 [17] (20)
                         * locals:
3E29  00                 sizelocvars (0)
                         * upvalues:
3E2A  00                 sizeupvalues (0)
                         ** end of function **

                         
3E2B                     ** function [18] definition (level 2)
                         ** start of function **
3E2B  00                 string size (0)
                         source name: (none)
3E2D  06                 line defined (790)
3E2E  99                 last line defined (793)
3E2F  06                 nups (1)
3E30  01                 numparams (0)
3E31  00                 is_vararg (0)
3E32  00                 maxstacksize (4)
                         * code:
3E34  11                 sizecode (17)
3E35  1D000000           [01] getglobal  0   0        ; gGameRules
3E39  24404000           [02] self       0   0   257  ; -1201441975
3E3D  22800001           [03] call       0   2   2  
3E41  5D800000           [04] getglobal  1   2        ; 1074689893
3E45  8EC04000           [05] gettable   2   0   259  ; "vipAgent"
3E49  62800001           [06] call       1   2   2  
3E4D  58400000           [07] test       1       1    ; to [9] if false
3E51  1A000180           [08] jmp        5            ; to [14]
3E55  4EC04000           [09] gettable   1   0   259  ; "vipAgent"
3E59  6400C100           [10] self       1   1   260  ; -1957065004
3E5D  D3000000           [11] getupval   3   0      
3E61  62808001           [12] call       1   3   2  
3E65  1A400080           [13] jmp        2            ; to [16]
3E69  57400000           [14] loadbool   1   0   1    ; false, to [16]
3E6D  57008000           [15] loadbool   1   1   0    ; true
3E71  5E000001           [16] return     1   2      
3E75  1E008000           [17] return     0   1      
                         * constants:
3E79  05                 sizek (5)
3E7A  04                 const type 4
3E7B  0B                 string size (11)
3E7C  6747616D6552756C+  "gGameRul"
3E84  657300             "es\0"
                         const [0]: "gGameRules"
3E87  01                 const type 3
3E88  497363B8           const [1]: (-1201441975)
3E8C  01                 const type 3
3E8D  65770E40           const [2]: (1074689893)
3E91  04                 const type 4
3E92  09                 string size (9)
3E93  7669704167656E74+  "vipAgent"
3E9B  00                 "\0"
                         const [3]: "vipAgent"
3E9C  01                 const type 3
3E9D  D48E598B           const [4]: (-1957065004)
                         * functions:
3EA1  00                 sizep (0)
                         * lines:
3EA2  11                 sizelineinfo (17)
                         [pc] (line)
3EA3  17                 [01] (23)
3EA4  03                 [02] (23)
3EA5  00                 [03] (23)
3EA6  00                 [04] (24)
3EA7  17                 [05] (24)
3EA8  03                 [06] (24)
3EA9  00                 [07] (24)
3EAA  00                 [08] (24)
3EAB  17                 [09] (24)
3EAC  03                 [10] (24)
3EAD  00                 [11] (24)
3EAE  00                 [12] (24)
3EAF  18                 [13] (24)
3EB0  03                 [14] (24)
3EB1  00                 [15] (24)
3EB2  00                 [16] (24)
3EB3  18                 [17] (25)
                         * locals:
3EE7  00                 sizelocvars (0)
                         * upvalues:
3EE8  00                 sizeupvalues (0)
                         ** end of function **

                         
3EE9                     ** function [19] definition (level 2)
                         ** start of function **
3EE9  00                 string size (0)
                         source name: (none)
3EEB  06                 line defined (795)
3EEC  9E                 last line defined (798)
3EED  06                 nups (3)
3EEE  03                 numparams (0)
3EEF  00                 is_vararg (0)
3EF0  00                 maxstacksize (3)
                         * code:
3EF2  1A                 sizecode (26)
3EF3  1D000000           [01] getglobal  0   0        ; gGameRules
3EF7  24404000           [02] self       0   0   257  ; -1201441975
3EFB  22800001           [03] call       0   2   2  
3EFF  4E804000           [04] gettable   1   0   258  ; "sortieId"
fail op	35
3F03  23C0C000           [05] close      0  
3F07  1A000480           [06] jmp        17           ; to [24]
3F0B  53000000           [07] getupval   1   0      
3F0F  62808000           [08] call       1   1   2  
3F13  58400000           [09] test       1       1    ; to [11] if false
3F17  1A400380           [10] jmp        14           ; to [25]
3F1B  4E004100           [11] gettable   1   0   260  ; "goalTag"
3F1F  93008000           [12] getupval   2   1      
fail op	35
3F23  23808000           [13] close      0  
3F27  1A000180           [14] jmp        5            ; to [20]
3F2B  5D400100           [15] getglobal  1   5        ; 1074689893
3F2F  8E804100           [16] gettable   2   0   262  ; "vipAgent"
3F33  62800001           [17] call       1   2   2  
3F37  58000000           [18] test       1       0    ; to [20] if true
3F3B  1AC00080           [19] jmp        4            ; to [24]
3F3F  53000001           [20] getupval   1   2      
3F43  62808000           [21] call       1   1   2  
3F47  1A400080           [22] jmp        2            ; to [25]
3F4B  57400000           [23] loadbool   1   0   1    ; false, to [25]
3F4F  57008000           [24] loadbool   1   1   0    ; true
3F53  5E000001           [25] return     1   2      
3F57  1E008000           [26] return     0   1      
                         * constants:
3F5B  07                 sizek (7)
3F5C  04                 const type 4
3F5D  0B                 string size (11)
3F5E  6747616D6552756C+  "gGameRul"
3F66  657300             "es\0"
                         const [0]: "gGameRules"
3F69  01                 const type 3
3F6A  497363B8           const [1]: (-1201441975)
3F6E  04                 const type 4
3F6F  09                 string size (9)
3F70  736F727469654964+  "sortieId"
3F78  00                 "\0"
                         const [2]: "sortieId"
3F79  04                 const type 4
3F7A  01                 string size (0)
                         const [3]: ""
3F7C  04                 const type 4
3F7D  08                 string size (8)
3F7E  676F616C54616700   "goalTag\0"
                         const [4]: "goalTag"
3F86  01                 const type 3
3F87  65770E40           const [5]: (1074689893)
3F8B  04                 const type 4
3F8C  09                 string size (9)
3F8D  7669704167656E74+  "vipAgent"
3F95  00                 "\0"
                         const [6]: "vipAgent"
                         * functions:
3F96  00                 sizep (0)
                         * lines:
3F97  1A                 sizelineinfo (26)
                         [pc] (line)
3F98  1C                 [01] (28)
3F99  03                 [02] (28)
3F9A  00                 [03] (28)
3F9B  00                 [04] (29)
3F9C  1C                 [05] (29)
3F9D  03                 [06] (29)
3F9E  00                 [07] (29)
3F9F  00                 [08] (29)
3FA0  1C                 [09] (29)
3FA1  03                 [10] (29)
3FA2  00                 [11] (29)
3FA3  00                 [12] (29)
3FA4  1D                 [13] (29)
3FA5  03                 [14] (29)
3FA6  00                 [15] (29)
3FA7  00                 [16] (29)
3FA8  1D                 [17] (29)
3FA9  03                 [18] (29)
3FAA  00                 [19] (29)
3FAB  00                 [20] (29)
3FAC  1D                 [21] (29)
3FAD  03                 [22] (29)
3FAE  00                 [23] (29)
3FAF  00                 [24] (29)
3FB0  1D                 [25] (29)
3FB1  03                 [26] (30)
                         * locals:
4000  00                 sizelocvars (0)
                         * upvalues:
4001  00                 sizeupvalues (0)
                         ** end of function **

                         
4002                     ** function [20] definition (level 2)
                         ** start of function **
4002  00                 string size (0)
                         source name: (none)
4004  06                 line defined (800)
4005  98                 last line defined (920)
4006  07                 nups (10)
4007  0A                 numparams (1)
4008  01                 is_vararg (0)
4009  00                 maxstacksize (39)
                         * code:
400C  02                 sizecode (335)
400D  5D000000           [001] getglobal  1   0        ; gGameRules
4011  93000000           [002] getupval   2   0      
4015  A2808000           [003] call       2   1   2  
4019  D7000000           [004] loadbool   3   0   0    ; false
401D  1D410000           [005] getglobal  4   1        ; gPromotedToHost
4021  18410000           [006] test       4       1    ; to [8] if false
4025  1A801080           [007] jmp        67           ; to [75]
4029  2481C000           [008] self       4   1   258  ; -1201441975
402D  22810001           [009] call       4   2   2  
4031  53018000           [010] getupval   5   1      
4035  62818000           [011] call       5   1   2  
4039  58410000           [012] test       5       1    ; to [14] if false
403D  1A000380           [013] jmp        13           ; to [27]
4041  53010001           [014] getupval   5   2      
4045  62818000           [015] call       5   1   2  
4049  58410000           [016] test       5       1    ; to [18] if false
404D  1A000280           [017] jmp        9            ; to [27]
4051  5DC10000           [018] getglobal  5   3        ; _T
4055  4E01C102           [019] gettable   5   5   260  ; "gQuestMission"
4059  58410000           [020] test       5       1    ; to [22] if false
405D  1A000180           [021] jmp        5            ; to [27]
4061  4E414102           [022] gettable   5   4   261  ; "goalId"
fail op	35
4065  2380C102           [023] close      0  
4069  1A400080           [024] jmp        2            ; to [27]
406D  98000000           [025] test       2       0    ; to [27] if true
4071  1A000680           [026] jmp        25           ; to [52]
4075  5DC10100           [027] getglobal  5   7        ; 1074689893
4079  8E014202           [028] gettable   6   4   264  ; "vipAgent"
407D  62810001           [029] call       5   2   2  
4081  58410000           [030] test       5       1    ; to [32] if false
4085  1AC00480           [031] jmp        20           ; to [52]
4089  5D410200           [032] getglobal  5   9        ; -895206725
408D  8E014202           [033] gettable   6   4   264  ; "vipAgent"
4091  A4814203           [034] self       6   6   266  ; 455421500
4095  A2010001           [035] call       6   2   0  
4099  62810000           [036] call       5   0   2  
409D  9DC10100           [037] getglobal  6   7        ; 1074689893
40A1  D2018002           [038] move       7   5      
40A5  A2810001           [039] call       6   2   2  
40A9  98410000           [040] test       6       1    ; to [42] if false
40AD  1A400280           [041] jmp        10           ; to [52]
40B1  A4C14200           [042] self       6   0   267  ; 117988024
40B5  12028002           [043] move       8   5      
40B9  A2418001           [044] call       6   3   1  
fail op	5
40BD  C5400001           [045] getglobal  3   1025     ; nil
40C1  1A000180           [046] jmp        5            ; to [52]
40C5  8E414102           [047] gettable   6   4   261  ; "goalId"
fail op	35
40C9  23804103           [048] close      0  
40CD  1A000080           [049] jmp        1            ; to [51]
40D1  D7400000           [050] loadbool   3   0   1    ; false, to [52]
40D5  D7008000           [051] loadbool   3   1   0    ; true
40D9  9D010300           [052] getglobal  6   12       ; gRegion
40DD  A4414303           [053] self       6   6   269  ; -774964848
40E1  A2810001           [054] call       6   2   2  
40E5  E4814303           [055] self       7   6   270  ; 537471347
40E9  E2810001           [056] call       7   2   2  
40ED  24C2C303           [057] self       8   7   271  ; -354168336
40F1  22820001           [058] call       8   2   2  
40F5  4E024402           [059] gettable   9   4   272  ; "maxEnemyLevel"
fail op	21
40F9  15408288           [060] concat     0   273 9  
40FD  1A800180           [061] jmp        7            ; to [69]
4101  5D820400           [062] getglobal  9   18       ; math
4105  4EC2C404           [063] gettable   9   9   275  ; -150971781
4109  8E024402           [064] gettable   10  4   272  ; "maxEnemyLevel"
410D  8D424405           [065] sub        10  10  273  ; 0
4111  9C024505           [066] div        10  10  276  ; 0
4115  62820001           [067] call       9   2   2  
4119  03428288           [068] add        8   273 9    ; 0
411D  5D420500           [069] getglobal  9   21       ; spawncontrol
4121  6482C504           [070] self       9   9   278  ; -1700512036
4125  D2020004           [071] move       11  8      
4129  62428001           [072] call       9   3   1  
412D  64C24500           [073] self       9   0   279  ; -1139739557
4131  62420001           [074] call       9   2   1  
4135  64024600           [075] self       9   0   280  ; 803365678
4139  62820001           [076] call       9   2   2  
413D  93028001           [077] getupval   10  3      
4141  D2028004           [078] move       11  9      
4145  A2820001           [079] call       10  2   2  
4149  DDC20100           [080] getglobal  11  7        ; 1074689893
414D  12030005           [081] move       12  10     
4151  E2820001           [082] call       11  2   2  
4155  D8020000           [083] test       11      0    ; to [85] if true
4159  1A400380           [084] jmp        14           ; to [99]
415D  D3028001           [085] getupval   11  3      
4161  12038004           [086] move       12  9      
4165  E2820001           [087] call       11  2   2  
4169  92028005           [088] move       10  11     
416D  DD420600           [089] getglobal  11  25       ; 538022378
4171  19830600           [090] loadk      12  26       ; 0
4175  E2420001           [091] call       11  2   1  
4179  DD420000           [092] getglobal  11  1        ; gPromotedToHost
417D  D8020000           [093] test       11      0    ; to [95] if true
4181  1A00FC7F           [094] jmp        -15          ; to [80]
4185  DDC20600           [095] getglobal  11  27       ; -1817107093
4189  19030700           [096] loadk      12  28       ; "Waiting for avatar"
418D  E2420001           [097] call       11  2   1  
4191  1A00FB7F           [098] jmp        -19          ; to [80]
4195  98000000           [099] test       2       0    ; to [101] if true
4199  1A001180           [100] jmp        69           ; to [170]
419D  E4424705           [101] self       11  10  285  ; -1338608417
41A1  53030002           [102] getupval   13  4      
41A5  E2428001           [103] call       11  3   1  
41A9  E4824705           [104] self       11  10  286  ; -1411785325
41AD  E2820001           [105] call       11  2   2  
41B1  E4C2C705           [106] self       11  11  287  ; 1740880848
41B5  53038002           [107] getupval   13  5      
41B9  97030000           [108] loadbool   14  0   0    ; false
41BD  E2420002           [109] call       11  4   1  
41C1  E4024805           [110] self       11  10  288  ; -1917464545
41C5  E2820001           [111] call       11  2   2  
41C9  E442C805           [112] self       11  11  289  ; 991629753
41CD  5D830800           [113] getglobal  13  34       ; Game
41D1  4EC3C806           [114] gettable   13  13  291  ; "WEAPON_DAMAGE_AMOUNT"
41D5  9D830800           [115] getglobal  14  34       ; Game
41D9  8E034907           [116] gettable   14  14  292  ; "MULTIPLY"
41DD  D9430900           [117] loadk      15  37       ; 10
41E1  E2428002           [118] call       11  5   1  
41E5  E4024805           [119] self       11  10  288  ; -1917464545
41E9  E2820001           [120] call       11  2   2  
41ED  E442C805           [121] self       11  11  289  ; 991629753
41F1  5D830800           [122] getglobal  13  34       ; Game
41F5  4E83C906           [123] gettable   13  13  294  ; "WEAPON_PROC_CHANCE"
41F9  9D830800           [124] getglobal  14  34       ; Game
41FD  8E034907           [125] gettable   14  14  292  ; "MULTIPLY"
4201  D9C30900           [126] loadk      15  39       ; 0
4205  E2428002           [127] call       11  5   1  
4209  D3020003           [128] getupval   11  6      
420D  E2828000           [129] call       11  1   2  
4211  D8020000           [130] test       11      0    ; to [132] if true
4215  1A400980           [131] jmp        38           ; to [170]
4219  E4024A05           [132] self       11  10  296  ; -1544157541
421D  E2820001           [133] call       11  2   2  
4221  E442CA05           [134] self       11  11  297  ; -401086707
4225  57030000           [135] loadbool   13  0   0    ; false
4229  E2428001           [136] call       11  3   1  
422D  E4024805           [137] self       11  10  288  ; -1917464545
4231  E2820001           [138] call       11  2   2  
4235  E442C805           [139] self       11  11  289  ; 991629753
4239  5D830800           [140] getglobal  13  34       ; Game
423D  4E83CA06           [141] gettable   13  13  298  ; "AVATAR_HEALTH_MAX"
4241  9D830800           [142] getglobal  14  34       ; Game
4245  8E034907           [143] gettable   14  14  292  ; "MULTIPLY"
4249  D9C30A00           [144] loadk      15  43       ; 0
424D  E2428002           [145] call       11  5   1  
4251  E4024805           [146] self       11  10  288  ; -1917464545
4255  E2820001           [147] call       11  2   2  
4259  E442C805           [148] self       11  11  289  ; 991629753
425D  5D830800           [149] getglobal  13  34       ; Game
4261  4E03CB06           [150] gettable   13  13  300  ; "AVATAR_SHIELD_MAX"
4265  9D830800           [151] getglobal  14  34       ; Game
4269  8E034907           [152] gettable   14  14  292  ; "MULTIPLY"
426D  D9C30A00           [153] loadk      15  43       ; 0
4271  E2428002           [154] call       11  5   1  
4275  E4024A05           [155] self       11  10  296  ; -1544157541
4279  E2820001           [156] call       11  2   2  
427D  E442CB05           [157] self       11  11  301  ; -1992773175
4281  64034A05           [158] self       13  10  296  ; -1544157541
4285  62830001           [159] call       13  2   2  
4289  6483CB06           [160] self       13  13  302  ; -227502409
428D  62030001           [161] call       13  2   0  
4291  E2420000           [162] call       11  0   1  
4295  DD420000           [163] getglobal  11  1        ; gPromotedToHost
4299  D8420000           [164] test       11      1    ; to [166] if false
429D  1AC00080           [165] jmp        4            ; to [170]
42A1  E4C24B05           [166] self       11  10  303  ; 1992436207
42A5  64034C05           [167] self       13  10  304  ; 945541886
42A9  62030001           [168] call       13  2   0  
42AD  E2420000           [169] call       11  0   1  
42B1  DDC20100           [170] getglobal  11  7        ; 1074689893
42B5  1D430C00           [171] getglobal  12  49       ; defenseMoverInitialWaypoint
42B9  E2820001           [172] call       11  2   2  
42BD  D8420000           [173] test       11      1    ; to [175] if false
42C1  1A000380           [174] jmp        13           ; to [188]
42C5  DD420000           [175] getglobal  11  1        ; gPromotedToHost
42C9  D8420000           [176] test       11      1    ; to [178] if false
42CD  1A400280           [177] jmp        10           ; to [188]
42D1  DD420C00           [178] getglobal  11  49       ; defenseMoverInitialWaypoint
42D5  E482CC05           [179] self       11  11  306  ; 1839670529
42D9  E2820001           [180] call       11  2   2  
42DD  1D430C00           [181] getglobal  12  49       ; defenseMoverInitialWaypoint
42E1  24C34C06           [182] self       12  12  307  ; -231049143
42E5  22830001           [183] call       12  2   2  
42E9  64034D05           [184] self       13  10  308  ; 970454089
42ED  D2038005           [185] move       15  11     
42F1  12040006           [186] move       16  12     
42F5  62430002           [187] call       13  4   1  
42F9  64434D05           [188] self       13  10  309  ; -1957065004
42FD  D3038003           [189] getupval   15  7      
4301  62838001           [190] call       13  3   2  
4305  58030000           [191] test       13      0    ; to [193] if true
4309  1A801380           [192] jmp        79           ; to [272]
430D  5D030300           [193] getglobal  13  12       ; gRegion
4311  6483CD06           [194] self       13  13  310  ; -1520831144
4315  62830001           [195] call       13  2   2  
4319  58030000           [196] test       13      0    ; to [198] if true
431D  1A401280           [197] jmp        74           ; to [272]
4321  5DC30D00           [198] getglobal  13  55       ; gPlayerProfileMgr
4325  6403CE06           [199] self       13  13  312  ; 569342746
4329  D9830600           [200] loadk      15  26       ; 0
432D  62838001           [201] call       13  3   2  
4331  6443CE06           [202] self       13  13  313  ; 1699680402
4335  62830001           [203] call       13  2   2  
4339  A483CE06           [204] self       14  13  314  ; -667809046
433D  A2830001           [205] call       14  2   2  
4341  98030000           [206] test       14      0    ; to [208] if true
4345  1AC00F80           [207] jmp        64           ; to [272]
4349  A4C3CE06           [208] self       14  13  315  ; 51109503
434D  A2830001           [209] call       14  2   2  
4351  E4034F07           [210] self       15  14  316  ; 1644212373
4355  5D440F00           [211] getglobal  17  61       ; Lotus_Game
4359  4E84CF08           [212] gettable   17  17  318  ; "LOT_SENTINEL"
435D  9D440F00           [213] getglobal  18  61       ; Lotus_Game
4361  8EC44F09           [214] gettable   18  18  319  ; "SUIT_SLOT"
4365  E2830002           [215] call       15  4   2  
4369  1D440200           [216] getglobal  16  9        ; -895206725
436D  4E04D007           [217] gettable   17  15  320  ; "mItemType"
4371  22840001           [218] call       16  2   2  
4375  64445005           [219] self       17  10  321  ; 1479835399
4379  D2040008           [220] move       19  16     
437D  17058000           [221] loadbool   20  1   0    ; true
4381  62840002           [222] call       17  4   2  
4385  A4845005           [223] self       18  10  322  ; -203446718
4389  12050007           [224] move       20  14     
438D  52058008           [225] move       21  17     
4391  A2440002           [226] call       18  4   1  
4395  A4C4D008           [227] self       18  17  323  ; -1038992139
4399  2405D107           [228] self       20  15  324  ; -1348043987
439D  22050001           [229] call       20  2   0  
43A1  A2440000           [230] call       18  0   1  
43A5  9D040300           [231] getglobal  18  12       ; gRegion
43A9  A4445109           [232] self       18  18  325  ; -23616965
43AD  A2840001           [233] call       18  2   2  
43B1  8E845109           [234] gettable   18  18  326  ; 0
43B5  E4C45105           [235] self       19  10  327  ; -635572127
43B9  52050009           [236] move       21  18     
43BD  E2448001           [237] call       19  3   1  
43C1  E4044809           [238] self       19  18  288  ; -1917464545
43C5  E2840001           [239] call       19  2   2  
43C9  E404D209           [240] self       19  19  328  ; 677380869
43CD  52050005           [241] move       21  10     
43D1  E2448001           [242] call       19  3   1  
43D5  D9841100           [243] loadk      19  70       ; 0
43D9  2445D208           [244] self       20  17  329  ; 50729289
43DD  22850001           [245] call       20  2   2  
43E1  59851100           [246] loadk      21  70       ; 0
43E5  D0840580           [247] forprep    19  23       ; to [271]
43E9  E485D208           [248] self       23  17  330  ; 955459000
43ED  4D86510B           [249] sub        25  22  326  ; 0
43F1  E2858001           [250] call       23  3   2  
43F5  1DC60100           [251] getglobal  24  7        ; 1074689893
43F9  5206800B           [252] move       25  23     
43FD  22860001           [253] call       24  2   2  
4401  18460000           [254] test       24      1    ; to [256] if false
4405  1A800380           [255] jmp        15           ; to [271]
4409  2446CD0B           [256] self       24  23  309  ; -1957065004
440D  9DC61200           [257] getglobal  26  75       ; gLotusSuitCustomizationType
4411  22868001           [258] call       24  3   2  
4415  18060000           [259] test       24      0    ; to [261] if true
4419  1A400280           [260] jmp        10           ; to [271]
441D  2406D30B           [261] self       24  23  332  ; 1459781193
4421  22860001           [262] call       24  2   2  
4425  5D460F00           [263] getglobal  25  61       ; Lotus_Game
4429  4E46D30C           [264] gettable   25  25  333  ; "Neckwear"
fail op	35
442D  2340060C           [265] close      0  
4431  1AC00080           [266] jmp        4            ; to [271]
4435  2486D308           [267] self       24  17  334  ; -233482841
4439  9206800B           [268] move       26  23     
443D  22468001           [269] call       24  3   1  
4441  1A000080           [270] jmp        1            ; to [272]
4445  D4C4F97F           [271] forloop    19  -24      ; to [248] if loop
4449  1DC60100           [272] getglobal  24  7        ; 1074689893
444D  5DC60000           [273] getglobal  25  3        ; _T
4451  4EC6D30C           [274] gettable   25  25  335  ; "DefenseSpawnOffset"
4455  22860001           [275] call       24  2   2  
4459  18460000           [276] test       24      1    ; to [278] if false
445D  1A000380           [277] jmp        13           ; to [291]
4461  1DC60000           [278] getglobal  24  3        ; _T
4465  0EC6530C           [279] gettable   24  24  335  ; "DefenseSpawnOffset"
4469  5D061400           [280] getglobal  25  80       ; ZERO_VECTOR
fail op	35
446D  6340060C           [281] close      1  
4471  1AC00180           [282] jmp        8            ; to [291]
4475  24864C05           [283] self       24  10  306  ; 1839670529
4479  22860001           [284] call       24  2   2  
447D  5DC60000           [285] getglobal  25  3        ; _T
4481  4EC6D30C           [286] gettable   25  25  335  ; "DefenseSpawnOffset"
4485  0346060C           [287] add        24  24  25 
4489  64465405           [288] self       25  10  337  ; -333955620
448D  D206000C           [289] move       27  24     
4491  62468001           [290] call       25  3   1  
4495  D8000000           [291] test       3       0    ; to [293] if true
4499  1A000A80           [292] jmp        41           ; to [334]
449D  5DC60100           [293] getglobal  25  7        ; 1074689893
44A1  92060005           [294] move       26  10     
44A5  62860001           [295] call       25  2   2  
44A9  58460000           [296] test       25      1    ; to [298] if false
44AD  1AC00880           [297] jmp        36           ; to [334]
44B1  5DC60100           [298] getglobal  25  7        ; 1074689893
44B5  93060004           [299] getupval   26  8      
44B9  62860001           [300] call       25  2   2  
44BD  58460000           [301] test       25      1    ; to [303] if false
44C1  1A800780           [302] jmp        31           ; to [334]
44C5  5D060300           [303] getglobal  25  12       ; gRegion
44C9  6486D40C           [304] self       25  25  338  ; 152279552
44CD  D3060004           [305] getupval   27  8      
44D1  62868001           [306] call       25  3   2  
44D5  9DC60100           [307] getglobal  26  7        ; 1074689893
44D9  D206800C           [308] move       27  25     
44DD  A2860001           [309] call       26  2   2  
44E1  98460000           [310] test       26      1    ; to [312] if false
44E5  1AC00180           [311] jmp        8            ; to [320]
44E9  9DC61400           [312] getglobal  26  83       ; 248503575
44ED  D206800C           [313] move       27  25     
44F1  A2060101           [314] call       26  2   4  
44F5  1A400080           [315] jmp        2            ; to [318]
44F9  E407550F           [316] self       31  30  340  ; -725453761
44FD  E2470001           [317] call       31  2   1  
4501  96860000           [318] tforloop   26      2    ; to [320] if exit
4505  1AC0FE7F           [319] jmp        -4           ; to [316]
4509  DDC70100           [320] getglobal  31  7        ; 1074689893
450D  13088004           [321] getupval   32  9      
4511  E2870001           [322] call       31  2   2  
4515  D8470000           [323] test       31      1    ; to [325] if false
4519  1A000280           [324] jmp        9            ; to [334]
451D  E4475505           [325] self       31  10  341  ; -1421644046
4521  53088004           [326] getupval   33  9      
4525  9D881500           [327] getglobal  34  86       ; EMPTY_SYMBOL
4529  DDC81500           [328] getglobal  35  87       ; 572299008
452D  19890600           [329] loadk      36  26       ; 0
4531  59091600           [330] loadk      37  88       ; 0
4535  99890600           [331] loadk      38  26       ; 0
4539  E2080002           [332] call       35  4   0  
453D  E2470000           [333] call       31  0   1  
4541  9E020001           [334] return     10  2      
4545  1E008000           [335] return     0   1      
                         * constants:
4549  59                 sizek (89)
454A  04                 const type 4
454B  0B                 string size (11)
454C  6747616D6552756C+  "gGameRul"
4554  657300             "es\0"
                         const [0]: "gGameRules"
4557  04                 const type 4
4558  10                 string size (16)
4559  6750726F6D6F7465+  "gPromote"
4561  64546F486F737400   "dToHost\0"
                         const [1]: "gPromotedToHost"
4569  01                 const type 3
456A  497363B8           const [2]: (-1201441975)
456E  04                 const type 4
456F  03                 string size (3)
4570  5F5400             "_T\0"
                         const [3]: "_T"
4573  04                 const type 4
4574  0E                 string size (14)
4575  6751756573744D69+  "gQuestMi"
457D  7373696F6E00       "ssion\0"
                         const [4]: "gQuestMission"
4583  04                 const type 4
4584  07                 string size (7)
4585  676F616C496400     "goalId\0"
                         const [5]: "goalId"
458C  04                 const type 4
458D  01                 string size (0)
                         const [6]: ""
458F  01                 const type 3
4590  65770E40           const [7]: (1074689893)
4594  04                 const type 4
4595  09                 string size (9)
4596  7669704167656E74+  "vipAgent"
459E  00                 "\0"
                         const [8]: "vipAgent"
459F  01                 const type 3
45A0  BB3AA4CA           const [9]: (-895206725)
45A4  01                 const type 3
45A5  3C2E251B           const [10]: (455421500)
45A9  01                 const type 3
45AA  B85A0807           const [11]: (117988024)
45AE  04                 const type 4
45AF  08                 string size (8)
45B0  67526567696F6E00   "gRegion\0"
                         const [12]: "gRegion"
45B8  01                 const type 3
45B9  90F9CED1           const [13]: (-774964848)
45BD  01                 const type 3
45BE  73290920           const [14]: (537471347)
45C2  01                 const type 3
45C3  F0D1E3EA           const [15]: (-354168336)
45C7  04                 const type 4
45C8  0E                 string size (14)
45C9  6D6178456E656D79+  "maxEnemy"
45D1  4C6576656C00       "Level\0"
                         const [16]: "maxEnemyLevel"
45D7  03                 const type 3
45D8  00004842           const [17]: (0)
45DC  04                 const type 4
45DD  05                 string size (5)
45DE  6D61746800         "math\0"
                         const [18]: "math"
45E3  01                 const type 3
45E4  7B5A00F7           const [19]: (-150971781)
45E8  03                 const type 3
45E9  00007041           const [20]: (0)
45ED  04                 const type 4
45EE  0D                 string size (13)
45EF  737061776E636F6E+  "spawncon"
45F7  74726F6C00         "trol\0"
                         const [21]: "spawncontrol"
45FC  01                 const type 3
45FD  DC3EA49A           const [22]: (-1700512036)
4601  01                 const type 3
4602  5BF410BC           const [23]: (-1139739557)
4606  01                 const type 3
4607  2E63E22F           const [24]: (803365678)
460B  01                 const type 3
460C  EA911120           const [25]: (538022378)
4610  03                 const type 3
4611  00000000           const [26]: (0)
4615  01                 const type 3
4616  6B25B193           const [27]: (-1817107093)
461A  04                 const type 4
461B  13                 string size (19)
461C  57616974696E6720+  "Waiting "
4624  666F722061766174+  "for avat"
462C  617200             "ar\0"
                         const [28]: "Waiting for avatar"
462F  01                 const type 3
4630  DF7436B0           const [29]: (-1338608417)
4634  01                 const type 3
4635  93DDD9AB           const [30]: (-1411785325)
4639  01                 const type 3
463A  D0BBC367           const [31]: (1740880848)
463E  01                 const type 3
463F  1FD0B58D           const [32]: (-1917464545)
4643  01                 const type 3
4644  B9111B3B           const [33]: (991629753)
4648  04                 const type 4
4649  05                 string size (5)
464A  47616D6500         "Game\0"
                         const [34]: "Game"
464F  04                 const type 4
4650  15                 string size (21)
4651  574541504F4E5F44+  "WEAPON_D"
4659  414D4147455F414D+  "AMAGE_AM"
4661  4F554E5400         "OUNT\0"
                         const [35]: "WEAPON_DAMAGE_AMOUNT"
4666  04                 const type 4
4667  09                 string size (9)
4668  4D554C5449504C59+  "MULTIPLY"
4670  00                 "\0"
                         const [36]: "MULTIPLY"
4671  03                 const type 3
4672  0AD7A33C           const [37]: (10)
4676  04                 const type 4
4677  13                 string size (19)
4678  574541504F4E5F50+  "WEAPON_P"
4680  524F435F4348414E+  "ROC_CHAN"
4688  434500             "CE\0"
                         const [38]: "WEAPON_PROC_CHANCE"
468B  03                 const type 3
468C  0000003F           const [39]: (0)
4690  01                 const type 3
4691  9B06F6A3           const [40]: (-1544157541)
4695  01                 const type 3
4696  0DE717E8           const [41]: (-401086707)
469A  04                 const type 4
469B  12                 string size (18)
469C  4156415441525F48+  "AVATAR_H"
46A4  45414C54485F4D41+  "EALTH_MA"
46AC  5800               "X\0"
                         const [42]: "AVATAR_HEALTH_MAX"
46AE  03                 const type 3
46AF  0000A040           const [43]: (0)
46B3  04                 const type 4
46B4  12                 string size (18)
46B5  4156415441525F53+  "AVATAR_S"
46BD  4849454C445F4D41+  "HIELD_MA"
46C5  5800               "X\0"
                         const [44]: "AVATAR_SHIELD_MAX"
46C7  01                 const type 3
46C8  C9B13889           const [45]: (-1992773175)
46CC  01                 const type 3
46CD  B79670F2           const [46]: (-227502409)
46D1  01                 const type 3
46D2  EF29C276           const [47]: (1992436207)
46D6  01                 const type 3
46D7  FED25B38           const [48]: (945541886)
46DB  04                 const type 4
46DC  1C                 string size (28)
46DD  646566656E73654D+  "defenseM"
46E5  6F766572496E6974+  "overInit"
46ED  69616C576179706F+  "ialWaypo"
46F5  696E7400           "int\0"
                         const [49]: "defenseMoverInitialWaypoint"
46F9  01                 const type 3
46FA  0125A76D           const [50]: (1839670529)
46FE  01                 const type 3
46FF  49783AF2           const [51]: (-231049143)
4703  01                 const type 3
4704  49F4D739           const [52]: (970454089)
4708  01                 const type 3
4709  D48E598B           const [53]: (-1957065004)
470D  01                 const type 3
470E  58F559A5           const [54]: (-1520831144)
4712  04                 const type 4
4713  12                 string size (18)
4714  67506C6179657250+  "gPlayerP"
471C  726F66696C654D67+  "rofileMg"
4724  7200               "r\0"
                         const [55]: "gPlayerProfileMgr"
4726  01                 const type 3
4727  1A7BEF21           const [56]: (569342746)
472B  01                 const type 3
472C  92104F65           const [57]: (1699680402)
4730  01                 const type 3
4731  EA0A32D8           const [58]: (-667809046)
4735  01                 const type 3
4736  7FDE0B03           const [59]: (51109503)
473A  01                 const type 3
473B  95B00062           const [60]: (1644212373)
473F  04                 const type 4
4740  0B                 string size (11)
4741  4C6F7475735F4761+  "Lotus_Ga"
4749  6D6500             "me\0"
                         const [61]: "Lotus_Game"
474C  04                 const type 4
474D  0D                 string size (13)
474E  4C4F545F53454E54+  "LOT_SENT"
4756  494E454C00         "INEL\0"
                         const [62]: "LOT_SENTINEL"
475B  04                 const type 4
475C  0A                 string size (10)
475D  535549545F534C4F+  "SUIT_SLO"
4765  5400               "T\0"
                         const [63]: "SUIT_SLOT"
4767  04                 const type 4
4768  0A                 string size (10)
4769  6D4974656D547970+  "mItemTyp"
4771  6500               "e\0"
                         const [64]: "mItemType"
4773  01                 const type 3
4774  077F3458           const [65]: (1479835399)
4778  01                 const type 3
4779  42A6DFF3           const [66]: (-203446718)
477D  01                 const type 3
477E  F53C12C2           const [67]: (-1038992139)
4782  01                 const type 3
4783  2D7BA6AF           const [68]: (-1348043987)
4787  01                 const type 3
4788  3BA297FE           const [69]: (-23616965)
478C  03                 const type 3
478D  0000803F           const [70]: (0)
4791  01                 const type 3
4792  61F01DDA           const [71]: (-635572127)
4796  01                 const type 3
4797  05036028           const [72]: (677380869)
479B  01                 const type 3
479C  49110603           const [73]: (50729289)
47A0  01                 const type 3
47A1  B825F338           const [74]: (955459000)
47A5  04                 const type 4
47A6  1C                 string size (28)
47A7  674C6F7475735375+  "gLotusSu"
47AF  6974437573746F6D+  "itCustom"
47B7  697A6174696F6E54+  "izationT"
47BF  79706500           "ype\0"
                         const [75]: "gLotusSuitCustomizationType"
47C3  01                 const type 3
47C4  497E0257           const [76]: (1459781193)
47C8  04                 const type 4
47C9  09                 string size (9)
47CA  4E65636B77656172+  "Neckwear"
47D2  00                 "\0"
                         const [77]: "Neckwear"
47D3  01                 const type 3
47D4  A75515F2           const [78]: (-233482841)
47D8  04                 const type 4
47D9  13                 string size (19)
47DA  446566656E736553+  "DefenseS"
47E2  7061776E4F666673+  "pawnOffs"
47EA  657400             "et\0"
                         const [79]: "DefenseSpawnOffset"
47ED  04                 const type 4
47EE  0C                 string size (12)
47EF  5A45524F5F564543+  "ZERO_VEC"
47F7  544F5200           "TOR\0"
                         const [80]: "ZERO_VECTOR"
47FB  01                 const type 3
47FC  DC3D18EC           const [81]: (-333955620)
4800  01                 const type 3
4801  009A1309           const [82]: (152279552)
4805  01                 const type 3
4806  17DDCF0E           const [83]: (248503575)
480A  01                 const type 3
480B  3F74C2D4           const [84]: (-725453761)
480F  01                 const type 3
4810  F26E43AB           const [85]: (-1421644046)
4814  04                 const type 4
4815  0D                 string size (13)
4816  454D5054595F5359+  "EMPTY_SY"
481E  4D424F4C00         "MBOL\0"
                         const [86]: "EMPTY_SYMBOL"
4823  01                 const type 3
4824  00971C22           const [87]: (572299008)
4828  03                 const type 3
4829  00000040           const [88]: (0)
                         * functions:
482D  00                 sizep (0)
                         * lines:
482F  02                 sizelineinfo (335)
                         [pc] (line)
4830  21                 [001] (33)
4831  03                 [002] (34)
4832  00                 [003] (34)
4833  00                 [004] (35)
4834  22                 [005] (37)
4835  03                 [006] (37)
4836  00                 [007] (37)
4837  00                 [008] (38)
4838  22                 [009] (38)
4839  03                 [010] (39)
483A  00                 [011] (39)
483B  00                 [012] (39)
483C  23                 [013] (39)
483D  03                 [014] (39)
483E  00                 [015] (39)
483F  00                 [016] (39)
4840  25                 [017] (39)
4841  03                 [018] (39)
4842  00                 [019] (39)
4843  00                 [020] (39)
4844  25                 [021] (39)
4845  03                 [022] (39)
4846  00                 [023] (39)
4847  00                 [024] (39)
4848  25                 [025] (39)
4849  03                 [026] (39)
484A  00                 [027] (40)
484B  00                 [028] (40)
484C  26                 [029] (40)
484D  03                 [030] (40)
484E  00                 [031] (40)
484F  00                 [032] (41)
4850  26                 [033] (41)
4851  03                 [034] (41)
4852  00                 [035] (41)
4853  00                 [036] (41)
4854  27                 [037] (42)
4855  03                 [038] (42)
4856  00                 [039] (42)
4857  00                 [040] (42)
4858  27                 [041] (42)
4859  03                 [042] (43)
485A  00                 [043] (43)
485B  00                 [044] (43)
485C  27                 [045] (44)
485D  03                 [046] (44)
485E  00                 [047] (44)
485F  00                 [048] (44)
4860  27                 [049] (44)
4861  03                 [050] (44)
4862  00                 [051] (44)
4863  00                 [052] (49)
4864  27                 [053] (49)
4865  03                 [054] (49)
4866  00                 [055] (50)
4867  00                 [056] (50)
4868  27                 [057] (51)
4869  03                 [058] (51)
486A  00                 [059] (53)
486B  00                 [060] (53)
486C  27                 [061] (53)
486D  03                 [062] (55)
486E  00                 [063] (55)
486F  00                 [064] (55)
4870  27                 [065] (55)
4871  03                 [066] (55)
4872  00                 [067] (55)
4873  00                 [068] (55)
4874  27                 [069] (58)
4875  03                 [070] (58)
4876  00                 [071] (58)
4877  00                 [072] (58)
4878  27                 [073] (60)
4879  03                 [074] (60)
487A  00                 [075] (63)
487B  00                 [076] (63)
487C  27                 [077] (64)
487D  03                 [078] (64)
487E  00                 [079] (64)
487F  00                 [080] (65)
4880  27                 [081] (65)
4881  03                 [082] (65)
4882  00                 [083] (65)
4883  00                 [084] (65)
4884  27                 [085] (66)
4885  03                 [086] (66)
4886  00                 [087] (66)
4887  00                 [088] (66)
4888  27                 [089] (67)
4889  03                 [090] (67)
488A  00                 [091] (67)
488B  00                 [092] (68)
488C  27                 [093] (68)
488D  03                 [094] (68)
488E  00                 [095] (69)
488F  00                 [096] (69)
4890  27                 [097] (69)
4891  03                 [098] (70)
4892  00                 [099] (73)
4893  00                 [100] (73)
4894  27                 [101] (75)
4895  03                 [102] (75)
4896  00                 [103] (75)
4897  00                 [104] (76)
4898  28                 [105] (76)
4899  03                 [106] (76)
489A  00                 [107] (76)
489B  00                 [108] (76)
489C  28                 [109] (76)
489D  03                 [110] (77)
489E  00                 [111] (77)
489F  00                 [112] (77)
48A0  28                 [113] (77)
48A1  03                 [114] (77)
48A2  00                 [115] (77)
48A3  00                 [116] (77)
48A4  28                 [117] (77)
48A5  03                 [118] (77)
48A6  00                 [119] (78)
48A7  00                 [120] (78)
48A8  28                 [121] (78)
48A9  03                 [122] (78)
48AA  00                 [123] (78)
48AB  00                 [124] (78)
48AC  29                 [125] (78)
48AD  03                 [126] (78)
48AE  00                 [127] (78)
48AF  00                 [128] (80)
48B0  29                 [129] (80)
48B1  03                 [130] (80)
48B2  00                 [131] (80)
48B3  00                 [132] (81)
48B4  29                 [133] (81)
48B5  03                 [134] (81)
48B6  00                 [135] (81)
48B7  00                 [136] (81)
48B8  29                 [137] (82)
48B9  03                 [138] (82)
48BA  00                 [139] (82)
48BB  00                 [140] (82)
48BC  29                 [141] (82)
48BD  03                 [142] (82)
48BE  00                 [143] (82)
48BF  00                 [144] (82)
48C0  2A                 [145] (82)
48C1  03                 [146] (83)
48C2  00                 [147] (83)
48C3  00                 [148] (83)
48C4  2A                 [149] (83)
48C5  03                 [150] (83)
48C6  00                 [151] (83)
48C7  00                 [152] (83)
48C8  2A                 [153] (83)
48C9  03                 [154] (83)
48CA  00                 [155] (84)
48CB  00                 [156] (84)
48CC  2A                 [157] (84)
48CD  03                 [158] (84)
48CE  00                 [159] (84)
48CF  00                 [160] (84)
48D0  2A                 [161] (84)
48D1  03                 [162] (84)
48D2  00                 [163] (86)
48D3  00                 [164] (86)
48D4  2B                 [165] (86)
48D5  03                 [166] (87)
48D6  00                 [167] (87)
48D7  00                 [168] (87)
48D8  2B                 [169] (87)
48D9  03                 [170] (94)
48DA  00                 [171] (94)
48DB  00                 [172] (94)
48DC  2B                 [173] (94)
48DD  03                 [174] (94)
48DE  00                 [175] (94)
48DF  00                 [176] (94)
48E0  2C                 [177] (94)
48E1  03                 [178] (95)
48E2  00                 [179] (95)
48E3  00                 [180] (95)
48E4  2C                 [181] (96)
48E5  03                 [182] (96)
48E6  00                 [183] (96)
48E7  00                 [184] (97)
48E8  2C                 [185] (97)
48E9  03                 [186] (97)
48EA  00                 [187] (97)
48EB  00                 [188] (100)
48EC  2C                 [189] (100)
48ED  03                 [190] (100)
48EE  00                 [191] (100)
48EF  00                 [192] (100)
48F0  2C                 [193] (101)
48F1  03                 [194] (101)
48F2  00                 [195] (101)
48F3  00                 [196] (101)
48F4  2C                 [197] (101)
48F5  03                 [198] (102)
48F6  00                 [199] (102)
48F7  00                 [200] (102)
48F8  2C                 [201] (102)
48F9  03                 [202] (102)
48FA  00                 [203] (102)
48FB  00                 [204] (104)
48FC  31                 [205] (104)
48FD  03                 [206] (104)
48FE  00                 [207] (104)
48FF  00                 [208] (105)
4900  31                 [209] (105)
4901  03                 [210] (106)
4902  00                 [211] (106)
4903  00                 [212] (106)
4904  31                 [213] (106)
4905  03                 [214] (106)
4906  00                 [215] (106)
4907  00                 [216] (108)
4908  32                 [217] (108)
4909  03                 [218] (108)
490A  00                 [219] (109)
490B  00                 [220] (109)
490C  32                 [221] (109)
490D  03                 [222] (109)
490E  00                 [223] (111)
490F  00                 [224] (111)
4910  33                 [225] (111)
4911  03                 [226] (111)
4912  00                 [227] (112)
4913  00                 [228] (112)
4914  33                 [229] (112)
4915  03                 [230] (112)
4916  00                 [231] (114)
4917  00                 [232] (114)
4918  35                 [233] (114)
4919  03                 [234] (114)
491A  00                 [235] (115)
491B  00                 [236] (115)
491C  35                 [237] (115)
491D  03                 [238] (117)
491E  00                 [239] (117)
491F  00                 [240] (117)
4920  35                 [241] (117)
4921  03                 [242] (117)
4922  00                 [243] (120)
4923  00                 [244] (120)
4924  37                 [245] (120)
4925  03                 [246] (120)
4926  00                 [247] (120)
4927  00                 [248] (121)
4928  37                 [249] (121)
4929  03                 [250] (121)
492A  00                 [251] (122)
492B  00                 [252] (122)
492C  37                 [253] (122)
492D  03                 [254] (122)
492E  00                 [255] (122)
492F  00                 [256] (122)
4930  37                 [257] (122)
4931  03                 [258] (122)
4932  00                 [259] (122)
4933  00                 [260] (122)
4934  37                 [261] (122)
4935  03                 [262] (122)
4936  00                 [263] (122)
4937  00                 [264] (122)
4938  37                 [265] (122)
4939  03                 [266] (122)
493A  00                 [267] (123)
493B  00                 [268] (123)
493C  37                 [269] (123)
493D  03                 [270] (124)
493E  00                 [271] (120)
493F  00                 [272] (-125)
4940  3A                 [273] (-125)
4941  03                 [274] (-125)
4942  00                 [275] (-125)
4943  00                 [276] (-125)
4944  3A                 [277] (-125)
4945  03                 [278] (-125)
4946  00                 [279] (-125)
4947  00                 [280] (-125)
4948  3A                 [281] (-125)
4949  03                 [282] (-125)
494A  00                 [283] (-124)
494B  00                 [284] (-124)
494C  3A                 [285] (-124)
494D  03                 [286] (-124)
494E  00                 [287] (-124)
494F  00                 [288] (-123)
4950  3C                 [289] (-123)
4951  03                 [290] (-123)
4952  00                 [291] (-120)
4953  00                 [292] (-120)
4954  3C                 [293] (-120)
4955  03                 [294] (-120)
4956  00                 [295] (-120)
4957  00                 [296] (-120)
4958  3F                 [297] (-120)
4959  03                 [298] (-120)
495A  00                 [299] (-120)
495B  00                 [300] (-120)
495C  3F                 [301] (-120)
495D  03                 [302] (-120)
495E  00                 [303] (-118)
495F  00                 [304] (-118)
4960  40                 [305] (-118)
4961  03                 [306] (-118)
4962  00                 [307] (-117)
4963  00                 [308] (-117)
4964  40                 [309] (-117)
4965  03                 [310] (-117)
4966  00                 [311] (-117)
4967  00                 [312] (-116)
4968  40                 [313] (-116)
4969  03                 [314] (-116)
496A  00                 [315] (-116)
496B  00                 [316] (-115)
496C  41                 [317] (-115)
496D  03                 [318] (-116)
496E  00                 [319] (-115)
496F  00                 [320] (-110)
4970  41                 [321] (-110)
4971  03                 [322] (-110)
4972  00                 [323] (-110)
4973  00                 [324] (-110)
4974  41                 [325] (-109)
4975  03                 [326] (-109)
4976  00                 [327] (-109)
4977  00                 [328] (-109)
4978  41                 [329] (-109)
4979  03                 [330] (-109)
497A  00                 [331] (-109)
497B  00                 [332] (-109)
497C  41                 [333] (-109)
497D  03                 [334] (-105)
497E  00                 [335] (-104)
                         * locals:
4D6C  00                 sizelocvars (0)
                         * upvalues:
4D6D  00                 sizeupvalues (0)
                         ** end of function **

                         
4D6E                     ** function [21] definition (level 2)
                         ** start of function **
4D6E  00                 string size (0)
                         source name: (none)
4D70  07                 line defined (922)
4D71  CC                 last line defined (972)
4D72  07                 nups (5)
4D73  05                 numparams (1)
4D74  01                 is_vararg (0)
4D75  00                 maxstacksize (12)
                         * code:
4D77  64                 sizecode (100)
4D78  5D000000           [001] getglobal  1   0        ; gGameRules
4D7C  A440C000           [002] self       2   1   257  ; -317790213
4D80  13010000           [003] getupval   4   0      
4D84  A2808001           [004] call       2   3   2  
4D88  D7000000           [005] loadbool   3   0   0    ; false
fail op	35
4D8C  6380C001           [006] close      1  
4D90  1AC00080           [007] jmp        4            ; to [12]
4D94  13018000           [008] getupval   4   1      
4D98  22818000           [009] call       4   1   2  
4D9C  18010000           [010] test       4       0    ; to [12] if true
4DA0  1A400080           [011] jmp        2            ; to [14]
4DA4  19C00000           [012] loadk      0   3        ; 0
4DA8  1A400180           [013] jmp        6            ; to [20]
4DAC  1D010100           [014] getglobal  4   4        ; waveSleepOverride
fail op	21
4DB0  15008182           [015] concat     0   261 4  
4DB4  1A800080           [016] jmp        3            ; to [20]
fail op	21
4DB8  15800083           [017] concat     0   262 2  
4DBC  1A000080           [018] jmp        1            ; to [20]
4DC0  1D000100           [019] getglobal  0   4        ; waveSleepOverride
4DC4  1DC10100           [020] getglobal  4   7        ; -1817107093
4DC8  59010200           [021] loadk      5   8        ; "_SleepBetweenWaves("
4DCC  9D410200           [022] getglobal  6   9        ; -1615931716
4DD0  D2010000           [023] move       7   0      
4DD4  A2810001           [024] call       6   2   2  
4DD8  D9810200           [025] loadk      7   10       ; ")"
4DDC  42C18102           [026] concat     5   5   7  
4DE0  22410001           [027] call       4   2   1  
4DE4  19C10200           [028] loadk      4   11       ; "/Lotus/Language/Game/WaveCleared"
fail op	35
4DE8  23804101           [029] close      0  
4DEC  1A000080           [030] jmp        1            ; to [32]
4DF0  19010300           [031] loadk      4   12       ; "/Lotus/Language/Game/WaveIncoming"
4DF4  53010001           [032] getupval   5   2      
4DF8  4E41C302           [033] gettable   5   5   269  ; 243495507
4DFC  92010000           [034] move       6   0      
4E00  D7010000           [035] loadbool   7   0   0    ; false
4E04  17028000           [036] loadbool   8   1   0    ; true
4E08  57020000           [037] loadbool   9   0   0    ; false
4E0C  99C20000           [038] loadk      10  3        ; 0
4E10  D2020002           [039] move       11  4      
4E14  62418003           [040] call       5   7   1  
4E18  6481C300           [041] self       5   1   270  ; -1159427479
4E1C  62810001           [042] call       5   2   2  
4E20  9DC10300           [043] getglobal  6   15       ; 1074689893
4E24  DD010400           [044] getglobal  7   16       ; waveClearSound
4E28  A2810001           [045] call       6   2   2  
4E2C  98410000           [046] test       6       1    ; to [48] if false
4E30  1AC00280           [047] jmp        12           ; to [60]
4E34  9DC10300           [048] getglobal  6   15       ; 1074689893
4E38  D2018002           [049] move       7   5      
4E3C  A2810001           [050] call       6   2   2  
4E40  98410000           [051] test       6       1    ; to [53] if false
4E44  1A800180           [052] jmp        7            ; to [60]
4E48  9D410400           [053] getglobal  6   17       ; gRegion
4E4C  A4814403           [054] self       6   6   274  ; 630793108
4E50  1D020400           [055] getglobal  8   16       ; waveClearSound
4E54  64C2C402           [056] self       9   5   275  ; 1839670529
4E58  62820001           [057] call       9   2   2  
4E5C  97020000           [058] loadbool   10  0   0    ; false
4E60  A2418002           [059] call       6   5   1  
4E64  92010000           [060] move       6   0      
4E68  E401C500           [061] self       7   1   276  ; -803877924
4E6C  53028001           [062] getupval   9   3      
4E70  92020003           [063] move       10  6      
4E74  E2410002           [064] call       7   4   1  
fail op	21
4E78  1580818A           [065] concat     0   277 6  
4E7C  1A800380           [066] jmp        15           ; to [82]
4E80  DD810500           [067] getglobal  7   22       ; 538022378
4E84  19820100           [068] loadk      8   6        ; 0
4E88  E2410001           [069] call       7   2   1  
4E8C  CD814103           [070] sub        7   6   262  ; 0
4E90  1DC20500           [071] getglobal  8   23       ; 1289681407
4E94  22828000           [072] call       8   1   2  
4E98  8D018203           [073] sub        6   7   8  
fail op	21
4E9C  15404503           [074] concat     0   6   277
4EA0  1A000080           [075] jmp        1            ; to [77]
4EA4  99410500           [076] loadk      6   21       ; 0
4EA8  E401C500           [077] self       7   1   276  ; -803877924
4EAC  53028001           [078] getupval   9   3      
4EB0  92020003           [079] move       10  6      
4EB4  E2410002           [080] call       7   4   1  
4EB8  1A80FB7F           [081] jmp        -17          ; to [65]
4EBC  E401C500           [082] self       7   1   276  ; -803877924
4EC0  53028001           [083] getupval   9   3      
4EC4  99420500           [084] loadk      10  21       ; 0
4EC8  E2410002           [085] call       7   4   1  
4ECC  DD010000           [086] getglobal  7   0        ; gGameRules
4ED0  2442C003           [087] self       8   7   257  ; -317790213
4ED4  93020002           [088] getupval   10  4      
4ED8  22828001           [089] call       8   3   2  
fail op	21
4EDC  1500828A           [090] concat     0   277 8  
4EE0  1AC00180           [091] jmp        8            ; to [100]
4EE4  5D820500           [092] getglobal  9   22       ; 538022378
4EE8  99420500           [093] loadk      10  21       ; 0
4EEC  62420001           [094] call       9   2   1  
4EF0  6442C003           [095] self       9   7   257  ; -317790213
4EF4  D3020002           [096] getupval   11  4      
4EF8  62828001           [097] call       9   3   2  
4EFC  12028004           [098] move       8   9      
4F00  1A40FD7F           [099] jmp        -10          ; to [90]
4F04  1E008000           [100] return     0   1      
                         * constants:
4F08  18                 sizek (24)
4F09  04                 const type 4
4F0A  0B                 string size (11)
4F0B  6747616D6552756C+  "gGameRul"
4F13  657300             "es\0"
                         const [0]: "gGameRules"
4F16  01                 const type 3
4F17  FBE70EED           const [1]: (-317790213)
4F1B  01                 const type 3
4F1C  01000000           const [2]: (1)
4F20  03                 const type 3
4F21  00004040           const [3]: (0)
4F25  04                 const type 4
4F26  12                 string size (18)
4F27  77617665536C6565+  "waveSlee"
4F2F  704F766572726964+  "pOverrid"
4F37  6500               "e\0"
                         const [4]: "waveSleepOverride"
4F39  03                 const type 3
4F3A  000080BF           const [5]: (0)
4F3E  03                 const type 3
4F3F  0000803F           const [6]: (0)
4F43  01                 const type 3
4F44  6B25B193           const [7]: (-1817107093)
4F48  04                 const type 4
4F49  14                 string size (20)
4F4A  5F536C6565704265+  "_SleepBe"
4F52  747765656E576176+  "tweenWav"
4F5A  65732800           "es(\0"
                         const [8]: "_SleepBetweenWaves("
4F5E  01                 const type 3
4F5F  BCD6AE9F           const [9]: (-1615931716)
4F63  04                 const type 4
4F64  02                 string size (2)
4F65  2900               ")\0"
                         const [10]: ")"
4F67  04                 const type 4
4F68  21                 string size (33)
4F69  2F4C6F7475732F4C+  "/Lotus/L"
4F71  616E67756167652F+  "anguage/"
4F79  47616D652F576176+  "Game/Wav"
4F81  65436C6561726564+  "eCleared"
4F89  00                 "\0"
                         const [11]: "/Lotus/Language/Game/WaveCleared"
4F8A  04                 const type 4
4F8B  22                 string size (34)
4F8C  2F4C6F7475732F4C+  "/Lotus/L"
4F94  616E67756167652F+  "anguage/"
4F9C  47616D652F576176+  "Game/Wav"
4FA4  65496E636F6D696E+  "eIncomin"
4FAC  6700               "g\0"
                         const [12]: "/Lotus/Language/Game/WaveIncoming"
4FAE  01                 const type 3
4FAF  5372830E           const [13]: (243495507)
4FB3  01                 const type 3
4FB4  698AE4BA           const [14]: (-1159427479)
4FB8  01                 const type 3
4FB9  65770E40           const [15]: (1074689893)
4FBD  04                 const type 4
4FBE  0F                 string size (15)
4FBF  77617665436C6561+  "waveClea"
4FC7  72536F756E6400     "rSound\0"
                         const [16]: "waveClearSound"
4FCE  04                 const type 4
4FCF  08                 string size (8)
4FD0  67526567696F6E00   "gRegion\0"
                         const [17]: "gRegion"
4FD8  01                 const type 3
4FD9  94239925           const [18]: (630793108)
4FDD  01                 const type 3
4FDE  0125A76D           const [19]: (1839670529)
4FE2  01                 const type 3
4FE3  DCCB15D0           const [20]: (-803877924)
4FE7  03                 const type 3
4FE8  00000000           const [21]: (0)
4FEC  01                 const type 3
4FED  EA911120           const [22]: (538022378)
4FF1  01                 const type 3
4FF2  FFF9DE4C           const [23]: (1289681407)
                         * functions:
4FF6  00                 sizep (0)
                         * lines:
4FF7  64                 sizelineinfo (100)
                         [pc] (line)
4FF8  9B                 [001] (-101)
4FF9  03                 [002] (-100)
4FFA  00                 [003] (-100)
4FFB  00                 [004] (-100)
4FFC  9C                 [005] (-98)
4FFD  03                 [006] (-97)
4FFE  00                 [007] (-97)
4FFF  00                 [008] (-97)
5000  9C                 [009] (-97)
5001  03                 [010] (-97)
5002  00                 [011] (-97)
5003  00                 [012] (-96)
5004  9C                 [013] (-96)
5005  03                 [014] (-95)
5006  00                 [015] (-95)
5007  00                 [016] (-95)
5008  9E                 [017] (-95)
5009  03                 [018] (-95)
500A  00                 [019] (-94)
500B  00                 [020] (-91)
500C  9F                 [021] (-91)
500D  03                 [022] (-91)
500E  00                 [023] (-91)
500F  00                 [024] (-91)
5010  9F                 [025] (-91)
5011  03                 [026] (-91)
5012  00                 [027] (-91)
5013  00                 [028] (-89)
5014  9F                 [029] (-88)
5015  03                 [030] (-88)
5016  00                 [031] (-86)
5017  00                 [032] (-80)
5018  9F                 [033] (-80)
5019  03                 [034] (-80)
501A  00                 [035] (-80)
501B  00                 [036] (-80)
501C  9F                 [037] (-80)
501D  03                 [038] (-80)
501E  00                 [039] (-80)
501F  00                 [040] (-80)
5020  9F                 [041] (-78)
5021  03                 [042] (-78)
5022  00                 [043] (-77)
5023  00                 [044] (-77)
5024  A0                 [045] (-77)
5025  03                 [046] (-77)
5026  00                 [047] (-77)
5027  00                 [048] (-77)
5028  A0                 [049] (-77)
5029  03                 [050] (-77)
502A  00                 [051] (-77)
502B  00                 [052] (-77)
502C  A1                 [053] (-76)
502D  03                 [054] (-76)
502E  00                 [055] (-76)
502F  00                 [056] (-76)
5030  A1                 [057] (-76)
5031  03                 [058] (-76)
5032  00                 [059] (-76)
5033  00                 [060] (-73)
5034  A1                 [061] (-72)
5035  03                 [062] (-72)
5036  00                 [063] (-72)
5037  00                 [064] (-72)
5038  A1                 [065] (-71)
5039  03                 [066] (-71)
503A  00                 [067] (-70)
503B  00                 [068] (-70)
503C  A1                 [069] (-70)
503D  03                 [070] (-69)
503E  00                 [071] (-69)
503F  00                 [072] (-69)
5040  A2                 [073] (-69)
5041  03                 [074] (-68)
5042  00                 [075] (-68)
5043  00                 [076] (-67)
5044  A5                 [077] (-64)
5045  03                 [078] (-64)
5046  00                 [079] (-64)
5047  00                 [080] (-64)
5048  A5                 [081] (-64)
5049  03                 [082] (-61)
504A  00                 [083] (-61)
504B  00                 [084] (-61)
504C  A5                 [085] (-61)
504D  03                 [086] (-58)
504E  00                 [087] (-57)
504F  00                 [088] (-57)
5050  A5                 [089] (-57)
5051  03                 [090] (-56)
5052  00                 [091] (-56)
5053  00                 [092] (-55)
5054  A5                 [093] (-55)
5055  03                 [094] (-55)
5056  00                 [095] (-54)
5057  00                 [096] (-54)
5058  A5                 [097] (-54)
5059  03                 [098] (-54)
505A  00                 [099] (-54)
505B  00                 [100] (-52)
                         * locals:
5188  00                 sizelocvars (0)
                         * upvalues:
5189  00                 sizeupvalues (0)
                         ** end of function **

                         
518A                     ** function [22] definition (level 2)
                         ** start of function **
518A  00                 string size (0)
                         source name: (none)
518C  07                 line defined (974)
518D  DB                 last line defined (987)
518E  07                 nups (2)
518F  02                 numparams (1)
5190  01                 is_vararg (0)
5191  00                 maxstacksize (8)
                         * code:
5193  25                 sizecode (37)
5194  64004000           [01] self       1   0   256  ; 1511086594
5198  62800001           [02] call       1   2   2  
519C  58000000           [03] test       1       0    ; to [5] if true
51A0  1A000080           [04] jmp        1            ; to [6]
51A4  1E008000           [05] return     0   1      
51A8  64404000           [06] self       1   0   257  ; -1544157541
51AC  62800001           [07] call       1   2   2  
51B0  A480C000           [08] self       2   1   258  ; 17344149
51B4  13010000           [09] getupval   4   0      
51B8  A2408001           [10] call       2   3   1  
51BC  9DC00000           [11] getglobal  2   3        ; gRegion
51C0  A4004101           [12] self       2   2   260  ; -1520831144
51C4  A2800001           [13] call       2   2   2  
51C8  98000000           [14] test       2       0    ; to [16] if true
51CC  1A000580           [15] jmp        21           ; to [37]
51D0  A440C100           [16] self       2   1   261  ; -1844106636
51D4  13018000           [17] getupval   4   1      
51D8  5D810100           [18] getglobal  5   6        ; Engine
51DC  4EC1C102           [19] gettable   5   5   263  ; "DT_ANY"
51E0  9D810100           [20] getglobal  6   6        ; Engine
51E4  8E014203           [21] gettable   6   6   264  ; "ANY_PART"
51E8  D9410200           [22] loadk      7   9        ; 0
51EC  A2400003           [23] call       2   6   1  
51F0  A480C200           [24] self       2   1   266  ; 1689815674
51F4  13018000           [25] getupval   4   1      
51F8  5D810100           [26] getglobal  5   6        ; Engine
51FC  4EC1C102           [27] gettable   5   5   263  ; "DT_ANY"
5200  9D810100           [28] getglobal  6   6        ; Engine
5204  8E014203           [29] gettable   6   6   264  ; "ANY_PART"
5208  D9410200           [30] loadk      7   9        ; 0
520C  A2400003           [31] call       2   6   1  
5210  A4C0C200           [32] self       2   1   267  ; 1685228074
5214  1D810100           [33] getglobal  4   6        ; Engine
5218  0E014302           [34] gettable   4   4   268  ; "STUN"
521C  53010000           [35] getupval   5   0      
5220  A2400002           [36] call       2   4   1  
5224  1E008000           [37] return     0   1      
                         * constants:
5228  0D                 sizek (13)
5229  01                 const type 3
522A  025A115A           const [0]: (1511086594)
522E  01                 const type 3
522F  9B06F6A3           const [1]: (-1544157541)
5233  01                 const type 3
5234  95A60801           const [2]: (17344149)
5238  04                 const type 4
5239  08                 string size (8)
523A  67526567696F6E00   "gRegion\0"
                         const [3]: "gRegion"
5242  01                 const type 3
5243  58F559A5           const [4]: (-1520831144)
5247  01                 const type 3
5248  742A1592           const [5]: (-1844106636)
524C  04                 const type 4
524D  07                 string size (7)
524E  456E67696E6500     "Engine\0"
                         const [6]: "Engine"
5255  04                 const type 4
5256  07                 string size (7)
5257  44545F414E5900     "DT_ANY\0"
                         const [7]: "DT_ANY"
525E  04                 const type 4
525F  09                 string size (9)
5260  414E595F50415254+  "ANY_PART"
5268  00                 "\0"
                         const [8]: "ANY_PART"
5269  03                 const type 3
526A  00000000           const [9]: (0)
526E  01                 const type 3
526F  7A8AB864           const [10]: (1689815674)
5273  01                 const type 3
5274  2A8A7264           const [11]: (1685228074)
5278  04                 const type 4
5279  05                 string size (5)
527A  5354554E00         "STUN\0"
                         const [12]: "STUN"
                         * functions:
527F  00                 sizep (0)
                         * lines:
5280  25                 sizelineinfo (37)
                         [pc] (line)
5281  CF                 [01] (-49)
5282  03                 [02] (-49)
5283  00                 [03] (-49)
5284  00                 [04] (-49)
5285  CF                 [05] (-48)
5286  03                 [06] (-45)
5287  00                 [07] (-45)
5288  00                 [08] (-44)
5289  CF                 [09] (-44)
528A  03                 [10] (-44)
528B  00                 [11] (-42)
528C  00                 [12] (-42)
528D  CF                 [13] (-42)
528E  03                 [14] (-42)
528F  00                 [15] (-42)
5290  00                 [16] (-41)
5291  D0                 [17] (-41)
5292  03                 [18] (-41)
5293  00                 [19] (-41)
5294  00                 [20] (-41)
5295  D3                 [21] (-41)
5296  03                 [22] (-41)
5297  00                 [23] (-41)
5298  00                 [24] (-40)
5299  D3                 [25] (-40)
529A  03                 [26] (-40)
529B  00                 [27] (-40)
529C  00                 [28] (-40)
529D  D4                 [29] (-40)
529E  03                 [30] (-40)
529F  00                 [31] (-40)
52A0  00                 [32] (-39)
52A1  D4                 [33] (-39)
52A2  03                 [34] (-39)
52A3  00                 [35] (-39)
52A4  00                 [36] (-39)
52A5  D4                 [37] (-37)
                         * locals:
5315  00                 sizelocvars (0)
                         * upvalues:
5316  00                 sizeupvalues (0)
                         ** end of function **

                         
5317                     ** function [23] definition (level 2)
                         ** start of function **
5317  00                 string size (0)
                         source name: (none)
5319  07                 line defined (989)
531A  EA                 last line defined (1002)
531B  07                 nups (2)
531C  02                 numparams (1)
531D  01                 is_vararg (0)
531E  00                 maxstacksize (6)
                         * code:
5320  1B                 sizecode (27)
5321  64004000           [01] self       1   0   256  ; 1511086594
5325  62800001           [02] call       1   2   2  
5329  58000000           [03] test       1       0    ; to [5] if true
532D  1A000080           [04] jmp        1            ; to [6]
5331  1E008000           [05] return     0   1      
5335  64404000           [06] self       1   0   257  ; -1544157541
5339  62800001           [07] call       1   2   2  
533D  A480C000           [08] self       2   1   258  ; 1148524537
5341  13010000           [09] getupval   4   0      
5345  A2408001           [10] call       2   3   1  
5349  9DC00000           [11] getglobal  2   3        ; gRegion
534D  A4004101           [12] self       2   2   260  ; -1520831144
5351  A2800001           [13] call       2   2   2  
5355  98000000           [14] test       2       0    ; to [16] if true
5359  1A800280           [15] jmp        11           ; to [27]
535D  A440C100           [16] self       2   1   261  ; 391699238
5361  13018000           [17] getupval   4   1      
5365  A2408001           [18] call       2   3   1  
5369  A480C100           [19] self       2   1   262  ; -1969504542
536D  13018000           [20] getupval   4   1      
5371  A2408001           [21] call       2   3   1  
5375  A4C0C100           [22] self       2   1   263  ; -2139586155
5379  1D010200           [23] getglobal  4   8        ; Engine
537D  0E414202           [24] gettable   4   4   265  ; "STUN"
5381  53010000           [25] getupval   5   0      
5385  A2400002           [26] call       2   4   1  
5389  1E008000           [27] return     0   1      
                         * constants:
538D  0A                 sizek (10)
538E  01                 const type 3
538F  025A115A           const [0]: (1511086594)
5393  01                 const type 3
5394  9B06F6A3           const [1]: (-1544157541)
5398  01                 const type 3
5399  F9177544           const [2]: (1148524537)
539D  04                 const type 4
539E  08                 string size (8)
539F  67526567696F6E00   "gRegion\0"
                         const [3]: "gRegion"
53A7  01                 const type 3
53A8  58F559A5           const [4]: (-1520831144)
53AC  01                 const type 3
53AD  26DB5817           const [5]: (391699238)
53B1  01                 const type 3
53B2  E2BE9B8A           const [6]: (-1969504542)
53B6  01                 const type 3
53B7  95817880           const [7]: (-2139586155)
53BB  04                 const type 4
53BC  07                 string size (7)
53BD  456E67696E6500     "Engine\0"
                         const [8]: "Engine"
53C4  04                 const type 4
53C5  05                 string size (5)
53C6  5354554E00         "STUN\0"
                         const [9]: "STUN"
                         * functions:
53CB  00                 sizep (0)
                         * lines:
53CC  1B                 sizelineinfo (27)
                         [pc] (line)
53CD  DE                 [01] (-34)
53CE  03                 [02] (-34)
53CF  00                 [03] (-34)
53D0  00                 [04] (-34)
53D1  DE                 [05] (-33)
53D2  03                 [06] (-30)
53D3  00                 [07] (-30)
53D4  00                 [08] (-29)
53D5  DE                 [09] (-29)
53D6  03                 [10] (-29)
53D7  00                 [11] (-27)
53D8  00                 [12] (-27)
53D9  DE                 [13] (-27)
53DA  03                 [14] (-27)
53DB  00                 [15] (-27)
53DC  00                 [16] (-26)
53DD  DF                 [17] (-26)
53DE  03                 [18] (-26)
53DF  00                 [19] (-25)
53E0  00                 [20] (-25)
53E1  E2                 [21] (-25)
53E2  03                 [22] (-24)
53E3  00                 [23] (-24)
53E4  00                 [24] (-24)
53E5  E2                 [25] (-24)
53E6  03                 [26] (-24)
53E7  00                 [27] (-22)
                         * locals:
5439  00                 sizelocvars (0)
                         * upvalues:
543A  00                 sizeupvalues (0)
                         ** end of function **

                         
543B                     ** function [24] definition (level 2)
                         ** start of function **
543B  00                 string size (0)
                         source name: (none)
543D  07                 line defined (1004)
543E  9F                 last line defined (1183)
543F  09                 nups (7)
5440  07                 numparams (2)
5441  02                 is_vararg (0)
5442  00                 maxstacksize (44)
                         * code:
5445  03                 sizecode (398)
5446  93000000           [001] getupval   2   0      
544A  98000000           [002] test       2       0    ; to [4] if true
544E  1AC00080           [003] jmp        4            ; to [8]
5452  A4004000           [004] self       2   0   256  ; 837259282
5456  1D410000           [005] getglobal  4   1        ; stayTrans
545A  A2408001           [006] call       2   3   1  
545E  1E008000           [007] return     0   1      
5462  9D800000           [008] getglobal  2   2        ; _T
5466  8EC04001           [009] gettable   2   2   259  ; "gStalkerActive"
546A  98000000           [010] test       2       0    ; to [12] if true
546E  1A400280           [011] jmp        10           ; to [22]
5472  9D000100           [012] getglobal  2   4        ; 1074689893
5476  DD800000           [013] getglobal  3   2        ; _T
547A  CE40C101           [014] gettable   3   3   261  ; "StalkerPlayer"
547E  A2800001           [015] call       2   2   2  
5482  98000000           [016] test       2       0    ; to [18] if true
5486  1AC00080           [017] jmp        4            ; to [22]
548A  9D800100           [018] getglobal  2   6        ; 538022378
548E  D9C00100           [019] loadk      3   7        ; 0
5492  A2400001           [020] call       2   2   1  
5496  1A40FC7F           [021] jmp        -14          ; to [8]
549A  9D000100           [022] getglobal  2   4        ; 1074689893
549E  DD800000           [023] getglobal  3   2        ; _T
54A2  CE40C101           [024] gettable   3   3   261  ; "StalkerPlayer"
54A6  A2800001           [025] call       2   2   2  
54AA  98400000           [026] test       2       1    ; to [28] if false
54AE  1AC00280           [027] jmp        12           ; to [40]
54B2  9D000100           [028] getglobal  2   4        ; 1074689893
54B6  DD800000           [029] getglobal  3   2        ; _T
54BA  CE40C101           [030] gettable   3   3   261  ; "StalkerPlayer"
54BE  A2800001           [031] call       2   2   2  
54C2  98400000           [032] test       2       1    ; to [34] if false
54C6  1AC00080           [033] jmp        4            ; to [38]
54CA  9D800100           [034] getglobal  2   6        ; 538022378
54CE  D9C00100           [035] loadk      3   7        ; 0
54D2  A2400001           [036] call       2   2   1  
54D6  1A40FD7F           [037] jmp        -10          ; to [28]
54DA  9D800000           [038] getglobal  2   2        ; _T
54DE  8C00C281           [039] settable   2   259 264  ; "gStalkerActive" 0
54E2  9D400200           [040] getglobal  2   9        ; gRegion
54E6  A4804201           [041] self       2   2   266  ; 1224466847
54EA  A2800001           [042] call       2   2   2  
54EE  D9C00100           [043] loadk      3   7        ; 0
54F2  0A010001           [044] len        4   2      
54F6  59C10100           [045] loadk      5   7        ; 0
54FA  D0000880           [046] forprep    3   33       ; to [80]
54FE  CE810101           [047] gettable   7   2   6  
5502  24C2C203           [048] self       8   7   267  ; -1813551355
5506  22820001           [049] call       8   2   2  
550A  5D020100           [050] getglobal  9   4        ; 1074689893
550E  92020004           [051] move       10  8      
5512  62820001           [052] call       9   2   2  
5516  58420000           [053] test       9       1    ; to [55] if false
551A  1A800380           [054] jmp        15           ; to [70]
551E  53028000           [055] getupval   9   1      
5522  92020004           [056] move       10  8      
5526  62420001           [057] call       9   2   1  
552A  64024304           [058] self       9   8   268  ; -1917464545
552E  62820001           [059] call       9   2   2  
5532  6442C304           [060] self       9   9   269  ; 819640984
5536  62820001           [061] call       9   2   2  
553A  9D020100           [062] getglobal  10  4        ; 1074689893
553E  D2028004           [063] move       11  9      
5542  A2820001           [064] call       10  2   2  
5546  98420000           [065] test       10      1    ; to [67] if false
554A  1A800080           [066] jmp        3            ; to [70]
554E  93028000           [067] getupval   10  1      
5552  D2028004           [068] move       11  9      
5556  A2420001           [069] call       10  2   1  
555A  A482C303           [070] self       10  7   270  ; -1888201767
555E  A2820001           [071] call       10  2   2  
5562  DD020100           [072] getglobal  11  4        ; 1074689893
5566  12030005           [073] move       12  10     
556A  E2820001           [074] call       11  2   2  
556E  D8420000           [075] test       11      1    ; to [77] if false
5572  1A800080           [076] jmp        3            ; to [80]
5576  D3028000           [077] getupval   11  1      
557A  12030005           [078] move       12  10     
557E  E2420001           [079] call       11  2   1  
5582  D440F77F           [080] forloop    3   -34      ; to [47] if loop
5586  E4C24300           [081] self       11  0   271  ; 266971028
558A  E2820001           [082] call       11  2   2  
558E  D8020000           [083] test       11      0    ; to [85] if true
5592  1A400180           [084] jmp        6            ; to [91]
5596  E4024400           [085] self       11  0   272  ; -317790213
559A  53030001           [086] getupval   13  2      
559E  E2828001           [087] call       11  3   2  
fail op	35
55A2  2340C405           [088] close      0  
55A6  1A000080           [089] jmp        1            ; to [91]
55AA  D7420000           [090] loadbool   11  0   1    ; false, to [92]
55AE  D7028000           [091] loadbool   11  1   0    ; true
55B2  24834400           [092] self       12  0   274  ; -803877924
55B6  93030001           [093] getupval   14  2      
55BA  D9C30100           [094] loadk      15  7        ; 0
55BE  22430002           [095] call       12  4   1  
55C2  D8420000           [096] test       11      1    ; to [98] if false
55C6  1A800080           [097] jmp        3            ; to [101]
55CA  1D830100           [098] getglobal  12  6        ; 538022378
55CE  59C30400           [099] loadk      13  19       ; 0
55D2  22430001           [100] call       12  2   1  
55D6  17030000           [101] loadbool   12  0   0    ; false
55DA  5D830000           [102] getglobal  13  2        ; _T
55DE  4EC3C006           [103] gettable   13  13  259  ; "gStalkerActive"
55E2  58430000           [104] test       13      1    ; to [106] if false
55E6  1A400480           [105] jmp        18           ; to [124]
55EA  5D830000           [106] getglobal  13  2        ; _T
55EE  4E03C506           [107] gettable   13  13  276  ; "gVorBossActive"
55F2  58430000           [108] test       13      1    ; to [110] if false
55F6  1A400380           [109] jmp        14           ; to [124]
55FA  5D830000           [110] getglobal  13  2        ; _T
55FE  4E43C506           [111] gettable   13  13  277  ; "gVoidTearActive"
5602  58430000           [112] test       13      1    ; to [114] if false
5606  1A400280           [113] jmp        10           ; to [124]
560A  5D030100           [114] getglobal  13  4        ; 1074689893
560E  9D830000           [115] getglobal  14  2        ; _T
5612  8E834507           [116] gettable   14  14  278  ; "gActiveDropshipCount"
5616  62830001           [117] call       13  2   2  
561A  58430000           [118] test       13      1    ; to [120] if false
561E  1A800A80           [119] jmp        43           ; to [163]
5622  5D830000           [120] getglobal  13  2        ; _T
5626  4E83C506           [121] gettable   13  13  278  ; "gActiveDropshipCount"
fail op	21
562A  15408388           [122] concat     0   273 13 
562E  1A800980           [123] jmp        39           ; to [163]
5632  59C30100           [124] loadk      13  7        ; 0
5636  8A030001           [125] len        14  2      
563A  D9C30100           [126] loadk      15  7        ; 0
563E  50030880           [127] forprep    13  33       ; to [161]
5642  4E040401           [128] gettable   17  2   16 
5646  A4C4C208           [129] self       18  17  267  ; -1813551355
564A  A2840001           [130] call       18  2   2  
564E  DD040100           [131] getglobal  19  4        ; 1074689893
5652  12050009           [132] move       20  18     
5656  E2840001           [133] call       19  2   2  
565A  D8440000           [134] test       19      1    ; to [136] if false
565E  1A800380           [135] jmp        15           ; to [151]
5662  D3048001           [136] getupval   19  3      
5666  12050009           [137] move       20  18     
566A  E2440001           [138] call       19  2   1  
566E  E4044309           [139] self       19  18  268  ; -1917464545
5672  E2840001           [140] call       19  2   2  
5676  E444C309           [141] self       19  19  269  ; 819640984
567A  E2840001           [142] call       19  2   2  
567E  1D050100           [143] getglobal  20  4        ; 1074689893
5682  52058009           [144] move       21  19     
5686  22850001           [145] call       20  2   2  
568A  18450000           [146] test       20      1    ; to [148] if false
568E  1A800080           [147] jmp        3            ; to [151]
5692  13058001           [148] getupval   20  3      
5696  52058009           [149] move       21  19     
569A  22450001           [150] call       20  2   1  
569E  2485C308           [151] self       20  17  270  ; -1888201767
56A2  22850001           [152] call       20  2   2  
56A6  5D050100           [153] getglobal  21  4        ; 1074689893
56AA  9205000A           [154] move       22  20     
56AE  62850001           [155] call       21  2   2  
56B2  58450000           [156] test       21      1    ; to [158] if false
56B6  1A800080           [157] jmp        3            ; to [161]
56BA  53058001           [158] getupval   21  3      
56BE  9205000A           [159] move       22  20     
56C2  62450001           [160] call       21  2   1  
56C6  5443F77F           [161] forloop    13  -34      ; to [128] if loop
56CA  17038000           [162] loadbool   12  1   0    ; true
56CE  5D850000           [163] getglobal  21  2        ; _T
56D2  4EC5C00A           [164] gettable   21  21  259  ; "gStalkerActive"
56D6  58450000           [165] test       21      1    ; to [167] if false
56DA  1A400480           [166] jmp        18           ; to [185]
56DE  5D850000           [167] getglobal  21  2        ; _T
56E2  4E05C50A           [168] gettable   21  21  276  ; "gVorBossActive"
56E6  58450000           [169] test       21      1    ; to [171] if false
56EA  1A400380           [170] jmp        14           ; to [185]
56EE  5D850000           [171] getglobal  21  2        ; _T
56F2  4E45C50A           [172] gettable   21  21  277  ; "gVoidTearActive"
56F6  58450000           [173] test       21      1    ; to [175] if false
56FA  1A400280           [174] jmp        10           ; to [185]
56FE  5D050100           [175] getglobal  21  4        ; 1074689893
5702  9D850000           [176] getglobal  22  2        ; _T
5706  8E85450B           [177] gettable   22  22  278  ; "gActiveDropshipCount"
570A  62850001           [178] call       21  2   2  
570E  58450000           [179] test       21      1    ; to [181] if false
5712  1AC00180           [180] jmp        8            ; to [189]
5716  5D850000           [181] getglobal  21  2        ; _T
571A  4E85C50A           [182] gettable   21  21  278  ; "gActiveDropshipCount"
fail op	21
571E  15408588           [183] concat     0   273 21 
5722  1AC00080           [184] jmp        4            ; to [189]
5726  5D850100           [185] getglobal  21  6        ; 538022378
572A  99C50100           [186] loadk      22  7        ; 0
572E  62450001           [187] call       21  2   1  
5732  1A40F97F           [188] jmp        -26          ; to [163]
5736  18030000           [189] test       12      0    ; to [191] if true
573A  1A400980           [190] jmp        38           ; to [229]
573E  59C50100           [191] loadk      21  7        ; 0
5742  8A050001           [192] len        22  2      
5746  D9C50100           [193] loadk      23  7        ; 0
574A  50050880           [194] forprep    21  33       ; to [228]
574E  4E060601           [195] gettable   25  2   24 
5752  A4C6C20C           [196] self       26  25  267  ; -1813551355
5756  A2860001           [197] call       26  2   2  
575A  DD060100           [198] getglobal  27  4        ; 1074689893
575E  1207000D           [199] move       28  26     
5762  E2860001           [200] call       27  2   2  
5766  D8460000           [201] test       27      1    ; to [203] if false
576A  1A800380           [202] jmp        15           ; to [218]
576E  D3068000           [203] getupval   27  1      
5772  1207000D           [204] move       28  26     
5776  E2460001           [205] call       27  2   1  
577A  E406430D           [206] self       27  26  268  ; -1917464545
577E  E2860001           [207] call       27  2   2  
5782  E446C30D           [208] self       27  27  269  ; 819640984
5786  E2860001           [209] call       27  2   2  
578A  1D070100           [210] getglobal  28  4        ; 1074689893
578E  5207800D           [211] move       29  27     
5792  22870001           [212] call       28  2   2  
5796  18470000           [213] test       28      1    ; to [215] if false
579A  1A800080           [214] jmp        3            ; to [218]
579E  13078000           [215] getupval   28  1      
57A2  5207800D           [216] move       29  27     
57A6  22470001           [217] call       28  2   1  
57AA  2487C30C           [218] self       28  25  270  ; -1888201767
57AE  22870001           [219] call       28  2   2  
57B2  5D070100           [220] getglobal  29  4        ; 1074689893
57B6  9207000E           [221] move       30  28     
57BA  62870001           [222] call       29  2   2  
57BE  58470000           [223] test       29      1    ; to [225] if false
57C2  1A800080           [224] jmp        3            ; to [228]
57C6  53078000           [225] getupval   29  1      
57CA  9207000E           [226] move       30  28     
57CE  62470001           [227] call       29  2   1  
57D2  5445F77F           [228] forloop    21  -34      ; to [195] if loop
57D6  53070002           [229] getupval   29  4      
57DA  4EC7C50E           [230] gettable   29  29  279  ; -78033590
57DE  9D870000           [231] getglobal  30  2        ; _T
57E2  8E07460F           [232] gettable   30  30  280  ; "MissionTransmissionSet"
57E6  DD470600           [233] getglobal  31  25       ; -332969190
57EA  19880600           [234] loadk      32  26       ; "PromptContinue"
57EE  E2870001           [235] call       31  2   2  
57F2  19480400           [236] loadk      32  17       ; 0
57F6  62470002           [237] call       29  4   1  
57FA  57070000           [238] loadbool   29  0   0    ; false
57FE  9DC70600           [239] getglobal  30  27       ; string
5802  8E07470F           [240] gettable   30  30  284  ; -565905820
5806  DD470700           [241] getglobal  31  29       ; -1615931716
580A  1D880700           [242] getglobal  32  30       ; gGameRules
580E  24C84710           [243] self       32  32  287  ; -1201441975
5812  22880001           [244] call       32  2   2  
5816  0E084810           [245] gettable   32  32  288  ; "activeMissionTag"
581A  E2870001           [246] call       31  2   2  
581E  19480800           [247] loadk      32  33       ; "Void"
5822  A2878001           [248] call       30  3   2  
5826  98070000           [249] test       30      0    ; to [251] if true
582A  1AC00D80           [250] jmp        56           ; to [307]
582E  D9870800           [251] loadk      31  34       ; 0
5832  13088002           [252] getupval   32  5      
5836  0EC84810           [253] gettable   32  32  291  ; 1776858983
583A  22888000           [254] call       32  1   2  
583E  18480000           [255] test       32      1    ; to [257] if false
5842  1A400280           [256] jmp        10           ; to [267]
5846  1D080900           [257] getglobal  32  36       ; 1289681407
584A  22888000           [258] call       32  1   2  
584E  CD07880F           [259] sub        31  31  32 
fail op	33
5852  2140C40F           [260] tforloop   0       273  ; to [262] if exit
5856  1A000080           [261] jmp        1            ; to [263]
585A  1AC00080           [262] jmp        4            ; to [267]
585E  1D880100           [263] getglobal  32  6        ; 538022378
5862  59480400           [264] loadk      33  17       ; 0
5866  22480001           [265] call       32  2   1  
586A  1A00FC7F           [266] jmp        -15          ; to [252]
586E  D9470900           [267] loadk      31  37       ; 0
5872  13088002           [268] getupval   32  5      
5876  0EC84810           [269] gettable   32  32  291  ; 1776858983
587A  22888000           [270] call       32  1   2  
587E  18080000           [271] test       32      0    ; to [273] if true
5882  1A400280           [272] jmp        10           ; to [283]
5886  1D080900           [273] getglobal  32  36       ; 1289681407
588A  22888000           [274] call       32  1   2  
588E  CD07880F           [275] sub        31  31  32 
fail op	33
5892  2140C40F           [276] tforloop   0       273  ; to [278] if exit
5896  1A000080           [277] jmp        1            ; to [279]
589A  1AC00080           [278] jmp        4            ; to [283]
589E  1D880100           [279] getglobal  32  6        ; 538022378
58A2  59480400           [280] loadk      33  17       ; 0
58A6  22480001           [281] call       32  2   1  
58AA  1A00FC7F           [282] jmp        -15          ; to [268]
58AE  1D880700           [283] getglobal  32  30       ; gGameRules
58B2  24884910           [284] self       32  32  294  ; 1941208407
58B6  9DC80900           [285] getglobal  34  39       ; minWavesToComplete
58BA  9C888800           [286] div        34  1   34 
58BE  D7080000           [287] loadbool   35  0   0    ; false
58C2  22880002           [288] call       32  4   2  
58C6  5D080100           [289] getglobal  33  4        ; 1074689893
58CA  92080010           [290] move       34  32     
58CE  62880001           [291] call       33  2   2  
58D2  58480000           [292] test       33      1    ; to [294] if false
58D6  1A000380           [293] jmp        13           ; to [307]
58DA  57078000           [294] loadbool   29  1   0    ; true
58DE  5D080100           [295] getglobal  33  4        ; 1074689893
58E2  92080010           [296] move       34  32     
58E6  62880001           [297] call       33  2   2  
58EA  58480000           [298] test       33      1    ; to [300] if false
58EE  1AC00080           [299] jmp        4            ; to [304]
58F2  5D880100           [300] getglobal  33  6        ; 538022378
58F6  99480400           [301] loadk      34  17       ; 0
58FA  62480001           [302] call       33  2   1  
58FE  1A80FD7F           [303] jmp        -9           ; to [295]
5902  5D880700           [304] getglobal  33  30       ; gGameRules
5906  6408CA10           [305] self       33  33  296  ; -1533880292
590A  62480001           [306] call       33  2   1  
590E  64884400           [307] self       33  0   274  ; -803877924
5912  D3080001           [308] getupval   35  2      
5916  19490400           [309] loadk      36  17       ; 0
591A  62480002           [310] call       33  4   1  
591E  64084000           [311] self       33  0   256  ; 837259282
5922  DD480000           [312] getglobal  35  1        ; stayTrans
5926  62488001           [313] call       33  3   1  
592A  64C84300           [314] self       33  0   271  ; 266971028
592E  62880001           [315] call       33  2   2  
5932  58480000           [316] test       33      1    ; to [318] if false
5936  1AC00080           [317] jmp        4            ; to [322]
593A  5D880100           [318] getglobal  33  6        ; 538022378
593E  99480400           [319] loadk      34  17       ; 0
5942  62480001           [320] call       33  2   1  
5946  1AC0FD7F           [321] jmp        -8           ; to [314]
594A  58070000           [322] test       29      0    ; to [324] if true
594E  1AC00780           [323] jmp        32           ; to [356]
5952  98070000           [324] test       30      0    ; to [326] if true
5956  1A400780           [325] jmp        30           ; to [356]
595A  64484A00           [326] self       33  0   297  ; -2116910755
595E  62880001           [327] call       33  2   2  
5962  58080000           [328] test       33      0    ; to [330] if true
5966  1A400680           [329] jmp        26           ; to [356]
596A  64884400           [330] self       33  0   274  ; -803877924
596E  D3080003           [331] getupval   35  6      
5972  19C90100           [332] loadk      36  7        ; 0
5976  62480002           [333] call       33  4   1  
597A  64884A00           [334] self       33  0   298  ; 1409011458
597E  D7080000           [335] loadbool   35  0   0    ; false
5982  62888001           [336] call       33  3   2  
5986  9D080100           [337] getglobal  34  4        ; 1074689893
598A  D2088010           [338] move       35  33     
598E  A2880001           [339] call       34  2   2  
5992  98480000           [340] test       34      1    ; to [342] if false
5996  1A400380           [341] jmp        14           ; to [356]
599A  9D080100           [342] getglobal  34  4        ; 1074689893
599E  D2088010           [343] move       35  33     
59A2  A2880001           [344] call       34  2   2  
59A6  98480000           [345] test       34      1    ; to [347] if false
59AA  1AC00080           [346] jmp        4            ; to [351]
59AE  9D880100           [347] getglobal  34  6        ; 538022378
59B2  D9480400           [348] loadk      35  17       ; 0
59B6  A2480001           [349] call       34  2   1  
59BA  1A80FD7F           [350] jmp        -9           ; to [342]
59BE  A4884400           [351] self       34  0   274  ; -803877924
59C2  13090003           [352] getupval   36  6      
59C6  59490400           [353] loadk      37  17       ; 0
59CA  A2480002           [354] call       34  4   1  
59CE  1AC0FF7F           [355] jmp        0            ; to [356]
59D2  9D480200           [356] getglobal  34  9        ; gRegion
59D6  A4884211           [357] self       34  34  266  ; 1224466847
59DA  A2880001           [358] call       34  2   2  
59DE  92000011           [359] move       2   34     
59E2  99C80100           [360] loadk      34  7        ; 0
59E6  CA080001           [361] len        35  2      
59EA  19C90100           [362] loadk      36  7        ; 0
59EE  90080880           [363] forprep    34  33       ; to [397]
59F2  8E490901           [364] gettable   38  2   37 
59F6  E4C94213           [365] self       39  38  267  ; -1813551355
59FA  E2890001           [366] call       39  2   2  
59FE  1D0A0100           [367] getglobal  40  4        ; 1074689893
5A02  520A8013           [368] move       41  39     
5A06  228A0001           [369] call       40  2   2  
5A0A  184A0000           [370] test       40      1    ; to [372] if false
5A0E  1A800380           [371] jmp        15           ; to [387]
5A12  130A8001           [372] getupval   40  3      
5A16  520A8013           [373] move       41  39     
5A1A  224A0001           [374] call       40  2   1  
5A1E  240AC313           [375] self       40  39  268  ; -1917464545
5A22  228A0001           [376] call       40  2   2  
5A26  244A4314           [377] self       40  40  269  ; 819640984
5A2A  228A0001           [378] call       40  2   2  
5A2E  5D0A0100           [379] getglobal  41  4        ; 1074689893
5A32  920A0014           [380] move       42  40     
5A36  628A0001           [381] call       41  2   2  
5A3A  584A0000           [382] test       41      1    ; to [384] if false
5A3E  1A800080           [383] jmp        3            ; to [387]
5A42  530A8001           [384] getupval   41  3      
5A46  920A0014           [385] move       42  40     
5A4A  624A0001           [386] call       41  2   1  
5A4E  648A4313           [387] self       41  38  270  ; -1888201767
5A52  628A0001           [388] call       41  2   2  
5A56  9D0A0100           [389] getglobal  42  4        ; 1074689893
5A5A  D20A8014           [390] move       43  41     
5A5E  A28A0001           [391] call       42  2   2  
5A62  984A0000           [392] test       42      1    ; to [394] if false
5A66  1A800080           [393] jmp        3            ; to [397]
5A6A  930A8001           [394] getupval   42  3      
5A6E  D20A8014           [395] move       43  41     
5A72  A24A0001           [396] call       42  2   1  
5A76  9448F77F           [397] forloop    34  -34      ; to [364] if loop
5A7A  1E008000           [398] return     0   1      
                         * constants:
5A7E  2B                 sizek (43)
5A7F  01                 const type 3
5A80  1290E731           const [0]: (837259282)
5A84  04                 const type 4
5A85  0A                 string size (10)
5A86  737461795472616E+  "stayTran"
5A8E  7300               "s\0"
                         const [1]: "stayTrans"
5A90  04                 const type 4
5A91  03                 string size (3)
5A92  5F5400             "_T\0"
                         const [2]: "_T"
5A95  04                 const type 4
5A96  0F                 string size (15)
5A97  675374616C6B6572+  "gStalker"
5A9F  41637469766500     "Active\0"
                         const [3]: "gStalkerActive"
5AA6  01                 const type 3
5AA7  65770E40           const [4]: (1074689893)
5AAB  04                 const type 4
5AAC  0E                 string size (14)
5AAD  5374616C6B657250+  "StalkerP"
5AB5  6C6179657200       "layer\0"
                         const [5]: "StalkerPlayer"
5ABB  01                 const type 3
5ABC  EA911120           const [6]: (538022378)
5AC0  03                 const type 3
5AC1  0000803F           const [7]: (0)
5AC5  01                 const type 3
5AC6  00000000           const [8]: (0)
5ACA  04                 const type 4
5ACB  08                 string size (8)
5ACC  67526567696F6E00   "gRegion\0"
                         const [9]: "gRegion"
5AD4  01                 const type 3
5AD5  9FE1FB48           const [10]: (1224466847)
5AD9  01                 const type 3
5ADA  0567E793           const [11]: (-1813551355)
5ADE  01                 const type 3
5ADF  1FD0B58D           const [12]: (-1917464545)
5AE3  01                 const type 3
5AE4  98BADA30           const [13]: (819640984)
5AE8  01                 const type 3
5AE9  D953748F           const [14]: (-1888201767)
5AED  01                 const type 3
5AEE  94A7E90F           const [15]: (266971028)
5AF2  01                 const type 3
5AF3  FBE70EED           const [16]: (-317790213)
5AF7  03                 const type 3
5AF8  00000000           const [17]: (0)
5AFC  01                 const type 3
5AFD  DCCB15D0           const [18]: (-803877924)
5B01  03                 const type 3
5B02  0000A040           const [19]: (0)
5B06  04                 const type 4
5B07  0F                 string size (15)
5B08  67566F72426F7373+  "gVorBoss"
5B10  41637469766500     "Active\0"
                         const [20]: "gVorBossActive"
5B17  04                 const type 4
5B18  10                 string size (16)
5B19  67566F6964546561+  "gVoidTea"
5B21  7241637469766500   "rActive\0"
                         const [21]: "gVoidTearActive"
5B29  04                 const type 4
5B2A  15                 string size (21)
5B2B  6741637469766544+  "gActiveD"
5B33  726F707368697043+  "ropshipC"
5B3B  6F756E7400         "ount\0"
                         const [22]: "gActiveDropshipCount"
5B40  01                 const type 3
5B41  4A4D59FB           const [23]: (-78033590)
5B45  04                 const type 4
5B46  17                 string size (23)
5B47  4D697373696F6E54+  "MissionT"
5B4F  72616E736D697373+  "ransmiss"
5B57  696F6E53657400     "ionSet\0"
                         const [24]: "MissionTransmissionSet"
5B5E  01                 const type 3
5B5F  1A4B27EC           const [25]: (-332969190)
5B63  04                 const type 4
5B64  0F                 string size (15)
5B65  50726F6D7074436F+  "PromptCo"
5B6D  6E74696E756500     "ntinue\0"
                         const [26]: "PromptContinue"
5B74  04                 const type 4
5B75  07                 string size (7)
5B76  737472696E6700     "string\0"
                         const [27]: "string"
5B7D  01                 const type 3
5B7E  64F644DE           const [28]: (-565905820)
5B82  01                 const type 3
5B83  BCD6AE9F           const [29]: (-1615931716)
5B87  04                 const type 4
5B88  0B                 string size (11)
5B89  6747616D6552756C+  "gGameRul"
5B91  657300             "es\0"
                         const [30]: "gGameRules"
5B94  01                 const type 3
5B95  497363B8           const [31]: (-1201441975)
5B99  04                 const type 4
5B9A  11                 string size (17)
5B9B  6163746976654D69+  "activeMi"
5BA3  7373696F6E546167+  "ssionTag"
5BAB  00                 "\0"
                         const [32]: "activeMissionTag"
5BAC  04                 const type 4
5BAD  05                 string size (5)
5BAE  566F696400         "Void\0"
                         const [33]: "Void"
5BB3  03                 const type 3
5BB4  00002041           const [34]: (0)
5BB8  01                 const type 3
5BB9  67B7E869           const [35]: (1776858983)
5BBD  01                 const type 3
5BBE  FFF9DE4C           const [36]: (1289681407)
5BC2  03                 const type 3
5BC3  0000A041           const [37]: (0)
5BC7  01                 const type 3
5BC8  577DB473           const [38]: (1941208407)
5BCC  04                 const type 4
5BCD  13                 string size (19)
5BCE  6D696E5761766573+  "minWaves"
5BD6  546F436F6D706C65+  "ToComple"
5BDE  746500             "te\0"
                         const [39]: "minWavesToComplete"
5BE1  01                 const type 3
5BE2  1CD892A4           const [40]: (-1533880292)
5BE6  01                 const type 3
5BE7  5D81D281           const [41]: (-2116910755)
5BEB  01                 const type 3
5BEC  02CFFB53           const [42]: (1409011458)
                         * functions:
5BF0  00                 sizep (0)
                         * lines:
5BF2  03                 sizelineinfo (398)
                         [pc] (line)
5BF3  EE                 [001] (-18)
5BF4  03                 [002] (-18)
5BF5  00                 [003] (-18)
5BF6  00                 [004] (-17)
5BF7  EE                 [005] (-17)
5BF8  03                 [006] (-17)
5BF9  00                 [007] (-16)
5BFA  00                 [008] (-12)
5BFB  EE                 [009] (-12)
5BFC  03                 [010] (-12)
5BFD  00                 [011] (-12)
5BFE  00                 [012] (-12)
5BFF  EF                 [013] (-12)
5C00  03                 [014] (-12)
5C01  00                 [015] (-12)
5C02  00                 [016] (-12)
5C03  EF                 [017] (-12)
5C04  03                 [018] (-11)
5C05  00                 [019] (-11)
5C06  00                 [020] (-11)
5C07  EF                 [021] (-11)
5C08  03                 [022] (-8)
5C09  00                 [023] (-8)
5C0A  00                 [024] (-8)
5C0B  F0                 [025] (-8)
5C0C  03                 [026] (-8)
5C0D  00                 [027] (-8)
5C0E  00                 [028] (-7)
5C0F  F4                 [029] (-7)
5C10  03                 [030] (-7)
5C11  00                 [031] (-7)
5C12  00                 [032] (-7)
5C13  F4                 [033] (-7)
5C14  03                 [034] (-6)
5C15  00                 [035] (-6)
5C16  00                 [036] (-6)
5C17  F4                 [037] (-6)
5C18  03                 [038] (-4)
5C19  00                 [039] (-4)
5C1A  00                 [040] (-1)
5C1B  F4                 [041] (-1)
5C1C  03                 [042] (-1)
5C1D  00                 [043] (1)
5C1E  00                 [044] (1)
5C1F  F4                 [045] (1)
5C20  03                 [046] (1)
5C21  00                 [047] (2)
5C22  00                 [048] (3)
5C23  F4                 [049] (3)
5C24  03                 [050] (4)
5C25  00                 [051] (4)
5C26  00                 [052] (4)
5C27  F4                 [053] (4)
5C28  03                 [054] (4)
5C29  00                 [055] (5)
5C2A  00                 [056] (5)
5C2B  F4                 [057] (5)
5C2C  03                 [058] (7)
5C2D  00                 [059] (7)
5C2E  00                 [060] (7)
5C2F  F4                 [061] (7)
5C30  03                 [062] (8)
5C31  00                 [063] (8)
5C32  00                 [064] (8)
5C33  F4                 [065] (8)
5C34  03                 [066] (8)
5C35  00                 [067] (9)
5C36  00                 [068] (9)
5C37  F5                 [069] (9)
5C38  03                 [070] (13)
5C39  00                 [071] (13)
5C3A  00                 [072] (14)
5C3B  F5                 [073] (14)
5C3C  03                 [074] (14)
5C3D  00                 [075] (14)
5C3E  00                 [076] (14)
5C3F  F5                 [077] (15)
5C40  03                 [078] (15)
5C41  00                 [079] (15)
5C42  00                 [080] (1)
5C43  F5                 [081] (19)
5C44  03                 [082] (19)
5C45  00                 [083] (19)
5C46  00                 [084] (19)
5C47  F8                 [085] (19)
5C48  03                 [086] (19)
5C49  00                 [087] (19)
5C4A  00                 [088] (19)
5C4B  F8                 [089] (19)
5C4C  03                 [090] (19)
5C4D  00                 [091] (19)
5C4E  00                 [092] (20)
5C4F  F8                 [093] (20)
5C50  03                 [094] (20)
5C51  00                 [095] (20)
5C52  00                 [096] (22)
5C53  F8                 [097] (22)
5C54  03                 [098] (23)
5C55  00                 [099] (23)
5C56  00                 [100] (23)
5C57  F8                 [101] (26)
5C58  03                 [102] (29)
5C59  00                 [103] (29)
5C5A  00                 [104] (29)
5C5B  F8                 [105] (29)
5C5C  03                 [106] (29)
5C5D  00                 [107] (29)
5C5E  00                 [108] (29)
5C5F  F9                 [109] (29)
5C60  03                 [110] (29)
5C61  00                 [111] (29)
5C62  00                 [112] (29)
5C63  F9                 [113] (29)
5C64  03                 [114] (29)
5C65  00                 [115] (29)
5C66  00                 [116] (29)
5C67  F9                 [117] (29)
5C68  03                 [118] (29)
5C69  00                 [119] (29)
5C6A  00                 [120] (29)
5C6B  F9                 [121] (29)
5C6C  03                 [122] (29)
5C6D  00                 [123] (29)
5C6E  00                 [124] (30)
5C6F  F9                 [125] (30)
5C70  03                 [126] (30)
5C71  00                 [127] (30)
5C72  00                 [128] (31)
5C73  F9                 [129] (32)
5C74  03                 [130] (32)
5C75  00                 [131] (33)
5C76  00                 [132] (33)
5C77  FA                 [133] (33)
5C78  03                 [134] (33)
5C79  00                 [135] (33)
5C7A  00                 [136] (34)
5C7B  FA                 [137] (34)
5C7C  03                 [138] (34)
5C7D  00                 [139] (36)
5C7E  00                 [140] (36)
5C7F  FA                 [141] (36)
5C80  03                 [142] (36)
5C81  00                 [143] (37)
5C82  00                 [144] (37)
5C83  FA                 [145] (37)
5C84  03                 [146] (37)
5C85  00                 [147] (37)
5C86  00                 [148] (38)
5C87  FC                 [149] (38)
5C88  03                 [150] (38)
5C89  00                 [151] (42)
5C8A  00                 [152] (42)
5C8B  FC                 [153] (43)
5C8C  03                 [154] (43)
5C8D  00                 [155] (43)
5C8E  00                 [156] (43)
5C8F  FF                 [157] (43)
5C90  03                 [158] (44)
5C91  00                 [159] (44)
5C92  00                 [160] (44)
5C93  FF                 [161] (30)
5C94  03                 [162] (47)
5C95  00                 [163] (51)
5C96  00                 [164] (51)
5C97  FF                 [165] (51)
5C98  03                 [166] (51)
5C99  00                 [167] (51)
5C9A  00                 [168] (51)
5C9B  01                 [169] (51)
5C9C  04                 [170] (51)
5C9D  00                 [171] (51)
5C9E  00                 [172] (51)
5C9F  01                 [173] (51)
5CA0  04                 [174] (51)
5CA1  00                 [175] (51)
5CA2  00                 [176] (51)
5CA3  01                 [177] (51)
5CA4  04                 [178] (51)
5CA5  00                 [179] (51)
5CA6  00                 [180] (51)
5CA7  01                 [181] (51)
5CA8  04                 [182] (51)
5CA9  00                 [183] (51)
5CAA  00                 [184] (51)
5CAB  02                 [185] (52)
5CAC  04                 [186] (52)
5CAD  00                 [187] (52)
5CAE  00                 [188] (52)
5CAF  03                 [189] (56)
5CB0  04                 [190] (56)
5CB1  00                 [191] (57)
5CB2  00                 [192] (57)
5CB3  03                 [193] (57)
5CB4  04                 [194] (57)
5CB5  00                 [195] (58)
5CB6  00                 [196] (59)
5CB7  04                 [197] (59)
5CB8  04                 [198] (60)
5CB9  00                 [199] (60)
5CBA  00                 [200] (60)
5CBB  04                 [201] (60)
5CBC  04                 [202] (60)
5CBD  00                 [203] (61)
5CBE  00                 [204] (61)
5CBF  04                 [205] (61)
5CC0  04                 [206] (63)
5CC1  00                 [207] (63)
5CC2  00                 [208] (63)
5CC3  04                 [209] (63)
5CC4  04                 [210] (64)
5CC5  00                 [211] (64)
5CC6  00                 [212] (64)
5CC7  04                 [213] (64)
5CC8  04                 [214] (64)
5CC9  00                 [215] (65)
5CCA  00                 [216] (65)
5CCB  05                 [217] (65)
5CCC  04                 [218] (69)
5CCD  00                 [219] (69)
5CCE  00                 [220] (70)
5CCF  05                 [221] (70)
5CD0  04                 [222] (70)
5CD1  00                 [223] (70)
5CD2  00                 [224] (70)
5CD3  05                 [225] (71)
5CD4  04                 [226] (71)
5CD5  00                 [227] (71)
5CD6  00                 [228] (57)
5CD7  07                 [229] (76)
5CD8  04                 [230] (76)
5CD9  00                 [231] (76)
5CDA  00                 [232] (76)
5CDB  07                 [233] (76)
5CDC  04                 [234] (76)
5CDD  00                 [235] (76)
5CDE  00                 [236] (76)
5CDF  07                 [237] (76)
5CE0  04                 [238] (78)
5CE1  00                 [239] (79)
5CE2  00                 [240] (79)
5CE3  07                 [241] (79)
5CE4  04                 [242] (79)
5CE5  00                 [243] (79)
5CE6  00                 [244] (79)
5CE7  08                 [245] (79)
5CE8  04                 [246] (79)
5CE9  00                 [247] (79)
5CEA  00                 [248] (79)
5CEB  08                 [249] (80)
5CEC  04                 [250] (80)
5CED  00                 [251] (82)
5CEE  00                 [252] (83)
5CEF  08                 [253] (83)
5CF0  04                 [254] (83)
5CF1  00                 [255] (83)
5CF2  00                 [256] (83)
5CF3  08                 [257] (84)
5CF4  04                 [258] (84)
5CF5  00                 [259] (84)
5CF6  00                 [260] (85)
5CF7  08                 [261] (85)
5CF8  04                 [262] (86)
5CF9  00                 [263] (89)
5CFA  00                 [264] (89)
5CFB  09                 [265] (89)
5CFC  04                 [266] (89)
5CFD  00                 [267] (93)
5CFE  00                 [268] (94)
5CFF  09                 [269] (94)
5D00  04                 [270] (94)
5D01  00                 [271] (94)
5D02  00                 [272] (94)
5D03  09                 [273] (95)
5D04  04                 [274] (95)
5D05  00                 [275] (95)
5D06  00                 [276] (96)
5D07  0D                 [277] (96)
5D08  04                 [278] (97)
5D09  00                 [279] (100)
5D0A  00                 [280] (100)
5D0B  0D                 [281] (100)
5D0C  04                 [282] (100)
5D0D  00                 [283] (104)
5D0E  00                 [284] (104)
5D0F  0E                 [285] (104)
5D10  04                 [286] (104)
5D11  00                 [287] (104)
5D12  00                 [288] (104)
5D13  0E                 [289] (105)
5D14  04                 [290] (105)
5D15  00                 [291] (105)
5D16  00                 [292] (105)
5D17  0E                 [293] (105)
5D18  04                 [294] (106)
5D19  00                 [295] (108)
5D1A  00                 [296] (108)
5D1B  0E                 [297] (108)
5D1C  04                 [298] (108)
5D1D  00                 [299] (108)
5D1E  00                 [300] (109)
5D1F  0E                 [301] (109)
5D20  04                 [302] (109)
5D21  00                 [303] (109)
5D22  00                 [304] (112)
5D23  0F                 [305] (112)
5D24  04                 [306] (112)
5D25  00                 [307] (116)
5D26  00                 [308] (116)
5D27  0F                 [309] (116)
5D28  04                 [310] (116)
5D29  00                 [311] (117)
5D2A  00                 [312] (117)
5D2B  0F                 [313] (117)
5D2C  04                 [314] (119)
5D2D  00                 [315] (119)
5D2E  00                 [316] (119)
5D2F  01                 [317] (119)
5D30  04                 [318] (120)
5D31  00                 [319] (120)
5D32  00                 [320] (120)
5D33  13                 [321] (120)
5D34  04                 [322] (124)
5D35  00                 [323] (124)
5D36  00                 [324] (124)
5D37  13                 [325] (124)
5D38  04                 [326] (125)
5D39  00                 [327] (125)
5D3A  00                 [328] (125)
5D3B  13                 [329] (125)
5D3C  04                 [330] (126)
5D3D  00                 [331] (126)
5D3E  00                 [332] (126)
5D3F  13                 [333] (126)
5D40  04                 [334] (127)
5D41  00                 [335] (127)
5D42  00                 [336] (127)
5D43  13                 [337] (-128)
5D44  04                 [338] (-128)
5D45  00                 [339] (-128)
5D46  00                 [340] (-128)
5D47  13                 [341] (-128)
5D48  04                 [342] (-127)
5D49  00                 [343] (-127)
5D4A  00                 [344] (-127)
5D4B  13                 [345] (-127)
5D4C  04                 [346] (-127)
5D4D  00                 [347] (-126)
5D4E  00                 [348] (-126)
5D4F  13                 [349] (-126)
5D50  04                 [350] (-126)
5D51  00                 [351] (-123)
5D52  00                 [352] (-123)
5D53  13                 [353] (-123)
5D54  04                 [354] (-123)
5D55  00                 [355] (-122)
5D56  00                 [356] (-116)
5D57  13                 [357] (-116)
5D58  04                 [358] (-116)
5D59  00                 [359] (-116)
5D5A  00                 [360] (-114)
5D5B  13                 [361] (-114)
5D5C  04                 [362] (-114)
5D5D  00                 [363] (-114)
5D5E  00                 [364] (-113)
5D5F  14                 [365] (-112)
5D60  04                 [366] (-112)
5D61  00                 [367] (-111)
5D62  00                 [368] (-111)
5D63  14                 [369] (-111)
5D64  04                 [370] (-111)
5D65  00                 [371] (-111)
5D66  00                 [372] (-110)
5D67  14                 [373] (-110)
5D68  04                 [374] (-110)
5D69  00                 [375] (-108)
5D6A  00                 [376] (-108)
5D6B  14                 [377] (-108)
5D6C  04                 [378] (-108)
5D6D  00                 [379] (-107)
5D6E  00                 [380] (-107)
5D6F  16                 [381] (-107)
5D70  04                 [382] (-107)
5D71  00                 [383] (-107)
5D72  00                 [384] (-106)
5D73  16                 [385] (-106)
5D74  04                 [386] (-106)
5D75  00                 [387] (-102)
5D76  00                 [388] (-102)
5D77  17                 [389] (-101)
5D78  04                 [390] (-101)
5D79  00                 [391] (-101)
5D7A  00                 [392] (-101)
5D7B  17                 [393] (-101)
5D7C  04                 [394] (-100)
5D7D  00                 [395] (-100)
5D7E  00                 [396] (-100)
5D7F  17                 [397] (-114)
5D80  04                 [398] (-97)
                         * locals:
622B  00                 sizelocvars (0)
                         * upvalues:
622C  00                 sizeupvalues (0)
                         ** end of function **

                         
622D                     ** function [25] definition (level 2)
                         ** start of function **
622D  00                 string size (0)
                         source name: (none)
622F  09                 line defined (1185)
6230  A7                 last line defined (1191)
6231  09                 nups (1)
6232  01                 numparams (1)
6233  01                 is_vararg (0)
6234  00                 maxstacksize (4)
                         * code:
6236  19                 sizecode (25)
6237  5D000000           [01] getglobal  1   0        ; -1817107093
623B  99400000           [02] loadk      2   1        ; "Defense target avatar killed!"
623F  62400001           [03] call       1   2   1  
6243  5D800000           [04] getglobal  1   2        ; 1074689893
6247  9DC00000           [05] getglobal  2   3        ; gRegion
624B  62800001           [06] call       1   2   2  
624F  58400000           [07] test       1       1    ; to [9] if false
6253  1AC00380           [08] jmp        16           ; to [25]
6257  5D800000           [09] getglobal  1   2        ; 1074689893
625B  9D000100           [10] getglobal  2   4        ; gGameRules
625F  62800001           [11] call       1   2   2  
6263  58400000           [12] test       1       1    ; to [14] if false
6267  1A800280           [13] jmp        11           ; to [25]
626B  53000000           [14] getupval   1   0      
626F  4E40C100           [15] gettable   1   1   261  ; -1084877855
6273  99800100           [16] loadk      2   6        ; "DefenseExterminate"
6277  D3000000           [17] getupval   3   0      
627B  CEC0C101           [18] gettable   3   3   263  ; "INITIATOR_FAILURE"
627F  62408001           [19] call       1   3   1  
6283  5D000100           [20] getglobal  1   4        ; gGameRules
6287  6400C200           [21] self       1   1   264  ; -34409044
628B  DD400200           [22] getglobal  3   9        ; Engine
628F  CE80C201           [23] gettable   3   3   266  ; "GameRules_GS_FAILURE"
6293  62408001           [24] call       1   3   1  
6297  1E008000           [25] return     0   1      
                         * constants:
629B  0B                 sizek (11)
629C  01                 const type 3
629D  6B25B193           const [0]: (-1817107093)
62A1  04                 const type 4
62A2  1E                 string size (30)
62A3  446566656E736520+  "Defense "
62AB  7461726765742061+  "target a"
62B3  7661746172206B69+  "vatar ki"
62BB  6C6C65642100       "lled!\0"
                         const [1]: "Defense target avatar killed!"
62C1  01                 const type 3
62C2  65770E40           const [2]: (1074689893)
62C6  04                 const type 4
62C7  08                 string size (8)
62C8  67526567696F6E00   "gRegion\0"
                         const [3]: "gRegion"
62D0  04                 const type 4
62D1  0B                 string size (11)
62D2  6747616D6552756C+  "gGameRul"
62DA  657300             "es\0"
                         const [4]: "gGameRules"
62DD  01                 const type 3
62DE  E11356BF           const [5]: (-1084877855)
62E2  04                 const type 4
62E3  13                 string size (19)
62E4  446566656E736545+  "DefenseE"
62EC  787465726D696E61+  "xtermina"
62F4  746500             "te\0"
                         const [6]: "DefenseExterminate"
62F7  04                 const type 4
62F8  12                 string size (18)
62F9  494E49544941544F+  "INITIATO"
6301  525F4641494C5552+  "R_FAILUR"
6309  4500               "E\0"
                         const [7]: "INITIATOR_FAILURE"
630B  01                 const type 3
630C  ACF5F2FD           const [8]: (-34409044)
6310  04                 const type 4
6311  07                 string size (7)
6312  456E67696E6500     "Engine\0"
                         const [9]: "Engine"
6319  04                 const type 4
631A  15                 string size (21)
631B  47616D6552756C65+  "GameRule"
6323  735F47535F464149+  "s_GS_FAI"
632B  4C55524500         "LURE\0"
                         const [10]: "GameRules_GS_FAILURE"
                         * functions:
6330  00                 sizep (0)
                         * lines:
6331  19                 sizelineinfo (25)
                         [pc] (line)
6332  A2                 [01] (-94)
6333  04                 [02] (-94)
6334  00                 [03] (-94)
6335  00                 [04] (-93)
6336  A2                 [05] (-93)
6337  04                 [06] (-93)
6338  00                 [07] (-93)
6339  00                 [08] (-93)
633A  A2                 [09] (-93)
633B  04                 [10] (-93)
633C  00                 [11] (-93)
633D  00                 [12] (-93)
633E  A3                 [13] (-93)
633F  04                 [14] (-92)
6340  00                 [15] (-92)
6341  00                 [16] (-92)
6342  A3                 [17] (-92)
6343  04                 [18] (-92)
6344  00                 [19] (-92)
6345  00                 [20] (-91)
6346  A3                 [21] (-91)
6347  04                 [22] (-91)
6348  00                 [23] (-91)
6349  00                 [24] (-91)
634A  A3                 [25] (-89)
                         * locals:
6396  00                 sizelocvars (0)
                         * upvalues:
6397  00                 sizeupvalues (0)
                         ** end of function **

                         
6398                     ** function [26] definition (level 2)
                         ** start of function **
6398  00                 string size (0)
                         source name: (none)
639A  09                 line defined (1193)
639B  AD                 last line defined (1197)
639C  09                 nups (0)
639D  00                 numparams (0)
639E  00                 is_vararg (0)
639F  00                 maxstacksize (5)
                         * code:
63A1  0D                 sizecode (13)
63A2  1D000000           [01] getglobal  0   0        ; gRegion
63A6  24404000           [02] self       0   0   257  ; 65205951
63AA  22800001           [03] call       0   2   2  
63AE  64804000           [04] self       1   0   258  ; -564624675
63B2  62800001           [05] call       1   2   2  
63B6  64C0C000           [06] self       1   1   259  ; 1653689631
63BA  62800001           [07] call       1   2   2  
63BE  9D000100           [08] getglobal  2   4        ; gGameRules
63C2  A4404101           [09] self       2   2   261  ; 811734991
63C6  12018000           [10] move       4   1      
63CA  87008001           [11] tailcall   2   3   0  
63CE  9E000000           [12] return     2   0      
63D2  1E008000           [13] return     0   1      
                         * constants:
63D6  06                 sizek (6)
63D7  04                 const type 4
63D8  08                 string size (8)
63D9  67526567696F6E00   "gRegion\0"
                         const [0]: "gRegion"
63E1  01                 const type 3
63E2  BFF6E203           const [1]: (65205951)
63E6  01                 const type 3
63E7  DD8258DE           const [2]: (-564624675)
63EB  01                 const type 3
63EC  1F4D9162           const [3]: (1653689631)
63F0  04                 const type 4
63F1  0B                 string size (11)
63F2  6747616D6552756C+  "gGameRul"
63FA  657300             "es\0"
                         const [4]: "gGameRules"
63FD  01                 const type 3
63FE  CF176230           const [5]: (811734991)
                         * functions:
6402  00                 sizep (0)
                         * lines:
6403  0D                 sizelineinfo (13)
                         [pc] (line)
6404  AA                 [01] (-86)
6405  04                 [02] (-86)
6406  00                 [03] (-86)
6407  00                 [04] (-85)
6408  AA                 [05] (-85)
6409  04                 [06] (-85)
640A  00                 [07] (-85)
640B  00                 [08] (-84)
640C  AA                 [09] (-84)
640D  04                 [10] (-84)
640E  00                 [11] (-84)
640F  00                 [12] (-84)
6410  AB                 [13] (-83)
                         * locals:
6438  00                 sizelocvars (0)
                         * upvalues:
6439  00                 sizeupvalues (0)
                         ** end of function **

                         
643A                     ** function [27] definition (level 2)
                         ** start of function **
643A  00                 string size (0)
                         source name: (none)
643C  09                 line defined (1199)
643D  BE                 last line defined (1342)
643E  0A                 nups (9)
643F  09                 numparams (2)
6440  02                 is_vararg (0)
6441  00                 maxstacksize (43)
                         * code:
6444  02                 sizecode (358)
6445  9D000000           [001] getglobal  2   0        ; gGameRules
6449  A4404001           [002] self       2   2   257  ; -1201441975
644D  A2800001           [003] call       2   2   2  
6451  DD800000           [004] getglobal  3   2        ; 1074689893
6455  0EC14001           [005] gettable   4   2   259  ; "eomBoss"
6459  E2800001           [006] call       3   2   2  
645D  D8400000           [007] test       3       1    ; to [9] if false
6461  1A005780           [008] jmp        349          ; to [358]
6465  D3000000           [009] getupval   3   0      
6469  13018000           [010] getupval   4   1      
646D  22818000           [011] call       4   1   2  
6471  18010000           [012] test       4       0    ; to [14] if true
6475  1A000080           [013] jmp        1            ; to [15]
6479  D3000001           [014] getupval   3   2      
647D  0B010000           [015] newtable   4   0   0    ; array=0, hash=0
6481  5D810000           [016] getglobal  5   2        ; 1074689893
6485  93018001           [017] getupval   6   3      
6489  62810001           [018] call       5   2   2  
648D  58410000           [019] test       5       1    ; to [21] if false
6491  1A800180           [020] jmp        7            ; to [28]
6495  5D010100           [021] getglobal  5   4        ; table
6499  4E41C102           [022] gettable   5   5   261  ; -431682403
649D  92010002           [023] move       6   4      
64A1  D3018001           [024] getupval   7   3      
64A5  E481C103           [025] self       7   7   262  ; 455421500
64A9  E2010001           [026] call       7   2   0  
64AD  62410000           [027] call       5   0   1  
64B1  5D810000           [028] getglobal  5   2        ; 1074689893
64B5  92018001           [029] move       6   3      
64B9  62810001           [030] call       5   2   2  
64BD  58410000           [031] test       5       1    ; to [33] if false
64C1  1A400180           [032] jmp        6            ; to [39]
64C5  5D010100           [033] getglobal  5   4        ; table
64C9  4E41C102           [034] gettable   5   5   261  ; -431682403
64CD  92010002           [035] move       6   4      
64D1  E481C101           [036] self       7   3   262  ; 455421500
64D5  E2010001           [037] call       7   2   0  
64D9  62410000           [038] call       5   0   1  
64DD  5D810000           [039] getglobal  5   2        ; 1074689893
64E1  93010002           [040] getupval   6   4      
64E5  62810001           [041] call       5   2   2  
64E9  58410000           [042] test       5       1    ; to [44] if false
64ED  1A800180           [043] jmp        7            ; to [51]
64F1  5D010100           [044] getglobal  5   4        ; table
64F5  4E41C102           [045] gettable   5   5   261  ; -431682403
64F9  92010002           [046] move       6   4      
64FD  D3010002           [047] getupval   7   4      
6501  E481C103           [048] self       7   7   262  ; 455421500
6505  E2010001           [049] call       7   2   0  
6509  62410000           [050] call       5   0   1  
650D  5D810000           [051] getglobal  5   2        ; 1074689893
6511  93018002           [052] getupval   6   5      
6515  62810001           [053] call       5   2   2  
6519  58410000           [054] test       5       1    ; to [56] if false
651D  1A800180           [055] jmp        7            ; to [63]
6521  5D010100           [056] getglobal  5   4        ; table
6525  4E41C102           [057] gettable   5   5   261  ; -431682403
6529  92010002           [058] move       6   4      
652D  D3018002           [059] getupval   7   5      
6531  E481C103           [060] self       7   7   262  ; 455421500
6535  E2010001           [061] call       7   2   0  
6539  62410000           [062] call       5   0   1  
653D  5D010000           [063] getglobal  5   0        ; gGameRules
6541  64C1C102           [064] self       5   5   263  ; 127295906
6545  D2010002           [065] move       7   4      
6549  62418001           [066] call       5   3   1  
654D  5D010200           [067] getglobal  5   8        ; 538022378
6551  99410200           [068] loadk      6   9        ; 0
6555  62410001           [069] call       5   2   1  
6559  5D810200           [070] getglobal  5   10       ; gRegion
655D  64C1C202           [071] self       5   5   267  ; 1224466847
6561  62810001           [072] call       5   2   2  
6565  9D810000           [073] getglobal  6   2        ; 1074689893
6569  CE014301           [074] gettable   7   2   268  ; "eomBossTransmission"
656D  A2810001           [075] call       6   2   2  
6571  98410000           [076] test       6       1    ; to [78] if false
6575  1A800580           [077] jmp        23           ; to [101]
6579  99410300           [078] loadk      6   13       ; 0
657D  CA018002           [079] len        7   5      
6581  19420300           [080] loadk      8   13       ; 0
6585  90810380           [081] forprep    6   15       ; to [97]
6589  9D820000           [082] getglobal  10  2        ; 1074689893
658D  CE428202           [083] gettable   11  5   9  
6591  E482C305           [084] self       11  11  270  ; -2135866365
6595  E2020001           [085] call       11  2   0  
6599  A2820000           [086] call       10  0   2  
659D  98420000           [087] test       10      1    ; to [89] if false
65A1  1AC00180           [088] jmp        8            ; to [97]
65A5  8E428202           [089] gettable   10  5   9  
65A9  A4824305           [090] self       10  10  270  ; -2135866365
65AD  A2820001           [091] call       10  2   2  
65B1  A4C24305           [092] self       10  10  271  ; 145557915
65B5  1D030400           [093] getglobal  12  16       ; 2083004503
65B9  4E034301           [094] gettable   13  2   268  ; "eomBossTransmission"
65BD  22030001           [095] call       12  2   0  
65C1  A2420000           [096] call       10  0   1  
65C5  94C1FB7F           [097] forloop    6   -16      ; to [82] if loop
65C9  9D020200           [098] getglobal  10  8        ; 538022378
65CD  D9420400           [099] loadk      11  17       ; 0
65D1  A2420001           [100] call       10  2   1  
65D5  99420300           [101] loadk      10  13       ; 0
65D9  CA028002           [102] len        11  5      
65DD  19430300           [103] loadk      12  13       ; 0
65E1  90C20880           [104] forprep    10  36       ; to [141]
65E5  8E438302           [105] gettable   14  5   13 
65E9  A4834407           [106] self       14  14  274  ; -1191956569
65ED  19C40400           [107] loadk      16  19       ; 0
65F1  A2438001           [108] call       14  3   1  
65F5  8E438302           [109] gettable   14  5   13 
65F9  A4034507           [110] self       14  14  276  ; 1525877273
65FD  A2830001           [111] call       14  2   2  
6601  DD830000           [112] getglobal  15  2        ; 1074689893
6605  12040007           [113] move       16  14     
6609  E2830001           [114] call       15  2   2  
660D  D8430000           [115] test       15      1    ; to [117] if false
6611  1AC00580           [116] jmp        24           ; to [141]
6615  E4434507           [117] self       15  14  277  ; -847416010
6619  5D040400           [118] getglobal  17  16       ; 2083004503
661D  92048001           [119] move       18  3      
6621  62840001           [120] call       17  2   2  
6625  99840500           [121] loadk      18  22       ; -51
6629  D9C40500           [122] loadk      19  23       ; 0
662D  19C50500           [123] loadk      20  23       ; 0
6631  E2430003           [124] call       15  6   1  
6635  E4034607           [125] self       15  14  280  ; 167589562
6639  59C40500           [126] loadk      17  23       ; 0
663D  99440600           [127] loadk      18  25       ; -51
6641  D9440600           [128] loadk      19  25       ; -51
6645  19450200           [129] loadk      20  9        ; 0
6649  E2430003           [130] call       15  6   1  
664D  DD830200           [131] getglobal  15  10       ; gRegion
6651  E483C607           [132] self       15  15  282  ; 630793108
6655  5D040400           [133] getglobal  17  16       ; 2083004503
6659  93040002           [134] getupval   18  4      
665D  62840001           [135] call       17  2   2  
6661  9DC40600           [136] getglobal  18  27       ; 572299008
6665  A2848000           [137] call       18  1   2  
6669  D7040000           [138] loadbool   19  0   0    ; false
666D  19050700           [139] loadk      20  28       ; 0
6671  E2430003           [140] call       15  6   1  
6675  9482F67F           [141] forloop    10  -37      ; to [105] if loop
6679  DD030200           [142] getglobal  15  8        ; 538022378
667D  19440200           [143] loadk      16  9        ; 0
6681  E2430001           [144] call       15  2   1  
6685  DD830200           [145] getglobal  15  10       ; gRegion
6689  E443C707           [146] self       15  15  285  ; -774964848
668D  E2830001           [147] call       15  2   2  
6691  1D040000           [148] getglobal  16  0        ; gGameRules
6695  64844708           [149] self       17  16  286  ; 516385015
6699  62840001           [150] call       17  2   2  
669D  A4C4C707           [151] self       18  15  287  ; 537471347
66A1  A2840001           [152] call       18  2   2  
66A5  CB040000           [153] newtable   19  0   0    ; array=0, hash=0
66A9  1D050800           [154] getglobal  20  32       ; Engine
66AD  0E45480A           [155] gettable   20  20  289  ; "STANDARD"
66B1  59450300           [156] loadk      21  13       ; 0
66B5  8605000B           [157] loadnil    22  22     
66B9  D7050000           [158] loadbool   23  0   0    ; false
66BD  13068000           [159] getupval   24  1      
66C1  22868000           [160] call       24  1   2  
66C5  18060000           [161] test       24      0    ; to [163] if true
66C9  1AC00480           [162] jmp        20           ; to [183]
66CD  5D860200           [163] getglobal  25  10       ; gRegion
66D1  64C6C20C           [164] self       25  25  267  ; 1224466847
66D5  62860001           [165] call       25  2   2  
66D9  4A06800C           [166] len        25  25     
66DD  44C6C50C           [167] mul        25  25  279  ; 0
66E1  4345868B           [168] add        21  279 25   ; 0
66E5  5D860800           [169] getglobal  25  34       ; math
66E9  4EC6C80C           [170] gettable   25  25  291  ; -1962864584
66ED  8306C900           [171] add        26  1   292  ; 0
66F1  CE464901           [172] gettable   27  2   293  ; "maxEnemyLevel"
66F5  C306C90D           [173] add        27  27  292  ; 0
66F9  62868001           [174] call       25  3   2  
66FD  5200800C           [175] move       1   25     
6701  5D060800           [176] getglobal  25  32       ; Engine
6705  0E85C90C           [177] gettable   20  25  294  ; "EXIMUS"
6709  5DC60900           [178] getglobal  25  39       ; -332969190
670D  99060A00           [179] loadk      26  40       ; "/Lotus/Language/Bosses/DebtCollector"
6711  62860001           [180] call       25  2   2  
6715  9205800C           [181] move       22  25     
6719  D7058000           [182] loadbool   23  1   0    ; true
671D  44C6C50A           [183] mul        25  21  279  ; 0
6721  43468694           [184] add        25  297 25   ; 0
6725  99460300           [185] loadk      26  13       ; 0
6729  D206800A           [186] move       27  21     
672D  19470300           [187] loadk      28  13       ; 0
6731  90861580           [188] forprep    26  87       ; to [276]
6735  A4874A09           [189] self       30  18  298  ; -2120903900
6739  1DC80A00           [190] getglobal  32  43       ; -895206725
673D  4EC84001           [191] gettable   33  2   259  ; "eomBoss"
6741  22880001           [192] call       32  2   2  
6745  52080000           [193] move       33  0      
6749  9208800C           [194] move       34  25     
674D  D3080003           [195] getupval   35  6      
6751  12098000           [196] move       36  1      
6755  46098012           [197] loadnil    37  37     
6759  9209000A           [198] move       38  20     
675D  A2878004           [199] call       30  9   2  
6761  DD870000           [200] getglobal  31  2        ; 1074689893
6765  1208000F           [201] move       32  30     
6769  E2870001           [202] call       31  2   2  
676D  D8470000           [203] test       31      1    ; to [205] if false
6771  1AC01080           [204] jmp        68           ; to [273]
6775  E487430F           [205] self       31  30  270  ; -2135866365
6779  E2870001           [206] call       31  2   2  
677D  2408CB0F           [207] self       32  31  300  ; -1917464545
6781  22880001           [208] call       32  2   2  
6785  6448CB0F           [209] self       33  31  301  ; -1544157541
6789  62880001           [210] call       33  2   2  
678D  A488CB0F           [211] self       34  31  302  ; 1009327987
6791  A2480001           [212] call       34  2   1  
6795  A4C8CB0F           [213] self       34  31  303  ; 155743781
6799  19090C00           [214] loadk      36  48       ; 0
679D  A2488001           [215] call       34  3   1  
67A1  A448CC0F           [216] self       34  31  305  ; -1421644046
67A5  1DC90A00           [217] getglobal  36  43       ; -895206725
67A9  53098001           [218] getupval   37  3      
67AD  22890001           [219] call       36  2   2  
67B1  5D890C00           [220] getglobal  37  50       ; EMPTY_SYMBOL
67B5  A2480002           [221] call       34  4   1  
67B9  A4C8CC0F           [222] self       34  31  307  ; 1992436207
67BD  2409CD0F           [223] self       36  31  308  ; 945541886
67C1  22090001           [224] call       36  2   0  
67C5  A2480000           [225] call       34  0   1  
67C9  A448CD10           [226] self       34  33  309  ; -1992773175
67CD  2489CD10           [227] self       36  33  310  ; -227502409
67D1  22090001           [228] call       36  2   0  
67D5  A2480000           [229] call       34  0   1  
67D9  D8050000           [230] test       23      0    ; to [232] if true
67DD  1A000780           [231] jmp        29           ; to [261]
67E1  A4C84D10           [232] self       34  32  311  ; 991629753
67E5  1D090E00           [233] getglobal  36  56       ; Game
67E9  0E494E12           [234] gettable   36  36  313  ; "AVATAR_ARMOUR"
67ED  5D090E00           [235] getglobal  37  56       ; Game
67F1  4E89CE12           [236] gettable   37  37  314  ; "ADD"
67F5  99C90E00           [237] loadk      38  59       ; 0
67F9  A2488002           [238] call       34  5   1  
67FD  A4C84D10           [239] self       34  32  311  ; 991629753
6801  1D090E00           [240] getglobal  36  56       ; Game
6805  0E094F12           [241] gettable   36  36  316  ; "AVATAR_MOVEMENT_SPEED"
6809  5D090E00           [242] getglobal  37  56       ; Game
680D  4E49CF12           [243] gettable   37  37  317  ; "MULTIPLY"
6811  99C90500           [244] loadk      38  23       ; 0
6815  A2488002           [245] call       34  5   1  
6819  A488CF10           [246] self       34  33  318  ; 1685228074
681D  1D090800           [247] getglobal  36  32       ; Engine
6821  0EC94F12           [248] gettable   36  36  319  ; "KNOCKDOWN"
6825  53098003           [249] getupval   37  7      
6829  A2480002           [250] call       34  4   1  
682D  A488CF10           [251] self       34  33  318  ; 1685228074
6831  1D090800           [252] getglobal  36  32       ; Engine
6835  0E095012           [253] gettable   36  36  320  ; "STAGGER"
6839  53098003           [254] getupval   37  7      
683D  A2480002           [255] call       34  4   1  
6841  A488CF10           [256] self       34  33  318  ; 1685228074
6845  1D090800           [257] getglobal  36  32       ; Engine
6849  0E495012           [258] gettable   36  36  321  ; "RAGDOLL"
684D  53098003           [259] getupval   37  7      
6851  A2480002           [260] call       34  4   1  
6855  98050000           [261] test       22      0    ; to [263] if true
6859  1A000180           [262] jmp        5            ; to [268]
685D  A488D00F           [263] self       34  31  322  ; 1888920740
6861  1209000B           [264] move       36  22     
6865  59C91000           [265] loadk      37  67       ; "ENEMY"
6869  99091100           [266] loadk      38  68       ; " "
686D  A2488002           [267] call       34  5   1  
6871  9D080100           [268] getglobal  34  4        ; table
6875  8E484111           [269] gettable   34  34  261  ; -431682403
6879  D2088009           [270] move       35  19     
687D  1209000F           [271] move       36  30     
6881  A2488001           [272] call       34  3   1  
6885  9D080200           [273] getglobal  34  8        ; 538022378
6889  D9080700           [274] loadk      35  28       ; 0
688D  A2480001           [275] call       34  2   1  
6891  94C6E97F           [276] forloop    26  -88      ; to [189] if loop
6895  9D880000           [277] getglobal  34  2        ; 1074689893
6899  D3088002           [278] getupval   35  5      
689D  A2880001           [279] call       34  2   2  
68A1  98480000           [280] test       34      1    ; to [282] if false
68A5  1A800480           [281] jmp        19           ; to [301]
68A9  9D880000           [282] getglobal  34  2        ; 1074689893
68AD  D2088008           [283] move       35  17     
68B1  A2880001           [284] call       34  2   2  
68B5  98480000           [285] test       34      1    ; to [287] if false
68B9  1A400380           [286] jmp        14           ; to [301]
68BD  93080004           [287] getupval   34  8      
68C1  DD880C00           [288] getglobal  35  50       ; EMPTY_SYMBOL
fail op	35
68C5  23C00811           [289] close      0  
68C9  1AC00080           [290] jmp        4            ; to [295]
68CD  A448D108           [291] self       34  17  325  ; 2143938515
68D1  13098002           [292] getupval   36  5      
68D5  A2488001           [293] call       34  3   1  
68D9  1A400180           [294] jmp        6            ; to [301]
68DD  A488D108           [295] self       34  17  326  ; 1520803588
68E1  13090004           [296] getupval   36  8      
68E5  A2488001           [297] call       34  3   1  
68E9  A4C8D108           [298] self       34  17  327  ; -1105824
68ED  17090000           [299] loadbool   36  0   0    ; false
68F1  A2488001           [300] call       34  3   1  
68F5  97088000           [301] loadbool   34  1   0    ; true
68F9  DD081200           [302] getglobal  35  72       ; 248503575
68FD  12098009           [303] move       36  19     
6901  E2080101           [304] call       35  2   4  
6905  1A800480           [305] jmp        19           ; to [325]
6909  1D8A0000           [306] getglobal  40  2        ; 1074689893
690D  520A8013           [307] move       41  39     
6911  228A0001           [308] call       40  2   2  
6915  184A0000           [309] test       40      1    ; to [311] if false
6919  1A400380           [310] jmp        14           ; to [325]
691D  1D8A0000           [311] getglobal  40  2        ; 1074689893
6921  648AC313           [312] self       41  39  270  ; -2135866365
6925  620A0001           [313] call       41  2   0  
6929  228A0000           [314] call       40  0   2  
692D  184A0000           [315] test       40      1    ; to [317] if false
6931  1AC00180           [316] jmp        8            ; to [325]
6935  248AC313           [317] self       40  39  270  ; -2135866365
6939  228A0001           [318] call       40  2   2  
693D  244A5214           [319] self       40  40  329  ; 1511086594
6941  228A0001           [320] call       40  2   2  
6945  184A0000           [321] test       40      1    ; to [323] if false
6949  1A400080           [322] jmp        2            ; to [325]
694D  97080000           [323] loadbool   34  0   0    ; false
6951  1A400080           [324] jmp        2            ; to [327]
6955  D6880000           [325] tforloop   35      2    ; to [327] if exit
6959  1A80FA7F           [326] jmp        -21          ; to [306]
695D  98080000           [327] test       34      0    ; to [329] if true
6961  1A400080           [328] jmp        2            ; to [331]
6965  1A000180           [329] jmp        5            ; to [335]
6969  1A40F87F           [330] jmp        -30          ; to [301]
696D  1D0A0200           [331] getglobal  40  8        ; 538022378
6971  594A0300           [332] loadk      41  13       ; 0
6975  224A0001           [333] call       40  2   1  
6979  1A40F77F           [334] jmp        -34          ; to [301]
697D  1D0A0200           [335] getglobal  40  8        ; 538022378
6981  598A1200           [336] loadk      41  74       ; 0
6985  224A0001           [337] call       40  2   1  
6989  1D8A0000           [338] getglobal  40  2        ; 1074689893
698D  530A8002           [339] getupval   41  5      
6991  228A0001           [340] call       40  2   2  
6995  184A0000           [341] test       40      1    ; to [343] if false
6999  1A800280           [342] jmp        11           ; to [354]
699D  1D8A0000           [343] getglobal  40  2        ; 1074689893
69A1  520A8008           [344] move       41  17     
69A5  228A0001           [345] call       40  2   2  
69A9  184A0000           [346] test       40      1    ; to [348] if false
69AD  1A400180           [347] jmp        6            ; to [354]
69B1  24CAD108           [348] self       40  17  327  ; -1105824
69B5  970A8000           [349] loadbool   42  1   0    ; true
69B9  224A8001           [350] call       40  3   1  
69BD  244AD108           [351] self       40  17  325  ; 2143938515
69C1  860A0015           [352] loadnil    42  42     
69C5  224A8001           [353] call       40  3   1  
69C9  18460000           [354] test       24      1    ; to [356] if false
69CD  1A400080           [355] jmp        2            ; to [358]
69D1  1DCA1200           [356] getglobal  40  75       ; _T
69D5  0C4A53A6           [357] settable   40  332 333  ; "EndOfMissionVoiceOverride" ""
69D9  1E008000           [358] return     0   1      
                         * constants:
69DD  4E                 sizek (78)
69DE  04                 const type 4
69DF  0B                 string size (11)
69E0  6747616D6552756C+  "gGameRul"
69E8  657300             "es\0"
                         const [0]: "gGameRules"
69EB  01                 const type 3
69EC  497363B8           const [1]: (-1201441975)
69F0  01                 const type 3
69F1  65770E40           const [2]: (1074689893)
69F5  04                 const type 4
69F6  08                 string size (8)
69F7  656F6D426F737300   "eomBoss\0"
                         const [3]: "eomBoss"
69FF  04                 const type 4
6A00  06                 string size (6)
6A01  7461626C6500       "table\0"
                         const [4]: "table"
6A07  01                 const type 3
6A08  9D0C45E6           const [5]: (-431682403)
6A0C  01                 const type 3
6A0D  3C2E251B           const [6]: (455421500)
6A11  01                 const type 3
6A12  A2619607           const [7]: (127295906)
6A16  01                 const type 3
6A17  EA911120           const [8]: (538022378)
6A1B  03                 const type 3
6A1C  00004040           const [9]: (0)
6A20  04                 const type 4
6A21  08                 string size (8)
6A22  67526567696F6E00   "gRegion\0"
                         const [10]: "gRegion"
6A2A  01                 const type 3
6A2B  9FE1FB48           const [11]: (1224466847)
6A2F  04                 const type 4
6A30  14                 string size (20)
6A31  656F6D426F737354+  "eomBossT"
6A39  72616E736D697373+  "ransmiss"
6A41  696F6E00           "ion\0"
                         const [12]: "eomBossTransmission"
6A45  03                 const type 3
6A46  0000803F           const [13]: (0)
6A4A  01                 const type 3
6A4B  0344B180           const [14]: (-2135866365)
6A4F  01                 const type 3
6A50  9B09AD08           const [15]: (145557915)
6A54  01                 const type 3
6A55  5720287C           const [16]: (2083004503)
6A59  03                 const type 3
6A5A  00004041           const [17]: (0)
6A5E  01                 const type 3
6A5F  A72FF4B8           const [18]: (-1191956569)
6A63  03                 const type 3
6A64  0000003F           const [19]: (0)
6A68  01                 const type 3
6A69  190AF35A           const [20]: (1525877273)
6A6D  01                 const type 3
6A6E  36757DCD           const [21]: (-847416010)
6A72  03                 const type 3
6A73  CDCC4C3E           const [22]: (-51)
6A77  03                 const type 3
6A78  00000040           const [23]: (0)
6A7C  01                 const type 3
6A7D  BA36FD09           const [24]: (167589562)
6A81  03                 const type 3
6A82  CDCC8C3F           const [25]: (-51)
6A86  01                 const type 3
6A87  94239925           const [26]: (630793108)
6A8B  01                 const type 3
6A8C  00971C22           const [27]: (572299008)
6A90  03                 const type 3
6A91  00000000           const [28]: (0)
6A95  01                 const type 3
6A96  90F9CED1           const [29]: (-774964848)
6A9A  01                 const type 3
6A9B  F768C71E           const [30]: (516385015)
6A9F  01                 const type 3
6AA0  73290920           const [31]: (537471347)
6AA4  04                 const type 4
6AA5  07                 string size (7)
6AA6  456E67696E6500     "Engine\0"
                         const [32]: "Engine"
6AAD  04                 const type 4
6AAE  09                 string size (9)
6AAF  5354414E44415244+  "STANDARD"
6AB7  00                 "\0"
                         const [33]: "STANDARD"
6AB8  04                 const type 4
6AB9  05                 string size (5)
6ABA  6D61746800         "math\0"
                         const [34]: "math"
6ABF  01                 const type 3
6AC0  3810018B           const [35]: (-1962864584)
6AC4  03                 const type 3
6AC5  0000A040           const [36]: (0)
6AC9  04                 const type 4
6ACA  0E                 string size (14)
6ACB  6D6178456E656D79+  "maxEnemy"
6AD3  4C6576656C00       "Level\0"
                         const [37]: "maxEnemyLevel"
6AD9  04                 const type 4
6ADA  07                 string size (7)
6ADB  4558494D555300     "EXIMUS\0"
                         const [38]: "EXIMUS"
6AE2  01                 const type 3
6AE3  1A4B27EC           const [39]: (-332969190)
6AE7  04                 const type 4
6AE8  25                 string size (37)
6AE9  2F4C6F7475732F4C+  "/Lotus/L"
6AF1  616E67756167652F+  "anguage/"
6AF9  426F737365732F44+  "Bosses/D"
6B01  656274436F6C6C65+  "ebtColle"
6B09  63746F7200         "ctor\0"
                         const [40]: "/Lotus/Language/Bosses/DebtCollector"
6B0E  03                 const type 3
6B0F  00002041           const [41]: (0)
6B13  01                 const type 3
6B14  24939581           const [42]: (-2120903900)
6B18  01                 const type 3
6B19  BB3AA4CA           const [43]: (-895206725)
6B1D  01                 const type 3
6B1E  1FD0B58D           const [44]: (-1917464545)
6B22  01                 const type 3
6B23  9B06F6A3           const [45]: (-1544157541)
6B27  01                 const type 3
6B28  731F293C           const [46]: (1009327987)
6B2C  01                 const type 3
6B2D  25764809           const [47]: (155743781)
6B31  03                 const type 3
6B32  0000A0C0           const [48]: (0)
6B36  01                 const type 3
6B37  F26E43AB           const [49]: (-1421644046)
6B3B  04                 const type 4
6B3C  0D                 string size (13)
6B3D  454D5054595F5359+  "EMPTY_SY"
6B45  4D424F4C00         "MBOL\0"
                         const [50]: "EMPTY_SYMBOL"
6B4A  01                 const type 3
6B4B  EF29C276           const [51]: (1992436207)
6B4F  01                 const type 3
6B50  FED25B38           const [52]: (945541886)
6B54  01                 const type 3
6B55  C9B13889           const [53]: (-1992773175)
6B59  01                 const type 3
6B5A  B79670F2           const [54]: (-227502409)
6B5E  01                 const type 3
6B5F  B9111B3B           const [55]: (991629753)
6B63  04                 const type 4
6B64  05                 string size (5)
6B65  47616D6500         "Game\0"
                         const [56]: "Game"
6B6A  04                 const type 4
6B6B  0E                 string size (14)
6B6C  4156415441525F41+  "AVATAR_A"
6B74  524D4F555200       "RMOUR\0"
                         const [57]: "AVATAR_ARMOUR"
6B7A  04                 const type 4
6B7B  04                 string size (4)
6B7C  41444400           "ADD\0"
                         const [58]: "ADD"
6B80  03                 const type 3
6B81  00007A44           const [59]: (0)
6B85  04                 const type 4
6B86  16                 string size (22)
6B87  4156415441525F4D+  "AVATAR_M"
6B8F  4F56454D454E545F+  "OVEMENT_"
6B97  535045454400       "SPEED\0"
                         const [60]: "AVATAR_MOVEMENT_SPEED"
6B9D  04                 const type 4
6B9E  09                 string size (9)
6B9F  4D554C5449504C59+  "MULTIPLY"
6BA7  00                 "\0"
                         const [61]: "MULTIPLY"
6BA8  01                 const type 3
6BA9  2A8A7264           const [62]: (1685228074)
6BAD  04                 const type 4
6BAE  0A                 string size (10)
6BAF  4B4E4F434B444F57+  "KNOCKDOW"
6BB7  4E00               "N\0"
                         const [63]: "KNOCKDOWN"
6BB9  04                 const type 4
6BBA  08                 string size (8)
6BBB  5354414747455200   "STAGGER\0"
                         const [64]: "STAGGER"
6BC3  04                 const type 4
6BC4  08                 string size (8)
6BC5  524147444F4C4C00   "RAGDOLL\0"
                         const [65]: "RAGDOLL"
6BCD  01                 const type 3
6BCE  A4A49670           const [66]: (1888920740)
6BD2  04                 const type 4
6BD3  06                 string size (6)
6BD4  454E454D5900       "ENEMY\0"
                         const [67]: "ENEMY"
6BDA  04                 const type 4
6BDB  02                 string size (2)
6BDC  2000               " \0"
                         const [68]: " "
6BDE  01                 const type 3
6BDF  D3E7C97F           const [69]: (2143938515)
6BE3  01                 const type 3
6BE4  049FA55A           const [70]: (1520803588)
6BE8  01                 const type 3
6BE9  6020EFFF           const [71]: (-1105824)
6BED  01                 const type 3
6BEE  17DDCF0E           const [72]: (248503575)
6BF2  01                 const type 3
6BF3  025A115A           const [73]: (1511086594)
6BF7  03                 const type 3
6BF8  00008040           const [74]: (0)
6BFC  04                 const type 4
6BFD  03                 string size (3)
6BFE  5F5400             "_T\0"
                         const [75]: "_T"
6C01  04                 const type 4
6C02  1A                 string size (26)
6C03  456E644F664D6973+  "EndOfMis"
6C0B  73696F6E566F6963+  "sionVoic"
6C13  654F766572726964+  "eOverrid"
6C1B  6500               "e\0"
                         const [76]: "EndOfMissionVoiceOverride"
6C1D  04                 const type 4
6C1E  01                 string size (0)
                         const [77]: ""
                         * functions:
6C20  00                 sizep (0)
                         * lines:
6C22  02                 sizelineinfo (358)
                         [pc] (line)
6C23  B0                 [001] (-80)
6C24  04                 [002] (-80)
6C25  00                 [003] (-80)
6C26  00                 [004] (-79)
6C27  B0                 [005] (-79)
6C28  04                 [006] (-79)
6C29  00                 [007] (-79)
6C2A  00                 [008] (-79)
6C2B  B0                 [009] (-78)
6C2C  04                 [010] (-77)
6C2D  00                 [011] (-77)
6C2E  00                 [012] (-77)
6C2F  B1                 [013] (-77)
6C30  04                 [014] (-76)
6C31  00                 [015] (-72)
6C32  00                 [016] (-71)
6C33  B1                 [017] (-71)
6C34  04                 [018] (-71)
6C35  00                 [019] (-71)
6C36  00                 [020] (-71)
6C37  B1                 [021] (-70)
6C38  04                 [022] (-70)
6C39  00                 [023] (-70)
6C3A  00                 [024] (-70)
6C3B  B1                 [025] (-70)
6C3C  04                 [026] (-70)
6C3D  00                 [027] (-70)
6C3E  00                 [028] (-68)
6C3F  B1                 [029] (-68)
6C40  04                 [030] (-68)
6C41  00                 [031] (-68)
6C42  00                 [032] (-68)
6C43  B2                 [033] (-67)
6C44  04                 [034] (-67)
6C45  00                 [035] (-67)
6C46  00                 [036] (-67)
6C47  B3                 [037] (-67)
6C48  04                 [038] (-67)
6C49  00                 [039] (-65)
6C4A  00                 [040] (-65)
6C4B  B3                 [041] (-65)
6C4C  04                 [042] (-65)
6C4D  00                 [043] (-65)
6C4E  00                 [044] (-64)
6C4F  B3                 [045] (-64)
6C50  04                 [046] (-64)
6C51  00                 [047] (-64)
6C52  00                 [048] (-64)
6C53  B3                 [049] (-64)
6C54  04                 [050] (-64)
6C55  00                 [051] (-62)
6C56  00                 [052] (-62)
6C57  B4                 [053] (-62)
6C58  04                 [054] (-62)
6C59  00                 [055] (-62)
6C5A  00                 [056] (-61)
6C5B  B8                 [057] (-61)
6C5C  04                 [058] (-61)
6C5D  00                 [059] (-61)
6C5E  00                 [060] (-61)
6C5F  B9                 [061] (-61)
6C60  04                 [062] (-61)
6C61  00                 [063] (-59)
6C62  00                 [064] (-59)
6C63  B9                 [065] (-59)
6C64  04                 [066] (-59)
6C65  00                 [067] (-56)
6C66  00                 [068] (-56)
6C67  B9                 [069] (-56)
6C68  04                 [070] (-53)
6C69  00                 [071] (-53)
6C6A  00                 [072] (-53)
6C6B  B9                 [073] (-52)
6C6C  04                 [074] (-52)
6C6D  00                 [075] (-52)
6C6E  00                 [076] (-52)
6C6F  B9                 [077] (-52)
6C70  04                 [078] (-51)
6C71  00                 [079] (-51)
6C72  00                 [080] (-51)
6C73  BA                 [081] (-51)
6C74  04                 [082] (-50)
6C75  00                 [083] (-50)
6C76  00                 [084] (-50)
6C77  BA                 [085] (-50)
6C78  04                 [086] (-50)
6C79  00                 [087] (-50)
6C7A  00                 [088] (-50)
6C7B  BA                 [089] (-49)
6C7C  04                 [090] (-49)
6C7D  00                 [091] (-49)
6C7E  00                 [092] (-49)
6C7F  BA                 [093] (-49)
6C80  04                 [094] (-49)
6C81  00                 [095] (-49)
6C82  00                 [096] (-49)
6C83  BA                 [097] (-51)
6C84  04                 [098] (-45)
6C85  00                 [099] (-45)
6C86  00                 [100] (-45)
6C87  BA                 [101] (-41)
6C88  04                 [102] (-41)
6C89  00                 [103] (-41)
6C8A  00                 [104] (-41)
6C8B  BA                 [105] (-40)
6C8C  04                 [106] (-40)
6C8D  00                 [107] (-40)
6C8E  00                 [108] (-40)
6C8F  BC                 [109] (-39)
6C90  04                 [110] (-39)
6C91  00                 [111] (-39)
6C92  00                 [112] (-38)
6C93  BC                 [113] (-38)
6C94  04                 [114] (-38)
6C95  00                 [115] (-38)
6C96  00                 [116] (-38)
6C97  BC                 [117] (-37)
6C98  04                 [118] (-37)
6C99  00                 [119] (-37)
6C9A  00                 [120] (-37)
6C9B  BC                 [121] (-37)
6C9C  04                 [122] (-37)
6C9D  00                 [123] (-37)
6C9E  00                 [124] (-37)
6C9F  BC                 [125] (-36)
6CA0  04                 [126] (-36)
6CA1  00                 [127] (-36)
6CA2  00                 [128] (-36)
6CA3  BD                 [129] (-36)
6CA4  04                 [130] (-36)
6CA5  00                 [131] (-35)
6CA6  00                 [132] (-35)
6CA7  BD                 [133] (-35)
6CA8  04                 [134] (-35)
6CA9  00                 [135] (-35)
6CAA  00                 [136] (-35)
6CAB  BD                 [137] (-35)
6CAC  04                 [138] (-35)
6CAD  00                 [139] (-35)
6CAE  00                 [140] (-35)
6CAF  BD                 [141] (-41)
6CB0  04                 [142] (-31)
6CB1  00                 [143] (-31)
6CB2  00                 [144] (-31)
6CB3  BD                 [145] (-29)
6CB4  04                 [146] (-29)
6CB5  00                 [147] (-29)
6CB6  00                 [148] (-28)
6CB7  BD                 [149] (-27)
6CB8  04                 [150] (-27)
6CB9  00                 [151] (-26)
6CBA  00                 [152] (-26)
6CBB  BF                 [153] (-25)
6CBC  04                 [154] (-24)
6CBD  00                 [155] (-24)
6CBE  00                 [156] (-23)
6CBF  BF                 [157] (-22)
6CC0  04                 [158] (-21)
6CC1  00                 [159] (-19)
6CC2  00                 [160] (-19)
6CC3  BF                 [161] (-18)
6CC4  04                 [162] (-18)
6CC5  00                 [163] (-17)
6CC6  00                 [164] (-17)
6CC7  BF                 [165] (-17)
6CC8  04                 [166] (-17)
6CC9  00                 [167] (-17)
6CCA  00                 [168] (-17)
6CCB  BF                 [169] (-16)
6CCC  04                 [170] (-16)
6CCD  00                 [171] (-16)
6CCE  00                 [172] (-16)
6CCF  C0                 [173] (-16)
6CD0  04                 [174] (-16)
6CD1  00                 [175] (-16)
6CD2  00                 [176] (-15)
6CD3  C0                 [177] (-15)
6CD4  04                 [178] (-14)
6CD5  00                 [179] (-14)
6CD6  00                 [180] (-14)
6CD7  C0                 [181] (-14)
6CD8  04                 [182] (-13)
6CD9  00                 [183] (-9)
6CDA  00                 [184] (-9)
6CDB  C0                 [185] (-8)
6CDC  04                 [186] (-8)
6CDD  00                 [187] (-8)
6CDE  00                 [188] (-8)
6CDF  C0                 [189] (-7)
6CE0  04                 [190] (-7)
6CE1  00                 [191] (-7)
6CE2  00                 [192] (-7)
6CE3  C0                 [193] (-7)
6CE4  04                 [194] (-7)
6CE5  00                 [195] (-7)
6CE6  00                 [196] (-7)
6CE7  C0                 [197] (-7)
6CE8  04                 [198] (-7)
6CE9  00                 [199] (-7)
6CEA  00                 [200] (-5)
6CEB  C2                 [201] (-5)
6CEC  04                 [202] (-5)
6CED  00                 [203] (-5)
6CEE  00                 [204] (-5)
6CEF  C2                 [205] (-4)
6CF0  04                 [206] (-4)
6CF1  00                 [207] (-3)
6CF2  00                 [208] (-3)
6CF3  C2                 [209] (-2)
6CF4  04                 [210] (-2)
6CF5  00                 [211] (-1)
6CF6  00                 [212] (-1)
6CF7  C2                 [213] (0)
6CF8  04                 [214] (0)
6CF9  00                 [215] (0)
6CFA  00                 [216] (1)
6CFB  C2                 [217] (1)
6CFC  04                 [218] (1)
6CFD  00                 [219] (1)
6CFE  00                 [220] (1)
6CFF  C3                 [221] (1)
6D00  04                 [222] (2)
6D01  00                 [223] (2)
6D02  00                 [224] (2)
6D03  C3                 [225] (2)
6D04  04                 [226] (3)
6D05  00                 [227] (3)
6D06  00                 [228] (3)
6D07  C3                 [229] (3)
6D08  04                 [230] (5)
6D09  00                 [231] (5)
6D0A  00                 [232] (6)
6D0B  C3                 [233] (6)
6D0C  04                 [234] (6)
6D0D  00                 [235] (6)
6D0E  00                 [236] (6)
6D0F  C3                 [237] (6)
6D10  04                 [238] (6)
6D11  00                 [239] (7)
6D12  00                 [240] (7)
6D13  C3                 [241] (7)
6D14  04                 [242] (7)
6D15  00                 [243] (7)
6D16  00                 [244] (7)
6D17  C3                 [245] (7)
6D18  04                 [246] (8)
6D19  00                 [247] (8)
6D1A  00                 [248] (8)
6D1B  C5                 [249] (8)
6D1C  04                 [250] (8)
6D1D  00                 [251] (9)
6D1E  00                 [252] (9)
6D1F  C5                 [253] (9)
6D20  04                 [254] (9)
6D21  00                 [255] (9)
6D22  00                 [256] (10)
6D23  C5                 [257] (10)
6D24  04                 [258] (10)
6D25  00                 [259] (10)
6D26  00                 [260] (10)
6D27  C5                 [261] (13)
6D28  04                 [262] (13)
6D29  00                 [263] (14)
6D2A  00                 [264] (14)
6D2B  C8                 [265] (14)
6D2C  04                 [266] (14)
6D2D  00                 [267] (14)
6D2E  00                 [268] (17)
6D2F  C8                 [269] (17)
6D30  04                 [270] (17)
6D31  00                 [271] (17)
6D32  00                 [272] (17)
6D33  C8                 [273] (20)
6D34  04                 [274] (20)
6D35  00                 [275] (20)
6D36  00                 [276] (-8)
6D37  CB                 [277] (24)
6D38  04                 [278] (24)
6D39  00                 [279] (24)
6D3A  00                 [280] (24)
6D3B  CB                 [281] (24)
6D3C  04                 [282] (24)
6D3D  00                 [283] (24)
6D3E  00                 [284] (24)
6D3F  CB                 [285] (24)
6D40  04                 [286] (24)
6D41  00                 [287] (25)
6D42  00                 [288] (25)
6D43  CC                 [289] (25)
6D44  04                 [290] (25)
6D45  00                 [291] (26)
6D46  00                 [292] (26)
6D47  CC                 [293] (26)
6D48  04                 [294] (26)
6D49  00                 [295] (28)
6D4A  00                 [296] (28)
6D4B  CC                 [297] (28)
6D4C  04                 [298] (29)
6D4D  00                 [299] (29)
6D4E  00                 [300] (29)
6D4F  CC                 [301] (35)
6D50  04                 [302] (36)
6D51  00                 [303] (36)
6D52  00                 [304] (36)
6D53  CC                 [305] (36)
6D54  04                 [306] (37)
6D55  00                 [307] (37)
6D56  00                 [308] (37)
6D57  CD                 [309] (37)
6D58  04                 [310] (37)
6D59  00                 [311] (37)
6D5A  00                 [312] (37)
6D5B  CD                 [313] (37)
6D5C  04                 [314] (37)
6D5D  00                 [315] (37)
6D5E  00                 [316] (37)
6D5F  CD                 [317] (37)
6D60  04                 [318] (37)
6D61  00                 [319] (37)
6D62  00                 [320] (37)
6D63  CD                 [321] (37)
6D64  04                 [322] (37)
6D65  00                 [323] (38)
6D66  00                 [324] (39)
6D67  CE                 [325] (36)
6D68  04                 [326] (40)
6D69  00                 [327] (43)
6D6A  00                 [328] (43)
6D6B  CE                 [329] (44)
6D6C  04                 [330] (44)
6D6D  00                 [331] (46)
6D6E  00                 [332] (46)
6D6F  CE                 [333] (46)
6D70  04                 [334] (47)
6D71  00                 [335] (50)
6D72  00                 [336] (50)
6D73  CE                 [337] (50)
6D74  04                 [338] (52)
6D75  00                 [339] (52)
6D76  00                 [340] (52)
6D77  CE                 [341] (52)
6D78  04                 [342] (52)
6D79  00                 [343] (52)
6D7A  00                 [344] (52)
6D7B  CE                 [345] (52)
6D7C  04                 [346] (52)
6D7D  00                 [347] (52)
6D7E  00                 [348] (53)
6D7F  CE                 [349] (53)
6D80  04                 [350] (53)
6D81  00                 [351] (54)
6D82  00                 [352] (54)
6D83  CF                 [353] (54)
6D84  04                 [354] (58)
6D85  00                 [355] (58)
6D86  00                 [356] (59)
6D87  CF                 [357] (59)
6D88  04                 [358] (62)
                         * locals:
71BB  00                 sizelocvars (0)
                         * upvalues:
71BC  00                 sizeupvalues (0)
                         ** end of function **

                         
71BD                     ** function [28] definition (level 2)
                         ** start of function **
71BD  00                 string size (0)
                         source name: (none)
71BF  0A                 line defined (1344)
71C0  C4                 last line defined (1348)
71C1  0A                 nups (0)
71C2  00                 numparams (2)
71C3  02                 is_vararg (0)
71C4  00                 maxstacksize (5)
                         * code:
71C6  0C                 sizecode (12)
71C7  9D000000           [01] getglobal  2   0        ; 1074689893
71CB  DD400000           [02] getglobal  3   1        ; _T
71CF  CE80C001           [03] gettable   3   3   258  ; "SQUADLINK_ExterminateKillProgressChanged"
71D3  A2800001           [04] call       2   2   2  
71D7  98400000           [05] test       2       1    ; to [7] if false
71DB  1A000180           [06] jmp        5            ; to [12]
71DF  9D400000           [07] getglobal  2   1        ; _T
71E3  8EC04001           [08] gettable   2   2   259  ; -31986482
71E7  D2000000           [09] move       3   0      
71EB  12018000           [10] move       4   1      
71EF  A2408001           [11] call       2   3   1  
71F3  1E008000           [12] return     0   1      
                         * constants:
71F7  04                 sizek (4)
71F8  01                 const type 3
71F9  65770E40           const [0]: (1074689893)
71FD  04                 const type 4
71FE  03                 string size (3)
71FF  5F5400             "_T\0"
                         const [1]: "_T"
7202  04                 const type 4
7203  29                 string size (41)
7204  53515541444C494E+  "SQUADLIN"
720C  4B5F45787465726D+  "K_Exterm"
7214  696E6174654B696C+  "inateKil"
721C  6C50726F67726573+  "lProgres"
7224  734368616E676564+  "sChanged"
722C  00                 "\0"
                         const [2]: "SQUADLINK_ExterminateKillProgressChanged"
722D  01                 const type 3
722E  CEEC17FE           const [3]: (-31986482)
                         * functions:
7232  00                 sizep (0)
                         * lines:
7233  0C                 sizelineinfo (12)
                         [pc] (line)
7234  41                 [01] (65)
7235  05                 [02] (65)
7236  00                 [03] (65)
7237  00                 [04] (65)
7238  41                 [05] (65)
7239  05                 [06] (65)
723A  00                 [07] (66)
723B  00                 [08] (66)
723C  41                 [09] (66)
723D  05                 [10] (66)
723E  00                 [11] (66)
723F  00                 [12] (68)
                         * locals:
7264  00                 sizelocvars (0)
                         * upvalues:
7265  00                 sizeupvalues (0)
                         ** end of function **

                         
7266                     ** function [29] definition (level 2)
                         ** start of function **
7266  00                 string size (0)
                         source name: (none)
7268  0A                 line defined (1350)
7269  CA                 last line defined (1354)
726A  0A                 nups (0)
726B  00                 numparams (2)
726C  02                 is_vararg (0)
726D  00                 maxstacksize (5)
                         * code:
726F  0C                 sizecode (12)
7270  9D000000           [01] getglobal  2   0        ; 1074689893
7274  DD400000           [02] getglobal  3   1        ; _T
7278  CE80C001           [03] gettable   3   3   258  ; "SQUADLINK_ExterminateKillTotalChanged"
727C  A2800001           [04] call       2   2   2  
7280  98400000           [05] test       2       1    ; to [7] if false
7284  1A000180           [06] jmp        5            ; to [12]
7288  9D400000           [07] getglobal  2   1        ; _T
728C  8EC04001           [08] gettable   2   2   259  ; -566791055
7290  D2000000           [09] move       3   0      
7294  12018000           [10] move       4   1      
7298  A2408001           [11] call       2   3   1  
729C  1E008000           [12] return     0   1      
                         * constants:
72A0  04                 sizek (4)
72A1  01                 const type 3
72A2  65770E40           const [0]: (1074689893)
72A6  04                 const type 4
72A7  03                 string size (3)
72A8  5F5400             "_T\0"
                         const [1]: "_T"
72AB  04                 const type 4
72AC  26                 string size (38)
72AD  53515541444C494E+  "SQUADLIN"
72B5  4B5F45787465726D+  "K_Exterm"
72BD  696E6174654B696C+  "inateKil"
72C5  6C546F74616C4368+  "lTotalCh"
72CD  616E67656400       "anged\0"
                         const [2]: "SQUADLINK_ExterminateKillTotalChanged"
72D3  01                 const type 3
72D4  717437DE           const [3]: (-566791055)
                         * functions:
72D8  00                 sizep (0)
                         * lines:
72D9  0C                 sizelineinfo (12)
                         [pc] (line)
72DA  47                 [01] (71)
72DB  05                 [02] (71)
72DC  00                 [03] (71)
72DD  00                 [04] (71)
72DE  47                 [05] (71)
72DF  05                 [06] (71)
72E0  00                 [07] (72)
72E1  00                 [08] (72)
72E2  47                 [09] (72)
72E3  05                 [10] (72)
72E4  00                 [11] (72)
72E5  00                 [12] (74)
                         * locals:
730A  00                 sizelocvars (0)
                         * upvalues:
730B  00                 sizeupvalues (0)
                         ** end of function **

                         
730C                     ** function [30] definition (level 2)
                         ** start of function **
730C  00                 string size (0)
                         source name: (none)
730E  0A                 line defined (1356)
730F  AE                 last line defined (1582)
7310  0C                 nups (25)
7311  19                 numparams (3)
7312  03                 is_vararg (0)
7313  00                 maxstacksize (42)
                         * code:
7316  03                 sizecode (498)
7317  DD000000           [001] getglobal  3   0        ; gRegion
731B  E440C001           [002] self       3   3   257  ; -774964848
731F  E2800001           [003] call       3   2   2  
7323  1D810000           [004] getglobal  4   2        ; gGameRules
7327  64C1C001           [005] self       5   3   259  ; 537471347
732B  62810001           [006] call       5   2   2  
732F  A401C102           [007] self       6   5   260  ; -472735398
7333  A2810001           [008] call       6   2   2  
7337  E441C102           [009] self       7   5   261  ; -354168336
733B  E2810001           [010] call       7   2   2  
733F  12020003           [011] move       8   6      
7343  52028000           [012] move       9   1      
7347  9D020000           [013] getglobal  10  0        ; gRegion
734B  A4824105           [014] self       10  10  262  ; 65205951
734F  A2820001           [015] call       10  2   2  
7353  DDC20100           [016] getglobal  11  7        ; 1074689893
7357  12030005           [017] move       12  10     
735B  E2820001           [018] call       11  2   2  
735F  D8420000           [019] test       11      1    ; to [21] if false
7363  1A400480           [020] jmp        18           ; to [39]
7367  DDC20100           [021] getglobal  11  7        ; 1074689893
736B  24034205           [022] self       12  10  264  ; -564624675
736F  22030001           [023] call       12  2   0  
7373  E2820000           [024] call       11  0   2  
7377  D8420000           [025] test       11      1    ; to [27] if false
737B  1AC00280           [026] jmp        12           ; to [39]
737F  E4024205           [027] self       11  10  264  ; -564624675
7383  E2820001           [028] call       11  2   2  
7387  E442C205           [029] self       11  11  265  ; -278808677
738B  E2820001           [030] call       11  2   2  
738F  1DC30100           [031] getglobal  12  7        ; 1074689893
7393  52038005           [032] move       13  11     
7397  22830001           [033] call       12  2   2  
739B  18430000           [034] test       12      1    ; to [36] if false
739F  1A800080           [035] jmp        3            ; to [39]
73A3  2483C205           [036] self       12  11  266  ; -995965930
73A7  97030000           [037] loadbool   14  0   0    ; false
73AB  22438001           [038] call       12  3   1  
73AF  1DC30200           [039] getglobal  12  11       ; -1799570112
73B3  52030000           [040] move       13  0      
73B7  99030300           [041] loadk      14  12       ; "OnKilled"
73BB  22438001           [042] call       12  3   1  
73BF  24434302           [043] self       12  4   269  ; -803877924
73C3  93030000           [044] getupval   14  0      
73C7  D2038004           [045] move       15  9      
73CB  22430002           [046] call       12  4   1  
73CF  13038000           [047] getupval   12  1      
73D3  53030001           [048] getupval   13  2      
73D7  04430306           [049] mul        12  12  13 
73DB  53030001           [050] getupval   13  2      
73DF  44438304           [051] mul        13  9   13 
fail op	21
73E3  15400306           [052] concat     0   12  13 
73E7  1A000580           [053] jmp        21           ; to [75]
73EB  9D830300           [054] getglobal  14  14       ; math
73EF  8EC34307           [055] gettable   14  14  271  ; -1962864584
73F3  DD830300           [056] getglobal  15  14       ; math
73F7  CE03C407           [057] gettable   15  15  272  ; -1124579617
73FB  13048001           [058] getupval   16  3      
73FF  4D048306           [059] sub        17  13  12 
7403  93048001           [060] getupval   18  3      
7407  5C848408           [061] div        17  17  18 
740B  93040002           [062] getupval   18  4      
740F  44848408           [063] mul        17  17  18 
7413  0D440408           [064] sub        16  16  17 
7417  E2830001           [065] call       15  2   2  
741B  13048002           [066] getupval   16  5      
741F  A2838001           [067] call       14  3   2  
7423  DD830300           [068] getglobal  15  14       ; math
7427  CE43C407           [069] gettable   15  15  273  ; -150971781
742B  0D048306           [070] sub        16  13  12 
742F  1C840308           [071] div        16  16  14 
7433  E2830001           [072] call       15  2   2  
7437  03C28303           [073] add        8   7   15 
743B  1A400280           [074] jmp        10           ; to [85]
743F  DC038306           [075] div        15  13  12 
7443  1D840300           [076] getglobal  16  14       ; math
7447  0E444408           [077] gettable   16  16  273  ; -150971781
744B  5D840400           [078] getglobal  17  18       ; -1828500651
744F  92040003           [079] move       18  6      
7453  D2048003           [080] move       19  7      
7457  12058007           [081] move       20  15     
745B  62040002           [082] call       17  4   0  
745F  22840000           [083] call       16  0   2  
7463  12020008           [084] move       8   16     
7467  1DC40400           [085] getglobal  16  19       ; _T
746B  0C04028A           [086] settable   16  276 8    ; "EndlessModeEnemyLevel"
fail op	21
746F  1580808A           [087] concat     0   277 2  
7473  1A800080           [088] jmp        3            ; to [92]
7477  13040003           [089] getupval   16  6      
747B  52040001           [090] move       17  2      
747F  22440001           [091] call       16  2   1  
7483  1D840500           [092] getglobal  16  22       ; gPromotedToHost
7487  18440000           [093] test       16      1    ; to [95] if false
748B  1A000080           [094] jmp        1            ; to [96]
748F  1A000480           [095] jmp        17           ; to [113]
7493  24C44502           [096] self       16  4   279  ; 266971028
7497  22840001           [097] call       16  2   2  
749B  18040000           [098] test       16      0    ; to [100] if true
749F  1A000180           [099] jmp        5            ; to [105]
74A3  24044602           [100] self       16  4   280  ; -317790213
74A7  93048003           [101] getupval   18  7      
74AB  22848001           [102] call       16  3   2  
fail op	35
74AF  23404608           [103] close      0  
74B3  1AC00180           [104] jmp        8            ; to [113]
74B7  13040004           [105] getupval   16  8      
74BB  22848000           [106] call       16  1   2  
74BF  18040000           [107] test       16      0    ; to [109] if true
74C3  1AC00080           [108] jmp        4            ; to [113]
74C7  13048004           [109] getupval   16  9      
74CB  52040002           [110] move       17  4      
74CF  92048004           [111] move       18  9      
74D3  22448001           [112] call       16  3   1  
74D7  17040000           [113] loadbool   16  0   0    ; false
74DB  5D840500           [114] getglobal  17  22       ; gPromotedToHost
74DF  93040005           [115] getupval   18  10     
74E3  A2848000           [116] call       18  1   2  
74E7  E4844609           [117] self       19  18  282  ; -1428211602
74EB  52050008           [118] move       21  16     
74EF  E2448001           [119] call       19  3   1  
74F3  E4C44602           [120] self       19  4   283  ; 516385015
74F7  E2840001           [121] call       19  2   2  
74FB  1DC50100           [122] getglobal  20  7        ; 1074689893
74FF  52058009           [123] move       21  19     
7503  22850001           [124] call       20  2   2  
7507  18450000           [125] test       20      1    ; to [127] if false
750B  1A800080           [126] jmp        3            ; to [130]
750F  2405C709           [127] self       20  19  284  ; -1105824
7513  97050000           [128] loadbool   22  0   0    ; false
7517  22458001           [129] call       20  3   1  
751B  17050000           [130] loadbool   20  0   0    ; false
751F  65050000           [131] closure    21  0      
7523  13008005           [132] getupval   0   11     
7527  13000006           [133] getupval   0   12     
752B  1200000A           [134] move       0   20     
752F  13008006           [135] getupval   0   13     
7533  12008004           [136] move       0   9      
7537  12000002           [137] move       0   4      
753B  9DC50100           [138] getglobal  22  7        ; 1074689893
753F  D2058009           [139] move       23  19     
7543  A2850001           [140] call       22  2   2  
7547  98450000           [141] test       22      1    ; to [143] if false
754B  1A000180           [142] jmp        5            ; to [148]
754F  A445C709           [143] self       22  19  285  ; 1520803588
7553  1D860700           [144] getglobal  24  30       ; -332969190
7557  59C60700           [145] loadk      25  31       ; "Combat"
755B  22060001           [146] call       24  2   0  
755F  A2450000           [147] call       22  0   1  
7563  93050004           [148] getupval   22  8      
7567  A2858000           [149] call       22  1   2  
756B  98050000           [150] test       22      0    ; to [152] if true
756F  1A400580           [151] jmp        22           ; to [174]
7573  93058006           [152] getupval   22  13     
7577  8E05480B           [153] gettable   22  22  288  ; -1199985263
757B  D9450800           [154] loadk      23  33       ; "/Lotus/Language/Game/waveCount"
757F  19460500           [155] loadk      24  21       ; 0
7583  59860800           [156] loadk      25  34       ; " "
7587  9D860300           [157] getglobal  26  14       ; math
758B  8E46440D           [158] gettable   26  26  273  ; -150971781
758F  E4064602           [159] self       27  4   280  ; -317790213
7593  53070006           [160] getupval   29  12     
7597  99470500           [161] loadk      30  21       ; 0
759B  E2860002           [162] call       27  4   2  
fail op	21
759F  15C0868A           [163] concat     0   277 27 
75A3  1A800080           [164] jmp        3            ; to [168]
75A7  D9460600           [165] loadk      27  25       ; 0
75AB  D8460000           [166] test       27      1    ; to [168] if false
75AF  1A000080           [167] jmp        1            ; to [169]
75B3  D9460500           [168] loadk      27  21       ; 0
75B7  C3C68604           [169] add        27  9   27 
75BB  A2860001           [170] call       26  2   2  
75BF  4286860C           [171] concat     25  25  26 
75C3  A2450002           [172] call       22  4   1  
75C7  1A400580           [173] jmp        22           ; to [196]
fail op	35
75CB  6340C600           [174] close      1  
75CF  1A400080           [175] jmp        2            ; to [178]
75D3  58040000           [176] test       17      0    ; to [178] if true
75D7  1A400480           [177] jmp        18           ; to [196]
75DB  57040000           [178] loadbool   17  0   0    ; false
75DF  93058006           [179] getupval   22  13     
75E3  8E05480B           [180] gettable   22  22  288  ; -1199985263
75E7  D9C50800           [181] loadk      23  35       ; "/Lotus/Language/Game/WaveRemaining"
75EB  19460500           [182] loadk      24  21       ; 0
75EF  5D060900           [183] getglobal  25  36       ; -1615931716
75F3  99860800           [184] loadk      26  34       ; " "
75F7  D3060007           [185] getupval   27  14     
75FB  E2868000           [186] call       27  1   2  
75FF  1D870300           [187] getglobal  28  14       ; math
7603  0E47440E           [188] gettable   28  28  273  ; -150971781
7607  52078004           [189] move       29  9      
760B  22870001           [190] call       28  2   2  
760F  CD06870D           [191] sub        27  27  28 
7613  C346C60D           [192] add        27  27  281  ; 0
7617  82C6060D           [193] concat     26  26  27 
761B  62060001           [194] call       25  2   0  
761F  A2450000           [195] call       22  0   1  
7623  9D450900           [196] getglobal  22  37       ; -1817107093
7627  D9850900           [197] loadk      23  38       ; "Defense wave: "
762B  12068004           [198] move       24  9      
762F  C205860B           [199] concat     23  23  24 
7633  A2450001           [200] call       22  2   1  
7637  99C50900           [201] loadk      22  39       ; "StartedDefenseWave"
763B  D2058004           [202] move       23  9      
763F  82C5050B           [203] concat     22  22  23 
7643  D3058007           [204] getupval   23  15     
7647  CE05CA0B           [205] gettable   23  23  296  ; -78033590
764B  1DC60400           [206] getglobal  24  19       ; _T
764F  0E464A0C           [207] gettable   24  24  297  ; "MissionTransmissionSet"
7653  5D860700           [208] getglobal  25  30       ; -332969190
7657  9206000B           [209] move       26  22     
765B  62860001           [210] call       25  2   2  
765F  99460500           [211] loadk      26  21       ; 0
7663  E2450002           [212] call       23  4   1  
7667  E4054602           [213] self       23  4   280  ; -317790213
766B  53060006           [214] getupval   25  12     
766F  99460500           [215] loadk      26  21       ; 0
7673  E2850002           [216] call       23  4   2  
fail op	21
7677  15C0858A           [217] concat     0   277 23 
767B  1A000180           [218] jmp        5            ; to [224]
767F  E4454302           [219] self       23  4   269  ; -803877924
7683  53060006           [220] getupval   25  12     
7687  99460500           [221] loadk      26  21       ; 0
768B  E2450002           [222] call       23  4   1  
768F  1A000D80           [223] jmp        53           ; to [277]
7693  D3058005           [224] getupval   23  11     
7697  CE85CA0B           [225] gettable   23  23  298  ; 611846917
769B  E2858000           [226] call       23  1   2  
769F  D8450000           [227] test       23      1    ; to [229] if false
76A3  1A400480           [228] jmp        18           ; to [247]
76A7  D3058005           [229] getupval   23  11     
76AB  CEC5CA0B           [230] gettable   23  23  299  ; -1626548999
76AF  19060B00           [231] loadk      24  44       ; "DefenseExterminate"
76B3  4606800C           [232] loadnil    25  25     
76B7  9206800A           [233] move       26  21     
76BB  E2450002           [234] call       23  4   1  
76BF  D3058005           [235] getupval   23  11     
76C3  CE45CB0B           [236] gettable   23  23  301  ; 844858906
76C7  19060B00           [237] loadk      24  44       ; "DefenseExterminate"
76CB  59860B00           [238] loadk      25  46       ; "KillCount"
76CF  93060008           [239] getupval   26  16     
76D3  E2450002           [240] call       23  4   1  
76D7  D3058005           [241] getupval   23  11     
76DB  CE45CB0B           [242] gettable   23  23  301  ; 844858906
76DF  19060B00           [243] loadk      24  44       ; "DefenseExterminate"
76E3  59C60B00           [244] loadk      25  47       ; "KillsRequired"
76E7  93068008           [245] getupval   26  17     
76EB  E2450002           [246] call       23  4   1  
76EF  D3050009           [247] getupval   23  18     
76F3  12060000           [248] move       24  0      
76F7  52060004           [249] move       25  8      
76FB  E2458001           [250] call       23  3   1  
76FF  D9050C00           [251] loadk      23  48       ; 0
fail op	21
7703  15C0858A           [252] concat     0   277 23 
7707  1A800580           [253] jmp        23           ; to [277]
770B  2446CC02           [254] self       24  5   305  ; -1626084341
770F  22860001           [255] call       24  2   2  
7713  D205000C           [256] move       23  24     
7717  1D860C00           [257] getglobal  24  50       ; markerThreshold
fail op	21
771B  1500860B           [258] concat     0   23  24 
771F  1A400180           [259] jmp        6            ; to [266]
7723  18440000           [260] test       16      1    ; to [262] if false
7727  1AC00080           [261] jmp        4            ; to [266]
772B  17048000           [262] loadbool   16  1   0    ; true
772F  24864609           [263] self       24  18  282  ; -1428211602
7733  92060008           [264] move       26  16     
7737  22468001           [265] call       24  3   1  
773B  1DC60C00           [266] getglobal  24  51       ; 538022378
773F  59460600           [267] loadk      25  25       ; 0
7743  22460001           [268] call       24  2   1  
7747  24064D02           [269] self       24  4   308  ; 1157879449
774B  93068009           [270] getupval   26  19     
774F  22868001           [271] call       24  3   2  
7753  64464302           [272] self       25  4   269  ; -803877924
7757  D3068009           [273] getupval   27  19     
775B  1207000C           [274] move       28  24     
775F  62460002           [275] call       25  4   1  
7763  1A80F97F           [276] jmp        -25          ; to [252]
7767  5DC60100           [277] getglobal  25  7        ; 1074689893
776B  92068009           [278] move       26  19     
776F  62860001           [279] call       25  2   2  
7773  58460000           [280] test       25      1    ; to [282] if false
7777  1A000180           [281] jmp        5            ; to [287]
777B  6446C709           [282] self       25  19  285  ; 1520803588
777F  DD860700           [283] getglobal  27  30       ; -332969190
7783  19470D00           [284] loadk      28  53       ; "Idle"
7787  E2060001           [285] call       27  2   0  
778B  62460000           [286] call       25  0   1  
778F  17040000           [287] loadbool   16  0   0    ; false
7793  64864609           [288] self       25  18  282  ; -1428211602
7797  D2060008           [289] move       27  16     
779B  62468001           [290] call       25  3   1  
779F  53060004           [291] getupval   25  8      
77A3  62868000           [292] call       25  1   2  
77A7  58460000           [293] test       25      1    ; to [295] if false
77AB  1A001480           [294] jmp        81           ; to [376]
77AF  5D860000           [295] getglobal  25  2        ; gGameRules
77B3  6486CD0C           [296] self       25  25  310  ; -1201441975
77B7  62860001           [297] call       25  2   2  
77BB  93060007           [298] getupval   26  14     
77BF  A2868000           [299] call       26  1   2  
77C3  D9460600           [300] loadk      27  25       ; 0
77C7  24074602           [301] self       28  4   280  ; -317790213
77CB  93070000           [302] getupval   30  0      
77CF  D207800D           [303] move       31  27     
77D3  22870002           [304] call       28  4   2  
77D7  D206000E           [305] move       27  28     
fail op	33
77DB  21C0060D           [306] tforloop   0       27   ; to [308] if exit
77DF  1A400780           [307] jmp        30           ; to [338]
77E3  1DC70100           [308] getglobal  28  7        ; 1074689893
77E7  4EC7CD0C           [309] gettable   29  25  311  ; "eomBoss"
77EB  22870001           [310] call       28  2   2  
77EF  18470000           [311] test       28      1    ; to [313] if false
77F3  1AC00080           [312] jmp        4            ; to [317]
77F7  1307000A           [313] getupval   28  20     
77FB  52070000           [314] move       29  0      
77FF  92070004           [315] move       30  8      
7803  22478001           [316] call       28  3   1  
7807  1DC70400           [317] getglobal  28  19       ; _T
780B  0E074E0E           [318] gettable   28  28  312  ; "gQuestMission"
780F  18070000           [319] test       28      0    ; to [321] if true
7813  1A000280           [320] jmp        9            ; to [330]
7817  13078007           [321] getupval   28  15     
781B  0E074A0E           [322] gettable   28  28  296  ; -78033590
781F  5DC70400           [323] getglobal  29  19       ; _T
7823  4E47CA0E           [324] gettable   29  29  297  ; "MissionTransmissionSet"
7827  9D870700           [325] getglobal  30  30       ; -332969190
782B  D9470E00           [326] loadk      31  57       ; "ObjectiveComplete"
782F  A2870001           [327] call       30  2   2  
7833  D9470500           [328] loadk      31  21       ; 0
7837  22470002           [329] call       28  4   1  
783B  24874E02           [330] self       28  4   314  ; 80052573
783F  22470001           [331] call       28  2   1  
7843  1DC70C00           [332] getglobal  28  51       ; 538022378
7847  59C70E00           [333] loadk      29  59       ; 0
784B  22470001           [334] call       28  2   1  
784F  1AC0FE7F           [335] jmp        -4           ; to [332]
7853  1E008000           [336] return     0   1      
7857  1A400980           [337] jmp        38           ; to [376]
785B  1D070F00           [338] getglobal  28  60       ; minWavesToComplete
785F  0D07070D           [339] sub        28  26  28 
fail op	33
7863  21C0060E           [340] tforloop   0       27   ; to [342] if exit
7867  1A800080           [341] jmp        3            ; to [345]
786B  24474F02           [342] self       28  4   317  ; 952266004
786F  97078000           [343] loadbool   30  1   0    ; true
7873  22478001           [344] call       28  3   1  
7877  1DC70100           [345] getglobal  28  7        ; 1074689893
787B  4E87CF0C           [346] gettable   29  25  318  ; "eomBossTaunt"
787F  22870001           [347] call       28  2   2  
7883  18470000           [348] test       28      1    ; to [350] if false
7887  1A400680           [349] jmp        26           ; to [376]
788B  1FC7CF0D           [350] mod        28  27  319  ; 0
fail op	35
788F  2340450E           [351] close      0  
7893  1A800580           [352] jmp        23           ; to [376]
7897  1D070000           [353] getglobal  28  0        ; gRegion
789B  2407500E           [354] self       28  28  320  ; 1224466847
789F  22870001           [355] call       28  2   2  
78A3  59470600           [356] loadk      29  25       ; 0
78A7  8A07000E           [357] len        30  28     
78AB  D9470600           [358] loadk      31  25       ; 0
78AF  50870380           [359] forprep    29  15       ; to [375]
78B3  5DC80100           [360] getglobal  33  7        ; 1074689893
78B7  8E08080E           [361] gettable   34  28  32 
78BB  A4485011           [362] self       34  34  321  ; -2135866365
78BF  A2080001           [363] call       34  2   0  
78C3  62880000           [364] call       33  0   2  
78C7  58480000           [365] test       33      1    ; to [367] if false
78CB  1AC00180           [366] jmp        8            ; to [375]
78CF  4E08080E           [367] gettable   33  28  32 
78D3  6448D010           [368] self       33  33  321  ; -2135866365
78D7  62880001           [369] call       33  2   2  
78DB  6488D010           [370] self       33  33  322  ; 145557915
78DF  DDC81000           [371] getglobal  35  67       ; 2083004503
78E3  0E89CF0C           [372] gettable   36  25  318  ; "eomBossTaunt"
78E7  E2080001           [373] call       35  2   0  
78EB  62480000           [374] call       33  0   1  
78EF  54C7FB7F           [375] forloop    29  -16      ; to [360] if loop
78F3  59081100           [376] loadk      33  68       ; "DefenseWave"
78F7  92088004           [377] move       34  9      
78FB  42888810           [378] concat     33  33  34 
78FF  93088007           [379] getupval   34  15     
7903  8E084A11           [380] gettable   34  34  296  ; -78033590
7907  DDC80400           [381] getglobal  35  19       ; _T
790B  CE48CA11           [382] gettable   35  35  297  ; "MissionTransmissionSet"
790F  1D890700           [383] getglobal  36  30       ; -332969190
7913  52098010           [384] move       37  33     
7917  22890001           [385] call       36  2   2  
791B  59490500           [386] loadk      37  21       ; 0
791F  A2480002           [387] call       34  4   1  
7923  4342C604           [388] add        9   9   281  ; 0
7927  A4484302           [389] self       34  4   269  ; -803877924
792B  13090000           [390] getupval   36  0      
792F  52098004           [391] move       37  9      
7933  A2480002           [392] call       34  4   1  
7937  93080004           [393] getupval   34  8      
793B  A2888000           [394] call       34  1   2  
793F  98080000           [395] test       34      0    ; to [397] if true
7943  1A000380           [396] jmp        13           ; to [410]
7947  9308800A           [397] getupval   34  21     
fail op	35
794B  63808804           [398] close      1  
794F  1A800180           [399] jmp        7            ; to [407]
7953  9308000B           [400] getupval   34  22     
7957  8E485111           [401] gettable   34  34  325  ; -172381913
795B  A2888000           [402] call       34  1   2  
795F  98080000           [403] test       34      0    ; to [405] if true
7963  1A000180           [404] jmp        5            ; to [410]
fail op	35
7967  23C0CF04           [405] close      0  
796B  1A800080           [406] jmp        3            ; to [410]
796F  A4484F02           [407] self       34  4   317  ; 952266004
7973  17098000           [408] loadbool   36  1   0    ; true
7977  A2488001           [409] call       34  3   1  
797B  93080001           [410] getupval   34  2      
797F  84888804           [411] mul        34  9   34 
fail op	21
7983  15800806           [412] concat     0   12  34 
7987  1A000580           [413] jmp        21           ; to [435]
798B  DD880300           [414] getglobal  35  14       ; math
798F  CEC8C311           [415] gettable   35  35  271  ; -1962864584
7993  1D890300           [416] getglobal  36  14       ; math
7997  0E094412           [417] gettable   36  36  272  ; -1124579617
799B  53098001           [418] getupval   37  3      
799F  8D090311           [419] sub        38  34  12 
79A3  D3098001           [420] getupval   39  3      
79A7  9CC90913           [421] div        38  38  39 
79AB  D3090002           [422] getupval   39  4      
79AF  84C90913           [423] mul        38  38  39 
79B3  4D898912           [424] sub        37  37  38 
79B7  22890001           [425] call       36  2   2  
79BB  53098002           [426] getupval   37  5      
79BF  E2888001           [427] call       35  3   2  
79C3  1D890300           [428] getglobal  36  14       ; math
79C7  0E494412           [429] gettable   36  36  273  ; -150971781
79CB  4D090311           [430] sub        37  34  12 
79CF  5CC98812           [431] div        37  37  35 
79D3  22890001           [432] call       36  2   2  
79D7  03028903           [433] add        8   7   36 
79DB  1A400280           [434] jmp        10           ; to [445]
79DF  1C090311           [435] div        36  34  12 
79E3  5D890300           [436] getglobal  37  14       ; math
79E7  4E49C412           [437] gettable   37  37  273  ; -150971781
79EB  9D890400           [438] getglobal  38  18       ; -1828500651
79EF  D2090003           [439] move       39  6      
79F3  120A8003           [440] move       40  7      
79F7  520A0012           [441] move       41  36     
79FB  A2090002           [442] call       38  4   0  
79FF  62890000           [443] call       37  0   2  
7A03  12028012           [444] move       8   37     
7A07  5DC90400           [445] getglobal  37  19       ; _T
7A0B  4C09028A           [446] settable   37  276 8    ; "EndlessModeEnemyLevel"
7A0F  5D090F00           [447] getglobal  37  60       ; minWavesToComplete
7A13  8D49C604           [448] sub        38  9   281  ; 0
7A17  9F490913           [449] mod        38  38  37 
fail op	35
7A1B  23404513           [450] close      0  
7A1F  1A800380           [451] jmp        15           ; to [467]
7A23  93090004           [452] getupval   38  8      
7A27  A2898000           [453] call       38  1   2  
7A2B  98090000           [454] test       38      0    ; to [456] if true
7A2F  1A000280           [455] jmp        9            ; to [465]
7A33  93098004           [456] getupval   38  9      
7A37  D2090002           [457] move       39  4      
7A3B  120A8004           [458] move       40  9      
7A3F  A2498001           [459] call       38  3   1  
7A43  9309800B           [460] getupval   38  23     
7A47  98090000           [461] test       38      0    ; to [463] if true
7A4B  1AC00080           [462] jmp        4            ; to [467]
7A4F  1A400880           [463] jmp        34           ; to [498]
7A53  1A400080           [464] jmp        2            ; to [467]
7A57  A4895102           [465] self       38  4   326  ; 791372430
7A5B  A2490001           [466] call       38  2   1  
7A5F  9D090000           [467] getglobal  38  0        ; gRegion
7A63  A4C95113           [468] self       38  38  327  ; -1485896174
7A67  1D8A0700           [469] getglobal  40  30       ; -332969190
7A6B  590A1200           [470] loadk      41  72       ; "DefenseMoverScript"
7A6F  220A0001           [471] call       40  2   0  
7A73  A2890000           [472] call       38  0   2  
7A77  DDC90100           [473] getglobal  39  7        ; 1074689893
7A7B  120A0013           [474] move       40  38     
7A7F  E2890001           [475] call       39  2   2  
7A83  D8490000           [476] test       39      1    ; to [478] if false
7A87  1A000280           [477] jmp        9            ; to [487]
7A8B  DDC90100           [478] getglobal  39  7        ; 1074689893
7A8F  0E4A4613           [479] gettable   40  38  281  ; 0
7A93  E2890001           [480] call       39  2   2  
7A97  D8490000           [481] test       39      1    ; to [483] if false
7A9B  1AC00080           [482] jmp        4            ; to [487]
7A9F  CE494613           [483] gettable   39  38  281  ; 0
7AA3  E449D213           [484] self       39  39  329  ; -1923578185
7AA7  598A1200           [485] loadk      41  74       ; "Execute"
7AAB  E2498001           [486] call       39  3   1  
7AAF  18050000           [487] test       20      0    ; to [489] if true
7AB3  1A000180           [488] jmp        5            ; to [494]
7AB7  17050000           [489] loadbool   20  0   0    ; false
7ABB  D3090003           [490] getupval   39  6      
7ABF  194A0500           [491] loadk      40  21       ; 0
7AC3  E2490001           [492] call       39  2   1  
7AC7  1AC0A67F           [493] jmp        -356         ; to [138]
7ACB  D3090003           [494] getupval   39  6      
7ACF  130A000C           [495] getupval   40  24     
7AD3  E2490001           [496] call       39  2   1  
7AD7  1AC0A57F           [497] jmp        -360         ; to [138]
7ADB  1E008000           [498] return     0   1      
                         * constants:
7ADF  4B                 sizek (75)
7AE0  04                 const type 4
7AE1  08                 string size (8)
7AE2  67526567696F6E00   "gRegion\0"
                         const [0]: "gRegion"
7AEA  01                 const type 3
7AEB  90F9CED1           const [1]: (-774964848)
7AEF  04                 const type 4
7AF0  0B                 string size (11)
7AF1  6747616D6552756C+  "gGameRul"
7AF9  657300             "es\0"
                         const [2]: "gGameRules"
7AFC  01                 const type 3
7AFD  73290920           const [3]: (537471347)
7B01  01                 const type 3
7B02  5AA1D2E3           const [4]: (-472735398)
7B06  01                 const type 3
7B07  F0D1E3EA           const [5]: (-354168336)
7B0B  01                 const type 3
7B0C  BFF6E203           const [6]: (65205951)
7B10  01                 const type 3
7B11  65770E40           const [7]: (1074689893)
7B15  01                 const type 3
7B16  DD8258DE           const [8]: (-564624675)
7B1A  01                 const type 3
7B1B  9BB761EF           const [9]: (-278808677)
7B1F  01                 const type 3
7B20  16C4A2C4           const [10]: (-995965930)
7B24  01                 const type 3
7B25  40BDBC94           const [11]: (-1799570112)
7B29  04                 const type 4
7B2A  09                 string size (9)
7B2B  4F6E4B696C6C6564+  "OnKilled"
7B33  00                 "\0"
                         const [12]: "OnKilled"
7B34  01                 const type 3
7B35  DCCB15D0           const [13]: (-803877924)
7B39  04                 const type 4
7B3A  05                 string size (5)
7B3B  6D61746800         "math\0"
                         const [14]: "math"
7B40  01                 const type 3
7B41  3810018B           const [15]: (-1962864584)
7B45  01                 const type 3
7B46  DF46F8BC           const [16]: (-1124579617)
7B4A  01                 const type 3
7B4B  7B5A00F7           const [17]: (-150971781)
7B4F  01                 const type 3
7B50  554B0393           const [18]: (-1828500651)
7B54  04                 const type 4
7B55  03                 string size (3)
7B56  5F5400             "_T\0"
                         const [19]: "_T"
7B59  04                 const type 4
7B5A  16                 string size (22)
7B5B  456E646C6573734D+  "EndlessM"
7B63  6F6465456E656D79+  "odeEnemy"
7B6B  4C6576656C00       "Level\0"
                         const [20]: "EndlessModeEnemyLevel"
7B71  03                 const type 3
7B72  00000000           const [21]: (0)
7B76  04                 const type 4
7B77  10                 string size (16)
7B78  6750726F6D6F7465+  "gPromote"
7B80  64546F486F737400   "dToHost\0"
                         const [22]: "gPromotedToHost"
7B88  01                 const type 3
7B89  94A7E90F           const [23]: (266971028)
7B8D  01                 const type 3
7B8E  FBE70EED           const [24]: (-317790213)
7B92  03                 const type 3
7B93  0000803F           const [25]: (0)
7B97  01                 const type 3
7B98  6E38DFAA           const [26]: (-1428211602)
7B9C  01                 const type 3
7B9D  F768C71E           const [27]: (516385015)
7BA1  01                 const type 3
7BA2  6020EFFF           const [28]: (-1105824)
7BA6  01                 const type 3
7BA7  049FA55A           const [29]: (1520803588)
7BAB  01                 const type 3
7BAC  1A4B27EC           const [30]: (-332969190)
7BB0  04                 const type 4
7BB1  07                 string size (7)
7BB2  436F6D62617400     "Combat\0"
                         const [31]: "Combat"
7BB9  01                 const type 3
7BBA  91AD79B8           const [32]: (-1199985263)
7BBE  04                 const type 4
7BBF  1F                 string size (31)
7BC0  2F4C6F7475732F4C+  "/Lotus/L"
7BC8  616E67756167652F+  "anguage/"
7BD0  47616D652F776176+  "Game/wav"
7BD8  65436F756E7400     "eCount\0"
                         const [33]: "/Lotus/Language/Game/waveCount"
7BDF  04                 const type 4
7BE0  02                 string size (2)
7BE1  2000               " \0"
                         const [34]: " "
7BE3  04                 const type 4
7BE4  23                 string size (35)
7BE5  2F4C6F7475732F4C+  "/Lotus/L"
7BED  616E67756167652F+  "anguage/"
7BF5  47616D652F576176+  "Game/Wav"
7BFD  6552656D61696E69+  "eRemaini"
7C05  6E6700             "ng\0"
                         const [35]: "/Lotus/Language/Game/WaveRemaining"
7C08  01                 const type 3
7C09  BCD6AE9F           const [36]: (-1615931716)
7C0D  01                 const type 3
7C0E  6B25B193           const [37]: (-1817107093)
7C12  04                 const type 4
7C13  0F                 string size (15)
7C14  446566656E736520+  "Defense "
7C1C  776176653A2000     "wave: \0"
                         const [38]: "Defense wave: "
7C23  04                 const type 4
7C24  13                 string size (19)
7C25  5374617274656444+  "StartedD"
7C2D  6566656E73655761+  "efenseWa"
7C35  766500             "ve\0"
                         const [39]: "StartedDefenseWave"
7C38  01                 const type 3
7C39  4A4D59FB           const [40]: (-78033590)
7C3D  04                 const type 4
7C3E  17                 string size (23)
7C3F  4D697373696F6E54+  "MissionT"
7C47  72616E736D697373+  "ransmiss"
7C4F  696F6E53657400     "ionSet\0"
                         const [41]: "MissionTransmissionSet"
7C56  01                 const type 3
7C57  050B7824           const [42]: (611846917)
7C5B  01                 const type 3
7C5C  F9D40C9F           const [43]: (-1626548999)
7C60  04                 const type 4
7C61  13                 string size (19)
7C62  446566656E736545+  "DefenseE"
7C6A  787465726D696E61+  "xtermina"
7C72  746500             "te\0"
                         const [44]: "DefenseExterminate"
7C75  01                 const type 3
7C76  1A865B32           const [45]: (844858906)
7C7A  04                 const type 4
7C7B  0A                 string size (10)
7C7C  4B696C6C436F756E+  "KillCoun"
7C84  7400               "t\0"
                         const [46]: "KillCount"
7C86  04                 const type 4
7C87  0E                 string size (14)
7C88  4B696C6C73526571+  "KillsReq"
7C90  756972656400       "uired\0"
                         const [47]: "KillsRequired"
7C96  03                 const type 3
7C97  00002041           const [48]: (0)
7C9B  01                 const type 3
7C9C  0BEC139F           const [49]: (-1626084341)
7CA0  04                 const type 4
7CA1  10                 string size (16)
7CA2  6D61726B65725468+  "markerTh"
7CAA  726573686F6C6400   "reshold\0"
                         const [50]: "markerThreshold"
7CB2  01                 const type 3
7CB3  EA911120           const [51]: (538022378)
7CB7  01                 const type 3
7CB8  99D60345           const [52]: (1157879449)
7CBC  04                 const type 4
7CBD  05                 string size (5)
7CBE  49646C6500         "Idle\0"
                         const [53]: "Idle"
7CC3  01                 const type 3
7CC4  497363B8           const [54]: (-1201441975)
7CC8  04                 const type 4
7CC9  08                 string size (8)
7CCA  656F6D426F737300   "eomBoss\0"
                         const [55]: "eomBoss"
7CD2  04                 const type 4
7CD3  0E                 string size (14)
7CD4  6751756573744D69+  "gQuestMi"
7CDC  7373696F6E00       "ssion\0"
                         const [56]: "gQuestMission"
7CE2  04                 const type 4
7CE3  12                 string size (18)
7CE4  4F626A6563746976+  "Objectiv"
7CEC  65436F6D706C6574+  "eComplet"
7CF4  6500               "e\0"
                         const [57]: "ObjectiveComplete"
7CF6  01                 const type 3
7CF7  5D81C504           const [58]: (80052573)
7CFB  03                 const type 3
7CFC  00007A44           const [59]: (0)
7D00  04                 const type 4
7D01  13                 string size (19)
7D02  6D696E5761766573+  "minWaves"
7D0A  546F436F6D706C65+  "ToComple"
7D12  746500             "te\0"
                         const [60]: "minWavesToComplete"
7D15  01                 const type 3
7D16  146DC238           const [61]: (952266004)
7D1A  04                 const type 4
7D1B  0D                 string size (13)
7D1C  656F6D426F737354+  "eomBossT"
7D24  61756E7400         "aunt\0"
                         const [62]: "eomBossTaunt"
7D29  03                 const type 3
7D2A  00000040           const [63]: (0)
7D2E  01                 const type 3
7D2F  9FE1FB48           const [64]: (1224466847)
7D33  01                 const type 3
7D34  0344B180           const [65]: (-2135866365)
7D38  01                 const type 3
7D39  9B09AD08           const [66]: (145557915)
7D3D  01                 const type 3
7D3E  5720287C           const [67]: (2083004503)
7D42  04                 const type 4
7D43  0C                 string size (12)
7D44  446566656E736557+  "DefenseW"
7D4C  61766500           "ave\0"
                         const [68]: "DefenseWave"
7D50  01                 const type 3
7D51  27A9B9F5           const [69]: (-172381913)
7D55  01                 const type 3
7D56  8E622B2F           const [70]: (791372430)
7D5A  01                 const type 3
7D5B  12066FA7           const [71]: (-1485896174)
7D5F  04                 const type 4
7D60  13                 string size (19)
7D61  446566656E73654D+  "DefenseM"
7D69  6F76657253637269+  "overScri"
7D71  707400             "pt\0"
                         const [72]: "DefenseMoverScript"
7D74  01                 const type 3
7D75  B786588D           const [73]: (-1923578185)
7D79  04                 const type 4
7D7A  08                 string size (8)
7D7B  4578656375746500   "Execute\0"
                         const [74]: "Execute"
                         * functions:
7D83  01                 sizep (1)
                         
7D84                     ** function [0] definition (level 3)
                         ** start of function **
7D84  00                 string size (0)
                         source name: (none)
7D86  0B                 line defined (1421)
7D87  93                 last line defined (1427)
7D88  0B                 nups (6)
7D89  06                 numparams (1)
7D8A  01                 is_vararg (0)
7D8B  00                 maxstacksize (10)
                         * code:
7D8D  22                 sizecode (34)
7D8E  53000000           [01] getupval   1   0      
7D92  4E00C000           [02] gettable   1   1   256  ; "SUCCESS"
fail op	35
7D96  23400000           [03] close      0  
7D9A  1A000780           [04] jmp        29           ; to [34]
7D9E  5D400000           [05] getglobal  1   1        ; gGameRules
7DA2  6480C000           [06] self       1   1   258  ; -803877924
7DA6  D3008000           [07] getupval   3   1      
7DAA  19C10000           [08] loadk      4   3        ; 0
7DAE  62400002           [09] call       1   4   1  
7DB2  57008000           [10] loadbool   1   1   0    ; true
fail op	8
7DB6  48000001           [11] setupval   1   2      
7DBA  53008001           [12] getupval   1   3      
7DBE  4E00C100           [13] gettable   1   1   260  ; -1199985263
7DC2  99400100           [14] loadk      2   5        ; "/Lotus/Language/Game/waveCount"
7DC6  D9800100           [15] loadk      3   6        ; 0
7DCA  19C10100           [16] loadk      4   7        ; " "
7DCE  5D010200           [17] getglobal  5   8        ; math
7DD2  4E41C202           [18] gettable   5   5   265  ; -150971781
7DD6  93010002           [19] getupval   6   4      
7DDA  62810001           [20] call       5   2   2  
7DDE  93018002           [21] getupval   6   5      
7DE2  A4814203           [22] self       6   6   266  ; -317790213
7DE6  13028000           [23] getupval   8   1      
7DEA  59820100           [24] loadk      9   6        ; 0
7DEE  A2810002           [25] call       6   4   2  
fail op	21
7DF2  15800183           [26] concat     0   262 6  
7DF6  1A800080           [27] jmp        3            ; to [31]
7DFA  99C10200           [28] loadk      6   11       ; "+1"
7DFE  98410000           [29] test       6       1    ; to [31] if false
7E02  1A000080           [30] jmp        1            ; to [32]
7E06  99010300           [31] loadk      6   12       ; ""
7E0A  02810102           [32] concat     4   4   6  
7E0E  62400002           [33] call       1   4   1  
7E12  1E008000           [34] return     0   1      
                         * constants:
7E16  0D                 sizek (13)
7E17  04                 const type 4
7E18  08                 string size (8)
7E19  5355434345535300   "SUCCESS\0"
                         const [0]: "SUCCESS"
7E21  04                 const type 4
7E22  0B                 string size (11)
7E23  6747616D6552756C+  "gGameRul"
7E2B  657300             "es\0"
                         const [1]: "gGameRules"
7E2E  01                 const type 3
7E2F  DCCB15D0           const [2]: (-803877924)
7E33  03                 const type 3
7E34  0000803F           const [3]: (0)
7E38  01                 const type 3
7E39  91AD79B8           const [4]: (-1199985263)
7E3D  04                 const type 4
7E3E  1F                 string size (31)
7E3F  2F4C6F7475732F4C+  "/Lotus/L"
7E47  616E67756167652F+  "anguage/"
7E4F  47616D652F776176+  "Game/wav"
7E57  65436F756E7400     "eCount\0"
                         const [5]: "/Lotus/Language/Game/waveCount"
7E5E  03                 const type 3
7E5F  00000000           const [6]: (0)
7E63  04                 const type 4
7E64  02                 string size (2)
7E65  2000               " \0"
                         const [7]: " "
7E67  04                 const type 4
7E68  05                 string size (5)
7E69  6D61746800         "math\0"
                         const [8]: "math"
7E6E  01                 const type 3
7E6F  7B5A00F7           const [9]: (-150971781)
7E73  01                 const type 3
7E74  FBE70EED           const [10]: (-317790213)
7E78  04                 const type 4
7E79  03                 string size (3)
7E7A  2B3100             "+1\0"
                         const [11]: "+1"
7E7D  04                 const type 4
7E7E  01                 string size (0)
                         const [12]: ""
                         * functions:
7E80  00                 sizep (0)
                         * lines:
7E81  22                 sizelineinfo (34)
                         [pc] (line)
7E82  8E                 [01] (-114)
7E83  05                 [02] (-114)
7E84  00                 [03] (-114)
7E85  00                 [04] (-114)
7E86  8E                 [05] (-113)
7E87  05                 [06] (-113)
7E88  00                 [07] (-113)
7E89  00                 [08] (-113)
7E8A  8E                 [09] (-113)
7E8B  05                 [10] (-112)
7E8C  00                 [11] (-112)
7E8D  00                 [12] (-111)
7E8E  8E                 [13] (-111)
7E8F  05                 [14] (-111)
7E90  00                 [15] (-111)
7E91  00                 [16] (-111)
7E92  8F                 [17] (-111)
7E93  05                 [18] (-111)
7E94  00                 [19] (-111)
7E95  00                 [20] (-111)
7E96  8F                 [21] (-111)
7E97  05                 [22] (-111)
7E98  00                 [23] (-111)
7E99  00                 [24] (-111)
7E9A  8F                 [25] (-111)
7E9B  05                 [26] (-111)
7E9C  00                 [27] (-111)
7E9D  00                 [28] (-111)
7E9E  8F                 [29] (-111)
7E9F  05                 [30] (-111)
7EA0  00                 [31] (-111)
7EA1  00                 [32] (-111)
7EA2  8F                 [33] (-111)
7EA3  05                 [34] (-109)
                         * locals:
7F0A  00                 sizelocvars (0)
                         * upvalues:
7F0B  00                 sizeupvalues (0)
                         ** end of function **

                         * lines:
7F0D  03                 sizelineinfo (498)
                         [pc] (line)
7F0E  4D                 [001] (77)
7F0F  05                 [002] (77)
7F10  00                 [003] (77)
7F11  00                 [004] (78)
7F12  4D                 [005] (79)
7F13  05                 [006] (79)
7F14  00                 [007] (80)
7F15  00                 [008] (80)
7F16  4D                 [009] (81)
7F17  05                 [010] (81)
7F18  00                 [011] (82)
7F19  00                 [012] (84)
7F1A  4E                 [013] (86)
7F1B  05                 [014] (86)
7F1C  00                 [015] (86)
7F1D  00                 [016] (87)
7F1E  4F                 [017] (87)
7F1F  05                 [018] (87)
7F20  00                 [019] (87)
7F21  00                 [020] (87)
7F22  4F                 [021] (87)
7F23  05                 [022] (87)
7F24  00                 [023] (87)
7F25  00                 [024] (87)
7F26  50                 [025] (87)
7F27  05                 [026] (87)
7F28  00                 [027] (88)
7F29  00                 [028] (88)
7F2A  50                 [029] (88)
7F2B  05                 [030] (88)
7F2C  00                 [031] (89)
7F2D  00                 [032] (89)
7F2E  51                 [033] (89)
7F2F  05                 [034] (89)
7F30  00                 [035] (89)
7F31  00                 [036] (90)
7F32  51                 [037] (90)
7F33  05                 [038] (90)
7F34  00                 [039] (94)
7F35  00                 [040] (94)
7F36  52                 [041] (94)
7F37  05                 [042] (94)
7F38  00                 [043] (96)
7F39  00                 [044] (96)
7F3A  54                 [045] (96)
7F3B  05                 [046] (96)
7F3C  00                 [047] (98)
7F3D  00                 [048] (98)
7F3E  56                 [049] (98)
7F3F  05                 [050] (99)
7F40  00                 [051] (99)
7F41  00                 [052] (100)
7F42  56                 [053] (100)
7F43  05                 [054] (101)
7F44  00                 [055] (101)
7F45  00                 [056] (101)
7F46  56                 [057] (101)
7F47  05                 [058] (101)
7F48  00                 [059] (101)
7F49  00                 [060] (101)
7F4A  57                 [061] (101)
7F4B  05                 [062] (101)
7F4C  00                 [063] (101)
7F4D  00                 [064] (101)
7F4E  57                 [065] (101)
7F4F  05                 [066] (101)
7F50  00                 [067] (101)
7F51  00                 [068] (102)
7F52  57                 [069] (102)
7F53  05                 [070] (102)
7F54  00                 [071] (102)
7F55  00                 [072] (102)
7F56  57                 [073] (102)
7F57  05                 [074] (102)
7F58  00                 [075] (104)
7F59  00                 [076] (105)
7F5A  57                 [077] (105)
7F5B  05                 [078] (105)
7F5C  00                 [079] (105)
7F5D  00                 [080] (105)
7F5E  57                 [081] (105)
7F5F  05                 [082] (105)
7F60  00                 [083] (105)
7F61  00                 [084] (105)
7F62  57                 [085] (108)
7F63  05                 [086] (108)
7F64  00                 [087] (110)
7F65  00                 [088] (110)
7F66  57                 [089] (111)
7F67  05                 [090] (111)
7F68  00                 [091] (111)
7F69  00                 [092] (115)
7F6A  57                 [093] (115)
7F6B  05                 [094] (115)
7F6C  00                 [095] (115)
7F6D  00                 [096] (118)
7F6E  57                 [097] (118)
7F6F  05                 [098] (118)
7F70  00                 [099] (118)
7F71  00                 [100] (118)
7F72  57                 [101] (118)
7F73  05                 [102] (118)
7F74  00                 [103] (118)
7F75  00                 [104] (118)
7F76  58                 [105] (118)
7F77  05                 [106] (118)
7F78  00                 [107] (118)
7F79  00                 [108] (118)
7F7A  58                 [109] (119)
7F7B  05                 [110] (119)
7F7C  00                 [111] (119)
7F7D  00                 [112] (119)
7F7E  58                 [113] (123)
7F7F  05                 [114] (124)
7F80  00                 [115] (125)
7F81  00                 [116] (125)
7F82  58                 [117] (126)
7F83  05                 [118] (126)
7F84  00                 [119] (126)
7F85  00                 [120] (127)
7F86  59                 [121] (127)
7F87  05                 [122] (-128)
7F88  00                 [123] (-128)
7F89  00                 [124] (-128)
7F8A  59                 [125] (-128)
7F8B  05                 [126] (-128)
7F8C  00                 [127] (-127)
7F8D  00                 [128] (-127)
7F8E  59                 [129] (-127)
7F8F  05                 [130] (-117)
7F90  00                 [131] (-109)
7F91  00                 [132] (-109)
7F92  59                 [133] (-109)
7F93  05                 [134] (-109)
7F94  00                 [135] (-109)
7F95  00                 [136] (-109)
7F96  59                 [137] (-109)
7F97  05                 [138] (-105)
7F98  00                 [139] (-105)
7F99  00                 [140] (-105)
7F9A  5A                 [141] (-105)
7F9B  05                 [142] (-105)
7F9C  00                 [143] (-104)
7F9D  00                 [144] (-104)
7F9E  5A                 [145] (-104)
7F9F  05                 [146] (-104)
7FA0  00                 [147] (-104)
7FA1  00                 [148] (-102)
7FA2  5A                 [149] (-102)
7FA3  05                 [150] (-102)
7FA4  00                 [151] (-102)
7FA5  00                 [152] (-100)
7FA6  5E                 [153] (-100)
7FA7  05                 [154] (-100)
7FA8  00                 [155] (-100)
7FA9  00                 [156] (-100)
7FAA  5E                 [157] (-100)
7FAB  05                 [158] (-100)
7FAC  00                 [159] (-100)
7FAD  00                 [160] (-100)
7FAE  5E                 [161] (-100)
7FAF  05                 [162] (-100)
7FB0  00                 [163] (-100)
7FB1  00                 [164] (-100)
7FB2  5E                 [165] (-100)
7FB3  05                 [166] (-100)
7FB4  00                 [167] (-100)
7FB5  00                 [168] (-100)
7FB6  60                 [169] (-100)
7FB7  05                 [170] (-100)
7FB8  00                 [171] (-100)
7FB9  00                 [172] (-100)
7FBA  60                 [173] (-100)
7FBB  05                 [174] (-99)
7FBC  00                 [175] (-99)
7FBD  00                 [176] (-99)
7FBE  60                 [177] (-99)
7FBF  05                 [178] (-97)
7FC0  00                 [179] (-96)
7FC1  00                 [180] (-96)
7FC2  60                 [181] (-96)
7FC3  05                 [182] (-96)
7FC4  00                 [183] (-96)
7FC5  00                 [184] (-96)
7FC6  62                 [185] (-96)
7FC7  05                 [186] (-96)
7FC8  00                 [187] (-96)
7FC9  00                 [188] (-96)
7FCA  62                 [189] (-96)
7FCB  05                 [190] (-96)
7FCC  00                 [191] (-96)
7FCD  00                 [192] (-96)
7FCE  62                 [193] (-96)
7FCF  05                 [194] (-96)
7FD0  00                 [195] (-96)
7FD1  00                 [196] (-94)
7FD2  63                 [197] (-94)
7FD3  05                 [198] (-94)
7FD4  00                 [199] (-94)
7FD5  00                 [200] (-94)
7FD6  63                 [201] (-91)
7FD7  05                 [202] (-91)
7FD8  00                 [203] (-91)
7FD9  00                 [204] (-90)
7FDA  64                 [205] (-90)
7FDB  05                 [206] (-90)
7FDC  00                 [207] (-90)
7FDD  00                 [208] (-90)
7FDE  64                 [209] (-90)
7FDF  05                 [210] (-90)
7FE0  00                 [211] (-90)
7FE1  00                 [212] (-90)
7FE2  65                 [213] (-88)
7FE3  05                 [214] (-88)
7FE4  00                 [215] (-88)
7FE5  00                 [216] (-88)
7FE6  65                 [217] (-88)
7FE7  05                 [218] (-88)
7FE8  00                 [219] (-87)
7FE9  00                 [220] (-87)
7FEA  65                 [221] (-87)
7FEB  05                 [222] (-87)
7FEC  00                 [223] (-87)
7FED  00                 [224] (-85)
7FEE  65                 [225] (-85)
7FEF  05                 [226] (-85)
7FF0  00                 [227] (-85)
7FF1  00                 [228] (-85)
7FF2  65                 [229] (-84)
7FF3  05                 [230] (-84)
7FF4  00                 [231] (-84)
7FF5  00                 [232] (-84)
7FF6  65                 [233] (-84)
7FF7  05                 [234] (-84)
7FF8  00                 [235] (-83)
7FF9  00                 [236] (-83)
7FFA  65                 [237] (-83)
7FFB  05                 [238] (-83)
7FFC  00                 [239] (-83)
7FFD  00                 [240] (-83)
7FFE  65                 [241] (-82)
7FFF  05                 [242] (-82)
8000  00                 [243] (-82)
8001  00                 [244] (-82)
8002  65                 [245] (-82)
8003  05                 [246] (-82)
8004  00                 [247] (-79)
8005  00                 [248] (-79)
8006  65                 [249] (-79)
8007  05                 [250] (-79)
8008  00                 [251] (-78)
8009  00                 [252] (-77)
800A  65                 [253] (-77)
800B  05                 [254] (-76)
800C  00                 [255] (-76)
800D  00                 [256] (-76)
800E  65                 [257] (-74)
800F  05                 [258] (-74)
8010  00                 [259] (-74)
8011  00                 [260] (-74)
8012  65                 [261] (-74)
8013  05                 [262] (-73)
8014  00                 [263] (-72)
8015  00                 [264] (-72)
8016  65                 [265] (-72)
8017  05                 [266] (-70)
8018  00                 [267] (-70)
8019  00                 [268] (-70)
801A  66                 [269] (-67)
801B  05                 [270] (-67)
801C  00                 [271] (-67)
801D  00                 [272] (-66)
801E  66                 [273] (-66)
801F  05                 [274] (-66)
8020  00                 [275] (-66)
8021  00                 [276] (-66)
8022  66                 [277] (-62)
8023  05                 [278] (-62)
8024  00                 [279] (-62)
8025  00                 [280] (-62)
8026  66                 [281] (-62)
8027  05                 [282] (-61)
8028  00                 [283] (-61)
8029  00                 [284] (-61)
802A  66                 [285] (-61)
802B  05                 [286] (-61)
802C  00                 [287] (-58)
802D  00                 [288] (-57)
802E  66                 [289] (-57)
802F  05                 [290] (-57)
8030  00                 [291] (-55)
8031  00                 [292] (-55)
8032  66                 [293] (-55)
8033  05                 [294] (-55)
8034  00                 [295] (-53)
8035  00                 [296] (-53)
8036  68                 [297] (-53)
8037  05                 [298] (-52)
8038  00                 [299] (-52)
8039  00                 [300] (-51)
803A  69                 [301] (-49)
803B  05                 [302] (-49)
803C  00                 [303] (-49)
803D  00                 [304] (-49)
803E  69                 [305] (-49)
803F  05                 [306] (-48)
8040  00                 [307] (-48)
8041  00                 [308] (-46)
8042  69                 [309] (-46)
8043  05                 [310] (-46)
8044  00                 [311] (-46)
8045  00                 [312] (-46)
8046  69                 [313] (-45)
8047  05                 [314] (-45)
8048  00                 [315] (-45)
8049  00                 [316] (-45)
804A  69                 [317] (-41)
804B  05                 [318] (-41)
804C  00                 [319] (-41)
804D  00                 [320] (-41)
804E  69                 [321] (-40)
804F  05                 [322] (-40)
8050  00                 [323] (-40)
8051  00                 [324] (-40)
8052  69                 [325] (-40)
8053  05                 [326] (-40)
8054  00                 [327] (-40)
8055  00                 [328] (-40)
8056  69                 [329] (-40)
8057  05                 [330] (-38)
8058  00                 [331] (-38)
8059  00                 [332] (-36)
805A  69                 [333] (-36)
805B  05                 [334] (-36)
805C  00                 [335] (-36)
805D  00                 [336] (-34)
805E  6C                 [337] (-34)
805F  05                 [338] (-31)
8060  00                 [339] (-31)
8061  00                 [340] (-31)
8062  6C                 [341] (-31)
8063  05                 [342] (-29)
8064  00                 [343] (-29)
8065  00                 [344] (-29)
8066  6E                 [345] (-26)
8067  05                 [346] (-26)
8068  00                 [347] (-26)
8069  00                 [348] (-26)
806A  6E                 [349] (-26)
806B  05                 [350] (-26)
806C  00                 [351] (-26)
806D  00                 [352] (-26)
806E  6F                 [353] (-24)
806F  05                 [354] (-24)
8070  00                 [355] (-24)
8071  00                 [356] (-23)
8072  6F                 [357] (-23)
8073  05                 [358] (-23)
8074  00                 [359] (-23)
8075  00                 [360] (-22)
8076  6F                 [361] (-22)
8077  05                 [362] (-22)
8078  00                 [363] (-22)
8079  00                 [364] (-22)
807A  73                 [365] (-22)
807B  05                 [366] (-22)
807C  00                 [367] (-21)
807D  00                 [368] (-21)
807E  73                 [369] (-21)
807F  05                 [370] (-21)
8080  00                 [371] (-21)
8081  00                 [372] (-21)
8082  73                 [373] (-21)
8083  05                 [374] (-21)
8084  00                 [375] (-23)
8085  00                 [376] (-8)
8086  73                 [377] (-8)
8087  05                 [378] (-8)
8088  00                 [379] (-7)
8089  00                 [380] (-7)
808A  76                 [381] (-7)
808B  05                 [382] (-7)
808C  00                 [383] (-7)
808D  00                 [384] (-7)
808E  76                 [385] (-7)
808F  05                 [386] (-7)
8090  00                 [387] (-7)
8091  00                 [388] (-5)
8092  76                 [389] (-4)
8093  05                 [390] (-4)
8094  00                 [391] (-4)
8095  00                 [392] (-4)
8096  76                 [393] (-2)
8097  05                 [394] (-2)
8098  00                 [395] (-2)
8099  00                 [396] (-2)
809A  76                 [397] (-2)
809B  05                 [398] (-2)
809C  00                 [399] (-2)
809D  00                 [400] (-2)
809E  76                 [401] (-2)
809F  05                 [402] (-2)
80A0  00                 [403] (-2)
80A1  00                 [404] (-2)
80A2  76                 [405] (-2)
80A3  05                 [406] (-2)
80A4  00                 [407] (-1)
80A5  00                 [408] (-1)
80A6  76                 [409] (-1)
80A7  05                 [410] (2)
80A8  00                 [411] (2)
80A9  00                 [412] (3)
80AA  76                 [413] (3)
80AB  05                 [414] (6)
80AC  00                 [415] (6)
80AD  00                 [416] (6)
80AE  76                 [417] (6)
80AF  05                 [418] (6)
80B0  00                 [419] (6)
80B1  00                 [420] (6)
80B2  76                 [421] (6)
80B3  05                 [422] (6)
80B4  00                 [423] (6)
80B5  00                 [424] (6)
80B6  76                 [425] (6)
80B7  05                 [426] (6)
80B8  00                 [427] (6)
80B9  00                 [428] (7)
80BA  76                 [429] (7)
80BB  05                 [430] (7)
80BC  00                 [431] (7)
80BD  00                 [432] (7)
80BE  77                 [433] (7)
80BF  05                 [434] (7)
80C0  00                 [435] (9)
80C1  00                 [436] (10)
80C2  77                 [437] (10)
80C3  05                 [438] (10)
80C4  00                 [439] (10)
80C5  00                 [440] (10)
80C6  77                 [441] (10)
80C7  05                 [442] (10)
80C8  00                 [443] (10)
80C9  00                 [444] (10)
80CA  77                 [445] (15)
80CB  05                 [446] (15)
80CC  00                 [447] (17)
80CD  00                 [448] (18)
80CE  7B                 [449] (18)
80CF  05                 [450] (18)
80D0  00                 [451] (18)
80D1  00                 [452] (19)
80D2  7C                 [453] (19)
80D3  05                 [454] (19)
80D4  00                 [455] (19)
80D5  00                 [456] (20)
80D6  7D                 [457] (20)
80D7  05                 [458] (20)
80D8  00                 [459] (20)
80D9  00                 [460] (21)
80DA  7D                 [461] (21)
80DB  05                 [462] (21)
80DC  00                 [463] (22)
80DD  00                 [464] (23)
80DE  7E                 [465] (26)
80DF  05                 [466] (26)
80E0  00                 [467] (31)
80E1  00                 [468] (31)
80E2  7E                 [469] (31)
80E3  05                 [470] (31)
80E4  00                 [471] (31)
80E5  00                 [472] (31)
80E6  7E                 [473] (32)
80E7  05                 [474] (32)
80E8  00                 [475] (32)
80E9  00                 [476] (32)
80EA  7F                 [477] (32)
80EB  05                 [478] (33)
80EC  00                 [479] (33)
80ED  00                 [480] (33)
80EE  7F                 [481] (33)
80EF  05                 [482] (33)
80F0  00                 [483] (34)
80F1  00                 [484] (34)
80F2  80                 [485] (34)
80F3  05                 [486] (34)
80F4  00                 [487] (38)
80F5  00                 [488] (38)
80F6  80                 [489] (39)
80F7  05                 [490] (40)
80F8  00                 [491] (40)
80F9  00                 [492] (40)
80FA  80                 [493] (40)
80FB  05                 [494] (42)
80FC  00                 [495] (42)
80FD  00                 [496] (42)
80FE  80                 [497] (43)
80FF  05                 [498] (46)
                         * locals:
86D6  00                 sizelocvars (0)
                         * upvalues:
86D7  00                 sizeupvalues (0)
                         ** end of function **

                         
86D8                     ** function [31] definition (level 2)
                         ** start of function **
86D8  00                 string size (0)
                         source name: (none)
86DA  0C                 line defined (1584)
86DB  B4                 last line defined (1716)
86DC  0D                 nups (22)
86DD  16                 numparams (0)
86DE  00                 is_vararg (0)
86DF  00                 maxstacksize (19)
                         * code:
86E2  02                 sizecode (309)
86E3  1D000000           [001] getglobal  0   0        ; gGameRules
86E7  5D400000           [002] getglobal  1   1        ; gRegion
86EB  6480C000           [003] self       1   1   258  ; -774964848
86EF  62800001           [004] call       1   2   2  
86F3  A4C0C000           [005] self       2   1   259  ; 537471347
86F7  A2800001           [006] call       2   2   2  
86FB  E4004100           [007] self       3   0   260  ; -803877924
86FF  53010000           [008] getupval   5   0      
8703  99410100           [009] loadk      6   5        ; 0
8707  E2400002           [010] call       3   4   1  
870B  E4004100           [011] self       3   0   260  ; -803877924
870F  53018000           [012] getupval   5   1      
8713  99410100           [013] loadk      6   5        ; 0
8717  E2400002           [014] call       3   4   1  
871B  E4004100           [015] self       3   0   260  ; -803877924
871F  53010001           [016] getupval   5   2      
8723  99810100           [017] loadk      6   6        ; 0
8727  E2400002           [018] call       3   4   1  
872B  DDC00100           [019] getglobal  3   7        ; 1074689893
872F  12010000           [020] move       4   0      
8733  E2800001           [021] call       3   2   2  
8737  D8000000           [022] test       3       0    ; to [24] if true
873B  1A000080           [023] jmp        1            ; to [25]
873F  1E008000           [024] return     0   1      
8743  DD400000           [025] getglobal  3   1        ; gRegion
8747  E400C201           [026] self       3   3   264  ; -1520831144
874B  E2800001           [027] call       3   2   2  
874F  D8400000           [028] test       3       1    ; to [30] if false
8753  1A000080           [029] jmp        1            ; to [31]
8757  1E008000           [030] return     0   1      
875B  DD400200           [031] getglobal  3   9        ; -332969190
875F  19810200           [032] loadk      4   10       ; "ObjectiveStart"
8763  E2800001           [033] call       3   2   2  
8767  1DC10100           [034] getglobal  4   7        ; 1074689893
876B  5DC10200           [035] getglobal  5   11       ; introTransmissionTagOverride
876F  22810001           [036] call       4   2   2  
8773  18410000           [037] test       4       1    ; to [39] if false
8777  1A400180           [038] jmp        6            ; to [45]
877B  1DC10200           [039] getglobal  4   11       ; introTransmissionTagOverride
877F  24014302           [040] self       4   4   268  ; 828278287
8783  22810001           [041] call       4   2   2  
8787  18010000           [042] test       4       0    ; to [44] if true
878B  1A000080           [043] jmp        1            ; to [45]
878F  DDC00200           [044] getglobal  3   11       ; introTransmissionTagOverride
8793  13018001           [045] getupval   4   3      
8797  0E414302           [046] gettable   4   4   269  ; -78033590
879B  5D810300           [047] getglobal  5   14       ; _T
879F  4EC1C302           [048] gettable   5   5   271  ; "MissionTransmissionSet"
87A3  92018001           [049] move       6   3      
87A7  D9810100           [050] loadk      7   6        ; 0
87AB  22410002           [051] call       4   4   1  
87AF  13010002           [052] getupval   4   4      
87B3  0E014402           [053] gettable   4   4   272  ; -694534839
87B7  53018002           [054] getupval   5   5      
87BB  22410001           [055] call       4   2   1  
87BF  13010003           [056] getupval   4   6      
87C3  22418000           [057] call       4   1   1  
87C7  1D410400           [058] getglobal  4   17       ; gFlashMgr
87CB  24814402           [059] self       4   4   274  ; 277467219
87CF  99C10400           [060] loadk      6   19       ; "LotusGameRules.DemoMode"
87D3  22818001           [061] call       4   3   2  
fail op	8
87D7  08018003           [062] setupval   4   7      
87DB  13010004           [063] getupval   4   8      
87DF  5D010500           [064] getglobal  5   20       ; spawncontrol
87E3  22810001           [065] call       4   2   2  
87E7  5D810300           [066] getglobal  5   14       ; _T
87EB  4C01818A           [067] settable   5   277 4    ; "DefenseAvatar"
87EF  59810500           [068] loadk      5   22       ; 0
87F3  9D410000           [069] getglobal  6   1        ; gRegion
87F7  A4014203           [070] self       6   6   264  ; -1520831144
87FB  A2810001           [071] call       6   2   2  
87FF  98010000           [072] test       6       0    ; to [74] if true
8803  1AC00080           [073] jmp        4            ; to [78]
8807  9DC10500           [074] getglobal  6   23       ; startupTimeout
fail op	21
880B  15800183           [075] concat     0   262 6  
880F  1A000080           [076] jmp        1            ; to [78]
8813  5DC10500           [077] getglobal  5   23       ; startupTimeout
8817  9D410000           [078] getglobal  6   1        ; gRegion
881B  A4014603           [079] self       6   6   280  ; -1485896174
881F  1D420200           [080] getglobal  8   9        ; -332969190
8823  59420600           [081] loadk      9   25       ; "FortStarter"
8827  22020001           [082] call       8   2   0  
882B  A2810000           [083] call       6   0   2  
882F  DDC10100           [084] getglobal  7   7        ; 1074689893
8833  12020003           [085] move       8   6      
8837  E2810001           [086] call       7   2   2  
883B  D8410000           [087] test       7       1    ; to [89] if false
883F  1A400180           [088] jmp        6            ; to [95]
8843  DD410000           [089] getglobal  7   1        ; gRegion
8847  E401C203           [090] self       7   7   264  ; -1520831144
884B  E2810001           [091] call       7   2   2  
884F  D8010000           [092] test       7       0    ; to [94] if true
8853  1A000080           [093] jmp        1            ; to [95]
8857  59410100           [094] loadk      5   5        ; 0
885B  E4814601           [095] self       7   2   282  ; -375466777
885F  E2810001           [096] call       7   2   2  
fail op	35
8863  23C0C603           [097] close      0  
8867  1A400D80           [098] jmp        54           ; to [153]
886B  DD010700           [099] getglobal  7   28       ; 538022378
886F  19820100           [100] loadk      8   6        ; 0
8873  E2410001           [101] call       7   2   1  
8877  DDC10100           [102] getglobal  7   7        ; 1074689893
887B  1D420700           [103] getglobal  8   29       ; portCheck
887F  E2810001           [104] call       7   2   2  
8883  D8410000           [105] test       7       1    ; to [107] if false
8887  1A000280           [106] jmp        9            ; to [116]
888B  DD410700           [107] getglobal  7   29       ; portCheck
888F  E481C703           [108] self       7   7   286  ; 1235147759
8893  E2810001           [109] call       7   2   2  
fail op	35
8897  2380C103           [110] close      0  
889B  1AC00080           [111] jmp        4            ; to [116]
889F  DD010700           [112] getglobal  7   28       ; 538022378
88A3  19820100           [113] loadk      8   6        ; 0
88A7  E2410001           [114] call       7   2   1  
88AB  1A80FD7F           [115] jmp        -9           ; to [107]
fail op	21
88AF  15400183           [116] concat     0   262 5  
88B3  1A00FA7F           [117] jmp        -23          ; to [95]
88B7  DDC10700           [118] getglobal  7   31       ; 1289681407
88BB  E2818000           [119] call       7   1   2  
88BF  4DC18102           [120] sub        5   5   7  
fail op	33
88C3  2180C102           [121] tforloop   0       262  ; to [123] if exit
88C7  1AC0F87F           [122] jmp        -28          ; to [95]
88CB  DD410000           [123] getglobal  7   1        ; gRegion
88CF  E401C803           [124] self       7   7   288  ; -1875307917
88D3  5D420200           [125] getglobal  9   9        ; -332969190
88D7  99420800           [126] loadk      10  33       ; "StartDefenseTrigger"
88DB  62020001           [127] call       9   2   0  
88DF  E2810000           [128] call       7   0   2  
88E3  1DC20100           [129] getglobal  8   7        ; 1074689893
88E7  52028003           [130] move       9   7      
88EB  22820001           [131] call       8   2   2  
88EF  18020000           [132] test       8       0    ; to [134] if true
88F3  1AC00280           [133] jmp        12           ; to [146]
88F7  13028004           [134] getupval   8   9      
88FB  0E824804           [135] gettable   8   8   290  ; -1084877855
88FF  59C20800           [136] loadk      9   35       ; "DefenseExterminate"
8903  93028004           [137] getupval   10  9      
8907  8E024905           [138] gettable   10  10  292  ; "INITIATOR_FAILURE"
890B  22428001           [139] call       8   3   1  
890F  1D020000           [140] getglobal  8   0        ; gGameRules
8913  24424904           [141] self       8   8   293  ; -34409044
8917  9D820900           [142] getglobal  10  38       ; Engine
891B  8EC24905           [143] gettable   10  10  295  ; "GameRules_GS_FAILURE"
891F  22428001           [144] call       8   3   1  
8923  1A00F37F           [145] jmp        -51          ; to [95]
8927  1D820300           [146] getglobal  8   14       ; _T
892B  0C424A94           [147] settable   8   296 297  ; "ForceDefenseTimer" 1
892F  2482CA03           [148] self       8   7   298  ; -636985499
8933  22420001           [149] call       8   2   1  
8937  1D820300           [150] getglobal  8   14       ; _T
893B  0CC24A94           [151] settable   8   296 299  ; "ForceDefenseTimer" nil
893F  1A40F17F           [152] jmp        -58          ; to [95]
8943  20010B00           [153] setglobal  4   44       ; goal
8947  19420100           [154] loadk      8   5        ; 0
894B  5D420B00           [155] getglobal  9   45       ; gChallengeMgr
894F  6482CB04           [156] self       9   9   302  ; 1694488284
8953  D7028000           [157] loadbool   11  1   0    ; true
8957  62428001           [158] call       9   3   1  
895B  64C24B00           [159] self       9   0   303  ; -249861443
895F  D3020005           [160] getupval   11  10     
8963  1D430200           [161] getglobal  12  9        ; -332969190
8967  22838000           [162] call       12  1   2  
896B  59830100           [163] loadk      13  6        ; 0
896F  97030000           [164] loadbool   14  0   0    ; false
8973  D7030000           [165] loadbool   15  0   0    ; false
8977  17048000           [166] loadbool   16  1   0    ; true
897B  62420004           [167] call       9   8   1  
897F  64024C00           [168] self       9   0   304  ; -1201441975
8983  62820001           [169] call       9   2   2  
8987  8E42CC04           [170] gettable   10  9   305  ; "goalTag"
898B  DD420200           [171] getglobal  11  9        ; -332969190
898F  19830C00           [172] loadk      12  50       ; "ProjectSinisterBonus"
8993  E2820001           [173] call       11  2   2  
fail op	35
8997  23C00205           [174] close      0  
899B  1AC00080           [175] jmp        4            ; to [180]
899F  E4024100           [176] self       11  0   260  ; -803877924
89A3  53038005           [177] getupval   13  11     
89A7  99430100           [178] loadk      14  5        ; 0
89AB  E2420002           [179] call       11  4   1  
89AF  D3020006           [180] getupval   11  12     
89B3  E2828000           [181] call       11  1   2  
89B7  D8020000           [182] test       11      0    ; to [184] if true
89BB  1AC00080           [183] jmp        4            ; to [188]
89BF  E4C24C02           [184] self       11  4   307  ; -1411785325
89C3  E2820001           [185] call       11  2   2  
89C7  E402CD05           [186] self       11  11  308  ; -565811444
89CB  E2420001           [187] call       11  2   1  
89CF  D3020002           [188] getupval   11  4      
89D3  CE02C405           [189] gettable   11  11  272  ; -694534839
89D7  13038006           [190] getupval   12  13     
89DB  59430D00           [191] loadk      13  53       ; 0
89DF  E2428001           [192] call       11  3   1  
89E3  DDC20100           [193] getglobal  11  7        ; 1074689893
89E7  1D830D00           [194] getglobal  12  54       ; objectiveMarker
89EB  E2820001           [195] call       11  2   2  
89EF  D8420000           [196] test       11      1    ; to [198] if false
89F3  1AC00080           [197] jmp        4            ; to [202]
89F7  DD820D00           [198] getglobal  11  54       ; objectiveMarker
89FB  E4C2CD05           [199] self       11  11  311  ; -1923578185
89FF  59030E00           [200] loadk      13  56       ; "Disable"
8A03  E2428001           [201] call       11  3   1  
8A07  D3020006           [202] getupval   11  12     
8A0B  E2828000           [203] call       11  1   2  
8A0F  D8420000           [204] test       11      1    ; to [206] if false
8A13  1A800480           [205] jmp        19           ; to [225]
8A17  E4424E02           [206] self       11  4   313  ; -112584775
8A1B  53030007           [207] getupval   13  14     
8A1F  E2828001           [208] call       11  3   2  
8A23  D8420000           [209] test       11      1    ; to [211] if false
8A27  1A400380           [210] jmp        14           ; to [225]
8A2B  E4824E02           [211] self       11  4   314  ; 1839670529
8A2F  E2820001           [212] call       11  2   2  
8A33  1DC30E00           [213] getglobal  12  59       ; 572299008
8A37  59830100           [214] loadk      13  6        ; 0
8A3B  99030F00           [215] loadk      14  60       ; 0
8A3F  D9830100           [216] loadk      15  6        ; 0
8A43  22830002           [217] call       12  4   2  
8A47  C3028305           [218] add        11  11  12 
8A4B  1D430000           [219] getglobal  12  1        ; gRegion
8A4F  24434F06           [220] self       12  12  317  ; -1110225722
8A53  93030007           [221] getupval   14  14     
8A57  D2038005           [222] move       15  11     
8A5B  1D840F00           [223] getglobal  16  62       ; ZERO_ROTATION
8A5F  22438002           [224] call       12  5   1  
8A63  13038007           [225] getupval   12  15     
8A67  5DC30F00           [226] getglobal  13  63       ; gPromotedToHost
8A6B  58030000           [227] test       13      0    ; to [229] if true
8A6F  1A401180           [228] jmp        70           ; to [299]
8A73  64035000           [229] self       13  0   320  ; -317790213
8A77  D3030008           [230] getupval   15  16     
8A7B  12040004           [231] move       16  8      
8A7F  62830002           [232] call       13  4   2  
8A83  12028006           [233] move       8   13     
8A87  64035000           [234] self       13  0   320  ; -317790213
8A8B  D3038008           [235] getupval   15  17     
8A8F  62838001           [236] call       13  3   2  
8A93  12038006           [237] move       12  13     
8A97  5D431000           [238] getglobal  13  65       ; -1817107093
8A9B  99831000           [239] loadk      14  66       ; "WaveDefense, after migration. Wave: "
8A9F  DDC31000           [240] getglobal  15  67       ; -1615931716
8AA3  12040004           [241] move       16  8      
8AA7  E2830001           [242] call       15  2   2  
8AAB  19041100           [243] loadk      16  68       ; ", wave sleep: "
8AAF  5DC41000           [244] getglobal  17  67       ; -1615931716
8AB3  92040006           [245] move       18  12     
8AB7  62840001           [246] call       17  2   2  
8ABB  82430407           [247] concat     14  14  17 
8ABF  62430001           [248] call       13  2   1  
8AC3  64035000           [249] self       13  0   320  ; -317790213
8AC7  D3030005           [250] getupval   15  10     
8ACB  62838001           [251] call       13  3   2  
8ACF  A4435100           [252] self       14  0   325  ; -248211328
8AD3  13040005           [253] getupval   16  10     
8AD7  52048006           [254] move       17  13     
8ADB  A2430002           [255] call       14  4   1  
8ADF  9D431000           [256] getglobal  14  65       ; -1817107093
8AE3  D9831100           [257] loadk      15  70       ; "WaveDefense: Host migration init timer restarted: "
8AE7  12048006           [258] move       16  13     
8AEB  59C41100           [259] loadk      17  71       ; " seconds elapsed."
8AEF  C2438407           [260] concat     15  15  17 
8AF3  A2430001           [261] call       14  2   1  
8AF7  93030009           [262] getupval   14  18     
8AFB  A2838000           [263] call       14  1   2  
8AFF  98030000           [264] test       14      0    ; to [266] if true
8B03  1A400180           [265] jmp        6            ; to [272]
8B07  93038009           [266] getupval   14  19     
fail op	33
8B0B  21000207           [267] tforloop   0       8    ; to [269] if exit
8B0F  1A800080           [268] jmp        3            ; to [272]
8B13  A4035200           [269] self       14  0   328  ; 952266004
8B17  17048000           [270] loadbool   16  1   0    ; true
8B1B  A2438001           [271] call       14  3   1  
8B1F  A4035000           [272] self       14  0   320  ; -317790213
8B23  1304000A           [273] getupval   16  20     
8B27  A2838001           [274] call       14  3   2  
fail op	35
8B2B  23404107           [275] close      0  
8B2F  1AC00580           [276] jmp        24           ; to [301]
8B33  A4435200           [277] self       14  0   329  ; 1409011458
8B37  17048000           [278] loadbool   16  1   0    ; true
8B3B  A2838001           [279] call       14  3   2  
8B3F  DDC30100           [280] getglobal  15  7        ; 1074689893
8B43  12040007           [281] move       16  14     
8B47  E2830001           [282] call       15  2   2  
8B4B  D8430000           [283] test       15      1    ; to [285] if false
8B4F  1A000280           [284] jmp        9            ; to [294]
8B53  DDC30100           [285] getglobal  15  7        ; 1074689893
8B57  12040007           [286] move       16  14     
8B5B  E2830001           [287] call       15  2   2  
8B5F  D8430000           [288] test       15      1    ; to [290] if false
8B63  1AC00080           [289] jmp        4            ; to [294]
8B67  DD030700           [290] getglobal  15  28       ; 538022378
8B6B  19840100           [291] loadk      16  6        ; 0
8B6F  E2430001           [292] call       15  2   1  
8B73  1A80FD7F           [293] jmp        -9           ; to [285]
8B77  E4034100           [294] self       15  0   260  ; -803877924
8B7B  5304000A           [295] getupval   17  20     
8B7F  99840100           [296] loadk      18  6        ; 0
8B83  E2430002           [297] call       15  4   1  
8B87  1A400080           [298] jmp        2            ; to [301]
8B8B  E4835200           [299] self       15  0   330  ; 719602438
8B8F  E2430001           [300] call       15  2   1  
8B93  E4C35201           [301] self       15  2   331  ; -1354842897
8B97  5D040B00           [302] getglobal  17  44       ; goal
8B9B  E2438001           [303] call       15  3   1  
8B9F  D303800A           [304] getupval   15  21     
8BA3  12040002           [305] move       16  4      
8BA7  52040004           [306] move       17  8      
8BAB  92040006           [307] move       18  12     
8BAF  E2430002           [308] call       15  4   1  
8BB3  1E008000           [309] return     0   1      
                         * constants:
8BB7  4C                 sizek (76)
8BB8  04                 const type 4
8BB9  0B                 string size (11)
8BBA  6747616D6552756C+  "gGameRul"
8BC2  657300             "es\0"
                         const [0]: "gGameRules"
8BC5  04                 const type 4
8BC6  08                 string size (8)
8BC7  67526567696F6E00   "gRegion\0"
                         const [1]: "gRegion"
8BCF  01                 const type 3
8BD0  90F9CED1           const [2]: (-774964848)
8BD4  01                 const type 3
8BD5  73290920           const [3]: (537471347)
8BD9  01                 const type 3
8BDA  DCCB15D0           const [4]: (-803877924)
8BDE  03                 const type 3
8BDF  0000803F           const [5]: (0)
8BE3  03                 const type 3
8BE4  00000000           const [6]: (0)
8BE8  01                 const type 3
8BE9  65770E40           const [7]: (1074689893)
8BED  01                 const type 3
8BEE  58F559A5           const [8]: (-1520831144)
8BF2  01                 const type 3
8BF3  1A4B27EC           const [9]: (-332969190)
8BF7  04                 const type 4
8BF8  0F                 string size (15)
8BF9  4F626A6563746976+  "Objectiv"
8C01  65537461727400     "eStart\0"
                         const [10]: "ObjectiveStart"
8C08  04                 const type 4
8C09  1D                 string size (29)
8C0A  696E74726F547261+  "introTra"
8C12  6E736D697373696F+  "nsmissio"
8C1A  6E5461674F766572+  "nTagOver"
8C22  7269646500         "ride\0"
                         const [11]: "introTransmissionTagOverride"
8C27  01                 const type 3
8C28  0F865E31           const [12]: (828278287)
8C2C  01                 const type 3
8C2D  4A4D59FB           const [13]: (-78033590)
8C31  04                 const type 4
8C32  03                 string size (3)
8C33  5F5400             "_T\0"
                         const [14]: "_T"
8C36  04                 const type 4
8C37  17                 string size (23)
8C38  4D697373696F6E54+  "MissionT"
8C40  72616E736D697373+  "ransmiss"
8C48  696F6E53657400     "ionSet\0"
                         const [15]: "MissionTransmissionSet"
8C4F  01                 const type 3
8C50  493D9AD6           const [16]: (-694534839)
8C54  04                 const type 4
8C55  0A                 string size (10)
8C56  67466C6173684D67+  "gFlashMg"
8C5E  7200               "r\0"
                         const [17]: "gFlashMgr"
8C60  01                 const type 3
8C61  53D08910           const [18]: (277467219)
8C65  04                 const type 4
8C66  18                 string size (24)
8C67  4C6F74757347616D+  "LotusGam"
8C6F  6552756C65732E44+  "eRules.D"
8C77  656D6F4D6F646500   "emoMode\0"
                         const [19]: "LotusGameRules.DemoMode"
8C7F  04                 const type 4
8C80  0D                 string size (13)
8C81  737061776E636F6E+  "spawncon"
8C89  74726F6C00         "trol\0"
                         const [20]: "spawncontrol"
8C8E  04                 const type 4
8C8F  0E                 string size (14)
8C90  446566656E736541+  "DefenseA"
8C98  766174617200       "vatar\0"
                         const [21]: "DefenseAvatar"
8C9E  03                 const type 3
8C9F  000080BF           const [22]: (0)
8CA3  04                 const type 4
8CA4  0F                 string size (15)
8CA5  7374617274757054+  "startupT"
8CAD  696D656F757400     "imeout\0"
                         const [23]: "startupTimeout"
8CB4  01                 const type 3
8CB5  12066FA7           const [24]: (-1485896174)
8CB9  04                 const type 4
8CBA  0C                 string size (12)
8CBB  466F727453746172+  "FortStar"
8CC3  74657200           "ter\0"
                         const [25]: "FortStarter"
8CC7  01                 const type 3
8CC8  E7D49EE9           const [26]: (-375466777)
8CCC  01                 const type 3
8CCD  00000000           const [27]: (0)
8CD1  01                 const type 3
8CD2  EA911120           const [28]: (538022378)
8CD6  04                 const type 4
8CD7  0A                 string size (10)
8CD8  706F727443686563+  "portChec"
8CE0  6B00               "k\0"
                         const [29]: "portCheck"
8CE2  01                 const type 3
8CE3  EFDB9E49           const [30]: (1235147759)
8CE7  01                 const type 3
8CE8  FFF9DE4C           const [31]: (1289681407)
8CEC  01                 const type 3
8CED  73123990           const [32]: (-1875307917)
8CF1  04                 const type 4
8CF2  14                 string size (20)
8CF3  5374617274446566+  "StartDef"
8CFB  656E736554726967+  "enseTrig"
8D03  67657200           "ger\0"
                         const [33]: "StartDefenseTrigger"
8D07  01                 const type 3
8D08  E11356BF           const [34]: (-1084877855)
8D0C  04                 const type 4
8D0D  13                 string size (19)
8D0E  446566656E736545+  "DefenseE"
8D16  787465726D696E61+  "xtermina"
8D1E  746500             "te\0"
                         const [35]: "DefenseExterminate"
8D21  04                 const type 4
8D22  12                 string size (18)
8D23  494E49544941544F+  "INITIATO"
8D2B  525F4641494C5552+  "R_FAILUR"
8D33  4500               "E\0"
                         const [36]: "INITIATOR_FAILURE"
8D35  01                 const type 3
8D36  ACF5F2FD           const [37]: (-34409044)
8D3A  04                 const type 4
8D3B  07                 string size (7)
8D3C  456E67696E6500     "Engine\0"
                         const [38]: "Engine"
8D43  04                 const type 4
8D44  15                 string size (21)
8D45  47616D6552756C65+  "GameRule"
8D4D  735F47535F464149+  "s_GS_FAI"
8D55  4C55524500         "LURE\0"
                         const [39]: "GameRules_GS_FAILURE"
8D5A  04                 const type 4
8D5B  12                 string size (18)
8D5C  466F726365446566+  "ForceDef"
8D64  656E736554696D65+  "enseTime"
8D6C  7200               "r\0"
                         const [40]: "ForceDefenseTimer"
8D6E  01                 const type 3
8D6F  01000000           const [41]: (1)
8D73  01                 const type 3
8D74  655F08DA           const [42]: (-636985499)
8D78  00                 const type 0
                         const [43]: nil
8D79  04                 const type 4
8D7A  05                 string size (5)
8D7B  676F616C00         "goal\0"
                         const [44]: "goal"
8D80  04                 const type 4
8D81  0E                 string size (14)
8D82  674368616C6C656E+  "gChallen"
8D8A  67654D677200       "geMgr\0"
                         const [45]: "gChallengeMgr"
8D90  01                 const type 3
8D91  DCD6FF64           const [46]: (1694488284)
8D95  01                 const type 3
8D96  BD6A1BF1           const [47]: (-249861443)
8D9A  01                 const type 3
8D9B  497363B8           const [48]: (-1201441975)
8D9F  04                 const type 4
8DA0  08                 string size (8)
8DA1  676F616C54616700   "goalTag\0"
                         const [49]: "goalTag"
8DA9  04                 const type 4
8DAA  15                 string size (21)
8DAB  50726F6A65637453+  "ProjectS"
8DB3  696E697374657242+  "inisterB"
8DBB  6F6E757300         "onus\0"
                         const [50]: "ProjectSinisterBonus"
8DC0  01                 const type 3
8DC1  93DDD9AB           const [51]: (-1411785325)
8DC5  01                 const type 3
8DC6  0C6746DE           const [52]: (-565811444)
8DCA  03                 const type 3
8DCB  0000A040           const [53]: (0)
8DCF  04                 const type 4
8DD0  10                 string size (16)
8DD1  6F626A6563746976+  "objectiv"
8DD9  654D61726B657200   "eMarker\0"
                         const [54]: "objectiveMarker"
8DE1  01                 const type 3
8DE2  B786588D           const [55]: (-1923578185)
8DE6  04                 const type 4
8DE7  08                 string size (8)
8DE8  44697361626C6500   "Disable\0"
                         const [56]: "Disable"
8DF0  01                 const type 3
8DF1  B9174AF9           const [57]: (-112584775)
8DF5  01                 const type 3
8DF6  0125A76D           const [58]: (1839670529)
8DFA  01                 const type 3
8DFB  00971C22           const [59]: (572299008)
8DFF  03                 const type 3
8E00  0000403F           const [60]: (0)
8E04  01                 const type 3
8E05  C64CD3BD           const [61]: (-1110225722)
8E09  04                 const type 4
8E0A  0E                 string size (14)
8E0B  5A45524F5F524F54+  "ZERO_ROT"
8E13  4154494F4E00       "ATION\0"
                         const [62]: "ZERO_ROTATION"
8E19  04                 const type 4
8E1A  10                 string size (16)
8E1B  6750726F6D6F7465+  "gPromote"
8E23  64546F486F737400   "dToHost\0"
                         const [63]: "gPromotedToHost"
8E2B  01                 const type 3
8E2C  FBE70EED           const [64]: (-317790213)
8E30  01                 const type 3
8E31  6B25B193           const [65]: (-1817107093)
8E35  04                 const type 4
8E36  25                 string size (37)
8E37  5761766544656665+  "WaveDefe"
8E3F  6E73652C20616674+  "nse, aft"
8E47  6572206D69677261+  "er migra"
8E4F  74696F6E2E205761+  "tion. Wa"
8E57  76653A2000         "ve: \0"
                         const [66]: "WaveDefense, after migration. Wave: "
8E5C  01                 const type 3
8E5D  BCD6AE9F           const [67]: (-1615931716)
8E61  04                 const type 4
8E62  0F                 string size (15)
8E63  2C20776176652073+  ", wave s"
8E6B  6C6565703A2000     "leep: \0"
                         const [68]: ", wave sleep: "
8E72  01                 const type 3
8E73  809834F1           const [69]: (-248211328)
8E77  04                 const type 4
8E78  33                 string size (51)
8E79  5761766544656665+  "WaveDefe"
8E81  6E73653A20486F73+  "nse: Hos"
8E89  74206D6967726174+  "t migrat"
8E91  696F6E20696E6974+  "ion init"
8E99  2074696D65722072+  " timer r"
8EA1  6573746172746564+  "estarted"
8EA9  3A2000             ": \0"
                         const [70]: "WaveDefense: Host migration init timer restarted: "
8EAC  04                 const type 4
8EAD  12                 string size (18)
8EAE  207365636F6E6473+  " seconds"
8EB6  20656C6170736564+  " elapsed"
8EBE  2E00               ".\0"
                         const [71]: " seconds elapsed."
8EC0  01                 const type 3
8EC1  146DC238           const [72]: (952266004)
8EC5  01                 const type 3
8EC6  02CFFB53           const [73]: (1409011458)
8ECA  01                 const type 3
8ECB  0643E42A           const [74]: (719602438)
8ECF  01                 const type 3
8ED0  EFBC3EAF           const [75]: (-1354842897)
                         * functions:
8ED4  00                 sizep (0)
                         * lines:
8ED6  02                 sizelineinfo (309)
                         [pc] (line)
8ED7  31                 [001] (49)
8ED8  06                 [002] (50)
8ED9  00                 [003] (50)
8EDA  00                 [004] (50)
8EDB  32                 [005] (51)
8EDC  06                 [006] (51)
8EDD  00                 [007] (54)
8EDE  00                 [008] (54)
8EDF  32                 [009] (54)
8EE0  06                 [010] (54)
8EE1  00                 [011] (55)
8EE2  00                 [012] (55)
8EE3  32                 [013] (55)
8EE4  06                 [014] (55)
8EE5  00                 [015] (56)
8EE6  00                 [016] (56)
8EE7  33                 [017] (56)
8EE8  06                 [018] (56)
8EE9  00                 [019] (58)
8EEA  00                 [020] (58)
8EEB  33                 [021] (58)
8EEC  06                 [022] (58)
8EED  00                 [023] (58)
8EEE  00                 [024] (59)
8EEF  36                 [025] (61)
8EF0  06                 [026] (61)
8EF1  00                 [027] (61)
8EF2  00                 [028] (61)
8EF3  36                 [029] (61)
8EF4  06                 [030] (62)
8EF5  00                 [031] (66)
8EF6  00                 [032] (66)
8EF7  36                 [033] (66)
8EF8  06                 [034] (67)
8EF9  00                 [035] (67)
8EFA  00                 [036] (67)
8EFB  36                 [037] (67)
8EFC  06                 [038] (67)
8EFD  00                 [039] (67)
8EFE  00                 [040] (67)
8EFF  37                 [041] (67)
8F00  06                 [042] (67)
8F01  00                 [043] (67)
8F02  00                 [044] (68)
8F03  37                 [045] (70)
8F04  06                 [046] (70)
8F05  00                 [047] (70)
8F06  00                 [048] (70)
8F07  37                 [049] (70)
8F08  06                 [050] (70)
8F09  00                 [051] (70)
8F0A  00                 [052] (71)
8F0B  37                 [053] (71)
8F0C  06                 [054] (71)
8F0D  00                 [055] (71)
8F0E  00                 [056] (73)
8F0F  38                 [057] (73)
8F10  06                 [058] (75)
8F11  00                 [059] (75)
8F12  00                 [060] (75)
8F13  38                 [061] (75)
8F14  06                 [062] (75)
8F15  00                 [063] (76)
8F16  00                 [064] (76)
8F17  38                 [065] (76)
8F18  06                 [066] (77)
8F19  00                 [067] (77)
8F1A  00                 [068] (79)
8F1B  38                 [069] (81)
8F1C  06                 [070] (81)
8F1D  00                 [071] (81)
8F1E  00                 [072] (81)
8F1F  3A                 [073] (81)
8F20  06                 [074] (81)
8F21  00                 [075] (81)
8F22  00                 [076] (81)
8F23  3A                 [077] (82)
8F24  06                 [078] (85)
8F25  00                 [079] (85)
8F26  00                 [080] (85)
8F27  3A                 [081] (85)
8F28  06                 [082] (85)
8F29  00                 [083] (85)
8F2A  00                 [084] (87)
8F2B  3A                 [085] (87)
8F2C  06                 [086] (87)
8F2D  00                 [087] (87)
8F2E  00                 [088] (87)
8F2F  3A                 [089] (88)
8F30  06                 [090] (88)
8F31  00                 [091] (88)
8F32  00                 [092] (88)
8F33  3B                 [093] (88)
8F34  06                 [094] (89)
8F35  00                 [095] (93)
8F36  00                 [096] (93)
8F37  3D                 [097] (93)
8F38  06                 [098] (93)
8F39  00                 [099] (94)
8F3A  00                 [100] (94)
8F3B  3D                 [101] (94)
8F3C  06                 [102] (95)
8F3D  00                 [103] (95)
8F3E  00                 [104] (95)
8F3F  3D                 [105] (95)
8F40  06                 [106] (95)
8F41  00                 [107] (96)
8F42  00                 [108] (96)
8F43  3D                 [109] (96)
8F44  06                 [110] (96)
8F45  00                 [111] (96)
8F46  00                 [112] (97)
8F47  3D                 [113] (97)
8F48  06                 [114] (97)
8F49  00                 [115] (97)
8F4A  00                 [116] (101)
8F4B  3E                 [117] (101)
8F4C  06                 [118] (102)
8F4D  00                 [119] (102)
8F4E  00                 [120] (102)
8F4F  42                 [121] (104)
8F50  06                 [122] (104)
8F51  00                 [123] (105)
8F52  00                 [124] (105)
8F53  42                 [125] (105)
8F54  06                 [126] (105)
8F55  00                 [127] (105)
8F56  00                 [128] (105)
8F57  42                 [129] (107)
8F58  06                 [130] (107)
8F59  00                 [131] (107)
8F5A  00                 [132] (107)
8F5B  43                 [133] (107)
8F5C  06                 [134] (108)
8F5D  00                 [135] (108)
8F5E  00                 [136] (108)
8F5F  43                 [137] (108)
8F60  06                 [138] (108)
8F61  00                 [139] (108)
8F62  00                 [140] (109)
8F63  43                 [141] (109)
8F64  06                 [142] (109)
8F65  00                 [143] (109)
8F66  00                 [144] (109)
8F67  43                 [145] (109)
8F68  06                 [146] (111)
8F69  00                 [147] (111)
8F6A  00                 [148] (112)
8F6B  43                 [149] (112)
8F6C  06                 [150] (113)
8F6D  00                 [151] (113)
8F6E  00                 [152] (116)
8F6F  43                 [153] (118)
8F70  06                 [154] (120)
8F71  00                 [155] (121)
8F72  00                 [156] (121)
8F73  43                 [157] (121)
8F74  06                 [158] (121)
8F75  00                 [159] (125)
8F76  00                 [160] (125)
8F77  43                 [161] (125)
8F78  06                 [162] (125)
8F79  00                 [163] (125)
8F7A  00                 [164] (125)
8F7B  43                 [165] (125)
8F7C  06                 [166] (125)
8F7D  00                 [167] (125)
8F7E  00                 [168] (-128)
8F7F  43                 [169] (-128)
8F80  06                 [170] (-127)
8F81  00                 [171] (-126)
8F82  00                 [172] (-126)
8F83  44                 [173] (-126)
8F84  06                 [174] (-126)
8F85  00                 [175] (-126)
8F86  00                 [176] (-125)
8F87  46                 [177] (-125)
8F88  06                 [178] (-125)
8F89  00                 [179] (-125)
8F8A  00                 [180] (-122)
8F8B  46                 [181] (-122)
8F8C  06                 [182] (-122)
8F8D  00                 [183] (-122)
8F8E  00                 [184] (-121)
8F8F  46                 [185] (-121)
8F90  06                 [186] (-121)
8F91  00                 [187] (-121)
8F92  00                 [188] (-118)
8F93  46                 [189] (-118)
8F94  06                 [190] (-118)
8F95  00                 [191] (-118)
8F96  00                 [192] (-118)
8F97  46                 [193] (-115)
8F98  06                 [194] (-115)
8F99  00                 [195] (-115)
8F9A  00                 [196] (-115)
8F9B  46                 [197] (-115)
8F9C  06                 [198] (-114)
8F9D  00                 [199] (-114)
8F9E  00                 [200] (-114)
8F9F  46                 [201] (-114)
8FA0  06                 [202] (-112)
8FA1  00                 [203] (-112)
8FA2  00                 [204] (-112)
8FA3  47                 [205] (-112)
8FA4  06                 [206] (-112)
8FA5  00                 [207] (-112)
8FA6  00                 [208] (-112)
8FA7  47                 [209] (-112)
8FA8  06                 [210] (-112)
8FA9  00                 [211] (-111)
8FAA  00                 [212] (-111)
8FAB  47                 [213] (-111)
8FAC  06                 [214] (-111)
8FAD  00                 [215] (-111)
8FAE  00                 [216] (-111)
8FAF  47                 [217] (-111)
8FB0  06                 [218] (-111)
8FB1  00                 [219] (-110)
8FB2  00                 [220] (-110)
8FB3  49                 [221] (-110)
8FB4  06                 [222] (-110)
8FB5  00                 [223] (-110)
8FB6  00                 [224] (-110)
8FB7  49                 [225] (-107)
8FB8  06                 [226] (-106)
8FB9  00                 [227] (-106)
8FBA  00                 [228] (-106)
8FBB  4B                 [229] (-105)
8FBC  06                 [230] (-105)
8FBD  00                 [231] (-105)
8FBE  00                 [232] (-105)
8FBF  4B                 [233] (-105)
8FC0  06                 [234] (-104)
8FC1  00                 [235] (-104)
8FC2  00                 [236] (-104)
8FC3  4B                 [237] (-104)
8FC4  06                 [238] (-103)
8FC5  00                 [239] (-103)
8FC6  00                 [240] (-103)
8FC7  4B                 [241] (-103)
8FC8  06                 [242] (-103)
8FC9  00                 [243] (-103)
8FCA  00                 [244] (-103)
8FCB  4B                 [245] (-103)
8FCC  06                 [246] (-103)
8FCD  00                 [247] (-103)
8FCE  00                 [248] (-103)
8FCF  4C                 [249] (-101)
8FD0  06                 [250] (-101)
8FD1  00                 [251] (-101)
8FD2  00                 [252] (-100)
8FD3  4C                 [253] (-100)
8FD4  06                 [254] (-100)
8FD5  00                 [255] (-100)
8FD6  00                 [256] (-99)
8FD7  4C                 [257] (-99)
8FD8  06                 [258] (-99)
8FD9  00                 [259] (-99)
8FDA  00                 [260] (-99)
8FDB  4D                 [261] (-99)
8FDC  06                 [262] (-97)
8FDD  00                 [263] (-97)
8FDE  00                 [264] (-97)
8FDF  4D                 [265] (-97)
8FE0  06                 [266] (-97)
8FE1  00                 [267] (-97)
8FE2  00                 [268] (-97)
8FE3  4F                 [269] (-96)
8FE4  06                 [270] (-96)
8FE5  00                 [271] (-96)
8FE6  00                 [272] (-93)
8FE7  51                 [273] (-93)
8FE8  06                 [274] (-93)
8FE9  00                 [275] (-93)
8FEA  00                 [276] (-93)
8FEB  51                 [277] (-92)
8FEC  06                 [278] (-92)
8FED  00                 [279] (-92)
8FEE  00                 [280] (-91)
8FEF  51                 [281] (-91)
8FF0  06                 [282] (-91)
8FF1  00                 [283] (-91)
8FF2  00                 [284] (-91)
8FF3  51                 [285] (-90)
8FF4  06                 [286] (-90)
8FF5  00                 [287] (-90)
8FF6  00                 [288] (-90)
8FF7  51                 [289] (-90)
8FF8  06                 [290] (-89)
8FF9  00                 [291] (-89)
8FFA  00                 [292] (-89)
8FFB  51                 [293] (-89)
8FFC  06                 [294] (-85)
8FFD  00                 [295] (-85)
8FFE  00                 [296] (-85)
8FFF  51                 [297] (-85)
9000  06                 [298] (-84)
9001  00                 [299] (-82)
9002  00                 [300] (-82)
9003  51                 [301] (-79)
9004  06                 [302] (-79)
9005  00                 [303] (-79)
9006  00                 [304] (-77)
9007  52                 [305] (-77)
9008  06                 [306] (-77)
9009  00                 [307] (-77)
900A  00                 [308] (-77)
900B  55                 [309] (-76)
                         * locals:
93AB  00                 sizelocvars (0)
                         * upvalues:
93AC  00                 sizeupvalues (0)
                         ** end of function **

                         
93AD                     ** function [32] definition (level 2)
                         ** start of function **
93AD  00                 string size (0)
                         source name: (none)
93AF  0D                 line defined (1718)
93B0  EC                 last line defined (1772)
93B1  0D                 nups (1)
93B2  01                 numparams (0)
93B3  00                 is_vararg (0)
93B4  00                 maxstacksize (17)
                         * code:
93B7  01                 sizecode (166)
93B8  1D000000           [001] getglobal  0   0        ; spawncontrol
93BC  24404000           [002] self       0   0   257  ; 803365678
93C0  22800001           [003] call       0   2   2  
93C4  46008000           [004] loadnil    1   1      
93C8  99800000           [005] loadk      2   2        ; 0
93CC  CA000000           [006] len        3   0      
93D0  19810000           [007] loadk      4   2        ; 0
93D4  90C00280           [008] forprep    2   12       ; to [21]
93D8  9DC10000           [009] getglobal  6   3        ; 1074689893
93DC  CE410100           [010] gettable   7   0   5  
93E0  E401C103           [011] self       7   7   260  ; 2022702902
93E4  E2010001           [012] call       7   2   0  
93E8  A2810000           [013] call       6   0   2  
93EC  98410000           [014] test       6       1    ; to [16] if false
93F0  1A000180           [015] jmp        5            ; to [21]
93F4  8E410100           [016] gettable   6   0   5  
93F8  A4014103           [017] self       6   6   260  ; 2022702902
93FC  A2810001           [018] call       6   2   2  
9400  52000003           [019] move       1   6      
9404  1A000080           [020] jmp        1            ; to [22]
9408  9480FC7F           [021] forloop    2   -13      ; to [9] if loop
940C  A441C100           [022] self       6   1   261  ; 1839670529
9410  A2810001           [023] call       6   2   2  
9414  DD810100           [024] getglobal  7   6        ; gRegion
9418  E4C1C103           [025] self       7   7   263  ; 152279552
941C  5D020200           [026] getglobal  9   8        ; gTennoAvatarType
9420  E2818001           [027] call       7   3   2  
9424  1D820100           [028] getglobal  8   6        ; gRegion
9428  24C24104           [029] self       8   8   263  ; 152279552
942C  9D020200           [030] getglobal  10  8        ; gTennoAvatarType
9430  D2020003           [031] move       11  6      
9434  19430200           [032] loadk      12  9        ; 0
9438  5D830200           [033] getglobal  13  10       ; requiredPlayerRange
943C  22820003           [034] call       8   6   2  
9440  5DC20200           [035] getglobal  9   11       ; gGameRules
9444  8A020004           [036] len        10  8      
fail op	33
9448  61800281           [037] tforloop   1       10   ; to [39] if exit
944C  1AC00080           [038] jmp        4            ; to [43]
9450  9D020300           [039] getglobal  10  12       ; _T
9454  8E424305           [040] gettable   10  10  269  ; "ForceDefenseTimer"
9458  98020000           [041] test       10      0    ; to [43] if true
945C  1A801E80           [042] jmp        123          ; to [166]
9460  9D820300           [043] getglobal  10  14       ; -1817107093
9464  D9C20300           [044] loadk      11  15       ; "Defense: Starting defense waves"
9468  A2420001           [045] call       10  2   1  
946C  9D820100           [046] getglobal  10  6        ; gRegion
9470  A4024405           [047] self       10  10  272  ; -774964848
9474  A2820001           [048] call       10  2   2  
9478  E4424405           [049] self       11  10  273  ; 537471347
947C  E2820001           [050] call       11  2   2  
9480  2483C405           [051] self       12  11  274  ; -1560083373
9484  97038000           [052] loadbool   14  1   0    ; true
9488  D3030000           [053] getupval   15  0      
948C  22430002           [054] call       12  4   1  
9490  1DC30000           [055] getglobal  12  3        ; 1074689893
9494  5DC30400           [056] getglobal  13  19       ; proximityDeco
9498  22830001           [057] call       12  2   2  
949C  18430000           [058] test       12      1    ; to [60] if false
94A0  1A800080           [059] jmp        3            ; to [63]
94A4  1DC30400           [060] getglobal  12  19       ; proximityDeco
94A8  24034506           [061] self       12  12  276  ; -725453761
94AC  22430001           [062] call       12  2   1  
94B0  1DC30000           [063] getglobal  12  3        ; 1074689893
94B4  5D430500           [064] getglobal  13  21       ; proximityMultiAvatarTrigger
94B8  22830001           [065] call       12  2   2  
94BC  18430000           [066] test       12      1    ; to [68] if false
94C0  1A800080           [067] jmp        3            ; to [71]
94C4  1D430500           [068] getglobal  12  21       ; proximityMultiAvatarTrigger
94C8  24034506           [069] self       12  12  276  ; -725453761
94CC  22430001           [070] call       12  2   1  
94D0  1DC30000           [071] getglobal  12  3        ; 1074689893
94D4  5D830500           [072] getglobal  13  22       ; objectiveMarker
94D8  22830001           [073] call       12  2   2  
94DC  18430000           [074] test       12      1    ; to [76] if false
94E0  1AC00080           [075] jmp        4            ; to [80]
94E4  1D830500           [076] getglobal  12  22       ; objectiveMarker
94E8  24C34506           [077] self       12  12  279  ; -1923578185
94EC  99030600           [078] loadk      14  24       ; "Disable"
94F0  22438001           [079] call       12  3   1  
94F4  2443C604           [080] self       12  9   281  ; -1201441975
94F8  22830001           [081] call       12  2   2  
94FC  4E834606           [082] gettable   13  12  282  ; "faction"
9500  9DC30600           [083] getglobal  14  27       ; Lotus_Game
9504  8E034707           [084] gettable   14  14  284  ; "FC_CORPUS"
fail op	35
9508  23808306           [085] close      0  
950C  1A000280           [086] jmp        9            ; to [96]
9510  5DC30000           [087] getglobal  13  3        ; 1074689893
9514  9D430700           [088] getglobal  14  29       ; corpusStartSeq
9518  62830001           [089] call       13  2   2  
951C  58430000           [090] test       13      1    ; to [92] if false
9520  1A401280           [091] jmp        74           ; to [166]
9524  5D430700           [092] getglobal  13  29       ; corpusStartSeq
9528  6483C706           [093] self       13  13  286  ; -974578778
952C  62430001           [094] call       13  2   1  
9530  1A401180           [095] jmp        70           ; to [166]
9534  4E834606           [096] gettable   13  12  282  ; "faction"
9538  9DC30600           [097] getglobal  14  27       ; Lotus_Game
953C  8EC34707           [098] gettable   14  14  287  ; "FC_GRINEER"
fail op	35
9540  23808306           [099] close      0  
9544  1A000280           [100] jmp        9            ; to [110]
9548  5DC30000           [101] getglobal  13  3        ; 1074689893
954C  9D030800           [102] getglobal  14  32       ; grineerStartSeq
9550  62830001           [103] call       13  2   2  
9554  58430000           [104] test       13      1    ; to [106] if false
9558  1AC00E80           [105] jmp        60           ; to [166]
955C  5D030800           [106] getglobal  13  32       ; grineerStartSeq
9560  6483C706           [107] self       13  13  286  ; -974578778
9564  62430001           [108] call       13  2   1  
9568  1AC00D80           [109] jmp        56           ; to [166]
956C  4E834606           [110] gettable   13  12  282  ; "faction"
9570  9DC30600           [111] getglobal  14  27       ; Lotus_Game
9574  8E434807           [112] gettable   14  14  289  ; "FC_OROKIN"
fail op	35
9578  23808306           [113] close      0  
957C  1A000280           [114] jmp        9            ; to [124]
9580  5DC30000           [115] getglobal  13  3        ; 1074689893
9584  9D830800           [116] getglobal  14  34       ; orokinStartSeq
9588  62830001           [117] call       13  2   2  
958C  58430000           [118] test       13      1    ; to [120] if false
9590  1A400B80           [119] jmp        46           ; to [166]
9594  5D830800           [120] getglobal  13  34       ; orokinStartSeq
9598  6483C706           [121] self       13  13  286  ; -974578778
959C  62430001           [122] call       13  2   1  
95A0  1A400A80           [123] jmp        42           ; to [166]
95A4  4E834606           [124] gettable   13  12  282  ; "faction"
95A8  9DC30600           [125] getglobal  14  27       ; Lotus_Game
95AC  8EC34807           [126] gettable   14  14  291  ; "FC_INFESTATION"
fail op	35
95B0  23808306           [127] close      0  
95B4  1A000980           [128] jmp        37           ; to [166]
95B8  5D830100           [129] getglobal  13  6        ; gRegion
95BC  6403C906           [130] self       13  13  292  ; 1250786858
95C0  62830001           [131] call       13  2   2  
95C4  6443C906           [132] self       13  13  293  ; 455421500
95C8  62830001           [133] call       13  2   2  
95CC  9D830900           [134] getglobal  14  38       ; string
95D0  8EC34907           [135] gettable   14  14  295  ; -565905820
95D4  D2038006           [136] move       15  13     
95D8  19040A00           [137] loadk      16  40       ; "Orokin"
95DC  A2838001           [138] call       14  3   2  
fail op	35
95E0  63404A07           [139] close      1  
95E4  1AC00080           [140] jmp        4            ; to [145]
95E8  9D830A00           [141] getglobal  14  42       ; infestedOrokinStartSeq
95EC  A4834707           [142] self       14  14  286  ; -974578778
95F0  A2430001           [143] call       14  2   1  
95F4  1A000580           [144] jmp        21           ; to [166]
95F8  9D830900           [145] getglobal  14  38       ; string
95FC  8EC34907           [146] gettable   14  14  295  ; -565905820
9600  D2038006           [147] move       15  13     
9604  19C40A00           [148] loadk      16  43       ; "Grineer"
9608  A2838001           [149] call       14  3   2  
fail op	35
960C  63404A07           [150] close      1  
9610  1AC00080           [151] jmp        4            ; to [156]
9614  9D030B00           [152] getglobal  14  44       ; infestedGrineerStartSeq
9618  A4834707           [153] self       14  14  286  ; -974578778
961C  A2430001           [154] call       14  2   1  
9620  1A400280           [155] jmp        10           ; to [166]
9624  9D830900           [156] getglobal  14  38       ; string
9628  8EC34907           [157] gettable   14  14  295  ; -565905820
962C  D2038006           [158] move       15  13     
9630  19440B00           [159] loadk      16  45       ; "Corpus"
9634  A2838001           [160] call       14  3   2  
fail op	35
9638  63404A07           [161] close      1  
963C  1A800080           [162] jmp        3            ; to [166]
9640  9D830B00           [163] getglobal  14  46       ; infestedCorpusStartSeq
9644  A4834707           [164] self       14  14  286  ; -974578778
9648  A2430001           [165] call       14  2   1  
964C  1E008000           [166] return     0   1      
                         * constants:
9650  2F                 sizek (47)
9651  04                 const type 4
9652  0D                 string size (13)
9653  737061776E636F6E+  "spawncon"
965B  74726F6C00         "trol\0"
                         const [0]: "spawncontrol"
9660  01                 const type 3
9661  2E63E22F           const [1]: (803365678)
9665  03                 const type 3
9666  0000803F           const [2]: (0)
966A  01                 const type 3
966B  65770E40           const [3]: (1074689893)
966F  01                 const type 3
9670  36FF8F78           const [4]: (2022702902)
9674  01                 const type 3
9675  0125A76D           const [5]: (1839670529)
9679  04                 const type 4
967A  08                 string size (8)
967B  67526567696F6E00   "gRegion\0"
                         const [6]: "gRegion"
9683  01                 const type 3
9684  009A1309           const [7]: (152279552)
9688  04                 const type 4
9689  11                 string size (17)
968A  6754656E6E6F4176+  "gTennoAv"
9692  6174617254797065+  "atarType"
969A  00                 "\0"
                         const [8]: "gTennoAvatarType"
969B  03                 const type 3
969C  00000000           const [9]: (0)
96A0  04                 const type 4
96A1  14                 string size (20)
96A2  7265717569726564+  "required"
96AA  506C617965725261+  "PlayerRa"
96B2  6E676500           "nge\0"
                         const [10]: "requiredPlayerRange"
96B6  04                 const type 4
96B7  0B                 string size (11)
96B8  6747616D6552756C+  "gGameRul"
96C0  657300             "es\0"
                         const [11]: "gGameRules"
96C3  04                 const type 4
96C4  03                 string size (3)
96C5  5F5400             "_T\0"
                         const [12]: "_T"
96C8  04                 const type 4
96C9  12                 string size (18)
96CA  466F726365446566+  "ForceDef"
96D2  656E736554696D65+  "enseTime"
96DA  7200               "r\0"
                         const [13]: "ForceDefenseTimer"
96DC  01                 const type 3
96DD  6B25B193           const [14]: (-1817107093)
96E1  04                 const type 4
96E2  20                 string size (32)
96E3  446566656E73653A+  "Defense:"
96EB  205374617274696E+  " Startin"
96F3  6720646566656E73+  "g defens"
96FB  6520776176657300   "e waves\0"
                         const [15]: "Defense: Starting defense waves"
9703  01                 const type 3
9704  90F9CED1           const [16]: (-774964848)
9708  01                 const type 3
9709  73290920           const [17]: (537471347)
970D  01                 const type 3
970E  530403A3           const [18]: (-1560083373)
9712  04                 const type 4
9713  0E                 string size (14)
9714  70726F78696D6974+  "proximit"
971C  794465636F00       "yDeco\0"
                         const [19]: "proximityDeco"
9722  01                 const type 3
9723  3F74C2D4           const [20]: (-725453761)
9727  04                 const type 4
9728  1C                 string size (28)
9729  70726F78696D6974+  "proximit"
9731  794D756C74694176+  "yMultiAv"
9739  6174617254726967+  "atarTrig"
9741  67657200           "ger\0"
                         const [21]: "proximityMultiAvatarTrigger"
9745  04                 const type 4
9746  10                 string size (16)
9747  6F626A6563746976+  "objectiv"
974F  654D61726B657200   "eMarker\0"
                         const [22]: "objectiveMarker"
9757  01                 const type 3
9758  B786588D           const [23]: (-1923578185)
975C  04                 const type 4
975D  08                 string size (8)
975E  44697361626C6500   "Disable\0"
                         const [24]: "Disable"
9766  01                 const type 3
9767  497363B8           const [25]: (-1201441975)
976B  04                 const type 4
976C  08                 string size (8)
976D  66616374696F6E00   "faction\0"
                         const [26]: "faction"
9775  04                 const type 4
9776  0B                 string size (11)
9777  4C6F7475735F4761+  "Lotus_Ga"
977F  6D6500             "me\0"
                         const [27]: "Lotus_Game"
9782  04                 const type 4
9783  0A                 string size (10)
9784  46435F434F525055+  "FC_CORPU"
978C  5300               "S\0"
                         const [28]: "FC_CORPUS"
978E  04                 const type 4
978F  0F                 string size (15)
9790  636F727075735374+  "corpusSt"
9798  61727453657100     "artSeq\0"
                         const [29]: "corpusStartSeq"
979F  01                 const type 3
97A0  A61BE9C5           const [30]: (-974578778)
97A4  04                 const type 4
97A5  0B                 string size (11)
97A6  46435F4752494E45+  "FC_GRINE"
97AE  455200             "ER\0"
                         const [31]: "FC_GRINEER"
97B1  04                 const type 4
97B2  10                 string size (16)
97B3  6772696E65657253+  "grineerS"
97BB  7461727453657100   "tartSeq\0"
                         const [32]: "grineerStartSeq"
97C3  04                 const type 4
97C4  0A                 string size (10)
97C5  46435F4F524F4B49+  "FC_OROKI"
97CD  4E00               "N\0"
                         const [33]: "FC_OROKIN"
97CF  04                 const type 4
97D0  0F                 string size (15)
97D1  6F726F6B696E5374+  "orokinSt"
97D9  61727453657100     "artSeq\0"
                         const [34]: "orokinStartSeq"
97E0  04                 const type 4
97E1  0F                 string size (15)
97E2  46435F494E464553+  "FC_INFES"
97EA  544154494F4E00     "TATION\0"
                         const [35]: "FC_INFESTATION"
97F1  01                 const type 3
97F2  2A7E8D4A           const [36]: (1250786858)
97F6  01                 const type 3
97F7  3C2E251B           const [37]: (455421500)
97FB  04                 const type 4
97FC  07                 string size (7)
97FD  737472696E6700     "string\0"
                         const [38]: "string"
9804  01                 const type 3
9805  64F644DE           const [39]: (-565905820)
9809  04                 const type 4
980A  07                 string size (7)
980B  4F726F6B696E00     "Orokin\0"
                         const [40]: "Orokin"
9812  00                 const type 0
                         const [41]: nil
9813  04                 const type 4
9814  17                 string size (23)
9815  696E666573746564+  "infested"
981D  4F726F6B696E5374+  "OrokinSt"
9825  61727453657100     "artSeq\0"
                         const [42]: "infestedOrokinStartSeq"
982C  04                 const type 4
982D  08                 string size (8)
982E  4772696E65657200   "Grineer\0"
                         const [43]: "Grineer"
9836  04                 const type 4
9837  18                 string size (24)
9838  696E666573746564+  "infested"
9840  4772696E65657253+  "GrineerS"
9848  7461727453657100   "tartSeq\0"
                         const [44]: "infestedGrineerStartSeq"
9850  04                 const type 4
9851  07                 string size (7)
9852  436F7270757300     "Corpus\0"
                         const [45]: "Corpus"
9859  04                 const type 4
985A  17                 string size (23)
985B  696E666573746564+  "infested"
9863  436F727075735374+  "CorpusSt"
986B  61727453657100     "artSeq\0"
                         const [46]: "infestedCorpusStartSeq"
                         * functions:
9872  00                 sizep (0)
                         * lines:
9874  01                 sizelineinfo (166)
                         [pc] (line)
9875  B7                 [001] (-73)
9876  06                 [002] (-73)
9877  00                 [003] (-73)
9878  00                 [004] (-72)
9879  B7                 [005] (-71)
987A  06                 [006] (-71)
987B  00                 [007] (-71)
987C  00                 [008] (-71)
987D  B7                 [009] (-70)
987E  06                 [010] (-70)
987F  00                 [011] (-70)
9880  00                 [012] (-70)
9881  B8                 [013] (-70)
9882  06                 [014] (-70)
9883  00                 [015] (-70)
9884  00                 [016] (-69)
9885  B9                 [017] (-69)
9886  06                 [018] (-69)
9887  00                 [019] (-69)
9888  00                 [020] (-68)
9889  B9                 [021] (-71)
988A  06                 [022] (-65)
988B  00                 [023] (-65)
988C  00                 [024] (-64)
988D  B9                 [025] (-64)
988E  06                 [026] (-64)
988F  00                 [027] (-64)
9890  00                 [028] (-63)
9891  B9                 [029] (-63)
9892  06                 [030] (-63)
9893  00                 [031] (-63)
9894  00                 [032] (-63)
9895  BA                 [033] (-63)
9896  06                 [034] (-63)
9897  00                 [035] (-62)
9898  00                 [036] (-60)
9899  BA                 [037] (-60)
989A  06                 [038] (-60)
989B  00                 [039] (-60)
989C  00                 [040] (-60)
989D  BA                 [041] (-60)
989E  06                 [042] (-60)
989F  00                 [043] (-58)
98A0  00                 [044] (-58)
98A1  BA                 [045] (-58)
98A2  06                 [046] (-57)
98A3  00                 [047] (-57)
98A4  00                 [048] (-57)
98A5  BA                 [049] (-56)
98A6  06                 [050] (-56)
98A7  00                 [051] (-55)
98A8  00                 [052] (-55)
98A9  BA                 [053] (-55)
98AA  06                 [054] (-55)
98AB  00                 [055] (-54)
98AC  00                 [056] (-54)
98AD  BA                 [057] (-54)
98AE  06                 [058] (-54)
98AF  00                 [059] (-54)
98B0  00                 [060] (-53)
98B1  BB                 [061] (-53)
98B2  06                 [062] (-53)
98B3  00                 [063] (-51)
98B4  00                 [064] (-51)
98B5  BB                 [065] (-51)
98B6  06                 [066] (-51)
98B7  00                 [067] (-51)
98B8  00                 [068] (-50)
98B9  BB                 [069] (-50)
98BA  06                 [070] (-50)
98BB  00                 [071] (-48)
98BC  00                 [072] (-48)
98BD  BB                 [073] (-48)
98BE  06                 [074] (-48)
98BF  00                 [075] (-48)
98C0  00                 [076] (-47)
98C1  BC                 [077] (-47)
98C2  06                 [078] (-47)
98C3  00                 [079] (-47)
98C4  00                 [080] (-44)
98C5  B9                 [081] (-44)
98C6  06                 [082] (-43)
98C7  00                 [083] (-43)
98C8  00                 [084] (-43)
98C9  BF                 [085] (-43)
98CA  06                 [086] (-43)
98CB  00                 [087] (-42)
98CC  00                 [088] (-42)
98CD  BF                 [089] (-42)
98CE  06                 [090] (-42)
98CF  00                 [091] (-42)
98D0  00                 [092] (-41)
98D1  C0                 [093] (-41)
98D2  06                 [094] (-41)
98D3  00                 [095] (-40)
98D4  00                 [096] (-39)
98D5  C0                 [097] (-39)
98D6  06                 [098] (-39)
98D7  00                 [099] (-39)
98D8  00                 [100] (-39)
98D9  C0                 [101] (-38)
98DA  06                 [102] (-38)
98DB  00                 [103] (-38)
98DC  00                 [104] (-38)
98DD  C0                 [105] (-38)
98DE  06                 [106] (-37)
98DF  00                 [107] (-37)
98E0  00                 [108] (-37)
98E1  C1                 [109] (-36)
98E2  06                 [110] (-35)
98E3  00                 [111] (-35)
98E4  00                 [112] (-35)
98E5  C1                 [113] (-35)
98E6  06                 [114] (-35)
98E7  00                 [115] (-34)
98E8  00                 [116] (-34)
98E9  C1                 [117] (-34)
98EA  06                 [118] (-34)
98EB  00                 [119] (-34)
98EC  00                 [120] (-33)
98ED  C1                 [121] (-33)
98EE  06                 [122] (-33)
98EF  00                 [123] (-32)
98F0  00                 [124] (-31)
98F1  C1                 [125] (-31)
98F2  06                 [126] (-31)
98F3  00                 [127] (-31)
98F4  00                 [128] (-31)
98F5  C1                 [129] (-30)
98F6  06                 [130] (-30)
98F7  00                 [131] (-30)
98F8  00                 [132] (-30)
98F9  C1                 [133] (-30)
98FA  06                 [134] (-29)
98FB  00                 [135] (-29)
98FC  00                 [136] (-29)
98FD  C2                 [137] (-29)
98FE  06                 [138] (-29)
98FF  00                 [139] (-29)
9900  00                 [140] (-29)
9901  C4                 [141] (-28)
9902  06                 [142] (-28)
9903  00                 [143] (-28)
9904  00                 [144] (-28)
9905  C4                 [145] (-27)
9906  06                 [146] (-27)
9907  00                 [147] (-27)
9908  00                 [148] (-27)
9909  C4                 [149] (-27)
990A  06                 [150] (-27)
990B  00                 [151] (-27)
990C  00                 [152] (-26)
990D  C4                 [153] (-26)
990E  06                 [154] (-26)
990F  00                 [155] (-26)
9910  00                 [156] (-25)
9911  C4                 [157] (-25)
9912  06                 [158] (-25)
9913  00                 [159] (-25)
9914  00                 [160] (-25)
9915  C4                 [161] (-25)
9916  06                 [162] (-25)
9917  00                 [163] (-24)
9918  00                 [164] (-24)
9919  C4                 [165] (-24)
991A  06                 [166] (-20)
                         * locals:
9B0D  00                 sizelocvars (0)
                         * upvalues:
9B0E  00                 sizeupvalues (0)
                         ** end of function **

                         
9B0F                     ** function [33] definition (level 2)
                         ** start of function **
9B0F  00                 string size (0)
                         source name: (none)
9B11  0D                 line defined (1774)
9B12  84                 last line defined (1796)
9B13  0E                 nups (1)
9B14  01                 numparams (0)
9B15  00                 is_vararg (0)
9B16  00                 maxstacksize (11)
                         * code:
9B18  3B                 sizecode (59)
9B19  1D000000           [01] getglobal  0   0        ; gGameRules
9B1D  24404000           [02] self       0   0   257  ; -317790213
9B21  93000000           [03] getupval   2   0      
9B25  22808001           [04] call       0   3   2  
fail op	35
9B29  23804000           [05] close      0  
9B2D  1AC00C80           [06] jmp        52           ; to [59]
9B31  1DC00000           [07] getglobal  0   3        ; spawncontrol
9B35  24004100           [08] self       0   0   260  ; 803365678
9B39  22800001           [09] call       0   2   2  
9B3D  46008000           [10] loadnil    1   1      
9B41  9D400100           [11] getglobal  2   5        ; 1074689893
9B45  D2008000           [12] move       3   1      
9B49  A2800001           [13] call       2   2   2  
9B4D  98000000           [14] test       2       0    ; to [16] if true
9B51  1AC00480           [15] jmp        20           ; to [36]
9B55  99800100           [16] loadk      2   6        ; 0
9B59  CA000000           [17] len        3   0      
9B5D  19810100           [18] loadk      4   6        ; 0
9B61  90800280           [19] forprep    2   11       ; to [31]
9B65  86010003           [20] loadnil    6   6      
9B69  CE410100           [21] gettable   7   0   5  
9B6D  E4C1C103           [22] self       7   7   263  ; 2022702902
9B71  E2810001           [23] call       7   2   2  
9B75  92018003           [24] move       6   7      
9B79  DD410100           [25] getglobal  7   5        ; 1074689893
9B7D  12020003           [26] move       8   6      
9B81  E2810001           [27] call       7   2   2  
9B85  D8410000           [28] test       7       1    ; to [30] if false
9B89  1A000080           [29] jmp        1            ; to [31]
9B8D  52000003           [30] move       1   6      
9B91  94C0FC7F           [31] forloop    2   -12      ; to [20] if loop
9B95  DD010200           [32] getglobal  7   8        ; 538022378
9B99  19820000           [33] loadk      8   2        ; 0
9B9D  E2410001           [34] call       7   2   1  
9BA1  1A80F97F           [35] jmp        -25          ; to [11]
9BA5  DD410200           [36] getglobal  7   9        ; proximityMultiAvatarTrigger
9BA9  E481C203           [37] self       7   7   266  ; 1146685999
9BAD  52028000           [38] move       9   1      
9BB1  9DC20200           [39] getglobal  10  11       ; -332969190
9BB5  A2028000           [40] call       10  1   0  
9BB9  E2410000           [41] call       7   0   1  
9BBD  DD010300           [42] getglobal  7   12       ; proximityDeco
9BC1  E481C203           [43] self       7   7   266  ; 1146685999
9BC5  52028000           [44] move       9   1      
9BC9  9DC20200           [45] getglobal  10  11       ; -332969190
9BCD  A2028000           [46] call       10  1   0  
9BD1  E2410000           [47] call       7   0   1  
9BD5  DD410100           [48] getglobal  7   5        ; 1074689893
9BD9  1D420300           [49] getglobal  8   13       ; objectiveMarker
9BDD  E2810001           [50] call       7   2   2  
9BE1  D8410000           [51] test       7       1    ; to [53] if false
9BE5  1A400180           [52] jmp        6            ; to [59]
9BE9  DD410300           [53] getglobal  7   13       ; objectiveMarker
9BED  E481C203           [54] self       7   7   266  ; 1146685999
9BF1  52028000           [55] move       9   1      
9BF5  9DC20200           [56] getglobal  10  11       ; -332969190
9BF9  A2028000           [57] call       10  1   0  
9BFD  E2410000           [58] call       7   0   1  
9C01  1E008000           [59] return     0   1      
                         * constants:
9C05  0E                 sizek (14)
9C06  04                 const type 4
9C07  0B                 string size (11)
9C08  6747616D6552756C+  "gGameRul"
9C10  657300             "es\0"
                         const [0]: "gGameRules"
9C13  01                 const type 3
9C14  FBE70EED           const [1]: (-317790213)
9C18  03                 const type 3
9C19  00000000           const [2]: (0)
9C1D  04                 const type 4
9C1E  0D                 string size (13)
9C1F  737061776E636F6E+  "spawncon"
9C27  74726F6C00         "trol\0"
                         const [3]: "spawncontrol"
9C2C  01                 const type 3
9C2D  2E63E22F           const [4]: (803365678)
9C31  01                 const type 3
9C32  65770E40           const [5]: (1074689893)
9C36  03                 const type 3
9C37  0000803F           const [6]: (0)
9C3B  01                 const type 3
9C3C  36FF8F78           const [7]: (2022702902)
9C40  01                 const type 3
9C41  EA911120           const [8]: (538022378)
9C45  04                 const type 4
9C46  1C                 string size (28)
9C47  70726F78696D6974+  "proximit"
9C4F  794D756C74694176+  "yMultiAv"
9C57  6174617254726967+  "atarTrig"
9C5F  67657200           "ger\0"
                         const [9]: "proximityMultiAvatarTrigger"
9C63  01                 const type 3
9C64  2F0A5944           const [10]: (1146685999)
9C68  01                 const type 3
9C69  1A4B27EC           const [11]: (-332969190)
9C6D  04                 const type 4
9C6E  0E                 string size (14)
9C6F  70726F78696D6974+  "proximit"
9C77  794465636F00       "yDeco\0"
                         const [12]: "proximityDeco"
9C7D  04                 const type 4
9C7E  10                 string size (16)
9C7F  6F626A6563746976+  "objectiv"
9C87  654D61726B657200   "eMarker\0"
                         const [13]: "objectiveMarker"
                         * functions:
9C8F  00                 sizep (0)
                         * lines:
9C90  3B                 sizelineinfo (59)
                         [pc] (line)
9C91  EF                 [01] (-17)
9C92  06                 [02] (-17)
9C93  00                 [03] (-17)
9C94  00                 [04] (-17)
9C95  EF                 [05] (-17)
9C96  06                 [06] (-17)
9C97  00                 [07] (-16)
9C98  00                 [08] (-16)
9C99  EF                 [09] (-16)
9C9A  06                 [10] (-15)
9C9B  00                 [11] (-13)
9C9C  00                 [12] (-13)
9C9D  EF                 [13] (-13)
9C9E  06                 [14] (-13)
9C9F  00                 [15] (-13)
9CA0  00                 [16] (-12)
9CA1  EF                 [17] (-12)
9CA2  06                 [18] (-12)
9CA3  00                 [19] (-12)
9CA4  00                 [20] (-11)
9CA5  EF                 [21] (-10)
9CA6  06                 [22] (-10)
9CA7  00                 [23] (-10)
9CA8  00                 [24] (-10)
9CA9  F0                 [25] (-9)
9CAA  06                 [26] (-9)
9CAB  00                 [27] (-9)
9CAC  00                 [28] (-9)
9CAD  F0                 [29] (-9)
9CAE  06                 [30] (-8)
9CAF  00                 [31] (-12)
9CB0  00                 [32] (-5)
9CB1  F0                 [33] (-5)
9CB2  06                 [34] (-5)
9CB3  00                 [35] (-5)
9CB4  00                 [36] (-2)
9CB5  F1                 [37] (-2)
9CB6  06                 [38] (-2)
9CB7  00                 [39] (-2)
9CB8  00                 [40] (-2)
9CB9  F3                 [41] (-2)
9CBA  06                 [42] (-1)
9CBB  00                 [43] (-1)
9CBC  00                 [44] (-1)
9CBD  F3                 [45] (-1)
9CBE  06                 [46] (-1)
9CBF  00                 [47] (-1)
9CC0  00                 [48] (0)
9CC1  F3                 [49] (0)
9CC2  06                 [50] (0)
9CC3  00                 [51] (0)
9CC4  00                 [52] (0)
9CC5  F3                 [53] (1)
9CC6  06                 [54] (1)
9CC7  00                 [55] (1)
9CC8  00                 [56] (1)
9CC9  F3                 [57] (1)
9CCA  06                 [58] (1)
9CCB  00                 [59] (4)
                         * locals:
9D7D  00                 sizelocvars (0)
                         * upvalues:
9D7E  00                 sizeupvalues (0)
                         ** end of function **

                         
9D7F                     ** function [34] definition (level 2)
                         ** start of function **
9D7F  00                 string size (0)
                         source name: (none)
9D81  0E                 line defined (1798)
9D82  B0                 last line defined (1840)
9D83  0E                 nups (0)
9D84  00                 numparams (1)
9D85  01                 is_vararg (0)
9D86  00                 maxstacksize (15)
                         * code:
9D88  6A                 sizecode (106)
9D89  5D000000           [001] getglobal  1   0        ; 538022378
9D8D  99400000           [002] loadk      2   1        ; 0
9D91  62400001           [003] call       1   2   1  
9D95  5D800000           [004] getglobal  1   2        ; -332969190
9D99  99C00000           [005] loadk      2   3        ; "PreventDeath"
9D9D  62800001           [006] call       1   2   2  
9DA1  A4004100           [007] self       2   0   260  ; 945541886
9DA5  A2800001           [008] call       2   2   2  
9DA9  D7000000           [009] loadbool   3   0   0    ; false
9DAD  17010000           [010] loadbool   4   0   0    ; false
9DB1  57010000           [011] loadbool   5   0   0    ; false
9DB5  A4414100           [012] self       6   0   261  ; -1625438872
9DB9  1D820100           [013] getglobal  8   6        ; tubesDeco
9DBD  A2818001           [014] call       6   3   2  
9DC1  E4C14100           [015] self       7   0   263  ; 796523475
9DC5  E2810001           [016] call       7   2   2  
9DC9  1D020200           [017] getglobal  8   8        ; gFlashMgr
9DCD  24424204           [018] self       8   8   265  ; 277467219
9DD1  99820200           [019] loadk      10  10       ; "LotusGameRules.DemoMode"
9DD5  22828001           [020] call       8   3   2  
9DD9  18020000           [021] test       8       0    ; to [23] if true
9DDD  1AC00380           [022] jmp        16           ; to [39]
9DE1  1DC20200           [023] getglobal  8   11       ; 1668611480
9DE5  5C828003           [024] div        9   7   2  
9DE9  4D02C304           [025] sub        9   9   268  ; -51
9DED  99420300           [026] loadk      10  13       ; 0
9DF1  D9820300           [027] loadk      11  14       ; 0
9DF5  22820002           [028] call       8   4   2  
9DF9  64C24300           [029] self       9   0   271  ; -1544157541
9DFD  62820001           [030] call       9   2   2  
9E01  6402C404           [031] self       9   9   272  ; -1844106636
9E05  D2028000           [032] move       11  1      
9E09  1D430400           [033] getglobal  12  17       ; Engine
9E0D  0E834406           [034] gettable   12  12  274  ; "DT_ANY"
9E11  5D430400           [035] getglobal  13  17       ; Engine
9E15  4EC3C406           [036] gettable   13  13  275  ; "ANY_PART"
9E19  92030004           [037] move       14  8      
9E1D  62420003           [038] call       9   6   1  
9E21  5D020500           [039] getglobal  9   20       ; damageStates
9E25  58020000           [040] test       9       0    ; to [42] if true
9E29  1AC00E80           [041] jmp        60           ; to [102]
9E2D  5D420500           [042] getglobal  9   21       ; 1074689893
9E31  92020003           [043] move       10  6      
9E35  62820001           [044] call       9   2   2  
9E39  58420000           [045] test       9       1    ; to [47] if false
9E3D  1A800D80           [046] jmp        55           ; to [102]
9E41  5C828003           [047] div        9   7   2  
fail op	21
9E45  1580C504           [048] concat     0   9   278
9E49  1A000380           [049] jmp        13           ; to [63]
9E4D  58410000           [050] test       5       1    ; to [52] if false
9E51  1A400C80           [051] jmp        50           ; to [102]
9E55  57018000           [052] loadbool   5   1   0    ; true
9E59  A4C24503           [053] self       10  6   279  ; -1421644046
9E5D  1D030600           [054] getglobal  12  24       ; damagedEffectC
9E61  5D430600           [055] getglobal  13  25       ; EMPTY_SYMBOL
9E65  A2420002           [056] call       10  4   1  
9E69  A4824603           [057] self       10  6   282  ; 2056776437
9E6D  1DC30600           [058] getglobal  12  27       ; tubesAnimC
9E71  57030000           [059] loadbool   13  0   0    ; false
9E75  97038000           [060] loadbool   14  1   0    ; true
9E79  A2428002           [061] call       10  5   1  
9E7D  1A800980           [062] jmp        39           ; to [102]
fail op	21
9E81  1500C704           [063] concat     0   9   284
9E85  1A400480           [064] jmp        18           ; to [83]
9E89  18410000           [065] test       4       1    ; to [67] if false
9E8D  1A800880           [066] jmp        35           ; to [102]
9E91  17018000           [067] loadbool   4   1   0    ; true
9E95  A4C24503           [068] self       10  6   279  ; -1421644046
9E99  1D430700           [069] getglobal  12  29       ; damagedEffectB
9E9D  5D430600           [070] getglobal  13  25       ; EMPTY_SYMBOL
9EA1  A2420002           [071] call       10  4   1  
9EA5  A4824603           [072] self       10  6   282  ; 2056776437
9EA9  1D830700           [073] getglobal  12  30       ; tubesAnimB
9EAD  57030000           [074] loadbool   13  0   0    ; false
9EB1  97038000           [075] loadbool   14  1   0    ; true
9EB5  A2428002           [076] call       10  5   1  
9EB9  A4C24700           [077] self       10  0   287  ; 919598577
9EBD  1D030800           [078] getglobal  12  32       ; damagedMeshB
9EC1  57030000           [079] loadbool   13  0   0    ; false
9EC5  97030000           [080] loadbool   14  0   0    ; false
9EC9  A2428002           [081] call       10  5   1  
9ECD  1A800480           [082] jmp        19           ; to [102]
fail op	21
9ED1  1540C804           [083] concat     0   9   289
9ED5  1A000480           [084] jmp        17           ; to [102]
9ED9  D8400000           [085] test       3       1    ; to [87] if false
9EDD  1A800380           [086] jmp        15           ; to [102]
9EE1  D7008000           [087] loadbool   3   1   0    ; true
9EE5  A4C24503           [088] self       10  6   279  ; -1421644046
9EE9  1D830800           [089] getglobal  12  34       ; damagedEffectA
9EED  5D430600           [090] getglobal  13  25       ; EMPTY_SYMBOL
9EF1  A2420002           [091] call       10  4   1  
9EF5  A4824603           [092] self       10  6   282  ; 2056776437
9EF9  1DC30800           [093] getglobal  12  35       ; tubesAnimA
9EFD  57030000           [094] loadbool   13  0   0    ; false
9F01  97038000           [095] loadbool   14  1   0    ; true
9F05  A2428002           [096] call       10  5   1  
9F09  A4C24700           [097] self       10  0   287  ; 919598577
9F0D  1D030900           [098] getglobal  12  36       ; damagedMeshA
9F11  57030000           [099] loadbool   13  0   0    ; false
9F15  97030000           [100] loadbool   14  0   0    ; false
9F19  A2428002           [101] call       10  5   1  
9F1D  9D020000           [102] getglobal  10  0        ; 538022378
9F21  D9420300           [103] loadk      11  13       ; 0
9F25  A2420001           [104] call       10  2   1  
9F29  1A00E97F           [105] jmp        -91          ; to [15]
9F2D  1E008000           [106] return     0   1      
                         * constants:
9F31  25                 sizek (37)
9F32  01                 const type 3
9F33  EA911120           const [0]: (538022378)
9F37  03                 const type 3
9F38  0000003F           const [1]: (0)
9F3C  01                 const type 3
9F3D  1A4B27EC           const [2]: (-332969190)
9F41  04                 const type 4
9F42  0D                 string size (13)
9F43  50726576656E7444+  "PreventD"
9F4B  6561746800         "eath\0"
                         const [3]: "PreventDeath"
9F50  01                 const type 3
9F51  FED25B38           const [4]: (945541886)
9F55  01                 const type 3
9F56  68C51D9F           const [5]: (-1625438872)
9F5A  04                 const type 4
9F5B  0A                 string size (10)
9F5C  7475626573446563+  "tubesDec"
9F64  6F00               "o\0"
                         const [6]: "tubesDeco"
9F66  01                 const type 3
9F67  D3FB792F           const [7]: (796523475)
9F6B  04                 const type 4
9F6C  0A                 string size (10)
9F6D  67466C6173684D67+  "gFlashMg"
9F75  7200               "r\0"
                         const [8]: "gFlashMgr"
9F77  01                 const type 3
9F78  53D08910           const [9]: (277467219)
9F7C  04                 const type 4
9F7D  18                 string size (24)
9F7E  4C6F74757347616D+  "LotusGam"
9F86  6552756C65732E44+  "eRules.D"
9F8E  656D6F4D6F646500   "emoMode\0"
                         const [10]: "LotusGameRules.DemoMode"
9F96  01                 const type 3
9F97  98FD7463           const [11]: (1668611480)
9F9B  03                 const type 3
9F9C  CDCCCC3D           const [12]: (-51)
9FA0  03                 const type 3
9FA1  00000000           const [13]: (0)
9FA5  03                 const type 3
9FA6  0000803F           const [14]: (0)
9FAA  01                 const type 3
9FAB  9B06F6A3           const [15]: (-1544157541)
9FAF  01                 const type 3
9FB0  742A1592           const [16]: (-1844106636)
9FB4  04                 const type 4
9FB5  07                 string size (7)
9FB6  456E67696E6500     "Engine\0"
                         const [17]: "Engine"
9FBD  04                 const type 4
9FBE  07                 string size (7)
9FBF  44545F414E5900     "DT_ANY\0"
                         const [18]: "DT_ANY"
9FC6  04                 const type 4
9FC7  09                 string size (9)
9FC8  414E595F50415254+  "ANY_PART"
9FD0  00                 "\0"
                         const [19]: "ANY_PART"
9FD1  04                 const type 4
9FD2  0D                 string size (13)
9FD3  64616D6167655374+  "damageSt"
9FDB  6174657300         "ates\0"
                         const [20]: "damageStates"
9FE0  01                 const type 3
9FE1  65770E40           const [21]: (1074689893)
9FE5  03                 const type 3
9FE6  9A99993E           const [22]: (-102)
9FEA  01                 const type 3
9FEB  F26E43AB           const [23]: (-1421644046)
9FEF  04                 const type 4
9FF0  0F                 string size (15)
9FF1  64616D6167656445+  "damagedE"
9FF9  66666563744300     "ffectC\0"
                         const [24]: "damagedEffectC"
A000  04                 const type 4
A001  0D                 string size (13)
A002  454D5054595F5359+  "EMPTY_SY"
A00A  4D424F4C00         "MBOL\0"
                         const [25]: "EMPTY_SYMBOL"
A00F  01                 const type 3
A010  F5EA977A           const [26]: (2056776437)
A014  04                 const type 4
A015  0B                 string size (11)
A016  7475626573416E69+  "tubesAni"
A01E  6D4300             "mC\0"
                         const [27]: "tubesAnimC"
A021  03                 const type 3
A022  9A99193F           const [28]: (-102)
A026  04                 const type 4
A027  0F                 string size (15)
A028  64616D6167656445+  "damagedE"
A030  66666563744200     "ffectB\0"
                         const [29]: "damagedEffectB"
A037  04                 const type 4
A038  0B                 string size (11)
A039  7475626573416E69+  "tubesAni"
A041  6D4200             "mB\0"
                         const [30]: "tubesAnimB"
A044  01                 const type 3
A045  F1F5CF36           const [31]: (919598577)
A049  04                 const type 4
A04A  0D                 string size (13)
A04B  64616D616765644D+  "damagedM"
A053  6573684200         "eshB\0"
                         const [32]: "damagedMeshB"
A058  03                 const type 3
A059  6666663F           const [33]: (102)
A05D  04                 const type 4
A05E  0F                 string size (15)
A05F  64616D6167656445+  "damagedE"
A067  66666563744100     "ffectA\0"
                         const [34]: "damagedEffectA"
A06E  04                 const type 4
A06F  0B                 string size (11)
A070  7475626573416E69+  "tubesAni"
A078  6D4100             "mA\0"
                         const [35]: "tubesAnimA"
A07B  04                 const type 4
A07C  0D                 string size (13)
A07D  64616D616765644D+  "damagedM"
A085  6573684100         "eshA\0"
                         const [36]: "damagedMeshA"
                         * functions:
A08A  00                 sizep (0)
                         * lines:
A08B  6A                 sizelineinfo (106)
                         [pc] (line)
A08C  07                 [001] (7)
A08D  07                 [002] (7)
A08E  00                 [003] (7)
A08F  00                 [004] (8)
A090  07                 [005] (8)
A091  07                 [006] (8)
A092  00                 [007] (9)
A093  00                 [008] (9)
A094  07                 [009] (10)
A095  07                 [010] (11)
A096  00                 [011] (12)
A097  00                 [012] (13)
A098  08                 [013] (13)
A099  07                 [014] (13)
A09A  00                 [015] (16)
A09B  00                 [016] (16)
A09C  08                 [017] (17)
A09D  07                 [018] (17)
A09E  00                 [019] (17)
A09F  00                 [020] (17)
A0A0  08                 [021] (17)
A0A1  07                 [022] (17)
A0A2  00                 [023] (18)
A0A3  00                 [024] (18)
A0A4  09                 [025] (18)
A0A5  07                 [026] (18)
A0A6  00                 [027] (18)
A0A7  00                 [028] (18)
A0A8  09                 [029] (19)
A0A9  07                 [030] (19)
A0AA  00                 [031] (19)
A0AB  00                 [032] (19)
A0AC  0A                 [033] (19)
A0AD  07                 [034] (19)
A0AE  00                 [035] (19)
A0AF  00                 [036] (19)
A0B0  0B                 [037] (19)
A0B1  07                 [038] (19)
A0B2  00                 [039] (21)
A0B3  00                 [040] (21)
A0B4  0C                 [041] (21)
A0B5  07                 [042] (21)
A0B6  00                 [043] (21)
A0B7  00                 [044] (21)
A0B8  0D                 [045] (21)
A0B9  07                 [046] (21)
A0BA  00                 [047] (22)
A0BB  00                 [048] (23)
A0BC  0D                 [049] (23)
A0BD  07                 [050] (24)
A0BE  00                 [051] (24)
A0BF  00                 [052] (25)
A0C0  0D                 [053] (26)
A0C1  07                 [054] (26)
A0C2  00                 [055] (26)
A0C3  00                 [056] (26)
A0C4  10                 [057] (27)
A0C5  07                 [058] (27)
A0C6  00                 [059] (27)
A0C7  00                 [060] (27)
A0C8  10                 [061] (27)
A0C9  07                 [062] (28)
A0CA  00                 [063] (29)
A0CB  00                 [064] (29)
A0CC  11                 [065] (30)
A0CD  07                 [066] (30)
A0CE  00                 [067] (31)
A0CF  00                 [068] (32)
A0D0  11                 [069] (32)
A0D1  07                 [070] (32)
A0D2  00                 [071] (32)
A0D3  00                 [072] (33)
A0D4  11                 [073] (33)
A0D5  07                 [074] (33)
A0D6  00                 [075] (33)
A0D7  00                 [076] (33)
A0D8  11                 [077] (34)
A0D9  07                 [078] (34)
A0DA  00                 [079] (34)
A0DB  00                 [080] (34)
A0DC  11                 [081] (34)
A0DD  07                 [082] (35)
A0DE  00                 [083] (36)
A0DF  00                 [084] (36)
A0E0  11                 [085] (37)
A0E1  07                 [086] (37)
A0E2  00                 [087] (38)
A0E3  00                 [088] (39)
A0E4  12                 [089] (39)
A0E5  07                 [090] (39)
A0E6  00                 [091] (39)
A0E7  00                 [092] (40)
A0E8  12                 [093] (40)
A0E9  07                 [094] (40)
A0EA  00                 [095] (40)
A0EB  00                 [096] (40)
A0EC  12                 [097] (41)
A0ED  07                 [098] (41)
A0EE  00                 [099] (41)
A0EF  00                 [100] (41)
A0F0  12                 [101] (41)
A0F1  07                 [102] (46)
A0F2  00                 [103] (46)
A0F3  00                 [104] (46)
A0F4  12                 [105] (46)
A0F5  07                 [106] (48)
                         * locals:
A234  00                 sizelocvars (0)
                         * upvalues:
A235  00                 sizeupvalues (0)
                         ** end of function **

                         
A236                     ** function [35] definition (level 2)
                         ** start of function **
A236  00                 string size (0)
                         source name: (none)
A238  0E                 line defined (1842)
A239  CE                 last line defined (1870)
A23A  0E                 nups (1)
A23B  01                 numparams (0)
A23C  00                 is_vararg (0)
A23D  00                 maxstacksize (9)
                         * code:
A23F  43                 sizecode (67)
A240  1D000000           [01] getglobal  0   0        ; gRegion
A244  24404000           [02] self       0   0   257  ; -1875307917
A248  9D800000           [03] getglobal  2   2        ; -332969190
A24C  D9C00000           [04] loadk      3   3        ; "WaveDefenseStart"
A250  A2000001           [05] call       2   2   0  
A254  22800000           [06] call       0   0   2  
A258  5D000100           [07] getglobal  1   4        ; 1074689893
A25C  92000000           [08] move       2   0      
A260  62800001           [09] call       1   2   2  
A264  58400000           [10] test       1       1    ; to [12] if false
A268  1A800D80           [11] jmp        55           ; to [67]
A26C  53000000           [12] getupval   1   0      
A270  4E40C100           [13] gettable   1   1   261  ; 1381354263
A274  9D800100           [14] getglobal  2   6        ; transmissionSet
A278  62400001           [15] call       1   2   1  
A27C  5DC00100           [16] getglobal  1   7        ; 538022378
A280  99000200           [17] loadk      2   8        ; 0
A284  62400001           [18] call       1   2   1  
A288  64404200           [19] self       1   0   265  ; -1923578185
A28C  D9800200           [20] loadk      3   10       ; "Execute"
A290  62408001           [21] call       1   3   1  
A294  5DC00200           [22] getglobal  1   11       ; gPromotedToHost
A298  58400000           [23] test       1       1    ; to [25] if false
A29C  1AC00480           [24] jmp        20           ; to [45]
A2A0  5D000000           [25] getglobal  1   0        ; gRegion
A2A4  6400C300           [26] self       1   1   268  ; -1485896174
A2A8  DD800000           [27] getglobal  3   2        ; -332969190
A2AC  19410300           [28] loadk      4   13       ; "DefenseMoverScript"
A2B0  E2000001           [29] call       3   2   0  
A2B4  62800000           [30] call       1   0   2  
A2B8  9D000100           [31] getglobal  2   4        ; 1074689893
A2BC  D2008000           [32] move       3   1      
A2C0  A2800001           [33] call       2   2   2  
A2C4  98400000           [34] test       2       1    ; to [36] if false
A2C8  1A000280           [35] jmp        9            ; to [45]
A2CC  9D000100           [36] getglobal  2   4        ; 1074689893
A2D0  CE80C300           [37] gettable   3   1   270  ; 0
A2D4  A2800001           [38] call       2   2   2  
A2D8  98400000           [39] test       2       1    ; to [41] if false
A2DC  1AC00080           [40] jmp        4            ; to [45]
A2E0  8E80C300           [41] gettable   2   1   270  ; 0
A2E4  A4404201           [42] self       2   2   265  ; -1923578185
A2E8  19810200           [43] loadk      4   10       ; "Execute"
A2EC  A2408001           [44] call       2   3   1  
A2F0  9DC00300           [45] getglobal  2   15       ; gGameRules
A2F4  E4004401           [46] self       3   2   272  ; -1201441975
A2F8  E2800001           [47] call       3   2   2  
A2FC  0E41C401           [48] gettable   4   3   273  ; "goalTag"
A300  5D810000           [49] getglobal  5   2        ; -332969190
A304  99810400           [50] loadk      6   18       ; "KubrowQuestDefense"
A308  62810001           [51] call       5   2   2  
fail op	35
A30C  23400102           [52] close      0  
A310  1A000380           [53] jmp        13           ; to [67]
A314  5D010000           [54] getglobal  5   0        ; gRegion
A318  6441C002           [55] self       5   5   257  ; -1875307917
A31C  DD810000           [56] getglobal  7   2        ; -332969190
A320  19C20400           [57] loadk      8   19       ; "ExtractionTrigger"
A324  E2010001           [58] call       7   2   0  
A328  62810000           [59] call       5   0   2  
A32C  9D010100           [60] getglobal  6   4        ; 1074689893
A330  D2018002           [61] move       7   5      
A334  A2810001           [62] call       6   2   2  
A338  98410000           [63] test       6       1    ; to [65] if false
A33C  1A400080           [64] jmp        2            ; to [67]
A340  A401C502           [65] self       6   5   276  ; 766584623
A344  A2410001           [66] call       6   2   1  
A348  1E008000           [67] return     0   1      
                         * constants:
A34C  15                 sizek (21)
A34D  04                 const type 4
A34E  08                 string size (8)
A34F  67526567696F6E00   "gRegion\0"
                         const [0]: "gRegion"
A357  01                 const type 3
A358  73123990           const [1]: (-1875307917)
A35C  01                 const type 3
A35D  1A4B27EC           const [2]: (-332969190)
A361  04                 const type 4
A362  11                 string size (17)
A363  5761766544656665+  "WaveDefe"
A36B  6E73655374617274+  "nseStart"
A373  00                 "\0"
                         const [3]: "WaveDefenseStart"
A374  01                 const type 3
A375  65770E40           const [4]: (1074689893)
A379  01                 const type 3
A37A  17CB5552           const [5]: (1381354263)
A37E  04                 const type 4
A37F  10                 string size (16)
A380  7472616E736D6973+  "transmis"
A388  73696F6E53657400   "sionSet\0"
                         const [6]: "transmissionSet"
A390  01                 const type 3
A391  EA911120           const [7]: (538022378)
A395  03                 const type 3
A396  00000000           const [8]: (0)
A39A  01                 const type 3
A39B  B786588D           const [9]: (-1923578185)
A39F  04                 const type 4
A3A0  08                 string size (8)
A3A1  4578656375746500   "Execute\0"
                         const [10]: "Execute"
A3A9  04                 const type 4
A3AA  10                 string size (16)
A3AB  6750726F6D6F7465+  "gPromote"
A3B3  64546F486F737400   "dToHost\0"
                         const [11]: "gPromotedToHost"
A3BB  01                 const type 3
A3BC  12066FA7           const [12]: (-1485896174)
A3C0  04                 const type 4
A3C1  13                 string size (19)
A3C2  446566656E73654D+  "DefenseM"
A3CA  6F76657253637269+  "overScri"
A3D2  707400             "pt\0"
                         const [13]: "DefenseMoverScript"
A3D5  03                 const type 3
A3D6  0000803F           const [14]: (0)
A3DA  04                 const type 4
A3DB  0B                 string size (11)
A3DC  6747616D6552756C+  "gGameRul"
A3E4  657300             "es\0"
                         const [15]: "gGameRules"
A3E7  01                 const type 3
A3E8  497363B8           const [16]: (-1201441975)
A3EC  04                 const type 4
A3ED  08                 string size (8)
A3EE  676F616C54616700   "goalTag\0"
                         const [17]: "goalTag"
A3F6  04                 const type 4
A3F7  13                 string size (19)
A3F8  4B7562726F775175+  "KubrowQu"
A400  657374446566656E+  "estDefen"
A408  736500             "se\0"
                         const [18]: "KubrowQuestDefense"
A40B  04                 const type 4
A40C  12                 string size (18)
A40D  4578747261637469+  "Extracti"
A415  6F6E547269676765+  "onTrigge"
A41D  7200               "r\0"
                         const [19]: "ExtractionTrigger"
A41F  01                 const type 3
A420  2F27B12D           const [20]: (766584623)
                         * functions:
A424  00                 sizep (0)
                         * lines:
A425  43                 sizelineinfo (67)
                         [pc] (line)
A426  33                 [01] (51)
A427  07                 [02] (51)
A428  00                 [03] (51)
A429  00                 [04] (51)
A42A  33                 [05] (51)
A42B  07                 [06] (51)
A42C  00                 [07] (52)
A42D  00                 [08] (52)
A42E  33                 [09] (52)
A42F  07                 [10] (52)
A430  00                 [11] (52)
A431  00                 [12] (53)
A432  33                 [13] (53)
A433  07                 [14] (53)
A434  00                 [15] (53)
A435  00                 [16] (54)
A436  33                 [17] (54)
A437  07                 [18] (54)
A438  00                 [19] (55)
A439  00                 [20] (55)
A43A  33                 [21] (55)
A43B  07                 [22] (58)
A43C  00                 [23] (58)
A43D  00                 [24] (58)
A43E  34                 [25] (59)
A43F  07                 [26] (59)
A440  00                 [27] (59)
A441  00                 [28] (59)
A442  34                 [29] (59)
A443  07                 [30] (59)
A444  00                 [31] (60)
A445  00                 [32] (60)
A446  34                 [33] (60)
A447  07                 [34] (60)
A448  00                 [35] (60)
A449  00                 [36] (61)
A44A  34                 [37] (61)
A44B  07                 [38] (61)
A44C  00                 [39] (61)
A44D  00                 [40] (61)
A44E  34                 [41] (62)
A44F  07                 [42] (62)
A450  00                 [43] (62)
A451  00                 [44] (62)
A452  35                 [45] (68)
A453  07                 [46] (69)
A454  00                 [47] (69)
A455  00                 [48] (70)
A456  35                 [49] (71)
A457  07                 [50] (71)
A458  00                 [51] (71)
A459  00                 [52] (71)
A45A  35                 [53] (71)
A45B  07                 [54] (72)
A45C  00                 [55] (72)
A45D  00                 [56] (72)
A45E  35                 [57] (72)
A45F  07                 [58] (72)
A460  00                 [59] (72)
A461  00                 [60] (73)
A462  36                 [61] (73)
A463  07                 [62] (73)
A464  00                 [63] (73)
A465  00                 [64] (73)
A466  36                 [65] (74)
A467  07                 [66] (74)
A468  00                 [67] (78)
                         * locals:
A532  00                 sizelocvars (0)
                         * upvalues:
A533  00                 sizeupvalues (0)
                         ** end of function **

                         
A534                     ** function [36] definition (level 2)
                         ** start of function **
A534  00                 string size (0)
                         source name: (none)
A536  0E                 line defined (1873)
A537  DE                 last line defined (1886)
A538  0E                 nups (0)
A539  00                 numparams (2)
A53A  02                 is_vararg (0)
A53B  00                 maxstacksize (12)
                         * code:
A53D  13                 sizecode (19)
A53E  9D000000           [01] getglobal  2   0        ; FLT_MAX
A542  C6008001           [02] loadnil    3   3      
A546  2441C000           [03] self       4   1   257  ; 1839670529
A54A  22810001           [04] call       4   2   2  
A54E  59810000           [05] loadk      5   2        ; 0
A552  8A010000           [06] len        6   0      
A556  D9810000           [07] loadk      7   2        ; 0
A55A  50C10180           [08] forprep    5   8        ; to [17]
A55E  4E020200           [09] gettable   9   0   8  
A562  64C2C004           [10] self       9   9   259  ; -1399888605
A566  D2020002           [11] move       11  4      
A56A  62828001           [12] call       9   3   2  
fail op	21
A56E  15808004           [13] concat     0   9   2  
A572  1A400080           [14] jmp        2            ; to [17]
A576  CE000200           [15] gettable   3   0   8  
A57A  92008004           [16] move       2   9      
A57E  5481FD7F           [17] forloop    5   -9       ; to [9] if loop
A582  DE000001           [18] return     3   2      
A586  1E008000           [19] return     0   1      
                         * constants:
A58A  04                 sizek (4)
A58B  04                 const type 4
A58C  08                 string size (8)
A58D  464C545F4D415800   "FLT_MAX\0"
                         const [0]: "FLT_MAX"
A595  01                 const type 3
A596  0125A76D           const [1]: (1839670529)
A59A  03                 const type 3
A59B  0000803F           const [2]: (0)
A59F  01                 const type 3
A5A0  23658FAC           const [3]: (-1399888605)
                         * functions:
A5A4  00                 sizep (0)
                         * lines:
A5A5  13                 sizelineinfo (19)
                         [pc] (line)
A5A6  52                 [01] (82)
A5A7  07                 [02] (83)
A5A8  00                 [03] (84)
A5A9  00                 [04] (84)
A5AA  53                 [05] (85)
A5AB  07                 [06] (85)
A5AC  00                 [07] (85)
A5AD  00                 [08] (85)
A5AE  54                 [09] (86)
A5AF  07                 [10] (86)
A5B0  00                 [11] (86)
A5B1  00                 [12] (86)
A5B2  54                 [13] (87)
A5B3  07                 [14] (87)
A5B4  00                 [15] (88)
A5B5  00                 [16] (89)
A5B6  55                 [17] (85)
A5B7  07                 [18] (93)
A5B8  00                 [19] (94)
                         * locals:
A5F2  00                 sizelocvars (0)
                         * upvalues:
A5F3  00                 sizeupvalues (0)
                         ** end of function **

                         
A5F4                     ** function [37] definition (level 2)
                         ** start of function **
A5F4  00                 string size (0)
                         source name: (none)
A5F6  0E                 line defined (1891)
A5F7  DB                 last line defined (2011)
A5F8  0F                 nups (6)
A5F9  06                 numparams (0)
A5FA  00                 is_vararg (0)
A5FB  00                 maxstacksize (32)
                         * code:
A5FE  02                 sizecode (256)
A5FF  17000000           [001] loadbool   0   0   0    ; false
A603  18000000           [002] test       0       0    ; to [4] if true
A607  1A000080           [003] jmp        1            ; to [5]
A60B  1E008000           [004] return     0   1      
A60F  1D000000           [005] getglobal  0   0        ; gGameRules
A613  5D400000           [006] getglobal  1   1        ; spawncontrol
A617  6480C000           [007] self       1   1   258  ; 803365678
A61B  62800001           [008] call       1   2   2  
A61F  4EC0C000           [009] gettable   1   1   259  ; 0
A623  A400C100           [010] self       2   1   260  ; 2022702902
A627  A2800001           [011] call       2   2   2  
A62B  E4404101           [012] self       3   2   261  ; -1957065004
A62F  53010000           [013] getupval   5   0      
A633  E2808001           [014] call       3   3   2  
A637  D8400000           [015] test       3       1    ; to [17] if false
A63B  1A400480           [016] jmp        18           ; to [35]
A63F  DD800100           [017] getglobal  3   6        ; 1074689893
A643  1DC10100           [018] getglobal  4   7        ; fakeCryopodNoCollision
A647  E2800001           [019] call       3   2   2  
A64B  D8400000           [020] test       3       1    ; to [22] if false
A64F  1A800080           [021] jmp        3            ; to [25]
A653  DDC00100           [022] getglobal  3   7        ; fakeCryopodNoCollision
A657  E400C201           [023] self       3   3   264  ; -725453761
A65B  E2400001           [024] call       3   2   1  
A65F  DD800100           [025] getglobal  3   6        ; 1074689893
A663  1D410200           [026] getglobal  4   9        ; fakeCryopodCollision
A667  E2800001           [027] call       3   2   2  
A66B  D8400000           [028] test       3       1    ; to [30] if false
A66F  1A800080           [029] jmp        3            ; to [33]
A673  DD400200           [030] getglobal  3   9        ; fakeCryopodCollision
A677  E400C201           [031] self       3   3   264  ; -725453761
A67B  E2400001           [032] call       3   2   1  
A67F  1E008000           [033] return     0   1      
A683  1AC00180           [034] jmp        8            ; to [43]
A687  DDC00100           [035] getglobal  3   7        ; fakeCryopodNoCollision
A68B  E480C201           [036] self       3   3   266  ; -1923578185
A68F  59C10200           [037] loadk      5   11       ; "Show"
A693  E2408001           [038] call       3   3   1  
A697  DD400200           [039] getglobal  3   9        ; fakeCryopodCollision
A69B  E480C201           [040] self       3   3   266  ; -1923578185
A69F  59010300           [041] loadk      5   12       ; "Hide"
A6A3  E2408001           [042] call       3   3   1  
A6A7  E4404300           [043] self       3   0   269  ; -317790213
A6AB  53018000           [044] getupval   5   1      
A6AF  E2808001           [045] call       3   3   2  
fail op	35
A6B3  2380C301           [046] close      0  
A6B7  1A000080           [047] jmp        1            ; to [49]
A6BB  1E008000           [048] return     0   1      
A6BF  06010002           [049] loadnil    4   4      
A6C3  5DC10300           [050] getglobal  5   15       ; defenseMoverRandom
A6C7  58010000           [051] test       5       0    ; to [53] if true
A6CB  1A800780           [052] jmp        31           ; to [84]
A6CF  5D010400           [053] getglobal  5   16       ; defenseMoverRandomWaveInterval
A6D3  5F418101           [054] mod        5   3   5  
fail op	35
A6D7  2380C302           [055] close      0  
A6DB  1A400F80           [056] jmp        62           ; to [119]
A6DF  5D410400           [057] getglobal  5   17       ; math
A6E3  4E81C402           [058] gettable   5   5   274  ; -2040962569
A6E7  62818000           [059] call       5   1   2  
A6EB  9DC10400           [060] getglobal  6   19       ; defenseMoverRandomChance
fail op	33
A6EF  21808102           [061] tforloop   0       6    ; to [63] if exit
A6F3  1AC00D80           [062] jmp        56           ; to [119]
A6F7  93010001           [063] getupval   6   2      
A6FB  DD010500           [064] getglobal  7   20       ; defenseMoverKeys
A6FF  1D420500           [065] getglobal  8   21       ; defenseMover
A703  A2818001           [066] call       6   3   2  
A707  D2010003           [067] move       7   6      
fail op	35
A70B  23808103           [068] close      0  
A70F  1A000C80           [069] jmp        49           ; to [119]
A713  1D820500           [070] getglobal  8   22       ; 2144646525
A717  59C20000           [071] loadk      9   3        ; 0
A71B  9D020500           [072] getglobal  10  20       ; defenseMoverKeys
A71F  8A020005           [073] len        10  10     
A723  22828001           [074] call       8   3   2  
A727  5D020500           [075] getglobal  9   20       ; defenseMoverKeys
A72B  CE018204           [076] gettable   7   9   8  
A72F  12010004           [077] move       4   8      
A733  64C24500           [078] self       9   0   279  ; -803877924
A737  D3028001           [079] getupval   11  3      
A73B  12030004           [080] move       12  8      
A73F  62420002           [081] call       9   4   1  
A743  1A00FC7F           [082] jmp        -15          ; to [68]
A747  1A800880           [083] jmp        35           ; to [119]
A74B  59C20000           [084] loadk      9   3        ; 0
A74F  9D020500           [085] getglobal  10  20       ; defenseMoverKeys
A753  8A020005           [086] len        10  10     
A757  D9C20000           [087] loadk      11  3        ; 0
A75B  50020780           [088] forprep    9   29       ; to [118]
A75F  5D030600           [089] getglobal  13  24       ; defenseMoverLoop
fail op	35
A763  2340C606           [090] close      0  
A767  1A000480           [091] jmp        17           ; to [109]
A76B  5D830600           [092] getglobal  13  26       ; defenseMoverWaves
A76F  9D830600           [093] getglobal  14  26       ; defenseMoverWaves
A773  8A030007           [094] len        14  14     
A777  4E838306           [095] gettable   13  13  14 
fail op	21
A77B  15C08006           [096] concat     0   13  3  
A77F  1A800280           [097] jmp        11           ; to [109]
A783  5D830600           [098] getglobal  13  26       ; defenseMoverWaves
A787  9D830600           [099] getglobal  14  26       ; defenseMoverWaves
A78B  8A030007           [100] len        14  14     
A78F  4E838306           [101] gettable   13  13  14 
A793  DF408301           [102] mod        3   3   13 
fail op	35
A797  2380C301           [103] close      0  
A79B  1AC00080           [104] jmp        4            ; to [109]
A79F  5D830600           [105] getglobal  13  26       ; defenseMoverWaves
A7A3  9D830600           [106] getglobal  14  26       ; defenseMoverWaves
A7A7  8A030007           [107] len        14  14     
A7AB  CE808306           [108] gettable   3   13  14 
A7AF  5D830600           [109] getglobal  13  26       ; defenseMoverWaves
A7B3  4E038306           [110] gettable   13  13  12 
fail op	35
A7B7  23408301           [111] close      0  
A7BB  1A000180           [112] jmp        5            ; to [118]
A7BF  12010006           [113] move       4   12     
A7C3  64C34500           [114] self       13  0   279  ; -803877924
A7C7  D3038001           [115] getupval   15  3      
A7CB  12040006           [116] move       16  12     
A7CF  62430002           [117] call       13  4   1  
A7D3  5442F87F           [118] forloop    9   -30      ; to [89] if loop
A7D7  5D830100           [119] getglobal  13  6        ; 1074689893
A7DB  92030002           [120] move       14  4      
A7DF  62830001           [121] call       13  2   2  
A7E3  58430000           [122] test       13      1    ; to [124] if false
A7E7  1AC02080           [123] jmp        132          ; to [256]
A7EB  5D030500           [124] getglobal  13  20       ; defenseMoverKeys
A7EF  4E038106           [125] gettable   13  13  4  
A7F3  9DC30600           [126] getglobal  14  27       ; defenseMoverNavVolumes
A7F7  8E030107           [127] gettable   14  14  4  
A7FB  DD030700           [128] getglobal  15  28       ; defenseMoverWaypoints
A7FF  CE038107           [129] gettable   15  15  4  
A803  1D440700           [130] getglobal  16  29       ; gRegion
A807  24844708           [131] self       16  16  286  ; 152279552
A80B  93040002           [132] getupval   18  4      
A80F  22848001           [133] call       16  3   2  
A813  5D840100           [134] getglobal  17  6        ; 1074689893
A817  92040008           [135] move       18  16     
A81B  62840001           [136] call       17  2   2  
A81F  58440000           [137] test       17      1    ; to [139] if false
A823  1AC00080           [138] jmp        4            ; to [143]
A827  4A040008           [139] len        17  16     
fail op	21
A82B  15400487           [140] concat     0   270 17 
A82F  1A000080           [141] jmp        1            ; to [143]
A833  0EC44008           [142] gettable   16  16  259  ; 0
A837  6484C206           [143] self       17  13  266  ; -1923578185
A83B  D9C40700           [144] loadk      19  31       ; "MoveTo"
A83F  62448001           [145] call       17  3   1  
A843  64844208           [146] self       17  16  266  ; -1923578185
A847  D9040800           [147] loadk      19  32       ; "Disable"
A84B  62448001           [148] call       17  3   1  
A84F  59C40000           [149] loadk      17  3        ; 0
A853  9DC40600           [150] getglobal  18  27       ; defenseMoverNavVolumes
A857  8A040009           [151] len        18  18     
A85B  D9C40000           [152] loadk      19  3        ; 0
A85F  50840280           [153] forprep    17  11       ; to [165]
A863  5D850100           [154] getglobal  21  6        ; 1074689893
A867  9DC50600           [155] getglobal  22  27       ; defenseMoverNavVolumes
A86B  8E05050B           [156] gettable   22  22  20 
A86F  62850001           [157] call       21  2   2  
A873  58450000           [158] test       21      1    ; to [160] if false
A877  1A000180           [159] jmp        5            ; to [165]
A87B  5DC50600           [160] getglobal  21  27       ; defenseMoverNavVolumes
A87F  4E05850A           [161] gettable   21  21  20 
A883  6485C20A           [162] self       21  21  266  ; -1923578185
A887  D9050800           [163] loadk      23  32       ; "Disable"
A88B  62458001           [164] call       21  3   1  
A88F  54C4FC7F           [165] forloop    17  -12      ; to [154] if loop
A893  6445C807           [166] self       21  15  289  ; 1839670529
A897  62850001           [167] call       21  2   2  
A89B  A485C807           [168] self       22  15  290  ; -231049143
A89F  A2850001           [169] call       22  2   2  
A8A3  E4C54801           [170] self       23  2   291  ; 970454089
A8A7  5206800A           [171] move       25  21     
A8AB  9206000B           [172] move       26  22     
A8AF  E2450002           [173] call       23  4   1  
A8B3  DDC50100           [174] getglobal  23  7        ; fakeCryopodNoCollision
A8B7  E4C5C80B           [175] self       23  23  291  ; 970454089
A8BB  5206800A           [176] move       25  21     
A8BF  9206000B           [177] move       26  22     
A8C3  E2450002           [178] call       23  4   1  
A8C7  DD450200           [179] getglobal  23  9        ; fakeCryopodCollision
A8CB  E485C20B           [180] self       23  23  266  ; -1923578185
A8CF  59C60200           [181] loadk      25  11       ; "Show"
A8D3  E2458001           [182] call       23  3   1  
A8D7  DDC50100           [183] getglobal  23  7        ; fakeCryopodNoCollision
A8DB  E485C20B           [184] self       23  23  266  ; -1923578185
A8DF  59060300           [185] loadk      25  12       ; "Hide"
A8E3  E2458001           [186] call       23  3   1  
A8E7  E445C806           [187] self       23  13  289  ; 1839670529
A8EB  E2850001           [188] call       23  2   2  
A8EF  1D460500           [189] getglobal  24  21       ; defenseMover
A8F3  2446480C           [190] self       24  24  289  ; 1839670529
A8F7  22860001           [191] call       24  2   2  
A8FB  59860300           [192] loadk      25  14       ; 0
A8FF  A4C64500           [193] self       26  0   279  ; -803877924
A903  13078002           [194] getupval   28  5      
A907  59C70000           [195] loadk      29  3        ; 0
A90B  A2460002           [196] call       26  4   1  
A90F  9D060900           [197] getglobal  26  36       ; -1331746705
A913  D206000C           [198] move       27  24     
A917  1207800B           [199] move       28  23     
A91B  A2868001           [200] call       26  3   2  
fail op	21
A91F  15808692           [201] concat     0   293 26 
A923  1A000380           [202] jmp        13           ; to [216]
fail op	21
A927  1580C90C           [203] concat     0   25  294
A92B  1A800280           [204] jmp        11           ; to [216]
A92F  9DC60900           [205] getglobal  26  39       ; 538022378
A933  D9860300           [206] loadk      27  14       ; 0
A937  A2460001           [207] call       26  2   1  
A93B  9D060A00           [208] getglobal  26  40       ; 1289681407
A93F  A2868000           [209] call       26  1   2  
A943  4386860C           [210] add        25  25  26 
A947  9D460500           [211] getglobal  26  21       ; defenseMover
A94B  A446480D           [212] self       26  26  289  ; 1839670529
A94F  A2860001           [213] call       26  2   2  
A953  1206000D           [214] move       24  26     
A957  1A00FB7F           [215] jmp        -19          ; to [197]
A95B  9DC60900           [216] getglobal  26  39       ; 538022378
A95F  D9C60000           [217] loadk      27  3        ; 0
A963  A2460001           [218] call       26  2   1  
A967  A486C206           [219] self       26  13  266  ; -1923578185
A96B  19470A00           [220] loadk      28  41       ; "Enable"
A96F  A2468001           [221] call       26  3   1  
A973  9DC60100           [222] getglobal  26  7        ; fakeCryopodNoCollision
A977  A486420D           [223] self       26  26  266  ; -1923578185
A97B  19C70200           [224] loadk      28  11       ; "Show"
A97F  A2468001           [225] call       26  3   1  
A983  9D460200           [226] getglobal  26  9        ; fakeCryopodCollision
A987  A486420D           [227] self       26  26  266  ; -1923578185
A98B  19070300           [228] loadk      28  12       ; "Hide"
A98F  A2468001           [229] call       26  3   1  
A993  A4864207           [230] self       26  14  266  ; -1923578185
A997  19470A00           [231] loadk      28  41       ; "Enable"
A99B  A2468001           [232] call       26  3   1  
A99F  A4864A08           [233] self       26  16  298  ; -333955620
A9A3  1DC70A00           [234] getglobal  28  43       ; 572299008
A9A7  59870300           [235] loadk      29  14       ; 0
A9AB  99070B00           [236] loadk      30  44       ; 0
A9AF  D9870300           [237] loadk      31  14       ; 0
A9B3  22870002           [238] call       28  4   2  
A9B7  0307870A           [239] add        28  21  28 
A9BB  A2468001           [240] call       26  3   1  
A9BF  A4864208           [241] self       26  16  266  ; -1923578185
A9C3  19470A00           [242] loadk      28  41       ; "Enable"
A9C7  A2468001           [243] call       26  3   1  
A9CB  A4C64500           [244] self       26  0   279  ; -803877924
A9CF  13078002           [245] getupval   28  5      
A9D3  59870300           [246] loadk      29  14       ; 0
A9D7  A2460002           [247] call       26  4   1  
A9DB  9D460700           [248] getglobal  26  29       ; gRegion
A9DF  A4464B0D           [249] self       26  26  301  ; -774964848
A9E3  A2860001           [250] call       26  2   2  
A9E7  A4864B0D           [251] self       26  26  302  ; 537471347
A9EB  A2860001           [252] call       26  2   2  
A9EF  E4C64B0D           [253] self       27  26  303  ; -906150570
A9F3  52070001           [254] move       29  2      
A9F7  E2468001           [255] call       27  3   1  
A9FB  1E008000           [256] return     0   1      
                         * constants:
A9FF  30                 sizek (48)
AA00  04                 const type 4
AA01  0B                 string size (11)
AA02  6747616D6552756C+  "gGameRul"
AA0A  657300             "es\0"
                         const [0]: "gGameRules"
AA0D  04                 const type 4
AA0E  0D                 string size (13)
AA0F  737061776E636F6E+  "spawncon"
AA17  74726F6C00         "trol\0"
                         const [1]: "spawncontrol"
AA1C  01                 const type 3
AA1D  2E63E22F           const [2]: (803365678)
AA21  03                 const type 3
AA22  0000803F           const [3]: (0)
AA26  01                 const type 3
AA27  36FF8F78           const [4]: (2022702902)
AA2B  01                 const type 3
AA2C  D48E598B           const [5]: (-1957065004)
AA30  01                 const type 3
AA31  65770E40           const [6]: (1074689893)
AA35  04                 const type 4
AA36  17                 string size (23)
AA37  66616B654372796F+  "fakeCryo"
AA3F  706F644E6F436F6C+  "podNoCol"
AA47  6C6973696F6E00     "lision\0"
                         const [7]: "fakeCryopodNoCollision"
AA4E  01                 const type 3
AA4F  3F74C2D4           const [8]: (-725453761)
AA53  04                 const type 4
AA54  15                 string size (21)
AA55  66616B654372796F+  "fakeCryo"
AA5D  706F64436F6C6C69+  "podColli"
AA65  73696F6E00         "sion\0"
                         const [9]: "fakeCryopodCollision"
AA6A  01                 const type 3
AA6B  B786588D           const [10]: (-1923578185)
AA6F  04                 const type 4
AA70  05                 string size (5)
AA71  53686F7700         "Show\0"
                         const [11]: "Show"
AA76  04                 const type 4
AA77  05                 string size (5)
AA78  4869646500         "Hide\0"
                         const [12]: "Hide"
AA7D  01                 const type 3
AA7E  FBE70EED           const [13]: (-317790213)
AA82  03                 const type 3
AA83  00000000           const [14]: (0)
AA87  04                 const type 4
AA88  13                 string size (19)
AA89  646566656E73654D+  "defenseM"
AA91  6F76657252616E64+  "overRand"
AA99  6F6D00             "om\0"
                         const [15]: "defenseMoverRandom"
AA9C  04                 const type 4
AA9D  1F                 string size (31)
AA9E  646566656E73654D+  "defenseM"
AAA6  6F76657252616E64+  "overRand"
AAAE  6F6D57617665496E+  "omWaveIn"
AAB6  74657276616C00     "terval\0"
                         const [16]: "defenseMoverRandomWaveInterval"
AABD  04                 const type 4
AABE  05                 string size (5)
AABF  6D61746800         "math\0"
                         const [17]: "math"
AAC4  01                 const type 3
AAC5  F7615986           const [18]: (-2040962569)
AAC9  04                 const type 4
AACA  19                 string size (25)
AACB  646566656E73654D+  "defenseM"
AAD3  6F76657252616E64+  "overRand"
AADB  6F6D4368616E6365+  "omChance"
AAE3  00                 "\0"
                         const [19]: "defenseMoverRandomChance"
AAE4  04                 const type 4
AAE5  11                 string size (17)
AAE6  646566656E73654D+  "defenseM"
AAEE  6F7665724B657973+  "overKeys"
AAF6  00                 "\0"
                         const [20]: "defenseMoverKeys"
AAF7  04                 const type 4
AAF8  0D                 string size (13)
AAF9  646566656E73654D+  "defenseM"
AB01  6F76657200         "over\0"
                         const [21]: "defenseMover"
AB06  01                 const type 3
AB07  7DB5D47F           const [22]: (2144646525)
AB0B  01                 const type 3
AB0C  DCCB15D0           const [23]: (-803877924)
AB10  04                 const type 4
AB11  11                 string size (17)
AB12  646566656E73654D+  "defenseM"
AB1A  6F7665724C6F6F70+  "overLoop"
AB22  00                 "\0"
                         const [24]: "defenseMoverLoop"
AB23  01                 const type 3
AB24  01000000           const [25]: (1)
AB28  04                 const type 4
AB29  12                 string size (18)
AB2A  646566656E73654D+  "defenseM"
AB32  6F76657257617665+  "overWave"
AB3A  7300               "s\0"
                         const [26]: "defenseMoverWaves"
AB3C  04                 const type 4
AB3D  17                 string size (23)
AB3E  646566656E73654D+  "defenseM"
AB46  6F7665724E617656+  "overNavV"
AB4E  6F6C756D657300     "olumes\0"
                         const [27]: "defenseMoverNavVolumes"
AB55  04                 const type 4
AB56  16                 string size (22)
AB57  646566656E73654D+  "defenseM"
AB5F  6F76657257617970+  "overWayp"
AB67  6F696E747300       "oints\0"
                         const [28]: "defenseMoverWaypoints"
AB6D  04                 const type 4
AB6E  08                 string size (8)
AB6F  67526567696F6E00   "gRegion\0"
                         const [29]: "gRegion"
AB77  01                 const type 3
AB78  009A1309           const [30]: (152279552)
AB7C  04                 const type 4
AB7D  07                 string size (7)
AB7E  4D6F7665546F00     "MoveTo\0"
                         const [31]: "MoveTo"
AB85  04                 const type 4
AB86  08                 string size (8)
AB87  44697361626C6500   "Disable\0"
                         const [32]: "Disable"
AB8F  01                 const type 3
AB90  0125A76D           const [33]: (1839670529)
AB94  01                 const type 3
AB95  49783AF2           const [34]: (-231049143)
AB99  01                 const type 3
AB9A  49F4D739           const [35]: (970454089)
AB9E  01                 const type 3
AB9F  6F289FB0           const [36]: (-1331746705)
ABA3  03                 const type 3
ABA4  CDCCCC3D           const [37]: (-51)
ABA8  03                 const type 3
ABA9  00007042           const [38]: (0)
ABAD  01                 const type 3
ABAE  EA911120           const [39]: (538022378)
ABB2  01                 const type 3
ABB3  FFF9DE4C           const [40]: (1289681407)
ABB7  04                 const type 4
ABB8  07                 string size (7)
ABB9  456E61626C6500     "Enable\0"
                         const [41]: "Enable"
ABC0  01                 const type 3
ABC1  DC3D18EC           const [42]: (-333955620)
ABC5  01                 const type 3
ABC6  00971C22           const [43]: (572299008)
ABCA  03                 const type 3
ABCB  0000403F           const [44]: (0)
ABCF  01                 const type 3
ABD0  90F9CED1           const [45]: (-774964848)
ABD4  01                 const type 3
ABD5  73290920           const [46]: (537471347)
ABD9  01                 const type 3
ABDA  563DFDC9           const [47]: (-906150570)
                         * functions:
ABDE  00                 sizep (0)
                         * lines:
ABE0  02                 sizelineinfo (256)
                         [pc] (line)
ABE1  64                 [001] (100)
ABE2  07                 [002] (100)
ABE3  00                 [003] (100)
ABE4  00                 [004] (101)
ABE5  64                 [005] (104)
ABE6  07                 [006] (105)
ABE7  00                 [007] (105)
ABE8  00                 [008] (105)
ABE9  64                 [009] (105)
ABEA  07                 [010] (106)
ABEB  00                 [011] (106)
ABEC  00                 [012] (108)
ABED  65                 [013] (108)
ABEE  07                 [014] (108)
ABEF  00                 [015] (108)
ABF0  00                 [016] (108)
ABF1  68                 [017] (109)
ABF2  07                 [018] (109)
ABF3  00                 [019] (109)
ABF4  00                 [020] (109)
ABF5  69                 [021] (109)
ABF6  07                 [022] (110)
ABF7  00                 [023] (110)
ABF8  00                 [024] (110)
ABF9  69                 [025] (112)
ABFA  07                 [026] (112)
ABFB  00                 [027] (112)
ABFC  00                 [028] (112)
ABFD  69                 [029] (112)
ABFE  07                 [030] (113)
ABFF  00                 [031] (113)
AC00  00                 [032] (113)
AC01  69                 [033] (115)
AC02  07                 [034] (115)
AC03  00                 [035] (117)
AC04  00                 [036] (117)
AC05  6A                 [037] (117)
AC06  07                 [038] (117)
AC07  00                 [039] (118)
AC08  00                 [040] (118)
AC09  6A                 [041] (118)
AC0A  07                 [042] (118)
AC0B  00                 [043] (121)
AC0C  00                 [044] (121)
AC0D  6C                 [045] (121)
AC0E  07                 [046] (122)
AC0F  00                 [047] (122)
AC10  00                 [048] (123)
AC11  6C                 [049] (127)
AC12  07                 [050] (-128)
AC13  00                 [051] (-128)
AC14  00                 [052] (-128)
AC15  6C                 [053] (-127)
AC16  07                 [054] (-127)
AC17  00                 [055] (-127)
AC18  00                 [056] (-127)
AC19  6C                 [057] (-126)
AC1A  07                 [058] (-126)
AC1B  00                 [059] (-126)
AC1C  00                 [060] (-124)
AC1D  6C                 [061] (-124)
AC1E  07                 [062] (-124)
AC1F  00                 [063] (-122)
AC20  00                 [064] (-122)
AC21  6D                 [065] (-122)
AC22  07                 [066] (-122)
AC23  00                 [067] (-121)
AC24  00                 [068] (-120)
AC25  6D                 [069] (-120)
AC26  07                 [070] (-119)
AC27  00                 [071] (-119)
AC28  00                 [072] (-119)
AC29  6D                 [073] (-119)
AC2A  07                 [074] (-119)
AC2B  00                 [075] (-118)
AC2C  00                 [076] (-118)
AC2D  6D                 [077] (-117)
AC2E  07                 [078] (-116)
AC2F  00                 [079] (-116)
AC30  00                 [080] (-116)
AC31  6D                 [081] (-116)
AC32  07                 [082] (-116)
AC33  00                 [083] (-113)
AC34  00                 [084] (-110)
AC35  6E                 [085] (-110)
AC36  07                 [086] (-110)
AC37  00                 [087] (-110)
AC38  00                 [088] (-110)
AC39  6E                 [089] (-109)
AC3A  07                 [090] (-109)
AC3B  00                 [091] (-109)
AC3C  00                 [092] (-108)
AC3D  6E                 [093] (-108)
AC3E  07                 [094] (-108)
AC3F  00                 [095] (-108)
AC40  00                 [096] (-108)
AC41  70                 [097] (-108)
AC42  07                 [098] (-107)
AC43  00                 [099] (-107)
AC44  00                 [100] (-107)
AC45  70                 [101] (-107)
AC46  07                 [102] (-107)
AC47  00                 [103] (-106)
AC48  00                 [104] (-106)
AC49  70                 [105] (-105)
AC4A  07                 [106] (-105)
AC4B  00                 [107] (-105)
AC4C  00                 [108] (-105)
AC4D  70                 [109] (-100)
AC4E  07                 [110] (-100)
AC4F  00                 [111] (-100)
AC50  00                 [112] (-100)
AC51  70                 [113] (-99)
AC52  07                 [114] (-98)
AC53  00                 [115] (-98)
AC54  00                 [116] (-98)
AC55  71                 [117] (-98)
AC56  07                 [118] (-110)
AC57  00                 [119] (-93)
AC58  00                 [120] (-93)
AC59  71                 [121] (-93)
AC5A  07                 [122] (-93)
AC5B  00                 [123] (-93)
AC5C  00                 [124] (-92)
AC5D  71                 [125] (-92)
AC5E  07                 [126] (-91)
AC5F  00                 [127] (-91)
AC60  00                 [128] (-90)
AC61  73                 [129] (-90)
AC62  07                 [130] (-89)
AC63  00                 [131] (-89)
AC64  00                 [132] (-89)
AC65  73                 [133] (-89)
AC66  07                 [134] (-88)
AC67  00                 [135] (-88)
AC68  00                 [136] (-88)
AC69  75                 [137] (-88)
AC6A  07                 [138] (-88)
AC6B  00                 [139] (-88)
AC6C  00                 [140] (-88)
AC6D  75                 [141] (-88)
AC6E  07                 [142] (-87)
AC6F  00                 [143] (-84)
AC70  00                 [144] (-84)
AC71  75                 [145] (-84)
AC72  07                 [146] (-82)
AC73  00                 [147] (-82)
AC74  00                 [148] (-82)
AC75  75                 [149] (-79)
AC76  07                 [150] (-79)
AC77  00                 [151] (-79)
AC78  00                 [152] (-79)
AC79  76                 [153] (-79)
AC7A  07                 [154] (-78)
AC7B  00                 [155] (-78)
AC7C  00                 [156] (-78)
AC7D  76                 [157] (-78)
AC7E  07                 [158] (-78)
AC7F  00                 [159] (-78)
AC80  00                 [160] (-77)
AC81  76                 [161] (-77)
AC82  07                 [162] (-77)
AC83  00                 [163] (-77)
AC84  00                 [164] (-77)
AC85  76                 [165] (-79)
AC86  07                 [166] (-72)
AC87  00                 [167] (-72)
AC88  00                 [168] (-71)
AC89  79                 [169] (-71)
AC8A  07                 [170] (-70)
AC8B  00                 [171] (-70)
AC8C  00                 [172] (-70)
AC8D  79                 [173] (-70)
AC8E  07                 [174] (-69)
AC8F  00                 [175] (-69)
AC90  00                 [176] (-69)
AC91  79                 [177] (-69)
AC92  07                 [178] (-69)
AC93  00                 [179] (-68)
AC94  00                 [180] (-68)
AC95  7A                 [181] (-68)
AC96  07                 [182] (-68)
AC97  00                 [183] (-67)
AC98  00                 [184] (-67)
AC99  7A                 [185] (-67)
AC9A  07                 [186] (-67)
AC9B  00                 [187] (-63)
AC9C  00                 [188] (-63)
AC9D  7B                 [189] (-62)
AC9E  07                 [190] (-62)
AC9F  00                 [191] (-62)
ACA0  00                 [192] (-61)
ACA1  7F                 [193] (-60)
ACA2  07                 [194] (-60)
ACA3  00                 [195] (-60)
ACA4  00                 [196] (-60)
ACA5  80                 [197] (-59)
ACA6  07                 [198] (-59)
ACA7  00                 [199] (-59)
ACA8  00                 [200] (-59)
ACA9  80                 [201] (-59)
ACAA  07                 [202] (-59)
ACAB  00                 [203] (-59)
ACAC  00                 [204] (-59)
ACAD  80                 [205] (-58)
ACAE  07                 [206] (-58)
ACAF  00                 [207] (-58)
ACB0  00                 [208] (-57)
ACB1  81                 [209] (-57)
ACB2  07                 [210] (-57)
ACB3  00                 [211] (-56)
ACB4  00                 [212] (-56)
ACB5  81                 [213] (-56)
ACB6  07                 [214] (-56)
ACB7  00                 [215] (-56)
ACB8  00                 [216] (-54)
ACB9  81                 [217] (-54)
ACBA  07                 [218] (-54)
ACBB  00                 [219] (-51)
ACBC  00                 [220] (-51)
ACBD  81                 [221] (-51)
ACBE  07                 [222] (-49)
ACBF  00                 [223] (-49)
ACC0  00                 [224] (-49)
ACC1  82                 [225] (-49)
ACC2  07                 [226] (-48)
ACC3  00                 [227] (-48)
ACC4  00                 [228] (-48)
ACC5  82                 [229] (-48)
ACC6  07                 [230] (-47)
ACC7  00                 [231] (-47)
ACC8  00                 [232] (-47)
ACC9  82                 [233] (-44)
ACCA  07                 [234] (-44)
ACCB  00                 [235] (-44)
ACCC  00                 [236] (-44)
ACCD  84                 [237] (-44)
ACCE  07                 [238] (-44)
ACCF  00                 [239] (-44)
ACD0  00                 [240] (-44)
ACD1  84                 [241] (-43)
ACD2  07                 [242] (-43)
ACD3  00                 [243] (-43)
ACD4  00                 [244] (-42)
ACD5  84                 [245] (-42)
ACD6  07                 [246] (-42)
ACD7  00                 [247] (-42)
ACD8  00                 [248] (-40)
ACD9  86                 [249] (-40)
ACDA  07                 [250] (-40)
ACDB  00                 [251] (-40)
ACDC  00                 [252] (-40)
ACDD  86                 [253] (-39)
ACDE  07                 [254] (-39)
ACDF  00                 [255] (-39)
ACE0  00                 [256] (-37)
                         * locals:
AFE1  00                 sizelocvars (0)
                         * upvalues:
AFE2  00                 sizeupvalues (0)
                         ** end of function **

                         
AFE3                     ** function [38] definition (level 2)
                         ** start of function **
AFE3  00                 string size (0)
                         source name: (none)
AFE5  0F                 line defined (2013)
AFE6  9C                 last line defined (2076)
AFE7  10                 nups (3)
AFE8  03                 numparams (0)
AFE9  00                 is_vararg (0)
AFEA  00                 maxstacksize (21)
                         * code:
AFED  01                 sizecode (128)
AFEE  1D000000           [001] getglobal  0   0        ; gPromotedToHost
AFF2  18000000           [002] test       0       0    ; to [4] if true
AFF6  1AC01E80           [003] jmp        124          ; to [128]
AFFA  1D400000           [004] getglobal  0   1        ; gGameRules
AFFE  5D800000           [005] getglobal  1   2        ; spawncontrol
B002  64C0C000           [006] self       1   1   259  ; 803365678
B006  62800001           [007] call       1   2   2  
B00A  4E00C100           [008] gettable   1   1   260  ; 0
B00E  A440C100           [009] self       2   1   261  ; 2022702902
B012  A2800001           [010] call       2   2   2  
B016  DD800100           [011] getglobal  3   6        ; 1074689893
B01A  12010001           [012] move       4   2      
B01E  E2800001           [013] call       3   2   2  
B022  D8000000           [014] test       3       0    ; to [16] if true
B026  1A800180           [015] jmp        7            ; to [23]
B02A  E440C100           [016] self       3   1   261  ; 2022702902
B02E  E2800001           [017] call       3   2   2  
B032  92008001           [018] move       2   3      
B036  DDC00100           [019] getglobal  3   7        ; 538022378
B03A  19010200           [020] loadk      4   8        ; 0
B03E  E2400001           [021] call       3   2   1  
B042  1AC0FC7F           [022] jmp        -12          ; to [11]
B046  E4404201           [023] self       3   2   265  ; -1957065004
B04A  53010000           [024] getupval   5   0      
B04E  E2808001           [025] call       3   3   2  
B052  D8400000           [026] test       3       1    ; to [28] if false
B056  1A000080           [027] jmp        1            ; to [29]
B05A  1E008000           [028] return     0   1      
B05E  E4804200           [029] self       3   0   266  ; -317790213
B062  53018000           [030] getupval   5   1      
B066  E2808001           [031] call       3   3   2  
fail op	33
B06A  2100C201           [032] tforloop   0       264  ; to [34] if exit
B06E  1A000080           [033] jmp        1            ; to [35]
B072  1E008000           [034] return     0   1      
B076  1DC10200           [035] getglobal  4   11       ; defenseMoverKeys
B07A  0EC10002           [036] gettable   4   4   3  
B07E  5D010300           [037] getglobal  5   12       ; defenseMoverNavVolumes
B082  4EC18002           [038] gettable   5   5   3  
B086  9D410300           [039] getglobal  6   13       ; defenseMoverWaypoints
B08A  8EC10003           [040] gettable   6   6   3  
B08E  E4814303           [041] self       7   6   270  ; 1839670529
B092  E2810001           [042] call       7   2   2  
B096  24C24303           [043] self       8   6   271  ; -231049143
B09A  22820001           [044] call       8   2   2  
B09E  64024401           [045] self       9   2   272  ; 970454089
B0A2  D2028003           [046] move       11  7      
B0A6  12030004           [047] move       12  8      
B0AA  62420002           [048] call       9   4   1  
B0AE  59020100           [049] loadk      9   4        ; 0
B0B2  9D020300           [050] getglobal  10  12       ; defenseMoverNavVolumes
B0B6  8A020005           [051] len        10  10     
B0BA  D9020100           [052] loadk      11  4        ; 0
B0BE  50820280           [053] forprep    9   11       ; to [65]
B0C2  5D830100           [054] getglobal  13  6        ; 1074689893
B0C6  9D030300           [055] getglobal  14  12       ; defenseMoverNavVolumes
B0CA  8E030307           [056] gettable   14  14  12 
B0CE  62830001           [057] call       13  2   2  
B0D2  58430000           [058] test       13      1    ; to [60] if false
B0D6  1A000180           [059] jmp        5            ; to [65]
B0DA  5D030300           [060] getglobal  13  12       ; defenseMoverNavVolumes
B0DE  4E038306           [061] gettable   13  13  12 
B0E2  6443C406           [062] self       13  13  273  ; -1923578185
B0E6  D9830400           [063] loadk      15  18       ; "Disable"
B0EA  62438001           [064] call       13  3   1  
B0EE  54C2FC7F           [065] forloop    9   -12      ; to [54] if loop
B0F2  6443C402           [066] self       13  5   273  ; -1923578185
B0F6  D9C30400           [067] loadk      15  19       ; "Enable"
B0FA  62438001           [068] call       13  3   1  
B0FE  64834200           [069] self       13  0   266  ; -317790213
B102  D3030001           [070] getupval   15  2      
B106  62838001           [071] call       13  3   2  
fail op	35
B10A  2300C106           [072] close      0  
B10E  1A400D80           [073] jmp        54           ; to [128]
B112  A4834302           [074] self       14  4   270  ; 1839670529
B116  A2830001           [075] call       14  2   2  
B11A  DD030500           [076] getglobal  15  20       ; defenseMover
B11E  E483C307           [077] self       15  15  270  ; 1839670529
B122  E2830001           [078] call       15  2   2  
B126  19040200           [079] loadk      16  8        ; 0
B12A  64444500           [080] self       17  0   277  ; -803877924
B12E  D3040001           [081] getupval   19  2      
B132  19050100           [082] loadk      20  4        ; 0
B136  62440002           [083] call       17  4   1  
B13A  5D840500           [084] getglobal  17  22       ; -1331746705
B13E  92048007           [085] move       18  15     
B142  D2040007           [086] move       19  14     
B146  62848001           [087] call       17  3   2  
fail op	21
B14A  1540848B           [088] concat     0   279 17 
B14E  1A000380           [089] jmp        13           ; to [103]
fail op	21
B152  15004608           [090] concat     0   16  280
B156  1A800280           [091] jmp        11           ; to [103]
B15A  5DC40100           [092] getglobal  17  7        ; 538022378
B15E  99040200           [093] loadk      18  8        ; 0
B162  62440001           [094] call       17  2   1  
B166  5D440600           [095] getglobal  17  25       ; 1289681407
B16A  62848000           [096] call       17  1   2  
B16E  03440408           [097] add        16  16  17 
B172  5D040500           [098] getglobal  17  20       ; defenseMover
B176  6484C308           [099] self       17  17  270  ; 1839670529
B17A  62840001           [100] call       17  2   2  
B17E  D2038008           [101] move       15  17     
B182  1A00FB7F           [102] jmp        -19          ; to [84]
B186  5DC40100           [103] getglobal  17  7        ; 538022378
B18A  99040100           [104] loadk      18  4        ; 0
B18E  62440001           [105] call       17  2   1  
B192  64444402           [106] self       17  4   273  ; -1923578185
B196  D9C40400           [107] loadk      19  19       ; "Enable"
B19A  62448001           [108] call       17  3   1  
B19E  6444C402           [109] self       17  5   273  ; -1923578185
B1A2  D9C40400           [110] loadk      19  19       ; "Enable"
B1A6  62448001           [111] call       17  3   1  
B1AA  5D840600           [112] getglobal  17  26       ; objectiveMarker
B1AE  64C4C608           [113] self       17  17  283  ; -333955620
B1B2  D2048003           [114] move       19  7      
B1B6  62448001           [115] call       17  3   1  
B1BA  64444500           [116] self       17  0   277  ; -803877924
B1BE  D3040001           [117] getupval   19  2      
B1C2  19050200           [118] loadk      20  8        ; 0
B1C6  62440002           [119] call       17  4   1  
B1CA  5D040700           [120] getglobal  17  28       ; gRegion
B1CE  6444C708           [121] self       17  17  285  ; -774964848
B1D2  62840001           [122] call       17  2   2  
B1D6  6484C708           [123] self       17  17  286  ; 537471347
B1DA  62840001           [124] call       17  2   2  
B1DE  A4C4C708           [125] self       18  17  287  ; -906150570
B1E2  12050001           [126] move       20  2      
B1E6  A2448001           [127] call       18  3   1  
B1EA  1E008000           [128] return     0   1      
                         * constants:
B1EE  20                 sizek (32)
B1EF  04                 const type 4
B1F0  10                 string size (16)
B1F1  6750726F6D6F7465+  "gPromote"
B1F9  64546F486F737400   "dToHost\0"
                         const [0]: "gPromotedToHost"
B201  04                 const type 4
B202  0B                 string size (11)
B203  6747616D6552756C+  "gGameRul"
B20B  657300             "es\0"
                         const [1]: "gGameRules"
B20E  04                 const type 4
B20F  0D                 string size (13)
B210  737061776E636F6E+  "spawncon"
B218  74726F6C00         "trol\0"
                         const [2]: "spawncontrol"
B21D  01                 const type 3
B21E  2E63E22F           const [3]: (803365678)
B222  03                 const type 3
B223  0000803F           const [4]: (0)
B227  01                 const type 3
B228  36FF8F78           const [5]: (2022702902)
B22C  01                 const type 3
B22D  65770E40           const [6]: (1074689893)
B231  01                 const type 3
B232  EA911120           const [7]: (538022378)
B236  03                 const type 3
B237  00000000           const [8]: (0)
B23B  01                 const type 3
B23C  D48E598B           const [9]: (-1957065004)
B240  01                 const type 3
B241  FBE70EED           const [10]: (-317790213)
B245  04                 const type 4
B246  11                 string size (17)
B247  646566656E73654D+  "defenseM"
B24F  6F7665724B657973+  "overKeys"
B257  00                 "\0"
                         const [11]: "defenseMoverKeys"
B258  04                 const type 4
B259  17                 string size (23)
B25A  646566656E73654D+  "defenseM"
B262  6F7665724E617656+  "overNavV"
B26A  6F6C756D657300     "olumes\0"
                         const [12]: "defenseMoverNavVolumes"
B271  04                 const type 4
B272  16                 string size (22)
B273  646566656E73654D+  "defenseM"
B27B  6F76657257617970+  "overWayp"
B283  6F696E747300       "oints\0"
                         const [13]: "defenseMoverWaypoints"
B289  01                 const type 3
B28A  0125A76D           const [14]: (1839670529)
B28E  01                 const type 3
B28F  49783AF2           const [15]: (-231049143)
B293  01                 const type 3
B294  49F4D739           const [16]: (970454089)
B298  01                 const type 3
B299  B786588D           const [17]: (-1923578185)
B29D  04                 const type 4
B29E  08                 string size (8)
B29F  44697361626C6500   "Disable\0"
                         const [18]: "Disable"
B2A7  04                 const type 4
B2A8  07                 string size (7)
B2A9  456E61626C6500     "Enable\0"
                         const [19]: "Enable"
B2B0  04                 const type 4
B2B1  0D                 string size (13)
B2B2  646566656E73654D+  "defenseM"
B2BA  6F76657200         "over\0"
                         const [20]: "defenseMover"
B2BF  01                 const type 3
B2C0  DCCB15D0           const [21]: (-803877924)
B2C4  01                 const type 3
B2C5  6F289FB0           const [22]: (-1331746705)
B2C9  03                 const type 3
B2CA  CDCCCC3D           const [23]: (-51)
B2CE  03                 const type 3
B2CF  00007042           const [24]: (0)
B2D3  01                 const type 3
B2D4  FFF9DE4C           const [25]: (1289681407)
B2D8  04                 const type 4
B2D9  10                 string size (16)
B2DA  6F626A6563746976+  "objectiv"
B2E2  654D61726B657200   "eMarker\0"
                         const [26]: "objectiveMarker"
B2EA  01                 const type 3
B2EB  DC3D18EC           const [27]: (-333955620)
B2EF  04                 const type 4
B2F0  08                 string size (8)
B2F1  67526567696F6E00   "gRegion\0"
                         const [28]: "gRegion"
B2F9  01                 const type 3
B2FA  90F9CED1           const [29]: (-774964848)
B2FE  01                 const type 3
B2FF  73290920           const [30]: (537471347)
B303  01                 const type 3
B304  563DFDC9           const [31]: (-906150570)
                         * functions:
B308  00                 sizep (0)
                         * lines:
B30A  01                 sizelineinfo (128)
                         [pc] (line)
B30B  DE                 [001] (-34)
B30C  07                 [002] (-34)
B30D  00                 [003] (-34)
B30E  00                 [004] (-33)
B30F  DE                 [005] (-32)
B310  07                 [006] (-32)
B311  00                 [007] (-32)
B312  00                 [008] (-32)
B313  DE                 [009] (-31)
B314  07                 [010] (-31)
B315  00                 [011] (-30)
B316  00                 [012] (-30)
B317  DF                 [013] (-30)
B318  07                 [014] (-30)
B319  00                 [015] (-30)
B31A  00                 [016] (-29)
B31B  E0                 [017] (-29)
B31C  07                 [018] (-29)
B31D  00                 [019] (-28)
B31E  00                 [020] (-28)
B31F  E0                 [021] (-28)
B320  07                 [022] (-28)
B321  00                 [023] (-25)
B322  00                 [024] (-25)
B323  E0                 [025] (-25)
B324  07                 [026] (-25)
B325  00                 [027] (-25)
B326  00                 [028] (-24)
B327  E0                 [029] (-20)
B328  07                 [030] (-20)
B329  00                 [031] (-20)
B32A  00                 [032] (-18)
B32B  E1                 [033] (-18)
B32C  07                 [034] (-17)
B32D  00                 [035] (-14)
B32E  00                 [036] (-14)
B32F  E1                 [037] (-13)
B330  07                 [038] (-13)
B331  00                 [039] (-12)
B332  00                 [040] (-12)
B333  E2                 [041] (-11)
B334  07                 [042] (-11)
B335  00                 [043] (-10)
B336  00                 [044] (-10)
B337  E2                 [045] (-9)
B338  07                 [046] (-9)
B339  00                 [047] (-9)
B33A  00                 [048] (-9)
B33B  E2                 [049] (-6)
B33C  07                 [050] (-6)
B33D  00                 [051] (-6)
B33E  00                 [052] (-6)
B33F  E2                 [053] (-6)
B340  07                 [054] (-5)
B341  00                 [055] (-5)
B342  00                 [056] (-5)
B343  E2                 [057] (-5)
B344  07                 [058] (-5)
B345  00                 [059] (-5)
B346  00                 [060] (-4)
B347  E3                 [061] (-4)
B348  07                 [062] (-4)
B349  00                 [063] (-4)
B34A  00                 [064] (-4)
B34B  E3                 [065] (-6)
B34C  07                 [066] (-1)
B34D  00                 [067] (-1)
B34E  00                 [068] (-1)
B34F  E3                 [069] (1)
B350  07                 [070] (1)
B351  00                 [071] (1)
B352  00                 [072] (2)
B353  E4                 [073] (2)
B354  07                 [074] (4)
B355  00                 [075] (4)
B356  00                 [076] (5)
B357  E4                 [077] (5)
B358  07                 [078] (5)
B359  00                 [079] (6)
B35A  00                 [080] (7)
B35B  E4                 [081] (7)
B35C  07                 [082] (7)
B35D  00                 [083] (7)
B35E  00                 [084] (8)
B35F  E4                 [085] (8)
B360  07                 [086] (8)
B361  00                 [087] (8)
B362  00                 [088] (8)
B363  E7                 [089] (8)
B364  07                 [090] (8)
B365  00                 [091] (8)
B366  00                 [092] (9)
B367  E7                 [093] (9)
B368  07                 [094] (9)
B369  00                 [095] (10)
B36A  00                 [096] (10)
B36B  E7                 [097] (10)
B36C  07                 [098] (11)
B36D  00                 [099] (11)
B36E  00                 [100] (11)
B36F  E7                 [101] (11)
B370  07                 [102] (11)
B371  00                 [103] (13)
B372  00                 [104] (13)
B373  E7                 [105] (13)
B374  07                 [106] (16)
B375  00                 [107] (16)
B376  00                 [108] (16)
B377  E8                 [109] (20)
B378  07                 [110] (20)
B379  00                 [111] (20)
B37A  00                 [112] (21)
B37B  EC                 [113] (21)
B37C  07                 [114] (21)
B37D  00                 [115] (21)
B37E  00                 [116] (22)
B37F  EC                 [117] (22)
B380  07                 [118] (22)
B381  00                 [119] (22)
B382  00                 [120] (24)
B383  EC                 [121] (24)
B384  07                 [122] (24)
B385  00                 [123] (24)
B386  00                 [124] (24)
B387  EE                 [125] (25)
B388  07                 [126] (25)
B389  00                 [127] (25)
B38A  00                 [128] (28)
                         * locals:
B50B  00                 sizelocvars (0)
                         * upvalues:
B50C  00                 sizeupvalues (0)
                         ** end of function **

                         * lines:
B50E  02                 sizelineinfo (358)
                         [pc] (line)
B50F  05                 [001] (5)
B510  00                 [002] (53)
B511  00                 [003] (54)
B512  00                 [004] (56)
B513  35                 [005] (56)
B514  00                 [006] (56)
B515  00                 [007] (58)
B516  00                 [008] (58)
B517  36                 [009] (58)
B518  00                 [010] (59)
B519  00                 [011] (59)
B51A  00                 [012] (59)
B51B  38                 [013] (61)
B51C  00                 [014] (61)
B51D  00                 [015] (61)
B51E  00                 [016] (62)
B51F  38                 [017] (62)
B520  00                 [018] (62)
B521  00                 [019] (63)
B522  00                 [020] (63)
B523  38                 [021] (63)
B524  00                 [022] (64)
B525  00                 [023] (64)
B526  00                 [024] (64)
B527  3A                 [025] (65)
B528  00                 [026] (65)
B529  00                 [027] (65)
B52A  00                 [028] (66)
B52B  3A                 [029] (66)
B52C  00                 [030] (66)
B52D  00                 [031] (68)
B52E  00                 [032] (68)
B52F  3A                 [033] (68)
B530  00                 [034] (69)
B531  00                 [035] (69)
B532  00                 [036] (69)
B533  3B                 [037] (70)
B534  00                 [038] (70)
B535  00                 [039] (70)
B536  00                 [040] (72)
B537  3B                 [041] (73)
B538  00                 [042] (74)
B539  00                 [043] (76)
B53A  00                 [044] (76)
B53B  3B                 [045] (76)
B53C  00                 [046] (77)
B53D  00                 [047] (77)
B53E  00                 [048] (77)
B53F  3D                 [049] (79)
B540  00                 [050] (79)
B541  00                 [051] (79)
B542  00                 [052] (81)
B543  3D                 [053] (81)
B544  00                 [054] (81)
B545  00                 [055] (83)
B546  00                 [056] (83)
B547  3D                 [057] (83)
B548  00                 [058] (84)
B549  00                 [059] (84)
B54A  00                 [060] (84)
B54B  3E                 [061] (85)
B54C  00                 [062] (85)
B54D  00                 [063] (85)
B54E  00                 [064] (86)
B54F  3E                 [065] (86)
B550  00                 [066] (86)
B551  00                 [067] (87)
B552  00                 [068] (87)
B553  3E                 [069] (87)
B554  00                 [070] (90)
B555  00                 [071] (91)
B556  00                 [072] (92)
B557  3F                 [073] (93)
B558  00                 [074] (96)
B559  00                 [075] (96)
B55A  00                 [076] (96)
B55B  3F                 [077] (96)
B55C  00                 [078] (96)
B55D  00                 [079] (96)
B55E  00                 [080] (97)
B55F  3F                 [081] (97)
B560  00                 [082] (97)
B561  00                 [083] (97)
B562  00                 [084] (97)
B563  40                 [085] (97)
B564  00                 [086] (98)
B565  00                 [087] (98)
B566  00                 [088] (98)
B567  40                 [089] (98)
B568  00                 [090] (98)
B569  00                 [091] (98)
B56A  00                 [092] (99)
B56B  40                 [093] (99)
B56C  00                 [094] (99)
B56D  00                 [095] (99)
B56E  00                 [096] (99)
B56F  41                 [097] (99)
B570  00                 [098] (101)
B571  00                 [099] (102)
B572  00                 [100] (103)
B573  41                 [101] (104)
B574  00                 [102] (105)
B575  00                 [103] (108)
B576  00                 [104] (109)
B577  41                 [105] (110)
B578  00                 [106] (111)
B579  00                 [107] (112)
B57A  00                 [108] (113)
B57B  42                 [109] (119)
B57C  00                 [110] (119)
B57D  00                 [111] (119)
B57E  00                 [112] (120)
B57F  42                 [113] (120)
B580  00                 [114] (120)
B581  00                 [115] (121)
B582  00                 [116] (121)
B583  42                 [117] (121)
B584  00                 [118] (122)
B585  00                 [119] (122)
B586  00                 [120] (122)
B587  44                 [121] (123)
B588  00                 [122] (123)
B589  00                 [123] (123)
B58A  00                 [124] (124)
B58B  44                 [125] (124)
B58C  00                 [126] (124)
B58D  00                 [127] (125)
B58E  00                 [128] (125)
B58F  44                 [129] (125)
B590  00                 [130] (126)
B591  00                 [131] (126)
B592  00                 [132] (126)
B593  45                 [133] (-127)
B594  00                 [134] (-127)
B595  00                 [135] (-127)
B596  00                 [136] (-126)
B597  45                 [137] (-126)
B598  00                 [138] (-126)
B599  00                 [139] (-125)
B59A  00                 [140] (-125)
B59B  45                 [141] (-125)
B59C  00                 [142] (-123)
B59D  00                 [143] (-123)
B59E  00                 [144] (-123)
B59F  46                 [145] (-122)
B5A0  00                 [146] (-122)
B5A1  00                 [147] (-122)
B5A2  00                 [148] (-120)
B5A3  46                 [149] (-120)
B5A4  00                 [150] (-120)
B5A5  00                 [151] (-117)
B5A6  00                 [152] (-112)
B5A7  46                 [153] (-108)
B5A8  00                 [154] (-98)
B5A9  00                 [155] (-98)
B5AA  00                 [156] (-98)
B5AB  48                 [157] (-94)
B5AC  00                 [158] (-94)
B5AD  00                 [159] (-90)
B5AE  00                 [160] (-90)
B5AF  49                 [161] (-80)
B5B0  00                 [162] (-80)
B5B1  00                 [163] (-71)
B5B2  00                 [164] (-69)
B5B3  4A                 [165] (-69)
B5B4  00                 [166] (-69)
B5B5  00                 [167] (-50)
B5B6  00                 [168] (-33)
B5B7  4C                 [169] (-33)
B5B8  00                 [170] (21)
B5B9  00                 [171] (21)
B5BA  00                 [172] (21)
B5BB  4C                 [173] (21)
B5BC  00                 [174] (21)
B5BD  00                 [175] (21)
B5BE  00                 [176] (21)
B5BF  4C                 [177] (32)
B5C0  00                 [178] (65)
B5C1  00                 [179] (65)
B5C2  00                 [180] (-107)
B5C3  4D                 [181] (-81)
B5C4  00                 [182] (-114)
B5C5  00                 [183] (-114)
B5C6  00                 [184] (-114)
B5C7  4D                 [185] (-114)
B5C8  00                 [186] (-114)
B5C9  00                 [187] (-114)
B5CA  00                 [188] (-114)
B5CB  4D                 [189] (-114)
B5CC  00                 [190] (-114)
B5CD  00                 [191] (-114)
B5CE  00                 [192] (-114)
B5CF  4F                 [193] (-11)
B5D0  00                 [194] (-11)
B5D1  00                 [195] (-11)
B5D2  00                 [196] (-11)
B5D3  4F                 [197] (-11)
B5D4  00                 [198] (-11)
B5D5  00                 [199] (-11)
B5D6  00                 [200] (-11)
B5D7  4F                 [201] (-11)
B5D8  00                 [202] (-11)
B5D9  00                 [203] (-11)
B5DA  00                 [204] (-11)
B5DB  51                 [205] (-11)
B5DC  00                 [206] (-11)
B5DD  00                 [207] (-11)
B5DE  00                 [208] (-11)
B5DF  51                 [209] (-11)
B5E0  00                 [210] (-11)
B5E1  00                 [211] (-11)
B5E2  00                 [212] (-11)
B5E3  51                 [213] (-11)
B5E4  00                 [214] (-11)
B5E5  00                 [215] (-11)
B5E6  00                 [216] (-11)
B5E7  53                 [217] (-11)
B5E8  00                 [218] (-11)
B5E9  00                 [219] (-11)
B5EA  00                 [220] (8)
B5EB  53                 [221] (20)
B5EC  00                 [222] (25)
B5ED  00                 [223] (25)
B5EE  00                 [224] (30)
B5EF  53                 [225] (30)
B5F0  00                 [226] (30)
B5F1  00                 [227] (30)
B5F2  00                 [228] (-104)
B5F3  54                 [229] (-104)
B5F4  00                 [230] (-104)
B5F5  00                 [231] (-104)
B5F6  00                 [232] (-104)
B5F7  54                 [233] (-104)
B5F8  00                 [234] (-104)
B5F9  00                 [235] (-104)
B5FA  00                 [236] (-104)
B5FB  54                 [237] (-104)
B5FC  00                 [238] (-104)
B5FD  00                 [239] (-52)
B5FE  00                 [240] (-52)
B5FF  55                 [241] (-52)
B600  00                 [242] (-52)
B601  00                 [243] (-52)
B602  00                 [244] (-52)
B603  55                 [245] (-37)
B604  00                 [246] (-37)
B605  00                 [247] (-37)
B606  00                 [248] (-22)
B607  55                 [249] (-22)
B608  00                 [250] (-22)
B609  00                 [251] (-97)
B60A  00                 [252] (-97)
B60B  56                 [253] (-97)
B60C  00                 [254] (-97)
B60D  00                 [255] (-97)
B60E  00                 [256] (-97)
B60F  56                 [257] (-97)
B610  00                 [258] (-97)
B611  00                 [259] (-89)
B612  00                 [260] (-89)
B613  56                 [261] (-89)
B614  00                 [262] (-95)
B615  00                 [263] (-83)
B616  00                 [264] (62)
B617  57                 [265] (62)
B618  00                 [266] (62)
B619  00                 [267] (62)
B61A  00                 [268] (62)
B61B  57                 [269] (62)
B61C  00                 [270] (62)
B61D  00                 [271] (62)
B61E  00                 [272] (62)
B61F  57                 [273] (62)
B620  00                 [274] (68)
B621  00                 [275] (74)
B622  00                 [276] (46)
B623  5A                 [277] (46)
B624  00                 [278] (46)
B625  00                 [279] (46)
B626  00                 [280] (46)
B627  5B                 [281] (46)
B628  00                 [282] (46)
B629  00                 [283] (46)
B62A  00                 [284] (46)
B62B  5C                 [285] (46)
B62C  00                 [286] (46)
B62D  00                 [287] (46)
B62E  00                 [288] (46)
B62F  5D                 [289] (46)
B630  00                 [290] (46)
B631  00                 [291] (46)
B632  00                 [292] (46)
B633  60                 [293] (46)
B634  00                 [294] (46)
B635  00                 [295] (46)
B636  00                 [296] (46)
B637  60                 [297] (46)
B638  00                 [298] (46)
B639  00                 [299] (46)
B63A  00                 [300] (46)
B63B  60                 [301] (46)
B63C  00                 [302] (-76)
B63D  00                 [303] (-76)
B63E  00                 [304] (-76)
B63F  60                 [305] (-76)
B640  00                 [306] (-76)
B641  00                 [307] (-76)
B642  00                 [308] (-76)
B643  60                 [309] (-76)
B644  00                 [310] (-76)
B645  00                 [311] (-76)
B646  00                 [312] (-76)
B647  60                 [313] (-76)
B648  00                 [314] (-76)
B649  00                 [315] (-76)
B64A  00                 [316] (-76)
B64B  61                 [317] (-76)
B64C  00                 [318] (-76)
B64D  00                 [319] (-76)
B64E  00                 [320] (-76)
B64F  61                 [321] (-76)
B650  00                 [322] (-76)
B651  00                 [323] (-76)
B652  00                 [324] (-76)
B653  61                 [325] (-76)
B654  00                 [326] (48)
B655  00                 [327] (-20)
B656  00                 [328] (-20)
B657  61                 [329] (-20)
B658  00                 [330] (-74)
B659  00                 [331] (4)
B65A  00                 [332] (4)
B65B  61                 [333] (4)
B65C  00                 [334] (-18)
B65D  00                 [335] (48)
B65E  00                 [336] (48)
B65F  61                 [337] (6)
B660  00                 [338] (78)
B661  00                 [339] (78)
B662  00                 [340] (78)
B663  62                 [341] (50)
B664  00                 [342] (94)
B665  00                 [343] (-37)
B666  00                 [344] (-37)
B667  62                 [345] (-37)
B668  00                 [346] (-37)
B669  00                 [347] (-37)
B66A  00                 [348] (-37)
B66B  62                 [349] (-37)
B66C  00                 [350] (-37)
B66D  00                 [351] (99)
B66E  00                 [352] (28)
B66F  62                 [353] (28)
B670  00                 [354] (28)
B671  00                 [355] (28)
B672  00                 [356] (28)
B673  62                 [357] (-35)
B674  00                 [358] (28)
                         * locals:
BAA7  00                 sizelocvars (0)
                         * upvalues:
BAA8  00                 sizeupvalues (0)
                         ** end of function **

BAA9                     ** end of chunk **
