1	C:\wlua_dump\path\Lotus\ScriptsOperatorTwin.lua
Pos   Hex Data           Description or Code
------------------------------------------------------------------------
0000                     ** source chunk: C:\wlua_dump\path\Lotus\ScriptsOperatorTwin.lua
                         ** global header start **
0000  7F                 header signature: ""
0001  00                 version (major:minor hex digits)
0002  00                 format (0=official)
0003  00                 endianness (1=little endian)
0004  00                 size of int (bytes)
0005  00                 size of size_t (bytes)
0006  02                 size of Instruction (bytes)
0007  0C                 size of number (bytes)
0008  3F                 integral (1=integral)
463
                         * number type: single
                         * x86 standard (32-bit, little endian, doubles)
                         ** global header end **
EE.Interface.Utilities
Lotus.Interface.TransmissionUtilities
Lotus.Interface.LotusUtilities
Lotus.Interface.Libs.DioramaLoader
HarrowTwinConversation
ModTwinVisibility
ModTwinSpawn
ModTwinConversation
SacrificeTwinConversation
CheckForWarframe
ChimeraTwinSetUp
_T
curTransmission
QueuedTransmissions
gRegion
gGameData
mOperatorCustomization
Lotus_Game
TOSS_VOICE
mItemType
UISys
Loading completed
gRegion
_T
PlayingTwinDialog
mVisemeAnticipation
gRegion
maxTimer
removeTwinFx
Couldn't find twin to play transmissions on
Couldn't find twin to play transmissions on
twinOperatorTags
math
Num operator/twin tags mismatch
Failed to find twin deco creator for visibility!
Failed to find twin deco creator!
gRegion
twinDecoType
_T
twinModDeco
twinModDuration
modTwin
gRegion
_T
modTwin
twinModDeco
Couldn't find twin to play transmissions on
twinOperatorTags
math
Num operator/twin tags mismatch
twinModAffinityReward
/Lotus/Language/Menu/Global_XP
Couldn't find twin to play transmissions on
DSacQuestEnd3150VoidEcho
DSacQuestEnd3180OperatorVoice
DSacQuestEnd3210VoidEcho
DSacQuestEnd3240OperatorVoice
DSacQuestEnd3270VoidEcho
Sacrifice - A Day Later! -- Complete!
grabbing twin deco
applying twin anim
_T
operatorTwinWaypoint
twinAnimNames
table
math
twinIdleAnims
applying twin mat
eyeMaterialOverride
gRegion
helmetDecoType
GAME_C1_HEAD1
helmetOffset
helmetRotation
hairType
                         
0001                     ** function [0] definition (level 1)
                         ** start of function **
0001  00                 string size (0)
                         source name: (none)
0002  00                 line defined (0)
0003  00                 last line defined (0)
0004  00                 nups (0)
0005  00                 numparams (0)
0006  02                 is_vararg (2)
0007  0C                 maxstacksize (12)
                         * code:
0008  3F                 sizecode (63)
0009  1D000000           [01] getglobal  0   0        ; 849075268
000D  59400000           [02] loadk      1   1        ; "EE.Interface.Utilities"
0011  22800001           [03] call       0   2   2  
0015  5D000000           [04] getglobal  1   0        ; 849075268
0019  99800000           [05] loadk      2   2        ; "Lotus.Interface.TransmissionUtilities"
001D  62800001           [06] call       1   2   2  
0021  9D000000           [07] getglobal  2   0        ; 849075268
0025  D9C00000           [08] loadk      3   3        ; "Lotus.Interface.LotusUtilities"
0029  A2800001           [09] call       2   2   2  
002D  DD000000           [10] getglobal  3   0        ; 849075268
0031  19010100           [11] loadk      4   4        ; "Lotus.Interface.Libs.DioramaLoader"
0035  E2800001           [12] call       3   2   2  
0039  25010000           [13] closure    4   0      
003D  65410000           [14] closure    5   1      
0041  12008000           [15] move       0   1      
0045  A5810000           [16] closure    6   2      
0049  E5C10000           [17] closure    7   3      
004D  12000003           [18] move       0   6      
0051  25020100           [19] closure    8   4      
0055  12008000           [20] move       0   1      
0059  12000000           [21] move       0   0      
005D  12008002           [22] move       0   5      
0061  65420100           [23] closure    9   5      
0065  A5820100           [24] closure    10  6      
0069  12000001           [25] move       0   2      
006D  E5C20100           [26] closure    11  7      
0071  12000005           [27] move       0   10     
0075  12008003           [28] move       0   7      
0079  12000004           [29] move       0   8      
007D  12008004           [30] move       0   9      
0081  E0420100           [31] setglobal  11  5        ; HarrowTwinConversation
0085  E0820100           [32] setglobal  11  6        ; 981796813
0089  E5020200           [33] closure    11  8      
008D  E0C20100           [34] setglobal  11  7        ; ModTwinVisibility
0091  E0020200           [35] setglobal  11  8        ; -943562341
0095  E5420200           [36] closure    11  9      
0099  12008001           [37] move       0   3      
009D  12008004           [38] move       0   9      
00A1  E0420200           [39] setglobal  11  9        ; ModTwinSpawn
00A5  E0820200           [40] setglobal  11  10       ; -192255436
00A9  E5820200           [41] closure    11  10     
00AD  12008003           [42] move       0   7      
00B1  12000004           [43] move       0   8      
00B5  12008004           [44] move       0   9      
00B9  E0C20200           [45] setglobal  11  11       ; ModTwinConversation
00BD  E0020300           [46] setglobal  11  12       ; -1527273524
00C1  E5C20200           [47] closure    11  11     
00C5  12000005           [48] move       0   10     
00C9  12008003           [49] move       0   7      
00CD  12000004           [50] move       0   8      
00D1  12000001           [51] move       0   2      
00D5  12000002           [52] move       0   4      
00D9  12008004           [53] move       0   9      
00DD  E0420300           [54] setglobal  11  13       ; SacrificeTwinConversation
00E1  E0820300           [55] setglobal  11  14       ; 38627528
00E5  E5020300           [56] closure    11  12     
00E9  E0C20300           [57] setglobal  11  15       ; CheckForWarframe
00ED  E0020400           [58] setglobal  11  16       ; 581121311
00F1  E5420300           [59] closure    11  13     
00F5  12008001           [60] move       0   3      
00F9  E0420400           [61] setglobal  11  17       ; ChimeraTwinSetUp
00FD  E0820400           [62] setglobal  11  18       ; -464786273
0101  1E008000           [63] return     0   1      
                         * constants:
0105  13                 sizek (19)
0106  01                 const type 3
0107  44DC9B32           const [0]: (849075268)
010B  04                 const type 4
010C  17                 string size (23)
010D  45452E496E746572+  "EE.Inter"
0115  666163652E557469+  "face.Uti"
011D  6C697469657300     "lities\0"
                         const [1]: "EE.Interface.Utilities"
0124  04                 const type 4
0125  26                 string size (38)
0126  4C6F7475732E496E+  "Lotus.In"
012E  746572666163652E+  "terface."
0136  5472616E736D6973+  "Transmis"
013E  73696F6E5574696C+  "sionUtil"
0146  697469657300       "ities\0"
                         const [2]: "Lotus.Interface.TransmissionUtilities"
014C  04                 const type 4
014D  1F                 string size (31)
014E  4C6F7475732E496E+  "Lotus.In"
0156  746572666163652E+  "terface."
015E  4C6F747573557469+  "LotusUti"
0166  6C697469657300     "lities\0"
                         const [3]: "Lotus.Interface.LotusUtilities"
016D  04                 const type 4
016E  23                 string size (35)
016F  4C6F7475732E496E+  "Lotus.In"
0177  746572666163652E+  "terface."
017F  4C6962732E44696F+  "Libs.Dio"
0187  72616D614C6F6164+  "ramaLoad"
018F  657200             "er\0"
                         const [4]: "Lotus.Interface.Libs.DioramaLoader"
0192  04                 const type 4
0193  17                 string size (23)
0194  486172726F775477+  "HarrowTw"
019C  696E436F6E766572+  "inConver"
01A4  736174696F6E00     "sation\0"
                         const [5]: "HarrowTwinConversation"
01AB  01                 const type 3
01AC  CD07853A           const [6]: (981796813)
01B0  04                 const type 4
01B1  12                 string size (18)
01B2  4D6F645477696E56+  "ModTwinV"
01BA  69736962696C6974+  "isibilit"
01C2  7900               "y\0"
                         const [7]: "ModTwinVisibility"
01C4  01                 const type 3
01C5  9B61C2C7           const [8]: (-943562341)
01C9  04                 const type 4
01CA  0D                 string size (13)
01CB  4D6F645477696E53+  "ModTwinS"
01D3  7061776E00         "pawn\0"
                         const [9]: "ModTwinSpawn"
01D8  01                 const type 3
01D9  346A8AF4           const [10]: (-192255436)
01DD  04                 const type 4
01DE  14                 string size (20)
01DF  4D6F645477696E43+  "ModTwinC"
01E7  6F6E766572736174+  "onversat"
01EF  696F6E00           "ion\0"
                         const [11]: "ModTwinConversation"
01F3  01                 const type 3
01F4  CCA7F7A4           const [12]: (-1527273524)
01F8  04                 const type 4
01F9  1A                 string size (26)
01FA  5361637269666963+  "Sacrific"
0202  655477696E436F6E+  "eTwinCon"
020A  766572736174696F+  "versatio"
0212  6E00               "n\0"
                         const [13]: "SacrificeTwinConversation"
0214  01                 const type 3
0215  C8684D02           const [14]: (38627528)
0219  04                 const type 4
021A  11                 string size (17)
021B  436865636B466F72+  "CheckFor"
0223  5761726672616D65+  "Warframe"
022B  00                 "\0"
                         const [15]: "CheckForWarframe"
022C  01                 const type 3
022D  1F35A322           const [16]: (581121311)
0231  04                 const type 4
0232  11                 string size (17)
0233  4368696D65726154+  "ChimeraT"
023B  77696E5365745570+  "winSetUp"
0243  00                 "\0"
                         const [17]: "ChimeraTwinSetUp"
0244  01                 const type 3
0245  9FEC4BE4           const [18]: (-464786273)
                         * functions:
0249  0E                 sizep (14)
                         
024A                     ** function [0] definition (level 2)
                         ** start of function **
024A  00                 string size (0)
                         source name: (none)
024B  14                 line defined (20)
024C  20                 last line defined (32)
024D  00                 nups (0)
024E  01                 numparams (1)
024F  00                 is_vararg (0)
0250  03                 maxstacksize (3)
                         * code:
0251  21                 sizecode (33)
0252  5D000000           [01] getglobal  1   0        ; 538022378
0256  99400000           [02] loadk      2   1        ; 0
025A  62400001           [03] call       1   2   1  
025E  18400000           [04] test       0       1    ; to [6] if false
0262  1A400080           [05] jmp        2            ; to [8]
fail op	35
0266  23804000           [06] close      0  
026A  1A400280           [07] jmp        10           ; to [18]
026E  5DC00000           [08] getglobal  1   3        ; 1074689893
0272  9D000100           [09] getglobal  2   4        ; _T
0276  8E404101           [10] gettable   2   2   261  ; "curTransmission"
027A  62800001           [11] call       1   2   2  
027E  58000000           [12] test       1       0    ; to [14] if true
0282  1AC00080           [13] jmp        4            ; to [18]
0286  5D000000           [14] getglobal  1   0        ; 538022378
028A  99400000           [15] loadk      2   1        ; 0
028E  62400001           [16] call       1   2   1  
0292  1A40FD7F           [17] jmp        -10          ; to [8]
0296  5DC00000           [18] getglobal  1   3        ; 1074689893
029A  9D000100           [19] getglobal  2   4        ; _T
029E  8E404101           [20] gettable   2   2   261  ; "curTransmission"
02A2  62800001           [21] call       1   2   2  
02A6  58000000           [22] test       1       0    ; to [24] if true
02AA  1A000180           [23] jmp        5            ; to [29]
02AE  5D000100           [24] getglobal  1   4        ; _T
02B2  4E80C100           [25] gettable   1   1   262  ; "QueuedTransmissions"
02B6  4A008000           [26] len        1   1      
fail op	21
02BA  15408080           [27] concat     0   257 1  
02BE  1AC00080           [28] jmp        4            ; to [33]
02C2  5D000000           [29] getglobal  1   0        ; 538022378
02C6  99400000           [30] loadk      2   1        ; 0
02CA  62400001           [31] call       1   2   1  
02CE  1A00FC7F           [32] jmp        -15          ; to [18]
02D2  1E008000           [33] return     0   1      
                         * constants:
02D6  07                 sizek (7)
02D7  01                 const type 3
02D8  EA911120           const [0]: (538022378)
02DC  03                 const type 3
02DD  00000000           const [1]: (0)
02E1  00                 const type 0
                         const [2]: nil
02E2  01                 const type 3
02E3  65770E40           const [3]: (1074689893)
02E7  04                 const type 4
02E8  03                 string size (3)
02E9  5F5400             "_T\0"
                         const [4]: "_T"
02EC  04                 const type 4
02ED  10                 string size (16)
02EE  6375725472616E73+  "curTrans"
02F6  6D697373696F6E00   "mission\0"
                         const [5]: "curTransmission"
02FE  04                 const type 4
02FF  14                 string size (20)
0300  5175657565645472+  "QueuedTr"
0308  616E736D69737369+  "ansmissi"
0310  6F6E7300           "ons\0"
                         const [6]: "QueuedTransmissions"
                         * functions:
0314  00                 sizep (0)
                         * lines:
0315  21                 sizelineinfo (33)
                         [pc] (line)
0316  15                 [01] (21)
0317  00                 [02] (21)
0318  00                 [03] (21)
0319  00                 [04] (23)
031A  15                 [05] (23)
031B  00                 [06] (23)
031C  00                 [07] (23)
031D  00                 [08] (24)
031E  15                 [09] (24)
031F  00                 [10] (24)
0320  00                 [11] (24)
0321  00                 [12] (24)
0322  17                 [13] (24)
0323  00                 [14] (25)
0324  00                 [15] (25)
0325  00                 [16] (25)
0326  17                 [17] (25)
0327  00                 [18] (29)
0328  00                 [19] (29)
0329  00                 [20] (29)
032A  17                 [21] (29)
032B  00                 [22] (29)
032C  00                 [23] (29)
032D  00                 [24] (29)
032E  17                 [25] (29)
032F  00                 [26] (29)
0330  00                 [27] (29)
0331  00                 [28] (29)
0332  18                 [29] (30)
0333  00                 [30] (30)
0334  00                 [31] (30)
0335  00                 [32] (30)
0336  18                 [33] (32)
                         * locals:
039A  00                 sizelocvars (0)
                         * upvalues:
039B  00                 sizeupvalues (0)
                         ** end of function **

                         
039C                     ** function [1] definition (level 2)
                         ** start of function **
039C  00                 string size (0)
                         source name: (none)
039D  22                 line defined (34)
039E  26                 last line defined (38)
039F  01                 nups (1)
03A0  02                 numparams (2)
03A1  00                 is_vararg (0)
03A2  08                 maxstacksize (8)
                         * code:
03A3  0D                 sizecode (13)
03A4  9D000000           [01] getglobal  2   0        ; 1074689893
03A8  D2000000           [02] move       3   0      
03AC  A2800001           [03] call       2   2   2  
03B0  98400000           [04] test       2       1    ; to [6] if false
03B4  1A800180           [05] jmp        7            ; to [13]
03B8  93000000           [06] getupval   2   0      
03BC  A4404001           [07] self       2   2   257  ; 1168170683
03C0  12010000           [08] move       4   0      
03C4  5D810000           [09] getglobal  5   2        ; gRegion
03C8  97018000           [10] loadbool   6   1   0    ; true
03CC  D2018000           [11] move       7   1      
03D0  A2400003           [12] call       2   6   1  
03D4  1E008000           [13] return     0   1      
                         * constants:
03D8  03                 sizek (3)
03D9  01                 const type 3
03DA  65770E40           const [0]: (1074689893)
03DE  01                 const type 3
03DF  BBDEA045           const [1]: (1168170683)
03E3  04                 const type 4
03E4  08                 string size (8)
03E5  67526567696F6E00   "gRegion\0"
                         const [2]: "gRegion"
                         * functions:
03ED  00                 sizep (0)
                         * lines:
03EE  0D                 sizelineinfo (13)
                         [pc] (line)
03EF  23                 [01] (35)
03F0  00                 [02] (35)
03F1  00                 [03] (35)
03F2  00                 [04] (35)
03F3  23                 [05] (35)
03F4  00                 [06] (36)
03F5  00                 [07] (36)
03F6  00                 [08] (36)
03F7  23                 [09] (36)
03F8  00                 [10] (36)
03F9  00                 [11] (36)
03FA  00                 [12] (36)
03FB  23                 [13] (38)
                         * locals:
0423  00                 sizelocvars (0)
                         * upvalues:
0424  00                 sizeupvalues (0)
                         ** end of function **

                         
0425                     ** function [2] definition (level 2)
                         ** start of function **
0425  00                 string size (0)
                         source name: (none)
0426  28                 line defined (40)
0427  34                 last line defined (52)
0428  00                 nups (0)
0429  00                 numparams (0)
042A  00                 is_vararg (0)
042B  05                 maxstacksize (5)
                         * code:
042C  1F                 sizecode (31)
042D  1D000000           [01] getglobal  0   0        ; gGameData
0431  24404000           [02] self       0   0   257  ; 51109503
0435  22800001           [03] call       0   2   2  
0439  5D800000           [04] getglobal  1   2        ; 1074689893
043D  92000000           [05] move       2   0      
0441  62800001           [06] call       1   2   2  
0445  58400000           [07] test       1       1    ; to [9] if false
0449  1AC00480           [08] jmp        20           ; to [29]
044D  4EC04000           [09] gettable   1   0   259  ; "mOperatorCustomization"
0451  6400C100           [10] self       1   1   260  ; -1871371820
0455  DD400100           [11] getglobal  3   5        ; Lotus_Game
0459  CE80C101           [12] gettable   3   3   262  ; "TOSS_VOICE"
045D  62808001           [13] call       1   3   2  
0461  4EC0C100           [14] gettable   1   1   263  ; "mItemType"
0465  9D800000           [15] getglobal  2   2        ; 1074689893
0469  D2008000           [16] move       3   1      
046D  A2800001           [17] call       2   2   2  
0471  98400000           [18] test       2       1    ; to [20] if false
0475  1A000280           [19] jmp        9            ; to [29]
0479  9D000200           [20] getglobal  2   8        ; 2083004503
047D  D2008000           [21] move       3   1      
0481  A2800001           [22] call       2   2   2  
0485  DD800000           [23] getglobal  3   2        ; 1074689893
0489  12010001           [24] move       4   2      
048D  E2800001           [25] call       3   2   2  
0491  D8400000           [26] test       3       1    ; to [28] if false
0495  1A000080           [27] jmp        1            ; to [29]
0499  9E000001           [28] return     2   2      
049D  C6008001           [29] loadnil    3   3      
04A1  DE000001           [30] return     3   2      
04A5  1E008000           [31] return     0   1      
                         * constants:
04A9  09                 sizek (9)
04AA  04                 const type 4
04AB  0A                 string size (10)
04AC  6747616D65446174+  "gGameDat"
04B4  6100               "a\0"
                         const [0]: "gGameData"
04B6  01                 const type 3
04B7  7FDE0B03           const [1]: (51109503)
04BB  01                 const type 3
04BC  65770E40           const [2]: (1074689893)
04C0  04                 const type 4
04C1  17                 string size (23)
04C2  6D4F70657261746F+  "mOperato"
04CA  72437573746F6D69+  "rCustomi"
04D2  7A6174696F6E00     "zation\0"
                         const [3]: "mOperatorCustomization"
04D9  01                 const type 3
04DA  D4217590           const [4]: (-1871371820)
04DE  04                 const type 4
04DF  0B                 string size (11)
04E0  4C6F7475735F4761+  "Lotus_Ga"
04E8  6D6500             "me\0"
                         const [5]: "Lotus_Game"
04EB  04                 const type 4
04EC  0B                 string size (11)
04ED  544F53535F564F49+  "TOSS_VOI"
04F5  434500             "CE\0"
                         const [6]: "TOSS_VOICE"
04F8  04                 const type 4
04F9  0A                 string size (10)
04FA  6D4974656D547970+  "mItemTyp"
0502  6500               "e\0"
                         const [7]: "mItemType"
0504  01                 const type 3
0505  5720287C           const [8]: (2083004503)
                         * functions:
0509  00                 sizep (0)
                         * lines:
050A  1F                 sizelineinfo (31)
                         [pc] (line)
050B  29                 [01] (41)
050C  00                 [02] (41)
050D  00                 [03] (41)
050E  00                 [04] (42)
050F  29                 [05] (42)
0510  00                 [06] (42)
0511  00                 [07] (42)
0512  00                 [08] (42)
0513  29                 [09] (43)
0514  00                 [10] (43)
0515  00                 [11] (43)
0516  00                 [12] (43)
0517  2A                 [13] (43)
0518  00                 [14] (43)
0519  00                 [15] (44)
051A  00                 [16] (44)
051B  2A                 [17] (44)
051C  00                 [18] (44)
051D  00                 [19] (44)
051E  00                 [20] (45)
051F  2A                 [21] (45)
0520  00                 [22] (45)
0521  00                 [23] (46)
0522  00                 [24] (46)
0523  2A                 [25] (46)
0524  00                 [26] (46)
0525  00                 [27] (46)
0526  00                 [28] (47)
0527  2A                 [29] (51)
0528  00                 [30] (51)
0529  00                 [31] (52)
                         * locals:
0587  00                 sizelocvars (0)
                         * upvalues:
0588  00                 sizeupvalues (0)
                         ** end of function **

                         
0589                     ** function [3] definition (level 2)
                         ** start of function **
0589  00                 string size (0)
                         source name: (none)
058A  36                 line defined (54)
058B  3C                 last line defined (60)
058C  01                 nups (1)
058D  00                 numparams (0)
058E  00                 is_vararg (0)
058F  03                 maxstacksize (3)
                         * code:
0590  0D                 sizecode (13)
0591  13000000           [01] getupval   0   0      
0595  22808000           [02] call       0   1   2  
0599  5D000000           [03] getglobal  1   0        ; 1074689893
059D  92000000           [04] move       2   0      
05A1  62800001           [05] call       1   2   2  
05A5  58400000           [06] test       1       1    ; to [8] if false
05A9  1A800080           [07] jmp        3            ; to [11]
05AD  64404000           [08] self       1   0   257  ; -1585739952
05B1  47000001           [09] tailcall   1   2   0  
05B5  5E000000           [10] return     1   0      
05B9  46008000           [11] loadnil    1   1      
05BD  5E000001           [12] return     1   2      
05C1  1E008000           [13] return     0   1      
                         * constants:
05C5  02                 sizek (2)
05C6  01                 const type 3
05C7  65770E40           const [0]: (1074689893)
05CB  01                 const type 3
05CC  50877BA1           const [1]: (-1585739952)
                         * functions:
05D0  00                 sizep (0)
                         * lines:
05D1  0D                 sizelineinfo (13)
                         [pc] (line)
05D2  37                 [01] (55)
05D3  00                 [02] (55)
05D4  00                 [03] (56)
05D5  00                 [04] (56)
05D6  37                 [05] (56)
05D7  00                 [06] (56)
05D8  00                 [07] (56)
05D9  00                 [08] (57)
05DA  38                 [09] (57)
05DB  00                 [10] (57)
05DC  00                 [11] (59)
05DD  00                 [12] (59)
05DE  38                 [13] (60)
                         * locals:
0606  00                 sizelocvars (0)
                         * upvalues:
0607  00                 sizeupvalues (0)
                         ** end of function **

                         
0608                     ** function [4] definition (level 2)
                         ** start of function **
0608  00                 string size (0)
                         source name: (none)
0609  3E                 line defined (62)
060A  62                 last line defined (98)
060B  03                 nups (3)
060C  03                 numparams (3)
060D  00                 is_vararg (0)
060E  10                 maxstacksize (16)
                         * code:
060F  68                 sizecode (104)
0610  E4004000           [001] self       3   0   256  ; -781703361
0614  5D410000           [002] getglobal  5   1        ; -332969190
0618  92018000           [003] move       6   1      
061C  62010001           [004] call       5   2   0  
0620  E2800000           [005] call       3   0   2  
0624  1D810000           [006] getglobal  4   2        ; 1074689893
0628  52018001           [007] move       5   3      
062C  22810001           [008] call       4   2   2  
0630  18410000           [009] test       4       1    ; to [11] if false
0634  1A001780           [010] jmp        93           ; to [104]
0638  1DC10000           [011] getglobal  4   3        ; UISys
063C  0E014102           [012] gettable   4   4   260  ; 1151030240
0640  4B010000           [013] newtable   5   0   0    ; array=0, hash=0
0644  A441C101           [014] self       6   3   261  ; 455421500
0648  A2010001           [015] call       6   2   0  
064C  5B410000           [016] setlist    5   0   1    ; index 1 to top
0650  22810001           [017] call       4   2   2  
0654  5D810000           [018] getglobal  5   2        ; 1074689893
0658  92010002           [019] move       6   4      
065C  62810001           [020] call       5   2   2  
0660  58410000           [021] test       5       1    ; to [23] if false
0664  1AC00180           [022] jmp        8            ; to [31]
0668  64814102           [023] self       5   4   262  ; -1344420604
066C  62810001           [024] call       5   2   2  
0670  58410000           [025] test       5       1    ; to [27] if false
0674  1AC00080           [026] jmp        4            ; to [31]
0678  5DC10100           [027] getglobal  5   7        ; 538022378
067C  99010200           [028] loadk      6   8        ; 0
0680  62410001           [029] call       5   2   1  
0684  1A80FC7F           [030] jmp        -13          ; to [18]
0688  5D410200           [031] getglobal  5   9        ; -1817107093
068C  99810200           [032] loadk      6   10       ; "Loading completed"
0690  62410001           [033] call       5   2   1  
0694  5D810000           [034] getglobal  5   2        ; 1074689893
0698  92018001           [035] move       6   3      
069C  62810001           [036] call       5   2   2  
06A0  58410000           [037] test       5       1    ; to [39] if false
06A4  1A001080           [038] jmp        65           ; to [104]
06A8  5DC10200           [039] getglobal  5   11       ; 2083004503
06AC  92018001           [040] move       6   3      
06B0  62810001           [041] call       5   2   2  
06B4  D2008002           [042] move       3   5      
06B8  53010000           [043] getupval   5   0      
06BC  6401C302           [044] self       5   5   268  ; 1644771420
06C0  D2018001           [045] move       7   3      
06C4  62C18001           [046] call       5   3   3  
06C8  E4414301           [047] self       7   2   269  ; 630793108
06CC  6482C301           [048] self       9   3   270  ; 257777649
06D0  D2020003           [049] move       11  6      
06D4  62828001           [050] call       9   3   2  
06D8  97020000           [051] loadbool   10  0   0    ; false
06DC  E2810002           [052] call       7   4   2  
06E0  1D820000           [053] getglobal  8   2        ; 1074689893
06E4  52028003           [054] move       9   7      
06E8  22820001           [055] call       8   2   2  
06EC  18420000           [056] test       8       1    ; to [58] if false
06F0  1A000480           [057] jmp        17           ; to [75]
06F4  1DC20300           [058] getglobal  8   15       ; gRegion
06F8  24024404           [059] self       8   8   272  ; 211906289
06FC  92028003           [060] move       10  7      
0700  D2028002           [061] move       11  5      
0704  13038000           [062] getupval   12  1      
0708  0E434406           [063] gettable   12  12  273  ; -132701534
070C  5D830400           [064] getglobal  13  18       ; _T
0710  4EC3C406           [065] gettable   13  13  275  ; "PlayingTwinDialog"
fail op	35
0714  2300C506           [066] close      0  
0718  1A000080           [067] jmp        1            ; to [69]
071C  57430000           [068] loadbool   13  0   1    ; false, to [70]
0720  57038000           [069] loadbool   13  1   0    ; true
0724  9D830400           [070] getglobal  14  18       ; _T
0728  8EC34407           [071] gettable   14  14  275  ; "PlayingTwinDialog"
072C  D7030000           [072] loadbool   15  0   0    ; false
0730  22030002           [073] call       12  4   0  
0734  22420000           [074] call       8   0   1  
0738  06010002           [075] loadnil    4   4      
073C  1D820400           [076] getglobal  8   18       ; _T
0740  0C42C589           [077] settable   8   275 277  ; "PlayingTwinDialog" 1
0744  06020004           [078] loadnil    8   8      
0748  5D820000           [079] getglobal  9   2        ; 1074689893
074C  92028003           [080] move       10  7      
0750  62820001           [081] call       9   2   2  
0754  58420000           [082] test       9       1    ; to [84] if false
0758  1A000180           [083] jmp        5            ; to [89]
075C  6482C503           [084] self       9   7   278  ; 1948022577
0760  D3020000           [085] getupval   11  0      
0764  CEC2C505           [086] gettable   11  11  279  ; "mVisemeAnticipation"
0768  62828001           [087] call       9   3   2  
076C  12028004           [088] move       8   9      
0770  5D820000           [089] getglobal  9   2        ; 1074689893
0774  92028003           [090] move       10  7      
0778  62820001           [091] call       9   2   2  
077C  58420000           [092] test       9       1    ; to [94] if false
0780  1AC00180           [093] jmp        8            ; to [102]
0784  53020001           [094] getupval   9   2      
0788  92028003           [095] move       10  7      
078C  D2020001           [096] move       11  2      
0790  62428001           [097] call       9   3   1  
0794  5DC20100           [098] getglobal  9   7        ; 538022378
0798  99020200           [099] loadk      10  8        ; 0
079C  62420001           [100] call       9   2   1  
07A0  1A80FC7F           [101] jmp        -13          ; to [89]
07A4  5D820400           [102] getglobal  9   18       ; _T
07A8  4C02C689           [103] settable   9   275 280  ; "PlayingTwinDialog" 0
07AC  1E008000           [104] return     0   1      
                         * constants:
07B0  19                 sizek (25)
07B1  01                 const type 3
07B2  3F2768D1           const [0]: (-781703361)
07B6  01                 const type 3
07B7  1A4B27EC           const [1]: (-332969190)
07BB  01                 const type 3
07BC  65770E40           const [2]: (1074689893)
07C0  04                 const type 4
07C1  06                 string size (6)
07C2  554953797300       "UISys\0"
                         const [3]: "UISys"
07C8  01                 const type 3
07C9  E0539B44           const [4]: (1151030240)
07CD  01                 const type 3
07CE  3C2E251B           const [5]: (455421500)
07D2  01                 const type 3
07D3  04C5DDAF           const [6]: (-1344420604)
07D7  01                 const type 3
07D8  EA911120           const [7]: (538022378)
07DC  03                 const type 3
07DD  00000000           const [8]: (0)
07E1  01                 const type 3
07E2  6B25B193           const [9]: (-1817107093)
07E6  04                 const type 4
07E7  12                 string size (18)
07E8  4C6F6164696E6720+  "Loading "
07F0  636F6D706C657465+  "complete"
07F8  6400               "d\0"
                         const [10]: "Loading completed"
07FA  01                 const type 3
07FB  5720287C           const [11]: (2083004503)
07FF  01                 const type 3
0800  5C380962           const [12]: (1644771420)
0804  01                 const type 3
0805  94239925           const [13]: (630793108)
0809  01                 const type 3
080A  F15F5D0F           const [14]: (257777649)
080E  04                 const type 4
080F  08                 string size (8)
0810  67526567696F6E00   "gRegion\0"
                         const [15]: "gRegion"
0818  01                 const type 3
0819  F16EA10C           const [16]: (211906289)
081D  01                 const type 3
081E  A22217F8           const [17]: (-132701534)
0822  04                 const type 4
0823  03                 string size (3)
0824  5F5400             "_T\0"
                         const [18]: "_T"
0827  04                 const type 4
0828  12                 string size (18)
0829  506C6179696E6754+  "PlayingT"
0831  77696E4469616C6F+  "winDialo"
0839  6700               "g\0"
                         const [19]: "PlayingTwinDialog"
083B  00                 const type 0
                         const [20]: nil
083C  01                 const type 3
083D  01000000           const [21]: (1)
0841  01                 const type 3
0842  31771C74           const [22]: (1948022577)
0846  04                 const type 4
0847  14                 string size (20)
0848  6D566973656D6541+  "mVisemeA"
0850  6E74696369706174+  "nticipat"
0858  696F6E00           "ion\0"
                         const [23]: "mVisemeAnticipation"
085C  01                 const type 3
085D  00000000           const [24]: (0)
                         * functions:
0861  00                 sizep (0)
                         * lines:
0862  68                 sizelineinfo (104)
                         [pc] (line)
0863  3F                 [001] (63)
0864  00                 [002] (63)
0865  00                 [003] (63)
0866  00                 [004] (63)
0867  3F                 [005] (63)
0868  00                 [006] (64)
0869  00                 [007] (64)
086A  00                 [008] (64)
086B  3F                 [009] (64)
086C  00                 [010] (64)
086D  00                 [011] (65)
086E  00                 [012] (65)
086F  3F                 [013] (65)
0870  00                 [014] (65)
0871  00                 [015] (65)
0872  00                 [016] (65)
0873  3F                 [017] (65)
0874  00                 [018] (66)
0875  00                 [019] (66)
0876  00                 [020] (66)
0877  40                 [021] (66)
0878  00                 [022] (66)
0879  00                 [023] (66)
087A  00                 [024] (66)
087B  40                 [025] (66)
087C  00                 [026] (66)
087D  00                 [027] (68)
087E  00                 [028] (68)
087F  40                 [029] (68)
0880  00                 [030] (68)
0881  00                 [031] (70)
0882  00                 [032] (70)
0883  40                 [033] (70)
0884  00                 [034] (71)
0885  00                 [035] (71)
0886  00                 [036] (71)
0887  40                 [037] (71)
0888  00                 [038] (71)
0889  00                 [039] (72)
088A  00                 [040] (72)
088B  41                 [041] (72)
088C  00                 [042] (72)
088D  00                 [043] (74)
088E  00                 [044] (74)
088F  41                 [045] (74)
0890  00                 [046] (74)
0891  00                 [047] (76)
0892  00                 [048] (76)
0893  41                 [049] (76)
0894  00                 [050] (76)
0895  00                 [051] (76)
0896  00                 [052] (76)
0897  41                 [053] (77)
0898  00                 [054] (77)
0899  00                 [055] (77)
089A  00                 [056] (77)
089B  41                 [057] (77)
089C  00                 [058] (79)
089D  00                 [059] (79)
089E  00                 [060] (79)
089F  41                 [061] (79)
08A0  00                 [062] (79)
08A1  00                 [063] (79)
08A2  00                 [064] (79)
08A3  41                 [065] (79)
08A4  00                 [066] (79)
08A5  00                 [067] (79)
08A6  00                 [068] (79)
08A7  42                 [069] (79)
08A8  00                 [070] (79)
08A9  00                 [071] (79)
08AA  00                 [072] (79)
08AB  42                 [073] (79)
08AC  00                 [074] (79)
08AD  00                 [075] (82)
08AE  00                 [076] (83)
08AF  42                 [077] (83)
08B0  00                 [078] (85)
08B1  00                 [079] (86)
08B2  00                 [080] (86)
08B3  42                 [081] (86)
08B4  00                 [082] (86)
08B5  00                 [083] (86)
08B6  00                 [084] (87)
08B7  42                 [085] (87)
08B8  00                 [086] (87)
08B9  00                 [087] (87)
08BA  00                 [088] (87)
08BB  42                 [089] (90)
08BC  00                 [090] (90)
08BD  00                 [091] (90)
08BE  00                 [092] (90)
08BF  42                 [093] (90)
08C0  00                 [094] (91)
08C1  00                 [095] (91)
08C2  00                 [096] (91)
08C3  42                 [097] (91)
08C4  00                 [098] (92)
08C5  00                 [099] (92)
08C6  00                 [100] (92)
08C7  42                 [101] (92)
08C8  00                 [102] (95)
08C9  00                 [103] (95)
08CA  00                 [104] (98)
                         * locals:
0A03  00                 sizelocvars (0)
                         * upvalues:
0A04  00                 sizeupvalues (0)
                         ** end of function **

                         
0A05                     ** function [5] definition (level 2)
                         ** start of function **
0A05  00                 string size (0)
                         source name: (none)
0A06  64                 line defined (100)
0A07  7E                 last line defined (126)
0A08  00                 nups (0)
0A09  03                 numparams (3)
0A0A  00                 is_vararg (0)
0A0B  0D                 maxstacksize (13)
                         * code:
0A0C  47                 sizecode (71)
0A0D  DD000000           [01] getglobal  3   0        ; gRegion
0A11  E440C001           [02] self       3   3   257  ; 925677844
0A15  E2800001           [03] call       3   2   2  
0A19  2481C001           [04] self       4   3   258  ; -2135866365
0A1D  22810001           [05] call       4   2   2  
0A21  59C10000           [06] loadk      5   3        ; 0
0A25  97010000           [07] loadbool   6   0   0    ; false
0A29  DD010100           [08] getglobal  7   4        ; 1074689893
0A2D  12020002           [09] move       8   4      
0A31  E2810001           [10] call       7   2   2  
0A35  D8410000           [11] test       7       1    ; to [13] if false
0A39  1AC00480           [12] jmp        20           ; to [33]
0A3D  E4414100           [13] self       7   0   261  ; -2123330418
0A41  52020002           [14] move       9   4      
0A45  E2818001           [15] call       7   3   2  
0A49  D8010000           [16] test       7       0    ; to [18] if true
0A4D  1A800380           [17] jmp        15           ; to [33]
0A51  98400000           [18] test       2       1    ; to [20] if false
0A55  1A000380           [19] jmp        13           ; to [33]
0A59  DD810100           [20] getglobal  7   6        ; maxTimer
fail op	21
0A5D  15C08102           [21] concat     0   5   7  
0A61  1A400280           [22] jmp        10           ; to [33]
0A65  DDC10100           [23] getglobal  7   7        ; 1289681407
0A69  E2818000           [24] call       7   1   2  
0A6D  43C18102           [25] add        5   5   7  
0A71  E481C001           [26] self       7   3   258  ; -2135866365
0A75  E2810001           [27] call       7   2   2  
0A79  12018003           [28] move       4   7      
0A7D  DD010200           [29] getglobal  7   8        ; 538022378
0A81  19C20000           [30] loadk      8   3        ; 0
0A85  E2410001           [31] call       7   2   1  
0A89  1A80F97F           [32] jmp        -25          ; to [8]
0A8D  DD010100           [33] getglobal  7   4        ; 1074689893
0A91  12028000           [34] move       8   1      
0A95  E2810001           [35] call       7   2   2  
0A99  D8410000           [36] test       7       1    ; to [38] if false
0A9D  1A800780           [37] jmp        31           ; to [69]
0AA1  DD810100           [38] getglobal  7   6        ; maxTimer
fail op	33
0AA5  61408103           [39] tforloop   1       5    ; to [41] if exit
0AA9  1A400080           [40] jmp        2            ; to [43]
0AAD  98000000           [41] test       2       0    ; to [43] if true
0AB1  1A400680           [42] jmp        26           ; to [69]
0AB5  59C10000           [43] loadk      5   3        ; 0
fail op	21
0AB9  1540C202           [44] concat     0   5   265
0ABD  1A800580           [45] jmp        23           ; to [69]
fail op	21
0AC1  15400185           [46] concat     0   266 5  
0AC5  1A800280           [47] jmp        11           ; to [59]
0AC9  98410000           [48] test       6       1    ; to [50] if false
0ACD  1A000280           [49] jmp        9            ; to [59]
0AD1  DD010000           [50] getglobal  7   0        ; gRegion
0AD5  E4C1C203           [51] self       7   7   267  ; -1110225722
0AD9  5D020300           [52] getglobal  9   12       ; removeTwinFx
0ADD  A442C300           [53] self       10  1   269  ; 1839670529
0AE1  A2820001           [54] call       10  2   2  
0AE5  E482C300           [55] self       11  1   270  ; -231049143
0AE9  E2020001           [56] call       11  2   0  
0AED  E2810000           [57] call       7   0   2  
0AF1  97018000           [58] loadbool   6   1   0    ; true
0AF5  24C2C300           [59] self       8   1   271  ; -703571861
0AF9  92028002           [60] move       10  5      
0AFD  22428001           [61] call       8   3   1  
0B01  1DC20100           [62] getglobal  8   7        ; 1289681407
0B05  22828000           [63] call       8   1   2  
0B09  43018202           [64] add        5   5   8  
0B0D  1D020200           [65] getglobal  8   8        ; 538022378
0B11  59C20000           [66] loadk      9   3        ; 0
0B15  22420001           [67] call       8   2   1  
0B19  1A80F97F           [68] jmp        -25          ; to [44]
0B1D  2402C400           [69] self       8   1   272  ; -725453761
0B21  22420001           [70] call       8   2   1  
0B25  1E008000           [71] return     0   1      
                         * constants:
0B29  11                 sizek (17)
0B2A  04                 const type 4
0B2B  08                 string size (8)
0B2C  67526567696F6E00   "gRegion\0"
                         const [0]: "gRegion"
0B34  01                 const type 3
0B35  14B92C37           const [1]: (925677844)
0B39  01                 const type 3
0B3A  0344B180           const [2]: (-2135866365)
0B3E  03                 const type 3
0B3F  00000000           const [3]: (0)
0B43  01                 const type 3
0B44  65770E40           const [4]: (1074689893)
0B48  01                 const type 3
0B49  8E8C7081           const [5]: (-2123330418)
0B4D  04                 const type 4
0B4E  09                 string size (9)
0B4F  6D617854696D6572+  "maxTimer"
0B57  00                 "\0"
                         const [6]: "maxTimer"
0B58  01                 const type 3
0B59  FFF9DE4C           const [7]: (1289681407)
0B5D  01                 const type 3
0B5E  EA911120           const [8]: (538022378)
0B62  03                 const type 3
0B63  0000803F           const [9]: (0)
0B67  03                 const type 3
0B68  CDCC4C3E           const [10]: (-51)
0B6C  01                 const type 3
0B6D  C64CD3BD           const [11]: (-1110225722)
0B71  04                 const type 4
0B72  0D                 string size (13)
0B73  72656D6F76655477+  "removeTw"
0B7B  696E467800         "inFx\0"
                         const [12]: "removeTwinFx"
0B80  01                 const type 3
0B81  0125A76D           const [13]: (1839670529)
0B85  01                 const type 3
0B86  49783AF2           const [14]: (-231049143)
0B8A  01                 const type 3
0B8B  6B5810D6           const [15]: (-703571861)
0B8F  01                 const type 3
0B90  3F74C2D4           const [16]: (-725453761)
                         * functions:
0B94  00                 sizep (0)
                         * lines:
0B95  47                 sizelineinfo (71)
                         [pc] (line)
0B96  65                 [01] (101)
0B97  00                 [02] (101)
0B98  00                 [03] (101)
0B99  00                 [04] (102)
0B9A  65                 [05] (102)
0B9B  00                 [06] (103)
0B9C  00                 [07] (104)
0B9D  00                 [08] (106)
0B9E  65                 [09] (106)
0B9F  00                 [10] (106)
0BA0  00                 [11] (106)
0BA1  00                 [12] (106)
0BA2  66                 [13] (106)
0BA3  00                 [14] (106)
0BA4  00                 [15] (106)
0BA5  00                 [16] (106)
0BA6  66                 [17] (106)
0BA7  00                 [18] (106)
0BA8  00                 [19] (106)
0BA9  00                 [20] (106)
0BAA  67                 [21] (106)
0BAB  00                 [22] (106)
0BAC  00                 [23] (107)
0BAD  00                 [24] (107)
0BAE  68                 [25] (107)
0BAF  00                 [26] (108)
0BB0  00                 [27] (108)
0BB1  00                 [28] (108)
0BB2  6A                 [29] (109)
0BB3  00                 [30] (109)
0BB4  00                 [31] (109)
0BB5  00                 [32] (109)
0BB6  6A                 [33] (112)
0BB7  00                 [34] (112)
0BB8  00                 [35] (112)
0BB9  00                 [36] (112)
0BBA  6A                 [37] (112)
0BBB  00                 [38] (112)
0BBC  00                 [39] (112)
0BBD  00                 [40] (112)
0BBE  6A                 [41] (112)
0BBF  00                 [42] (112)
0BC0  00                 [43] (113)
0BC1  00                 [44] (114)
0BC2  6A                 [45] (114)
0BC3  00                 [46] (115)
0BC4  00                 [47] (115)
0BC5  00                 [48] (115)
0BC6  6A                 [49] (115)
0BC7  00                 [50] (116)
0BC8  00                 [51] (116)
0BC9  00                 [52] (116)
0BCA  6A                 [53] (116)
0BCB  00                 [54] (116)
0BCC  00                 [55] (116)
0BCD  00                 [56] (116)
0BCE  6A                 [57] (116)
0BCF  00                 [58] (117)
0BD0  00                 [59] (119)
0BD1  00                 [60] (119)
0BD2  6A                 [61] (119)
0BD3  00                 [62] (120)
0BD4  00                 [63] (120)
0BD5  00                 [64] (120)
0BD6  6A                 [65] (121)
0BD7  00                 [66] (121)
0BD8  00                 [67] (121)
0BD9  00                 [68] (121)
0BDA  6A                 [69] (125)
0BDB  00                 [70] (125)
0BDC  00                 [71] (126)
                         * locals:
0CB2  00                 sizelocvars (0)
                         * upvalues:
0CB3  00                 sizeupvalues (0)
                         ** end of function **

                         
0CB4                     ** function [6] definition (level 2)
                         ** start of function **
0CB4  00                 string size (0)
                         source name: (none)
0CB6  01                 line defined (128)
0CB7  8C                 last line defined (140)
0CB8  01                 nups (1)
0CB9  01                 numparams (1)
0CBA  01                 is_vararg (0)
0CBB  00                 maxstacksize (4)
                         * code:
0CBD  16                 sizecode (22)
0CBE  53000000           [01] getupval   1   0      
0CC2  4E00C000           [02] gettable   1   1   256  ; 1776858983
0CC6  62808000           [03] call       1   1   2  
0CCA  58000000           [04] test       1       0    ; to [6] if true
0CCE  1AC00080           [05] jmp        4            ; to [10]
0CD2  5D400000           [06] getglobal  1   1        ; 538022378
0CD6  99800000           [07] loadk      2   2        ; 0
0CDA  62400001           [08] call       1   2   1  
0CDE  1A80FD7F           [09] jmp        -9           ; to [1]
0CE2  64C04000           [10] self       1   0   259  ; -1870903749
0CE6  62800001           [11] call       1   2   2  
0CEA  9D000100           [12] getglobal  2   4        ; 1074689893
0CEE  D2008000           [13] move       3   1      
0CF2  A2800001           [14] call       2   2   2  
0CF6  98000000           [15] test       2       0    ; to [17] if true
0CFA  1AC00080           [16] jmp        4            ; to [21]
0CFE  9D400100           [17] getglobal  2   5        ; -1817107093
0D02  D9800100           [18] loadk      3   6        ; "Couldn't find twin to play transmissions on"
0D06  A2400001           [19] call       2   2   1  
0D0A  1E008000           [20] return     0   1      
0D0E  5E000001           [21] return     1   2      
0D12  1E008000           [22] return     0   1      
                         * constants:
0D16  07                 sizek (7)
0D17  01                 const type 3
0D18  67B7E869           const [0]: (1776858983)
0D1C  01                 const type 3
0D1D  EA911120           const [1]: (538022378)
0D21  03                 const type 3
0D22  00000000           const [2]: (0)
0D26  01                 const type 3
0D27  3B467C90           const [3]: (-1870903749)
0D2B  01                 const type 3
0D2C  65770E40           const [4]: (1074689893)
0D30  01                 const type 3
0D31  6B25B193           const [5]: (-1817107093)
0D35  04                 const type 4
0D36  2C                 string size (44)
0D37  436F756C646E2774+  "Couldn't"
0D3F  2066696E64207477+  " find tw"
0D47  696E20746F20706C+  "in to pl"
0D4F  6179207472616E73+  "ay trans"
0D57  6D697373696F6E73+  "missions"
0D5F  206F6E00           " on\0"
                         const [6]: "Couldn't find twin to play transmissions on"
                         * functions:
0D63  00                 sizep (0)
                         * lines:
0D64  16                 sizelineinfo (22)
                         [pc] (line)
0D65  81                 [01] (-127)
0D66  00                 [02] (-127)
0D67  00                 [03] (-127)
0D68  00                 [04] (-127)
0D69  81                 [05] (-127)
0D6A  00                 [06] (-126)
0D6B  00                 [07] (-126)
0D6C  00                 [08] (-126)
0D6D  81                 [09] (-126)
0D6E  00                 [10] (-123)
0D6F  00                 [11] (-123)
0D70  00                 [12] (-122)
0D71  81                 [13] (-122)
0D72  00                 [14] (-122)
0D73  00                 [15] (-122)
0D74  00                 [16] (-122)
0D75  81                 [17] (-121)
0D76  00                 [18] (-121)
0D77  00                 [19] (-121)
0D78  00                 [20] (-120)
0D79  82                 [21] (-117)
0D7A  00                 [22] (-116)
                         * locals:
0DBD  00                 sizelocvars (0)
                         * upvalues:
0DBE  00                 sizeupvalues (0)
                         ** end of function **

                         
0DBF                     ** function [7] definition (level 2)
                         ** start of function **
0DBF  00                 string size (0)
                         source name: (none)
0DC1  01                 line defined (142)
0DC2  A2                 last line defined (162)
0DC3  01                 nups (4)
0DC4  04                 numparams (2)
0DC5  02                 is_vararg (0)
0DC6  00                 maxstacksize (10)
                         * code:
0DC8  2F                 sizecode (47)
0DC9  93000000           [01] getupval   2   0      
0DCD  D2008000           [02] move       3   1      
0DD1  A2800001           [03] call       2   2   2  
0DD5  DD000000           [04] getglobal  3   0        ; 1074689893
0DD9  12010001           [05] move       4   2      
0DDD  E2800001           [06] call       3   2   2  
0DE1  D8000000           [07] test       3       0    ; to [9] if true
0DE5  1AC00080           [08] jmp        4            ; to [13]
0DE9  DD400000           [09] getglobal  3   1        ; -1817107093
0DED  19810000           [10] loadk      4   2        ; "Couldn't find twin to play transmissions on"
0DF1  E2400001           [11] call       3   2   1  
0DF5  1E008000           [12] return     0   1      
0DF9  D3008000           [13] getupval   3   1      
0DFD  E2808000           [14] call       3   1   2  
0E01  1D010000           [15] getglobal  4   0        ; 1074689893
0E05  52018001           [16] move       5   3      
0E09  22810001           [17] call       4   2   2  
0E0D  18410000           [18] test       4       1    ; to [20] if false
0E11  1AC00480           [19] jmp        20           ; to [40]
0E15  1DC10000           [20] getglobal  4   3        ; twinOperatorTags
0E19  0A010002           [21] len        4   4      
fail op	21
0E1D  15000182           [22] concat     0   260 4  
0E21  1AC00380           [23] jmp        16           ; to [40]
0E25  1D410100           [24] getglobal  4   5        ; math
0E29  0E814102           [25] gettable   4   4   262  ; -2040962569
0E2D  59C10100           [26] loadk      5   7        ; 0
0E31  9DC10000           [27] getglobal  6   3        ; twinOperatorTags
0E35  8A010003           [28] len        6   6      
0E39  22818001           [29] call       4   3   2  
0E3D  5DC10000           [30] getglobal  5   3        ; twinOperatorTags
0E41  4E018102           [31] gettable   5   5   4  
0E45  93010001           [32] getupval   6   2      
0E49  D2018001           [33] move       7   3      
0E4D  1D020200           [34] getglobal  8   8        ; -1615931716
0E51  52028002           [35] move       9   5      
0E55  22820001           [36] call       8   2   2  
0E59  52020001           [37] move       9   2      
0E5D  A2410002           [38] call       6   4   1  
0E61  1A800080           [39] jmp        3            ; to [43]
0E65  9D410000           [40] getglobal  6   1        ; -1817107093
0E69  D9410200           [41] loadk      7   9        ; "Num operator/twin tags mismatch"
0E6D  A2410001           [42] call       6   2   1  
0E71  93018001           [43] getupval   6   3      
0E75  D2018000           [44] move       7   1      
0E79  12020001           [45] move       8   2      
0E7D  A2418001           [46] call       6   3   1  
0E81  1E008000           [47] return     0   1      
                         * constants:
0E85  0A                 sizek (10)
0E86  01                 const type 3
0E87  65770E40           const [0]: (1074689893)
0E8B  01                 const type 3
0E8C  6B25B193           const [1]: (-1817107093)
0E90  04                 const type 4
0E91  2C                 string size (44)
0E92  436F756C646E2774+  "Couldn't"
0E9A  2066696E64207477+  " find tw"
0EA2  696E20746F20706C+  "in to pl"
0EAA  6179207472616E73+  "ay trans"
0EB2  6D697373696F6E73+  "missions"
0EBA  206F6E00           " on\0"
                         const [2]: "Couldn't find twin to play transmissions on"
0EBE  04                 const type 4
0EBF  11                 string size (17)
0EC0  7477696E4F706572+  "twinOper"
0EC8  61746F7254616773+  "atorTags"
0ED0  00                 "\0"
                         const [3]: "twinOperatorTags"
0ED1  03                 const type 3
0ED2  00000000           const [4]: (0)
0ED6  04                 const type 4
0ED7  05                 string size (5)
0ED8  6D61746800         "math\0"
                         const [5]: "math"
0EDD  01                 const type 3
0EDE  F7615986           const [6]: (-2040962569)
0EE2  03                 const type 3
0EE3  0000803F           const [7]: (0)
0EE7  01                 const type 3
0EE8  BCD6AE9F           const [8]: (-1615931716)
0EEC  04                 const type 4
0EED  20                 string size (32)
0EEE  4E756D206F706572+  "Num oper"
0EF6  61746F722F747769+  "ator/twi"
0EFE  6E2074616773206D+  "n tags m"
0F06  69736D6174636800   "ismatch\0"
                         const [9]: "Num operator/twin tags mismatch"
                         * functions:
0F0E  00                 sizep (0)
                         * lines:
0F0F  2F                 sizelineinfo (47)
                         [pc] (line)
0F10  8F                 [01] (-113)
0F11  00                 [02] (-113)
0F12  00                 [03] (-113)
0F13  00                 [04] (-111)
0F14  8F                 [05] (-111)
0F15  00                 [06] (-111)
0F16  00                 [07] (-111)
0F17  00                 [08] (-111)
0F18  8F                 [09] (-110)
0F19  00                 [10] (-110)
0F1A  00                 [11] (-110)
0F1B  00                 [12] (-109)
0F1C  91                 [13] (-106)
0F1D  00                 [14] (-106)
0F1E  00                 [15] (-104)
0F1F  00                 [16] (-104)
0F20  91                 [17] (-104)
0F21  00                 [18] (-104)
0F22  00                 [19] (-104)
0F23  00                 [20] (-104)
0F24  91                 [21] (-104)
0F25  00                 [22] (-104)
0F26  00                 [23] (-104)
0F27  00                 [24] (-103)
0F28  91                 [25] (-103)
0F29  00                 [26] (-103)
0F2A  00                 [27] (-103)
0F2B  00                 [28] (-103)
0F2C  91                 [29] (-103)
0F2D  00                 [30] (-102)
0F2E  00                 [31] (-102)
0F2F  00                 [32] (-100)
0F30  92                 [33] (-100)
0F31  00                 [34] (-100)
0F32  00                 [35] (-100)
0F33  00                 [36] (-100)
0F34  92                 [37] (-100)
0F35  00                 [38] (-100)
0F36  00                 [39] (-100)
0F37  00                 [40] (-98)
0F38  92                 [41] (-98)
0F39  00                 [42] (-98)
0F3A  00                 [43] (-95)
0F3B  00                 [44] (-95)
0F3C  93                 [45] (-95)
0F3D  00                 [46] (-95)
0F3E  00                 [47] (-94)
                         * locals:
0FCC  00                 sizelocvars (0)
                         * upvalues:
0FCD  00                 sizeupvalues (0)
                         ** end of function **

                         
0FCE                     ** function [8] definition (level 2)
                         ** start of function **
0FCE  00                 string size (0)
                         source name: (none)
0FD0  01                 line defined (164)
0FD1  B2                 last line defined (178)
0FD2  01                 nups (0)
0FD3  00                 numparams (1)
0FD4  01                 is_vararg (0)
0FD5  00                 maxstacksize (6)
                         * code:
0FD7  18                 sizecode (24)
0FD8  64004000           [01] self       1   0   256  ; 129677183
0FDC  62800001           [02] call       1   2   2  
0FE0  9D400000           [03] getglobal  2   1        ; 1074689893
0FE4  D2008000           [04] move       3   1      
0FE8  A2800001           [05] call       2   2   2  
0FEC  98000000           [06] test       2       0    ; to [8] if true
0FF0  1AC00080           [07] jmp        4            ; to [12]
0FF4  9D800000           [08] getglobal  2   2        ; -1817107093
0FF8  D9C00000           [09] loadk      3   3        ; "Failed to find twin deco creator for visibility!"
0FFC  A2400001           [10] call       2   2   1  
1000  1E008000           [11] return     0   1      
1004  A400C100           [12] self       2   1   260  ; -717859730
1008  A2800001           [13] call       2   2   2  
100C  98000000           [14] test       2       0    ; to [16] if true
1010  1A000080           [15] jmp        1            ; to [17]
1014  1E008000           [16] return     0   1      
1018  9D400100           [17] getglobal  2   5        ; 538022378
101C  D9800100           [18] loadk      3   6        ; 0
1020  A2400001           [19] call       2   2   1  
1024  A4C04100           [20] self       2   0   263  ; 2109594123
1028  17010000           [21] loadbool   4   0   0    ; false
102C  57018000           [22] loadbool   5   1   0    ; true
1030  A2400002           [23] call       2   4   1  
1034  1E008000           [24] return     0   1      
                         * constants:
1038  08                 sizek (8)
1039  01                 const type 3
103A  7FB7BA07           const [0]: (129677183)
103E  01                 const type 3
103F  65770E40           const [1]: (1074689893)
1043  01                 const type 3
1044  6B25B193           const [2]: (-1817107093)
1048  04                 const type 4
1049  31                 string size (49)
104A  4661696C65642074+  "Failed t"
1052  6F2066696E642074+  "o find t"
105A  77696E206465636F+  "win deco"
1062  2063726561746F72+  " creator"
106A  20666F7220766973+  " for vis"
1072  6962696C69747921+  "ibility!"
107A  00                 "\0"
                         const [3]: "Failed to find twin deco creator for visibility!"
107B  01                 const type 3
107C  6E5436D5           const [4]: (-717859730)
1080  01                 const type 3
1081  EA911120           const [5]: (538022378)
1085  03                 const type 3
1086  0000803F           const [6]: (0)
108A  01                 const type 3
108B  0BDABD7D           const [7]: (2109594123)
                         * functions:
108F  00                 sizep (0)
                         * lines:
1090  18                 sizelineinfo (24)
                         [pc] (line)
1091  A5                 [01] (-91)
1092  00                 [02] (-91)
1093  00                 [03] (-90)
1094  00                 [04] (-90)
1095  A5                 [05] (-90)
1096  00                 [06] (-90)
1097  00                 [07] (-90)
1098  00                 [08] (-89)
1099  A6                 [09] (-89)
109A  00                 [10] (-89)
109B  00                 [11] (-88)
109C  00                 [12] (-85)
109D  A6                 [13] (-85)
109E  00                 [14] (-85)
109F  00                 [15] (-85)
10A0  00                 [16] (-84)
10A1  A6                 [17] (-81)
10A2  00                 [18] (-81)
10A3  00                 [19] (-81)
10A4  00                 [20] (-79)
10A5  A6                 [21] (-79)
10A6  00                 [22] (-79)
10A7  00                 [23] (-79)
10A8  00                 [24] (-78)
                         * locals:
10F1  00                 sizelocvars (0)
                         * upvalues:
10F2  00                 sizeupvalues (0)
                         ** end of function **

                         
10F3                     ** function [9] definition (level 2)
                         ** start of function **
10F3  00                 string size (0)
                         source name: (none)
10F5  01                 line defined (180)
10F6  D2                 last line defined (210)
10F7  01                 nups (2)
10F8  02                 numparams (1)
10F9  01                 is_vararg (0)
10FA  00                 maxstacksize (8)
                         * code:
10FC  3F                 sizecode (63)
10FD  64004000           [01] self       1   0   256  ; 129677183
1101  62800001           [02] call       1   2   2  
1105  9D400000           [03] getglobal  2   1        ; 1074689893
1109  D2008000           [04] move       3   1      
110D  A2800001           [05] call       2   2   2  
1111  98000000           [06] test       2       0    ; to [8] if true
1115  1AC00080           [07] jmp        4            ; to [12]
1119  9D800000           [08] getglobal  2   2        ; -1817107093
111D  D9C00000           [09] loadk      3   3        ; "Failed to find twin deco creator!"
1121  A2400001           [10] call       2   2   1  
1125  1E008000           [11] return     0   1      
1129  9D000100           [12] getglobal  2   4        ; 538022378
112D  D9400100           [13] loadk      3   5        ; 0
1131  A2400001           [14] call       2   2   1  
1135  9D800100           [15] getglobal  2   6        ; gRegion
1139  A4C04101           [16] self       2   2   263  ; -1110225722
113D  1D010200           [17] getglobal  4   8        ; twinDecoType
1141  64414200           [18] self       5   0   265  ; 1839670529
1145  62810001           [19] call       5   2   2  
1149  A4814200           [20] self       6   0   266  ; -231049143
114D  A2810001           [21] call       6   2   2  
1151  D2018000           [22] move       7   1      
1155  A2800003           [23] call       2   6   2  
1159  D3000000           [24] getupval   3   0      
115D  CEC0C201           [25] gettable   3   3   267  ; -120562262
1161  12010001           [26] move       4   2      
1165  E2400001           [27] call       3   2   1  
1169  DD000300           [28] getglobal  3   12       ; _T
116D  CC808086           [29] settable   3   269 2    ; "twinModDeco"
1171  DD800300           [30] getglobal  3   14       ; twinModDuration
fail op	21
1175  15C08082           [31] concat     0   261 3  
1179  1A800180           [32] jmp        7            ; to [40]
117D  1D010100           [33] getglobal  4   4        ; 538022378
1181  59410100           [34] loadk      5   5        ; 0
1185  22410001           [35] call       4   2   1  
1189  1DC10300           [36] getglobal  4   15       ; 1289681407
118D  22818000           [37] call       4   1   2  
1191  CD008101           [38] sub        3   3   4  
1195  1A80FD7F           [39] jmp        -9           ; to [31]
1199  1D010300           [40] getglobal  4   12       ; _T
119D  0E014402           [41] gettable   4   4   272  ; "modTwin"
11A1  18010000           [42] test       4       0    ; to [44] if true
11A5  1A800080           [43] jmp        3            ; to [47]
11A9  1D010300           [44] getglobal  4   12       ; _T
11AD  0C414488           [45] settable   4   272 273  ; "modTwin" nil
11B1  1E008000           [46] return     0   1      
11B5  24814400           [47] self       4   0   274  ; 766584623
11B9  22410001           [48] call       4   2   1  
11BD  1D410000           [49] getglobal  4   1        ; 1074689893
11C1  52010001           [50] move       5   2      
11C5  22810001           [51] call       4   2   2  
11C9  18410000           [52] test       4       1    ; to [54] if false
11CD  1A800180           [53] jmp        7            ; to [61]
11D1  13018000           [54] getupval   4   1      
11D5  52010000           [55] move       5   0      
11D9  92010001           [56] move       6   2      
11DD  D7018000           [57] loadbool   7   1   0    ; true
11E1  22410002           [58] call       4   4   1  
11E5  1D010300           [59] getglobal  4   12       ; _T
11E9  0C41C486           [60] settable   4   269 273  ; "twinModDeco" nil
11ED  24C14400           [61] self       4   0   275  ; -725453761
11F1  22410001           [62] call       4   2   1  
11F5  1E008000           [63] return     0   1      
                         * constants:
11F9  14                 sizek (20)
11FA  01                 const type 3
11FB  7FB7BA07           const [0]: (129677183)
11FF  01                 const type 3
1200  65770E40           const [1]: (1074689893)
1204  01                 const type 3
1205  6B25B193           const [2]: (-1817107093)
1209  04                 const type 4
120A  22                 string size (34)
120B  4661696C65642074+  "Failed t"
1213  6F2066696E642074+  "o find t"
121B  77696E206465636F+  "win deco"
1223  2063726561746F72+  " creator"
122B  2100               "!\0"
                         const [3]: "Failed to find twin deco creator!"
122D  01                 const type 3
122E  EA911120           const [4]: (538022378)
1232  03                 const type 3
1233  00000000           const [5]: (0)
1237  04                 const type 4
1238  08                 string size (8)
1239  67526567696F6E00   "gRegion\0"
                         const [6]: "gRegion"
1241  01                 const type 3
1242  C64CD3BD           const [7]: (-1110225722)
1246  04                 const type 4
1247  0D                 string size (13)
1248  7477696E4465636F+  "twinDeco"
1250  5479706500         "Type\0"
                         const [8]: "twinDecoType"
1255  01                 const type 3
1256  0125A76D           const [9]: (1839670529)
125A  01                 const type 3
125B  49783AF2           const [10]: (-231049143)
125F  01                 const type 3
1260  AA5DD0F8           const [11]: (-120562262)
1264  04                 const type 4
1265  03                 string size (3)
1266  5F5400             "_T\0"
                         const [12]: "_T"
1269  04                 const type 4
126A  0C                 string size (12)
126B  7477696E4D6F6444+  "twinModD"
1273  65636F00           "eco\0"
                         const [13]: "twinModDeco"
1277  04                 const type 4
1278  10                 string size (16)
1279  7477696E4D6F6444+  "twinModD"
1281  75726174696F6E00   "uration\0"
                         const [14]: "twinModDuration"
1289  01                 const type 3
128A  FFF9DE4C           const [15]: (1289681407)
128E  04                 const type 4
128F  08                 string size (8)
1290  6D6F645477696E00   "modTwin\0"
                         const [16]: "modTwin"
1298  00                 const type 0
                         const [17]: nil
1299  01                 const type 3
129A  2F27B12D           const [18]: (766584623)
129E  01                 const type 3
129F  3F74C2D4           const [19]: (-725453761)
                         * functions:
12A3  00                 sizep (0)
                         * lines:
12A4  3F                 sizelineinfo (63)
                         [pc] (line)
12A5  B5                 [01] (-75)
12A6  00                 [02] (-75)
12A7  00                 [03] (-74)
12A8  00                 [04] (-74)
12A9  B5                 [05] (-74)
12AA  00                 [06] (-74)
12AB  00                 [07] (-74)
12AC  00                 [08] (-73)
12AD  B6                 [09] (-73)
12AE  00                 [10] (-73)
12AF  00                 [11] (-72)
12B0  00                 [12] (-69)
12B1  B6                 [13] (-69)
12B2  00                 [14] (-69)
12B3  00                 [15] (-67)
12B4  00                 [16] (-67)
12B5  B6                 [17] (-67)
12B6  00                 [18] (-67)
12B7  00                 [19] (-67)
12B8  00                 [20] (-67)
12B9  B6                 [21] (-67)
12BA  00                 [22] (-67)
12BB  00                 [23] (-67)
12BC  00                 [24] (-66)
12BD  B6                 [25] (-66)
12BE  00                 [26] (-66)
12BF  00                 [27] (-66)
12C0  00                 [28] (-65)
12C1  B7                 [29] (-65)
12C2  00                 [30] (-63)
12C3  00                 [31] (-62)
12C4  00                 [32] (-62)
12C5  B7                 [33] (-61)
12C6  00                 [34] (-61)
12C7  00                 [35] (-61)
12C8  00                 [36] (-60)
12C9  B7                 [37] (-60)
12CA  00                 [38] (-60)
12CB  00                 [39] (-60)
12CC  00                 [40] (-57)
12CD  B8                 [41] (-57)
12CE  00                 [42] (-57)
12CF  00                 [43] (-57)
12D0  00                 [44] (-56)
12D1  BB                 [45] (-56)
12D2  00                 [46] (-55)
12D3  00                 [47] (-52)
12D4  00                 [48] (-52)
12D5  BB                 [49] (-51)
12D6  00                 [50] (-51)
12D7  00                 [51] (-51)
12D8  00                 [52] (-51)
12D9  BB                 [53] (-51)
12DA  00                 [54] (-50)
12DB  00                 [55] (-50)
12DC  00                 [56] (-50)
12DD  BD                 [57] (-50)
12DE  00                 [58] (-50)
12DF  00                 [59] (-49)
12E0  00                 [60] (-49)
12E1  BD                 [61] (-47)
12E2  00                 [62] (-47)
12E3  00                 [63] (-46)
                         * locals:
13A1  00                 sizelocvars (0)
                         * upvalues:
13A2  00                 sizeupvalues (0)
                         ** end of function **

                         
13A3                     ** function [10] definition (level 2)
                         ** start of function **
13A3  00                 string size (0)
                         source name: (none)
13A5  01                 line defined (212)
13A6  84                 last line defined (260)
13A7  02                 nups (3)
13A8  03                 numparams (2)
13A9  02                 is_vararg (0)
13AA  00                 maxstacksize (14)
                         * code:
13AC  75                 sizecode (117)
13AD  9D000000           [001] getglobal  2   0        ; gRegion
13B1  A4404001           [002] self       2   2   257  ; -1520831144
13B5  A2800001           [003] call       2   2   2  
13B9  98400000           [004] test       2       1    ; to [6] if false
13BD  1A000180           [005] jmp        5            ; to [11]
13C1  A4804000           [006] self       2   0   258  ; -717859730
13C5  A2800001           [007] call       2   2   2  
13C9  98400000           [008] test       2       1    ; to [10] if false
13CD  1A000080           [009] jmp        1            ; to [11]
13D1  1E008000           [010] return     0   1      
13D5  9DC00000           [011] getglobal  2   3        ; 538022378
13D9  D9000100           [012] loadk      3   4        ; 0
13DD  A2400001           [013] call       2   2   1  
13E1  9D400100           [014] getglobal  2   5        ; _T
13E5  8CC04183           [015] settable   2   262 263  ; "modTwin" 1
13E9  9D400100           [016] getglobal  2   5        ; _T
13ED  8E004201           [017] gettable   2   2   264  ; "twinModDeco"
13F1  DD400200           [018] getglobal  3   9        ; 1074689893
13F5  12010001           [019] move       4   2      
13F9  E2800001           [020] call       3   2   2  
13FD  D8000000           [021] test       3       0    ; to [23] if true
1401  1A000280           [022] jmp        9            ; to [32]
1405  DD000000           [023] getglobal  3   0        ; gRegion
1409  E440C001           [024] self       3   3   257  ; -1520831144
140D  E2800001           [025] call       3   2   2  
1411  D8400000           [026] test       3       1    ; to [28] if false
1415  1AC00080           [027] jmp        4            ; to [32]
1419  DD800200           [028] getglobal  3   10       ; -1817107093
141D  19C10200           [029] loadk      4   11       ; "Couldn't find twin to play transmissions on"
1421  E2400001           [030] call       3   2   1  
1425  1E008000           [031] return     0   1      
1429  E400C300           [032] self       3   1   268  ; 129677183
142D  E2800001           [033] call       3   2   2  
1431  1D410200           [034] getglobal  4   9        ; 1074689893
1435  52018001           [035] move       5   3      
1439  22810001           [036] call       4   2   2  
143D  18410000           [037] test       4       1    ; to [39] if false
1441  1AC00280           [038] jmp        12           ; to [51]
1445  2441C301           [039] self       4   3   269  ; -1764426596
1449  22810001           [040] call       4   2   2  
144D  5D410200           [041] getglobal  5   9        ; 1074689893
1451  92010002           [042] move       6   4      
1455  62810001           [043] call       5   2   2  
1459  58410000           [044] test       5       1    ; to [46] if false
145D  1A000180           [045] jmp        5            ; to [51]
1461  64414300           [046] self       5   0   269  ; -1764426596
1465  62810001           [047] call       5   2   2  
fail op	35
1469  63008102           [048] close      1  
146D  1A000080           [049] jmp        1            ; to [51]
1471  1E008000           [050] return     0   1      
1475  53010000           [051] getupval   5   0      
1479  62818000           [052] call       5   1   2  
147D  9D410200           [053] getglobal  6   9        ; 1074689893
1481  D2018002           [054] move       7   5      
1485  A2810001           [055] call       6   2   2  
1489  98410000           [056] test       6       1    ; to [58] if false
148D  1A000680           [057] jmp        25           ; to [83]
1491  9D810300           [058] getglobal  6   14       ; twinOperatorTags
1495  8A010003           [059] len        6   6      
fail op	21
1499  15800182           [060] concat     0   260 6  
149D  1A000580           [061] jmp        21           ; to [83]
14A1  9D410200           [062] getglobal  6   9        ; 1074689893
14A5  D2010001           [063] move       7   2      
14A9  A2810001           [064] call       6   2   2  
14AD  98410000           [065] test       6       1    ; to [67] if false
14B1  1A800480           [066] jmp        19           ; to [86]
14B5  9DC10300           [067] getglobal  6   15       ; math
14B9  8E014403           [068] gettable   6   6   272  ; -2040962569
14BD  D9410400           [069] loadk      7   17       ; 0
14C1  1D820300           [070] getglobal  8   14       ; twinOperatorTags
14C5  0A020004           [071] len        8   8      
14C9  A2818001           [072] call       6   3   2  
14CD  DD810300           [073] getglobal  7   14       ; twinOperatorTags
14D1  CE818103           [074] gettable   7   7   6  
14D5  13028000           [075] getupval   8   1      
14D9  52028002           [076] move       9   5      
14DD  9D820400           [077] getglobal  10  18       ; -1615931716
14E1  D2028003           [078] move       11  7      
14E5  A2820001           [079] call       10  2   2  
14E9  D2020001           [080] move       11  2      
14ED  22420002           [081] call       8   4   1  
14F1  1A800080           [082] jmp        3            ; to [86]
14F5  1D820200           [083] getglobal  8   10       ; -1817107093
14F9  59C20400           [084] loadk      9   19       ; "Num operator/twin tags mismatch"
14FD  22420001           [085] call       8   2   1  
1501  1D420200           [086] getglobal  8   9        ; 1074689893
1505  52020001           [087] move       9   2      
1509  22820001           [088] call       8   2   2  
150D  18420000           [089] test       8       1    ; to [91] if false
1511  1A000180           [090] jmp        5            ; to [96]
1515  13020001           [091] getupval   8   2      
1519  52028000           [092] move       9   1      
151D  92020001           [093] move       10  2      
1521  D7028000           [094] loadbool   11  1   0    ; true
1525  22420002           [095] call       8   4   1  
1529  1D020500           [096] getglobal  8   20       ; twinModAffinityReward
fail op	21
152D  15000282           [097] concat     0   260 8  
1531  1A400380           [098] jmp        14           ; to [113]
1535  1D020000           [099] getglobal  8   0        ; gRegion
1539  24424004           [100] self       8   8   257  ; -1520831144
153D  22820001           [101] call       8   2   2  
1541  18020000           [102] test       8       0    ; to [104] if true
1545  1A000280           [103] jmp        9            ; to [113]
1549  24424500           [104] self       8   0   277  ; -1917464545
154D  22820001           [105] call       8   2   2  
1551  24824504           [106] self       8   8   278  ; -140890631
1555  9D020500           [107] getglobal  10  20       ; twinModAffinityReward
1559  D2020000           [108] move       11  0      
155D  1DC30500           [109] getglobal  12  23       ; -332969190
1561  59030600           [110] loadk      13  24       ; "/Lotus/Language/Menu/Global_XP"
1565  22030001           [111] call       12  2   0  
1569  22420000           [112] call       8   0   1  
156D  1D420100           [113] getglobal  8   5        ; _T
1571  0C424683           [114] settable   8   262 281  ; "modTwin" nil
1575  2482C600           [115] self       8   1   282  ; -725453761
1579  22420001           [116] call       8   2   1  
157D  1E008000           [117] return     0   1      
                         * constants:
1581  1B                 sizek (27)
1582  04                 const type 4
1583  08                 string size (8)
1584  67526567696F6E00   "gRegion\0"
                         const [0]: "gRegion"
158C  01                 const type 3
158D  58F559A5           const [1]: (-1520831144)
1591  01                 const type 3
1592  6E5436D5           const [2]: (-717859730)
1596  01                 const type 3
1597  EA911120           const [3]: (538022378)
159B  03                 const type 3
159C  00000000           const [4]: (0)
15A0  04                 const type 4
15A1  03                 string size (3)
15A2  5F5400             "_T\0"
                         const [5]: "_T"
15A5  04                 const type 4
15A6  08                 string size (8)
15A7  6D6F645477696E00   "modTwin\0"
                         const [6]: "modTwin"
15AF  01                 const type 3
15B0  01000000           const [7]: (1)
15B4  04                 const type 4
15B5  0C                 string size (12)
15B6  7477696E4D6F6444+  "twinModD"
15BE  65636F00           "eco\0"
                         const [8]: "twinModDeco"
15C2  01                 const type 3
15C3  65770E40           const [9]: (1074689893)
15C7  01                 const type 3
15C8  6B25B193           const [10]: (-1817107093)
15CC  04                 const type 4
15CD  2C                 string size (44)
15CE  436F756C646E2774+  "Couldn't"
15D6  2066696E64207477+  " find tw"
15DE  696E20746F20706C+  "in to pl"
15E6  6179207472616E73+  "ay trans"
15EE  6D697373696F6E73+  "missions"
15F6  206F6E00           " on\0"
                         const [11]: "Couldn't find twin to play transmissions on"
15FA  01                 const type 3
15FB  7FB7BA07           const [12]: (129677183)
15FF  01                 const type 3
1600  9CFCD496           const [13]: (-1764426596)
1604  04                 const type 4
1605  11                 string size (17)
1606  7477696E4F706572+  "twinOper"
160E  61746F7254616773+  "atorTags"
1616  00                 "\0"
                         const [14]: "twinOperatorTags"
1617  04                 const type 4
1618  05                 string size (5)
1619  6D61746800         "math\0"
                         const [15]: "math"
161E  01                 const type 3
161F  F7615986           const [16]: (-2040962569)
1623  03                 const type 3
1624  0000803F           const [17]: (0)
1628  01                 const type 3
1629  BCD6AE9F           const [18]: (-1615931716)
162D  04                 const type 4
162E  20                 string size (32)
162F  4E756D206F706572+  "Num oper"
1637  61746F722F747769+  "ator/twi"
163F  6E2074616773206D+  "n tags m"
1647  69736D6174636800   "ismatch\0"
                         const [19]: "Num operator/twin tags mismatch"
164F  04                 const type 4
1650  16                 string size (22)
1651  7477696E4D6F6441+  "twinModA"
1659  6666696E69747952+  "ffinityR"
1661  657761726400       "eward\0"
                         const [20]: "twinModAffinityReward"
1667  01                 const type 3
1668  1FD0B58D           const [21]: (-1917464545)
166C  01                 const type 3
166D  F92D9AF7           const [22]: (-140890631)
1671  01                 const type 3
1672  1A4B27EC           const [23]: (-332969190)
1676  04                 const type 4
1677  1F                 string size (31)
1678  2F4C6F7475732F4C+  "/Lotus/L"
1680  616E67756167652F+  "anguage/"
1688  4D656E752F476C6F+  "Menu/Glo"
1690  62616C5F585000     "bal_XP\0"
                         const [24]: "/Lotus/Language/Menu/Global_XP"
1697  00                 const type 0
                         const [25]: nil
1698  01                 const type 3
1699  3F74C2D4           const [26]: (-725453761)
                         * functions:
169D  00                 sizep (0)
                         * lines:
169E  75                 sizelineinfo (117)
                         [pc] (line)
169F  D5                 [001] (-43)
16A0  00                 [002] (-43)
16A1  00                 [003] (-43)
16A2  00                 [004] (-43)
16A3  D5                 [005] (-43)
16A4  00                 [006] (-43)
16A5  00                 [007] (-43)
16A6  00                 [008] (-43)
16A7  D5                 [009] (-43)
16A8  00                 [010] (-42)
16A9  00                 [011] (-39)
16AA  00                 [012] (-39)
16AB  D5                 [013] (-39)
16AC  00                 [014] (-37)
16AD  00                 [015] (-37)
16AE  00                 [016] (-35)
16AF  D5                 [017] (-35)
16B0  00                 [018] (-33)
16B1  00                 [019] (-33)
16B2  00                 [020] (-33)
16B3  D5                 [021] (-33)
16B4  00                 [022] (-33)
16B5  00                 [023] (-33)
16B6  00                 [024] (-33)
16B7  D5                 [025] (-33)
16B8  00                 [026] (-33)
16B9  00                 [027] (-33)
16BA  00                 [028] (-32)
16BB  D5                 [029] (-32)
16BC  00                 [030] (-32)
16BD  00                 [031] (-31)
16BE  00                 [032] (-28)
16BF  D5                 [033] (-28)
16C0  00                 [034] (-27)
16C1  00                 [035] (-27)
16C2  00                 [036] (-27)
16C3  D6                 [037] (-27)
16C4  00                 [038] (-27)
16C5  00                 [039] (-26)
16C6  00                 [040] (-26)
16C7  D9                 [041] (-25)
16C8  00                 [042] (-25)
16C9  00                 [043] (-25)
16CA  00                 [044] (-25)
16CB  D9                 [045] (-25)
16CC  00                 [046] (-25)
16CD  00                 [047] (-25)
16CE  00                 [048] (-25)
16CF  D9                 [049] (-25)
16D0  00                 [050] (-24)
16D1  00                 [051] (-20)
16D2  00                 [052] (-20)
16D3  DB                 [053] (-18)
16D4  00                 [054] (-18)
16D5  00                 [055] (-18)
16D6  00                 [056] (-18)
16D7  DB                 [057] (-18)
16D8  00                 [058] (-18)
16D9  00                 [059] (-18)
16DA  00                 [060] (-18)
16DB  DD                 [061] (-18)
16DC  00                 [062] (-17)
16DD  00                 [063] (-17)
16DE  00                 [064] (-17)
16DF  DD                 [065] (-17)
16E0  00                 [066] (-17)
16E1  00                 [067] (-16)
16E2  00                 [068] (-16)
16E3  DF                 [069] (-16)
16E4  00                 [070] (-16)
16E5  00                 [071] (-16)
16E6  00                 [072] (-16)
16E7  DF                 [073] (-15)
16E8  00                 [074] (-15)
16E9  00                 [075] (-13)
16EA  00                 [076] (-13)
16EB  DF                 [077] (-13)
16EC  00                 [078] (-13)
16ED  00                 [079] (-13)
16EE  00                 [080] (-13)
16EF  DF                 [081] (-13)
16F0  00                 [082] (-12)
16F1  00                 [083] (-10)
16F2  00                 [084] (-10)
16F3  DF                 [085] (-10)
16F4  00                 [086] (-7)
16F5  00                 [087] (-7)
16F6  00                 [088] (-7)
16F7  DF                 [089] (-7)
16F8  00                 [090] (-7)
16F9  00                 [091] (-6)
16FA  00                 [092] (-6)
16FB  DF                 [093] (-6)
16FC  00                 [094] (-6)
16FD  00                 [095] (-6)
16FE  00                 [096] (-3)
16FF  DF                 [097] (-3)
1700  00                 [098] (-3)
1701  00                 [099] (-3)
1702  00                 [100] (-3)
1703  DF                 [101] (-3)
1704  00                 [102] (-3)
1705  00                 [103] (-3)
1706  00                 [104] (-2)
1707  DF                 [105] (-2)
1708  00                 [106] (-2)
1709  00                 [107] (-2)
170A  00                 [108] (-2)
170B  E0                 [109] (-2)
170C  00                 [110] (-2)
170D  00                 [111] (-2)
170E  00                 [112] (-2)
170F  E0                 [113] (1)
1710  00                 [114] (1)
1711  00                 [115] (3)
1712  00                 [116] (3)
1713  E0                 [117] (4)
                         * locals:
1873  00                 sizelocvars (0)
                         * upvalues:
1874  00                 sizeupvalues (0)
                         ** end of function **

                         
1875                     ** function [11] definition (level 2)
                         ** start of function **
1875  00                 string size (0)
                         source name: (none)
1877  02                 line defined (262)
1878  9C                 last line defined (284)
1879  02                 nups (6)
187A  06                 numparams (2)
187B  02                 is_vararg (0)
187C  00                 maxstacksize (9)
                         * code:
187E  41                 sizecode (65)
187F  93000000           [01] getupval   2   0      
1883  D2008000           [02] move       3   1      
1887  A2800001           [03] call       2   2   2  
188B  DD000000           [04] getglobal  3   0        ; 1074689893
188F  12010001           [05] move       4   2      
1893  E2800001           [06] call       3   2   2  
1897  D8000000           [07] test       3       0    ; to [9] if true
189B  1AC00080           [08] jmp        4            ; to [13]
189F  DD400000           [09] getglobal  3   1        ; -1817107093
18A3  19810000           [10] loadk      4   2        ; "Couldn't find twin to play transmissions on"
18A7  E2400001           [11] call       3   2   1  
18AB  1E008000           [12] return     0   1      
18AF  D3008000           [13] getupval   3   1      
18B3  E2808000           [14] call       3   1   2  
18B7  13010001           [15] getupval   4   2      
18BB  52018001           [16] move       5   3      
18BF  9DC10000           [17] getglobal  6   3        ; -332969190
18C3  D9010100           [18] loadk      7   4        ; "DSacQuestEnd3150VoidEcho"
18C7  A2810001           [19] call       6   2   2  
18CB  D2010001           [20] move       7   2      
18CF  22410002           [21] call       4   4   1  
18D3  13018001           [22] getupval   4   3      
18D7  0E414102           [23] gettable   4   4   261  ; 910246418
18DB  6481C101           [24] self       5   3   262  ; -781703361
18DF  DDC10000           [25] getglobal  7   3        ; -332969190
18E3  19C20100           [26] loadk      8   7        ; "DSacQuestEnd3180OperatorVoice"
18E7  E2010001           [27] call       7   2   0  
18EB  62010000           [28] call       5   0   0  
18EF  22410000           [29] call       4   0   1  
18F3  13010002           [30] getupval   4   4      
18F7  57018000           [31] loadbool   5   1   0    ; true
18FB  22410001           [32] call       4   2   1  
18FF  13010001           [33] getupval   4   2      
1903  52018001           [34] move       5   3      
1907  9DC10000           [35] getglobal  6   3        ; -332969190
190B  D9010200           [36] loadk      7   8        ; "DSacQuestEnd3210VoidEcho"
190F  A2810001           [37] call       6   2   2  
1913  D2010001           [38] move       7   2      
1917  22410002           [39] call       4   4   1  
191B  13018001           [40] getupval   4   3      
191F  0E414102           [41] gettable   4   4   261  ; 910246418
1923  6481C101           [42] self       5   3   262  ; -781703361
1927  DDC10000           [43] getglobal  7   3        ; -332969190
192B  19420200           [44] loadk      8   9        ; "DSacQuestEnd3240OperatorVoice"
192F  E2010001           [45] call       7   2   0  
1933  62010000           [46] call       5   0   0  
1937  22410000           [47] call       4   0   1  
193B  13010002           [48] getupval   4   4      
193F  57018000           [49] loadbool   5   1   0    ; true
1943  22410001           [50] call       4   2   1  
1947  13010001           [51] getupval   4   2      
194B  52018001           [52] move       5   3      
194F  9DC10000           [53] getglobal  6   3        ; -332969190
1953  D9810200           [54] loadk      7   10       ; "DSacQuestEnd3270VoidEcho"
1957  A2810001           [55] call       6   2   2  
195B  D2010001           [56] move       7   2      
195F  22410002           [57] call       4   4   1  
1963  13018002           [58] getupval   4   5      
1967  52018000           [59] move       5   1      
196B  92010001           [60] move       6   2      
196F  22418001           [61] call       4   3   1  
1973  1DC10200           [62] getglobal  4   11       ; -469071827
1977  59010300           [63] loadk      5   12       ; "Sacrifice - A Day Later! -- Complete!"
197B  22410001           [64] call       4   2   1  
197F  1E008000           [65] return     0   1      
                         * constants:
1983  0D                 sizek (13)
1984  01                 const type 3
1985  65770E40           const [0]: (1074689893)
1989  01                 const type 3
198A  6B25B193           const [1]: (-1817107093)
198E  04                 const type 4
198F  2C                 string size (44)
1990  436F756C646E2774+  "Couldn't"
1998  2066696E64207477+  " find tw"
19A0  696E20746F20706C+  "in to pl"
19A8  6179207472616E73+  "ay trans"
19B0  6D697373696F6E73+  "missions"
19B8  206F6E00           " on\0"
                         const [2]: "Couldn't find twin to play transmissions on"
19BC  01                 const type 3
19BD  1A4B27EC           const [3]: (-332969190)
19C1  04                 const type 4
19C2  19                 string size (25)
19C3  4453616351756573+  "DSacQues"
19CB  74456E6433313530+  "tEnd3150"
19D3  566F69644563686F+  "VoidEcho"
19DB  00                 "\0"
                         const [4]: "DSacQuestEnd3150VoidEcho"
19DC  01                 const type 3
19DD  12424136           const [5]: (910246418)
19E1  01                 const type 3
19E2  3F2768D1           const [6]: (-781703361)
19E6  04                 const type 4
19E7  1E                 string size (30)
19E8  4453616351756573+  "DSacQues"
19F0  74456E6433313830+  "tEnd3180"
19F8  4F70657261746F72+  "Operator"
1A00  566F69636500       "Voice\0"
                         const [7]: "DSacQuestEnd3180OperatorVoice"
1A06  04                 const type 4
1A07  19                 string size (25)
1A08  4453616351756573+  "DSacQues"
1A10  74456E6433323130+  "tEnd3210"
1A18  566F69644563686F+  "VoidEcho"
1A20  00                 "\0"
                         const [8]: "DSacQuestEnd3210VoidEcho"
1A21  04                 const type 4
1A22  1E                 string size (30)
1A23  4453616351756573+  "DSacQues"
1A2B  74456E6433323430+  "tEnd3240"
1A33  4F70657261746F72+  "Operator"
1A3B  566F69636500       "Voice\0"
                         const [9]: "DSacQuestEnd3240OperatorVoice"
1A41  04                 const type 4
1A42  19                 string size (25)
1A43  4453616351756573+  "DSacQues"
1A4B  74456E6433323730+  "tEnd3270"
1A53  566F69644563686F+  "VoidEcho"
1A5B  00                 "\0"
                         const [10]: "DSacQuestEnd3270VoidEcho"
1A5C  01                 const type 3
1A5D  2D880AE4           const [11]: (-469071827)
1A61  04                 const type 4
1A62  26                 string size (38)
1A63  5361637269666963+  "Sacrific"
1A6B  65202D2041204461+  "e - A Da"
1A73  79204C6174657221+  "y Later!"
1A7B  202D2D20436F6D70+  " -- Comp"
1A83  6C6574652100       "lete!\0"
                         const [12]: "Sacrifice - A Day Later! -- Complete!"
                         * functions:
1A89  00                 sizep (0)
                         * lines:
1A8A  41                 sizelineinfo (65)
                         [pc] (line)
1A8B  07                 [01] (7)
1A8C  01                 [02] (7)
1A8D  00                 [03] (7)
1A8E  00                 [04] (9)
1A8F  07                 [05] (9)
1A90  01                 [06] (9)
1A91  00                 [07] (9)
1A92  00                 [08] (9)
1A93  07                 [09] (10)
1A94  01                 [10] (10)
1A95  00                 [11] (10)
1A96  00                 [12] (11)
1A97  09                 [13] (14)
1A98  01                 [14] (14)
1A99  00                 [15] (16)
1A9A  00                 [16] (16)
1A9B  09                 [17] (16)
1A9C  01                 [18] (16)
1A9D  00                 [19] (16)
1A9E  00                 [20] (16)
1A9F  09                 [21] (16)
1AA0  01                 [22] (17)
1AA1  00                 [23] (17)
1AA2  00                 [24] (17)
1AA3  09                 [25] (17)
1AA4  01                 [26] (17)
1AA5  00                 [27] (17)
1AA6  00                 [28] (17)
1AA7  09                 [29] (17)
1AA8  01                 [30] (18)
1AA9  00                 [31] (18)
1AAA  00                 [32] (18)
1AAB  0A                 [33] (19)
1AAC  01                 [34] (19)
1AAD  00                 [35] (19)
1AAE  00                 [36] (19)
1AAF  0A                 [37] (19)
1AB0  01                 [38] (19)
1AB1  00                 [39] (19)
1AB2  00                 [40] (21)
1AB3  0A                 [41] (21)
1AB4  01                 [42] (21)
1AB5  00                 [43] (21)
1AB6  00                 [44] (21)
1AB7  0B                 [45] (21)
1AB8  01                 [46] (21)
1AB9  00                 [47] (21)
1ABA  00                 [48] (22)
1ABB  0E                 [49] (22)
1ABC  01                 [50] (22)
1ABD  00                 [51] (23)
1ABE  00                 [52] (23)
1ABF  0E                 [53] (23)
1AC0  01                 [54] (23)
1AC1  00                 [55] (23)
1AC2  00                 [56] (23)
1AC3  10                 [57] (23)
1AC4  01                 [58] (25)
1AC5  00                 [59] (25)
1AC6  00                 [60] (25)
1AC7  10                 [61] (25)
1AC8  01                 [62] (27)
1AC9  00                 [63] (27)
1ACA  00                 [64] (27)
1ACB  10                 [65] (28)
                         * locals:
1B8F  00                 sizelocvars (0)
                         * upvalues:
1B90  00                 sizeupvalues (0)
                         ** end of function **

                         
1B91                     ** function [12] definition (level 2)
                         ** start of function **
1B91  00                 string size (0)
                         source name: (none)
1B93  02                 line defined (286)
1B94  B4                 last line defined (308)
1B95  02                 nups (0)
1B96  00                 numparams (1)
1B97  01                 is_vararg (0)
1B98  00                 maxstacksize (14)
                         * code:
1B9A  3C                 sizecode (60)
1B9B  64004000           [01] self       1   0   256  ; -1870903749
1B9F  62800001           [02] call       1   2   2  
1BA3  9D400000           [03] getglobal  2   1        ; -1817107093
1BA7  D9800000           [04] loadk      3   2        ; "grabbing twin deco"
1BAB  A2400001           [05] call       2   2   1  
1BAF  9DC00000           [06] getglobal  2   3        ; 1074689893
1BB3  D2008000           [07] move       3   1      
1BB7  A2800001           [08] call       2   2   2  
1BBB  98400000           [09] test       2       1    ; to [11] if false
1BBF  1A000C80           [10] jmp        49           ; to [60]
1BC3  9D400000           [11] getglobal  2   1        ; -1817107093
1BC7  D9000100           [12] loadk      3   4        ; "applying twin anim"
1BCB  A2400001           [13] call       2   2   1  
1BCF  9D400100           [14] getglobal  2   5        ; _T
1BD3  8E804101           [15] gettable   2   2   262  ; "operatorTwinWaypoint"
1BD7  A4C04101           [16] self       2   2   263  ; 1857365798
1BDB  A2800001           [17] call       2   2   2  
1BDF  CB000000           [18] newtable   3   0   0    ; array=0, hash=0
1BE3  19010200           [19] loadk      4   8        ; 0
1BE7  5D410200           [20] getglobal  5   9        ; twinAnimNames
1BEB  4A018002           [21] len        5   5      
1BEF  99010200           [22] loadk      6   8        ; 0
1BF3  10010280           [23] forprep    4   9        ; to [33]
1BF7  1D420200           [24] getglobal  8   9        ; twinAnimNames
1BFB  0EC20104           [25] gettable   8   8   7  
fail op	35
1BFF  23800004           [26] close      0  
1C03  1A000180           [27] jmp        5            ; to [33]
1C07  1D820200           [28] getglobal  8   10       ; table
1C0B  0EC24204           [29] gettable   8   8   267  ; -431682403
1C0F  52028001           [30] move       9   3      
1C13  92028003           [31] move       10  7      
1C17  22428001           [32] call       8   3   1  
1C1B  1441FD7F           [33] forloop    4   -10      ; to [24] if loop
1C1F  1D020300           [34] getglobal  8   12       ; math
1C23  0E424304           [35] gettable   8   8   269  ; -2040962569
1C27  59020200           [36] loadk      9   8        ; 0
1C2B  8A028001           [37] len        10  3      
1C2F  22828001           [38] call       8   3   2  
1C33  0E028201           [39] gettable   8   3   8  
1C37  6482C300           [40] self       9   1   270  ; 1489721288
1C3B  DDC20300           [41] getglobal  11  15       ; twinIdleAnims
1C3F  CE028205           [42] gettable   11  11  8  
1C43  62428001           [43] call       9   3   1  
1C47  5D020400           [44] getglobal  9   16       ; 538022378
1C4B  99420400           [45] loadk      10  17       ; 0
1C4F  62420001           [46] call       9   2   1  
1C53  5D420000           [47] getglobal  9   1        ; -1817107093
1C57  99820400           [48] loadk      10  18       ; "applying twin mat"
1C5B  62420001           [49] call       9   2   1  
1C5F  5DC20000           [50] getglobal  9   3        ; 1074689893
1C63  92028000           [51] move       10  1      
1C67  62820001           [52] call       9   2   2  
1C6B  58420000           [53] test       9       1    ; to [55] if false
1C6F  1A000180           [54] jmp        5            ; to [60]
1C73  64C2C400           [55] self       9   1   275  ; 1728877662
1C77  D9420400           [56] loadk      11  17       ; 0
1C7B  1D030500           [57] getglobal  12  20       ; eyeMaterialOverride
1C7F  57030000           [58] loadbool   13  0   0    ; false
1C83  62428002           [59] call       9   5   1  
1C87  1E008000           [60] return     0   1      
                         * constants:
1C8B  15                 sizek (21)
1C8C  01                 const type 3
1C8D  3B467C90           const [0]: (-1870903749)
1C91  01                 const type 3
1C92  6B25B193           const [1]: (-1817107093)
1C96  04                 const type 4
1C97  13                 string size (19)
1C98  6772616262696E67+  "grabbing"
1CA0  207477696E206465+  " twin de"
1CA8  636F00             "co\0"
                         const [2]: "grabbing twin deco"
1CAB  01                 const type 3
1CAC  65770E40           const [3]: (1074689893)
1CB0  04                 const type 4
1CB1  13                 string size (19)
1CB2  6170706C79696E67+  "applying"
1CBA  207477696E20616E+  " twin an"
1CC2  696D00             "im\0"
                         const [4]: "applying twin anim"
1CC5  04                 const type 4
1CC6  03                 string size (3)
1CC7  5F5400             "_T\0"
                         const [5]: "_T"
1CCA  04                 const type 4
1CCB  15                 string size (21)
1CCC  6F70657261746F72+  "operator"
1CD4  5477696E57617970+  "TwinWayp"
1CDC  6F696E7400         "oint\0"
                         const [6]: "operatorTwinWaypoint"
1CE1  01                 const type 3
1CE2  2627B56E           const [7]: (1857365798)
1CE6  03                 const type 3
1CE7  0000803F           const [8]: (0)
1CEB  04                 const type 4
1CEC  0E                 string size (14)
1CED  7477696E416E696D+  "twinAnim"
1CF5  4E616D657300       "Names\0"
                         const [9]: "twinAnimNames"
1CFB  04                 const type 4
1CFC  06                 string size (6)
1CFD  7461626C6500       "table\0"
                         const [10]: "table"
1D03  01                 const type 3
1D04  9D0C45E6           const [11]: (-431682403)
1D08  04                 const type 4
1D09  05                 string size (5)
1D0A  6D61746800         "math\0"
                         const [12]: "math"
1D0F  01                 const type 3
1D10  F7615986           const [13]: (-2040962569)
1D14  01                 const type 3
1D15  C857CB58           const [14]: (1489721288)
1D19  04                 const type 4
1D1A  0E                 string size (14)
1D1B  7477696E49646C65+  "twinIdle"
1D23  416E696D7300       "Anims\0"
                         const [15]: "twinIdleAnims"
1D29  01                 const type 3
1D2A  EA911120           const [16]: (538022378)
1D2E  03                 const type 3
1D2F  00000000           const [17]: (0)
1D33  04                 const type 4
1D34  12                 string size (18)
1D35  6170706C79696E67+  "applying"
1D3D  207477696E206D61+  " twin ma"
1D45  7400               "t\0"
                         const [18]: "applying twin mat"
1D47  01                 const type 3
1D48  5E940C67           const [19]: (1728877662)
1D4C  04                 const type 4
1D4D  14                 string size (20)
1D4E  6579654D61746572+  "eyeMater"
1D56  69616C4F76657272+  "ialOverr"
1D5E  69646500           "ide\0"
                         const [20]: "eyeMaterialOverride"
                         * functions:
1D62  00                 sizep (0)
                         * lines:
1D63  3C                 sizelineinfo (60)
                         [pc] (line)
1D64  1F                 [01] (31)
1D65  01                 [02] (31)
1D66  00                 [03] (32)
1D67  00                 [04] (32)
1D68  1F                 [05] (32)
1D69  01                 [06] (33)
1D6A  00                 [07] (33)
1D6B  00                 [08] (33)
1D6C  20                 [09] (33)
1D6D  01                 [10] (33)
1D6E  00                 [11] (34)
1D6F  00                 [12] (34)
1D70  20                 [13] (34)
1D71  01                 [14] (35)
1D72  00                 [15] (35)
1D73  00                 [16] (35)
1D74  20                 [17] (35)
1D75  01                 [18] (36)
1D76  00                 [19] (37)
1D77  00                 [20] (37)
1D78  21                 [21] (37)
1D79  01                 [22] (37)
1D7A  00                 [23] (37)
1D7B  00                 [24] (38)
1D7C  21                 [25] (38)
1D7D  01                 [26] (38)
1D7E  00                 [27] (38)
1D7F  00                 [28] (39)
1D80  21                 [29] (39)
1D81  01                 [30] (39)
1D82  00                 [31] (39)
1D83  00                 [32] (39)
1D84  21                 [33] (37)
1D85  01                 [34] (42)
1D86  00                 [35] (42)
1D87  00                 [36] (42)
1D88  21                 [37] (42)
1D89  01                 [38] (42)
1D8A  00                 [39] (42)
1D8B  00                 [40] (43)
1D8C  22                 [41] (43)
1D8D  01                 [42] (43)
1D8E  00                 [43] (43)
1D8F  00                 [44] (45)
1D90  22                 [45] (45)
1D91  01                 [46] (45)
1D92  00                 [47] (47)
1D93  00                 [48] (47)
1D94  22                 [49] (47)
1D95  01                 [50] (48)
1D96  00                 [51] (48)
1D97  00                 [52] (48)
1D98  23                 [53] (48)
1D99  01                 [54] (48)
1D9A  00                 [55] (49)
1D9B  00                 [56] (49)
1D9C  23                 [57] (49)
1D9D  01                 [58] (49)
1D9E  00                 [59] (49)
1D9F  00                 [60] (52)
                         * locals:
1E54  00                 sizelocvars (0)
                         * upvalues:
1E55  00                 sizeupvalues (0)
                         ** end of function **

                         
1E56                     ** function [13] definition (level 2)
                         ** start of function **
1E56  00                 string size (0)
                         source name: (none)
1E58  02                 line defined (310)
1E59  CF                 last line defined (335)
1E5A  02                 nups (1)
1E5B  01                 numparams (1)
1E5C  01                 is_vararg (0)
1E5D  00                 maxstacksize (9)
                         * code:
1E5F  41                 sizecode (65)
1E60  5D000000           [01] getglobal  1   0        ; gRegion
1E64  6440C000           [02] self       1   1   257  ; 925677844
1E68  62800001           [03] call       1   2   2  
1E6C  9D800000           [04] getglobal  2   2        ; 1074689893
1E70  D2008000           [05] move       3   1      
1E74  A2800001           [06] call       2   2   2  
1E78  98000000           [07] test       2       0    ; to [9] if true
1E7C  1AC00180           [08] jmp        8            ; to [17]
1E80  9DC00000           [09] getglobal  2   3        ; 538022378
1E84  D9000100           [10] loadk      3   4        ; 0
1E88  A2400001           [11] call       2   2   1  
1E8C  9D000000           [12] getglobal  2   0        ; gRegion
1E90  A4404001           [13] self       2   2   257  ; 925677844
1E94  A2800001           [14] call       2   2   2  
1E98  52000001           [15] move       1   2      
1E9C  1A80FC7F           [16] jmp        -13          ; to [4]
1EA0  A440C100           [17] self       2   1   261  ; -1888201767
1EA4  A2800001           [18] call       2   2   2  
1EA8  DD800000           [19] getglobal  3   2        ; 1074689893
1EAC  12010001           [20] move       4   2      
1EB0  E2800001           [21] call       3   2   2  
1EB4  D8000000           [22] test       3       0    ; to [24] if true
1EB8  1A800180           [23] jmp        7            ; to [31]
1EBC  DDC00000           [24] getglobal  3   3        ; 538022378
1EC0  19010100           [25] loadk      4   4        ; 0
1EC4  E2400001           [26] call       3   2   1  
1EC8  E440C100           [27] self       3   1   261  ; -1888201767
1ECC  E2800001           [28] call       3   2   2  
1ED0  92008001           [29] move       2   3      
1ED4  1AC0FC7F           [30] jmp        -12          ; to [19]
1ED8  E4804101           [31] self       3   2   262  ; -1284295806
1EDC  E2800001           [32] call       3   2   2  
1EE0  CA008001           [33] len        3   3      
fail op	21
1EE4  15C0C101           [34] concat     0   3   263
1EE8  1AC00080           [35] jmp        4            ; to [40]
1EEC  DDC00000           [36] getglobal  3   3        ; 538022378
1EF0  19010100           [37] loadk      4   4        ; 0
1EF4  E2400001           [38] call       3   2   1  
1EF8  1A80FD7F           [39] jmp        -9           ; to [31]
1EFC  D3000000           [40] getupval   3   0      
1F00  CE00C201           [41] gettable   3   3   264  ; -2141632401
1F04  12010000           [42] move       4   0      
1F08  52010001           [43] move       5   2      
1F0C  E2408001           [44] call       3   3   1  
1F10  E4404200           [45] self       3   0   265  ; -1421644046
1F14  5D810200           [46] getglobal  5   10       ; helmetDecoType
1F18  9DC10200           [47] getglobal  6   11       ; -332969190
1F1C  D9010300           [48] loadk      7   12       ; "GAME_C1_HEAD1"
1F20  A2810001           [49] call       6   2   2  
1F24  DD410300           [50] getglobal  7   13       ; helmetOffset
1F28  1D820300           [51] getglobal  8   14       ; helmetRotation
1F2C  E2400003           [52] call       3   6   1  
1F30  E4C04300           [53] self       3   0   271  ; -1625438872
1F34  5D010400           [54] getglobal  5   16       ; hairType
1F38  E2808001           [55] call       3   3   2  
1F3C  1D810000           [56] getglobal  4   2        ; 1074689893
1F40  52018001           [57] move       5   3      
1F44  22810001           [58] call       4   2   2  
1F48  18410000           [59] test       4       1    ; to [61] if false
1F4C  1AC00080           [60] jmp        4            ; to [65]
1F50  1D010000           [61] getglobal  4   0        ; gRegion
1F54  24414402           [62] self       4   4   273  ; -1693828985
1F58  92018001           [63] move       6   3      
1F5C  22418001           [64] call       4   3   1  
1F60  1E008000           [65] return     0   1      
                         * constants:
1F64  12                 sizek (18)
1F65  04                 const type 4
1F66  08                 string size (8)
1F67  67526567696F6E00   "gRegion\0"
                         const [0]: "gRegion"
1F6F  01                 const type 3
1F70  14B92C37           const [1]: (925677844)
1F74  01                 const type 3
1F75  65770E40           const [2]: (1074689893)
1F79  01                 const type 3
1F7A  EA911120           const [3]: (538022378)
1F7E  03                 const type 3
1F7F  00000000           const [4]: (0)
1F83  01                 const type 3
1F84  D953748F           const [5]: (-1888201767)
1F88  01                 const type 3
1F89  823373B3           const [6]: (-1284295806)
1F8D  03                 const type 3
1F8E  00000040           const [7]: (0)
1F92  01                 const type 3
1F93  6F485980           const [8]: (-2141632401)
1F97  01                 const type 3
1F98  F26E43AB           const [9]: (-1421644046)
1F9C  04                 const type 4
1F9D  0F                 string size (15)
1F9E  68656C6D65744465+  "helmetDe"
1FA6  636F5479706500     "coType\0"
                         const [10]: "helmetDecoType"
1FAD  01                 const type 3
1FAE  1A4B27EC           const [11]: (-332969190)
1FB2  04                 const type 4
1FB3  0E                 string size (14)
1FB4  47414D455F43315F+  "GAME_C1_"
1FBC  484541443100       "HEAD1\0"
                         const [12]: "GAME_C1_HEAD1"
1FC2  04                 const type 4
1FC3  0D                 string size (13)
1FC4  68656C6D65744F66+  "helmetOf"
1FCC  6673657400         "fset\0"
                         const [13]: "helmetOffset"
1FD1  04                 const type 4
1FD2  0F                 string size (15)
1FD3  68656C6D6574526F+  "helmetRo"
1FDB  746174696F6E00     "tation\0"
                         const [14]: "helmetRotation"
1FE2  01                 const type 3
1FE3  68C51D9F           const [15]: (-1625438872)
1FE7  04                 const type 4
1FE8  09                 string size (9)
1FE9  6861697254797065+  "hairType"
1FF1  00                 "\0"
                         const [16]: "hairType"
1FF2  01                 const type 3
1FF3  87380A9B           const [17]: (-1693828985)
                         * functions:
1FF7  00                 sizep (0)
                         * lines:
1FF8  41                 sizelineinfo (65)
                         [pc] (line)
1FF9  37                 [01] (55)
1FFA  01                 [02] (55)
1FFB  00                 [03] (55)
1FFC  00                 [04] (56)
1FFD  37                 [05] (56)
1FFE  01                 [06] (56)
1FFF  00                 [07] (56)
2000  00                 [08] (56)
2001  37                 [09] (57)
2002  01                 [10] (57)
2003  00                 [11] (57)
2004  00                 [12] (58)
2005  38                 [13] (58)
2006  01                 [14] (58)
2007  00                 [15] (58)
2008  00                 [16] (58)
2009  38                 [17] (61)
200A  01                 [18] (61)
200B  00                 [19] (62)
200C  00                 [20] (62)
200D  38                 [21] (62)
200E  01                 [22] (62)
200F  00                 [23] (62)
2010  00                 [24] (63)
2011  38                 [25] (63)
2012  01                 [26] (63)
2013  00                 [27] (64)
2014  00                 [28] (64)
2015  38                 [29] (64)
2016  01                 [30] (64)
2017  00                 [31] (67)
2018  00                 [32] (67)
2019  39                 [33] (67)
201A  01                 [34] (67)
201B  00                 [35] (67)
201C  00                 [36] (68)
201D  39                 [37] (68)
201E  01                 [38] (68)
201F  00                 [39] (68)
2020  00                 [40] (71)
2021  39                 [41] (71)
2022  01                 [42] (71)
2023  00                 [43] (71)
2024  00                 [44] (71)
2025  3A                 [45] (74)
2026  01                 [46] (74)
2027  00                 [47] (74)
2028  00                 [48] (74)
2029  3A                 [49] (74)
202A  01                 [50] (74)
202B  00                 [51] (74)
202C  00                 [52] (74)
202D  3A                 [53] (75)
202E  01                 [54] (75)
202F  00                 [55] (75)
2030  00                 [56] (76)
2031  3A                 [57] (76)
2032  01                 [58] (76)
2033  00                 [59] (76)
2034  00                 [60] (76)
2035  3A                 [61] (77)
2036  01                 [62] (77)
2037  00                 [63] (77)
2038  00                 [64] (77)
2039  3D                 [65] (79)
                         * locals:
20FD  00                 sizelocvars (0)
                         * upvalues:
20FE  00                 sizeupvalues (0)
                         ** end of function **

                         * lines:
20FF  3F                 sizelineinfo (63)
                         [pc] (line)
2100  0F                 [01] (15)
2101  00                 [02] (15)
2102  00                 [03] (15)
2103  00                 [04] (16)
2104  0F                 [05] (16)
2105  00                 [06] (16)
2106  00                 [07] (17)
2107  00                 [08] (17)
2108  0F                 [09] (17)
2109  00                 [10] (18)
210A  00                 [11] (18)
210B  00                 [12] (18)
210C  10                 [13] (32)
210D  00                 [14] (38)
210E  00                 [15] (38)
210F  00                 [16] (52)
2110  10                 [17] (60)
2111  00                 [18] (60)
2112  00                 [19] (98)
2113  00                 [20] (98)
2114  10                 [21] (98)
2115  00                 [22] (98)
2116  00                 [23] (126)
2117  00                 [24] (-116)
2118  11                 [25] (-116)
2119  00                 [26] (-94)
211A  00                 [27] (-94)
211B  00                 [28] (-94)
211C  11                 [29] (-94)
211D  00                 [30] (-94)
211E  00                 [31] (-94)
211F  00                 [32] (-114)
2120  11                 [33] (-78)
2121  00                 [34] (-78)
2122  00                 [35] (-92)
2123  00                 [36] (-46)
2124  12                 [37] (-46)
2125  00                 [38] (-46)
2126  00                 [39] (-46)
2127  00                 [40] (-76)
2128  12                 [41] (4)
2129  00                 [42] (4)
212A  00                 [43] (4)
212B  00                 [44] (4)
212C  12                 [45] (4)
212D  00                 [46] (-44)
212E  00                 [47] (28)
212F  00                 [48] (28)
2130  20                 [49] (28)
2131  00                 [50] (28)
2132  00                 [51] (28)
2133  00                 [52] (28)
2134  26                 [53] (28)
2135  00                 [54] (28)
2136  00                 [55] (6)
2137  00                 [56] (52)
2138  26                 [57] (52)
2139  00                 [58] (30)
213A  00                 [59] (79)
213B  00                 [60] (79)
213C  34                 [61] (79)
213D  00                 [62] (54)
213E  00                 [63] (79)
                         * locals:
21FC  00                 sizelocvars (0)
                         * upvalues:
21FD  00                 sizeupvalues (0)
                         ** end of function **

21FE                     ** end of chunk **
