1	C:\wlua_dump\path\Lotus\ScriptsRiotMoaHack.lua
Pos   Hex Data           Description or Code
------------------------------------------------------------------------
0000                     ** source chunk: C:\wlua_dump\path\Lotus\ScriptsRiotMoaHack.lua
                         ** global header start **
0000  7F                 header signature: ""
0001  00                 version (major:minor hex digits)
0002  00                 format (0=official)
0003  00                 endianness (1=little endian)
0004  00                 size of int (bytes)
0005  00                 size of size_t (bytes)
0006  02                 size of Instruction (bytes)
0007  0A                 size of number (bytes)
0008  3A                 integral (1=integral)
458
                         * number type: single
                         * x86 standard (32-bit, little endian, doubles)
                         ** global header end **
AmbulasEvent
BursaHack
/Lotus/Types/Enemies/Corpus/Vip/Ambulas/AmbulasPackAgent
UnlitAtten
Lotus.Scripts.Libs.TransmissionSet
Lotus.Interface.LotusUtilities
AssumeDirectControl
DelayedDeath
AssumeDirectControlPreDeath
AmbulasDataFragmentDrop
AmbulasPreDeathHack
AmbulasPreDeathFxChecker
RangedHackFx
RangedHackFxBeamOrient
_T
InSimulacrum
AmbulasEventActive
gPlayerProfileMgr
mGoals
Engine
mActivation
mExpiry
mTag
Engine
baseAmount
damageOnFail
DT_ELECTRICITY
Game
PT_MAGNETIZED
TORSO
gRegion
PM_MENACE
hackedFx
EMPTY_SYMBOL
ZERO_VECTOR
ZERO_ROTATION
successDamageToMoaPct
postHackedAnim
ATMM_PHYSICS_DRIVEN
PRT_ONCE
eventScriptTrigger
Execute
gRegion
hackedLiveTime
hackedNoTargetSuicideTime
gRiotBipedRobotAvatarType
Ambulas is not killed from KillFromHack! Resorting to Suicide().
gRegion
Engine
baseAmount
damageOnFail
DT_ELECTRICITY
Game
PT_MAGNETIZED
TORSO
damageOnFail
gRegion
Engine
PM_MENACE
hackedFx
EMPTY_SYMBOL
ZERO_VECTOR
ZERO_ROTATION
gRiotBipedRobotAvatarType
_T
InSimulacrum
hackMessageLocTag
DelayedDeath
gRegion
ambulasDataFragmentType
_T
InSimulacrum
gGameRules
gLotusPhotoBoothGameRulesType
gBaseAvatarType
gPickUpType
gRagdollType
gHitProxyType
hackedFx
EMPTY_SYMBOL
ZERO_VECTOR
ZERO_ROTATION
ambulasHackedMarkerInfo
ambulasBossMarkerInfo
damageOnFail
hackedFx
gGameRules
vipAgent
gRegion
Engine
PM_MENACE
ambulasHackActionType
ambulasHackKeepPlayerNpcUse
ambulasHackedMarkerInfo
ambulasBossMarkerInfo
ambulasUnHackImpactMessageLocTag
_T
ambulasEventTransmissionSet
AmbulasHackOrders
AmbulasBossHacked
ERROR: Player hacked an Osprey-only hack! This might have consequences...
ambulasPlayerHackMaterial
ambulasHackPanelDecoType
gRiotBipedRobotAvatarType
InSimulacrum
hackMessageLocTag
EMPTY_SYMBOL
ZERO_VECTOR
ZERO_ROTATION
AmbulasHacked
DelayedDeath
gRegion
ambulasHackActionType
ambulasNpcOnlyHackActionType
StartReboot
ambulasRangedHackBeam
ambulasHackAction
ambulasRangedHackBeamMoaBone
ZERO_VECTOR
ZERO_ROTATION
ambulasRangedHackBeamAttachBone
gRegion
ambulasHackAction
                         
0001                     ** function [0] definition (level 1)
                         ** start of function **
0001  00                 string size (0)
                         source name: (none)
0002  00                 line defined (0)
0003  00                 last line defined (0)
0004  00                 nups (0)
0005  00                 numparams (0)
0006  02                 is_vararg (2)
0007  0A                 maxstacksize (10)
                         * code:
0008  3A                 sizecode (58)
0009  1D000000           [01] getglobal  0   0        ; -332969190
000D  59400000           [02] loadk      1   1        ; "AmbulasEvent"
0011  22800001           [03] call       0   2   2  
0015  5D000000           [04] getglobal  1   0        ; -332969190
0019  99800000           [05] loadk      2   2        ; "BursaHack"
001D  62800001           [06] call       1   2   2  
0021  9DC00000           [07] getglobal  2   3        ; -895206725
0025  D9000100           [08] loadk      3   4        ; "/Lotus/Types/Enemies/Corpus/Vip/Ambulas/AmbulasPackAgent"
0029  A2800001           [09] call       2   2   2  
002D  DD000000           [10] getglobal  3   0        ; -332969190
0031  19410100           [11] loadk      4   5        ; "UnlitAtten"
0035  E2800001           [12] call       3   2   2  
0039  1D810100           [13] getglobal  4   6        ; 849075268
003D  59C10100           [14] loadk      5   7        ; "Lotus.Scripts.Libs.TransmissionSet"
0041  22810001           [15] call       4   2   2  
0045  5D810100           [16] getglobal  5   6        ; 849075268
0049  99010200           [17] loadk      6   8        ; "Lotus.Interface.LotusUtilities"
004D  62810001           [18] call       5   2   2  
0051  A5010000           [19] closure    6   0      
0055  12000000           [20] move       0   0      
0059  E5410000           [21] closure    7   1      
005D  E0410200           [22] setglobal  7   9        ; AssumeDirectControl
0061  E0810200           [23] setglobal  7   10       ; -150169961
0065  E5810000           [24] closure    7   2      
0069  E0C10200           [25] setglobal  7   11       ; DelayedDeath
006D  E0010300           [26] setglobal  7   12       ; 458147752
0071  E5C10000           [27] closure    7   3      
0075  25020100           [28] closure    8   4      
0079  12008003           [29] move       0   7      
007D  12008000           [30] move       0   1      
0081  20420300           [31] setglobal  8   13       ; AssumeDirectControlPreDeath
0085  20820300           [32] setglobal  8   14       ; 696760676
0089  25420100           [33] closure    8   5      
008D  20C20300           [34] setglobal  8   15       ; AmbulasDataFragmentDrop
0091  20020400           [35] setglobal  8   16       ; 730974123
0095  25820100           [36] closure    8   6      
0099  65C20100           [37] closure    9   7      
009D  12008003           [38] move       0   7      
00A1  12000001           [39] move       0   2      
00A5  12000004           [40] move       0   8      
00A9  12008002           [41] move       0   5      
00AD  12000002           [42] move       0   4      
00B1  12008000           [43] move       0   1      
00B5  12000003           [44] move       0   6      
00B9  60420400           [45] setglobal  9   17       ; AmbulasPreDeathHack
00BD  60820400           [46] setglobal  9   18       ; 1992144948
00C1  65020200           [47] closure    9   8      
00C5  12000004           [48] move       0   8      
00C9  60C20400           [49] setglobal  9   19       ; AmbulasPreDeathFxChecker
00CD  60020500           [50] setglobal  9   20       ; 94666978
00D1  65420200           [51] closure    9   9      
00D5  60420500           [52] setglobal  9   21       ; RangedHackFx
00D9  60820500           [53] setglobal  9   22       ; 35723948
00DD  65820200           [54] closure    9   10     
00E1  12008001           [55] move       0   3      
00E5  60C20500           [56] setglobal  9   23       ; RangedHackFxBeamOrient
00E9  60020600           [57] setglobal  9   24       ; -1855994543
00ED  1E008000           [58] return     0   1      
                         * constants:
00F1  19                 sizek (25)
00F2  01                 const type 3
00F3  1A4B27EC           const [0]: (-332969190)
00F7  04                 const type 4
00F8  0D                 string size (13)
00F9  416D62756C617345+  "AmbulasE"
0101  76656E7400         "vent\0"
                         const [1]: "AmbulasEvent"
0106  04                 const type 4
0107  0A                 string size (10)
0108  4275727361486163+  "BursaHac"
0110  6B00               "k\0"
                         const [2]: "BursaHack"
0112  01                 const type 3
0113  BB3AA4CA           const [3]: (-895206725)
0117  04                 const type 4
0118  39                 string size (57)
0119  2F4C6F7475732F54+  "/Lotus/T"
0121  797065732F456E65+  "ypes/Ene"
0129  6D6965732F436F72+  "mies/Cor"
0131  7075732F5669702F+  "pus/Vip/"
0139  416D62756C61732F+  "Ambulas/"
0141  416D62756C617350+  "AmbulasP"
0149  61636B4167656E74+  "ackAgent"
0151  00                 "\0"
                         const [4]: "/Lotus/Types/Enemies/Corpus/Vip/Ambulas/AmbulasPackAgent"
0152  04                 const type 4
0153  0B                 string size (11)
0154  556E6C6974417474+  "UnlitAtt"
015C  656E00             "en\0"
                         const [5]: "UnlitAtten"
015F  01                 const type 3
0160  44DC9B32           const [6]: (849075268)
0164  04                 const type 4
0165  23                 string size (35)
0166  4C6F7475732E5363+  "Lotus.Sc"
016E  72697074732E4C69+  "ripts.Li"
0176  62732E5472616E73+  "bs.Trans"
017E  6D697373696F6E53+  "missionS"
0186  657400             "et\0"
                         const [7]: "Lotus.Scripts.Libs.TransmissionSet"
0189  04                 const type 4
018A  1F                 string size (31)
018B  4C6F7475732E496E+  "Lotus.In"
0193  746572666163652E+  "terface."
019B  4C6F747573557469+  "LotusUti"
01A3  6C697469657300     "lities\0"
                         const [8]: "Lotus.Interface.LotusUtilities"
01AA  04                 const type 4
01AB  14                 string size (20)
01AC  417373756D654469+  "AssumeDi"
01B4  72656374436F6E74+  "rectCont"
01BC  726F6C00           "rol\0"
                         const [9]: "AssumeDirectControl"
01C0  01                 const type 3
01C1  97960CF7           const [10]: (-150169961)
01C5  04                 const type 4
01C6  0D                 string size (13)
01C7  44656C6179656444+  "DelayedD"
01CF  6561746800         "eath\0"
                         const [11]: "DelayedDeath"
01D4  01                 const type 3
01D5  A8C74E1B           const [12]: (458147752)
01D9  04                 const type 4
01DA  1C                 string size (28)
01DB  417373756D654469+  "AssumeDi"
01E3  72656374436F6E74+  "rectCont"
01EB  726F6C5072654465+  "rolPreDe"
01F3  61746800           "ath\0"
                         const [13]: "AssumeDirectControlPreDeath"
01F7  01                 const type 3
01F8  64B98729           const [14]: (696760676)
01FC  04                 const type 4
01FD  18                 string size (24)
01FE  416D62756C617344+  "AmbulasD"
0206  617461467261676D+  "ataFragm"
020E  656E7444726F7000   "entDrop\0"
                         const [15]: "AmbulasDataFragmentDrop"
0216  01                 const type 3
0217  ABC7912B           const [16]: (730974123)
021B  04                 const type 4
021C  14                 string size (20)
021D  416D62756C617350+  "AmbulasP"
0225  7265446561746848+  "reDeathH"
022D  61636B00           "ack\0"
                         const [17]: "AmbulasPreDeathHack"
0231  01                 const type 3
0232  34B8BD76           const [18]: (1992144948)
0236  04                 const type 4
0237  19                 string size (25)
0238  416D62756C617350+  "AmbulasP"
0240  7265446561746846+  "reDeathF"
0248  78436865636B6572+  "xChecker"
0250  00                 "\0"
                         const [19]: "AmbulasPreDeathFxChecker"
0251  01                 const type 3
0252  E280A405           const [20]: (94666978)
0256  04                 const type 4
0257  0D                 string size (13)
0258  52616E6765644861+  "RangedHa"
0260  636B467800         "ckFx\0"
                         const [21]: "RangedHackFx"
0265  01                 const type 3
0266  AC1A2102           const [22]: (35723948)
026A  04                 const type 4
026B  17                 string size (23)
026C  52616E6765644861+  "RangedHa"
0274  636B46784265616D+  "ckFxBeam"
027C  4F7269656E7400     "Orient\0"
                         const [23]: "RangedHackFxBeamOrient"
0283  01                 const type 3
0284  51C55F91           const [24]: (-1855994543)
                         * functions:
0288  0B                 sizep (11)
                         
0289                     ** function [0] definition (level 2)
                         ** start of function **
0289  00                 string size (0)
                         source name: (none)
028A  23                 line defined (35)
028B  39                 last line defined (57)
028C  01                 nups (1)
028D  00                 numparams (0)
028E  00                 is_vararg (0)
028F  09                 maxstacksize (9)
                         * code:
0290  3D                 sizecode (61)
0291  1D000000           [01] getglobal  0   0        ; _T
0295  0E404000           [02] gettable   0   0   257  ; "InSimulacrum"
0299  18000000           [03] test       0       0    ; to [5] if true
029D  1A400080           [04] jmp        2            ; to [7]
02A1  17000000           [05] loadbool   0   0   0    ; false
02A5  1E000001           [06] return     0   2      
02A9  1D800000           [07] getglobal  0   2        ; 1074689893
02AD  5D000000           [08] getglobal  1   0        ; _T
02B1  4EC0C000           [09] gettable   1   1   259  ; "AmbulasEventActive"
02B5  22800001           [10] call       0   2   2  
02B9  18400000           [11] test       0       1    ; to [13] if false
02BD  1A800080           [12] jmp        3            ; to [16]
02C1  1D000000           [13] getglobal  0   0        ; _T
02C5  0EC04000           [14] gettable   0   0   259  ; "AmbulasEventActive"
02C9  1E000001           [15] return     0   2      
02CD  1D000100           [16] getglobal  0   4        ; gPlayerProfileMgr
02D1  24404100           [17] self       0   0   261  ; 569342746
02D5  99800100           [18] loadk      2   6        ; 0
02D9  22808001           [19] call       0   3   2  
02DD  24C04100           [20] self       0   0   263  ; 1699680402
02E1  22800001           [21] call       0   2   2  
02E5  5D800000           [22] getglobal  1   2        ; 1074689893
02E9  92000000           [23] move       2   0      
02ED  62800001           [24] call       1   2   2  
02F1  58400000           [25] test       1       1    ; to [27] if false
02F5  1A000780           [26] jmp        29           ; to [56]
02F9  64004200           [27] self       1   0   264  ; 755731078
02FD  62800001           [28] call       1   2   2  
0301  9D400200           [29] getglobal  2   9        ; 1672515847
0305  CE80C200           [30] gettable   3   1   266  ; "mGoals"
0309  A2000101           [31] call       2   2   4  
030D  1A000580           [32] jmp        21           ; to [54]
0311  DDC10200           [33] getglobal  7   11       ; Engine
0315  CE01C303           [34] gettable   7   7   268  ; -794986224
0319  0E424303           [35] gettable   8   6   269  ; "mActivation"
031D  E2810001           [36] call       7   2   2  
fail op	21
0321  1580C103           [37] concat     0   7   262
0325  1A800380           [38] jmp        15           ; to [54]
0329  DDC10200           [39] getglobal  7   11       ; Engine
032D  CE01C303           [40] gettable   7   7   268  ; -794986224
0331  0E824303           [41] gettable   8   6   270  ; "mExpiry"
0335  E2810001           [42] call       7   2   2  
fail op	21
0339  15C00183           [43] concat     0   262 7  
033D  1A000280           [44] jmp        9            ; to [54]
0341  CEC14303           [45] gettable   7   6   271  ; "mTag"
0345  13020000           [46] getupval   8   0      
fail op	35
0349  23008203           [47] close      0  
034D  1A000180           [48] jmp        5            ; to [54]
0351  DD010000           [49] getglobal  7   0        ; _T
0355  CC01C481           [50] settable   7   259 272  ; "AmbulasEventActive" 1
0359  DD010000           [51] getglobal  7   0        ; _T
035D  CEC1C003           [52] gettable   7   7   259  ; "AmbulasEventActive"
0361  DE010001           [53] return     7   2      
0365  96800000           [54] tforloop   2       2    ; to [56] if exit
0369  1A00FA7F           [55] jmp        -23          ; to [33]
036D  DD010000           [56] getglobal  7   0        ; _T
0371  CC41C481           [57] settable   7   259 273  ; "AmbulasEventActive" 0
0375  DD010000           [58] getglobal  7   0        ; _T
0379  CEC1C003           [59] gettable   7   7   259  ; "AmbulasEventActive"
037D  DE010001           [60] return     7   2      
0381  1E008000           [61] return     0   1      
                         * constants:
0385  12                 sizek (18)
0386  04                 const type 4
0387  03                 string size (3)
0388  5F5400             "_T\0"
                         const [0]: "_T"
038B  04                 const type 4
038C  0D                 string size (13)
038D  496E53696D756C61+  "InSimula"
0395  6372756D00         "crum\0"
                         const [1]: "InSimulacrum"
039A  01                 const type 3
039B  65770E40           const [2]: (1074689893)
039F  04                 const type 4
03A0  13                 string size (19)
03A1  416D62756C617345+  "AmbulasE"
03A9  76656E7441637469+  "ventActi"
03B1  766500             "ve\0"
                         const [3]: "AmbulasEventActive"
03B4  04                 const type 4
03B5  12                 string size (18)
03B6  67506C6179657250+  "gPlayerP"
03BE  726F66696C654D67+  "rofileMg"
03C6  7200               "r\0"
                         const [4]: "gPlayerProfileMgr"
03C8  01                 const type 3
03C9  1A7BEF21           const [5]: (569342746)
03CD  03                 const type 3
03CE  00000000           const [6]: (0)
03D2  01                 const type 3
03D3  92104F65           const [7]: (1699680402)
03D7  01                 const type 3
03D8  868A0B2D           const [8]: (755731078)
03DC  01                 const type 3
03DD  0791B063           const [9]: (1672515847)
03E1  04                 const type 4
03E2  07                 string size (7)
03E3  6D476F616C7300     "mGoals\0"
                         const [10]: "mGoals"
03EA  04                 const type 4
03EB  07                 string size (7)
03EC  456E67696E6500     "Engine\0"
                         const [11]: "Engine"
03F3  01                 const type 3
03F4  10799DD0           const [12]: (-794986224)
03F8  04                 const type 4
03F9  0C                 string size (12)
03FA  6D41637469766174+  "mActivat"
0402  696F6E00           "ion\0"
                         const [13]: "mActivation"
0406  04                 const type 4
0407  08                 string size (8)
0408  6D45787069727900   "mExpiry\0"
                         const [14]: "mExpiry"
0410  04                 const type 4
0411  05                 string size (5)
0412  6D54616700         "mTag\0"
                         const [15]: "mTag"
0417  01                 const type 3
0418  01000000           const [16]: (1)
041C  01                 const type 3
041D  00000000           const [17]: (0)
                         * functions:
0421  00                 sizep (0)
                         * lines:
0422  3D                 sizelineinfo (61)
                         [pc] (line)
0423  24                 [01] (36)
0424  00                 [02] (36)
0425  00                 [03] (36)
0426  00                 [04] (36)
0427  24                 [05] (37)
0428  00                 [06] (37)
0429  00                 [07] (40)
042A  00                 [08] (40)
042B  24                 [09] (40)
042C  00                 [10] (40)
042D  00                 [11] (40)
042E  00                 [12] (40)
042F  24                 [13] (41)
0430  00                 [14] (41)
0431  00                 [15] (41)
0432  00                 [16] (44)
0433  25                 [17] (44)
0434  00                 [18] (44)
0435  00                 [19] (44)
0436  00                 [20] (44)
0437  25                 [21] (44)
0438  00                 [22] (45)
0439  00                 [23] (45)
043A  00                 [24] (45)
043B  28                 [25] (45)
043C  00                 [26] (45)
043D  00                 [27] (46)
043E  00                 [28] (46)
043F  28                 [29] (47)
0440  00                 [30] (47)
0441  00                 [31] (47)
0442  00                 [32] (47)
0443  28                 [33] (48)
0444  00                 [34] (48)
0445  00                 [35] (48)
0446  00                 [36] (48)
0447  28                 [37] (48)
0448  00                 [38] (48)
0449  00                 [39] (48)
044A  00                 [40] (48)
044B  28                 [41] (48)
044C  00                 [42] (48)
044D  00                 [43] (48)
044E  00                 [44] (48)
044F  28                 [45] (48)
0450  00                 [46] (48)
0451  00                 [47] (48)
0452  00                 [48] (48)
0453  29                 [49] (49)
0454  00                 [50] (49)
0455  00                 [51] (50)
0456  00                 [52] (50)
0457  29                 [53] (50)
0458  00                 [54] (47)
0459  00                 [55] (51)
045A  00                 [56] (55)
045B  29                 [57] (55)
045C  00                 [58] (56)
045D  00                 [59] (56)
045E  00                 [60] (56)
045F  2C                 [61] (57)
                         * locals:
0517  00                 sizelocvars (0)
                         * upvalues:
0518  00                 sizeupvalues (0)
                         ** end of function **

                         
0519                     ** function [1] definition (level 2)
                         ** start of function **
0519  00                 string size (0)
                         source name: (none)
051A  3B                 line defined (59)
051B  68                 last line defined (104)
051C  00                 nups (0)
051D  03                 numparams (3)
051E  00                 is_vararg (0)
051F  0E                 maxstacksize (14)
                         * code:
0520  7F                 sizecode (127)
0521  E4004001           [001] self       3   2   256  ; -1870903749
0525  E2800001           [002] call       3   2   2  
0529  1D410000           [003] getglobal  4   1        ; 1074689893
052D  52018001           [004] move       5   3      
0531  22810001           [005] call       4   2   2  
0535  18410000           [006] test       4       1    ; to [8] if false
0539  1A000380           [007] jmp        13           ; to [21]
053D  2481C001           [008] self       4   3   258  ; 1511086594
0541  22810001           [009] call       4   2   2  
0545  18410000           [010] test       4       1    ; to [12] if false
0549  1A000280           [011] jmp        9            ; to [21]
054D  1D410000           [012] getglobal  4   1        ; 1074689893
0551  52010000           [013] move       5   0      
0555  22810001           [014] call       4   2   2  
0559  18410000           [015] test       4       1    ; to [17] if false
055D  1AC00080           [016] jmp        4            ; to [21]
0561  24814000           [017] self       4   0   258  ; 1511086594
0565  22810001           [018] call       4   2   2  
0569  18010000           [019] test       4       0    ; to [21] if true
056D  1A800080           [020] jmp        3            ; to [24]
0571  24C14001           [021] self       4   2   259  ; 766584623
0575  22410001           [022] call       4   2   1  
0579  1E008000           [023] return     0   1      
fail op	33
057D  2100C100           [024] tforloop   0       260  ; to [26] if exit
0581  1A400780           [025] jmp        30           ; to [56]
0585  2441C101           [026] self       4   3   261  ; 757002394
0589  22810001           [027] call       4   2   2  
058D  64414100           [028] self       5   0   261  ; 757002394
0591  62810001           [029] call       5   2   2  
fail op	35
0595  63400102           [030] close      1  
0599  1A000080           [031] jmp        1            ; to [33]
059D  1E008000           [032] return     0   1      
05A1  1D810100           [033] getglobal  4   6        ; Engine
05A5  0EC14102           [034] gettable   4   4   263  ; -98643418
05A9  22818000           [035] call       4   1   2  
05AD  5D410200           [036] getglobal  5   9        ; damageOnFail
05B1  0C410184           [037] settable   4   264 5    ; "baseAmount"
05B5  64814202           [038] self       5   4   266  ; -995861768
05B9  DD810100           [039] getglobal  7   6        ; Engine
05BD  CEC1C203           [040] gettable   7   7   267  ; "DT_ELECTRICITY"
05C1  19020300           [041] loadk      8   12       ; 0
05C5  62410002           [042] call       5   4   1  
05C9  64414302           [043] self       5   4   269  ; 1398603399
05CD  DD810300           [044] getglobal  7   14       ; Game
05D1  CEC1C303           [045] gettable   7   7   271  ; "PT_MAGNETIZED"
05D5  17028000           [046] loadbool   8   1   0    ; true
05D9  62410002           [047] call       5   4   1  
05DD  64014402           [048] self       5   4   272  ; -793712901
05E1  DD810100           [049] getglobal  7   6        ; Engine
05E5  CE41C403           [050] gettable   7   7   273  ; "TORSO"
05E9  62418001           [051] call       5   3   1  
05ED  64814400           [052] self       5   0   274  ; 1193457265
05F1  D2010002           [053] move       7   4      
05F5  62418001           [054] call       5   3   1  
05F9  1E008000           [055] return     0   1      
05FD  5DC10400           [056] getglobal  5   19       ; gRegion
0601  6401C502           [057] self       5   5   276  ; -1520831144
0605  62810001           [058] call       5   2   2  
0609  58010000           [059] test       5       0    ; to [61] if true
060D  1A401080           [060] jmp        66           ; to [127]
0611  6441C501           [061] self       5   3   277  ; -452063099
0615  DD810100           [062] getglobal  7   6        ; Engine
0619  CE81C503           [063] gettable   7   7   278  ; "PM_MENACE"
061D  17028000           [064] loadbool   8   1   0    ; true
0621  62410002           [065] call       5   4   1  
0625  64C1C501           [066] self       5   3   279  ; -1625438872
0629  DD010600           [067] getglobal  7   24       ; hackedFx
062D  62818001           [068] call       5   3   2  
0631  9D410000           [069] getglobal  6   1        ; 1074689893
0635  D2018002           [070] move       7   5      
0639  A2810001           [071] call       6   2   2  
063D  98410000           [072] test       6       1    ; to [74] if false
0641  1A400080           [073] jmp        2            ; to [76]
0645  A441C602           [074] self       6   5   281  ; -725453761
0649  A2410001           [075] call       6   2   1  
064D  A481C601           [076] self       6   3   282  ; -1421644046
0651  1D020600           [077] getglobal  8   24       ; hackedFx
0655  5DC20600           [078] getglobal  9   27       ; EMPTY_SYMBOL
0659  9D020700           [079] getglobal  10  28       ; ZERO_VECTOR
065D  DD420700           [080] getglobal  11  29       ; ZERO_ROTATION
0661  12030000           [081] move       12  0      
0665  A2418003           [082] call       6   7   1  
0669  A4C14001           [083] self       6   2   259  ; 766584623
066D  A2410001           [084] call       6   2   1  
0671  A481C701           [085] self       6   3   286  ; 796523475
0675  A2810001           [086] call       6   2   2  
0679  E4C1C701           [087] self       7   3   287  ; 945541886
067D  E2810001           [088] call       7   2   2  
0681  9CC10103           [089] div        6   6   7  
0685  DD010800           [090] getglobal  7   32       ; successDamageToMoaPct
fail op	21
0689  15808103           [091] concat     0   7   6  
068D  1A400180           [092] jmp        6            ; to [99]
0691  E441C801           [093] self       7   3   289  ; 1992436207
0695  64C2C701           [094] self       9   3   287  ; 945541886
0699  62820001           [095] call       9   2   2  
069D  9D020800           [096] getglobal  10  32       ; successDamageToMoaPct
06A1  44828204           [097] mul        9   9   10 
06A5  E2418001           [098] call       7   3   1  
06A9  E481C801           [099] self       7   3   290  ; -1544157541
06AD  E2810001           [100] call       7   2   2  
06B1  E4C1C803           [101] self       7   7   291  ; -1992773175
06B5  59020100           [102] loadk      9   4        ; 0
06B9  E2418001           [103] call       7   3   1  
06BD  E481C801           [104] self       7   3   290  ; -1544157541
06C1  E2810001           [105] call       7   2   2  
06C5  E401C903           [106] self       7   7   292  ; -1814078075
06C9  59020100           [107] loadk      9   4        ; 0
06CD  E2418001           [108] call       7   3   1  
06D1  E441C901           [109] self       7   3   293  ; -2037488534
06D5  5D820900           [110] getglobal  9   38       ; postHackedAnim
06D9  97028000           [111] loadbool   10  1   0    ; true
06DD  DD820100           [112] getglobal  11  6        ; Engine
06E1  CEC2C905           [113] gettable   11  11  295  ; "ATMM_PHYSICS_DRIVEN"
06E5  1D830100           [114] getglobal  12  6        ; Engine
06E9  0E034A06           [115] gettable   12  12  296  ; "PRT_ONCE"
06ED  57038000           [116] loadbool   13  1   0    ; true
06F1  E2418003           [117] call       7   7   1  
06F5  DDC10400           [118] getglobal  7   19       ; gRegion
06F9  E441CA03           [119] self       7   7   297  ; -1110225722
06FD  5D820A00           [120] getglobal  9   42       ; eventScriptTrigger
0701  9D020700           [121] getglobal  10  28       ; ZERO_VECTOR
0705  DD420700           [122] getglobal  11  29       ; ZERO_ROTATION
0709  E2818002           [123] call       7   5   2  
070D  24C2CA03           [124] self       8   7   299  ; -1923578185
0711  99020B00           [125] loadk      10  44       ; "Execute"
0715  22428001           [126] call       8   3   1  
0719  1E008000           [127] return     0   1      
                         * constants:
071D  2D                 sizek (45)
071E  01                 const type 3
071F  3B467C90           const [0]: (-1870903749)
0723  01                 const type 3
0724  65770E40           const [1]: (1074689893)
0728  01                 const type 3
0729  025A115A           const [2]: (1511086594)
072D  01                 const type 3
072E  2F27B12D           const [3]: (766584623)
0732  03                 const type 3
0733  00000000           const [4]: (0)
0737  01                 const type 3
0738  9AF01E2D           const [5]: (757002394)
073C  04                 const type 4
073D  07                 string size (7)
073E  456E67696E6500     "Engine\0"
                         const [6]: "Engine"
0745  01                 const type 3
0746  26D21EFA           const [7]: (-98643418)
074A  04                 const type 4
074B  0B                 string size (11)
074C  62617365416D6F75+  "baseAmou"
0754  6E7400             "nt\0"
                         const [8]: "baseAmount"
0757  04                 const type 4
0758  0D                 string size (13)
0759  64616D6167654F6E+  "damageOn"
0761  4661696C00         "Fail\0"
                         const [9]: "damageOnFail"
0766  01                 const type 3
0767  F85AA4C4           const [10]: (-995861768)
076B  04                 const type 4
076C  0F                 string size (15)
076D  44545F454C454354+  "DT_ELECT"
0775  52494349545900     "RICITY\0"
                         const [11]: "DT_ELECTRICITY"
077C  03                 const type 3
077D  0000803F           const [12]: (0)
0781  01                 const type 3
0782  87FE5C53           const [13]: (1398603399)
0786  04                 const type 4
0787  05                 string size (5)
0788  47616D6500         "Game\0"
                         const [14]: "Game"
078D  04                 const type 4
078E  0E                 string size (14)
078F  50545F4D41474E45+  "PT_MAGNE"
0797  54495A454400       "TIZED\0"
                         const [15]: "PT_MAGNETIZED"
079D  01                 const type 3
079E  FBE6B0D0           const [16]: (-793712901)
07A2  04                 const type 4
07A3  06                 string size (6)
07A4  544F52534F00       "TORSO\0"
                         const [17]: "TORSO"
07AA  01                 const type 3
07AB  71B62247           const [18]: (1193457265)
07AF  04                 const type 4
07B0  08                 string size (8)
07B1  67526567696F6E00   "gRegion\0"
                         const [19]: "gRegion"
07B9  01                 const type 3
07BA  58F559A5           const [20]: (-1520831144)
07BE  01                 const type 3
07BF  85100EE5           const [21]: (-452063099)
07C3  04                 const type 4
07C4  0A                 string size (10)
07C5  504D5F4D454E4143+  "PM_MENAC"
07CD  4500               "E\0"
                         const [22]: "PM_MENACE"
07CF  01                 const type 3
07D0  68C51D9F           const [23]: (-1625438872)
07D4  04                 const type 4
07D5  09                 string size (9)
07D6  6861636B65644678+  "hackedFx"
07DE  00                 "\0"
                         const [24]: "hackedFx"
07DF  01                 const type 3
07E0  3F74C2D4           const [25]: (-725453761)
07E4  01                 const type 3
07E5  F26E43AB           const [26]: (-1421644046)
07E9  04                 const type 4
07EA  0D                 string size (13)
07EB  454D5054595F5359+  "EMPTY_SY"
07F3  4D424F4C00         "MBOL\0"
                         const [27]: "EMPTY_SYMBOL"
07F8  04                 const type 4
07F9  0C                 string size (12)
07FA  5A45524F5F564543+  "ZERO_VEC"
0802  544F5200           "TOR\0"
                         const [28]: "ZERO_VECTOR"
0806  04                 const type 4
0807  0E                 string size (14)
0808  5A45524F5F524F54+  "ZERO_ROT"
0810  4154494F4E00       "ATION\0"
                         const [29]: "ZERO_ROTATION"
0816  01                 const type 3
0817  D3FB792F           const [30]: (796523475)
081B  01                 const type 3
081C  FED25B38           const [31]: (945541886)
0820  04                 const type 4
0821  16                 string size (22)
0822  7375636365737344+  "successD"
082A  616D616765546F4D+  "amageToM"
0832  6F6150637400       "oaPct\0"
                         const [32]: "successDamageToMoaPct"
0838  01                 const type 3
0839  EF29C276           const [33]: (1992436207)
083D  01                 const type 3
083E  9B06F6A3           const [34]: (-1544157541)
0842  01                 const type 3
0843  C9B13889           const [35]: (-1992773175)
0847  01                 const type 3
0848  855DDF93           const [36]: (-1814078075)
084C  01                 const type 3
084D  6A648E86           const [37]: (-2037488534)
0851  04                 const type 4
0852  0F                 string size (15)
0853  706F73744861636B+  "postHack"
085B  6564416E696D00     "edAnim\0"
                         const [38]: "postHackedAnim"
0862  04                 const type 4
0863  14                 string size (20)
0864  41544D4D5F504859+  "ATMM_PHY"
086C  534943535F445249+  "SICS_DRI"
0874  56454E00           "VEN\0"
                         const [39]: "ATMM_PHYSICS_DRIVEN"
0878  04                 const type 4
0879  09                 string size (9)
087A  5052545F4F4E4345+  "PRT_ONCE"
0882  00                 "\0"
                         const [40]: "PRT_ONCE"
0883  01                 const type 3
0884  C64CD3BD           const [41]: (-1110225722)
0888  04                 const type 4
0889  13                 string size (19)
088A  6576656E74536372+  "eventScr"
0892  6970745472696767+  "iptTrigg"
089A  657200             "er\0"
                         const [42]: "eventScriptTrigger"
089D  01                 const type 3
089E  B786588D           const [43]: (-1923578185)
08A2  04                 const type 4
08A3  08                 string size (8)
08A4  4578656375746500   "Execute\0"
                         const [44]: "Execute"
                         * functions:
08AC  00                 sizep (0)
                         * lines:
08AD  7F                 sizelineinfo (127)
                         [pc] (line)
08AE  3C                 [001] (60)
08AF  00                 [002] (60)
08B0  00                 [003] (61)
08B1  00                 [004] (61)
08B2  3C                 [005] (61)
08B3  00                 [006] (61)
08B4  00                 [007] (61)
08B5  00                 [008] (61)
08B6  3D                 [009] (61)
08B7  00                 [010] (61)
08B8  00                 [011] (61)
08B9  00                 [012] (61)
08BA  3D                 [013] (61)
08BB  00                 [014] (61)
08BC  00                 [015] (61)
08BD  00                 [016] (61)
08BE  3D                 [017] (61)
08BF  00                 [018] (61)
08C0  00                 [019] (61)
08C1  00                 [020] (61)
08C2  3D                 [021] (62)
08C3  00                 [022] (62)
08C4  00                 [023] (63)
08C5  00                 [024] (66)
08C6  3D                 [025] (66)
08C7  00                 [026] (67)
08C8  00                 [027] (67)
08C9  00                 [028] (67)
08CA  3D                 [029] (67)
08CB  00                 [030] (67)
08CC  00                 [031] (67)
08CD  00                 [032] (68)
08CE  3D                 [033] (71)
08CF  00                 [034] (71)
08D0  00                 [035] (71)
08D1  00                 [036] (72)
08D2  3D                 [037] (72)
08D3  00                 [038] (73)
08D4  00                 [039] (73)
08D5  00                 [040] (73)
08D6  3D                 [041] (73)
08D7  00                 [042] (73)
08D8  00                 [043] (74)
08D9  00                 [044] (74)
08DA  3D                 [045] (74)
08DB  00                 [046] (74)
08DC  00                 [047] (74)
08DD  00                 [048] (75)
08DE  3D                 [049] (75)
08DF  00                 [050] (75)
08E0  00                 [051] (75)
08E1  00                 [052] (76)
08E2  3D                 [053] (76)
08E3  00                 [054] (76)
08E4  00                 [055] (77)
08E5  00                 [056] (80)
08E6  3D                 [057] (80)
08E7  00                 [058] (80)
08E8  00                 [059] (80)
08E9  00                 [060] (80)
08EA  3D                 [061] (81)
08EB  00                 [062] (81)
08EC  00                 [063] (81)
08ED  00                 [064] (81)
08EE  3D                 [065] (81)
08EF  00                 [066] (83)
08F0  00                 [067] (83)
08F1  00                 [068] (83)
08F2  3D                 [069] (84)
08F3  00                 [070] (84)
08F4  00                 [071] (84)
08F5  00                 [072] (84)
08F6  3D                 [073] (84)
08F7  00                 [074] (85)
08F8  00                 [075] (85)
08F9  00                 [076] (87)
08FA  3D                 [077] (87)
08FB  00                 [078] (87)
08FC  00                 [079] (87)
08FD  00                 [080] (87)
08FE  3E                 [081] (87)
08FF  00                 [082] (87)
0900  00                 [083] (88)
0901  00                 [084] (88)
0902  3E                 [085] (91)
0903  00                 [086] (91)
0904  00                 [087] (91)
0905  00                 [088] (91)
0906  3F                 [089] (91)
0907  00                 [090] (92)
0908  00                 [091] (92)
0909  00                 [092] (92)
090A  42                 [093] (93)
090B  00                 [094] (93)
090C  00                 [095] (93)
090D  00                 [096] (93)
090E  42                 [097] (93)
090F  00                 [098] (93)
0910  00                 [099] (96)
0911  00                 [100] (96)
0912  43                 [101] (96)
0913  00                 [102] (96)
0914  00                 [103] (96)
0915  00                 [104] (97)
0916  43                 [105] (97)
0917  00                 [106] (97)
0918  00                 [107] (97)
0919  00                 [108] (97)
091A  43                 [109] (99)
091B  00                 [110] (99)
091C  00                 [111] (99)
091D  00                 [112] (99)
091E  43                 [113] (99)
091F  00                 [114] (99)
0920  00                 [115] (99)
0921  00                 [116] (99)
0922  43                 [117] (99)
0923  00                 [118] (101)
0924  00                 [119] (101)
0925  00                 [120] (101)
0926  43                 [121] (101)
0927  00                 [122] (101)
0928  00                 [123] (101)
0929  00                 [124] (102)
092A  44                 [125] (102)
092B  00                 [126] (102)
092C  00                 [127] (104)
                         * locals:
0AAA  00                 sizelocvars (0)
                         * upvalues:
0AAB  00                 sizeupvalues (0)
                         ** end of function **

                         
0AAC                     ** function [2] definition (level 2)
                         ** start of function **
0AAC  00                 string size (0)
                         source name: (none)
0AAD  6A                 line defined (106)
0AAE  94                 last line defined (148)
0AAF  01                 nups (0)
0AB0  00                 numparams (1)
0AB1  01                 is_vararg (0)
0AB2  00                 maxstacksize (11)
                         * code:
0AB4  51                 sizecode (81)
0AB5  5D000000           [01] getglobal  1   0        ; gRegion
0AB9  6440C000           [02] self       1   1   257  ; -1520831144
0ABD  62800001           [03] call       1   2   2  
0AC1  58400000           [04] test       1       1    ; to [6] if false
0AC5  1A000080           [05] jmp        1            ; to [7]
0AC9  1E008000           [06] return     0   1      
0ACD  64804000           [07] self       1   0   258  ; -2031737093
0AD1  62800001           [08] call       1   2   2  
0AD5  99C00000           [09] loadk      2   3        ; 0
0AD9  D9C00000           [10] loadk      3   3        ; 0
0ADD  19010100           [11] loadk      4   4        ; 0
0AE1  5D410100           [12] getglobal  5   5        ; hackedLiveTime
fail op	21
0AE5  15408101           [13] concat     0   3   5  
0AE9  1A000980           [14] jmp        37           ; to [52]
0AED  5D810100           [15] getglobal  5   6        ; hackedNoTargetSuicideTime
fail op	21
0AF1  15400101           [16] concat     0   2   5  
0AF5  1A400880           [17] jmp        34           ; to [52]
0AF9  5DC10100           [18] getglobal  5   7        ; 538022378
0AFD  92010002           [19] move       6   4      
0B01  62410001           [20] call       5   2   1  
0B05  64014200           [21] self       5   0   264  ; -1411785325
0B09  62810001           [22] call       5   2   2  
0B0D  9D410200           [23] getglobal  6   9        ; 1074689893
0B11  D2018002           [24] move       7   5      
0B15  A2810001           [25] call       6   2   2  
0B19  98010000           [26] test       6       0    ; to [28] if true
0B1D  1A800080           [27] jmp        3            ; to [31]
0B21  A4814200           [28] self       6   0   266  ; -1626839357
0B25  A2410001           [29] call       6   2   1  
0B29  1E008000           [30] return     0   1      
0B2D  A4814000           [31] self       6   0   258  ; -2031737093
0B31  A2810001           [32] call       6   2   2  
fail op	35
0B35  63400003           [33] close      1  
0B39  1A800080           [34] jmp        3            ; to [38]
0B3D  E4814200           [35] self       7   0   266  ; -1626839357
0B41  E2410001           [36] call       7   2   1  
0B45  1E008000           [37] return     0   1      
0B49  DDC10200           [38] getglobal  7   11       ; 1289681407
0B4D  E2818000           [39] call       7   1   2  
0B51  C3C10102           [40] add        7   4   7  
0B55  1D420200           [41] getglobal  8   9        ; 1074689893
0B59  6402C302           [42] self       9   5   268  ; -243671768
0B5D  62020001           [43] call       9   2   0  
0B61  22820000           [44] call       8   0   2  
0B65  18020000           [45] test       8       0    ; to [47] if true
0B69  1A400080           [46] jmp        2            ; to [49]
0B6D  83C00101           [47] add        2   2   7  
0B71  1A000080           [48] jmp        1            ; to [50]
0B75  99C00000           [49] loadk      2   3        ; 0
0B79  C3C08101           [50] add        3   3   7  
0B7D  1AC0F57F           [51] jmp        -40          ; to [12]
0B81  1D420200           [52] getglobal  8   9        ; 1074689893
0B85  52020000           [53] move       9   0      
0B89  22820001           [54] call       8   2   2  
0B8D  18420000           [55] test       8       1    ; to [57] if false
0B91  1A800180           [56] jmp        7            ; to [64]
0B95  24424300           [57] self       8   0   269  ; -1957065004
0B99  9D820300           [58] getglobal  10  14       ; gRiotBipedRobotAvatarType
0B9D  22828001           [59] call       8   3   2  
0BA1  18020000           [60] test       8       0    ; to [62] if true
0BA5  1A400080           [61] jmp        2            ; to [64]
0BA9  24824200           [62] self       8   0   266  ; -1626839357
0BAD  22420001           [63] call       8   2   1  
0BB1  1DC20100           [64] getglobal  8   7        ; 538022378
0BB5  59020100           [65] loadk      9   4        ; 0
0BB9  22420001           [66] call       8   2   1  
0BBD  1D420200           [67] getglobal  8   9        ; 1074689893
0BC1  52020000           [68] move       9   0      
0BC5  22820001           [69] call       8   2   2  
0BC9  18420000           [70] test       8       1    ; to [72] if false
0BCD  1A000280           [71] jmp        9            ; to [81]
0BD1  24C24300           [72] self       8   0   271  ; 1511086594
0BD5  22820001           [73] call       8   2   2  
0BD9  18420000           [74] test       8       1    ; to [76] if false
0BDD  1A000180           [75] jmp        5            ; to [81]
0BE1  1D020400           [76] getglobal  8   16       ; -1817107093
0BE5  59420400           [77] loadk      9   17       ; "Ambulas is not killed from KillFromHack! Resorting to Suicide()."
0BE9  22420001           [78] call       8   2   1  
0BED  24824400           [79] self       8   0   274  ; -1525609078
0BF1  22420001           [80] call       8   2   1  
0BF5  1E008000           [81] return     0   1      
                         * constants:
0BF9  13                 sizek (19)
0BFA  04                 const type 4
0BFB  08                 string size (8)
0BFC  67526567696F6E00   "gRegion\0"
                         const [0]: "gRegion"
0C04  01                 const type 3
0C05  58F559A5           const [1]: (-1520831144)
0C09  01                 const type 3
0C0A  FB26E686           const [2]: (-2031737093)
0C0E  03                 const type 3
0C0F  00000000           const [3]: (0)
0C13  03                 const type 3
0C14  0000803F           const [4]: (0)
0C18  04                 const type 4
0C19  0F                 string size (15)
0C1A  6861636B65644C69+  "hackedLi"
0C22  766554696D6500     "veTime\0"
                         const [5]: "hackedLiveTime"
0C29  04                 const type 4
0C2A  1A                 string size (26)
0C2B  6861636B65644E6F+  "hackedNo"
0C33  5461726765745375+  "TargetSu"
0C3B  696369646554696D+  "icideTim"
0C43  6500               "e\0"
                         const [6]: "hackedNoTargetSuicideTime"
0C45  01                 const type 3
0C46  EA911120           const [7]: (538022378)
0C4A  01                 const type 3
0C4B  93DDD9AB           const [8]: (-1411785325)
0C4F  01                 const type 3
0C50  65770E40           const [9]: (1074689893)
0C54  01                 const type 3
0C55  C366089F           const [10]: (-1626839357)
0C59  01                 const type 3
0C5A  FFF9DE4C           const [11]: (1289681407)
0C5E  01                 const type 3
0C5F  28DD79F1           const [12]: (-243671768)
0C63  01                 const type 3
0C64  D48E598B           const [13]: (-1957065004)
0C68  04                 const type 4
0C69  1A                 string size (26)
0C6A  6752696F74426970+  "gRiotBip"
0C72  6564526F626F7441+  "edRobotA"
0C7A  7661746172547970+  "vatarTyp"
0C82  6500               "e\0"
                         const [14]: "gRiotBipedRobotAvatarType"
0C84  01                 const type 3
0C85  025A115A           const [15]: (1511086594)
0C89  01                 const type 3
0C8A  6B25B193           const [16]: (-1817107093)
0C8E  04                 const type 4
0C8F  41                 string size (65)
0C90  416D62756C617320+  "Ambulas "
0C98  6973206E6F74206B+  "is not k"
0CA0  696C6C6564206672+  "illed fr"
0CA8  6F6D204B696C6C46+  "om KillF"
0CB0  726F6D4861636B21+  "romHack!"
0CB8  205265736F727469+  " Resorti"
0CC0  6E6720746F205375+  "ng to Su"
0CC8  696369646528292E+  "icide()."
0CD0  00                 "\0"
                         const [17]: "Ambulas is not killed from KillFromHack! Resorting to Suicide()."
0CD1  01                 const type 3
0CD2  8A0D11A5           const [18]: (-1525609078)
                         * functions:
0CD6  00                 sizep (0)
                         * lines:
0CD7  51                 sizelineinfo (81)
                         [pc] (line)
0CD8  6B                 [01] (107)
0CD9  00                 [02] (107)
0CDA  00                 [03] (107)
0CDB  00                 [04] (107)
0CDC  6B                 [05] (107)
0CDD  00                 [06] (108)
0CDE  00                 [07] (110)
0CDF  00                 [08] (110)
0CE0  6B                 [09] (111)
0CE1  00                 [10] (112)
0CE2  00                 [11] (113)
0CE3  00                 [12] (115)
0CE4  6B                 [13] (115)
0CE5  00                 [14] (115)
0CE6  00                 [15] (115)
0CE7  00                 [16] (115)
0CE8  6B                 [17] (115)
0CE9  00                 [18] (116)
0CEA  00                 [19] (116)
0CEB  00                 [20] (116)
0CEC  6C                 [21] (117)
0CED  00                 [22] (117)
0CEE  00                 [23] (118)
0CEF  00                 [24] (118)
0CF0  6E                 [25] (118)
0CF1  00                 [26] (118)
0CF2  00                 [27] (118)
0CF3  00                 [28] (119)
0CF4  6E                 [29] (119)
0CF5  00                 [30] (120)
0CF6  00                 [31] (123)
0CF7  00                 [32] (123)
0CF8  6F                 [33] (124)
0CF9  00                 [34] (124)
0CFA  00                 [35] (125)
0CFB  00                 [36] (125)
0CFC  70                 [37] (126)
0CFD  00                 [38] (-127)
0CFE  00                 [39] (-127)
0CFF  00                 [40] (-127)
0D00  71                 [41] (-126)
0D01  00                 [42] (-126)
0D02  00                 [43] (-126)
0D03  00                 [44] (-126)
0D04  73                 [45] (-126)
0D05  00                 [46] (-126)
0D06  00                 [47] (-125)
0D07  00                 [48] (-125)
0D08  73                 [49] (-123)
0D09  00                 [50] (-120)
0D0A  00                 [51] (-120)
0D0B  00                 [52] (-117)
0D0C  73                 [53] (-117)
0D0D  00                 [54] (-117)
0D0E  00                 [55] (-117)
0D0F  00                 [56] (-117)
0D10  73                 [57] (-117)
0D11  00                 [58] (-117)
0D12  00                 [59] (-117)
0D13  00                 [60] (-117)
0D14  73                 [61] (-117)
0D15  00                 [62] (-116)
0D16  00                 [63] (-116)
0D17  00                 [64] (-113)
0D18  73                 [65] (-113)
0D19  00                 [66] (-113)
0D1A  00                 [67] (-112)
0D1B  00                 [68] (-112)
0D1C  74                 [69] (-112)
0D1D  00                 [70] (-112)
0D1E  00                 [71] (-112)
0D1F  00                 [72] (-112)
0D20  74                 [73] (-112)
0D21  00                 [74] (-112)
0D22  00                 [75] (-112)
0D23  00                 [76] (-111)
0D24  74                 [77] (-111)
0D25  00                 [78] (-111)
0D26  00                 [79] (-110)
0D27  00                 [80] (-110)
0D28  75                 [81] (-108)
                         * locals:
0E1C  00                 sizelocvars (0)
                         * upvalues:
0E1D  00                 sizeupvalues (0)
                         ** end of function **

                         
0E1E                     ** function [3] definition (level 2)
                         ** start of function **
0E1E  00                 string size (0)
                         source name: (none)
0E20  01                 line defined (150)
0E21  A6                 last line defined (166)
0E22  01                 nups (0)
0E23  00                 numparams (3)
0E24  03                 is_vararg (0)
0E25  00                 maxstacksize (8)
                         * code:
0E27  25                 sizecode (37)
0E28  DD000000           [01] getglobal  3   0        ; gRegion
0E2C  E440C001           [02] self       3   3   257  ; -1520831144
0E30  E2800001           [03] call       3   2   2  
0E34  D8400000           [04] test       3       1    ; to [6] if false
0E38  1A000080           [05] jmp        1            ; to [7]
0E3C  1E008000           [06] return     0   1      
0E40  E4804000           [07] self       3   0   258  ; 757002394
0E44  E2800001           [08] call       3   2   2  
0E48  2481C000           [09] self       4   1   258  ; 757002394
0E4C  22810001           [10] call       4   2   2  
fail op	35
0E50  63008101           [11] close      1  
0E54  1A000080           [12] jmp        1            ; to [14]
0E58  1E008000           [13] return     0   1      
0E5C  DDC00000           [14] getglobal  3   3        ; Engine
0E60  CE00C101           [15] gettable   3   3   260  ; -98643418
0E64  E2808000           [16] call       3   1   2  
0E68  1D810100           [17] getglobal  4   6        ; damageOnFail
0E6C  CC008182           [18] settable   3   261 4    ; "baseAmount"
0E70  24C1C101           [19] self       4   3   263  ; -995861768
0E74  9DC10000           [20] getglobal  6   3        ; Engine
0E78  8E014203           [21] gettable   6   6   264  ; "DT_ELECTRICITY"
0E7C  D9410200           [22] loadk      7   9        ; 0
0E80  22410002           [23] call       4   4   1  
0E84  2481C201           [24] self       4   3   266  ; 1398603399
0E88  9DC10200           [25] getglobal  6   11       ; Game
0E8C  8E014303           [26] gettable   6   6   268  ; "PT_MAGNETIZED"
0E90  D7018000           [27] loadbool   7   1   0    ; true
0E94  22410002           [28] call       4   4   1  
0E98  2441C301           [29] self       4   3   269  ; -793712901
0E9C  9DC10000           [30] getglobal  6   3        ; Engine
0EA0  8E814303           [31] gettable   6   6   270  ; "TORSO"
0EA4  22418001           [32] call       4   3   1  
0EA8  24C1C300           [33] self       4   1   271  ; 1193457265
0EAC  92018001           [34] move       6   3      
0EB0  22418001           [35] call       4   3   1  
0EB4  1E008000           [36] return     0   1      
0EB8  1E008000           [37] return     0   1      
                         * constants:
0EBC  10                 sizek (16)
0EBD  04                 const type 4
0EBE  08                 string size (8)
0EBF  67526567696F6E00   "gRegion\0"
                         const [0]: "gRegion"
0EC7  01                 const type 3
0EC8  58F559A5           const [1]: (-1520831144)
0ECC  01                 const type 3
0ECD  9AF01E2D           const [2]: (757002394)
0ED1  04                 const type 4
0ED2  07                 string size (7)
0ED3  456E67696E6500     "Engine\0"
                         const [3]: "Engine"
0EDA  01                 const type 3
0EDB  26D21EFA           const [4]: (-98643418)
0EDF  04                 const type 4
0EE0  0B                 string size (11)
0EE1  62617365416D6F75+  "baseAmou"
0EE9  6E7400             "nt\0"
                         const [5]: "baseAmount"
0EEC  04                 const type 4
0EED  0D                 string size (13)
0EEE  64616D6167654F6E+  "damageOn"
0EF6  4661696C00         "Fail\0"
                         const [6]: "damageOnFail"
0EFB  01                 const type 3
0EFC  F85AA4C4           const [7]: (-995861768)
0F00  04                 const type 4
0F01  0F                 string size (15)
0F02  44545F454C454354+  "DT_ELECT"
0F0A  52494349545900     "RICITY\0"
                         const [8]: "DT_ELECTRICITY"
0F11  03                 const type 3
0F12  0000803F           const [9]: (0)
0F16  01                 const type 3
0F17  87FE5C53           const [10]: (1398603399)
0F1B  04                 const type 4
0F1C  05                 string size (5)
0F1D  47616D6500         "Game\0"
                         const [11]: "Game"
0F22  04                 const type 4
0F23  0E                 string size (14)
0F24  50545F4D41474E45+  "PT_MAGNE"
0F2C  54495A454400       "TIZED\0"
                         const [12]: "PT_MAGNETIZED"
0F32  01                 const type 3
0F33  FBE6B0D0           const [13]: (-793712901)
0F37  04                 const type 4
0F38  06                 string size (6)
0F39  544F52534F00       "TORSO\0"
                         const [14]: "TORSO"
0F3F  01                 const type 3
0F40  71B62247           const [15]: (1193457265)
                         * functions:
0F44  00                 sizep (0)
                         * lines:
0F45  25                 sizelineinfo (37)
                         [pc] (line)
0F46  97                 [01] (-105)
0F47  00                 [02] (-105)
0F48  00                 [03] (-105)
0F49  00                 [04] (-105)
0F4A  97                 [05] (-105)
0F4B  00                 [06] (-104)
0F4C  00                 [07] (-101)
0F4D  00                 [08] (-101)
0F4E  97                 [09] (-101)
0F4F  00                 [10] (-101)
0F50  00                 [11] (-101)
0F51  00                 [12] (-101)
0F52  97                 [13] (-100)
0F53  00                 [14] (-97)
0F54  00                 [15] (-97)
0F55  00                 [16] (-97)
0F56  97                 [17] (-96)
0F57  00                 [18] (-96)
0F58  00                 [19] (-95)
0F59  00                 [20] (-95)
0F5A  98                 [21] (-95)
0F5B  00                 [22] (-95)
0F5C  00                 [23] (-95)
0F5D  00                 [24] (-94)
0F5E  9B                 [25] (-94)
0F5F  00                 [26] (-94)
0F60  00                 [27] (-94)
0F61  00                 [28] (-94)
0F62  9B                 [29] (-93)
0F63  00                 [30] (-93)
0F64  00                 [31] (-93)
0F65  00                 [32] (-93)
0F66  9B                 [33] (-92)
0F67  00                 [34] (-92)
0F68  00                 [35] (-92)
0F69  00                 [36] (-91)
0F6A  9B                 [37] (-90)
                         * locals:
0FDA  00                 sizelocvars (0)
                         * upvalues:
0FDB  00                 sizeupvalues (0)
                         ** end of function **

                         
0FDC                     ** function [4] definition (level 2)
                         ** start of function **
0FDC  00                 string size (0)
                         source name: (none)
0FDE  01                 line defined (168)
0FDF  E4                 last line defined (228)
0FE0  01                 nups (2)
0FE1  02                 numparams (3)
0FE2  03                 is_vararg (0)
0FE3  00                 maxstacksize (14)
                         * code:
0FE6  01                 sizecode (168)
0FE7  E4004001           [001] self       3   2   256  ; -1870903749
0FEB  E2800001           [002] call       3   2   2  
0FEF  1D410000           [003] getglobal  4   1        ; 1074689893
0FF3  52018001           [004] move       5   3      
0FF7  22810001           [005] call       4   2   2  
0FFB  18410000           [006] test       4       1    ; to [8] if false
0FFF  1AC00080           [007] jmp        4            ; to [12]
1003  2481C001           [008] self       4   3   258  ; 1511086594
1007  22810001           [009] call       4   2   2  
100B  18010000           [010] test       4       0    ; to [12] if true
100F  1A800080           [011] jmp        3            ; to [15]
1013  24C14001           [012] self       4   2   259  ; 766584623
1017  22410001           [013] call       4   2   1  
101B  1E008000           [014] return     0   1      
101F  1D410000           [015] getglobal  4   1        ; 1074689893
1023  52010000           [016] move       5   0      
1027  22810001           [017] call       4   2   2  
102B  18410000           [018] test       4       1    ; to [20] if false
102F  1AC00080           [019] jmp        4            ; to [24]
1033  24814000           [020] self       4   0   258  ; 1511086594
1037  22810001           [021] call       4   2   2  
103B  18010000           [022] test       4       0    ; to [24] if true
103F  1A000080           [023] jmp        1            ; to [25]
1043  1E008000           [024] return     0   1      
fail op	33
1047  2100C100           [025] tforloop   0       260  ; to [27] if exit
104B  1A400180           [026] jmp        6            ; to [33]
104F  13010000           [027] getupval   4   0      
1053  52018001           [028] move       5   3      
1057  92010000           [029] move       6   0      
105B  DD410100           [030] getglobal  7   5        ; damageOnFail
105F  22410002           [031] call       4   4   1  
1063  1E008000           [032] return     0   1      
1067  1D810100           [033] getglobal  4   6        ; gRegion
106B  24C14102           [034] self       4   4   263  ; -1520831144
106F  22810001           [035] call       4   2   2  
1073  18010000           [036] test       4       0    ; to [38] if true
1077  1A401A80           [037] jmp        106          ; to [144]
107B  2401C201           [038] self       4   3   264  ; -452063099
107F  9D410200           [039] getglobal  6   9        ; Engine
1083  8E814203           [040] gettable   6   6   266  ; "PM_MENACE"
1087  D7018000           [041] loadbool   7   1   0    ; true
108B  22410002           [042] call       4   4   1  
108F  24C1C201           [043] self       4   3   267  ; -1625438872
1093  9D010300           [044] getglobal  6   12       ; hackedFx
1097  22818001           [045] call       4   3   2  
109B  5D410000           [046] getglobal  5   1        ; 1074689893
109F  92010002           [047] move       6   4      
10A3  62810001           [048] call       5   2   2  
10A7  58410000           [049] test       5       1    ; to [51] if false
10AB  1A400080           [050] jmp        2            ; to [53]
10AF  64414302           [051] self       5   4   269  ; -725453761
10B3  62410001           [052] call       5   2   1  
10B7  6481C301           [053] self       5   3   270  ; -1421644046
10BB  DD010300           [054] getglobal  7   12       ; hackedFx
10BF  1DC20300           [055] getglobal  8   15       ; EMPTY_SYMBOL
10C3  5D020400           [056] getglobal  9   16       ; ZERO_VECTOR
10C7  9D420400           [057] getglobal  10  17       ; ZERO_ROTATION
10CB  D2020000           [058] move       11  0      
10CF  62418003           [059] call       5   7   1  
10D3  64C14001           [060] self       5   2   259  ; 766584623
10D7  62410001           [061] call       5   2   1  
10DB  6481C401           [062] self       5   3   274  ; 1992436207
10DF  E4C1C401           [063] self       7   3   275  ; 945541886
10E3  E2810001           [064] call       7   2   2  
10E7  17020000           [065] loadbool   8   0   0    ; false
10EB  62410002           [066] call       5   4   1  
10EF  6401C501           [067] self       5   3   276  ; -1544157541
10F3  62810001           [068] call       5   2   2  
10F7  6441C502           [069] self       5   5   277  ; -1992773175
10FB  E401C501           [070] self       7   3   276  ; -1544157541
10FF  E2810001           [071] call       7   2   2  
1103  E481C503           [072] self       7   7   278  ; -227502409
1107  E2010001           [073] call       7   2   0  
110B  62410000           [074] call       5   0   1  
110F  6401C501           [075] self       5   3   276  ; -1544157541
1113  62810001           [076] call       5   2   2  
1117  64C1C502           [077] self       5   5   279  ; -401086707
111B  D7010000           [078] loadbool   7   0   0    ; false
111F  62418001           [079] call       5   3   1  
1123  6401C501           [080] self       5   3   276  ; -1544157541
1127  62810001           [081] call       5   2   2  
112B  6401C602           [082] self       5   5   280  ; -266172193
112F  D7010000           [083] loadbool   7   0   0    ; false
1133  62418001           [084] call       5   3   1  
1137  6441C601           [085] self       5   3   281  ; 1800191191
113B  D2010000           [086] move       7   0      
113F  62818001           [087] call       5   3   2  
1143  58410000           [088] test       5       1    ; to [90] if false
1147  1AC00A80           [089] jmp        44           ; to [134]
114B  6481C601           [090] self       5   3   282  ; -1957065004
114F  DDC10600           [091] getglobal  7   27       ; gRiotBipedRobotAvatarType
1153  62818001           [092] call       5   3   2  
1157  58010000           [093] test       5       0    ; to [95] if true
115B  1AC00680           [094] jmp        28           ; to [123]
115F  6401C701           [095] self       5   3   284  ; 402419863
1163  D2010000           [096] move       7   0      
1167  62418001           [097] call       5   3   1  
116B  5D410700           [098] getglobal  5   29       ; _T
116F  4E81C702           [099] gettable   5   5   286  ; "InSimulacrum"
1173  58410000           [100] test       5       1    ; to [102] if false
1177  1A400380           [101] jmp        14           ; to [116]
117B  64C1C701           [102] self       5   3   287  ; -1917464545
117F  62810001           [103] call       5   2   2  
1183  6401C802           [104] self       5   5   288  ; 749822354
1187  62410001           [105] call       5   2   1  
118B  6441C801           [106] self       5   3   289  ; -1411785325
118F  62810001           [107] call       5   2   2  
1193  9D410000           [108] getglobal  6   1        ; 1074689893
1197  D2018002           [109] move       7   5      
119B  A2810001           [110] call       6   2   2  
119F  98410000           [111] test       6       1    ; to [113] if false
11A3  1A800080           [112] jmp        3            ; to [116]
11A7  A481C802           [113] self       6   5   290  ; 428480489
11AB  17020000           [114] loadbool   8   0   0    ; false
11AF  A2418001           [115] call       6   3   1  
11B3  9D410700           [116] getglobal  6   29       ; _T
11B7  8EC14803           [117] gettable   6   6   291  ; -1553752463
11BB  DD010900           [118] getglobal  7   36       ; hackMessageLocTag
11BF  19420900           [119] loadk      8   37       ; 0
11C3  46020005           [120] loadnil    9   10     
11C7  D7020000           [121] loadbool   11  0   0    ; false
11CB  A2410003           [122] call       6   6   1  
11CF  A481C901           [123] self       6   3   294  ; 1445902558
11D3  13028000           [124] getupval   8   1      
11D7  64C24900           [125] self       9   0   295  ; -2031737093
11DB  62020001           [126] call       9   2   0  
11DF  A2410000           [127] call       6   0   1  
11E3  A401CA01           [128] self       6   3   296  ; -1302048094
11E7  1D420A00           [129] getglobal  8   41       ; -332969190
11EB  59820A00           [130] loadk      9   42       ; "DelayedDeath"
11EF  22820001           [131] call       8   2   2  
11F3  57020000           [132] loadbool   9   0   0    ; false
11F7  A2410002           [133] call       6   4   1  
11FB  A441C801           [134] self       6   3   289  ; -1411785325
11FF  A2810001           [135] call       6   2   2  
1203  DD410000           [136] getglobal  7   1        ; 1074689893
1207  12020003           [137] move       8   6      
120B  E2810001           [138] call       7   2   2  
120F  D8410000           [139] test       7       1    ; to [141] if false
1213  1A800680           [140] jmp        27           ; to [168]
1217  E4C14A03           [141] self       7   6   299  ; -1850937571
121B  E2410001           [142] call       7   2   1  
121F  1AC00580           [143] jmp        24           ; to [168]
1223  E481C301           [144] self       7   3   270  ; -1421644046
1227  5D020300           [145] getglobal  9   12       ; hackedFx
122B  9DC20300           [146] getglobal  10  15       ; EMPTY_SYMBOL
122F  DD020400           [147] getglobal  11  16       ; ZERO_VECTOR
1233  1D430400           [148] getglobal  12  17       ; ZERO_ROTATION
1237  52030000           [149] move       13  0      
123B  E2418003           [150] call       7   7   1  
123F  E441C601           [151] self       7   3   281  ; 1800191191
1243  52020000           [152] move       9   0      
1247  E2818001           [153] call       7   3   2  
124B  D8410000           [154] test       7       1    ; to [156] if false
124F  1AC00280           [155] jmp        12           ; to [168]
1253  E481C601           [156] self       7   3   282  ; -1957065004
1257  5DC20600           [157] getglobal  9   27       ; gRiotBipedRobotAvatarType
125B  E2818001           [158] call       7   3   2  
125F  D8010000           [159] test       7       0    ; to [161] if true
1263  1A800180           [160] jmp        7            ; to [168]
1267  DD410700           [161] getglobal  7   29       ; _T
126B  CEC1C803           [162] gettable   7   7   291  ; -1553752463
126F  1D020900           [163] getglobal  8   36       ; hackMessageLocTag
1273  59420900           [164] loadk      9   37       ; 0
1277  86028005           [165] loadnil    10  11     
127B  17030000           [166] loadbool   12  0   0    ; false
127F  E2410003           [167] call       7   6   1  
1283  1E008000           [168] return     0   1      
                         * constants:
1287  2C                 sizek (44)
1288  01                 const type 3
1289  3B467C90           const [0]: (-1870903749)
128D  01                 const type 3
128E  65770E40           const [1]: (1074689893)
1292  01                 const type 3
1293  025A115A           const [2]: (1511086594)
1297  01                 const type 3
1298  2F27B12D           const [3]: (766584623)
129C  03                 const type 3
129D  00000000           const [4]: (0)
12A1  04                 const type 4
12A2  0D                 string size (13)
12A3  64616D6167654F6E+  "damageOn"
12AB  4661696C00         "Fail\0"
                         const [5]: "damageOnFail"
12B0  04                 const type 4
12B1  08                 string size (8)
12B2  67526567696F6E00   "gRegion\0"
                         const [6]: "gRegion"
12BA  01                 const type 3
12BB  58F559A5           const [7]: (-1520831144)
12BF  01                 const type 3
12C0  85100EE5           const [8]: (-452063099)
12C4  04                 const type 4
12C5  07                 string size (7)
12C6  456E67696E6500     "Engine\0"
                         const [9]: "Engine"
12CD  04                 const type 4
12CE  0A                 string size (10)
12CF  504D5F4D454E4143+  "PM_MENAC"
12D7  4500               "E\0"
                         const [10]: "PM_MENACE"
12D9  01                 const type 3
12DA  68C51D9F           const [11]: (-1625438872)
12DE  04                 const type 4
12DF  09                 string size (9)
12E0  6861636B65644678+  "hackedFx"
12E8  00                 "\0"
                         const [12]: "hackedFx"
12E9  01                 const type 3
12EA  3F74C2D4           const [13]: (-725453761)
12EE  01                 const type 3
12EF  F26E43AB           const [14]: (-1421644046)
12F3  04                 const type 4
12F4  0D                 string size (13)
12F5  454D5054595F5359+  "EMPTY_SY"
12FD  4D424F4C00         "MBOL\0"
                         const [15]: "EMPTY_SYMBOL"
1302  04                 const type 4
1303  0C                 string size (12)
1304  5A45524F5F564543+  "ZERO_VEC"
130C  544F5200           "TOR\0"
                         const [16]: "ZERO_VECTOR"
1310  04                 const type 4
1311  0E                 string size (14)
1312  5A45524F5F524F54+  "ZERO_ROT"
131A  4154494F4E00       "ATION\0"
                         const [17]: "ZERO_ROTATION"
1320  01                 const type 3
1321  EF29C276           const [18]: (1992436207)
1325  01                 const type 3
1326  FED25B38           const [19]: (945541886)
132A  01                 const type 3
132B  9B06F6A3           const [20]: (-1544157541)
132F  01                 const type 3
1330  C9B13889           const [21]: (-1992773175)
1334  01                 const type 3
1335  B79670F2           const [22]: (-227502409)
1339  01                 const type 3
133A  0DE717E8           const [23]: (-401086707)
133E  01                 const type 3
133F  DF8822F0           const [24]: (-266172193)
1343  01                 const type 3
1344  D7BC4C6B           const [25]: (1800191191)
1348  01                 const type 3
1349  D48E598B           const [26]: (-1957065004)
134D  04                 const type 4
134E  1A                 string size (26)
134F  6752696F74426970+  "gRiotBip"
1357  6564526F626F7441+  "edRobotA"
135F  7661746172547970+  "vatarTyp"
1367  6500               "e\0"
                         const [27]: "gRiotBipedRobotAvatarType"
1369  01                 const type 3
136A  9770FC17           const [28]: (402419863)
136E  04                 const type 4
136F  03                 string size (3)
1370  5F5400             "_T\0"
                         const [29]: "_T"
1373  04                 const type 4
1374  0D                 string size (13)
1375  496E53696D756C61+  "InSimula"
137D  6372756D00         "crum\0"
                         const [30]: "InSimulacrum"
1382  01                 const type 3
1383  1FD0B58D           const [31]: (-1917464545)
1387  01                 const type 3
1388  9261B12C           const [32]: (749822354)
138C  01                 const type 3
138D  93DDD9AB           const [33]: (-1411785325)
1391  01                 const type 3
1392  E9178A19           const [34]: (428480489)
1396  01                 const type 3
1397  719E63A3           const [35]: (-1553752463)
139B  04                 const type 4
139C  12                 string size (18)
139D  6861636B4D657373+  "hackMess"
13A5  6167654C6F635461+  "ageLocTa"
13AD  6700               "g\0"
                         const [36]: "hackMessageLocTag"
13AF  03                 const type 3
13B0  00004040           const [37]: (0)
13B4  01                 const type 3
13B5  DEB82E56           const [38]: (1445902558)
13B9  01                 const type 3
13BA  FB26E686           const [39]: (-2031737093)
13BE  01                 const type 3
13BF  A25264B2           const [40]: (-1302048094)
13C3  01                 const type 3
13C4  1A4B27EC           const [41]: (-332969190)
13C8  04                 const type 4
13C9  0D                 string size (13)
13CA  44656C6179656444+  "DelayedD"
13D2  6561746800         "eath\0"
                         const [42]: "DelayedDeath"
13D7  01                 const type 3
13D8  1DEFAC91           const [43]: (-1850937571)
                         * functions:
13DC  00                 sizep (0)
                         * lines:
13DE  01                 sizelineinfo (168)
                         [pc] (line)
13DF  A9                 [001] (-87)
13E0  00                 [002] (-87)
13E1  00                 [003] (-86)
13E2  00                 [004] (-86)
13E3  A9                 [005] (-86)
13E4  00                 [006] (-86)
13E5  00                 [007] (-86)
13E6  00                 [008] (-86)
13E7  AA                 [009] (-86)
13E8  00                 [010] (-86)
13E9  00                 [011] (-86)
13EA  00                 [012] (-85)
13EB  AA                 [013] (-85)
13EC  00                 [014] (-84)
13ED  00                 [015] (-81)
13EE  00                 [016] (-81)
13EF  AA                 [017] (-81)
13F0  00                 [018] (-81)
13F1  00                 [019] (-81)
13F2  00                 [020] (-81)
13F3  AA                 [021] (-81)
13F4  00                 [022] (-81)
13F5  00                 [023] (-81)
13F6  00                 [024] (-79)
13F7  AA                 [025] (-76)
13F8  00                 [026] (-76)
13F9  00                 [027] (-75)
13FA  00                 [028] (-75)
13FB  AA                 [029] (-75)
13FC  00                 [030] (-75)
13FD  00                 [031] (-75)
13FE  00                 [032] (-74)
13FF  AA                 [033] (-71)
1400  00                 [034] (-71)
1401  00                 [035] (-71)
1402  00                 [036] (-71)
1403  AA                 [037] (-71)
1404  00                 [038] (-70)
1405  00                 [039] (-70)
1406  00                 [040] (-70)
1407  AA                 [041] (-70)
1408  00                 [042] (-70)
1409  00                 [043] (-68)
140A  00                 [044] (-68)
140B  AB                 [045] (-68)
140C  00                 [046] (-67)
140D  00                 [047] (-67)
140E  00                 [048] (-67)
140F  AB                 [049] (-67)
1410  00                 [050] (-67)
1411  00                 [051] (-66)
1412  00                 [052] (-66)
1413  AC                 [053] (-64)
1414  00                 [054] (-64)
1415  00                 [055] (-64)
1416  00                 [056] (-64)
1417  AF                 [057] (-64)
1418  00                 [058] (-64)
1419  00                 [059] (-64)
141A  00                 [060] (-63)
141B  AF                 [061] (-63)
141C  00                 [062] (-61)
141D  00                 [063] (-61)
141E  00                 [064] (-61)
141F  AF                 [065] (-61)
1420  00                 [066] (-61)
1421  00                 [067] (-60)
1422  00                 [068] (-60)
1423  AF                 [069] (-60)
1424  00                 [070] (-60)
1425  00                 [071] (-60)
1426  00                 [072] (-60)
1427  AF                 [073] (-60)
1428  00                 [074] (-60)
1429  00                 [075] (-59)
142A  00                 [076] (-59)
142B  AF                 [077] (-59)
142C  00                 [078] (-59)
142D  00                 [079] (-59)
142E  00                 [080] (-58)
142F  AF                 [081] (-58)
1430  00                 [082] (-58)
1431  00                 [083] (-58)
1432  00                 [084] (-58)
1433  AF                 [085] (-56)
1434  00                 [086] (-56)
1435  00                 [087] (-56)
1436  00                 [088] (-56)
1437  AF                 [089] (-56)
1438  00                 [090] (-55)
1439  00                 [091] (-55)
143A  00                 [092] (-55)
143B  B1                 [093] (-55)
143C  00                 [094] (-55)
143D  00                 [095] (-54)
143E  00                 [096] (-54)
143F  B4                 [097] (-54)
1440  00                 [098] (-53)
1441  00                 [099] (-53)
1442  00                 [100] (-53)
1443  B4                 [101] (-53)
1444  00                 [102] (-52)
1445  00                 [103] (-52)
1446  00                 [104] (-52)
1447  B5                 [105] (-52)
1448  00                 [106] (-51)
1449  00                 [107] (-51)
144A  00                 [108] (-50)
144B  B5                 [109] (-50)
144C  00                 [110] (-50)
144D  00                 [111] (-50)
144E  00                 [112] (-50)
144F  B5                 [113] (-49)
1450  00                 [114] (-49)
1451  00                 [115] (-49)
1452  00                 [116] (-46)
1453  B5                 [117] (-46)
1454  00                 [118] (-46)
1455  00                 [119] (-46)
1456  00                 [120] (-46)
1457  B5                 [121] (-46)
1458  00                 [122] (-46)
1459  00                 [123] (-44)
145A  00                 [124] (-44)
145B  B6                 [125] (-44)
145C  00                 [126] (-44)
145D  00                 [127] (-44)
145E  00                 [128] (-43)
145F  B9                 [129] (-43)
1460  00                 [130] (-43)
1461  00                 [131] (-43)
1462  00                 [132] (-43)
1463  B9                 [133] (-43)
1464  00                 [134] (-40)
1465  00                 [135] (-40)
1466  00                 [136] (-39)
1467  B9                 [137] (-39)
1468  00                 [138] (-39)
1469  00                 [139] (-39)
146A  00                 [140] (-39)
146B  B9                 [141] (-38)
146C  00                 [142] (-38)
146D  00                 [143] (-37)
146E  00                 [144] (-35)
146F  B9                 [145] (-35)
1470  00                 [146] (-35)
1471  00                 [147] (-35)
1472  00                 [148] (-35)
1473  BA                 [149] (-35)
1474  00                 [150] (-35)
1475  00                 [151] (-34)
1476  00                 [152] (-34)
1477  BA                 [153] (-34)
1478  00                 [154] (-34)
1479  00                 [155] (-34)
147A  00                 [156] (-33)
147B  BA                 [157] (-33)
147C  00                 [158] (-33)
147D  00                 [159] (-33)
147E  00                 [160] (-33)
147F  BA                 [161] (-32)
1480  00                 [162] (-32)
1481  00                 [163] (-32)
1482  00                 [164] (-32)
1483  BA                 [165] (-32)
1484  00                 [166] (-32)
1485  00                 [167] (-32)
1486  00                 [168] (-28)
                         * locals:
167F  00                 sizelocvars (0)
                         * upvalues:
1680  00                 sizeupvalues (0)
                         ** end of function **

                         
1681                     ** function [5] definition (level 2)
                         ** start of function **
1681  00                 string size (0)
                         source name: (none)
1683  01                 line defined (230)
1684  8F                 last line defined (271)
1685  02                 nups (0)
1686  00                 numparams (1)
1687  01                 is_vararg (0)
1688  00                 maxstacksize (18)
                         * code:
168A  70                 sizecode (112)
168B  5D000000           [001] getglobal  1   0        ; gRegion
168F  6440C000           [002] self       1   1   257  ; -1520831144
1693  62800001           [003] call       1   2   2  
1697  58000000           [004] test       1       0    ; to [6] if true
169B  1A000780           [005] jmp        29           ; to [35]
169F  5D800000           [006] getglobal  1   2        ; 1074689893
16A3  92000000           [007] move       2   0      
16A7  62800001           [008] call       1   2   2  
16AB  58400000           [009] test       1       1    ; to [11] if false
16AF  1AC00580           [010] jmp        24           ; to [35]
16B3  64C04000           [011] self       1   0   259  ; 1511086594
16B7  62800001           [012] call       1   2   2  
16BB  58400000           [013] test       1       1    ; to [15] if false
16BF  1AC00480           [014] jmp        20           ; to [35]
16C3  5D800000           [015] getglobal  1   2        ; 1074689893
16C7  9D000100           [016] getglobal  2   4        ; ambulasDataFragmentType
16CB  62800001           [017] call       1   2   2  
16CF  58400000           [018] test       1       1    ; to [20] if false
16D3  1A800380           [019] jmp        15           ; to [35]
16D7  5D400100           [020] getglobal  1   5        ; _T
16DB  4E80C100           [021] gettable   1   1   262  ; "InSimulacrum"
16DF  58400000           [022] test       1       1    ; to [24] if false
16E3  1A800280           [023] jmp        11           ; to [35]
16E7  5D800000           [024] getglobal  1   2        ; 1074689893
16EB  9DC00100           [025] getglobal  2   7        ; gGameRules
16EF  62800001           [026] call       1   2   2  
16F3  58400000           [027] test       1       1    ; to [29] if false
16F7  1A800180           [028] jmp        7            ; to [36]
16FB  5DC00100           [029] getglobal  1   7        ; gGameRules
16FF  6400C200           [030] self       1   1   264  ; -1957065004
1703  DD400200           [031] getglobal  3   9        ; gLotusPhotoBoothGameRulesType
1707  62808001           [032] call       1   3   2  
170B  58000000           [033] test       1       0    ; to [35] if true
170F  1A000080           [034] jmp        1            ; to [36]
1713  1E008000           [035] return     0   1      
1717  64804200           [036] self       1   0   266  ; -1411785325
171B  62800001           [037] call       1   2   2  
171F  9D800000           [038] getglobal  2   2        ; 1074689893
1723  D2008000           [039] move       3   1      
1727  A2800001           [040] call       2   2   2  
172B  98000000           [041] test       2       0    ; to [43] if true
172F  1A000080           [042] jmp        1            ; to [44]
1733  1E008000           [043] return     0   1      
1737  A4C0C200           [044] self       2   1   267  ; 1983029550
173B  A2800001           [045] call       2   2   2  
173F  D9000300           [046] loadk      3   12       ; 0
fail op	33
1743  21404301           [047] tforloop   0       269  ; to [49] if exit
1747  1A400080           [048] jmp        2            ; to [51]
174B  D9800300           [049] loadk      3   14       ; 0
174F  1A000380           [050] jmp        13           ; to [64]
fail op	33
1753  21C04301           [051] tforloop   0       271  ; to [53] if exit
1757  1A400080           [052] jmp        2            ; to [55]
175B  D9000400           [053] loadk      3   16       ; 0
175F  1A000280           [054] jmp        9            ; to [64]
fail op	33
1763  21404401           [055] tforloop   0       273  ; to [57] if exit
1767  1A400080           [056] jmp        2            ; to [59]
176B  D9800400           [057] loadk      3   18       ; 0
176F  1A000180           [058] jmp        5            ; to [64]
fail op	33
1773  21C04401           [059] tforloop   0       275  ; to [61] if exit
1777  1A400080           [060] jmp        2            ; to [63]
177B  D9000500           [061] loadk      3   20       ; 0
177F  1A000080           [062] jmp        1            ; to [64]
1783  D9400500           [063] loadk      3   21       ; 0
1787  24814500           [064] self       4   0   278  ; 1839670529
178B  22810001           [065] call       4   2   2  
178F  5DC10500           [066] getglobal  5   23       ; 572299008
1793  99010600           [067] loadk      6   24       ; 0
1797  D9410600           [068] loadk      7   25       ; 0
179B  19020600           [069] loadk      8   24       ; 0
179F  62810002           [070] call       5   4   2  
17A3  03410102           [071] add        4   4   5  
17A7  5D810600           [072] getglobal  5   26       ; -1596245111
17AB  A4C14600           [073] self       6   0   283  ; 814259937
17AF  A2010001           [074] call       6   2   0  
17B3  62810000           [075] call       5   0   2  
17B7  4481C302           [076] mul        5   5   270  ; 0
17BB  43410102           [077] add        5   4   5  
17BF  92010002           [078] move       6   4      
17C3  CB010002           [079] newtable   7   4   0    ; array=4, hash=0
17C7  1D020700           [080] getglobal  8   28       ; gBaseAvatarType
17CB  5D420700           [081] getglobal  9   29       ; gPickUpType
17CF  9D820700           [082] getglobal  10  30       ; gRagdollType
17D3  DDC20700           [083] getglobal  11  31       ; gHitProxyType
17D7  DB410002           [084] setlist    7   4   1    ; index 1 to 4
17DB  1D020000           [085] getglobal  8   0        ; gRegion
17DF  24024804           [086] self       8   8   288  ; -1869767524
17E3  92020002           [087] move       10  4      
17E7  D2028002           [088] move       11  5      
17EB  12038003           [089] move       12  7      
17EF  46038006           [090] loadnil    13  13     
17F3  92030003           [091] move       14  6      
17F7  22828003           [092] call       8   7   2  
17FB  18420000           [093] test       8       1    ; to [95] if false
17FF  1A000080           [094] jmp        1            ; to [96]
1803  12018002           [095] move       4   5      
1807  1D420800           [096] getglobal  8   33       ; 508519041
180B  22828000           [097] call       8   1   2  
180F  5D820800           [098] getglobal  9   34       ; 538022378
1813  99420600           [099] loadk      10  25       ; 0
1817  62420001           [100] call       9   2   1  
181B  59020300           [101] loadk      9   12       ; 0
181F  92028001           [102] move       10  3      
1823  D9020300           [103] loadk      11  12       ; 0
1827  50420180           [104] forprep    9   6        ; to [111]
182B  5D030000           [105] getglobal  13  0        ; gRegion
182F  64C3C806           [106] self       13  13  291  ; -1110225722
1833  DD030100           [107] getglobal  15  4        ; ambulasDataFragmentType
1837  12040002           [108] move       16  4      
183B  52040004           [109] move       17  8      
183F  62838002           [110] call       13  5   2  
1843  5402FE7F           [111] forloop    9   -7       ; to [105] if loop
1847  1E008000           [112] return     0   1      
                         * constants:
184B  24                 sizek (36)
184C  04                 const type 4
184D  08                 string size (8)
184E  67526567696F6E00   "gRegion\0"
                         const [0]: "gRegion"
1856  01                 const type 3
1857  58F559A5           const [1]: (-1520831144)
185B  01                 const type 3
185C  65770E40           const [2]: (1074689893)
1860  01                 const type 3
1861  025A115A           const [3]: (1511086594)
1865  04                 const type 4
1866  18                 string size (24)
1867  616D62756C617344+  "ambulasD"
186F  617461467261676D+  "ataFragm"
1877  656E745479706500   "entType\0"
                         const [4]: "ambulasDataFragmentType"
187F  04                 const type 4
1880  03                 string size (3)
1881  5F5400             "_T\0"
                         const [5]: "_T"
1884  04                 const type 4
1885  0D                 string size (13)
1886  496E53696D756C61+  "InSimula"
188E  6372756D00         "crum\0"
                         const [6]: "InSimulacrum"
1893  04                 const type 4
1894  0B                 string size (11)
1895  6747616D6552756C+  "gGameRul"
189D  657300             "es\0"
                         const [7]: "gGameRules"
18A0  01                 const type 3
18A1  D48E598B           const [8]: (-1957065004)
18A5  04                 const type 4
18A6  1E                 string size (30)
18A7  674C6F7475735068+  "gLotusPh"
18AF  6F746F426F6F7468+  "otoBooth"
18B7  47616D6552756C65+  "GameRule"
18BF  735479706500       "sType\0"
                         const [9]: "gLotusPhotoBoothGameRulesType"
18C5  01                 const type 3
18C6  93DDD9AB           const [10]: (-1411785325)
18CA  01                 const type 3
18CB  2EA13276           const [11]: (1983029550)
18CF  03                 const type 3
18D0  0000803F           const [12]: (0)
18D4  03                 const type 3
18D5  00002041           const [13]: (0)
18D9  03                 const type 3
18DA  00000040           const [14]: (0)
18DE  03                 const type 3
18DF  0000A041           const [15]: (0)
18E3  03                 const type 3
18E4  00004040           const [16]: (0)
18E8  03                 const type 3
18E9  0000F041           const [17]: (0)
18ED  03                 const type 3
18EE  00008040           const [18]: (0)
18F2  03                 const type 3
18F3  00002042           const [19]: (0)
18F7  03                 const type 3
18F8  0000A040           const [20]: (0)
18FC  03                 const type 3
18FD  0000C040           const [21]: (0)
1901  01                 const type 3
1902  0125A76D           const [22]: (1839670529)
1906  01                 const type 3
1907  00971C22           const [23]: (572299008)
190B  03                 const type 3
190C  00000000           const [24]: (0)
1910  03                 const type 3
1911  0000C03F           const [25]: (0)
1915  01                 const type 3
1916  893BDBA0           const [26]: (-1596245111)
191A  01                 const type 3
191B  E19E8830           const [27]: (814259937)
191F  04                 const type 4
1920  10                 string size (16)
1921  6742617365417661+  "gBaseAva"
1929  7461725479706500   "tarType\0"
                         const [28]: "gBaseAvatarType"
1931  04                 const type 4
1932  0C                 string size (12)
1933  675069636B557054+  "gPickUpT"
193B  79706500           "ype\0"
                         const [29]: "gPickUpType"
193F  04                 const type 4
1940  0D                 string size (13)
1941  67526167646F6C6C+  "gRagdoll"
1949  5479706500         "Type\0"
                         const [30]: "gRagdollType"
194E  04                 const type 4
194F  0E                 string size (14)
1950  6748697450726F78+  "gHitProx"
1958  795479706500       "yType\0"
                         const [31]: "gHitProxyType"
195E  01                 const type 3
195F  9C9C8D90           const [32]: (-1869767524)
1963  01                 const type 3
1964  81624F1E           const [33]: (508519041)
1968  01                 const type 3
1969  EA911120           const [34]: (538022378)
196D  01                 const type 3
196E  C64CD3BD           const [35]: (-1110225722)
                         * functions:
1972  00                 sizep (0)
                         * lines:
1973  70                 sizelineinfo (112)
                         [pc] (line)
1974  E7                 [001] (-25)
1975  00                 [002] (-25)
1976  00                 [003] (-25)
1977  00                 [004] (-25)
1978  E7                 [005] (-25)
1979  00                 [006] (-25)
197A  00                 [007] (-25)
197B  00                 [008] (-25)
197C  E7                 [009] (-25)
197D  00                 [010] (-25)
197E  00                 [011] (-25)
197F  00                 [012] (-25)
1980  E7                 [013] (-25)
1981  00                 [014] (-25)
1982  00                 [015] (-25)
1983  00                 [016] (-25)
1984  E7                 [017] (-25)
1985  00                 [018] (-25)
1986  00                 [019] (-25)
1987  00                 [020] (-25)
1988  E7                 [021] (-25)
1989  00                 [022] (-25)
198A  00                 [023] (-25)
198B  00                 [024] (-25)
198C  E7                 [025] (-25)
198D  00                 [026] (-25)
198E  00                 [027] (-25)
198F  00                 [028] (-25)
1990  E7                 [029] (-25)
1991  00                 [030] (-25)
1992  00                 [031] (-25)
1993  00                 [032] (-25)
1994  E7                 [033] (-25)
1995  00                 [034] (-25)
1996  00                 [035] (-24)
1997  00                 [036] (-21)
1998  E7                 [037] (-21)
1999  00                 [038] (-20)
199A  00                 [039] (-20)
199B  00                 [040] (-20)
199C  E7                 [041] (-20)
199D  00                 [042] (-20)
199E  00                 [043] (-19)
199F  00                 [044] (-16)
19A0  E7                 [045] (-16)
19A1  00                 [046] (-15)
19A2  00                 [047] (-13)
19A3  00                 [048] (-13)
19A4  E7                 [049] (-12)
19A5  00                 [050] (-12)
19A6  00                 [051] (-11)
19A7  00                 [052] (-11)
19A8  E7                 [053] (-10)
19A9  00                 [054] (-10)
19AA  00                 [055] (-9)
19AB  00                 [056] (-9)
19AC  E7                 [057] (-8)
19AD  00                 [058] (-8)
19AE  00                 [059] (-7)
19AF  00                 [060] (-7)
19B0  E7                 [061] (-6)
19B1  00                 [062] (-6)
19B2  00                 [063] (-4)
19B3  00                 [064] (-1)
19B4  E7                 [065] (-1)
19B5  00                 [066] (-1)
19B6  00                 [067] (-1)
19B7  00                 [068] (-1)
19B8  E7                 [069] (-1)
19B9  00                 [070] (-1)
19BA  00                 [071] (-1)
19BB  00                 [072] (0)
19BC  E7                 [073] (0)
19BD  00                 [074] (0)
19BE  00                 [075] (0)
19BF  00                 [076] (0)
19C0  E7                 [077] (0)
19C1  00                 [078] (1)
19C2  00                 [079] (2)
19C3  00                 [080] (2)
19C4  E7                 [081] (2)
19C5  00                 [082] (2)
19C6  00                 [083] (2)
19C7  00                 [084] (2)
19C8  E7                 [085] (4)
19C9  00                 [086] (4)
19CA  00                 [087] (4)
19CB  00                 [088] (4)
19CC  E7                 [089] (4)
19CD  00                 [090] (4)
19CE  00                 [091] (4)
19CF  00                 [092] (4)
19D0  E7                 [093] (4)
19D1  00                 [094] (4)
19D2  00                 [095] (5)
19D3  00                 [096] (8)
19D4  E7                 [097] (8)
19D5  00                 [098] (10)
19D6  00                 [099] (10)
19D7  00                 [100] (10)
19D8  E7                 [101] (12)
19D9  00                 [102] (12)
19DA  00                 [103] (12)
19DB  00                 [104] (12)
19DC  E7                 [105] (13)
19DD  00                 [106] (13)
19DE  00                 [107] (13)
19DF  00                 [108] (13)
19E0  E7                 [109] (13)
19E1  00                 [110] (13)
19E2  00                 [111] (12)
19E3  00                 [112] (15)
                         * locals:
1B34  00                 sizelocvars (0)
                         * upvalues:
1B35  00                 sizeupvalues (0)
                         ** end of function **

                         
1B36                     ** function [6] definition (level 2)
                         ** start of function **
1B36  00                 string size (0)
                         source name: (none)
1B38  02                 line defined (273)
1B39  A8                 last line defined (296)
1B3A  02                 nups (0)
1B3B  00                 numparams (1)
1B3C  01                 is_vararg (0)
1B3D  00                 maxstacksize (10)
                         * code:
1B3F  40                 sizecode (64)
1B40  64004000           [01] self       1   0   256  ; -1625438872
1B44  DD400000           [02] getglobal  3   1        ; hackedFx
1B48  62808001           [03] call       1   3   2  
1B4C  9D800000           [04] getglobal  2   2        ; 1074689893
1B50  D2008000           [05] move       3   1      
1B54  A2800001           [06] call       2   2   2  
1B58  98000000           [07] test       2       0    ; to [9] if true
1B5C  1AC00280           [08] jmp        12           ; to [21]
1B60  9D800000           [09] getglobal  2   2        ; 1074689893
1B64  DD400000           [10] getglobal  3   1        ; hackedFx
1B68  A2800001           [11] call       2   2   2  
1B6C  98400000           [12] test       2       1    ; to [14] if false
1B70  1A800180           [13] jmp        7            ; to [21]
1B74  A4C04000           [14] self       2   0   259  ; -1421644046
1B78  1D410000           [15] getglobal  4   1        ; hackedFx
1B7C  5D010100           [16] getglobal  5   4        ; EMPTY_SYMBOL
1B80  9D410100           [17] getglobal  6   5        ; ZERO_VECTOR
1B84  DD810100           [18] getglobal  7   6        ; ZERO_ROTATION
1B88  12020000           [19] move       8   0      
1B8C  A2408003           [20] call       2   7   1  
1B90  9D800000           [21] getglobal  2   2        ; 1074689893
1B94  DDC00100           [22] getglobal  3   7        ; ambulasHackedMarkerInfo
1B98  A2800001           [23] call       2   2   2  
1B9C  98400000           [24] test       2       1    ; to [26] if false
1BA0  1A800580           [25] jmp        23           ; to [49]
1BA4  A4004000           [26] self       2   0   256  ; -1625438872
1BA8  1DC10100           [27] getglobal  4   7        ; ambulasHackedMarkerInfo
1BAC  A2808001           [28] call       2   3   2  
1BB0  DD800000           [29] getglobal  3   2        ; 1074689893
1BB4  12010001           [30] move       4   2      
1BB8  E2800001           [31] call       3   2   2  
1BBC  D8000000           [32] test       3       0    ; to [34] if true
1BC0  1AC00180           [33] jmp        8            ; to [42]
1BC4  E4C04000           [34] self       3   0   259  ; -1421644046
1BC8  5DC10100           [35] getglobal  5   7        ; ambulasHackedMarkerInfo
1BCC  9D010100           [36] getglobal  6   4        ; EMPTY_SYMBOL
1BD0  DD410100           [37] getglobal  7   5        ; ZERO_VECTOR
1BD4  1D820100           [38] getglobal  8   6        ; ZERO_ROTATION
1BD8  52020000           [39] move       9   0      
1BDC  E2808003           [40] call       3   7   2  
1BE0  92008001           [41] move       2   3      
1BE4  DD800000           [42] getglobal  3   2        ; 1074689893
1BE8  12010001           [43] move       4   2      
1BEC  E2800001           [44] call       3   2   2  
1BF0  D8400000           [45] test       3       1    ; to [47] if false
1BF4  1A400080           [46] jmp        2            ; to [49]
1BF8  E4004201           [47] self       3   2   264  ; -974578778
1BFC  E2400001           [48] call       3   2   1  
1C00  DD800000           [49] getglobal  3   2        ; 1074689893
1C04  1D410200           [50] getglobal  4   9        ; ambulasBossMarkerInfo
1C08  E2800001           [51] call       3   2   2  
1C0C  D8400000           [52] test       3       1    ; to [54] if false
1C10  1A400280           [53] jmp        10           ; to [64]
1C14  E4004000           [54] self       3   0   256  ; -1625438872
1C18  5D410200           [55] getglobal  5   9        ; ambulasBossMarkerInfo
1C1C  E2808001           [56] call       3   3   2  
1C20  1D810000           [57] getglobal  4   2        ; 1074689893
1C24  52018001           [58] move       5   3      
1C28  22810001           [59] call       4   2   2  
1C2C  18410000           [60] test       4       1    ; to [62] if false
1C30  1A400080           [61] jmp        2            ; to [64]
1C34  2481C201           [62] self       4   3   266  ; 766584623
1C38  22410001           [63] call       4   2   1  
1C3C  1E008000           [64] return     0   1      
                         * constants:
1C40  0B                 sizek (11)
1C41  01                 const type 3
1C42  68C51D9F           const [0]: (-1625438872)
1C46  04                 const type 4
1C47  09                 string size (9)
1C48  6861636B65644678+  "hackedFx"
1C50  00                 "\0"
                         const [1]: "hackedFx"
1C51  01                 const type 3
1C52  65770E40           const [2]: (1074689893)
1C56  01                 const type 3
1C57  F26E43AB           const [3]: (-1421644046)
1C5B  04                 const type 4
1C5C  0D                 string size (13)
1C5D  454D5054595F5359+  "EMPTY_SY"
1C65  4D424F4C00         "MBOL\0"
                         const [4]: "EMPTY_SYMBOL"
1C6A  04                 const type 4
1C6B  0C                 string size (12)
1C6C  5A45524F5F564543+  "ZERO_VEC"
1C74  544F5200           "TOR\0"
                         const [5]: "ZERO_VECTOR"
1C78  04                 const type 4
1C79  0E                 string size (14)
1C7A  5A45524F5F524F54+  "ZERO_ROT"
1C82  4154494F4E00       "ATION\0"
                         const [6]: "ZERO_ROTATION"
1C88  04                 const type 4
1C89  18                 string size (24)
1C8A  616D62756C617348+  "ambulasH"
1C92  61636B65644D6172+  "ackedMar"
1C9A  6B6572496E666F00   "kerInfo\0"
                         const [7]: "ambulasHackedMarkerInfo"
1CA2  01                 const type 3
1CA3  A61BE9C5           const [8]: (-974578778)
1CA7  04                 const type 4
1CA8  16                 string size (22)
1CA9  616D62756C617342+  "ambulasB"
1CB1  6F73734D61726B65+  "ossMarke"
1CB9  72496E666F00       "rInfo\0"
                         const [9]: "ambulasBossMarkerInfo"
1CBF  01                 const type 3
1CC0  2F27B12D           const [10]: (766584623)
                         * functions:
1CC4  00                 sizep (0)
                         * lines:
1CC5  40                 sizelineinfo (64)
                         [pc] (line)
1CC6  12                 [01] (18)
1CC7  01                 [02] (18)
1CC8  00                 [03] (18)
1CC9  00                 [04] (19)
1CCA  12                 [05] (19)
1CCB  01                 [06] (19)
1CCC  00                 [07] (19)
1CCD  00                 [08] (19)
1CCE  12                 [09] (19)
1CCF  01                 [10] (19)
1CD0  00                 [11] (19)
1CD1  00                 [12] (19)
1CD2  13                 [13] (19)
1CD3  01                 [14] (20)
1CD4  00                 [15] (20)
1CD5  00                 [16] (20)
1CD6  13                 [17] (20)
1CD7  01                 [18] (20)
1CD8  00                 [19] (20)
1CD9  00                 [20] (20)
1CDA  13                 [21] (23)
1CDB  01                 [22] (23)
1CDC  00                 [23] (23)
1CDD  00                 [24] (23)
1CDE  13                 [25] (23)
1CDF  01                 [26] (24)
1CE0  00                 [27] (24)
1CE1  00                 [28] (24)
1CE2  13                 [29] (25)
1CE3  01                 [30] (25)
1CE4  00                 [31] (25)
1CE5  00                 [32] (25)
1CE6  13                 [33] (25)
1CE7  01                 [34] (26)
1CE8  00                 [35] (26)
1CE9  00                 [36] (26)
1CEA  13                 [37] (26)
1CEB  01                 [38] (26)
1CEC  00                 [39] (26)
1CED  00                 [40] (26)
1CEE  13                 [41] (26)
1CEF  01                 [42] (29)
1CF0  00                 [43] (29)
1CF1  00                 [44] (29)
1CF2  13                 [45] (29)
1CF3  01                 [46] (29)
1CF4  00                 [47] (30)
1CF5  00                 [48] (30)
1CF6  13                 [49] (34)
1CF7  01                 [50] (34)
1CF8  00                 [51] (34)
1CF9  00                 [52] (34)
1CFA  14                 [53] (34)
1CFB  01                 [54] (35)
1CFC  00                 [55] (35)
1CFD  00                 [56] (35)
1CFE  14                 [57] (36)
1CFF  01                 [58] (36)
1D00  00                 [59] (36)
1D01  00                 [60] (36)
1D02  14                 [61] (36)
1D03  01                 [62] (37)
1D04  00                 [63] (37)
1D05  00                 [64] (40)
                         * locals:
1DC6  00                 sizelocvars (0)
                         * upvalues:
1DC7  00                 sizeupvalues (0)
                         ** end of function **

                         
1DC8                     ** function [7] definition (level 2)
                         ** start of function **
1DC8  00                 string size (0)
                         source name: (none)
1DCA  02                 line defined (298)
1DCB  C8                 last line defined (456)
1DCC  03                 nups (7)
1DCD  07                 numparams (3)
1DCE  03                 is_vararg (0)
1DCF  00                 maxstacksize (33)
                         * code:
1DD2  03                 sizecode (434)
1DD3  E4004001           [001] self       3   2   256  ; -1870903749
1DD7  E2800001           [002] call       3   2   2  
1DDB  1D410000           [003] getglobal  4   1        ; 1074689893
1DDF  52010001           [004] move       5   2      
1DE3  22810001           [005] call       4   2   2  
1DE7  18410000           [006] test       4       1    ; to [8] if false
1DEB  1A000380           [007] jmp        13           ; to [21]
1DEF  24814001           [008] self       4   2   258  ; -1318948062
1DF3  22810001           [009] call       4   2   2  
1DF7  18010000           [010] test       4       0    ; to [12] if true
1DFB  1A000280           [011] jmp        9            ; to [21]
1DFF  1D410000           [012] getglobal  4   1        ; 1074689893
1E03  52018001           [013] move       5   3      
1E07  22810001           [014] call       4   2   2  
1E0B  18410000           [015] test       4       1    ; to [17] if false
1E0F  1AC00080           [016] jmp        4            ; to [21]
1E13  24C1C001           [017] self       4   3   259  ; 1511086594
1E17  22810001           [018] call       4   2   2  
1E1B  18010000           [019] test       4       0    ; to [21] if true
1E1F  1A800080           [020] jmp        3            ; to [24]
1E23  24014101           [021] self       4   2   260  ; 766584623
1E27  22410001           [022] call       4   2   1  
1E2B  1E008000           [023] return     0   1      
1E2F  1D410000           [024] getglobal  4   1        ; 1074689893
1E33  52010000           [025] move       5   0      
1E37  22810001           [026] call       4   2   2  
1E3B  18410000           [027] test       4       1    ; to [29] if false
1E3F  1AC00080           [028] jmp        4            ; to [33]
1E43  24C14000           [029] self       4   0   259  ; 1511086594
1E47  22810001           [030] call       4   2   2  
1E4B  18010000           [031] test       4       0    ; to [33] if true
1E4F  1A000080           [032] jmp        1            ; to [34]
1E53  1E008000           [033] return     0   1      
fail op	33
1E57  2140C100           [034] tforloop   0       261  ; to [36] if exit
1E5B  1A400180           [035] jmp        6            ; to [42]
1E5F  13010000           [036] getupval   4   0      
1E63  52018001           [037] move       5   3      
1E67  92010000           [038] move       6   0      
1E6B  DD810100           [039] getglobal  7   6        ; damageOnFail
1E6F  22410002           [040] call       4   4   1  
1E73  1E008000           [041] return     0   1      
1E77  24C1C101           [042] self       4   3   263  ; -1625438872
1E7B  9D010200           [043] getglobal  6   8        ; hackedFx
1E7F  22818001           [044] call       4   3   2  
1E83  5D410000           [045] getglobal  5   1        ; 1074689893
1E87  92010002           [046] move       6   4      
1E8B  62810001           [047] call       5   2   2  
1E8F  58410000           [048] test       5       1    ; to [50] if false
1E93  1A400080           [049] jmp        2            ; to [52]
1E97  64414202           [050] self       5   4   265  ; -725453761
1E9B  62410001           [051] call       5   2   1  
1E9F  57010000           [052] loadbool   5   0   0    ; false
1EA3  9D810200           [053] getglobal  6   10       ; gGameRules
1EA7  A4C14203           [054] self       6   6   267  ; -1201441975
1EAB  A2810001           [055] call       6   2   2  
1EAF  DD410000           [056] getglobal  7   1        ; 1074689893
1EB3  12020003           [057] move       8   6      
1EB7  E2810001           [058] call       7   2   2  
1EBB  D8410000           [059] test       7       1    ; to [61] if false
1EBF  1AC00280           [060] jmp        12           ; to [73]
1EC3  DD410000           [061] getglobal  7   1        ; 1074689893
1EC7  0E024303           [062] gettable   8   6   268  ; "vipAgent"
1ECB  E2810001           [063] call       7   2   2  
1ECF  D8410000           [064] test       7       1    ; to [66] if false
1ED3  1A800180           [065] jmp        7            ; to [73]
1ED7  CE014303           [066] gettable   7   6   268  ; "vipAgent"
1EDB  E441C303           [067] self       7   7   269  ; -1957065004
1EDF  53028000           [068] getupval   9   1      
1EE3  E2818001           [069] call       7   3   2  
1EE7  D8010000           [070] test       7       0    ; to [72] if true
1EEB  1A000080           [071] jmp        1            ; to [73]
1EEF  57018000           [072] loadbool   5   1   0    ; true
1EF3  58010000           [073] test       5       0    ; to [75] if true
1EF7  1A403380           [074] jmp        206          ; to [281]
1EFB  E481C301           [075] self       7   3   270  ; -1081228973
1EFF  E2810001           [076] call       7   2   2  
1F03  24C24300           [077] self       8   0   271  ; -2031737093
1F07  22820001           [078] call       8   2   2  
fail op	35
1F0B  23008203           [079] close      0  
1F0F  1A801680           [080] jmp        91           ; to [172]
1F13  DD010400           [081] getglobal  7   16       ; gRegion
1F17  E441C403           [082] self       7   7   273  ; -1520831144
1F1B  E2810001           [083] call       7   2   2  
1F1F  D8010000           [084] test       7       0    ; to [86] if true
1F23  1AC00380           [085] jmp        16           ; to [102]
1F27  E481C401           [086] self       7   3   274  ; -1238731105
1F2B  59C20400           [087] loadk      9   19       ; 32
1F2F  E2418001           [088] call       7   3   1  
1F33  E401C501           [089] self       7   3   276  ; -452063099
1F37  5D420500           [090] getglobal  9   21       ; Engine
1F3B  4E82C504           [091] gettable   9   9   278  ; "PM_MENACE"
1F3F  97028000           [092] loadbool   10  1   0    ; true
1F43  E2410002           [093] call       7   4   1  
1F47  E4C1C501           [094] self       7   3   279  ; -1544157541
1F4B  E2810001           [095] call       7   2   2  
1F4F  E401C603           [096] self       7   7   280  ; -1992773175
1F53  64C2C501           [097] self       9   3   279  ; -1544157541
1F57  62820001           [098] call       9   2   2  
1F5B  6442C604           [099] self       9   9   281  ; -227502409
1F5F  62020001           [100] call       9   2   0  
1F63  E2410000           [101] call       7   0   1  
1F67  E481C601           [102] self       7   3   282  ; 366271214
1F6B  5DC20600           [103] getglobal  9   27       ; ambulasHackActionType
1F6F  E2818001           [104] call       7   3   2  
1F73  19020700           [105] loadk      8   28       ; 0
1F77  4A028003           [106] len        9   7      
1F7B  99020700           [107] loadk      10  28       ; 0
1F7F  10C20480           [108] forprep    8   20       ; to [129]
1F83  0EC38203           [109] gettable   12  7   11 
1F87  5D430000           [110] getglobal  13  1        ; 1074689893
1F8B  92030006           [111] move       14  12     
1F8F  62830001           [112] call       13  2   2  
1F93  58430000           [113] test       13      1    ; to [115] if false
1F97  1A400380           [114] jmp        14           ; to [129]
1F9B  5D430700           [115] getglobal  13  29       ; ambulasHackKeepPlayerNpcUse
1F9F  58030000           [116] test       13      0    ; to [118] if true
1FA3  1A000180           [117] jmp        5            ; to [123]
1FA7  64434306           [118] self       13  12  269  ; -1957065004
1FAB  D2030001           [119] move       15  2      
1FAF  62838001           [120] call       13  3   2  
1FB3  58430000           [121] test       13      1    ; to [123] if false
1FB7  1AC00080           [122] jmp        4            ; to [127]
1FBB  64834706           [123] self       13  12  286  ; -846300631
1FBF  D7038000           [124] loadbool   15  1   0    ; true
1FC3  17048000           [125] loadbool   16  1   0    ; true
1FC7  62430002           [126] call       13  4   1  
1FCB  64034106           [127] self       13  12  260  ; 766584623
1FCF  62430001           [128] call       13  2   1  
1FD3  1482FA7F           [129] forloop    8   -21      ; to [109] if loop
1FD7  5D430000           [130] getglobal  13  1        ; 1074689893
1FDB  9DC30700           [131] getglobal  14  31       ; ambulasHackedMarkerInfo
1FDF  62830001           [132] call       13  2   2  
1FE3  58430000           [133] test       13      1    ; to [135] if false
1FE7  1A400280           [134] jmp        10           ; to [145]
1FEB  64C3C101           [135] self       13  3   263  ; -1625438872
1FEF  DDC30700           [136] getglobal  15  31       ; ambulasHackedMarkerInfo
1FF3  62838001           [137] call       13  3   2  
1FF7  9D430000           [138] getglobal  14  1        ; 1074689893
1FFB  D2038006           [139] move       15  13     
1FFF  A2830001           [140] call       14  2   2  
2003  98430000           [141] test       14      1    ; to [143] if false
2007  1A400080           [142] jmp        2            ; to [145]
200B  A403C106           [143] self       14  13  260  ; 766584623
200F  A2430001           [144] call       14  2   1  
2013  9D430000           [145] getglobal  14  1        ; 1074689893
2017  DD030800           [146] getglobal  15  32       ; ambulasBossMarkerInfo
201B  A2830001           [147] call       14  2   2  
201F  98430000           [148] test       14      1    ; to [150] if false
2023  1A400280           [149] jmp        10           ; to [160]
2027  A4C3C101           [150] self       14  3   263  ; -1625438872
202B  1D040800           [151] getglobal  16  32       ; ambulasBossMarkerInfo
202F  A2838001           [152] call       14  3   2  
2033  DD430000           [153] getglobal  15  1        ; 1074689893
2037  12040007           [154] move       16  14     
203B  E2830001           [155] call       15  2   2  
203F  D8430000           [156] test       15      1    ; to [158] if false
2043  1A400080           [157] jmp        2            ; to [160]
2047  E4434807           [158] self       15  14  289  ; -974578778
204B  E2430001           [159] call       15  2   1  
204F  DD830800           [160] getglobal  15  34       ; -421772368
2053  1DC40800           [161] getglobal  16  35       ; ambulasUnHackImpactMessageLocTag
2057  46048008           [162] loadnil    17  17     
205B  E2838001           [163] call       15  3   2  
205F  1D040900           [164] getglobal  16  36       ; _T
2063  0E444908           [165] gettable   16  16  293  ; -1553752463
2067  52048007           [166] move       17  15     
206B  99840900           [167] loadk      18  38       ; 0
206F  C604000A           [168] loadnil    19  20     
2073  57050000           [169] loadbool   21  0   0    ; false
2077  22440003           [170] call       16  6   1  
207B  1A404180           [171] jmp        262          ; to [434]
207F  1D440700           [172] getglobal  16  29       ; ambulasHackKeepPlayerNpcUse
2083  18440000           [173] test       16      1    ; to [175] if false
2087  1AC00080           [174] jmp        4            ; to [179]
208B  24844701           [175] self       16  2   286  ; -846300631
208F  97040000           [176] loadbool   18  0   0    ; false
2093  D7048000           [177] loadbool   19  1   0    ; true
2097  22440002           [178] call       16  4   1  
209B  13040001           [179] getupval   16  2      
209F  52048001           [180] move       17  3      
20A3  22440001           [181] call       16  2   1  
20A7  1D040400           [182] getglobal  16  16       ; gRegion
20AB  24444408           [183] self       16  16  273  ; -1520831144
20AF  22840001           [184] call       16  2   2  
20B3  18040000           [185] test       16      0    ; to [187] if true
20B7  1AC00080           [186] jmp        4            ; to [191]
20BB  24C4C501           [187] self       16  3   279  ; -1544157541
20BF  22840001           [188] call       16  2   2  
20C3  24C44908           [189] self       16  16  295  ; 110494148
20C7  22440001           [190] call       16  2   1  
20CB  1D440700           [191] getglobal  16  29       ; ambulasHackKeepPlayerNpcUse
20CF  18440000           [192] test       16      1    ; to [194] if false
20D3  1AC00E80           [193] jmp        60           ; to [254]
20D7  1D440000           [194] getglobal  16  1        ; 1074689893
20DB  5D040A00           [195] getglobal  17  40       ; ambulasEventTransmissionSet
20DF  22840001           [196] call       16  2   2  
20E3  18440000           [197] test       16      1    ; to [199] if false
20E7  1A400E80           [198] jmp        58           ; to [257]
20EB  13048001           [199] getupval   16  3      
20EF  0E444A08           [200] gettable   16  16  297  ; 1776858983
20F3  22848000           [201] call       16  1   2  
20F7  18440000           [202] test       16      1    ; to [204] if false
20FB  1A000D80           [203] jmp        53           ; to [257]
20FF  1D840A00           [204] getglobal  16  42       ; -332969190
2103  59C40A00           [205] loadk      17  43       ; "AmbulasHackOrders"
2107  22840001           [206] call       16  2   2  
210B  5D840200           [207] getglobal  17  10       ; gGameRules
210F  6404CB08           [208] self       17  17  300  ; -317790213
2113  D2040008           [209] move       19  16     
2117  19450100           [210] loadk      20  5        ; 0
211B  62840002           [211] call       17  4   2  
211F  9D440000           [212] getglobal  18  1        ; 1074689893
2123  D2048008           [213] move       19  17     
2127  A2840001           [214] call       18  2   2  
212B  98440000           [215] test       18      1    ; to [217] if false
212F  1A800480           [216] jmp        19           ; to [236]
fail op	21
2133  15408482           [217] concat     0   261 17 
2137  1A000480           [218] jmp        17           ; to [236]
213B  9D440B00           [219] getglobal  18  45       ; 2083004503
213F  DD040A00           [220] getglobal  19  40       ; ambulasEventTransmissionSet
2143  A2840001           [221] call       18  2   2  
2147  D3040002           [222] getupval   19  4      
214B  CE84CB09           [223] gettable   19  19  302  ; 1387905071
214F  12050009           [224] move       20  18     
2153  5D850A00           [225] getglobal  21  42       ; -332969190
2157  99C50B00           [226] loadk      22  47       ; "AmbulasBossHacked"
215B  62850001           [227] call       21  2   2  
215F  99450100           [228] loadk      22  5        ; 0
2163  E2440002           [229] call       19  4   1  
2167  DD840200           [230] getglobal  19  10       ; gGameRules
216B  E404CC09           [231] self       19  19  304  ; -803877924
216F  52050008           [232] move       21  16     
2173  99450C00           [233] loadk      22  49       ; 0
2177  E2440002           [234] call       19  4   1  
217B  1A000580           [235] jmp        21           ; to [257]
217F  DD840C00           [236] getglobal  19  50       ; 687937235
2183  19450100           [237] loadk      20  5        ; 0
2187  59050700           [238] loadk      21  28       ; 0
218B  E2848001           [239] call       19  3   2  
fail op	35
218F  2340C109           [240] close      0  
2193  1A800380           [241] jmp        15           ; to [257]
2197  1D450B00           [242] getglobal  20  45       ; 2083004503
219B  5D050A00           [243] getglobal  21  40       ; ambulasEventTransmissionSet
219F  22850001           [244] call       20  2   2  
21A3  53050002           [245] getupval   21  4      
21A7  4E85CB0A           [246] gettable   21  21  302  ; 1387905071
21AB  9205000A           [247] move       22  20     
21AF  DD850A00           [248] getglobal  23  42       ; -332969190
21B3  19C60B00           [249] loadk      24  47       ; "AmbulasBossHacked"
21B7  E2850001           [250] call       23  2   2  
21BB  19460100           [251] loadk      24  5        ; 0
21BF  62450002           [252] call       21  4   1  
21C3  1A800080           [253] jmp        3            ; to [257]
21C7  5DC50C00           [254] getglobal  21  51       ; -1817107093
21CB  99050D00           [255] loadk      22  52       ; "ERROR: Player hacked an Osprey-only hack! This might have consequences..."
21CF  62450001           [256] call       21  2   1  
21D3  5D450000           [257] getglobal  21  1        ; 1074689893
21D7  9D450D00           [258] getglobal  22  53       ; ambulasPlayerHackMaterial
21DB  62850001           [259] call       21  2   2  
21DF  58450000           [260] test       21      1    ; to [262] if false
21E3  1AC02A80           [261] jmp        172          ; to [434]
21E7  5D450000           [262] getglobal  21  1        ; 1074689893
21EB  9D850D00           [263] getglobal  22  54       ; ambulasHackPanelDecoType
21EF  62850001           [264] call       21  2   2  
21F3  58450000           [265] test       21      1    ; to [267] if false
21F7  1A802980           [266] jmp        167          ; to [434]
21FB  64C5C101           [267] self       21  3   263  ; -1625438872
21FF  DD850D00           [268] getglobal  23  54       ; ambulasHackPanelDecoType
2203  62858001           [269] call       21  3   2  
2207  9D450000           [270] getglobal  22  1        ; 1074689893
220B  D205800A           [271] move       23  21     
220F  A2850001           [272] call       22  2   2  
2213  98450000           [273] test       22      1    ; to [275] if false
2217  1A802780           [274] jmp        159          ; to [434]
221B  A4C5CD0A           [275] self       22  21  311  ; 1728877662
221F  19060700           [276] loadk      24  28       ; 0
2223  5D460D00           [277] getglobal  25  53       ; ambulasPlayerHackMaterial
2227  97060000           [278] loadbool   26  0   0    ; false
222B  A2458002           [279] call       22  5   1  
222F  1A002680           [280] jmp        153          ; to [434]
2233  9D050400           [281] getglobal  22  16       ; gRegion
2237  A445440B           [282] self       22  22  273  ; -1520831144
223B  A2850001           [283] call       22  2   2  
223F  98050000           [284] test       22      0    ; to [286] if true
2243  1AC01E80           [285] jmp        124          ; to [410]
2247  A405C501           [286] self       22  3   276  ; -452063099
224B  1D460500           [287] getglobal  24  21       ; Engine
224F  0E86450C           [288] gettable   24  24  278  ; "PM_MENACE"
2253  57068000           [289] loadbool   25  1   0    ; true
2257  A2450002           [290] call       22  4   1  
225B  A4C5C101           [291] self       22  3   263  ; -1625438872
225F  1D060200           [292] getglobal  24  8        ; hackedFx
2263  A2858001           [293] call       22  3   2  
2267  DD450000           [294] getglobal  23  1        ; 1074689893
226B  1206000B           [295] move       24  22     
226F  E2850001           [296] call       23  2   2  
2273  D8450000           [297] test       23      1    ; to [299] if false
2277  1A400080           [298] jmp        2            ; to [301]
227B  E445420B           [299] self       23  22  265  ; -725453761
227F  E2450001           [300] call       23  2   1  
2283  E4054101           [301] self       23  2   260  ; 766584623
2287  E2450001           [302] call       23  2   1  
228B  E485C401           [303] self       23  3   274  ; -1238731105
228F  59060E00           [304] loadk      25  56       ; 127
2293  E2458001           [305] call       23  3   1  
2297  E445CE01           [306] self       23  3   313  ; 1800191191
229B  52060000           [307] move       25  0      
229F  E2858001           [308] call       23  3   2  
22A3  D8450000           [309] test       23      1    ; to [311] if false
22A7  1A001680           [310] jmp        89           ; to [400]
22AB  E445C301           [311] self       23  3   269  ; -1957065004
22AF  5D860E00           [312] getglobal  25  58       ; gRiotBipedRobotAvatarType
22B3  E2858001           [313] call       23  3   2  
22B7  D8050000           [314] test       23      0    ; to [316] if true
22BB  1AC00680           [315] jmp        28           ; to [344]
22BF  E4C5CE01           [316] self       23  3   315  ; 402419863
22C3  52060000           [317] move       25  0      
22C7  E2458001           [318] call       23  3   1  
22CB  DD050900           [319] getglobal  23  36       ; _T
22CF  CE05CF0B           [320] gettable   23  23  316  ; "InSimulacrum"
22D3  D8450000           [321] test       23      1    ; to [323] if false
22D7  1A400380           [322] jmp        14           ; to [337]
22DB  E445CF01           [323] self       23  3   317  ; -1917464545
22DF  E2850001           [324] call       23  2   2  
22E3  E485CF0B           [325] self       23  23  318  ; 749822354
22E7  E2450001           [326] call       23  2   1  
22EB  E4C5CF01           [327] self       23  3   319  ; -1411785325
22EF  E2850001           [328] call       23  2   2  
22F3  1D460000           [329] getglobal  24  1        ; 1074689893
22F7  5206800B           [330] move       25  23     
22FB  22860001           [331] call       24  2   2  
22FF  18460000           [332] test       24      1    ; to [334] if false
2303  1A800080           [333] jmp        3            ; to [337]
2307  2406D00B           [334] self       24  23  320  ; 428480489
230B  97060000           [335] loadbool   26  0   0    ; false
230F  22468001           [336] call       24  3   1  
2313  1D060900           [337] getglobal  24  36       ; _T
2317  0E46490C           [338] gettable   24  24  293  ; -1553752463
231B  5D461000           [339] getglobal  25  65       ; hackMessageLocTag
231F  99861000           [340] loadk      26  66       ; 0
2323  C606000E           [341] loadnil    27  28     
2327  57070000           [342] loadbool   29  0   0    ; false
232B  22460003           [343] call       24  6   1  
232F  24C6D001           [344] self       24  3   323  ; 1445902558
2333  93068002           [345] getupval   26  5      
2337  E4C64300           [346] self       27  0   271  ; -2031737093
233B  E2060001           [347] call       27  2   0  
233F  22460000           [348] call       24  0   1  
2343  2406D101           [349] self       24  3   324  ; -1421644046
2347  9D060200           [350] getglobal  26  8        ; hackedFx
234B  DD461100           [351] getglobal  27  69       ; EMPTY_SYMBOL
234F  1D871100           [352] getglobal  28  70       ; ZERO_VECTOR
2353  5DC71100           [353] getglobal  29  71       ; ZERO_ROTATION
2357  92070000           [354] move       30  0      
235B  22468003           [355] call       24  7   1  
235F  24C6C501           [356] self       24  3   279  ; -1544157541
2363  22860001           [357] call       24  2   2  
2367  2406460C           [358] self       24  24  280  ; -1992773175
236B  A4C6C501           [359] self       26  3   279  ; -1544157541
236F  A2860001           [360] call       26  2   2  
2373  A446460D           [361] self       26  26  281  ; -227502409
2377  A2060001           [362] call       26  2   0  
237B  22460000           [363] call       24  0   1  
237F  24C6C501           [364] self       24  3   279  ; -1544157541
2383  22860001           [365] call       24  2   2  
2387  2406520C           [366] self       24  24  328  ; -401086707
238B  97060000           [367] loadbool   26  0   0    ; false
238F  22468001           [368] call       24  3   1  
2393  24C6C501           [369] self       24  3   279  ; -1544157541
2397  22860001           [370] call       24  2   2  
239B  2446520C           [371] self       24  24  329  ; -266172193
239F  97060000           [372] loadbool   26  0   0    ; false
23A3  22468001           [373] call       24  3   1  
23A7  13060003           [374] getupval   24  6      
23AB  22868000           [375] call       24  1   2  
23AF  18060000           [376] test       24      0    ; to [378] if true
23B3  1AC00380           [377] jmp        16           ; to [394]
23B7  1D460000           [378] getglobal  24  1        ; 1074689893
23BB  5D060A00           [379] getglobal  25  40       ; ambulasEventTransmissionSet
23BF  22860001           [380] call       24  2   2  
23C3  18460000           [381] test       24      1    ; to [383] if false
23C7  1A800280           [382] jmp        11           ; to [394]
23CB  1D460B00           [383] getglobal  24  45       ; 2083004503
23CF  5D060A00           [384] getglobal  25  40       ; ambulasEventTransmissionSet
23D3  22860001           [385] call       24  2   2  
23D7  53060002           [386] getupval   25  4      
23DB  4E86CB0C           [387] gettable   25  25  302  ; 1387905071
23DF  9206000C           [388] move       26  24     
23E3  DD860A00           [389] getglobal  27  42       ; -332969190
23E7  19871200           [390] loadk      28  74       ; "AmbulasHacked"
23EB  E2860001           [391] call       27  2   2  
23EF  19470100           [392] loadk      28  5        ; 0
23F3  62460002           [393] call       25  4   1  
23F7  64C6D201           [394] self       25  3   331  ; -1302048094
23FB  DD860A00           [395] getglobal  27  42       ; -332969190
23FF  19071300           [396] loadk      28  76       ; "DelayedDeath"
2403  E2860001           [397] call       27  2   2  
2407  17070000           [398] loadbool   28  0   0    ; false
240B  62460002           [399] call       25  4   1  
240F  64C6CF01           [400] self       25  3   319  ; -1411785325
2413  62860001           [401] call       25  2   2  
2417  9D460000           [402] getglobal  26  1        ; 1074689893
241B  D206800C           [403] move       27  25     
241F  A2860001           [404] call       26  2   2  
2423  98460000           [405] test       26      1    ; to [407] if false
2427  1A800680           [406] jmp        27           ; to [434]
242B  A446D30C           [407] self       26  25  333  ; -1850937571
242F  A2460001           [408] call       26  2   1  
2433  1AC00580           [409] jmp        24           ; to [434]
2437  A406D101           [410] self       26  3   324  ; -1421644046
243B  1D070200           [411] getglobal  28  8        ; hackedFx
243F  5D471100           [412] getglobal  29  69       ; EMPTY_SYMBOL
2443  9D871100           [413] getglobal  30  70       ; ZERO_VECTOR
2447  DDC71100           [414] getglobal  31  71       ; ZERO_ROTATION
244B  12080000           [415] move       32  0      
244F  A2468003           [416] call       26  7   1  
2453  A446CE01           [417] self       26  3   313  ; 1800191191
2457  12070000           [418] move       28  0      
245B  A2868001           [419] call       26  3   2  
245F  98460000           [420] test       26      1    ; to [422] if false
2463  1AC00280           [421] jmp        12           ; to [434]
2467  A446C301           [422] self       26  3   269  ; -1957065004
246B  1D870E00           [423] getglobal  28  58       ; gRiotBipedRobotAvatarType
246F  A2868001           [424] call       26  3   2  
2473  98060000           [425] test       26      0    ; to [427] if true
2477  1A800180           [426] jmp        7            ; to [434]
247B  9D060900           [427] getglobal  26  36       ; _T
247F  8E46490D           [428] gettable   26  26  293  ; -1553752463
2483  DD461000           [429] getglobal  27  65       ; hackMessageLocTag
2487  19871000           [430] loadk      28  66       ; 0
248B  4607000F           [431] loadnil    29  30     
248F  D7070000           [432] loadbool   31  0   0    ; false
2493  A2460003           [433] call       26  6   1  
2497  1E008000           [434] return     0   1      
                         * constants:
249B  4E                 sizek (78)
249C  01                 const type 3
249D  3B467C90           const [0]: (-1870903749)
24A1  01                 const type 3
24A2  65770E40           const [1]: (1074689893)
24A6  01                 const type 3
24A7  227362B1           const [2]: (-1318948062)
24AB  01                 const type 3
24AC  025A115A           const [3]: (1511086594)
24B0  01                 const type 3
24B1  2F27B12D           const [4]: (766584623)
24B5  03                 const type 3
24B6  00000000           const [5]: (0)
24BA  04                 const type 4
24BB  0D                 string size (13)
24BC  64616D6167654F6E+  "damageOn"
24C4  4661696C00         "Fail\0"
                         const [6]: "damageOnFail"
24C9  01                 const type 3
24CA  68C51D9F           const [7]: (-1625438872)
24CE  04                 const type 4
24CF  09                 string size (9)
24D0  6861636B65644678+  "hackedFx"
24D8  00                 "\0"
                         const [8]: "hackedFx"
24D9  01                 const type 3
24DA  3F74C2D4           const [9]: (-725453761)
24DE  04                 const type 4
24DF  0B                 string size (11)
24E0  6747616D6552756C+  "gGameRul"
24E8  657300             "es\0"
                         const [10]: "gGameRules"
24EB  01                 const type 3
24EC  497363B8           const [11]: (-1201441975)
24F0  04                 const type 4
24F1  09                 string size (9)
24F2  7669704167656E74+  "vipAgent"
24FA  00                 "\0"
                         const [12]: "vipAgent"
24FB  01                 const type 3
24FC  D48E598B           const [13]: (-1957065004)
2500  01                 const type 3
2501  53C18DBF           const [14]: (-1081228973)
2505  01                 const type 3
2506  FB26E686           const [15]: (-2031737093)
250A  04                 const type 4
250B  08                 string size (8)
250C  67526567696F6E00   "gRegion\0"
                         const [16]: "gRegion"
2514  01                 const type 3
2515  58F559A5           const [17]: (-1520831144)
2519  01                 const type 3
251A  9F762AB6           const [18]: (-1238731105)
251E  03                 const type 3
251F  20BCBE4C           const [19]: (32)
2523  01                 const type 3
2524  85100EE5           const [20]: (-452063099)
2528  04                 const type 4
2529  07                 string size (7)
252A  456E67696E6500     "Engine\0"
                         const [21]: "Engine"
2531  04                 const type 4
2532  0A                 string size (10)
2533  504D5F4D454E4143+  "PM_MENAC"
253B  4500               "E\0"
                         const [22]: "PM_MENACE"
253D  01                 const type 3
253E  9B06F6A3           const [23]: (-1544157541)
2542  01                 const type 3
2543  C9B13889           const [24]: (-1992773175)
2547  01                 const type 3
2548  B79670F2           const [25]: (-227502409)
254C  01                 const type 3
254D  EEDAD415           const [26]: (366271214)
2551  04                 const type 4
2552  16                 string size (22)
2553  616D62756C617348+  "ambulasH"
255B  61636B416374696F+  "ackActio"
2563  6E5479706500       "nType\0"
                         const [27]: "ambulasHackActionType"
2569  03                 const type 3
256A  0000803F           const [28]: (0)
256E  04                 const type 4
256F  1C                 string size (28)
2570  616D62756C617348+  "ambulasH"
2578  61636B4B65657050+  "ackKeepP"
2580  6C617965724E7063+  "layerNpc"
2588  55736500           "Use\0"
                         const [29]: "ambulasHackKeepPlayerNpcUse"
258C  01                 const type 3
258D  297A8ECD           const [30]: (-846300631)
2591  04                 const type 4
2592  18                 string size (24)
2593  616D62756C617348+  "ambulasH"
259B  61636B65644D6172+  "ackedMar"
25A3  6B6572496E666F00   "kerInfo\0"
                         const [31]: "ambulasHackedMarkerInfo"
25AB  04                 const type 4
25AC  16                 string size (22)
25AD  616D62756C617342+  "ambulasB"
25B5  6F73734D61726B65+  "ossMarke"
25BD  72496E666F00       "rInfo\0"
                         const [32]: "ambulasBossMarkerInfo"
25C3  01                 const type 3
25C4  A61BE9C5           const [33]: (-974578778)
25C8  01                 const type 3
25C9  B043DCE6           const [34]: (-421772368)
25CD  04                 const type 4
25CE  21                 string size (33)
25CF  616D62756C617355+  "ambulasU"
25D7  6E4861636B496D70+  "nHackImp"
25DF  6163744D65737361+  "actMessa"
25E7  67654C6F63546167+  "geLocTag"
25EF  00                 "\0"
                         const [35]: "ambulasUnHackImpactMessageLocTag"
25F0  04                 const type 4
25F1  03                 string size (3)
25F2  5F5400             "_T\0"
                         const [36]: "_T"
25F5  01                 const type 3
25F6  719E63A3           const [37]: (-1553752463)
25FA  03                 const type 3
25FB  0000C040           const [38]: (0)
25FF  01                 const type 3
2600  C4019606           const [39]: (110494148)
2604  04                 const type 4
2605  1C                 string size (28)
2606  616D62756C617345+  "ambulasE"
260E  76656E745472616E+  "ventTran"
2616  736D697373696F6E+  "smission"
261E  53657400           "Set\0"
                         const [40]: "ambulasEventTransmissionSet"
2622  01                 const type 3
2623  67B7E869           const [41]: (1776858983)
2627  01                 const type 3
2628  1A4B27EC           const [42]: (-332969190)
262C  04                 const type 4
262D  12                 string size (18)
262E  416D62756C617348+  "AmbulasH"
2636  61636B4F72646572+  "ackOrder"
263E  7300               "s\0"
                         const [43]: "AmbulasHackOrders"
2640  01                 const type 3
2641  FBE70EED           const [44]: (-317790213)
2645  01                 const type 3
2646  5720287C           const [45]: (2083004503)
264A  01                 const type 3
264B  2FC0B952           const [46]: (1387905071)
264F  04                 const type 4
2650  12                 string size (18)
2651  416D62756C617342+  "AmbulasB"
2659  6F73734861636B65+  "ossHacke"
2661  6400               "d\0"
                         const [47]: "AmbulasBossHacked"
2663  01                 const type 3
2664  DCCB15D0           const [48]: (-803877924)
2668  03                 const type 3
2669  00000040           const [49]: (0)
266D  01                 const type 3
266E  D3160129           const [50]: (687937235)
2672  01                 const type 3
2673  6B25B193           const [51]: (-1817107093)
2677  04                 const type 4
2678  4A                 string size (74)
2679  4552524F523A2050+  "ERROR: P"
2681  6C61796572206861+  "layer ha"
2689  636B656420616E20+  "cked an "
2691  4F73707265792D6F+  "Osprey-o"
2699  6E6C79206861636B+  "nly hack"
26A1  212054686973206D+  "! This m"
26A9  6967687420686176+  "ight hav"
26B1  6520636F6E736571+  "e conseq"
26B9  75656E6365732E2E+  "uences.."
26C1  2E00               ".\0"
                         const [52]: "ERROR: Player hacked an Osprey-only hack! This might have consequences..."
26C3  04                 const type 4
26C4  1A                 string size (26)
26C5  616D62756C617350+  "ambulasP"
26CD  6C61796572486163+  "layerHac"
26D5  6B4D617465726961+  "kMateria"
26DD  6C00               "l\0"
                         const [53]: "ambulasPlayerHackMaterial"
26DF  04                 const type 4
26E0  19                 string size (25)
26E1  616D62756C617348+  "ambulasH"
26E9  61636B50616E656C+  "ackPanel"
26F1  4465636F54797065+  "DecoType"
26F9  00                 "\0"
                         const [54]: "ambulasHackPanelDecoType"
26FA  01                 const type 3
26FB  5E940C67           const [55]: (1728877662)
26FF  03                 const type 3
2700  7F96184B           const [56]: (127)
2704  01                 const type 3
2705  D7BC4C6B           const [57]: (1800191191)
2709  04                 const type 4
270A  1A                 string size (26)
270B  6752696F74426970+  "gRiotBip"
2713  6564526F626F7441+  "edRobotA"
271B  7661746172547970+  "vatarTyp"
2723  6500               "e\0"
                         const [58]: "gRiotBipedRobotAvatarType"
2725  01                 const type 3
2726  9770FC17           const [59]: (402419863)
272A  04                 const type 4
272B  0D                 string size (13)
272C  496E53696D756C61+  "InSimula"
2734  6372756D00         "crum\0"
                         const [60]: "InSimulacrum"
2739  01                 const type 3
273A  1FD0B58D           const [61]: (-1917464545)
273E  01                 const type 3
273F  9261B12C           const [62]: (749822354)
2743  01                 const type 3
2744  93DDD9AB           const [63]: (-1411785325)
2748  01                 const type 3
2749  E9178A19           const [64]: (428480489)
274D  04                 const type 4
274E  12                 string size (18)
274F  6861636B4D657373+  "hackMess"
2757  6167654C6F635461+  "ageLocTa"
275F  6700               "g\0"
                         const [65]: "hackMessageLocTag"
2761  03                 const type 3
2762  00004040           const [66]: (0)
2766  01                 const type 3
2767  DEB82E56           const [67]: (1445902558)
276B  01                 const type 3
276C  F26E43AB           const [68]: (-1421644046)
2770  04                 const type 4
2771  0D                 string size (13)
2772  454D5054595F5359+  "EMPTY_SY"
277A  4D424F4C00         "MBOL\0"
                         const [69]: "EMPTY_SYMBOL"
277F  04                 const type 4
2780  0C                 string size (12)
2781  5A45524F5F564543+  "ZERO_VEC"
2789  544F5200           "TOR\0"
                         const [70]: "ZERO_VECTOR"
278D  04                 const type 4
278E  0E                 string size (14)
278F  5A45524F5F524F54+  "ZERO_ROT"
2797  4154494F4E00       "ATION\0"
                         const [71]: "ZERO_ROTATION"
279D  01                 const type 3
279E  0DE717E8           const [72]: (-401086707)
27A2  01                 const type 3
27A3  DF8822F0           const [73]: (-266172193)
27A7  04                 const type 4
27A8  0E                 string size (14)
27A9  416D62756C617348+  "AmbulasH"
27B1  61636B656400       "acked\0"
                         const [74]: "AmbulasHacked"
27B7  01                 const type 3
27B8  A25264B2           const [75]: (-1302048094)
27BC  04                 const type 4
27BD  0D                 string size (13)
27BE  44656C6179656444+  "DelayedD"
27C6  6561746800         "eath\0"
                         const [76]: "DelayedDeath"
27CB  01                 const type 3
27CC  1DEFAC91           const [77]: (-1850937571)
                         * functions:
27D0  00                 sizep (0)
                         * lines:
27D2  03                 sizelineinfo (434)
                         [pc] (line)
27D3  2B                 [001] (43)
27D4  01                 [002] (43)
27D5  00                 [003] (44)
27D6  00                 [004] (44)
27D7  2B                 [005] (44)
27D8  01                 [006] (44)
27D9  00                 [007] (44)
27DA  00                 [008] (44)
27DB  2C                 [009] (44)
27DC  01                 [010] (44)
27DD  00                 [011] (44)
27DE  00                 [012] (44)
27DF  2C                 [013] (44)
27E0  01                 [014] (44)
27E1  00                 [015] (44)
27E2  00                 [016] (44)
27E3  2C                 [017] (44)
27E4  01                 [018] (44)
27E5  00                 [019] (44)
27E6  00                 [020] (44)
27E7  2C                 [021] (45)
27E8  01                 [022] (45)
27E9  00                 [023] (46)
27EA  00                 [024] (49)
27EB  2C                 [025] (49)
27EC  01                 [026] (49)
27ED  00                 [027] (49)
27EE  00                 [028] (49)
27EF  2C                 [029] (49)
27F0  01                 [030] (49)
27F1  00                 [031] (49)
27F2  00                 [032] (49)
27F3  2C                 [033] (51)
27F4  01                 [034] (54)
27F5  00                 [035] (54)
27F6  00                 [036] (55)
27F7  2C                 [037] (55)
27F8  01                 [038] (55)
27F9  00                 [039] (55)
27FA  00                 [040] (55)
27FB  2C                 [041] (56)
27FC  01                 [042] (59)
27FD  00                 [043] (59)
27FE  00                 [044] (59)
27FF  2C                 [045] (60)
2800  01                 [046] (60)
2801  00                 [047] (60)
2802  00                 [048] (60)
2803  2C                 [049] (60)
2804  01                 [050] (61)
2805  00                 [051] (61)
2806  00                 [052] (64)
2807  2C                 [053] (65)
2808  01                 [054] (65)
2809  00                 [055] (65)
280A  00                 [056] (66)
280B  2C                 [057] (66)
280C  01                 [058] (66)
280D  00                 [059] (66)
280E  00                 [060] (66)
280F  2C                 [061] (66)
2810  01                 [062] (66)
2811  00                 [063] (66)
2812  00                 [064] (66)
2813  2C                 [065] (66)
2814  01                 [066] (66)
2815  00                 [067] (66)
2816  00                 [068] (66)
2817  2C                 [069] (66)
2818  01                 [070] (66)
2819  00                 [071] (66)
281A  00                 [072] (67)
281B  2C                 [073] (70)
281C  01                 [074] (70)
281D  00                 [075] (72)
281E  00                 [076] (72)
281F  2C                 [077] (72)
2820  01                 [078] (72)
2821  00                 [079] (72)
2822  00                 [080] (72)
2823  2D                 [081] (74)
2824  01                 [082] (74)
2825  00                 [083] (74)
2826  00                 [084] (74)
2827  2D                 [085] (74)
2828  01                 [086] (75)
2829  00                 [087] (75)
282A  00                 [088] (75)
282B  2E                 [089] (76)
282C  01                 [090] (76)
282D  00                 [091] (76)
282E  00                 [092] (76)
282F  31                 [093] (76)
2830  01                 [094] (77)
2831  00                 [095] (77)
2832  00                 [096] (77)
2833  31                 [097] (77)
2834  01                 [098] (77)
2835  00                 [099] (77)
2836  00                 [100] (77)
2837  31                 [101] (77)
2838  01                 [102] (80)
2839  00                 [103] (80)
283A  00                 [104] (80)
283B  31                 [105] (81)
283C  01                 [106] (81)
283D  00                 [107] (81)
283E  00                 [108] (81)
283F  31                 [109] (82)
2840  01                 [110] (83)
2841  00                 [111] (83)
2842  00                 [112] (83)
2843  31                 [113] (83)
2844  01                 [114] (83)
2845  00                 [115] (84)
2846  00                 [116] (84)
2847  31                 [117] (84)
2848  01                 [118] (84)
2849  00                 [119] (84)
284A  00                 [120] (84)
284B  31                 [121] (84)
284C  01                 [122] (84)
284D  00                 [123] (85)
284E  00                 [124] (85)
284F  31                 [125] (85)
2850  01                 [126] (85)
2851  00                 [127] (87)
2852  00                 [128] (87)
2853  33                 [129] (81)
2854  01                 [130] (91)
2855  00                 [131] (91)
2856  00                 [132] (91)
2857  36                 [133] (91)
2858  01                 [134] (91)
2859  00                 [135] (92)
285A  00                 [136] (92)
285B  36                 [137] (92)
285C  01                 [138] (93)
285D  00                 [139] (93)
285E  00                 [140] (93)
285F  37                 [141] (93)
2860  01                 [142] (93)
2861  00                 [143] (94)
2862  00                 [144] (94)
2863  37                 [145] (98)
2864  01                 [146] (98)
2865  00                 [147] (98)
2866  00                 [148] (98)
2867  37                 [149] (98)
2868  01                 [150] (99)
2869  00                 [151] (99)
286A  00                 [152] (99)
286B  37                 [153] (100)
286C  01                 [154] (100)
286D  00                 [155] (100)
286E  00                 [156] (100)
286F  37                 [157] (100)
2870  01                 [158] (101)
2871  00                 [159] (101)
2872  00                 [160] (105)
2873  38                 [161] (105)
2874  01                 [162] (105)
2875  00                 [163] (105)
2876  00                 [164] (106)
2877  3B                 [165] (106)
2878  01                 [166] (106)
2879  00                 [167] (106)
287A  00                 [168] (106)
287B  3B                 [169] (106)
287C  01                 [170] (106)
287D  00                 [171] (106)
287E  00                 [172] (108)
287F  3B                 [173] (108)
2880  01                 [174] (108)
2881  00                 [175] (109)
2882  00                 [176] (109)
2883  3C                 [177] (109)
2884  01                 [178] (109)
2885  00                 [179] (111)
2886  00                 [180] (111)
2887  3C                 [181] (111)
2888  01                 [182] (112)
2889  00                 [183] (112)
288A  00                 [184] (112)
288B  3C                 [185] (112)
288C  01                 [186] (112)
288D  00                 [187] (113)
288E  00                 [188] (113)
288F  3C                 [189] (113)
2890  01                 [190] (113)
2891  00                 [191] (116)
2892  00                 [192] (116)
2893  3C                 [193] (116)
2894  01                 [194] (117)
2895  00                 [195] (117)
2896  00                 [196] (117)
2897  3D                 [197] (117)
2898  01                 [198] (117)
2899  00                 [199] (117)
289A  00                 [200] (117)
289B  3D                 [201] (117)
289C  01                 [202] (117)
289D  00                 [203] (117)
289E  00                 [204] (118)
289F  40                 [205] (118)
28A0  01                 [206] (118)
28A1  00                 [207] (119)
28A2  00                 [208] (119)
28A3  41                 [209] (119)
28A4  01                 [210] (119)
28A5  00                 [211] (119)
28A6  00                 [212] (120)
28A7  41                 [213] (120)
28A8  01                 [214] (120)
28A9  00                 [215] (120)
28AA  00                 [216] (120)
28AB  41                 [217] (120)
28AC  01                 [218] (120)
28AD  00                 [219] (121)
28AE  00                 [220] (121)
28AF  42                 [221] (121)
28B0  01                 [222] (122)
28B1  00                 [223] (122)
28B2  00                 [224] (122)
28B3  42                 [225] (122)
28B4  01                 [226] (122)
28B5  00                 [227] (122)
28B6  00                 [228] (122)
28B7  42                 [229] (122)
28B8  01                 [230] (123)
28B9  00                 [231] (123)
28BA  00                 [232] (123)
28BB  42                 [233] (123)
28BC  01                 [234] (123)
28BD  00                 [235] (123)
28BE  00                 [236] (125)
28BF  42                 [237] (125)
28C0  01                 [238] (125)
28C1  00                 [239] (125)
28C2  00                 [240] (126)
28C3  42                 [241] (126)
28C4  01                 [242] (127)
28C5  00                 [243] (127)
28C6  00                 [244] (127)
28C7  42                 [245] (-128)
28C8  01                 [246] (-128)
28C9  00                 [247] (-128)
28CA  00                 [248] (-128)
28CB  42                 [249] (-128)
28CC  01                 [250] (-128)
28CD  00                 [251] (-128)
28CE  00                 [252] (-128)
28CF  42                 [253] (-125)
28D0  01                 [254] (-123)
28D1  00                 [255] (-123)
28D2  00                 [256] (-123)
28D3  42                 [257] (-120)
28D4  01                 [258] (-120)
28D5  00                 [259] (-120)
28D6  00                 [260] (-120)
28D7  42                 [261] (-120)
28D8  01                 [262] (-120)
28D9  00                 [263] (-120)
28DA  00                 [264] (-120)
28DB  42                 [265] (-120)
28DC  01                 [266] (-120)
28DD  00                 [267] (-119)
28DE  00                 [268] (-119)
28DF  42                 [269] (-119)
28E0  01                 [270] (-118)
28E1  00                 [271] (-118)
28E2  00                 [272] (-118)
28E3  42                 [273] (-118)
28E4  01                 [274] (-118)
28E5  00                 [275] (-117)
28E6  00                 [276] (-117)
28E7  42                 [277] (-117)
28E8  01                 [278] (-117)
28E9  00                 [279] (-117)
28EA  00                 [280] (-114)
28EB  42                 [281] (-109)
28EC  01                 [282] (-109)
28ED  00                 [283] (-109)
28EE  00                 [284] (-109)
28EF  43                 [285] (-109)
28F0  01                 [286] (-108)
28F1  00                 [287] (-108)
28F2  00                 [288] (-108)
28F3  46                 [289] (-108)
28F4  01                 [290] (-108)
28F5  00                 [291] (-106)
28F6  00                 [292] (-106)
28F7  46                 [293] (-106)
28F8  01                 [294] (-105)
28F9  00                 [295] (-105)
28FA  00                 [296] (-105)
28FB  48                 [297] (-105)
28FC  01                 [298] (-105)
28FD  00                 [299] (-104)
28FE  00                 [300] (-104)
28FF  48                 [301] (-101)
2900  01                 [302] (-101)
2901  00                 [303] (-100)
2902  00                 [304] (-100)
2903  48                 [305] (-100)
2904  01                 [306] (-98)
2905  00                 [307] (-98)
2906  00                 [308] (-98)
2907  48                 [309] (-98)
2908  01                 [310] (-98)
2909  00                 [311] (-97)
290A  00                 [312] (-97)
290B  48                 [313] (-97)
290C  01                 [314] (-97)
290D  00                 [315] (-97)
290E  00                 [316] (-96)
290F  48                 [317] (-96)
2910  01                 [318] (-96)
2911  00                 [319] (-95)
2912  00                 [320] (-95)
2913  4A                 [321] (-95)
2914  01                 [322] (-95)
2915  00                 [323] (-94)
2916  00                 [324] (-94)
2917  4A                 [325] (-94)
2918  01                 [326] (-94)
2919  00                 [327] (-93)
291A  00                 [328] (-93)
291B  4A                 [329] (-92)
291C  01                 [330] (-92)
291D  00                 [331] (-92)
291E  00                 [332] (-92)
291F  4A                 [333] (-92)
2920  01                 [334] (-91)
2921  00                 [335] (-91)
2922  00                 [336] (-91)
2923  4A                 [337] (-88)
2924  01                 [338] (-88)
2925  00                 [339] (-88)
2926  00                 [340] (-88)
2927  4B                 [341] (-88)
2928  01                 [342] (-88)
2929  00                 [343] (-88)
292A  00                 [344] (-86)
292B  4B                 [345] (-86)
292C  01                 [346] (-86)
292D  00                 [347] (-86)
292E  00                 [348] (-86)
292F  4B                 [349] (-84)
2930  01                 [350] (-84)
2931  00                 [351] (-84)
2932  00                 [352] (-84)
2933  4C                 [353] (-84)
2934  01                 [354] (-84)
2935  00                 [355] (-84)
2936  00                 [356] (-82)
2937  4C                 [357] (-82)
2938  01                 [358] (-82)
2939  00                 [359] (-82)
293A  00                 [360] (-82)
293B  4C                 [361] (-82)
293C  01                 [362] (-82)
293D  00                 [363] (-82)
293E  00                 [364] (-81)
293F  4C                 [365] (-81)
2940  01                 [366] (-81)
2941  00                 [367] (-81)
2942  00                 [368] (-81)
2943  4C                 [369] (-80)
2944  01                 [370] (-80)
2945  00                 [371] (-80)
2946  00                 [372] (-80)
2947  4D                 [373] (-80)
2948  01                 [374] (-78)
2949  00                 [375] (-78)
294A  00                 [376] (-78)
294B  4D                 [377] (-78)
294C  01                 [378] (-78)
294D  00                 [379] (-78)
294E  00                 [380] (-78)
294F  4D                 [381] (-78)
2950  01                 [382] (-78)
2951  00                 [383] (-77)
2952  00                 [384] (-77)
2953  4D                 [385] (-77)
2954  01                 [386] (-76)
2955  00                 [387] (-76)
2956  00                 [388] (-76)
2957  4D                 [389] (-76)
2958  01                 [390] (-76)
2959  00                 [391] (-76)
295A  00                 [392] (-76)
295B  4D                 [393] (-76)
295C  01                 [394] (-73)
295D  00                 [395] (-73)
295E  00                 [396] (-73)
295F  4D                 [397] (-73)
2960  01                 [398] (-73)
2961  00                 [399] (-73)
2962  00                 [400] (-70)
2963  4D                 [401] (-70)
2964  01                 [402] (-69)
2965  00                 [403] (-69)
2966  00                 [404] (-69)
2967  50                 [405] (-69)
2968  01                 [406] (-69)
2969  00                 [407] (-68)
296A  00                 [408] (-68)
296B  50                 [409] (-67)
296C  01                 [410] (-65)
296D  00                 [411] (-65)
296E  00                 [412] (-65)
296F  50                 [413] (-65)
2970  01                 [414] (-65)
2971  00                 [415] (-65)
2972  00                 [416] (-65)
2973  51                 [417] (-64)
2974  01                 [418] (-64)
2975  00                 [419] (-64)
2976  00                 [420] (-64)
2977  51                 [421] (-64)
2978  01                 [422] (-63)
2979  00                 [423] (-63)
297A  00                 [424] (-63)
297B  51                 [425] (-63)
297C  01                 [426] (-63)
297D  00                 [427] (-62)
297E  00                 [428] (-62)
297F  51                 [429] (-62)
2980  01                 [430] (-62)
2981  00                 [431] (-62)
2982  00                 [432] (-62)
2983  52                 [433] (-62)
2984  01                 [434] (-56)
                         * locals:
2E9B  00                 sizelocvars (0)
                         * upvalues:
2E9C  00                 sizeupvalues (0)
                         ** end of function **

                         
2E9D                     ** function [8] definition (level 2)
                         ** start of function **
2E9D  00                 string size (0)
                         source name: (none)
2E9F  03                 line defined (458)
2EA0  E5                 last line defined (485)
2EA1  03                 nups (1)
2EA2  01                 numparams (1)
2EA3  01                 is_vararg (0)
2EA4  00                 maxstacksize (12)
                         * code:
2EA6  3E                 sizecode (62)
2EA7  5D000000           [01] getglobal  1   0        ; gRegion
2EAB  6440C000           [02] self       1   1   257  ; -1520831144
2EAF  62800001           [03] call       1   2   2  
2EB3  58000000           [04] test       1       0    ; to [6] if true
2EB7  1A000080           [05] jmp        1            ; to [7]
2EBB  1E008000           [06] return     0   1      
2EBF  5D800000           [07] getglobal  1   2        ; 538022378
2EC3  99C00000           [08] loadk      2   3        ; 0
2EC7  62400001           [09] call       1   2   1  
2ECB  5D000100           [10] getglobal  1   4        ; 1074689893
2ECF  92000000           [11] move       2   0      
2ED3  62800001           [12] call       1   2   2  
2ED7  58000000           [13] test       1       0    ; to [15] if true
2EDB  1A000080           [14] jmp        1            ; to [16]
2EDF  1E008000           [15] return     0   1      
2EE3  64404100           [16] self       1   0   261  ; -1544157541
2EE7  62800001           [17] call       1   2   2  
2EEB  6480C100           [18] self       1   1   262  ; 1015770002
2EEF  62800001           [19] call       1   2   2  
2EF3  58400000           [20] test       1       1    ; to [22] if false
2EF7  1A800080           [21] jmp        3            ; to [25]
2EFB  64C04100           [22] self       1   0   263  ; -1519595333
2EFF  62800001           [23] call       1   2   2  
2F03  1A400080           [24] jmp        2            ; to [27]
2F07  57400000           [25] loadbool   1   0   1    ; false, to [27]
2F0B  57008000           [26] loadbool   1   1   0    ; true
2F0F  58000000           [27] test       1       0    ; to [29] if true
2F13  1A000880           [28] jmp        33           ; to [62]
2F17  A4004200           [29] self       2   0   264  ; 366271214
2F1B  1D410200           [30] getglobal  4   9        ; ambulasHackActionType
2F1F  A2808001           [31] call       2   3   2  
2F23  D9800200           [32] loadk      3   10       ; 0
2F27  0A010001           [33] len        4   2      
2F2B  59810200           [34] loadk      5   10       ; 0
2F2F  D0000480           [35] forprep    3   17       ; to [53]
2F33  CE810101           [36] gettable   7   2   6  
2F37  1D020100           [37] getglobal  8   4        ; 1074689893
2F3B  52028003           [38] move       9   7      
2F3F  22820001           [39] call       8   2   2  
2F43  18420000           [40] test       8       1    ; to [42] if false
2F47  1A800280           [41] jmp        11           ; to [53]
2F4B  24C2C203           [42] self       8   7   267  ; -974578778
2F4F  22420001           [43] call       8   2   1  
2F53  2402C303           [44] self       8   7   268  ; -1957065004
2F57  9D420300           [45] getglobal  10  13       ; ambulasNpcOnlyHackActionType
2F5B  22828001           [46] call       8   3   2  
2F5F  18420000           [47] test       8       1    ; to [49] if false
2F63  1AC00080           [48] jmp        4            ; to [53]
2F67  2482C303           [49] self       8   7   270  ; -846300631
2F6B  97020000           [50] loadbool   10  0   0    ; false
2F6F  D7028000           [51] loadbool   11  1   0    ; true
2F73  22420002           [52] call       8   4   1  
2F77  D440FB7F           [53] forloop    3   -18      ; to [36] if loop
2F7B  13020000           [54] getupval   8   0      
2F7F  52020000           [55] move       9   0      
2F83  22420001           [56] call       8   2   1  
2F87  24C24300           [57] self       8   0   271  ; 677420169
2F8B  9D020400           [58] getglobal  10  16       ; -332969190
2F8F  D9420400           [59] loadk      11  17       ; "StartReboot"
2F93  A2020001           [60] call       10  2   0  
2F97  22420000           [61] call       8   0   1  
2F9B  1E008000           [62] return     0   1      
                         * constants:
2F9F  12                 sizek (18)
2FA0  04                 const type 4
2FA1  08                 string size (8)
2FA2  67526567696F6E00   "gRegion\0"
                         const [0]: "gRegion"
2FAA  01                 const type 3
2FAB  58F559A5           const [1]: (-1520831144)
2FAF  01                 const type 3
2FB0  EA911120           const [2]: (538022378)
2FB4  03                 const type 3
2FB5  00000000           const [3]: (0)
2FB9  01                 const type 3
2FBA  65770E40           const [4]: (1074689893)
2FBE  01                 const type 3
2FBF  9B06F6A3           const [5]: (-1544157541)
2FC3  01                 const type 3
2FC4  926B8B3C           const [6]: (1015770002)
2FC8  01                 const type 3
2FC9  BBD06CA5           const [7]: (-1519595333)
2FCD  01                 const type 3
2FCE  EEDAD415           const [8]: (366271214)
2FD2  04                 const type 4
2FD3  16                 string size (22)
2FD4  616D62756C617348+  "ambulasH"
2FDC  61636B416374696F+  "ackActio"
2FE4  6E5479706500       "nType\0"
                         const [9]: "ambulasHackActionType"
2FEA  03                 const type 3
2FEB  0000803F           const [10]: (0)
2FEF  01                 const type 3
2FF0  A61BE9C5           const [11]: (-974578778)
2FF4  01                 const type 3
2FF5  D48E598B           const [12]: (-1957065004)
2FF9  04                 const type 4
2FFA  1D                 string size (29)
2FFB  616D62756C61734E+  "ambulasN"
3003  70634F6E6C794861+  "pcOnlyHa"
300B  636B416374696F6E+  "ckAction"
3013  5479706500         "Type\0"
                         const [13]: "ambulasNpcOnlyHackActionType"
3018  01                 const type 3
3019  297A8ECD           const [14]: (-846300631)
301D  01                 const type 3
301E  899C6028           const [15]: (677420169)
3022  01                 const type 3
3023  1A4B27EC           const [16]: (-332969190)
3027  04                 const type 4
3028  0C                 string size (12)
3029  5374617274526562+  "StartReb"
3031  6F6F7400           "oot\0"
                         const [17]: "StartReboot"
                         * functions:
3035  00                 sizep (0)
                         * lines:
3036  3E                 sizelineinfo (62)
                         [pc] (line)
3037  CD                 [01] (-51)
3038  01                 [02] (-51)
3039  00                 [03] (-51)
303A  00                 [04] (-51)
303B  CD                 [05] (-51)
303C  01                 [06] (-50)
303D  00                 [07] (-47)
303E  00                 [08] (-47)
303F  CD                 [09] (-47)
3040  01                 [10] (-46)
3041  00                 [11] (-46)
3042  00                 [12] (-46)
3043  CD                 [13] (-46)
3044  01                 [14] (-46)
3045  00                 [15] (-45)
3046  00                 [16] (-42)
3047  CD                 [17] (-42)
3048  01                 [18] (-42)
3049  00                 [19] (-42)
304A  00                 [20] (-42)
304B  CE                 [21] (-42)
304C  01                 [22] (-42)
304D  00                 [23] (-42)
304E  00                 [24] (-42)
304F  D1                 [25] (-42)
3050  01                 [26] (-42)
3051  00                 [27] (-41)
3052  00                 [28] (-41)
3053  D1                 [29] (-40)
3054  01                 [30] (-40)
3055  00                 [31] (-40)
3056  00                 [32] (-39)
3057  D1                 [33] (-39)
3058  01                 [34] (-39)
3059  00                 [35] (-39)
305A  00                 [36] (-38)
305B  D2                 [37] (-37)
305C  01                 [38] (-37)
305D  00                 [39] (-37)
305E  00                 [40] (-37)
305F  D2                 [41] (-37)
3060  01                 [42] (-36)
3061  00                 [43] (-36)
3062  00                 [44] (-35)
3063  D2                 [45] (-35)
3064  01                 [46] (-35)
3065  00                 [47] (-35)
3066  00                 [48] (-35)
3067  D2                 [49] (-34)
3068  01                 [50] (-34)
3069  00                 [51] (-34)
306A  00                 [52] (-34)
306B  D2                 [53] (-39)
306C  01                 [54] (-30)
306D  00                 [55] (-30)
306E  00                 [56] (-30)
306F  D3                 [57] (-29)
3070  01                 [58] (-29)
3071  00                 [59] (-29)
3072  00                 [60] (-29)
3073  D6                 [61] (-29)
3074  01                 [62] (-27)
                         * locals:
312F  00                 sizelocvars (0)
                         * upvalues:
3130  00                 sizeupvalues (0)
                         ** end of function **

                         
3131                     ** function [9] definition (level 2)
                         ** start of function **
3131  00                 string size (0)
                         source name: (none)
3133  03                 line defined (487)
3134  FF                 last line defined (511)
3135  03                 nups (0)
3136  00                 numparams (1)
3137  01                 is_vararg (0)
3138  00                 maxstacksize (11)
                         * code:
313A  42                 sizecode (66)
313B  5D000000           [01] getglobal  1   0        ; 1074689893
313F  9D400000           [02] getglobal  2   1        ; ambulasRangedHackBeam
3143  62800001           [03] call       1   2   2  
3147  58000000           [04] test       1       0    ; to [6] if true
314B  1A000080           [05] jmp        1            ; to [7]
314F  1E008000           [06] return     0   1      
3153  64804000           [07] self       1   0   258  ; -2135866365
3157  62800001           [08] call       1   2   2  
315B  9D000000           [09] getglobal  2   0        ; 1074689893
315F  D2008000           [10] move       3   1      
3163  A2800001           [11] call       2   2   2  
3167  98400000           [12] test       2       1    ; to [14] if false
316B  1A000380           [13] jmp        13           ; to [27]
316F  A4C0C000           [14] self       2   1   259  ; 1511086594
3173  A2800001           [15] call       2   2   2  
3177  98400000           [16] test       2       1    ; to [18] if false
317B  1A000280           [17] jmp        9            ; to [27]
317F  A400C100           [18] self       2   1   260  ; -1257890270
3183  1D410100           [19] getglobal  4   5        ; ambulasHackAction
3187  A2808001           [20] call       2   3   2  
318B  98400000           [21] test       2       1    ; to [23] if false
318F  1AC00080           [22] jmp        4            ; to [27]
3193  9D800100           [23] getglobal  2   6        ; 538022378
3197  D9C00100           [24] loadk      3   7        ; 0
319B  A2400001           [25] call       2   2   1  
319F  1A40FB7F           [26] jmp        -18          ; to [9]
31A3  9D000000           [27] getglobal  2   0        ; 1074689893
31A7  D2008000           [28] move       3   1      
31AB  A2800001           [29] call       2   2   2  
31AF  98400000           [30] test       2       1    ; to [32] if false
31B3  1AC00080           [31] jmp        4            ; to [36]
31B7  A4C0C000           [32] self       2   1   259  ; 1511086594
31BB  A2800001           [33] call       2   2   2  
31BF  98000000           [34] test       2       0    ; to [36] if true
31C3  1A000080           [35] jmp        1            ; to [37]
31C7  1E008000           [36] return     0   1      
31CB  A400C200           [37] self       2   1   264  ; 634817106
31CF  A2800001           [38] call       2   2   2  
31D3  A4404201           [39] self       2   2   265  ; 1978351479
31D7  A2800001           [40] call       2   2   2  
31DB  DD000000           [41] getglobal  3   0        ; 1074689893
31DF  12010001           [42] move       4   2      
31E3  E2800001           [43] call       3   2   2  
31E7  D8000000           [44] test       3       0    ; to [46] if true
31EB  1A000080           [45] jmp        1            ; to [47]
31EF  1E008000           [46] return     0   1      
31F3  E4804201           [47] self       3   2   266  ; -1870903749
31F7  E2800001           [48] call       3   2   2  
31FB  1D010000           [49] getglobal  4   0        ; 1074689893
31FF  52018001           [50] move       5   3      
3203  22810001           [51] call       4   2   2  
3207  18410000           [52] test       4       1    ; to [54] if false
320B  1AC00080           [53] jmp        4            ; to [58]
320F  24C1C001           [54] self       4   3   259  ; 1511086594
3213  22810001           [55] call       4   2   2  
3217  18010000           [56] test       4       0    ; to [58] if true
321B  1A000080           [57] jmp        1            ; to [59]
321F  1E008000           [58] return     0   1      
3223  24C1C201           [59] self       4   3   267  ; -1421644046
3227  9D410000           [60] getglobal  6   1        ; ambulasRangedHackBeam
322B  DD010300           [61] getglobal  7   12       ; ambulasRangedHackBeamMoaBone
322F  1D420300           [62] getglobal  8   13       ; ZERO_VECTOR
3233  5D820300           [63] getglobal  9   14       ; ZERO_ROTATION
3237  92028000           [64] move       10  1      
323B  22818003           [65] call       4   7   2  
323F  1E008000           [66] return     0   1      
                         * constants:
3243  0F                 sizek (15)
3244  01                 const type 3
3245  65770E40           const [0]: (1074689893)
3249  04                 const type 4
324A  16                 string size (22)
324B  616D62756C617352+  "ambulasR"
3253  616E676564486163+  "angedHac"
325B  6B4265616D00       "kBeam\0"
                         const [1]: "ambulasRangedHackBeam"
3261  01                 const type 3
3262  0344B180           const [2]: (-2135866365)
3266  01                 const type 3
3267  025A115A           const [3]: (1511086594)
326B  01                 const type 3
326C  221E06B5           const [4]: (-1257890270)
3270  04                 const type 4
3271  12                 string size (18)
3272  616D62756C617348+  "ambulasH"
327A  61636B416374696F+  "ackActio"
3282  6E00               "n\0"
                         const [5]: "ambulasHackAction"
3284  01                 const type 3
3285  EA911120           const [6]: (538022378)
3289  03                 const type 3
328A  00000000           const [7]: (0)
328E  01                 const type 3
328F  528AD625           const [8]: (634817106)
3293  01                 const type 3
3294  773FEB75           const [9]: (1978351479)
3298  01                 const type 3
3299  3B467C90           const [10]: (-1870903749)
329D  01                 const type 3
329E  F26E43AB           const [11]: (-1421644046)
32A2  04                 const type 4
32A3  1D                 string size (29)
32A4  616D62756C617352+  "ambulasR"
32AC  616E676564486163+  "angedHac"
32B4  6B4265616D4D6F61+  "kBeamMoa"
32BC  426F6E6500         "Bone\0"
                         const [12]: "ambulasRangedHackBeamMoaBone"
32C1  04                 const type 4
32C2  0C                 string size (12)
32C3  5A45524F5F564543+  "ZERO_VEC"
32CB  544F5200           "TOR\0"
                         const [13]: "ZERO_VECTOR"
32CF  04                 const type 4
32D0  0E                 string size (14)
32D1  5A45524F5F524F54+  "ZERO_ROT"
32D9  4154494F4E00       "ATION\0"
                         const [14]: "ZERO_ROTATION"
                         * functions:
32DF  00                 sizep (0)
                         * lines:
32E0  42                 sizelineinfo (66)
                         [pc] (line)
32E1  E8                 [01] (-24)
32E2  01                 [02] (-24)
32E3  00                 [03] (-24)
32E4  00                 [04] (-24)
32E5  E8                 [05] (-24)
32E6  01                 [06] (-23)
32E7  00                 [07] (-20)
32E8  00                 [08] (-20)
32E9  E8                 [09] (-19)
32EA  01                 [10] (-19)
32EB  00                 [11] (-19)
32EC  00                 [12] (-19)
32ED  E8                 [13] (-19)
32EE  01                 [14] (-19)
32EF  00                 [15] (-19)
32F0  00                 [16] (-19)
32F1  E8                 [17] (-19)
32F2  01                 [18] (-19)
32F3  00                 [19] (-19)
32F4  00                 [20] (-19)
32F5  E9                 [21] (-19)
32F6  01                 [22] (-19)
32F7  00                 [23] (-18)
32F8  00                 [24] (-18)
32F9  EC                 [25] (-18)
32FA  01                 [26] (-18)
32FB  00                 [27] (-15)
32FC  00                 [28] (-15)
32FD  EC                 [29] (-15)
32FE  01                 [30] (-15)
32FF  00                 [31] (-15)
3300  00                 [32] (-15)
3301  ED                 [33] (-15)
3302  01                 [34] (-15)
3303  00                 [35] (-15)
3304  00                 [36] (-14)
3305  ED                 [37] (-11)
3306  01                 [38] (-11)
3307  00                 [39] (-11)
3308  00                 [40] (-11)
3309  ED                 [41] (-10)
330A  01                 [42] (-10)
330B  00                 [43] (-10)
330C  00                 [44] (-10)
330D  ED                 [45] (-10)
330E  01                 [46] (-9)
330F  00                 [47] (-7)
3310  00                 [48] (-7)
3311  ED                 [49] (-6)
3312  01                 [50] (-6)
3313  00                 [51] (-6)
3314  00                 [52] (-6)
3315  ED                 [53] (-6)
3316  01                 [54] (-6)
3317  00                 [55] (-6)
3318  00                 [56] (-6)
3319  ED                 [57] (-6)
331A  01                 [58] (-5)
331B  00                 [59] (-2)
331C  00                 [60] (-2)
331D  ED                 [61] (-2)
331E  01                 [62] (-2)
331F  00                 [63] (-2)
3320  00                 [64] (-2)
3321  ED                 [65] (-2)
3322  01                 [66] (-1)
                         * locals:
33E9  00                 sizelocvars (0)
                         * upvalues:
33EA  00                 sizeupvalues (0)
                         ** end of function **

                         
33EB                     ** function [10] definition (level 2)
                         ** start of function **
33EB  00                 string size (0)
                         source name: (none)
33ED  04                 line defined (513)
33EE  AC                 last line defined (556)
33EF  04                 nups (1)
33F0  01                 numparams (1)
33F1  01                 is_vararg (0)
33F2  00                 maxstacksize (9)
                         * code:
33F4  6E                 sizecode (110)
33F5  5D000000           [001] getglobal  1   0        ; 1074689893
33F9  92000000           [002] move       2   0      
33FD  62800001           [003] call       1   2   2  
3401  58000000           [004] test       1       0    ; to [6] if true
3405  1A000080           [005] jmp        1            ; to [7]
3409  1E008000           [006] return     0   1      
340D  64404000           [007] self       1   0   257  ; 129677183
3411  62800001           [008] call       1   2   2  
3415  9D000000           [009] getglobal  2   0        ; 1074689893
3419  D2008000           [010] move       3   1      
341D  A2800001           [011] call       2   2   2  
3421  98000000           [012] test       2       0    ; to [14] if true
3425  1A800080           [013] jmp        3            ; to [17]
3429  A4804000           [014] self       2   0   258  ; -725453761
342D  A2400001           [015] call       2   2   1  
3431  1E008000           [016] return     0   1      
3435  A4C04000           [017] self       2   0   259  ; 1311555023
3439  2401C100           [018] self       4   1   260  ; -1565518332
343D  9D410100           [019] getglobal  6   5        ; ambulasRangedHackBeamAttachBone
3441  22018001           [020] call       4   3   0  
3445  A2400000           [021] call       2   0   1  
3449  9D800100           [022] getglobal  2   6        ; gRegion
344D  A4C04101           [023] self       2   2   263  ; -1520831144
3451  A2800001           [024] call       2   2   2  
3455  98400000           [025] test       2       1    ; to [27] if false
3459  1AC00480           [026] jmp        20           ; to [47]
345D  99000200           [027] loadk      2   8        ; 0
fail op	21
3461  15808084           [028] concat     0   265 2  
3465  1A000480           [029] jmp        17           ; to [47]
3469  DD000000           [030] getglobal  3   0        ; 1074689893
346D  12018000           [031] move       4   1      
3471  E2800001           [032] call       3   2   2  
3475  D8400000           [033] test       3       1    ; to [35] if false
3479  1AC00280           [034] jmp        12           ; to [47]
347D  E480C200           [035] self       3   1   266  ; -1257890270
3481  5DC10200           [036] getglobal  5   11       ; ambulasHackAction
3485  E2808001           [037] call       3   3   2  
3489  D8400000           [038] test       3       1    ; to [40] if false
348D  1A800180           [039] jmp        7            ; to [47]
3491  DD000300           [040] getglobal  3   12       ; 1289681407
3495  E2808000           [041] call       3   1   2  
3499  8DC00001           [042] sub        2   2   3  
349D  DD400300           [043] getglobal  3   13       ; 538022378
34A1  19410200           [044] loadk      4   9        ; 0
34A5  E2400001           [045] call       3   2   1  
34A9  1A00FB7F           [046] jmp        -19          ; to [28]
34AD  D9400200           [047] loadk      3   9        ; 0
34B1  1D010000           [048] getglobal  4   0        ; 1074689893
34B5  52010000           [049] move       5   0      
34B9  22810001           [050] call       4   2   2  
34BD  18410000           [051] test       4       1    ; to [53] if false
34C1  1A400680           [052] jmp        26           ; to [79]
fail op	21
34C5  1580C301           [053] concat     0   3   270
34C9  1AC00580           [054] jmp        24           ; to [79]
34CD  1D010300           [055] getglobal  4   12       ; 1289681407
34D1  22818000           [056] call       4   1   2  
34D5  C3008101           [057] add        3   3   4  
34D9  24C14300           [058] self       4   0   271  ; -412619612
34DD  8401C401           [059] mul        6   3   272  ; -113
34E1  22418001           [060] call       4   3   1  
34E5  24414400           [061] self       4   0   273  ; -786111647
34E9  93010000           [062] getupval   6   0      
34ED  C4C10089           [063] mul        7   274 3    ; 0
34F1  22410002           [064] call       4   4   1  
34F5  1D010000           [065] getglobal  4   0        ; 1074689893
34F9  52010000           [066] move       5   0      
34FD  22810001           [067] call       4   2   2  
3501  18410000           [068] test       4       1    ; to [70] if false
3505  1A000180           [069] jmp        5            ; to [75]
3509  24C14000           [070] self       4   0   259  ; 1311555023
350D  A401C100           [071] self       6   1   260  ; -1565518332
3511  1D420100           [072] getglobal  8   5        ; ambulasRangedHackBeamAttachBone
3515  A2018001           [073] call       6   3   0  
3519  22410000           [074] call       4   0   1  
351D  1D410300           [075] getglobal  4   13       ; 538022378
3521  59410200           [076] loadk      5   9        ; 0
3525  22410001           [077] call       4   2   1  
3529  1A00F87F           [078] jmp        -31          ; to [48]
352D  1D010000           [079] getglobal  4   0        ; 1074689893
3531  52018000           [080] move       5   1      
3535  22810001           [081] call       4   2   2  
3539  18410000           [082] test       4       1    ; to [84] if false
353D  1A800480           [083] jmp        19           ; to [103]
3541  2481C200           [084] self       4   1   266  ; -1257890270
3545  9DC10200           [085] getglobal  6   11       ; ambulasHackAction
3549  22818001           [086] call       4   3   2  
354D  18010000           [087] test       4       0    ; to [89] if true
3551  1A400380           [088] jmp        14           ; to [103]
3555  1D010000           [089] getglobal  4   0        ; 1074689893
3559  52010000           [090] move       5   0      
355D  22810001           [091] call       4   2   2  
3561  18410000           [092] test       4       1    ; to [94] if false
3565  1A000180           [093] jmp        5            ; to [99]
3569  24C14000           [094] self       4   0   259  ; 1311555023
356D  A401C100           [095] self       6   1   260  ; -1565518332
3571  1D420100           [096] getglobal  8   5        ; ambulasRangedHackBeamAttachBone
3575  A2018001           [097] call       6   3   0  
3579  22410000           [098] call       4   0   1  
357D  1D410300           [099] getglobal  4   13       ; 538022378
3581  59410200           [100] loadk      5   9        ; 0
3585  22410001           [101] call       4   2   1  
3589  1AC0F97F           [102] jmp        -24          ; to [79]
358D  1D010000           [103] getglobal  4   0        ; 1074689893
3591  52010000           [104] move       5   0      
3595  22810001           [105] call       4   2   2  
3599  18410000           [106] test       4       1    ; to [108] if false
359D  1A400080           [107] jmp        2            ; to [110]
35A1  24814000           [108] self       4   0   258  ; -725453761
35A5  22410001           [109] call       4   2   1  
35A9  1E008000           [110] return     0   1      
                         * constants:
35AD  13                 sizek (19)
35AE  01                 const type 3
35AF  65770E40           const [0]: (1074689893)
35B3  01                 const type 3
35B4  7FB7BA07           const [1]: (129677183)
35B8  01                 const type 3
35B9  3F74C2D4           const [2]: (-725453761)
35BD  01                 const type 3
35BE  CFBD2C4E           const [3]: (1311555023)
35C2  01                 const type 3
35C3  0416B0A2           const [4]: (-1565518332)
35C7  04                 const type 4
35C8  20                 string size (32)
35C9  616D62756C617352+  "ambulasR"
35D1  616E676564486163+  "angedHac"
35D9  6B4265616D417474+  "kBeamAtt"
35E1  616368426F6E6500   "achBone\0"
                         const [5]: "ambulasRangedHackBeamAttachBone"
35E9  04                 const type 4
35EA  08                 string size (8)
35EB  67526567696F6E00   "gRegion\0"
                         const [6]: "gRegion"
35F3  01                 const type 3
35F4  58F559A5           const [7]: (-1520831144)
35F8  03                 const type 3
35F9  0000A040           const [8]: (0)
35FD  03                 const type 3
35FE  00000000           const [9]: (0)
3602  01                 const type 3
3603  221E06B5           const [10]: (-1257890270)
3607  04                 const type 4
3608  12                 string size (18)
3609  616D62756C617348+  "ambulasH"
3611  61636B416374696F+  "ackActio"
3619  6E00               "n\0"
                         const [11]: "ambulasHackAction"
361B  01                 const type 3
361C  FFF9DE4C           const [12]: (1289681407)
3620  01                 const type 3
3621  EA911120           const [13]: (538022378)
3625  03                 const type 3
3626  0000803F           const [14]: (0)
362A  01                 const type 3
362B  A4EC67E7           const [15]: (-412619612)
362F  03                 const type 3
3630  8FC2F53D           const [16]: (-113)
3634  01                 const type 3
3635  61E324D1           const [17]: (-786111647)
3639  03                 const type 3
363A  00000040           const [18]: (0)
                         * functions:
363E  00                 sizep (0)
                         * lines:
363F  6E                 sizelineinfo (110)
                         [pc] (line)
3640  03                 [001] (3)
3641  02                 [002] (3)
3642  00                 [003] (3)
3643  00                 [004] (3)
3644  03                 [005] (3)
3645  02                 [006] (4)
3646  00                 [007] (7)
3647  00                 [008] (7)
3648  03                 [009] (8)
3649  02                 [010] (8)
364A  00                 [011] (8)
364B  00                 [012] (8)
364C  03                 [013] (8)
364D  02                 [014] (9)
364E  00                 [015] (9)
364F  00                 [016] (10)
3650  03                 [017] (13)
3651  02                 [018] (13)
3652  00                 [019] (13)
3653  00                 [020] (13)
3654  04                 [021] (13)
3655  02                 [022] (15)
3656  00                 [023] (15)
3657  00                 [024] (15)
3658  07                 [025] (15)
3659  02                 [026] (15)
365A  00                 [027] (16)
365B  00                 [028] (17)
365C  07                 [029] (17)
365D  02                 [030] (17)
365E  00                 [031] (17)
365F  00                 [032] (17)
3660  08                 [033] (17)
3661  02                 [034] (17)
3662  00                 [035] (17)
3663  00                 [036] (17)
3664  08                 [037] (17)
3665  02                 [038] (17)
3666  00                 [039] (17)
3667  00                 [040] (18)
3668  08                 [041] (18)
3669  02                 [042] (18)
366A  00                 [043] (19)
366B  00                 [044] (19)
366C  08                 [045] (19)
366D  02                 [046] (19)
366E  00                 [047] (23)
366F  00                 [048] (24)
3670  08                 [049] (24)
3671  02                 [050] (24)
3672  00                 [051] (24)
3673  00                 [052] (24)
3674  09                 [053] (24)
3675  02                 [054] (24)
3676  00                 [055] (25)
3677  00                 [056] (25)
3678  09                 [057] (25)
3679  02                 [058] (26)
367A  00                 [059] (26)
367B  00                 [060] (26)
367C  0A                 [061] (27)
367D  02                 [062] (27)
367E  00                 [063] (27)
367F  00                 [064] (27)
3680  0D                 [065] (28)
3681  02                 [066] (28)
3682  00                 [067] (28)
3683  00                 [068] (28)
3684  0D                 [069] (28)
3685  02                 [070] (29)
3686  00                 [071] (29)
3687  00                 [072] (29)
3688  0D                 [073] (29)
3689  02                 [074] (29)
368A  00                 [075] (31)
368B  00                 [076] (31)
368C  0D                 [077] (31)
368D  02                 [078] (31)
368E  00                 [079] (34)
368F  00                 [080] (34)
3690  0D                 [081] (34)
3691  02                 [082] (34)
3692  00                 [083] (34)
3693  00                 [084] (34)
3694  0F                 [085] (34)
3695  02                 [086] (34)
3696  00                 [087] (34)
3697  00                 [088] (34)
3698  0F                 [089] (35)
3699  02                 [090] (35)
369A  00                 [091] (35)
369B  00                 [092] (35)
369C  0F                 [093] (35)
369D  02                 [094] (36)
369E  00                 [095] (36)
369F  00                 [096] (36)
36A0  0F                 [097] (36)
36A1  02                 [098] (36)
36A2  00                 [099] (38)
36A3  00                 [100] (38)
36A4  0F                 [101] (38)
36A5  02                 [102] (38)
36A6  00                 [103] (41)
36A7  00                 [104] (41)
36A8  10                 [105] (41)
36A9  02                 [106] (41)
36AA  00                 [107] (41)
36AB  00                 [108] (42)
36AC  11                 [109] (42)
36AD  02                 [110] (44)
                         * locals:
37F8  00                 sizelocvars (0)
                         * upvalues:
37F9  00                 sizeupvalues (0)
                         ** end of function **

                         * lines:
37FA  3A                 sizelineinfo (58)
                         [pc] (line)
37FB  1B                 [01] (27)
37FC  00                 [02] (27)
37FD  00                 [03] (27)
37FE  00                 [04] (28)
37FF  1B                 [05] (28)
3800  00                 [06] (28)
3801  00                 [07] (29)
3802  00                 [08] (29)
3803  1B                 [09] (29)
3804  00                 [10] (31)
3805  00                 [11] (31)
3806  00                 [12] (31)
3807  1C                 [13] (32)
3808  00                 [14] (32)
3809  00                 [15] (32)
380A  00                 [16] (33)
380B  1C                 [17] (33)
380C  00                 [18] (33)
380D  00                 [19] (57)
380E  00                 [20] (57)
380F  1C                 [21] (104)
3810  00                 [22] (104)
3811  00                 [23] (59)
3812  00                 [24] (-108)
3813  1D                 [25] (-108)
3814  00                 [26] (106)
3815  00                 [27] (-90)
3816  00                 [28] (-28)
3817  1D                 [29] (-28)
3818  00                 [30] (-28)
3819  00                 [31] (-28)
381A  00                 [32] (-88)
381B  1D                 [33] (15)
381C  00                 [34] (15)
381D  00                 [35] (-26)
381E  00                 [36] (40)
381F  1F                 [37] (-56)
3820  00                 [38] (-56)
3821  00                 [39] (-56)
3822  00                 [40] (-56)
3823  1F                 [41] (-56)
3824  00                 [42] (-56)
3825  00                 [43] (-56)
3826  00                 [44] (-56)
3827  1F                 [45] (-56)
3828  00                 [46] (42)
3829  00                 [47] (-27)
382A  00                 [48] (-27)
382B  20                 [49] (-27)
382C  00                 [50] (-54)
382D  00                 [51] (-1)
382E  00                 [52] (-1)
382F  20                 [53] (-25)
3830  00                 [54] (44)
3831  00                 [55] (44)
3832  00                 [56] (44)
3833  20                 [57] (1)
3834  00                 [58] (44)
                         * locals:
38E3  00                 sizelocvars (0)
                         * upvalues:
38E4  00                 sizeupvalues (0)
                         ** end of function **

38E5                     ** end of chunk **
