1	C:\wlua_dump\path\Lotus\ScriptsSurvival.lua
Pos     Hex Data           Description or Code
------------------------------------------------------------------------
000000                     ** source chunk: C:\wlua_dump\path\Lotus\ScriptsSurvival.lua
                           ** global header start **
000000  7F                 header signature: ""
000001  00                 version (major:minor hex digits)
000002  00                 format (0=official)
000003  00                 endianness (1=little endian)
000004  00                 size of int (bytes)
000005  00                 size of size_t (bytes)
000006  02                 size of Instruction (bytes)
000007  85                 size of number (bytes)
000008  AD                 integral (1=integral)
4173
                           * number type: single
                           * x86 standard (32-bit, little endian, doubles)
                           ** global header end **
Lotus.Interface.LotusUtilities
Lotus.Scripts.Libs.TransmissionSet
/Lotus/Types/Game/SurvivalKuvaExtractorState
/Lotus/Types/Items/MiscItems/Kuva
/Lotus/Language/Game/SurvivalClockMessage
/Lotus/Language/Game/SurvivalProgressBar
/Lotus/Language/Objectives/ObjectiveTimeLeft
/Lotus/Language/Game/MissionName_Survival
TimeLeft
TimeElapsed
ArtifactIntervalTime
ArtifactsActive
ArtifactsUsed
SurvivalMissionState
RewardsGiven
EndMissionTimer
VoidProjectionFlow
ShouldSpawnSurvivalMiniboss
SurvivalCapsuleLevelCapacity
SquadLinkRewardsGiven
IncomingSurvivalPillars
ActiveSurvivalPillars
ActivatingSurvivalPillars
KuvaExtractorSurvivalPillars
EE.Interface.Utilities
Lotus.Scripts.Libs.CommonGamemodeFunctions
Lotus.Scripts.Libs.ObjectiveText
Lotus.Scripts.Libs.SquadLink
SurvivalTime
_T
SquadLinkSurvivalGiveRewards
UpdateFog
AlarmActionDisabledText
ClearAlarmActionDisabledText
SurvivalHUD
PickupAddTime
IncomingPillarMarkerFlash
OnActivated
CheckIfInUse
RandomArtifactScript
ArtifactEnable
ArtifactActivated
KuvaArtifactLoop
KuvaExtractorDefense
KuvaCellPickup
StartSurvival
AlarmContextAction
SurvivalSetup
EndMission
HostMigrationInit
gRegion
/Lotus/Types/Actions/SurvivalHackAction
table
gRegion
SurvivalCapsule
table
FLT_MAX
FLT_MAX
gRegion
gGameRules
Survival: Couldn't find next capsule over nav, using fallback distance check!
Survival: Error finding the next capsule location!
AlarmObjMarker
Spawn
Survival: Couldn't determine pos, using origin!
gGameRules
alertId

invasionId
syndicateTag
maxWaveNum
gGameRules
maxWaveNum
math
gGameRules
goalTag
LateStartSurvivalMission
gGameRules
goalTag
KuvaSurvival
gGameRules
periodicMissionTag
ELITE_ALERT_PERIODIC_MISSION_TAG
ELITE_ALERT_PERIODIC_MISSION_TAG_ALT
gGameRules
fxLayer
Fire
Radiation
Toxin
useFogGradient
useInfestedFogGradient
_T
faction
Infestation
gRegion
gZoneAttribsType
Backdrop
Cinematics
table
skyboxFogMeshType
infestedFogColorMin
fogColorMin
Lotus_Game
TINT_COLOR
red
green
blue
alpha
UNLIT_ATTEN
skyFogMin
fogDensityMin
fogDensityMax
infestedFogColorMax
fogColorMax
skyFogMax
table
_T
SQUADLINK_VaultStatusChanged
s
SquadLinkSurvivalGiveRewards
t
SquadLink - Vault
 timer: 
INITIATOR_SUCCESS
gRegion
/Lotus/Language/SquadLink/ActionDisabledWhileMatchmaking
gRegion

gRegion
gFlashMgr
survivalRewardsMovie
ShowReward
red
math
green
blue
gRegion
gGameRules

FLT_MAX
extractState
table
healthTracker
statusTracker
gGameRules
A01B1B
</font><font color="#22EEFF"><b>
</b></font><font color="#FFFFFF"><b>
</font><font color="#
"><b>
<SURVIVAL_PILLAR_MARKER>
<SURVIVAL_PILLAR_OUTLINE_MARKER>
<font color="#
string
%X
_G
UIColor_Health
">
</font>
UIColor_Red
r
g
b

<p><font color="#FFFFFF">
</b></font></p>
_T
SurvivalLSLabel
HT_LABEL
gRegion
math
kuvaExtractorList
KuvaHealthTracker
SurvivalKuvaStatus
HT_HEALTH_TRACKER
/Lotus/Language/Game/ExcavationTime
Removing
<p><font color="#FFFFFF"><b>
</b> 
healthTracker
statusTracker
table
Lotus_Game
BaseMarkerInfo_DR_NONE
BaseMarkerInfo_DR_SAME_ZONE
RemoveHudTracker
math
</font><font color="#
">
</font>
gGameRules
_T
LifeSupportBar
math
survivalBroadcastObjectiveIcon
SurvivalTimer
HT_TIMER
gGameRules
gRegion
gGameRules
difficulty
_T
MissionTransmissionSet
SurvivalPickupVO
_T
EndlessModeEnemyLevel
gRegion
math
_T
kuvaExtractorList
table
gRegion
No target to storm for 
gRegion
gGameRules
gFlashMgr
Server.NumVirtualTestClients
math
Infestation
Engine
gRegion
gGameRules
timeAddPickup
math
gRegion
gGameRules
math
_T
EndlessModeEnemyLevel
leadersAlwaysAllowed
sortieId

alertId
goalId
gMiniBossArtifactSpawn
faction
MiniBossTeam
Engine
EXIMUS
kuvaConvertorDropTable
table
killMarkerType
GAME_C1_SPINE3
RandomTeam
STANDARD
math
gGameRules
OnActivated
gGameRules
_T
MissionComplete
math
MissionTransmissionSet
AdvanceWarningVO
capsuleIncomingEffect
EMPTY_SYMBOL
ZERO_VECTOR
Execute
gMiniBossArtifactSpawn
gGameRules
gRegion
Show
objectiveMarkerType
EMPTY_SYMBOL
survivalProgressBarActionType
ZERO_VECTOR
_T
MissionTransmissionSet
SurvivalFirstDrop
SurvivalDrop
capsuleIncomingEffect
Survival: New capsule 
 became available at 
 seconds.
objectiveMarkerType
Hide
artifactActivatedEffect
EMPTY_SYMBOL
ZERO_VECTOR
artifactActivatedSpawner
gRegion
gGameRules
powerUpScriptType
math
_T
MissionTransmissionSet
SurvivalDropActivated
Survival: Capsule 
 activated at 
 seconds.
gUpdateElementalLayer
gScriptTriggerType
gContextActionType
gRegion
gGameRules
_T
gMiniBossArtifactSpawn
kuvaConvertorItemType
survivalProgressBarActionType
Hide
gBaseMarkerInfoType
kuvaExtractorAgentType
KuvaTowerTeam
gGameRules
gRegion
_T
kuvaExtractorList
/Lotus/Language/Objectives/KuvaTowerStarted
MissionTransmissionSet
KuvaTowerStarted
KuvaTowerWarningIntro
towerStartSound
towerKeyInsertSound
/Lotus/Language/Objectives/KuvaTowerDestroyed
KuvaTowerDestroyed
towerDeadFx
towerDestroyedSound
/Lotus/Language/Objectives/KuvaTowerCompleted
towerDoneFx
towerCompleteSound
/Lotus/Language/Game/GenericObjectiveCompleteXp
artifactActivatedEffect
artifactActivatedSpawner
math
SurvivalKuvaStatus
KuvaHealthTracker
_T
MissionTransmissionSet
KuvaCellPickedUp
gGameRules
gPromotedToHost
Survival: Bailing on SurvivalLoopClient because I am now the host!
Survival: Client: trying to catch up with new reward count= 
, current=
Survival: Client: Reward count matches new reward count.
Survival: Client: Reward count not yet initialized, setting to 
table
gAvatarType
gRegion
gGameRules
gRegion
Enable
_T
MissionTransmissionSet
SurvivalExtractionReady
Lotus_Game
BaseMarkerInfo_DR_NONE
Lotus_Game
BaseMarkerInfo_DR_SAME_ZONE
string
gGameRules
activeMissionTag
Void
gGameRules
gRegion
Lotus.Interface.Libs.TimerMgr
Survival: Main gameplay loop started
string
activeMissionTag
Void
goalId

DefenseAgentSpawn
BipedSpecialSpawn
DoNotUse
CameraSpawn
TurretSpawn
WaterSpawn
_T
MissionComplete
math
SquadLinkSurvivalGiveRewards
Survival: Host - first reward
MissionTransmissionSet
SurvivalRewardReached
SurvivalFirstTimeReached
/Lotus/Language/Game/ExtractionTimer
SurvivalExtractionUrgent
SurvivalExtractionReady
useInfestedFogGradient
faction
Infestation
SurvivalExtractionUrgentInfested
Survival30SecondsLeft
Survival60SecondsLeft
Survival: Life support is at 0, checking for capsules still in use.
survivalProgressBarActionType
Survival: Life support capsule being activated, waiting for it to finish.
SurvivalTimed
Mins
Survival: Final score is 
EndMissionScript
gRegion
Survival: Alarm triggered
gGameRules
gChallengeMgr
WaterSpawn
Disable
_T
MissionTransmissionSet
SurvivalLifeSupportCutKuva
useInfestedFogGradient
faction
Infestation
SurvivalLifeSupportCutInfested
SurvivalLifeSupportCut
gSurvivalRewardSeed
AddHudTracker
LifeSupportBar
survivalBroadcastObjectiveIcon
Survival: Waiting for hud to be a thing
AlarmObjMarker
RandomArtifactScript
gRegion
DoorHint
StartSurvival
alarmDeco
alarmMaterialSwap
alarmMaterialSlot
alarmSound
Disable
alarmMarker
alarmLight
TurnOff
Unlock
SurvivalDoor
Start
gRegion
/Lotus/Types/Actions/SurvivalHackAction
_T
AllowWrinkles
gSkipExtractionTimer
gPromotedToHost
Survival: Mission started
gRegion
transmissionSet
MissionTransmissionSet
ObjectiveStartKuva
useInfestedFogGradient
faction
Infestation
ObjectiveStartInfested
ObjectiveStart
DoorHint
Lock
SurvivalSetupForwarder
TriggerPort
/Lotus/Language/Objectives/SurvivalTriggerAlarm
BreakableOnPath
Destroy
gGameRules
SurvivalArtifactSpawn
Intermediate
Boss
VoidTearSpawn
table
survivalArtifactType
kuvaArtifactType
Survival: 
 valid life support spawns available.
Spawn
AlarmObjMarker
SurvivalFog
SurvivalSpy
Vaults
AllPlayersExtractingCallbacks
startupTimeout
INITIATOR_FAILURE
Engine
GameRules_GS_FAILURE
SurvivalHudScript
gRegion
gGameRules
_T
LifeSupportBar
Survival: Life support ran out at 
gSkipExtractionTimer
Lotus_Game
BaseMarkerInfo_DR_NONE
survivalProgressBarActionType
Disable
ArtifactDeco
Hide
capsuleIncomingEffect
ArtifactObjMarker
timeAddPickup
supportDepletedSound
MissionComplete
math
IronSkinDM
useInfestedFogGradient
faction
Infestation
Survival: 5 minutes elapsed after life support ran out, mission failed.
INITIATOR_FAILURE
Engine
GameRules_GS_FAILURE
Survival: Life support ran out before first reward reached, mission failed.
gGameRules
Lotus_Game
MT_SURVIVAL
Objective
Boss
gRegion
_T
AllowWrinkles
gSkipExtractionTimer
gSurvivalRewardSeed
Survival: Host migration init mission state: 
transmissionSet
AlarmObjMarker
Spawn
Survival: Can't find alarm panel to set objective after host migration.
SurvivalFog
Survival: Error restarting objective after host migration!
kuvaExtractorList
SurvivalHudScript
LifeSupportBar
math
survivalBroadcastObjectiveIcon
Survival: Host migration init progress bar initialized: 
 seconds left.
RandomArtifactScript
Survival: Host migration init timer restarted: 
 seconds elapsed.
gFlashMgr
loadingScreen
kuvaConvertorDropTable
killMarkerType
GAME_C1_SPINE3
                           
000001                     ** function [0] definition (level 1)
                           ** start of function **
000001  00                 string size (0)
                           source name: (none)
000002  00                 line defined (0)
000003  00                 last line defined (0)
000004  00                 nups (0)
000005  00                 numparams (0)
000006  02                 is_vararg (2)
000007  85                 maxstacksize (133)
                           * code:
000009  04                 sizecode (557)
00000A  1D000000           [001] getglobal  0   0        ; 572299008
00000E  59400000           [002] loadk      1   1        ; 0
000012  99800000           [003] loadk      2   2        ; 0
000016  D9400000           [004] loadk      3   1        ; 0
00001A  22800002           [005] call       0   4   2  
00001E  59C00000           [006] loadk      1   3        ; 0
000022  99000100           [007] loadk      2   4        ; -51
000026  D9400100           [008] loadk      3   5        ; 0
00002A  19810000           [009] loadk      4   2        ; 0
00002E  59810100           [010] loadk      5   6        ; -51
000032  99C10100           [011] loadk      6   7        ; 0
000036  D9010200           [012] loadk      7   8        ; 0
00003A  19020200           [013] loadk      8   8        ; 0
00003E  59420200           [014] loadk      9   9        ; 0
000042  99820200           [015] loadk      10  10       ; 0
000046  D9C20200           [016] loadk      11  11       ; 0
00004A  19030100           [017] loadk      12  4        ; -51
00004E  59030300           [018] loadk      13  12       ; 51
000052  99430300           [019] loadk      14  13       ; 0
000056  D9830300           [020] loadk      15  14       ; 0
00005A  19C40300           [021] loadk      16  15       ; 0
00005E  59040400           [022] loadk      17  16       ; 0
000062  99C40100           [023] loadk      18  7        ; 0
000066  D9840000           [024] loadk      19  2        ; 0
00006A  19450400           [025] loadk      20  17       ; 0
00006E  59850400           [026] loadk      21  18       ; 0
000072  99050400           [027] loadk      22  16       ; 0
000076  D9C50400           [028] loadk      23  19       ; 102
00007A  19060500           [029] loadk      24  20       ; 10
00007E  59460500           [030] loadk      25  21       ; 0
000082  97060000           [031] loadbool   26  0   0    ; false
000086  D9860300           [032] loadk      27  14       ; 0
00008A  0607800E           [033] loadnil    28  29     
00008E  8B070002           [034] newtable   30  4   0    ; array=4, hash=0
000092  D9870500           [035] loadk      31  22       ; 0
000096  19480500           [036] loadk      32  21       ; 0
00009A  59C80500           [037] loadk      33  23       ; 0
00009E  99080400           [038] loadk      34  16       ; 0
0000A2  9B470002           [039] setlist    30  4   1    ; index 1 to 4
0000A6  CB070002           [040] newtable   31  4   0    ; array=4, hash=0
0000AA  19080600           [041] loadk      32  24       ; 0
0000AE  59C80500           [042] loadk      33  23       ; 0
0000B2  99080400           [043] loadk      34  16       ; 0
0000B6  D9480600           [044] loadk      35  25       ; 0
0000BA  DB470002           [045] setlist    31  4   1    ; index 1 to 4
0000BE  0B080002           [046] newtable   32  4   0    ; array=4, hash=0
0000C2  59C80300           [047] loadk      33  15       ; 0
0000C6  99480500           [048] loadk      34  21       ; 0
0000CA  D9C80500           [049] loadk      35  23       ; 0
0000CE  19090400           [050] loadk      36  16       ; 0
0000D2  1B480002           [051] setlist    32  4   1    ; index 1 to 4
0000D6  4B080002           [052] newtable   33  4   0    ; array=4, hash=0
0000DA  99880600           [053] loadk      34  26       ; 0
0000DE  D9C80500           [054] loadk      35  23       ; 0
0000E2  19090400           [055] loadk      36  16       ; 0
0000E6  59490600           [056] loadk      37  25       ; 0
0000EA  5B480002           [057] setlist    33  4   1    ; index 1 to 4
0000EE  99C80600           [058] loadk      34  27       ; 0
0000F2  D9880000           [059] loadk      35  2        ; 0
0000F6  19890400           [060] loadk      36  18       ; 0
0000FA  59C90500           [061] loadk      37  23       ; 0
0000FE  99090700           [062] loadk      38  28       ; 0
000102  D9490700           [063] loadk      39  29       ; 0
000106  0B0A0000           [064] newtable   40  0   0    ; array=0, hash=0
00010A  594A0000           [065] loadk      41  1        ; 0
00010E  994A0000           [066] loadk      42  1        ; 0
000112  D98A0100           [067] loadk      43  6        ; -51
000116  198B0700           [068] loadk      44  30       ; 102
00011A  59CB0700           [069] loadk      45  31       ; -61
00011E  990B0800           [070] loadk      46  32       ; 0
000122  D94B0800           [071] loadk      47  33       ; 0
000126  198C0800           [072] loadk      48  34       ; 0
00012A  59CC0800           [073] loadk      49  35       ; 0
00012E  990C0900           [074] loadk      50  36       ; -72
000132  D9CC0100           [075] loadk      51  7        ; 0
000136  194D0900           [076] loadk      52  37       ; 0
00013A  594D0000           [077] loadk      53  1        ; 0
00013E  994D0400           [078] loadk      54  17       ; 0
000142  D98D0900           [079] loadk      55  38       ; 10
000146  19CE0900           [080] loadk      56  39       ; -102
00014A  5D0E0A00           [081] getglobal  57  40       ; 849075268
00014E  994E0A00           [082] loadk      58  41       ; "Lotus.Interface.LotusUtilities"
000152  628E0001           [083] call       57  2   2  
000156  9D0E0A00           [084] getglobal  58  40       ; 849075268
00015A  D98E0A00           [085] loadk      59  42       ; "Lotus.Scripts.Libs.TransmissionSet"
00015E  A28E0001           [086] call       58  2   2  
000162  D94E0400           [087] loadk      59  17       ; 0
000166  194F0400           [088] loadk      60  17       ; 0
00016A  59CF0A00           [089] loadk      61  43       ; 0
00016E  9D0F0B00           [090] getglobal  62  44       ; 738251817
000172  D94F0B00           [091] loadk      63  45       ; "/Lotus/Types/Game/SurvivalKuvaExtractorState"
000176  A28F0001           [092] call       62  2   2  
00017A  D9CF0800           [093] loadk      63  35       ; 0
00017E  19900B00           [094] loadk      64  46       ; 0
000182  59D00B00           [095] loadk      65  47       ; 0
000186  9D100C00           [096] getglobal  66  48       ; 2083004503
00018A  D9500C00           [097] loadk      67  49       ; "/Lotus/Types/Items/MiscItems/Kuva"
00018E  A2900001           [098] call       66  2   2  
000192  DD900C00           [099] getglobal  67  50       ; -332969190
000196  19D10C00           [100] loadk      68  51       ; "/Lotus/Language/Game/SurvivalClockMessage"
00019A  E2900001           [101] call       67  2   2  
00019E  19110D00           [102] loadk      68  52       ; "/Lotus/Language/Game/SurvivalProgressBar"
0001A2  59510D00           [103] loadk      69  53       ; "/Lotus/Language/Objectives/ObjectiveTimeLeft"
0001A6  99910D00           [104] loadk      70  54       ; "/Lotus/Language/Game/MissionName_Survival"
0001AA  DD910C00           [105] getglobal  71  50       ; -332969190
0001AE  19D20D00           [106] loadk      72  55       ; "TimeLeft"
0001B2  E2910001           [107] call       71  2   2  
0001B6  1D920C00           [108] getglobal  72  50       ; -332969190
0001BA  59120E00           [109] loadk      73  56       ; "TimeElapsed"
0001BE  22920001           [110] call       72  2   2  
0001C2  5D920C00           [111] getglobal  73  50       ; -332969190
0001C6  99520E00           [112] loadk      74  57       ; "ArtifactIntervalTime"
0001CA  62920001           [113] call       73  2   2  
0001CE  9D920C00           [114] getglobal  74  50       ; -332969190
0001D2  D9920E00           [115] loadk      75  58       ; "ArtifactsActive"
0001D6  A2920001           [116] call       74  2   2  
0001DA  DD920C00           [117] getglobal  75  50       ; -332969190
0001DE  19D30E00           [118] loadk      76  59       ; "ArtifactsUsed"
0001E2  E2920001           [119] call       75  2   2  
0001E6  1D930C00           [120] getglobal  76  50       ; -332969190
0001EA  59130F00           [121] loadk      77  60       ; "SurvivalMissionState"
0001EE  22930001           [122] call       76  2   2  
0001F2  5D930C00           [123] getglobal  77  50       ; -332969190
0001F6  99530F00           [124] loadk      78  61       ; "RewardsGiven"
0001FA  62930001           [125] call       77  2   2  
0001FE  9D930C00           [126] getglobal  78  50       ; -332969190
000202  D9930F00           [127] loadk      79  62       ; "EndMissionTimer"
000206  A2930001           [128] call       78  2   2  
00020A  DD930C00           [129] getglobal  79  50       ; -332969190
00020E  19D40F00           [130] loadk      80  63       ; "VoidProjectionFlow"
000212  E2930001           [131] call       79  2   2  
000216  1D940C00           [132] getglobal  80  50       ; -332969190
00021A  59141000           [133] loadk      81  64       ; "ShouldSpawnSurvivalMiniboss"
00021E  22940001           [134] call       80  2   2  
000222  5D940C00           [135] getglobal  81  50       ; -332969190
000226  99541000           [136] loadk      82  65       ; "SurvivalCapsuleLevelCapacity"
00022A  62940001           [137] call       81  2   2  
00022E  9D940C00           [138] getglobal  82  50       ; -332969190
000232  D9941000           [139] loadk      83  66       ; "SquadLinkRewardsGiven"
000236  A2940001           [140] call       82  2   2  
00023A  DD940C00           [141] getglobal  83  50       ; -332969190
00023E  19D51000           [142] loadk      84  67       ; "IncomingSurvivalPillars"
000242  E2940001           [143] call       83  2   2  
000246  1D950C00           [144] getglobal  84  50       ; -332969190
00024A  59151100           [145] loadk      85  68       ; "ActiveSurvivalPillars"
00024E  22950001           [146] call       84  2   2  
000252  5D950C00           [147] getglobal  85  50       ; -332969190
000256  99551100           [148] loadk      86  69       ; "ActivatingSurvivalPillars"
00025A  62950001           [149] call       85  2   2  
00025E  9D950C00           [150] getglobal  86  50       ; -332969190
000262  D9951100           [151] loadk      87  70       ; "KuvaExtractorSurvivalPillars"
000266  A2950001           [152] call       86  2   2  
00026A  DD150A00           [153] getglobal  87  40       ; 849075268
00026E  19D61100           [154] loadk      88  71       ; "EE.Interface.Utilities"
000272  E2950001           [155] call       87  2   2  
000276  1D160A00           [156] getglobal  88  40       ; 849075268
00027A  59161200           [157] loadk      89  72       ; "Lotus.Scripts.Libs.CommonGamemodeFunctions"
00027E  22960001           [158] call       88  2   2  
000282  5D160A00           [159] getglobal  89  40       ; 849075268
000286  99561200           [160] loadk      90  73       ; "Lotus.Scripts.Libs.ObjectiveText"
00028A  62960001           [161] call       89  2   2  
00028E  9D160A00           [162] getglobal  90  40       ; 849075268
000292  D9961200           [163] loadk      91  74       ; "Lotus.Scripts.Libs.SquadLink"
000296  A2960001           [164] call       90  2   2  
00029A  DD960C00           [165] getglobal  91  50       ; -332969190
00029E  19D71200           [166] loadk      92  75       ; "SurvivalTime"
0002A2  E2960001           [167] call       91  2   2  
0002A6  19570000           [168] loadk      92  1        ; 0
0002AA  59970000           [169] loadk      93  2        ; 0
0002AE  99D70000           [170] loadk      94  3        ; 0
0002B2  C6170030           [171] loadnil    95  96     
0002B6  5D181300           [172] getglobal  97  76       ; _T
0002BA  9D181300           [173] getglobal  98  76       ; _T
0002BE  8E585331           [174] gettable   98  98  333  ; "SquadLinkSurvivalGiveRewards"
0002C2  98580000           [175] test       98      1    ; to [177] if false
0002C6  1A000080           [176] jmp        1            ; to [178]
0002CA  99580000           [177] loadk      98  1        ; 0
0002CE  4C9898A6           [178] settable   97  333 98   ; "SquadLinkSurvivalGiveRewards"
0002D2  65180000           [179] closure    97  0      
0002D6  12000030           [180] move       0   96     
0002DA  A5580000           [181] closure    98  1      
0002DE  12000030           [182] move       0   96     
0002E2  E5980000           [183] closure    99  2      
0002E6  1200802F           [184] move       0   95     
0002EA  25D90000           [185] closure    100 3      
0002EE  65190100           [186] closure    101 4      
0002F2  12000026           [187] move       0   76     
0002F6  12008031           [188] move       0   99     
0002FA  12000032           [189] move       0   100    
0002FE  A5590100           [190] closure    102 5      
000302  E5990100           [191] closure    103 6      
000306  1200802B           [192] move       0   87     
00030A  1200000A           [193] move       0   20     
00030E  25DA0100           [194] closure    104 7      
000312  651A0200           [195] closure    105 8      
000316  A55A0200           [196] closure    106 9      
00031A  1200801C           [197] move       0   57     
00031E  E59A0200           [198] closure    107 10     
000322  12000026           [199] move       0   76     
000326  12008023           [200] move       0   71     
00032A  12000004           [201] move       0   8      
00032E  E09A1300           [202] setglobal  107 78       ; UpdateFog
000332  E0DA1300           [203] setglobal  107 79       ; -369700545
000336  E5DA0200           [204] closure    107 11     
00033A  251B0300           [205] closure    108 12     
00033E  1200002D           [206] move       0   90     
000342  655B0300           [207] closure    109 13     
000346  1200002D           [208] move       0   90     
00034A  601B1400           [209] setglobal  109 80       ; AlarmActionDisabledText
00034E  605B1400           [210] setglobal  109 81       ; 67110545
000352  659B0300           [211] closure    109 14     
000356  609B1400           [212] setglobal  109 82       ; ClearAlarmActionDisabledText
00035A  60DB1400           [213] setglobal  109 83       ; -561003106
00035E  65DB0300           [214] closure    109 15     
000362  A51B0400           [215] closure    110 16     
000366  E55B0400           [216] closure    111 17     
00036A  259C0400           [217] closure    112 18     
00036E  65DC0400           [218] closure    113 19     
000372  1200802C           [219] move       0   89     
000376  1200801E           [220] move       0   61     
00037A  A51C0500           [221] closure    114 20     
00037E  12008034           [222] move       0   105    
000382  1200802B           [223] move       0   87     
000386  1200002C           [224] move       0   88     
00038A  12008023           [225] move       0   71     
00038E  12000026           [226] move       0   76     
000392  12008029           [227] move       0   83     
000396  1200802A           [228] move       0   85     
00039A  1200002A           [229] move       0   84     
00039E  1200002B           [230] move       0   86     
0003A2  1200802C           [231] move       0   89     
0003A6  1200801C           [232] move       0   57     
0003AA  12000004           [233] move       0   8      
0003AE  12008037           [234] move       0   111    
0003B2  1200801F           [235] move       0   63     
0003B6  1200801E           [236] move       0   61     
0003BA  12008038           [237] move       0   113    
0003BE  1200800E           [238] move       0   29     
0003C2  A01C1500           [239] setglobal  114 84       ; SurvivalHUD
0003C6  A05C1500           [240] setglobal  114 85       ; -1412964774
0003CA  A55C0500           [241] closure    114 21     
0003CE  12008023           [242] move       0   71     
0003D2  12000004           [243] move       0   8      
0003D6  1200802C           [244] move       0   89     
0003DA  12000022           [245] move       0   68     
0003DE  1200801C           [246] move       0   57     
0003E2  12000033           [247] move       0   102    
0003E6  12008022           [248] move       0   69     
0003EA  1200802D           [249] move       0   91     
0003EE  E59C0500           [250] closure    115 22     
0003F2  12008023           [251] move       0   71     
0003F6  12000004           [252] move       0   8      
0003FA  25DD0500           [253] closure    116 23     
0003FE  12000008           [254] move       0   16     
000402  12000035           [255] move       0   106    
000406  12008039           [256] move       0   115    
00040A  12000024           [257] move       0   72     
00040E  1200001D           [258] move       0   58     
000412  209D1500           [259] setglobal  116 86       ; PickupAddTime
000416  20DD1500           [260] setglobal  116 87       ; -1070276551
00041A  251D0600           [261] closure    116 24     
00041E  1200002C           [262] move       0   88     
000422  201D1600           [263] setglobal  116 88       ; IncomingPillarMarkerFlash
000426  205D1600           [264] setglobal  116 89       ; 24179051
00042A  255D0600           [265] closure    116 25     
00042E  659D0600           [266] closure    117 26     
000432  A5DD0600           [267] closure    118 27     
000436  12000024           [268] move       0   72     
00043A  12000010           [269] move       0   32     
00043E  12008010           [270] move       0   33     
000442  1200000F           [271] move       0   30     
000446  1200800F           [272] move       0   31     
00044A  1200003A           [273] move       0   116    
00044E  E51D0700           [274] closure    119 28     
000452  1200003B           [275] move       0   118    
000456  12008013           [276] move       0   39     
00045A  255E0700           [277] closure    120 29     
00045E  12008023           [278] move       0   71     
000462  12000004           [279] move       0   8      
000466  1200003B           [280] move       0   118    
00046A  12000026           [281] move       0   76     
00046E  12000006           [282] move       0   12     
000472  12000007           [283] move       0   14     
000476  12008006           [284] move       0   13     
00047A  12008007           [285] move       0   15     
00047E  12000033           [286] move       0   102    
000482  12008033           [287] move       0   103    
000486  1200800B           [288] move       0   23     
00048A  1200802D           [289] move       0   91     
00048E  659E0700           [290] closure    121 30     
000492  12000015           [291] move       0   42     
000496  12008015           [292] move       0   43     
00049A  12000016           [293] move       0   44     
00049E  12008016           [294] move       0   45     
0004A2  1200003B           [295] move       0   118    
0004A6  A5DE0700           [296] closure    122 31     
0004AA  12000024           [297] move       0   72     
0004AE  12000027           [298] move       0   78     
0004B2  12000033           [299] move       0   102    
0004B6  12008017           [300] move       0   47     
0004BA  12008033           [301] move       0   103    
0004BE  12000017           [302] move       0   46     
0004C2  1200002C           [303] move       0   88     
0004C6  1200800C           [304] move       0   25     
0004CA  1200800A           [305] move       0   21     
0004CE  12008034           [306] move       0   105    
0004D2  1200001E           [307] move       0   60     
0004D6  1200801D           [308] move       0   59     
0004DA  12000018           [309] move       0   48     
0004DE  12000019           [310] move       0   50     
0004E2  12008018           [311] move       0   49     
0004E6  12000011           [312] move       0   34     
0004EA  12000012           [313] move       0   36     
0004EE  12008011           [314] move       0   35     
0004F2  1200003A           [315] move       0   116    
0004F6  12008019           [316] move       0   51     
0004FA  1200001B           [317] move       0   54     
0004FE  1200801A           [318] move       0   53     
000502  1200001A           [319] move       0   52     
000506  1200801B           [320] move       0   55     
00050A  1200001C           [321] move       0   56     
00050E  12000025           [322] move       0   74     
000512  12000014           [323] move       0   40     
000516  1200803A           [324] move       0   117    
00051A  12000028           [325] move       0   80     
00051E  1200802B           [326] move       0   87     
000522  E51E0800           [327] closure    123 32     
000526  1200003C           [328] move       0   120    
00052A  1200803B           [329] move       0   119    
00052E  12008014           [330] move       0   41     
000532  1200003D           [331] move       0   122    
000536  1200803C           [332] move       0   121    
00053A  255F0800           [333] closure    124 33     
00053E  1200802A           [334] move       0   85     
000542  209F1600           [335] setglobal  124 90       ; OnActivated
000546  20DF1600           [336] setglobal  124 91       ; -2046545934
00054A  259F0800           [337] closure    124 34     
00054E  201F1700           [338] setglobal  124 92       ; CheckIfInUse
000552  205F1700           [339] setglobal  124 93       ; 377800527
000556  25DF0800           [340] closure    124 35     
00055A  12000033           [341] move       0   102    
00055E  12008028           [342] move       0   81     
000562  12008034           [343] move       0   105    
000566  12000026           [344] move       0   76     
00056A  1200002A           [345] move       0   84     
00056E  12008005           [346] move       0   11     
000572  12008031           [347] move       0   99     
000576  12008032           [348] move       0   101    
00057A  12000005           [349] move       0   10     
00057E  12000025           [350] move       0   74     
000582  12008024           [351] move       0   73     
000586  12008008           [352] move       0   17     
00058A  1200001D           [353] move       0   58     
00058E  12008029           [354] move       0   83     
000592  12000028           [355] move       0   80     
000596  651F0900           [356] closure    125 36     
00059A  1200003E           [357] move       0   124    
00059E  609F1700           [358] setglobal  125 94       ; RandomArtifactScript
0005A2  60DF1700           [359] setglobal  125 95       ; 1483687524
0005A6  655F0900           [360] closure    125 37     
0005AA  12000025           [361] move       0   74     
0005AE  1200002A           [362] move       0   84     
0005B2  12000000           [363] move       0   0      
0005B6  12008034           [364] move       0   105    
0005BA  1200002B           [365] move       0   86     
0005BE  12000026           [366] move       0   76     
0005C2  1200001D           [367] move       0   58     
0005C6  1200802D           [368] move       0   91     
0005CA  601F1800           [369] setglobal  125 96       ; ArtifactEnable
0005CE  605F1800           [370] setglobal  125 97       ; -900354325
0005D2  659F0900           [371] closure    125 38     
0005D6  12008039           [372] move       0   115    
0005DA  12008004           [373] move       0   9      
0005DE  12008025           [374] move       0   75     
0005E2  12008031           [375] move       0   99     
0005E6  1200802A           [376] move       0   85     
0005EA  1200002A           [377] move       0   84     
0005EE  12000026           [378] move       0   76     
0005F2  1200001D           [379] move       0   58     
0005F6  1200802D           [380] move       0   91     
0005FA  609F1800           [381] setglobal  125 98       ; ArtifactActivated
0005FE  60DF1800           [382] setglobal  125 99       ; -1698007516
000602  65DF0900           [383] closure    125 39     
000606  12000026           [384] move       0   76     
00060A  12000028           [385] move       0   80     
00060E  1200002B           [386] move       0   86     
000612  1200801F           [387] move       0   63     
000616  1200002A           [388] move       0   84     
00061A  601F1900           [389] setglobal  125 100      ; KuvaArtifactLoop
00061E  605F1900           [390] setglobal  125 101      ; 275566126
000622  651F0A00           [391] closure    125 40     
000626  1200001F           [392] move       0   62     
00062A  1200801E           [393] move       0   61     
00062E  12000038           [394] move       0   112    
000632  1200001D           [395] move       0   58     
000636  12000026           [396] move       0   76     
00063A  12000020           [397] move       0   64     
00063E  12008020           [398] move       0   65     
000642  1200003A           [399] move       0   116    
000646  1200002C           [400] move       0   88     
00064A  12008036           [401] move       0   109    
00064E  12000021           [402] move       0   66     
000652  12008039           [403] move       0   115    
000656  12008004           [404] move       0   9      
00065A  1200000D           [405] move       0   26     
00065E  1200801F           [406] move       0   63     
000662  12008031           [407] move       0   99     
000666  1200002B           [408] move       0   86     
00066A  609F1900           [409] setglobal  125 102      ; KuvaExtractorDefense
00066E  60DF1900           [410] setglobal  125 103      ; -537655500
000672  655F0A00           [411] closure    125 41     
000676  1200001D           [412] move       0   58     
00067A  601F1A00           [413] setglobal  125 104      ; KuvaCellPickup
00067E  605F1A00           [414] setglobal  125 105      ; -1459011193
000682  599F1A00           [415] loadk      125 106      ; 0
000686  A59F0A00           [416] closure    126 42     
00068A  12008026           [417] move       0   77     
00068E  1200803E           [418] move       0   125    
000692  12000033           [419] move       0   102    
000696  12000037           [420] move       0   110    
00069A  E5DF0A00           [421] closure    127 43     
00069E  12000014           [422] move       0   40     
0006A2  1200803A           [423] move       0   117    
0006A6  25200B00           [424] closure    128 44     
0006AA  12008026           [425] move       0   77     
0006AE  1200002C           [426] move       0   88     
0006B2  12008009           [427] move       0   19     
0006B6  12000026           [428] move       0   76     
0006BA  1200001D           [429] move       0   58     
0006BE  12000033           [430] move       0   102    
0006C2  1200802C           [431] move       0   89     
0006C6  1200800E           [432] move       0   29     
0006CA  1200000E           [433] move       0   28     
0006CE  65600B00           [434] closure    129 45     
0006D2  1200802E           [435] move       0   93     
0006D6  12008027           [436] move       0   79     
0006DA  1200802B           [437] move       0   87     
0006DE  1200801C           [438] move       0   57     
0006E2  1200002F           [439] move       0   94     
0006E6  1200002E           [440] move       0   92     
0006EA  A5A00B00           [441] closure    130 46     
0006EE  12000033           [442] move       0   102    
0006F2  1200000E           [443] move       0   28     
0006F6  12000009           [444] move       0   18     
0006FA  1200802B           [445] move       0   87     
0006FE  12008033           [446] move       0   103    
000702  12008009           [447] move       0   19     
000706  12000013           [448] move       0   38     
00070A  12008012           [449] move       0   37     
00070E  12008023           [450] move       0   71     
000712  1200802D           [451] move       0   91     
000716  12000039           [452] move       0   114    
00071A  1200803F           [453] move       0   127    
00071E  1200803D           [454] move       0   123    
000722  1200800D           [455] move       0   27     
000726  1200000D           [456] move       0   26     
00072A  12008026           [457] move       0   77     
00072E  12000029           [458] move       0   82     
000732  12000037           [459] move       0   110    
000736  1200001D           [460] move       0   58     
00073A  12000040           [461] move       0   128    
00073E  12008040           [462] move       0   129    
000742  12000026           [463] move       0   76     
000746  12000024           [464] move       0   72     
00074A  1200002C           [465] move       0   88     
00074E  E5E00B00           [466] closure    131 47     
000752  1200002D           [467] move       0   90     
000756  12000026           [468] move       0   76     
00075A  12008023           [469] move       0   71     
00075E  12008003           [470] move       0   7      
000762  12000034           [471] move       0   104    
000766  12008034           [472] move       0   105    
00076A  1200001D           [473] move       0   58     
00076E  1200802C           [474] move       0   89     
000772  12008000           [475] move       0   1      
000776  12000022           [476] move       0   68     
00077A  12000033           [477] move       0   102    
00077E  1200802D           [478] move       0   91     
000782  12008021           [479] move       0   67     
000786  12008033           [480] move       0   103    
00078A  1200002C           [481] move       0   88     
00078E  12000023           [482] move       0   70     
000792  12000041           [483] move       0   130    
000796  1200003F           [484] move       0   126    
00079A  E0E01A00           [485] setglobal  131 107      ; StartSurvival
00079E  E0201B00           [486] setglobal  131 108      ; 658697274
0007A2  E5200C00           [487] closure    131 48     
0007A6  1200002C           [488] move       0   88     
0007AA  E0601B00           [489] setglobal  131 109      ; AlarmContextAction
0007AE  E0A01B00           [490] setglobal  131 110      ; -1078876043
0007B2  E5600C00           [491] closure    131 49     
0007B6  25A10C00           [492] closure    132 50     
0007BA  12000034           [493] move       0   104    
0007BE  12008034           [494] move       0   105    
0007C2  1200001D           [495] move       0   58     
0007C6  1200802C           [496] move       0   89     
0007CA  12000027           [497] move       0   78     
0007CE  12008028           [498] move       0   81     
0007D2  1200002C           [499] move       0   88     
0007D6  12000033           [500] move       0   102    
0007DA  1200002D           [501] move       0   90     
0007DE  12008035           [502] move       0   107    
0007E2  12000036           [503] move       0   108    
0007E6  12000026           [504] move       0   76     
0007EA  12008041           [505] move       0   131    
0007EE  12000030           [506] move       0   96     
0007F2  12008030           [507] move       0   97     
0007F6  12000031           [508] move       0   98     
0007FA  20E11B00           [509] setglobal  132 111      ; SurvivalSetup
0007FE  20211C00           [510] setglobal  132 112      ; -1663176605
000802  25E10C00           [511] closure    132 51     
000806  12000026           [512] move       0   76     
00080A  12000024           [513] move       0   72     
00080E  1200802D           [514] move       0   91     
000812  1200802C           [515] move       0   89     
000816  1200002C           [516] move       0   88     
00081A  12000033           [517] move       0   102    
00081E  12000027           [518] move       0   78     
000822  1200000B           [519] move       0   22     
000826  1200803D           [520] move       0   123    
00082A  1200800D           [521] move       0   27     
00082E  12000001           [522] move       0   2      
000832  1200000C           [523] move       0   24     
000836  12000002           [524] move       0   4      
00083A  12008001           [525] move       0   3      
00083E  12008002           [526] move       0   5      
000842  12000003           [527] move       0   6      
000846  1200002D           [528] move       0   90     
00084A  12000009           [529] move       0   18     
00084E  12008033           [530] move       0   103    
000852  20611C00           [531] setglobal  132 113      ; EndMission
000856  20A11C00           [532] setglobal  132 114      ; 1499882380
00085A  25210D00           [533] closure    132 52     
00085E  12000026           [534] move       0   76     
000862  12008026           [535] move       0   77     
000866  1200001D           [536] move       0   58     
00086A  12008031           [537] move       0   99     
00086E  1200002C           [538] move       0   88     
000872  12008034           [539] move       0   105    
000876  1200001F           [540] move       0   62     
00087A  1200801F           [541] move       0   63     
00087E  12008023           [542] move       0   71     
000882  12000004           [543] move       0   8      
000886  1200802C           [544] move       0   89     
00088A  12000022           [545] move       0   68     
00088E  12000024           [546] move       0   72     
000892  12000033           [547] move       0   102    
000896  12008033           [548] move       0   103    
00089A  1200802D           [549] move       0   91     
00089E  12008021           [550] move       0   67     
0008A2  12008027           [551] move       0   79     
0008A6  1200002E           [552] move       0   92     
0008AA  12008040           [553] move       0   129    
0008AE  12000041           [554] move       0   130    
0008B2  20E11C00           [555] setglobal  132 115      ; HostMigrationInit
0008B6  20211D00           [556] setglobal  132 116      ; 889129369
0008BA  1E008000           [557] return     0   1      
                           * constants:
0008BE  75                 sizek (117)
0008BF  01                 const type 3
0008C0  00971C22           const [0]: (572299008)
0008C4  03                 const type 3
0008C5  00000000           const [1]: (0)
0008C9  03                 const type 3
0008CA  0000803F           const [2]: (0)
0008CE  03                 const type 3
0008CF  00000040           const [3]: (0)
0008D3  03                 const type 3
0008D4  CDCC4C3D           const [4]: (-51)
0008D8  03                 const type 3
0008D9  0000A03F           const [5]: (0)
0008DD  03                 const type 3
0008DE  CDCCCC3D           const [6]: (-51)
0008E2  03                 const type 3
0008E3  00009643           const [7]: (0)
0008E7  03                 const type 3
0008E8  00001643           const [8]: (0)
0008EC  03                 const type 3
0008ED  00003442           const [9]: (0)
0008F1  03                 const type 3
0008F2  0000B442           const [10]: (0)
0008F6  03                 const type 3
0008F7  00001041           const [11]: (0)
0008FB  03                 const type 3
0008FC  3333733F           const [12]: (51)
000900  03                 const type 3
000901  0000C03F           const [13]: (0)
000905  03                 const type 3
000906  0000003F           const [14]: (0)
00090A  03                 const type 3
00090B  0000E040           const [15]: (0)
00090F  03                 const type 3
000910  0000F041           const [16]: (0)
000914  03                 const type 3
000915  00001644           const [17]: (0)
000919  03                 const type 3
00091A  0000A040           const [18]: (0)
00091E  03                 const type 3
00091F  6666663F           const [19]: (102)
000923  03                 const type 3
000924  0AD7A33C           const [20]: (10)
000928  03                 const type 3
000929  00007041           const [21]: (0)
00092D  03                 const type 3
00092E  00000041           const [22]: (0)
000932  03                 const type 3
000933  0000C841           const [23]: (0)
000937  03                 const type 3
000938  00004041           const [24]: (0)
00093C  03                 const type 3
00093D  00000C42           const [25]: (0)
000941  03                 const type 3
000942  00002041           const [26]: (0)
000946  03                 const type 3
000947  0000F042           const [27]: (0)
00094B  03                 const type 3
00094C  00007A43           const [28]: (0)
000950  03                 const type 3
000951  0000A041           const [29]: (0)
000955  03                 const type 3
000956  6666E63F           const [30]: (102)
00095A  03                 const type 3
00095B  C3F5C840           const [31]: (-61)
00095F  03                 const type 3
000960  00006144           const [32]: (0)
000964  03                 const type 3
000965  00007F44           const [33]: (0)
000969  03                 const type 3
00096A  00002042           const [34]: (0)
00096E  03                 const type 3
00096F  00004040           const [35]: (0)
000973  03                 const type 3
000974  B81E053E           const [36]: (-72)
000978  03                 const type 3
000979  00803B45           const [37]: (0)
00097D  03                 const type 3
00097E  0AD7233C           const [38]: (10)
000982  03                 const type 3
000983  9A99193E           const [39]: (-102)
000987  01                 const type 3
000988  44DC9B32           const [40]: (849075268)
00098C  04                 const type 4
00098D  1F                 string size (31)
00098E  4C6F7475732E496E+  "Lotus.In"
000996  746572666163652E+  "terface."
00099E  4C6F747573557469+  "LotusUti"
0009A6  6C697469657300     "lities\0"
                           const [41]: "Lotus.Interface.LotusUtilities"
0009AD  04                 const type 4
0009AE  23                 string size (35)
0009AF  4C6F7475732E5363+  "Lotus.Sc"
0009B7  72697074732E4C69+  "ripts.Li"
0009BF  62732E5472616E73+  "bs.Trans"
0009C7  6D697373696F6E53+  "missionS"
0009CF  657400             "et\0"
                           const [42]: "Lotus.Scripts.Libs.TransmissionSet"
0009D2  03                 const type 3
0009D3  00007042           const [43]: (0)
0009D7  01                 const type 3
0009D8  29D4002C           const [44]: (738251817)
0009DC  04                 const type 4
0009DD  2D                 string size (45)
0009DE  2F4C6F7475732F54+  "/Lotus/T"
0009E6  797065732F47616D+  "ypes/Gam"
0009EE  652F537572766976+  "e/Surviv"
0009F6  616C4B7576614578+  "alKuvaEx"
0009FE  74726163746F7253+  "tractorS"
000A06  7461746500         "tate\0"
                           const [45]: "/Lotus/Types/Game/SurvivalKuvaExtractorState"
000A0B  03                 const type 3
000A0C  00004843           const [46]: (0)
000A10  03                 const type 3
000A11  00007A44           const [47]: (0)
000A15  01                 const type 3
000A16  5720287C           const [48]: (2083004503)
000A1A  04                 const type 4
000A1B  22                 string size (34)
000A1C  2F4C6F7475732F54+  "/Lotus/T"
000A24  797065732F497465+  "ypes/Ite"
000A2C  6D732F4D69736349+  "ms/MiscI"
000A34  74656D732F4B7576+  "tems/Kuv"
000A3C  6100               "a\0"
                           const [49]: "/Lotus/Types/Items/MiscItems/Kuva"
000A3E  01                 const type 3
000A3F  1A4B27EC           const [50]: (-332969190)
000A43  04                 const type 4
000A44  2A                 string size (42)
000A45  2F4C6F7475732F4C+  "/Lotus/L"
000A4D  616E67756167652F+  "anguage/"
000A55  47616D652F537572+  "Game/Sur"
000A5D  766976616C436C6F+  "vivalClo"
000A65  636B4D6573736167+  "ckMessag"
000A6D  6500               "e\0"
                           const [51]: "/Lotus/Language/Game/SurvivalClockMessage"
000A6F  04                 const type 4
000A70  29                 string size (41)
000A71  2F4C6F7475732F4C+  "/Lotus/L"
000A79  616E67756167652F+  "anguage/"
000A81  47616D652F537572+  "Game/Sur"
000A89  766976616C50726F+  "vivalPro"
000A91  6772657373426172+  "gressBar"
000A99  00                 "\0"
                           const [52]: "/Lotus/Language/Game/SurvivalProgressBar"
000A9A  04                 const type 4
000A9B  2D                 string size (45)
000A9C  2F4C6F7475732F4C+  "/Lotus/L"
000AA4  616E67756167652F+  "anguage/"
000AAC  4F626A6563746976+  "Objectiv"
000AB4  65732F4F626A6563+  "es/Objec"
000ABC  7469766554696D65+  "tiveTime"
000AC4  4C65667400         "Left\0"
                           const [53]: "/Lotus/Language/Objectives/ObjectiveTimeLeft"
000AC9  04                 const type 4
000ACA  2A                 string size (42)
000ACB  2F4C6F7475732F4C+  "/Lotus/L"
000AD3  616E67756167652F+  "anguage/"
000ADB  47616D652F4D6973+  "Game/Mis"
000AE3  73696F6E4E616D65+  "sionName"
000AEB  5F53757276697661+  "_Surviva"
000AF3  6C00               "l\0"
                           const [54]: "/Lotus/Language/Game/MissionName_Survival"
000AF5  04                 const type 4
000AF6  09                 string size (9)
000AF7  54696D654C656674+  "TimeLeft"
000AFF  00                 "\0"
                           const [55]: "TimeLeft"
000B00  04                 const type 4
000B01  0C                 string size (12)
000B02  54696D65456C6170+  "TimeElap"
000B0A  73656400           "sed\0"
                           const [56]: "TimeElapsed"
000B0E  04                 const type 4
000B0F  15                 string size (21)
000B10  4172746966616374+  "Artifact"
000B18  496E74657276616C+  "Interval"
000B20  54696D6500         "Time\0"
                           const [57]: "ArtifactIntervalTime"
000B25  04                 const type 4
000B26  10                 string size (16)
000B27  4172746966616374+  "Artifact"
000B2F  7341637469766500   "sActive\0"
                           const [58]: "ArtifactsActive"
000B37  04                 const type 4
000B38  0E                 string size (14)
000B39  4172746966616374+  "Artifact"
000B41  735573656400       "sUsed\0"
                           const [59]: "ArtifactsUsed"
000B47  04                 const type 4
000B48  15                 string size (21)
000B49  537572766976616C+  "Survival"
000B51  4D697373696F6E53+  "MissionS"
000B59  7461746500         "tate\0"
                           const [60]: "SurvivalMissionState"
000B5E  04                 const type 4
000B5F  0D                 string size (13)
000B60  5265776172647347+  "RewardsG"
000B68  6976656E00         "iven\0"
                           const [61]: "RewardsGiven"
000B6D  04                 const type 4
000B6E  10                 string size (16)
000B6F  456E644D69737369+  "EndMissi"
000B77  6F6E54696D657200   "onTimer\0"
                           const [62]: "EndMissionTimer"
000B7F  04                 const type 4
000B80  13                 string size (19)
000B81  566F696450726F6A+  "VoidProj"
000B89  656374696F6E466C+  "ectionFl"
000B91  6F7700             "ow\0"
                           const [63]: "VoidProjectionFlow"
000B94  04                 const type 4
000B95  1C                 string size (28)
000B96  53686F756C645370+  "ShouldSp"
000B9E  61776E5375727669+  "awnSurvi"
000BA6  76616C4D696E6962+  "valMinib"
000BAE  6F737300           "oss\0"
                           const [64]: "ShouldSpawnSurvivalMiniboss"
000BB2  04                 const type 4
000BB3  1D                 string size (29)
000BB4  537572766976616C+  "Survival"
000BBC  43617073756C654C+  "CapsuleL"
000BC4  6576656C43617061+  "evelCapa"
000BCC  6369747900         "city\0"
                           const [65]: "SurvivalCapsuleLevelCapacity"
000BD1  04                 const type 4
000BD2  16                 string size (22)
000BD3  53717561644C696E+  "SquadLin"
000BDB  6B52657761726473+  "kRewards"
000BE3  476976656E00       "Given\0"
                           const [66]: "SquadLinkRewardsGiven"
000BE9  04                 const type 4
000BEA  18                 string size (24)
000BEB  496E636F6D696E67+  "Incoming"
000BF3  537572766976616C+  "Survival"
000BFB  50696C6C61727300   "Pillars\0"
                           const [67]: "IncomingSurvivalPillars"
000C03  04                 const type 4
000C04  16                 string size (22)
000C05  4163746976655375+  "ActiveSu"
000C0D  72766976616C5069+  "rvivalPi"
000C15  6C6C61727300       "llars\0"
                           const [68]: "ActiveSurvivalPillars"
000C1B  04                 const type 4
000C1C  1A                 string size (26)
000C1D  4163746976617469+  "Activati"
000C25  6E67537572766976+  "ngSurviv"
000C2D  616C50696C6C6172+  "alPillar"
000C35  7300               "s\0"
                           const [69]: "ActivatingSurvivalPillars"
000C37  04                 const type 4
000C38  1D                 string size (29)
000C39  4B75766145787472+  "KuvaExtr"
000C41  6163746F72537572+  "actorSur"
000C49  766976616C50696C+  "vivalPil"
000C51  6C61727300         "lars\0"
                           const [70]: "KuvaExtractorSurvivalPillars"
000C56  04                 const type 4
000C57  17                 string size (23)
000C58  45452E496E746572+  "EE.Inter"
000C60  666163652E557469+  "face.Uti"
000C68  6C697469657300     "lities\0"
                           const [71]: "EE.Interface.Utilities"
000C6F  04                 const type 4
000C70  2B                 string size (43)
000C71  4C6F7475732E5363+  "Lotus.Sc"
000C79  72697074732E4C69+  "ripts.Li"
000C81  62732E436F6D6D6F+  "bs.Commo"
000C89  6E47616D656D6F64+  "nGamemod"
000C91  6546756E6374696F+  "eFunctio"
000C99  6E7300             "ns\0"
                           const [72]: "Lotus.Scripts.Libs.CommonGamemodeFunctions"
000C9C  04                 const type 4
000C9D  21                 string size (33)
000C9E  4C6F7475732E5363+  "Lotus.Sc"
000CA6  72697074732E4C69+  "ripts.Li"
000CAE  62732E4F626A6563+  "bs.Objec"
000CB6  7469766554657874+  "tiveText"
000CBE  00                 "\0"
                           const [73]: "Lotus.Scripts.Libs.ObjectiveText"
000CBF  04                 const type 4
000CC0  1D                 string size (29)
000CC1  4C6F7475732E5363+  "Lotus.Sc"
000CC9  72697074732E4C69+  "ripts.Li"
000CD1  62732E5371756164+  "bs.Squad"
000CD9  4C696E6B00         "Link\0"
                           const [74]: "Lotus.Scripts.Libs.SquadLink"
000CDE  04                 const type 4
000CDF  0D                 string size (13)
000CE0  537572766976616C+  "Survival"
000CE8  54696D6500         "Time\0"
                           const [75]: "SurvivalTime"
000CED  04                 const type 4
000CEE  03                 string size (3)
000CEF  5F5400             "_T\0"
                           const [76]: "_T"
000CF2  04                 const type 4
000CF3  1D                 string size (29)
000CF4  53717561644C696E+  "SquadLin"
000CFC  6B53757276697661+  "kSurviva"
000D04  6C47697665526577+  "lGiveRew"
000D0C  6172647300         "ards\0"
                           const [77]: "SquadLinkSurvivalGiveRewards"
000D11  04                 const type 4
000D12  0A                 string size (10)
000D13  557064617465466F+  "UpdateFo"
000D1B  6700               "g\0"
                           const [78]: "UpdateFog"
000D1D  01                 const type 3
000D1E  3FD1F6E9           const [79]: (-369700545)
000D22  04                 const type 4
000D23  18                 string size (24)
000D24  416C61726D416374+  "AlarmAct"
000D2C  696F6E4469736162+  "ionDisab"
000D34  6C65645465787400   "ledText\0"
                           const [80]: "AlarmActionDisabledText"
000D3C  01                 const type 3
000D3D  91060004           const [81]: (67110545)
000D41  04                 const type 4
000D42  1D                 string size (29)
000D43  436C656172416C61+  "ClearAla"
000D4B  726D416374696F6E+  "rmAction"
000D53  44697361626C6564+  "Disabled"
000D5B  5465787400         "Text\0"
                           const [82]: "ClearAlarmActionDisabledText"
000D60  01                 const type 3
000D61  9EC58FDE           const [83]: (-561003106)
000D65  04                 const type 4
000D66  0C                 string size (12)
000D67  537572766976616C+  "Survival"
000D6F  48554400           "HUD\0"
                           const [84]: "SurvivalHUD"
000D73  01                 const type 3
000D74  5ADEC7AB           const [85]: (-1412964774)
000D78  04                 const type 4
000D79  0E                 string size (14)
000D7A  5069636B75704164+  "PickupAd"
000D82  6454696D6500       "dTime\0"
                           const [86]: "PickupAddTime"
000D88  01                 const type 3
000D89  39E034C0           const [87]: (-1070276551)
000D8D  04                 const type 4
000D8E  1A                 string size (26)
000D8F  496E636F6D696E67+  "Incoming"
000D97  50696C6C61724D61+  "PillarMa"
000D9F  726B6572466C6173+  "rkerFlas"
000DA7  6800               "h\0"
                           const [88]: "IncomingPillarMarkerFlash"
000DA9  01                 const type 3
000DAA  6BF17001           const [89]: (24179051)
000DAE  04                 const type 4
000DAF  0C                 string size (12)
000DB0  4F6E416374697661+  "OnActiva"
000DB8  74656400           "ted\0"
                           const [90]: "OnActivated"
000DBC  01                 const type 3
000DBD  F22F0486           const [91]: (-2046545934)
000DC1  04                 const type 4
000DC2  0D                 string size (13)
000DC3  436865636B496649+  "CheckIfI"
000DCB  6E55736500         "nUse\0"
                           const [92]: "CheckIfInUse"
000DD0  01                 const type 3
000DD1  4FC78416           const [93]: (377800527)
000DD5  04                 const type 4
000DD6  15                 string size (21)
000DD7  52616E646F6D4172+  "RandomAr"
000DDF  7469666163745363+  "tifactSc"
000DE7  7269707400         "ript\0"
                           const [94]: "RandomArtifactScript"
000DEC  01                 const type 3
000DED  64466F58           const [95]: (1483687524)
000DF1  04                 const type 4
000DF2  0F                 string size (15)
000DF3  4172746966616374+  "Artifact"
000DFB  456E61626C6500     "Enable\0"
                           const [96]: "ArtifactEnable"
000E02  01                 const type 3
000E03  EBAE55CA           const [97]: (-900354325)
000E07  04                 const type 4
000E08  12                 string size (18)
000E09  4172746966616374+  "Artifact"
000E11  4163746976617465+  "Activate"
000E19  6400               "d\0"
                           const [98]: "ArtifactActivated"
000E1B  01                 const type 3
000E1C  2476CA9A           const [99]: (-1698007516)
000E20  04                 const type 4
000E21  11                 string size (17)
000E22  4B75766141727469+  "KuvaArti"
000E2A  666163744C6F6F70+  "factLoop"
000E32  00                 "\0"
                           const [100]: "KuvaArtifactLoop"
000E33  01                 const type 3
000E34  2ECE6C10           const [101]: (275566126)
000E38  04                 const type 4
000E39  15                 string size (21)
000E3A  4B75766145787472+  "KuvaExtr"
000E42  6163746F72446566+  "actorDef"
000E4A  656E736500         "ense\0"
                           const [102]: "KuvaExtractorDefense"
000E4F  01                 const type 3
000E50  3407F4DF           const [103]: (-537655500)
000E54  04                 const type 4
000E55  0F                 string size (15)
000E56  4B75766143656C6C+  "KuvaCell"
000E5E  5069636B757000     "Pickup\0"
                           const [104]: "KuvaCellPickup"
000E65  01                 const type 3
000E66  874109A9           const [105]: (-1459011193)
000E6A  03                 const type 3
000E6B  00FF7F47           const [106]: (0)
000E6F  04                 const type 4
000E70  0E                 string size (14)
000E71  5374617274537572+  "StartSur"
000E79  766976616C00       "vival\0"
                           const [107]: "StartSurvival"
000E7F  01                 const type 3
000E80  3AEC4227           const [108]: (658697274)
000E84  04                 const type 4
000E85  13                 string size (19)
000E86  416C61726D436F6E+  "AlarmCon"
000E8E  7465787441637469+  "textActi"
000E96  6F6E00             "on\0"
                           const [109]: "AlarmContextAction"
000E99  01                 const type 3
000E9A  75A8B1BF           const [110]: (-1078876043)
000E9E  04                 const type 4
000E9F  0E                 string size (14)
000EA0  537572766976616C+  "Survival"
000EA8  536574757000       "Setup\0"
                           const [111]: "SurvivalSetup"
000EAE  01                 const type 3
000EAF  63F0DD9C           const [112]: (-1663176605)
000EB3  04                 const type 4
000EB4  0B                 string size (11)
000EB5  456E644D69737369+  "EndMissi"
000EBD  6F6E00             "on\0"
                           const [113]: "EndMission"
000EC0  01                 const type 3
000EC1  8C636659           const [114]: (1499882380)
000EC5  04                 const type 4
000EC6  12                 string size (18)
000EC7  486F73744D696772+  "HostMigr"
000ECF  6174696F6E496E69+  "ationIni"
000ED7  7400               "t\0"
                           const [115]: "HostMigrationInit"
000ED9  01                 const type 3
000EDA  9909FF34           const [116]: (889129369)
                           * functions:
000EDE  35                 sizep (53)
                           
000EDF                     ** function [0] definition (level 2)
                           ** start of function **
000EDF  00                 string size (0)
                           source name: (none)
000EE1  01                 line defined (197)
000EE2  D0                 last line defined (208)
000EE3  01                 nups (1)
000EE4  01                 numparams (0)
000EE5  00                 is_vararg (0)
000EE6  00                 maxstacksize (9)
                           * code:
000EE8  22                 sizecode (34)
000EE9  13000000           [01] getupval   0   0      
000EED  18400000           [02] test       0       1    ; to [4] if false
000EF1  1A000080           [03] jmp        1            ; to [5]
000EF5  0B000000           [04] newtable   0   0   0    ; array=0, hash=0
fail op	8
000EF9  08000000           [05] setupval   0   0      
000EFD  1D000000           [06] getglobal  0   0        ; gRegion
000F01  24404000           [07] self       0   0   257  ; 152279552
000F05  9D800000           [08] getglobal  2   2        ; 738251817
000F09  D9C00000           [09] loadk      3   3        ; "/Lotus/Types/Actions/SurvivalHackAction"
000F0D  A2000001           [10] call       2   2   0  
000F11  22800000           [11] call       0   0   2  
000F15  59000100           [12] loadk      1   4        ; 0
000F19  8A000000           [13] len        2   0      
000F1D  D9000100           [14] loadk      3   4        ; 0
000F21  50000480           [15] forprep    1   17       ; to [33]
000F25  4E010100           [16] gettable   5   0   4  
000F29  9D410100           [17] getglobal  6   5        ; 1074689893
000F2D  D2018002           [18] move       7   5      
000F31  A2810001           [19] call       6   2   2  
000F35  98410000           [20] test       6       1    ; to [22] if false
000F39  1A800280           [21] jmp        11           ; to [33]
000F3D  A481C102           [22] self       6   5   262  ; -1318948062
000F41  A2810001           [23] call       6   2   2  
000F45  98010000           [24] test       6       0    ; to [26] if true
000F49  1A800180           [25] jmp        7            ; to [33]
000F4D  A4C1C102           [26] self       6   5   263  ; 766584623
000F51  A2410001           [27] call       6   2   1  
000F55  9D010200           [28] getglobal  6   8        ; table
000F59  8E414203           [29] gettable   6   6   265  ; -431682403
000F5D  D3010000           [30] getupval   7   0      
000F61  12028002           [31] move       8   5      
000F65  A2418001           [32] call       6   3   1  
000F69  5440FB7F           [33] forloop    1   -18      ; to [16] if loop
000F6D  1E008000           [34] return     0   1      
                           * constants:
000F71  0A                 sizek (10)
000F72  04                 const type 4
000F73  08                 string size (8)
000F74  67526567696F6E00   "gRegion\0"
                           const [0]: "gRegion"
000F7C  01                 const type 3
000F7D  009A1309           const [1]: (152279552)
000F81  01                 const type 3
000F82  29D4002C           const [2]: (738251817)
000F86  04                 const type 4
000F87  28                 string size (40)
000F88  2F4C6F7475732F54+  "/Lotus/T"
000F90  797065732F416374+  "ypes/Act"
000F98  696F6E732F537572+  "ions/Sur"
000FA0  766976616C486163+  "vivalHac"
000FA8  6B416374696F6E00   "kAction\0"
                           const [3]: "/Lotus/Types/Actions/SurvivalHackAction"
000FB0  03                 const type 3
000FB1  0000803F           const [4]: (0)
000FB5  01                 const type 3
000FB6  65770E40           const [5]: (1074689893)
000FBA  01                 const type 3
000FBB  227362B1           const [6]: (-1318948062)
000FBF  01                 const type 3
000FC0  2F27B12D           const [7]: (766584623)
000FC4  04                 const type 4
000FC5  06                 string size (6)
000FC6  7461626C6500       "table\0"
                           const [8]: "table"
000FCC  01                 const type 3
000FCD  9D0C45E6           const [9]: (-431682403)
                           * functions:
000FD1  00                 sizep (0)
                           * lines:
000FD2  22                 sizelineinfo (34)
                           [pc] (line)
000FD3  C6                 [01] (-58)
000FD4  00                 [02] (-58)
000FD5  00                 [03] (-58)
000FD6  00                 [04] (-58)
000FD7  C6                 [05] (-58)
000FD8  00                 [06] (-56)
000FD9  00                 [07] (-56)
000FDA  00                 [08] (-56)
000FDB  C6                 [09] (-56)
000FDC  00                 [10] (-56)
000FDD  00                 [11] (-56)
000FDE  00                 [12] (-55)
000FDF  C6                 [13] (-55)
000FE0  00                 [14] (-55)
000FE1  00                 [15] (-55)
000FE2  00                 [16] (-54)
000FE3  C6                 [17] (-53)
000FE4  00                 [18] (-53)
000FE5  00                 [19] (-53)
000FE6  00                 [20] (-53)
000FE7  C8                 [21] (-53)
000FE8  00                 [22] (-53)
000FE9  00                 [23] (-53)
000FEA  00                 [24] (-53)
000FEB  C8                 [25] (-53)
000FEC  00                 [26] (-52)
000FED  00                 [27] (-52)
000FEE  00                 [28] (-51)
000FEF  C8                 [29] (-51)
000FF0  00                 [30] (-51)
000FF1  00                 [31] (-51)
000FF2  00                 [32] (-51)
000FF3  C8                 [33] (-55)
000FF4  00                 [34] (-48)
                           * locals:
00105B  00                 sizelocvars (0)
                           * upvalues:
00105C  00                 sizeupvalues (0)
                           ** end of function **

                           
00105D                     ** function [1] definition (level 2)
                           ** start of function **
00105D  00                 string size (0)
                           source name: (none)
00105F  01                 line defined (210)
001060  DA                 last line defined (218)
001061  01                 nups (1)
001062  01                 numparams (0)
001063  00                 is_vararg (0)
001064  00                 maxstacksize (7)
                           * code:
001066  16                 sizecode (22)
001067  19000000           [01] loadk      0   0        ; 0
00106B  53000000           [02] getupval   1   0      
00106F  4A008000           [03] len        1   1      
001073  99000000           [04] loadk      2   0        ; 0
001077  10000380           [05] forprep    0   13       ; to [19]
00107B  13010000           [06] getupval   4   0      
00107F  0EC10002           [07] gettable   4   4   3  
001083  5D410000           [08] getglobal  5   1        ; 1074689893
001087  92010002           [09] move       6   4      
00108B  62810001           [10] call       5   2   2  
00108F  58410000           [11] test       5       1    ; to [13] if false
001093  1A400180           [12] jmp        6            ; to [19]
001097  64814002           [13] self       5   4   258  ; -1318948062
00109B  62810001           [14] call       5   2   2  
00109F  58410000           [15] test       5       1    ; to [17] if false
0010A3  1A400080           [16] jmp        2            ; to [19]
0010A7  64C14002           [17] self       5   4   259  ; -974578778
0010AB  62410001           [18] call       5   2   1  
0010AF  1440FC7F           [19] forloop    0   -14      ; to [6] if loop
0010B3  46018002           [20] loadnil    5   5      
fail op	8
0010B7  48010000           [21] setupval   5   0      
0010BB  1E008000           [22] return     0   1      
                           * constants:
0010BF  04                 sizek (4)
0010C0  03                 const type 3
0010C1  0000803F           const [0]: (0)
0010C5  01                 const type 3
0010C6  65770E40           const [1]: (1074689893)
0010CA  01                 const type 3
0010CB  227362B1           const [2]: (-1318948062)
0010CF  01                 const type 3
0010D0  A61BE9C5           const [3]: (-974578778)
                           * functions:
0010D4  00                 sizep (0)
                           * lines:
0010D5  16                 sizelineinfo (22)
                           [pc] (line)
0010D6  D3                 [01] (-45)
0010D7  00                 [02] (-45)
0010D8  00                 [03] (-45)
0010D9  00                 [04] (-45)
0010DA  D3                 [05] (-45)
0010DB  00                 [06] (-44)
0010DC  00                 [07] (-44)
0010DD  00                 [08] (-43)
0010DE  D3                 [09] (-43)
0010DF  00                 [10] (-43)
0010E0  00                 [11] (-43)
0010E1  00                 [12] (-43)
0010E2  D3                 [13] (-43)
0010E3  00                 [14] (-43)
0010E4  00                 [15] (-43)
0010E5  00                 [16] (-43)
0010E6  D3                 [17] (-42)
0010E7  00                 [18] (-42)
0010E8  00                 [19] (-45)
0010E9  00                 [20] (-39)
0010EA  D4                 [21] (-39)
0010EB  00                 [22] (-38)
                           * locals:
00112E  00                 sizelocvars (0)
                           * upvalues:
00112F  00                 sizeupvalues (0)
                           ** end of function **

                           
001130                     ** function [2] definition (level 2)
                           ** start of function **
001130  00                 string size (0)
                           source name: (none)
001132  01                 line defined (220)
001133  EB                 last line defined (235)
001134  01                 nups (1)
001135  01                 numparams (1)
001136  01                 is_vararg (0)
001137  00                 maxstacksize (9)
                           * code:
001139  1F                 sizecode (31)
00113A  53000000           [01] getupval   1   0      
fail op	35
00113E  2300C000           [02] close      0  
001142  1A800180           [03] jmp        7            ; to [11]
001146  5D400000           [04] getglobal  1   1        ; gRegion
00114A  6480C000           [05] self       1   1   258  ; -1485896174
00114E  DDC00000           [06] getglobal  3   3        ; -332969190
001152  19010100           [07] loadk      4   4        ; "SurvivalCapsule"
001156  E2000001           [08] call       3   2   0  
00115A  62800000           [09] call       1   0   2  
fail op	8
00115E  48000000           [10] setupval   1   0      
001162  4B000000           [11] newtable   1   0   0    ; array=0, hash=0
001166  99400100           [12] loadk      2   5        ; 0
00116A  D3000000           [13] getupval   3   0      
00116E  CA008001           [14] len        3   3      
001172  19410100           [15] loadk      4   5        ; 0
001176  90C00280           [16] forprep    2   12       ; to [29]
00117A  93010000           [17] getupval   6   0      
00117E  8E410103           [18] gettable   6   6   5  
001182  A4814103           [19] self       6   6   262  ; -803264084
001186  A2810001           [20] call       6   2   2  
fail op	35
00118A  23000003           [21] close      0  
00118E  1A400180           [22] jmp        6            ; to [29]
001192  9DC10100           [23] getglobal  6   7        ; table
001196  8E014203           [24] gettable   6   6   264  ; -431682403
00119A  D2018000           [25] move       7   1      
00119E  13020000           [26] getupval   8   0      
0011A2  0E420104           [27] gettable   8   8   5  
0011A6  A2418001           [28] call       6   3   1  
0011AA  9480FC7F           [29] forloop    2   -13      ; to [17] if loop
0011AE  5E000001           [30] return     1   2      
0011B2  1E008000           [31] return     0   1      
                           * constants:
0011B6  09                 sizek (9)
0011B7  00                 const type 0
                           const [0]: nil
0011B8  04                 const type 4
0011B9  08                 string size (8)
0011BA  67526567696F6E00   "gRegion\0"
                           const [1]: "gRegion"
0011C2  01                 const type 3
0011C3  12066FA7           const [2]: (-1485896174)
0011C7  01                 const type 3
0011C8  1A4B27EC           const [3]: (-332969190)
0011CC  04                 const type 4
0011CD  10                 string size (16)
0011CE  537572766976616C+  "Survival"
0011D6  43617073756C6500   "Capsule\0"
                           const [4]: "SurvivalCapsule"
0011DE  03                 const type 3
0011DF  0000803F           const [5]: (0)
0011E3  01                 const type 3
0011E4  AC291FD0           const [6]: (-803264084)
0011E8  04                 const type 4
0011E9  06                 string size (6)
0011EA  7461626C6500       "table\0"
                           const [7]: "table"
0011F0  01                 const type 3
0011F1  9D0C45E6           const [8]: (-431682403)
                           * functions:
0011F5  00                 sizep (0)
                           * lines:
0011F6  1F                 sizelineinfo (31)
                           [pc] (line)
0011F7  DF                 [01] (-33)
0011F8  00                 [02] (-33)
0011F9  00                 [03] (-33)
0011FA  00                 [04] (-31)
0011FB  DF                 [05] (-31)
0011FC  00                 [06] (-31)
0011FD  00                 [07] (-31)
0011FE  00                 [08] (-31)
0011FF  DF                 [09] (-31)
001200  00                 [10] (-31)
001201  00                 [11] (-29)
001202  00                 [12] (-28)
001203  E1                 [13] (-28)
001204  00                 [14] (-28)
001205  00                 [15] (-28)
001206  00                 [16] (-28)
001207  E1                 [17] (-27)
001208  00                 [18] (-27)
001209  00                 [19] (-27)
00120A  00                 [20] (-27)
00120B  E1                 [21] (-27)
00120C  00                 [22] (-27)
00120D  00                 [23] (-26)
00120E  00                 [24] (-26)
00120F  E1                 [25] (-26)
001210  00                 [26] (-26)
001211  00                 [27] (-26)
001212  00                 [28] (-26)
001213  E1                 [29] (-28)
001214  00                 [30] (-22)
001215  00                 [31] (-21)
                           * locals:
001273  00                 sizelocvars (0)
                           * upvalues:
001274  00                 sizeupvalues (0)
                           ** end of function **

                           
001275                     ** function [3] definition (level 2)
                           ** start of function **
001275  00                 string size (0)
                           source name: (none)
001277  01                 line defined (237)
001278  84                 last line defined (260)
001279  02                 nups (0)
00127A  00                 numparams (3)
00127B  03                 is_vararg (0)
00127C  00                 maxstacksize (15)
                           * code:
00127E  1F                 sizecode (31)
00127F  DD000000           [01] getglobal  3   0        ; FLT_MAX
001283  19410000           [02] loadk      4   1        ; 0
001287  46010003           [03] loadnil    5   6      
00128B  D9810000           [04] loadk      7   2        ; 0
00128F  0A020000           [05] len        8   0      
001293  59820000           [06] loadk      9   2        ; 0
001297  D0410380           [07] forprep    7   14       ; to [22]
00129B  CE820200           [08] gettable   11  0   10 
00129F  E4C2C005           [09] self       11  11  259  ; -1399888605
0012A3  52038000           [10] move       13  1      
0012A7  E2828001           [11] call       11  3   2  
fail op	21
0012AB  15C08005           [12] concat     0   11  3  
0012AF  1AC00080           [13] jmp        4            ; to [18]
fail op	21
0012B3  15C00201           [14] concat     0   2   11 
0012B7  1A400080           [15] jmp        2            ; to [18]
0012BB  4E810200           [16] gettable   5   0   10 
0012BF  D2008005           [17] move       3   11     
fail op	21
0012C3  15C00202           [18] concat     0   4   11 
0012C7  1A400080           [19] jmp        2            ; to [22]
0012CB  8E810200           [20] gettable   6   0   10 
0012CF  12018005           [21] move       4   11     
0012D3  D401FC7F           [22] forloop    7   -15      ; to [8] if loop
0012D7  12038002           [23] move       12  5      
0012DB  5D030100           [24] getglobal  13  4        ; 1074689893
0012DF  92030006           [25] move       14  12     
0012E3  62830001           [26] call       13  2   2  
0012E7  58030000           [27] test       13      0    ; to [29] if true
0012EB  1A000080           [28] jmp        1            ; to [30]
0012EF  12030003           [29] move       12  6      
0012F3  1E030001           [30] return     12  2      
0012F7  1E008000           [31] return     0   1      
                           * constants:
0012FB  05                 sizek (5)
0012FC  04                 const type 4
0012FD  08                 string size (8)
0012FE  464C545F4D415800   "FLT_MAX\0"
                           const [0]: "FLT_MAX"
001306  03                 const type 3
001307  00000000           const [1]: (0)
00130B  03                 const type 3
00130C  0000803F           const [2]: (0)
001310  01                 const type 3
001311  23658FAC           const [3]: (-1399888605)
001315  01                 const type 3
001316  65770E40           const [4]: (1074689893)
                           * functions:
00131A  00                 sizep (0)
                           * lines:
00131B  1F                 sizelineinfo (31)
                           [pc] (line)
00131C  EE                 [01] (-18)
00131D  00                 [02] (-17)
00131E  00                 [03] (-16)
00131F  00                 [04] (-14)
001320  EF                 [05] (-14)
001321  00                 [06] (-14)
001322  00                 [07] (-14)
001323  00                 [08] (-13)
001324  F0                 [09] (-13)
001325  00                 [10] (-13)
001326  00                 [11] (-13)
001327  00                 [12] (-12)
001328  F2                 [13] (-12)
001329  00                 [14] (-12)
00132A  00                 [15] (-12)
00132B  00                 [16] (-11)
00132C  F2                 [17] (-10)
00132D  00                 [18] (-8)
00132E  00                 [19] (-8)
00132F  00                 [20] (-7)
001330  F2                 [21] (-6)
001331  00                 [22] (-14)
001332  00                 [23] (-2)
001333  00                 [24] (-1)
001334  F2                 [25] (-1)
001335  00                 [26] (-1)
001336  00                 [27] (-1)
001337  00                 [28] (-1)
001338  F3                 [29] (0)
001339  00                 [30] (3)
00133A  00                 [31] (4)
                           * locals:
001398  00                 sizelocvars (0)
                           * upvalues:
001399  00                 sizeupvalues (0)
                           ** end of function **

                           
00139A                     ** function [4] definition (level 2)
                           ** start of function **
00139A  00                 string size (0)
                           source name: (none)
00139C  02                 line defined (262)
00139D  C9                 last line defined (329)
00139E  02                 nups (3)
00139F  03                 numparams (2)
0013A0  02                 is_vararg (0)
0013A1  00                 maxstacksize (34)
                           * code:
0013A4  01                 sizecode (131)
0013A5  9D000000           [001] getglobal  2   0        ; FLT_MAX
0013A9  D9400000           [002] loadk      3   1        ; 0
0013AD  06018002           [003] loadnil    4   5      
0013B1  9D810000           [004] getglobal  6   2        ; gRegion
0013B5  A4C14003           [005] self       6   6   259  ; -774964848
0013B9  A2810001           [006] call       6   2   2  
0013BD  E4014103           [007] self       7   6   260  ; 537471347
0013C1  E2810001           [008] call       7   2   2  
0013C5  1D420100           [009] getglobal  8   5        ; gGameRules
0013C9  59820100           [010] loadk      9   6        ; 0
0013CD  8A020000           [011] len        10  0      
0013D1  D9820100           [012] loadk      11  6        ; 0
0013D5  50020380           [013] forprep    9   13       ; to [27]
0013D9  64C3C103           [014] self       13  7   263  ; 1016787375
0013DD  CE030300           [015] gettable   15  0   12 
0013E1  62838001           [016] call       13  3   2  
fail op	21
0013E5  15808006           [017] concat     0   13  2  
0013E9  1AC00080           [018] jmp        4            ; to [23]
fail op	21
0013ED  15408300           [019] concat     0   1   13 
0013F1  1A400080           [020] jmp        2            ; to [23]
0013F5  0E010300           [021] gettable   4   0   12 
0013F9  92008006           [022] move       2   13     
fail op	21
0013FD  15408301           [023] concat     0   3   13 
001401  1A400080           [024] jmp        2            ; to [27]
001405  4E010300           [025] gettable   5   0   12 
001409  D2008006           [026] move       3   13     
00140D  5442FC7F           [027] forloop    9   -14      ; to [14] if loop
001411  92030002           [028] move       14  4      
001415  DD030200           [029] getglobal  15  8        ; 1074689893
001419  12040007           [030] move       16  14     
00141D  E2830001           [031] call       15  2   2  
001421  D8030000           [032] test       15      0    ; to [34] if true
001425  1A000080           [033] jmp        1            ; to [35]
001429  92038002           [034] move       14  5      
00142D  DD030200           [035] getglobal  15  8        ; 1074689893
001431  12040007           [036] move       16  14     
001435  E2830001           [037] call       15  2   2  
001439  D8030000           [038] test       15      0    ; to [40] if true
00143D  1A401680           [039] jmp        90           ; to [130]
001441  DD430200           [040] getglobal  15  9        ; -1817107093
001445  19840200           [041] loadk      16  10       ; "Survival: Couldn't find next capsule over nav, using fallback distance check!"
001449  E2430001           [042] call       15  2   1  
00144D  C6038007           [043] loadnil    15  15     
001451  24C44204           [044] self       16  8   267  ; -317790213
001455  93040000           [045] getupval   18  0      
001459  22848001           [046] call       16  3   2  
fail op	21
00145D  15000483           [047] concat     0   262 16 
001461  1A000880           [048] jmp        33           ; to [82]
001465  4B040002           [049] newtable   17  4   0    ; array=4, hash=0
001469  99040300           [050] loadk      18  12       ; 0
00146D  D9840100           [051] loadk      19  6        ; 0
001471  19450300           [052] loadk      20  13       ; 0
001475  59850300           [053] loadk      21  14       ; 0
001479  5B440002           [054] setlist    17  4   1    ; index 1 to 4
00147D  86040009           [055] loadnil    18  18     
001481  D9840100           [056] loadk      19  6        ; 0
001485  0A058008           [057] len        20  17     
001489  59850100           [058] loadk      21  6        ; 0
00148D  D0C40180           [059] forprep    19  8        ; to [68]
001491  D3058000           [060] getupval   23  1      
001495  0E868508           [061] gettable   24  17  22 
001499  E2850001           [062] call       23  2   2  
00149D  9204800B           [063] move       18  23     
0014A1  CA050009           [064] len        23  18     
fail op	21
0014A5  15C08580           [065] concat     0   257 23 
0014A9  1A000080           [066] jmp        1            ; to [68]
0014AD  1A000080           [067] jmp        1            ; to [69]
0014B1  D484FD7F           [068] forloop    19  -9       ; to [60] if loop
0014B5  DD050200           [069] getglobal  23  8        ; 1074689893
0014B9  0E864109           [070] gettable   24  18  262  ; 0
0014BD  E2850001           [071] call       23  2   2  
0014C1  D8050000           [072] test       23      0    ; to [74] if true
0014C5  1AC00080           [073] jmp        4            ; to [78]
0014C9  DD450200           [074] getglobal  23  9        ; -1817107093
0014CD  19C60300           [075] loadk      24  15       ; "Survival: Error finding the next capsule location!"
0014D1  E2450001           [076] call       23  2   1  
0014D5  1AC00080           [077] jmp        4            ; to [82]
0014D9  CE854109           [078] gettable   23  18  262  ; 0
0014DD  E405C40B           [079] self       23  23  272  ; 1839670529
0014E1  E2850001           [080] call       23  2   2  
0014E5  D203800B           [081] move       15  23     
0014E9  DD050200           [082] getglobal  23  8        ; 1074689893
0014ED  12068007           [083] move       24  15     
0014F1  E2850001           [084] call       23  2   2  
0014F5  D8050000           [085] test       23      0    ; to [87] if true
0014F9  1A400680           [086] jmp        26           ; to [113]
0014FD  DD850000           [087] getglobal  23  2        ; gRegion
001501  E445C40B           [088] self       23  23  273  ; -1485896174
001505  5D860400           [089] getglobal  25  18       ; -332969190
001509  99C60400           [090] loadk      26  19       ; "AlarmObjMarker"
00150D  62060001           [091] call       25  2   0  
001511  E2850000           [092] call       23  0   2  
001515  19860100           [093] loadk      24  6        ; 0
001519  4A06800B           [094] len        25  23     
00151D  99860100           [095] loadk      26  6        ; 0
001521  10860380           [096] forprep    24  15       ; to [112]
001525  0EC7860B           [097] gettable   28  23  27 
001529  2407450E           [098] self       28  28  276  ; 1927666530
00152D  22870001           [099] call       28  2   2  
001531  6447450E           [100] self       29  28  277  ; -830264577
001535  62870001           [101] call       29  2   2  
001539  9D870400           [102] getglobal  30  18       ; -332969190
00153D  D9870500           [103] loadk      31  22       ; "Spawn"
001541  A2870001           [104] call       30  2   2  
fail op	35
001545  2380870E           [105] close      0  
001549  1A000180           [106] jmp        5            ; to [112]
00154D  8EC7860B           [107] gettable   30  23  27 
001551  A407440F           [108] self       30  30  272  ; 1839670529
001555  A2870001           [109] call       30  2   2  
001559  D203000F           [110] move       15  30     
00155D  1A000080           [111] jmp        1            ; to [113]
001561  14C6FB7F           [112] forloop    24  -16      ; to [97] if loop
001565  9D070200           [113] getglobal  30  8        ; 1074689893
001569  D2078007           [114] move       31  15     
00156D  A2870001           [115] call       30  2   2  
001571  98070000           [116] test       30      0    ; to [118] if true
001575  1A400180           [117] jmp        6            ; to [124]
001579  9D470200           [118] getglobal  30  9        ; -1817107093
00157D  D9C70500           [119] loadk      31  23       ; "Survival: Couldn't determine pos, using origin!"
001581  A2470001           [120] call       30  2   1  
001585  9D070600           [121] getglobal  30  24       ; 572299008
001589  A2878000           [122] call       30  1   2  
00158D  D203000F           [123] move       15  30     
001591  93070001           [124] getupval   30  2      
001595  D2070000           [125] move       31  0      
001599  12088007           [126] move       32  15     
00159D  59480000           [127] loadk      33  1        ; 0
0015A1  A2870002           [128] call       30  4   2  
0015A5  9203000F           [129] move       14  30     
0015A9  9E030001           [130] return     14  2      
0015AD  1E008000           [131] return     0   1      
                           * constants:
0015B1  19                 sizek (25)
0015B2  04                 const type 4
0015B3  08                 string size (8)
0015B4  464C545F4D415800   "FLT_MAX\0"
                           const [0]: "FLT_MAX"
0015BC  03                 const type 3
0015BD  00000000           const [1]: (0)
0015C1  04                 const type 4
0015C2  08                 string size (8)
0015C3  67526567696F6E00   "gRegion\0"
                           const [2]: "gRegion"
0015CB  01                 const type 3
0015CC  90F9CED1           const [3]: (-774964848)
0015D0  01                 const type 3
0015D1  73290920           const [4]: (537471347)
0015D5  04                 const type 4
0015D6  0B                 string size (11)
0015D7  6747616D6552756C+  "gGameRul"
0015DF  657300             "es\0"
                           const [5]: "gGameRules"
0015E2  03                 const type 3
0015E3  0000803F           const [6]: (0)
0015E7  01                 const type 3
0015E8  AFF19A3C           const [7]: (1016787375)
0015EC  01                 const type 3
0015ED  65770E40           const [8]: (1074689893)
0015F1  01                 const type 3
0015F2  6B25B193           const [9]: (-1817107093)
0015F6  04                 const type 4
0015F7  4E                 string size (78)
0015F8  537572766976616C+  "Survival"
001600  3A20436F756C646E+  ": Couldn"
001608  27742066696E6420+  "'t find "
001610  6E65787420636170+  "next cap"
001618  73756C65206F7665+  "sule ove"
001620  72206E61762C2075+  "r nav, u"
001628  73696E672066616C+  "sing fal"
001630  6C6261636B206469+  "lback di"
001638  7374616E63652063+  "stance c"
001640  6865636B2100       "heck!\0"
                           const [10]: "Survival: Couldn't find next capsule over nav, using fallback distance check!"
001646  01                 const type 3
001647  FBE70EED           const [11]: (-317790213)
00164B  03                 const type 3
00164C  00004040           const [12]: (0)
001650  03                 const type 3
001651  00000040           const [13]: (0)
001655  03                 const type 3
001656  00008040           const [14]: (0)
00165A  04                 const type 4
00165B  33                 string size (51)
00165C  537572766976616C+  "Survival"
001664  3A204572726F7220+  ": Error "
00166C  66696E64696E6720+  "finding "
001674  746865206E657874+  "the next"
00167C  2063617073756C65+  " capsule"
001684  206C6F636174696F+  " locatio"
00168C  6E2100             "n!\0"
                           const [15]: "Survival: Error finding the next capsule location!"
00168F  01                 const type 3
001690  0125A76D           const [16]: (1839670529)
001694  01                 const type 3
001695  12066FA7           const [17]: (-1485896174)
001699  01                 const type 3
00169A  1A4B27EC           const [18]: (-332969190)
00169E  04                 const type 4
00169F  0F                 string size (15)
0016A0  416C61726D4F626A+  "AlarmObj"
0016A8  4D61726B657200     "Marker\0"
                           const [19]: "AlarmObjMarker"
0016AF  01                 const type 3
0016B0  62DBE572           const [20]: (1927666530)
0016B4  01                 const type 3
0016B5  FF2A83CE           const [21]: (-830264577)
0016B9  04                 const type 4
0016BA  06                 string size (6)
0016BB  537061776E00       "Spawn\0"
                           const [22]: "Spawn"
0016C1  04                 const type 4
0016C2  30                 string size (48)
0016C3  537572766976616C+  "Survival"
0016CB  3A20436F756C646E+  ": Couldn"
0016D3  2774206465746572+  "'t deter"
0016DB  6D696E6520706F73+  "mine pos"
0016E3  2C207573696E6720+  ", using "
0016EB  6F726967696E2100   "origin!\0"
                           const [23]: "Survival: Couldn't determine pos, using origin!"
0016F3  01                 const type 3
0016F4  00971C22           const [24]: (572299008)
                           * functions:
0016F8  00                 sizep (0)
                           * lines:
0016FA  01                 sizelineinfo (131)
                           [pc] (line)
0016FB  07                 [001] (7)
0016FC  01                 [002] (8)
0016FD  00                 [003] (9)
0016FE  00                 [004] (11)
0016FF  08                 [005] (11)
001700  01                 [006] (11)
001701  00                 [007] (12)
001702  00                 [008] (12)
001703  09                 [009] (13)
001704  01                 [010] (15)
001705  00                 [011] (15)
001706  00                 [012] (15)
001707  0B                 [013] (15)
001708  01                 [014] (16)
001709  00                 [015] (16)
00170A  00                 [016] (16)
00170B  0B                 [017] (17)
00170C  01                 [018] (17)
00170D  00                 [019] (17)
00170E  00                 [020] (17)
00170F  0B                 [021] (18)
001710  01                 [022] (19)
001711  00                 [023] (21)
001712  00                 [024] (21)
001713  0C                 [025] (22)
001714  01                 [026] (23)
001715  00                 [027] (15)
001716  00                 [028] (27)
001717  0C                 [029] (28)
001718  01                 [030] (28)
001719  00                 [031] (28)
00171A  00                 [032] (28)
00171B  0D                 [033] (28)
00171C  01                 [034] (29)
00171D  00                 [035] (32)
00171E  00                 [036] (32)
00171F  0F                 [037] (32)
001720  01                 [038] (32)
001721  00                 [039] (32)
001722  00                 [040] (33)
001723  0F                 [041] (33)
001724  01                 [042] (33)
001725  00                 [043] (34)
001726  00                 [044] (35)
001727  0F                 [045] (35)
001728  01                 [046] (35)
001729  00                 [047] (36)
00172A  00                 [048] (36)
00172B  0F                 [049] (37)
00172C  01                 [050] (37)
00172D  00                 [051] (37)
00172E  00                 [052] (37)
00172F  10                 [053] (37)
001730  01                 [054] (37)
001731  00                 [055] (38)
001732  00                 [056] (39)
001733  10                 [057] (39)
001734  01                 [058] (39)
001735  00                 [059] (39)
001736  00                 [060] (40)
001737  10                 [061] (40)
001738  01                 [062] (40)
001739  00                 [063] (40)
00173A  00                 [064] (41)
00173B  11                 [065] (41)
00173C  01                 [066] (41)
00173D  00                 [067] (42)
00173E  00                 [068] (39)
00173F  11                 [069] (45)
001740  01                 [070] (45)
001741  00                 [071] (45)
001742  00                 [072] (45)
001743  11                 [073] (45)
001744  01                 [074] (46)
001745  00                 [075] (46)
001746  00                 [076] (46)
001747  11                 [077] (46)
001748  01                 [078] (48)
001749  00                 [079] (48)
00174A  00                 [080] (48)
00174B  12                 [081] (48)
00174C  01                 [082] (52)
00174D  00                 [083] (52)
00174E  00                 [084] (52)
00174F  13                 [085] (52)
001750  01                 [086] (52)
001751  00                 [087] (53)
001752  00                 [088] (53)
001753  15                 [089] (53)
001754  01                 [090] (53)
001755  00                 [091] (53)
001756  00                 [092] (53)
001757  15                 [093] (54)
001758  01                 [094] (54)
001759  00                 [095] (54)
00175A  00                 [096] (54)
00175B  16                 [097] (55)
00175C  01                 [098] (55)
00175D  00                 [099] (55)
00175E  00                 [100] (56)
00175F  17                 [101] (56)
001760  01                 [102] (57)
001761  00                 [103] (57)
001762  00                 [104] (57)
001763  0F                 [105] (57)
001764  01                 [106] (57)
001765  00                 [107] (58)
001766  00                 [108] (58)
001767  1B                 [109] (58)
001768  01                 [110] (58)
001769  00                 [111] (59)
00176A  00                 [112] (54)
00176B  1C                 [113] (64)
00176C  01                 [114] (64)
00176D  00                 [115] (64)
00176E  00                 [116] (64)
00176F  1C                 [117] (64)
001770  01                 [118] (65)
001771  00                 [119] (65)
001772  00                 [120] (65)
001773  1C                 [121] (66)
001774  01                 [122] (66)
001775  00                 [123] (66)
001776  00                 [124] (69)
001777  1C                 [125] (69)
001778  01                 [126] (69)
001779  00                 [127] (69)
00177A  00                 [128] (69)
00177B  1C                 [129] (69)
00177C  01                 [130] (72)
00177D  00                 [131] (73)
                           * locals:
001907  00                 sizelocvars (0)
                           * upvalues:
001908  00                 sizeupvalues (0)
                           ** end of function **

                           
001909                     ** function [5] definition (level 2)
                           ** start of function **
001909  00                 string size (0)
                           source name: (none)
00190B  02                 line defined (331)
00190C  CE                 last line defined (334)
00190D  02                 nups (0)
00190E  00                 numparams (0)
00190F  00                 is_vararg (0)
001910  00                 maxstacksize (3)
                           * code:
001912  15                 sizecode (21)
001913  1D000000           [01] getglobal  0   0        ; gGameRules
001917  24404000           [02] self       0   0   257  ; -1201441975
00191B  22800001           [03] call       0   2   2  
00191F  4E804000           [04] gettable   1   0   258  ; "alertId"
fail op	35
001923  23C0C000           [05] close      0  
001927  1AC00280           [06] jmp        12           ; to [19]
00192B  4E004100           [07] gettable   1   0   260  ; "invasionId"
fail op	35
00192F  23C0C000           [08] close      0  
001933  1A000280           [09] jmp        9            ; to [19]
001937  4E404100           [10] gettable   1   0   261  ; "syndicateTag"
00193B  6480C100           [11] self       1   1   262  ; 828278287
00193F  62800001           [12] call       1   2   2  
001943  58400000           [13] test       1       1    ; to [15] if false
001947  1A000180           [14] jmp        5            ; to [20]
00194B  4EC04100           [15] gettable   1   0   263  ; "maxWaveNum"
fail op	21
00194F  55400084           [16] concat     1   264 1  
001953  1A000080           [17] jmp        1            ; to [19]
001957  57400000           [18] loadbool   1   0   1    ; false, to [20]
00195B  57008000           [19] loadbool   1   1   0    ; true
00195F  5E000001           [20] return     1   2      
001963  1E008000           [21] return     0   1      
                           * constants:
001967  09                 sizek (9)
001968  04                 const type 4
001969  0B                 string size (11)
00196A  6747616D6552756C+  "gGameRul"
001972  657300             "es\0"
                           const [0]: "gGameRules"
001975  01                 const type 3
001976  497363B8           const [1]: (-1201441975)
00197A  04                 const type 4
00197B  08                 string size (8)
00197C  616C657274496400   "alertId\0"
                           const [2]: "alertId"
001984  04                 const type 4
001985  01                 string size (0)
                           const [3]: ""
001987  04                 const type 4
001988  0B                 string size (11)
001989  696E766173696F6E+  "invasion"
001991  496400             "Id\0"
                           const [4]: "invasionId"
001994  04                 const type 4
001995  0D                 string size (13)
001996  73796E6469636174+  "syndicat"
00199E  6554616700         "eTag\0"
                           const [5]: "syndicateTag"
0019A3  01                 const type 3
0019A4  0F865E31           const [6]: (828278287)
0019A8  04                 const type 4
0019A9  0B                 string size (11)
0019AA  6D6178576176654E+  "maxWaveN"
0019B2  756D00             "um\0"
                           const [7]: "maxWaveNum"
0019B5  03                 const type 3
0019B6  00000000           const [8]: (0)
                           * functions:
0019BA  00                 sizep (0)
                           * lines:
0019BB  15                 sizelineinfo (21)
                           [pc] (line)
0019BC  4C                 [01] (76)
0019BD  01                 [02] (76)
0019BE  00                 [03] (76)
0019BF  00                 [04] (77)
0019C0  4C                 [05] (77)
0019C1  01                 [06] (77)
0019C2  00                 [07] (77)
0019C3  00                 [08] (77)
0019C4  4C                 [09] (77)
0019C5  01                 [10] (77)
0019C6  00                 [11] (77)
0019C7  00                 [12] (77)
0019C8  4D                 [13] (77)
0019C9  01                 [14] (77)
0019CA  00                 [15] (77)
0019CB  00                 [16] (77)
0019CC  4D                 [17] (77)
0019CD  01                 [18] (77)
0019CE  00                 [19] (77)
0019CF  00                 [20] (77)
0019D0  4D                 [21] (78)
                           * locals:
001A10  00                 sizelocvars (0)
                           * upvalues:
001A11  00                 sizeupvalues (0)
                           ** end of function **

                           
001A12                     ** function [6] definition (level 2)
                           ** start of function **
001A12  00                 string size (0)
                           source name: (none)
001A14  02                 line defined (336)
001A15  D3                 last line defined (339)
001A16  02                 nups (2)
001A17  02                 numparams (0)
001A18  00                 is_vararg (0)
001A19  00                 maxstacksize (6)
                           * code:
001A1B  14                 sizecode (20)
001A1C  1D000000           [01] getglobal  0   0        ; gGameRules
001A20  24404000           [02] self       0   0   257  ; -1201441975
001A24  22800001           [03] call       0   2   2  
001A28  53000000           [04] getupval   1   0      
001A2C  4E80C000           [05] gettable   1   1   258  ; -132701534
001A30  8EC04000           [06] gettable   2   0   259  ; "maxWaveNum"
fail op	21
001A34  55800082           [07] concat     1   260 2  
001A38  1A000080           [08] jmp        1            ; to [10]
001A3C  97400000           [09] loadbool   2   0   1    ; false, to [11]
001A40  97008000           [10] loadbool   2   1   0    ; true
001A44  DD400100           [11] getglobal  3   5        ; math
001A48  CE80C101           [12] gettable   3   3   262  ; 1710846250
001A4C  0EC14000           [13] gettable   4   0   259  ; "maxWaveNum"
001A50  04C14102           [14] mul        4   4   263  ; 0
001A54  59010200           [15] loadk      5   8        ; 0
001A58  E2808001           [16] call       3   3   2  
001A5C  13018000           [17] getupval   4   1      
001A60  47000002           [18] tailcall   1   4   0  
001A64  5E000000           [19] return     1   0      
001A68  1E008000           [20] return     0   1      
                           * constants:
001A6C  09                 sizek (9)
001A6D  04                 const type 4
001A6E  0B                 string size (11)
001A6F  6747616D6552756C+  "gGameRul"
001A77  657300             "es\0"
                           const [0]: "gGameRules"
001A7A  01                 const type 3
001A7B  497363B8           const [1]: (-1201441975)
001A7F  01                 const type 3
001A80  A22217F8           const [2]: (-132701534)
001A84  04                 const type 4
001A85  0B                 string size (11)
001A86  6D6178576176654E+  "maxWaveN"
001A8E  756D00             "um\0"
                           const [3]: "maxWaveNum"
001A91  03                 const type 3
001A92  00000000           const [4]: (0)
001A96  04                 const type 4
001A97  05                 string size (5)
001A98  6D61746800         "math\0"
                           const [5]: "math"
001A9D  01                 const type 3
001A9E  2A71F965           const [6]: (1710846250)
001AA2  03                 const type 3
001AA3  00007042           const [7]: (0)
001AA7  03                 const type 3
001AA8  00006145           const [8]: (0)
                           * functions:
001AAC  00                 sizep (0)
                           * lines:
001AAD  14                 sizelineinfo (20)
                           [pc] (line)
001AAE  51                 [01] (81)
001AAF  01                 [02] (81)
001AB0  00                 [03] (81)
001AB1  00                 [04] (82)
001AB2  51                 [05] (82)
001AB3  01                 [06] (82)
001AB4  00                 [07] (82)
001AB5  00                 [08] (82)
001AB6  51                 [09] (82)
001AB7  01                 [10] (82)
001AB8  00                 [11] (82)
001AB9  00                 [12] (82)
001ABA  52                 [13] (82)
001ABB  01                 [14] (82)
001ABC  00                 [15] (82)
001ABD  00                 [16] (82)
001ABE  52                 [17] (82)
001ABF  01                 [18] (82)
001AC0  00                 [19] (82)
001AC1  00                 [20] (83)
                           * locals:
001AFE  00                 sizelocvars (0)
                           * upvalues:
001AFF  00                 sizeupvalues (0)
                           ** end of function **

                           
001B00                     ** function [7] definition (level 2)
                           ** start of function **
001B00  00                 string size (0)
                           source name: (none)
001B02  02                 line defined (341)
001B03  DD                 last line defined (349)
001B04  02                 nups (0)
001B05  00                 numparams (0)
001B06  00                 is_vararg (0)
001B07  00                 maxstacksize (4)
                           * code:
001B09  0F                 sizecode (15)
001B0A  1D000000           [01] getglobal  0   0        ; gGameRules
001B0E  24404000           [02] self       0   0   257  ; -1201441975
001B12  22800001           [03] call       0   2   2  
001B16  4E804000           [04] gettable   1   0   258  ; "goalTag"
001B1A  9DC00000           [05] getglobal  2   3        ; -332969190
001B1E  D9000100           [06] loadk      3   4        ; "LateStartSurvivalMission"
001B22  A2800001           [07] call       2   2   2  
fail op	35
001B26  23808000           [08] close      0  
001B2A  1A800080           [09] jmp        3            ; to [13]
001B2E  97008000           [10] loadbool   2   1   0    ; true
001B32  9E000001           [11] return     2   2      
001B36  1A400080           [12] jmp        2            ; to [15]
001B3A  97000000           [13] loadbool   2   0   0    ; false
001B3E  9E000001           [14] return     2   2      
001B42  1E008000           [15] return     0   1      
                           * constants:
001B46  05                 sizek (5)
001B47  04                 const type 4
001B48  0B                 string size (11)
001B49  6747616D6552756C+  "gGameRul"
001B51  657300             "es\0"
                           const [0]: "gGameRules"
001B54  01                 const type 3
001B55  497363B8           const [1]: (-1201441975)
001B59  04                 const type 4
001B5A  08                 string size (8)
001B5B  676F616C54616700   "goalTag\0"
                           const [2]: "goalTag"
001B63  01                 const type 3
001B64  1A4B27EC           const [3]: (-332969190)
001B68  04                 const type 4
001B69  19                 string size (25)
001B6A  4C61746553746172+  "LateStar"
001B72  7453757276697661+  "tSurviva"
001B7A  6C4D697373696F6E+  "lMission"
001B82  00                 "\0"
                           const [4]: "LateStartSurvivalMission"
                           * functions:
001B83  00                 sizep (0)
                           * lines:
001B84  0F                 sizelineinfo (15)
                           [pc] (line)
001B85  56                 [01] (86)
001B86  01                 [02] (86)
001B87  00                 [03] (86)
001B88  00                 [04] (87)
001B89  56                 [05] (88)
001B8A  01                 [06] (88)
001B8B  00                 [07] (88)
001B8C  00                 [08] (88)
001B8D  56                 [09] (88)
001B8E  01                 [10] (89)
001B8F  00                 [11] (89)
001B90  00                 [12] (89)
001B91  57                 [13] (91)
001B92  01                 [14] (91)
001B93  00                 [15] (93)
                           * locals:
001BC1  00                 sizelocvars (0)
                           * upvalues:
001BC2  00                 sizeupvalues (0)
                           ** end of function **

                           
001BC3                     ** function [8] definition (level 2)
                           ** start of function **
001BC3  00                 string size (0)
                           source name: (none)
001BC5  02                 line defined (351)
001BC6  E6                 last line defined (358)
001BC7  02                 nups (0)
001BC8  00                 numparams (0)
001BC9  00                 is_vararg (0)
001BCA  00                 maxstacksize (4)
                           * code:
001BCC  0E                 sizecode (14)
001BCD  1D000000           [01] getglobal  0   0        ; gGameRules
001BD1  24404000           [02] self       0   0   257  ; -1201441975
001BD5  22800001           [03] call       0   2   2  
001BD9  4E804000           [04] gettable   1   0   258  ; "goalTag"
001BDD  9DC00000           [05] getglobal  2   3        ; -332969190
001BE1  D9000100           [06] loadk      3   4        ; "KuvaSurvival"
001BE5  A2800001           [07] call       2   2   2  
fail op	35
001BE9  23808000           [08] close      0  
001BED  1A400080           [09] jmp        2            ; to [12]
001BF1  97008000           [10] loadbool   2   1   0    ; true
001BF5  9E000001           [11] return     2   2      
001BF9  97000000           [12] loadbool   2   0   0    ; false
001BFD  9E000001           [13] return     2   2      
001C01  1E008000           [14] return     0   1      
                           * constants:
001C05  05                 sizek (5)
001C06  04                 const type 4
001C07  0B                 string size (11)
001C08  6747616D6552756C+  "gGameRul"
001C10  657300             "es\0"
                           const [0]: "gGameRules"
001C13  01                 const type 3
001C14  497363B8           const [1]: (-1201441975)
001C18  04                 const type 4
001C19  08                 string size (8)
001C1A  676F616C54616700   "goalTag\0"
                           const [2]: "goalTag"
001C22  01                 const type 3
001C23  1A4B27EC           const [3]: (-332969190)
001C27  04                 const type 4
001C28  0D                 string size (13)
001C29  4B75766153757276+  "KuvaSurv"
001C31  6976616C00         "ival\0"
                           const [4]: "KuvaSurvival"
                           * functions:
001C36  00                 sizep (0)
                           * lines:
001C37  0E                 sizelineinfo (14)
                           [pc] (line)
001C38  60                 [01] (96)
001C39  01                 [02] (96)
001C3A  00                 [03] (96)
001C3B  00                 [04] (97)
001C3C  60                 [05] (98)
001C3D  01                 [06] (98)
001C3E  00                 [07] (98)
001C3F  00                 [08] (98)
001C40  60                 [09] (98)
001C41  01                 [10] (99)
001C42  00                 [11] (99)
001C43  00                 [12] (101)
001C44  61                 [13] (101)
001C45  01                 [14] (102)
                           * locals:
001C70  00                 sizelocvars (0)
                           * upvalues:
001C71  00                 sizeupvalues (0)
                           ** end of function **

                           
001C72                     ** function [9] definition (level 2)
                           ** start of function **
001C72  00                 string size (0)
                           source name: (none)
001C74  02                 line defined (360)
001C75  EA                 last line defined (362)
001C76  02                 nups (1)
001C77  01                 numparams (0)
001C78  00                 is_vararg (0)
001C79  00                 maxstacksize (2)
                           * code:
001C7B  14                 sizecode (20)
001C7C  1D000000           [01] getglobal  0   0        ; gGameRules
001C80  24404000           [02] self       0   0   257  ; -1201441975
001C84  22800001           [03] call       0   2   2  
001C88  0E804000           [04] gettable   0   0   258  ; "periodicMissionTag"
001C8C  53000000           [05] getupval   1   0      
001C90  4EC0C000           [06] gettable   1   1   259  ; "ELITE_ALERT_PERIODIC_MISSION_TAG"
fail op	35
001C94  63400000           [07] close      1  
001C98  1A000280           [08] jmp        9            ; to [18]
001C9C  1D000000           [09] getglobal  0   0        ; gGameRules
001CA0  24404000           [10] self       0   0   257  ; -1201441975
001CA4  22800001           [11] call       0   2   2  
001CA8  0E804000           [12] gettable   0   0   258  ; "periodicMissionTag"
001CAC  53000000           [13] getupval   1   0      
001CB0  4E00C100           [14] gettable   1   1   260  ; "ELITE_ALERT_PERIODIC_MISSION_TAG_ALT"
fail op	35
001CB4  63400000           [15] close      1  
001CB8  1A000080           [16] jmp        1            ; to [18]
001CBC  17400000           [17] loadbool   0   0   1    ; false, to [19]
001CC0  17008000           [18] loadbool   0   1   0    ; true
001CC4  1E000001           [19] return     0   2      
001CC8  1E008000           [20] return     0   1      
                           * constants:
001CCC  05                 sizek (5)
001CCD  04                 const type 4
001CCE  0B                 string size (11)
001CCF  6747616D6552756C+  "gGameRul"
001CD7  657300             "es\0"
                           const [0]: "gGameRules"
001CDA  01                 const type 3
001CDB  497363B8           const [1]: (-1201441975)
001CDF  04                 const type 4
001CE0  13                 string size (19)
001CE1  706572696F646963+  "periodic"
001CE9  4D697373696F6E54+  "MissionT"
001CF1  616700             "ag\0"
                           const [2]: "periodicMissionTag"
001CF4  04                 const type 4
001CF5  21                 string size (33)
001CF6  454C4954455F414C+  "ELITE_AL"
001CFE  4552545F50455249+  "ERT_PERI"
001D06  4F4449435F4D4953+  "ODIC_MIS"
001D0E  53494F4E5F544147+  "SION_TAG"
001D16  00                 "\0"
                           const [3]: "ELITE_ALERT_PERIODIC_MISSION_TAG"
001D17  04                 const type 4
001D18  25                 string size (37)
001D19  454C4954455F414C+  "ELITE_AL"
001D21  4552545F50455249+  "ERT_PERI"
001D29  4F4449435F4D4953+  "ODIC_MIS"
001D31  53494F4E5F544147+  "SION_TAG"
001D39  5F414C5400         "_ALT\0"
                           const [4]: "ELITE_ALERT_PERIODIC_MISSION_TAG_ALT"
                           * functions:
001D3E  00                 sizep (0)
                           * lines:
001D3F  14                 sizelineinfo (20)
                           [pc] (line)
001D40  69                 [01] (105)
001D41  01                 [02] (105)
001D42  00                 [03] (105)
001D43  00                 [04] (105)
001D44  69                 [05] (105)
001D45  01                 [06] (105)
001D46  00                 [07] (105)
001D47  00                 [08] (105)
001D48  69                 [09] (105)
001D49  01                 [10] (105)
001D4A  00                 [11] (105)
001D4B  00                 [12] (105)
001D4C  69                 [13] (105)
001D4D  01                 [14] (105)
001D4E  00                 [15] (105)
001D4F  00                 [16] (105)
001D50  69                 [17] (105)
001D51  01                 [18] (105)
001D52  00                 [19] (105)
001D53  00                 [20] (106)
                           * locals:
001D90  00                 sizelocvars (0)
                           * upvalues:
001D91  00                 sizeupvalues (0)
                           ** end of function **

                           
001D92                     ** function [10] definition (level 2)
                           ** start of function **
001D92  00                 string size (0)
                           source name: (none)
001D94  02                 line defined (366)
001D95  D3                 last line defined (467)
001D96  03                 nups (3)
001D97  03                 numparams (0)
001D98  00                 is_vararg (0)
001D99  00                 maxstacksize (48)
                           * code:
001D9C  02                 sizecode (316)
001D9D  1D000000           [001] getglobal  0   0        ; gGameRules
001DA1  24404000           [002] self       0   0   257  ; -1201441975
001DA5  22800001           [003] call       0   2   2  
001DA9  4E804000           [004] gettable   1   0   258  ; "fxLayer"
001DAD  9DC00000           [005] getglobal  2   3        ; -332969190
001DB1  D9000100           [006] loadk      3   4        ; "Fire"
001DB5  A2800001           [007] call       2   2   2  
fail op	35
001DB9  63808000           [008] close      1  
001DBD  1A400280           [009] jmp        10           ; to [20]
001DC1  9DC00000           [010] getglobal  2   3        ; -332969190
001DC5  D9400100           [011] loadk      3   5        ; "Radiation"
001DC9  A2800001           [012] call       2   2   2  
fail op	35
001DCD  63808000           [013] close      1  
001DD1  1A000180           [014] jmp        5            ; to [20]
001DD5  9DC00000           [015] getglobal  2   3        ; -332969190
001DD9  D9800100           [016] loadk      3   6        ; "Toxin"
001DDD  A2800001           [017] call       2   2   2  
fail op	35
001DE1  23808000           [018] close      0  
001DE5  1A000080           [019] jmp        1            ; to [21]
001DE9  1E008000           [020] return     0   1      
001DED  9DC00100           [021] getglobal  2   7        ; useFogGradient
001DF1  98400000           [022] test       2       1    ; to [24] if false
001DF5  1A400280           [023] jmp        10           ; to [34]
001DF9  9D000200           [024] getglobal  2   8        ; useInfestedFogGradient
001DFD  98000000           [025] test       2       0    ; to [27] if true
001E01  1A004880           [026] jmp        289          ; to [316]
001E05  9D400200           [027] getglobal  2   9        ; _T
001E09  8E804201           [028] gettable   2   2   266  ; "faction"
001E0D  DDC00000           [029] getglobal  3   3        ; -332969190
001E11  19C10200           [030] loadk      4   11       ; "Infestation"
001E15  E2800001           [031] call       3   2   2  
fail op	35
001E19  23C00001           [032] close      0  
001E1D  1A404680           [033] jmp        282          ; to [316]
001E21  9D000300           [034] getglobal  2   12       ; gRegion
001E25  A4404301           [035] self       2   2   269  ; 152279552
001E29  1D810300           [036] getglobal  4   14       ; gZoneAttribsType
001E2D  A2808001           [037] call       2   3   2  
001E31  CB000000           [038] newtable   3   0   0    ; array=0, hash=0
001E35  19C10300           [039] loadk      4   15       ; 0
001E39  4A010001           [040] len        5   2      
001E3D  99C10300           [041] loadk      6   15       ; 0
001E41  10010680           [042] forprep    4   25       ; to [68]
001E45  1D020400           [043] getglobal  8   16       ; 1074689893
001E49  4EC20101           [044] gettable   9   2   7  
001E4D  22820001           [045] call       8   2   2  
001E51  18420000           [046] test       8       1    ; to [48] if false
001E55  1AC00480           [047] jmp        20           ; to [68]
001E59  0EC20101           [048] gettable   8   2   7  
001E5D  24424404           [049] self       8   8   273  ; -830264577
001E61  22820001           [050] call       8   2   2  
001E65  5DC20000           [051] getglobal  9   3        ; -332969190
001E69  99820400           [052] loadk      10  18       ; "Backdrop"
001E6D  62820001           [053] call       9   2   2  
fail op	35
001E71  63400204           [054] close      1  
001E75  1AC00280           [055] jmp        12           ; to [68]
001E79  5DC20000           [056] getglobal  9   3        ; -332969190
001E7D  99C20400           [057] loadk      10  19       ; "Cinematics"
001E81  62820001           [058] call       9   2   2  
fail op	35
001E85  63400204           [059] close      1  
001E89  1A800180           [060] jmp        7            ; to [68]
001E8D  5D020500           [061] getglobal  9   20       ; table
001E91  4E42C504           [062] gettable   9   9   277  ; -431682403
001E95  92028001           [063] move       10  3      
001E99  CEC20101           [064] gettable   11  2   7  
001E9D  E482C505           [065] self       11  11  278  ; 1927666530
001EA1  E2020001           [066] call       11  2   0  
001EA5  62420000           [067] call       9   0   1  
001EA9  1441F97F           [068] forloop    4   -26      ; to [43] if loop
001EAD  5D020300           [069] getglobal  9   12       ; gRegion
001EB1  6442C304           [070] self       9   9   269  ; 152279552
001EB5  DDC20500           [071] getglobal  11  23       ; skyboxFogMeshType
001EB9  62828001           [072] call       9   3   2  
001EBD  86020005           [073] loadnil    10  10     
001EC1  DD420200           [074] getglobal  11  9        ; _T
001EC5  CE82C205           [075] gettable   11  11  266  ; "faction"
001EC9  1DC30000           [076] getglobal  12  3        ; -332969190
001ECD  59C30200           [077] loadk      13  11       ; "Infestation"
001ED1  22830001           [078] call       12  2   2  
fail op	35
001ED5  23008305           [079] close      0  
001ED9  1A000180           [080] jmp        5            ; to [86]
001EDD  DD020200           [081] getglobal  11  8        ; useInfestedFogGradient
001EE1  D8020000           [082] test       11      0    ; to [84] if true
001EE5  1A400080           [083] jmp        2            ; to [86]
001EE9  9D020600           [084] getglobal  10  24       ; infestedFogColorMin
001EED  1A000080           [085] jmp        1            ; to [87]
001EF1  9D420600           [086] getglobal  10  25       ; fogColorMin
001EF5  DD020300           [087] getglobal  11  12       ; gRegion
001EF9  E482C605           [088] self       11  11  282  ; -1520831144
001EFD  E2820001           [089] call       11  2   2  
001F01  D8020000           [090] test       11      0    ; to [92] if true
001F05  1AC00B80           [091] jmp        48           ; to [140]
001F09  D9C20300           [092] loadk      11  15       ; 0
001F0D  0A030001           [093] len        12  2      
001F11  59C30300           [094] loadk      13  15       ; 0
001F15  D0420A80           [095] forprep    11  42       ; to [138]
001F19  CE830301           [096] gettable   15  2   14 
001F1D  E443C407           [097] self       15  15  273  ; -830264577
001F21  E2830001           [098] call       15  2   2  
001F25  1DC40000           [099] getglobal  16  3        ; -332969190
001F29  59840400           [100] loadk      17  18       ; "Backdrop"
001F2D  22840001           [101] call       16  2   2  
fail op	35
001F31  63008407           [102] close      1  
001F35  1A000180           [103] jmp        5            ; to [109]
001F39  1DC40000           [104] getglobal  16  3        ; -332969190
001F3D  59C40400           [105] loadk      17  19       ; "Cinematics"
001F41  22840001           [106] call       16  2   2  
fail op	35
001F45  23008407           [107] close      0  
001F49  1A000780           [108] jmp        29           ; to [138]
001F4D  0E840301           [109] gettable   16  2   14 
001F51  24C44608           [110] self       16  16  283  ; 1839670529
001F55  22840001           [111] call       16  2   2  
001F59  4E840301           [112] gettable   17  2   14 
001F5D  6404C708           [113] self       17  17  284  ; -231049143
001F61  62840001           [114] call       17  2   2  
001F65  9D040300           [115] getglobal  18  12       ; gRegion
001F69  A4444709           [116] self       18  18  285  ; -1110225722
001F6D  1DC50500           [117] getglobal  20  23       ; skyboxFogMeshType
001F71  52050008           [118] move       21  16     
001F75  92058008           [119] move       22  17     
001F79  A2848002           [120] call       18  5   2  
001F7D  E4844709           [121] self       19  18  286  ; -786111647
001F81  5DC50700           [122] getglobal  21  31       ; Lotus_Game
001F85  4E05C80A           [123] gettable   21  21  288  ; "TINT_COLOR"
001F89  8E454805           [124] gettable   22  10  289  ; "red"
001F8D  9C85480B           [125] div        22  22  290  ; 0
001F91  CEC54805           [126] gettable   23  10  291  ; "green"
001F95  DC85C80B           [127] div        23  23  290  ; 0
001F99  0E064905           [128] gettable   24  10  292  ; "blue"
001F9D  1C86480C           [129] div        24  24  290  ; 0
001FA1  4E464905           [130] gettable   25  10  293  ; "alpha"
001FA5  5C86C80C           [131] div        25  25  290  ; 0
001FA9  E2448003           [132] call       19  7   1  
001FAD  E4844709           [133] self       19  18  286  ; -786111647
001FB1  5DC50700           [134] getglobal  21  31       ; Lotus_Game
001FB5  4E85C90A           [135] gettable   21  21  294  ; "UNLIT_ATTEN"
001FB9  9DC50900           [136] getglobal  22  39       ; skyFogMin
001FBD  E2440002           [137] call       19  4   1  
001FC1  D402F57F           [138] forloop    11  -43      ; to [96] if loop
001FC5  1AC00B80           [139] jmp        48           ; to [188]
001FC9  DD040300           [140] getglobal  19  12       ; gRegion
001FCD  E444C309           [141] self       19  19  269  ; 152279552
001FD1  5DC50500           [142] getglobal  21  23       ; skyboxFogMeshType
001FD5  E2848001           [143] call       19  3   2  
001FD9  19050A00           [144] loadk      20  40       ; 0
001FDD  5D050400           [145] getglobal  21  16       ; 1074689893
001FE1  92058009           [146] move       22  19     
001FE5  62850001           [147] call       21  2   2  
001FE9  58450000           [148] test       21      1    ; to [150] if false
001FED  1A800080           [149] jmp        3            ; to [153]
001FF1  4A058009           [150] len        21  19     
fail op	35
001FF5  2300CA0A           [151] close      0  
001FF9  1AC00280           [152] jmp        12           ; to [165]
fail op	21
001FFD  15404A0A           [153] concat     0   20  297
002001  1A400280           [154] jmp        10           ; to [165]
002005  5D050300           [155] getglobal  21  12       ; gRegion
002009  6445C30A           [156] self       21  21  269  ; 152279552
00200D  DDC50500           [157] getglobal  23  23       ; skyboxFogMeshType
002011  62858001           [158] call       21  3   2  
002015  D204800A           [159] move       19  21     
002019  03854A0A           [160] add        20  20  298  ; -51
00201D  5DC50A00           [161] getglobal  21  43       ; 538022378
002021  99850A00           [162] loadk      22  42       ; -51
002025  62450001           [163] call       21  2   1  
002029  1AC0FA7F           [164] jmp        -20          ; to [145]
00202D  5D050B00           [165] getglobal  21  44       ; 1672515847
002031  92058009           [166] move       22  19     
002035  62050101           [167] call       21  2   4  
002039  1A000480           [168] jmp        17           ; to [186]
00203D  A486C70C           [169] self       26  25  286  ; -786111647
002041  1DC70700           [170] getglobal  28  31       ; Lotus_Game
002045  0E07480E           [171] gettable   28  28  288  ; "TINT_COLOR"
002049  4E474805           [172] gettable   29  10  289  ; "red"
00204D  5C87C80E           [173] div        29  29  290  ; 0
002051  8EC74805           [174] gettable   30  10  291  ; "green"
002055  9C87480F           [175] div        30  30  290  ; 0
002059  CE074905           [176] gettable   31  10  292  ; "blue"
00205D  DC87C80F           [177] div        31  31  290  ; 0
002061  0E484905           [178] gettable   32  10  293  ; "alpha"
002065  1C884810           [179] div        32  32  290  ; 0
002069  A2468003           [180] call       26  7   1  
00206D  A486C70C           [181] self       26  25  286  ; -786111647
002071  1DC70700           [182] getglobal  28  31       ; Lotus_Game
002075  0E87490E           [183] gettable   28  28  294  ; "UNLIT_ATTEN"
002079  5DC70900           [184] getglobal  29  39       ; skyFogMin
00207D  A2460002           [185] call       26  4   1  
002081  56850000           [186] tforloop   21      2    ; to [188] if exit
002085  1A00FB7F           [187] jmp        -19          ; to [169]
002089  99C60300           [188] loadk      26  15       ; 0
00208D  CA068001           [189] len        27  3      
002091  19C70300           [190] loadk      28  15       ; 0
002095  90060380           [191] forprep    26  13       ; to [205]
002099  9D070400           [192] getglobal  30  16       ; 1074689893
00209D  CE478701           [193] gettable   31  3   29 
0020A1  A2870001           [194] call       30  2   2  
0020A5  98470000           [195] test       30      1    ; to [197] if false
0020A9  1AC00180           [196] jmp        8            ; to [205]
0020AD  8E478701           [197] gettable   30  3   29 
0020B1  A4474B0F           [198] self       30  30  301  ; -26111214
0020B5  12080005           [199] move       32  10     
0020B9  A2478001           [200] call       30  3   1  
0020BD  8E478701           [201] gettable   30  3   29 
0020C1  A4874B0F           [202] self       30  30  302  ; -1427711469
0020C5  1DC80B00           [203] getglobal  32  47       ; fogDensityMin
0020C9  A2478001           [204] call       30  3   1  
0020CD  9446FC7F           [205] forloop    26  -14      ; to [192] if loop
0020D1  9D070000           [206] getglobal  30  0        ; gGameRules
0020D5  DD070400           [207] getglobal  31  16       ; 1074689893
0020D9  1208000F           [208] move       32  30     
0020DD  E2870001           [209] call       31  2   2  
0020E1  D8470000           [210] test       31      1    ; to [212] if false
0020E5  1A000280           [211] jmp        9            ; to [221]
0020E9  E4074C0F           [212] self       31  30  304  ; -317790213
0020ED  53080000           [213] getupval   33  0      
0020F1  E2878001           [214] call       31  3   2  
fail op	35
0020F5  2300CA0F           [215] close      0  
0020F9  1AC00080           [216] jmp        4            ; to [221]
0020FD  DDC70A00           [217] getglobal  31  43       ; 538022378
002101  19080A00           [218] loadk      32  40       ; 0
002105  E2470001           [219] call       31  2   1  
002109  1A40FC7F           [220] jmp        -14          ; to [207]
00210D  DD070400           [221] getglobal  31  16       ; 1074689893
002111  1208000F           [222] move       32  30     
002115  E2870001           [223] call       31  2   2  
002119  D8470000           [224] test       31      1    ; to [226] if false
00211D  1A401680           [225] jmp        90           ; to [316]
002121  E4074C0F           [226] self       31  30  304  ; -317790213
002125  53080000           [227] getupval   33  0      
002129  E2878001           [228] call       31  3   2  
fail op	35
00212D  6340CC0F           [229] close      1  
002131  1A001580           [230] jmp        85           ; to [316]
002135  DD070000           [231] getglobal  31  0        ; gGameRules
002139  E407CC0F           [232] self       31  31  304  ; -317790213
00213D  53088000           [233] getupval   33  1      
002141  E2878001           [234] call       31  3   2  
002145  13080001           [235] getupval   32  2      
002149  1C08880F           [236] div        32  31  32 
00214D  5D880C00           [237] getglobal  33  50       ; -1828500651
002151  9DC80C00           [238] getglobal  34  51       ; fogDensityMax
002155  DDC80B00           [239] getglobal  35  47       ; fogDensityMin
002159  12090010           [240] move       36  32     
00215D  62880002           [241] call       33  4   2  
002161  86080011           [242] loadnil    34  34     
002165  DD480200           [243] getglobal  35  9        ; _T
002169  CE88C211           [244] gettable   35  35  266  ; "faction"
00216D  1DC90000           [245] getglobal  36  3        ; -332969190
002171  59C90200           [246] loadk      37  11       ; "Infestation"
002175  22890001           [247] call       36  2   2  
fail op	35
002179  23008911           [248] close      0  
00217D  1A400280           [249] jmp        10           ; to [260]
002181  DD080200           [250] getglobal  35  8        ; useInfestedFogGradient
002185  D8080000           [251] test       35      0    ; to [253] if true
002189  1A800180           [252] jmp        7            ; to [260]
00218D  DD080D00           [253] getglobal  35  52       ; infestedFogColorMax
002191  E488CC11           [254] self       35  35  306  ; -1828500651
002195  5D090600           [255] getglobal  37  24       ; infestedFogColorMin
002199  92090010           [256] move       38  32     
00219D  E2880002           [257] call       35  4   2  
0021A1  92088011           [258] move       34  35     
0021A5  1A400180           [259] jmp        6            ; to [266]
0021A9  DD480D00           [260] getglobal  35  53       ; fogColorMax
0021AD  E488CC11           [261] self       35  35  306  ; -1828500651
0021B1  5D490600           [262] getglobal  37  25       ; fogColorMin
0021B5  92090010           [263] move       38  32     
0021B9  E2880002           [264] call       35  4   2  
0021BD  92088011           [265] move       34  35     
0021C1  DD880C00           [266] getglobal  35  50       ; -1828500651
0021C5  1D890D00           [267] getglobal  36  54       ; skyFogMax
0021C9  5DC90900           [268] getglobal  37  39       ; skyFogMin
0021CD  92090010           [269] move       38  32     
0021D1  E2880002           [270] call       35  4   2  
0021D5  1D090B00           [271] getglobal  36  44       ; 1672515847
0021D9  52098004           [272] move       37  9      
0021DD  22090101           [273] call       36  2   4  
0021E1  1A000480           [274] jmp        17           ; to [292]
0021E5  648A4714           [275] self       41  40  286  ; -786111647
0021E9  DDCA0700           [276] getglobal  43  31       ; Lotus_Game
0021ED  CE0AC815           [277] gettable   43  43  288  ; "TINT_COLOR"
0021F1  0E4B4811           [278] gettable   44  34  289  ; "red"
0021F5  1C8B4816           [279] div        44  44  290  ; 0
0021F9  4ECB4811           [280] gettable   45  34  291  ; "green"
0021FD  5C8BC816           [281] div        45  45  290  ; 0
002201  8E0B4911           [282] gettable   46  34  292  ; "blue"
002205  9C8B4817           [283] div        46  46  290  ; 0
002209  CE4B4911           [284] gettable   47  34  293  ; "alpha"
00220D  DC8BC817           [285] div        47  47  290  ; 0
002211  624A8003           [286] call       41  7   1  
002215  648A4714           [287] self       41  40  286  ; -786111647
002219  DDCA0700           [288] getglobal  43  31       ; Lotus_Game
00221D  CE8AC915           [289] gettable   43  43  294  ; "UNLIT_ATTEN"
002221  120B8011           [290] move       44  35     
002225  624A0002           [291] call       41  4   1  
002229  16890000           [292] tforloop   36      2    ; to [294] if exit
00222D  1A00FB7F           [293] jmp        -19          ; to [275]
002231  59CA0300           [294] loadk      41  15       ; 0
002235  8A0A8001           [295] len        42  3      
002239  D9CA0300           [296] loadk      43  15       ; 0
00223D  500A0380           [297] forprep    41  13       ; to [311]
002241  5D0B0400           [298] getglobal  45  16       ; 1074689893
002245  8E0B8B01           [299] gettable   46  3   44 
002249  628B0001           [300] call       45  2   2  
00224D  584B0000           [301] test       45      1    ; to [303] if false
002251  1AC00180           [302] jmp        8            ; to [311]
002255  4E0B8B01           [303] gettable   45  3   44 
002259  644BCB16           [304] self       45  45  301  ; -26111214
00225D  D20B0011           [305] move       47  34     
002261  624B8001           [306] call       45  3   1  
002265  4E0B8B01           [307] gettable   45  3   44 
002269  648BCB16           [308] self       45  45  302  ; -1427711469
00226D  D20B8010           [309] move       47  33     
002271  624B8001           [310] call       45  3   1  
002275  544AFC7F           [311] forloop    41  -14      ; to [298] if loop
002279  5DCB0A00           [312] getglobal  45  43       ; 538022378
00227D  990B0A00           [313] loadk      46  40       ; 0
002281  624B0001           [314] call       45  2   1  
002285  1A00E87F           [315] jmp        -95          ; to [221]
002289  1E008000           [316] return     0   1      
                           * constants:
00228D  37                 sizek (55)
00228E  04                 const type 4
00228F  0B                 string size (11)
002290  6747616D6552756C+  "gGameRul"
002298  657300             "es\0"
                           const [0]: "gGameRules"
00229B  01                 const type 3
00229C  497363B8           const [1]: (-1201441975)
0022A0  04                 const type 4
0022A1  08                 string size (8)
0022A2  66784C6179657200   "fxLayer\0"
                           const [2]: "fxLayer"
0022AA  01                 const type 3
0022AB  1A4B27EC           const [3]: (-332969190)
0022AF  04                 const type 4
0022B0  05                 string size (5)
0022B1  4669726500         "Fire\0"
                           const [4]: "Fire"
0022B6  04                 const type 4
0022B7  0A                 string size (10)
0022B8  526164696174696F+  "Radiatio"
0022C0  6E00               "n\0"
                           const [5]: "Radiation"
0022C2  04                 const type 4
0022C3  06                 string size (6)
0022C4  546F78696E00       "Toxin\0"
                           const [6]: "Toxin"
0022CA  04                 const type 4
0022CB  0F                 string size (15)
0022CC  757365466F674772+  "useFogGr"
0022D4  616469656E7400     "adient\0"
                           const [7]: "useFogGradient"
0022DB  04                 const type 4
0022DC  17                 string size (23)
0022DD  757365496E666573+  "useInfes"
0022E5  746564466F674772+  "tedFogGr"
0022ED  616469656E7400     "adient\0"
                           const [8]: "useInfestedFogGradient"
0022F4  04                 const type 4
0022F5  03                 string size (3)
0022F6  5F5400             "_T\0"
                           const [9]: "_T"
0022F9  04                 const type 4
0022FA  08                 string size (8)
0022FB  66616374696F6E00   "faction\0"
                           const [10]: "faction"
002303  04                 const type 4
002304  0C                 string size (12)
002305  496E666573746174+  "Infestat"
00230D  696F6E00           "ion\0"
                           const [11]: "Infestation"
002311  04                 const type 4
002312  08                 string size (8)
002313  67526567696F6E00   "gRegion\0"
                           const [12]: "gRegion"
00231B  01                 const type 3
00231C  009A1309           const [13]: (152279552)
002320  04                 const type 4
002321  11                 string size (17)
002322  675A6F6E65417474+  "gZoneAtt"
00232A  7269627354797065+  "ribsType"
002332  00                 "\0"
                           const [14]: "gZoneAttribsType"
002333  03                 const type 3
002334  0000803F           const [15]: (0)
002338  01                 const type 3
002339  65770E40           const [16]: (1074689893)
00233D  01                 const type 3
00233E  FF2A83CE           const [17]: (-830264577)
002342  04                 const type 4
002343  09                 string size (9)
002344  4261636B64726F70+  "Backdrop"
00234C  00                 "\0"
                           const [18]: "Backdrop"
00234D  04                 const type 4
00234E  0B                 string size (11)
00234F  43696E656D617469+  "Cinemati"
002357  637300             "cs\0"
                           const [19]: "Cinematics"
00235A  04                 const type 4
00235B  06                 string size (6)
00235C  7461626C6500       "table\0"
                           const [20]: "table"
002362  01                 const type 3
002363  9D0C45E6           const [21]: (-431682403)
002367  01                 const type 3
002368  62DBE572           const [22]: (1927666530)
00236C  04                 const type 4
00236D  12                 string size (18)
00236E  736B79626F78466F+  "skyboxFo"
002376  674D657368547970+  "gMeshTyp"
00237E  6500               "e\0"
                           const [23]: "skyboxFogMeshType"
002380  04                 const type 4
002381  14                 string size (20)
002382  696E666573746564+  "infested"
00238A  466F67436F6C6F72+  "FogColor"
002392  4D696E00           "Min\0"
                           const [24]: "infestedFogColorMin"
002396  04                 const type 4
002397  0C                 string size (12)
002398  666F67436F6C6F72+  "fogColor"
0023A0  4D696E00           "Min\0"
                           const [25]: "fogColorMin"
0023A4  01                 const type 3
0023A5  58F559A5           const [26]: (-1520831144)
0023A9  01                 const type 3
0023AA  0125A76D           const [27]: (1839670529)
0023AE  01                 const type 3
0023AF  49783AF2           const [28]: (-231049143)
0023B3  01                 const type 3
0023B4  C64CD3BD           const [29]: (-1110225722)
0023B8  01                 const type 3
0023B9  61E324D1           const [30]: (-786111647)
0023BD  04                 const type 4
0023BE  0B                 string size (11)
0023BF  4C6F7475735F4761+  "Lotus_Ga"
0023C7  6D6500             "me\0"
                           const [31]: "Lotus_Game"
0023CA  04                 const type 4
0023CB  0B                 string size (11)
0023CC  54494E545F434F4C+  "TINT_COL"
0023D4  4F5200             "OR\0"
                           const [32]: "TINT_COLOR"
0023D7  04                 const type 4
0023D8  04                 string size (4)
0023D9  72656400           "red\0"
                           const [33]: "red"
0023DD  03                 const type 3
0023DE  00007F43           const [34]: (0)
0023E2  04                 const type 4
0023E3  06                 string size (6)
0023E4  677265656E00       "green\0"
                           const [35]: "green"
0023EA  04                 const type 4
0023EB  05                 string size (5)
0023EC  626C756500         "blue\0"
                           const [36]: "blue"
0023F1  04                 const type 4
0023F2  06                 string size (6)
0023F3  616C70686100       "alpha\0"
                           const [37]: "alpha"
0023F9  04                 const type 4
0023FA  0C                 string size (12)
0023FB  554E4C49545F4154+  "UNLIT_AT"
002403  54454E00           "TEN\0"
                           const [38]: "UNLIT_ATTEN"
002407  04                 const type 4
002408  0A                 string size (10)
002409  736B79466F674D69+  "skyFogMi"
002411  6E00               "n\0"
                           const [39]: "skyFogMin"
002413  03                 const type 3
002414  00000000           const [40]: (0)
002418  03                 const type 3
002419  00002041           const [41]: (0)
00241D  03                 const type 3
00241E  CDCC4C3E           const [42]: (-51)
002422  01                 const type 3
002423  EA911120           const [43]: (538022378)
002427  01                 const type 3
002428  0791B063           const [44]: (1672515847)
00242C  01                 const type 3
00242D  129371FE           const [45]: (-26111214)
002431  01                 const type 3
002432  13DAE6AA           const [46]: (-1427711469)
002436  04                 const type 4
002437  0E                 string size (14)
002438  666F6744656E7369+  "fogDensi"
002440  74794D696E00       "tyMin\0"
                           const [47]: "fogDensityMin"
002446  01                 const type 3
002447  FBE70EED           const [48]: (-317790213)
00244B  03                 const type 3
00244C  00008040           const [49]: (0)
002450  01                 const type 3
002451  554B0393           const [50]: (-1828500651)
002455  04                 const type 4
002456  0E                 string size (14)
002457  666F6744656E7369+  "fogDensi"
00245F  74794D617800       "tyMax\0"
                           const [51]: "fogDensityMax"
002465  04                 const type 4
002466  14                 string size (20)
002467  696E666573746564+  "infested"
00246F  466F67436F6C6F72+  "FogColor"
002477  4D617800           "Max\0"
                           const [52]: "infestedFogColorMax"
00247B  04                 const type 4
00247C  0C                 string size (12)
00247D  666F67436F6C6F72+  "fogColor"
002485  4D617800           "Max\0"
                           const [53]: "fogColorMax"
002489  04                 const type 4
00248A  0A                 string size (10)
00248B  736B79466F674D61+  "skyFogMa"
002493  7800               "x\0"
                           const [54]: "skyFogMax"
                           * functions:
002495  00                 sizep (0)
                           * lines:
002497  02                 sizelineinfo (316)
                           [pc] (line)
002498  6F                 [001] (111)
002499  01                 [002] (111)
00249A  00                 [003] (111)
00249B  00                 [004] (112)
00249C  6F                 [005] (114)
00249D  01                 [006] (114)
00249E  00                 [007] (114)
00249F  00                 [008] (114)
0024A0  6F                 [009] (114)
0024A1  01                 [010] (114)
0024A2  00                 [011] (114)
0024A3  00                 [012] (114)
0024A4  70                 [013] (114)
0024A5  01                 [014] (114)
0024A6  00                 [015] (114)
0024A7  00                 [016] (114)
0024A8  72                 [017] (114)
0024A9  01                 [018] (114)
0024AA  00                 [019] (114)
0024AB  00                 [020] (115)
0024AC  72                 [021] (118)
0024AD  01                 [022] (118)
0024AE  00                 [023] (118)
0024AF  00                 [024] (118)
0024B0  72                 [025] (118)
0024B1  01                 [026] (118)
0024B2  00                 [027] (118)
0024B3  00                 [028] (118)
0024B4  72                 [029] (118)
0024B5  01                 [030] (118)
0024B6  00                 [031] (118)
0024B7  00                 [032] (118)
0024B8  72                 [033] (118)
0024B9  01                 [034] (121)
0024BA  00                 [035] (121)
0024BB  00                 [036] (121)
0024BC  72                 [037] (121)
0024BD  01                 [038] (122)
0024BE  00                 [039] (123)
0024BF  00                 [040] (123)
0024C0  72                 [041] (123)
0024C1  01                 [042] (123)
0024C2  00                 [043] (124)
0024C3  00                 [044] (124)
0024C4  72                 [045] (124)
0024C5  01                 [046] (124)
0024C6  00                 [047] (124)
0024C7  00                 [048] (125)
0024C8  72                 [049] (125)
0024C9  01                 [050] (125)
0024CA  00                 [051] (126)
0024CB  00                 [052] (126)
0024CC  72                 [053] (126)
0024CD  01                 [054] (126)
0024CE  00                 [055] (126)
0024CF  00                 [056] (126)
0024D0  72                 [057] (126)
0024D1  01                 [058] (126)
0024D2  00                 [059] (126)
0024D3  00                 [060] (126)
0024D4  72                 [061] (127)
0024D5  01                 [062] (127)
0024D6  00                 [063] (127)
0024D7  00                 [064] (127)
0024D8  72                 [065] (127)
0024D9  01                 [066] (127)
0024DA  00                 [067] (127)
0024DB  00                 [068] (123)
0024DC  72                 [069] (-125)
0024DD  01                 [070] (-125)
0024DE  00                 [071] (-125)
0024DF  00                 [072] (-125)
0024E0  72                 [073] (-122)
0024E1  01                 [074] (-121)
0024E2  00                 [075] (-121)
0024E3  00                 [076] (-121)
0024E4  73                 [077] (-121)
0024E5  01                 [078] (-121)
0024E6  00                 [079] (-121)
0024E7  00                 [080] (-121)
0024E8  76                 [081] (-121)
0024E9  01                 [082] (-121)
0024EA  00                 [083] (-121)
0024EB  00                 [084] (-120)
0024EC  76                 [085] (-120)
0024ED  01                 [086] (-118)
0024EE  00                 [087] (-114)
0024EF  00                 [088] (-114)
0024F0  76                 [089] (-114)
0024F1  01                 [090] (-114)
0024F2  00                 [091] (-114)
0024F3  00                 [092] (-113)
0024F4  76                 [093] (-113)
0024F5  01                 [094] (-113)
0024F6  00                 [095] (-113)
0024F7  00                 [096] (-112)
0024F8  76                 [097] (-112)
0024F9  01                 [098] (-112)
0024FA  00                 [099] (-111)
0024FB  00                 [100] (-111)
0024FC  76                 [101] (-111)
0024FD  01                 [102] (-111)
0024FE  00                 [103] (-111)
0024FF  00                 [104] (-111)
002500  76                 [105] (-111)
002501  01                 [106] (-111)
002502  00                 [107] (-111)
002503  00                 [108] (-111)
002504  76                 [109] (-110)
002505  01                 [110] (-110)
002506  00                 [111] (-110)
002507  00                 [112] (-109)
002508  76                 [113] (-109)
002509  01                 [114] (-109)
00250A  00                 [115] (-108)
00250B  00                 [116] (-108)
00250C  76                 [117] (-108)
00250D  01                 [118] (-108)
00250E  00                 [119] (-108)
00250F  00                 [120] (-108)
002510  76                 [121] (-107)
002511  01                 [122] (-107)
002512  00                 [123] (-107)
002513  00                 [124] (-107)
002514  76                 [125] (-107)
002515  01                 [126] (-107)
002516  00                 [127] (-107)
002517  00                 [128] (-107)
002518  76                 [129] (-107)
002519  01                 [130] (-107)
00251A  00                 [131] (-107)
00251B  00                 [132] (-107)
00251C  79                 [133] (-106)
00251D  01                 [134] (-106)
00251E  00                 [135] (-106)
00251F  00                 [136] (-106)
002520  79                 [137] (-106)
002521  01                 [138] (-113)
002522  00                 [139] (-104)
002523  00                 [140] (-102)
002524  79                 [141] (-102)
002525  01                 [142] (-102)
002526  00                 [143] (-102)
002527  00                 [144] (-101)
002528  79                 [145] (-100)
002529  01                 [146] (-100)
00252A  00                 [147] (-100)
00252B  00                 [148] (-100)
00252C  7A                 [149] (-100)
00252D  01                 [150] (-100)
00252E  00                 [151] (-100)
00252F  00                 [152] (-100)
002530  7B                 [153] (-100)
002531  01                 [154] (-100)
002532  00                 [155] (-99)
002533  00                 [156] (-99)
002534  7B                 [157] (-99)
002535  01                 [158] (-99)
002536  00                 [159] (-99)
002537  00                 [160] (-98)
002538  7B                 [161] (-97)
002539  01                 [162] (-97)
00253A  00                 [163] (-97)
00253B  00                 [164] (-97)
00253C  7B                 [165] (-95)
00253D  01                 [166] (-95)
00253E  00                 [167] (-95)
00253F  00                 [168] (-95)
002540  7C                 [169] (-94)
002541  01                 [170] (-94)
002542  00                 [171] (-94)
002543  00                 [172] (-94)
002544  7C                 [173] (-94)
002545  01                 [174] (-94)
002546  00                 [175] (-94)
002547  00                 [176] (-94)
002548  7C                 [177] (-94)
002549  01                 [178] (-94)
00254A  00                 [179] (-94)
00254B  00                 [180] (-94)
00254C  7C                 [181] (-93)
00254D  01                 [182] (-93)
00254E  00                 [183] (-93)
00254F  00                 [184] (-93)
002550  7C                 [185] (-93)
002551  01                 [186] (-95)
002552  00                 [187] (-93)
002553  00                 [188] (-88)
002554  7D                 [189] (-88)
002555  01                 [190] (-88)
002556  00                 [191] (-88)
002557  00                 [192] (-87)
002558  7D                 [193] (-87)
002559  01                 [194] (-87)
00255A  00                 [195] (-87)
00255B  00                 [196] (-87)
00255C  7D                 [197] (-86)
00255D  01                 [198] (-86)
00255E  00                 [199] (-86)
00255F  00                 [200] (-86)
002560  7E                 [201] (-85)
002561  01                 [202] (-85)
002562  00                 [203] (-85)
002563  00                 [204] (-85)
002564  7E                 [205] (-88)
002565  01                 [206] (-80)
002566  00                 [207] (-79)
002567  00                 [208] (-79)
002568  7E                 [209] (-79)
002569  01                 [210] (-79)
00256A  00                 [211] (-79)
00256B  00                 [212] (-79)
00256C  7E                 [213] (-79)
00256D  01                 [214] (-79)
00256E  00                 [215] (-79)
00256F  00                 [216] (-79)
002570  7E                 [217] (-78)
002571  01                 [218] (-78)
002572  00                 [219] (-78)
002573  00                 [220] (-78)
002574  7E                 [221] (-73)
002575  01                 [222] (-73)
002576  00                 [223] (-73)
002577  00                 [224] (-73)
002578  7E                 [225] (-73)
002579  01                 [226] (-73)
00257A  00                 [227] (-73)
00257B  00                 [228] (-73)
00257C  7E                 [229] (-73)
00257D  01                 [230] (-73)
00257E  00                 [231] (-72)
00257F  00                 [232] (-72)
002580  7E                 [233] (-72)
002581  01                 [234] (-72)
002582  00                 [235] (-71)
002583  00                 [236] (-71)
002584  7E                 [237] (-70)
002585  01                 [238] (-70)
002586  00                 [239] (-70)
002587  00                 [240] (-70)
002588  7F                 [241] (-70)
002589  01                 [242] (-69)
00258A  00                 [243] (-68)
00258B  00                 [244] (-68)
00258C  7F                 [245] (-68)
00258D  01                 [246] (-68)
00258E  00                 [247] (-68)
00258F  00                 [248] (-68)
002590  7F                 [249] (-68)
002591  01                 [250] (-68)
002592  00                 [251] (-68)
002593  00                 [252] (-68)
002594  7F                 [253] (-67)
002595  01                 [254] (-67)
002596  00                 [255] (-67)
002597  00                 [256] (-67)
002598  7F                 [257] (-67)
002599  01                 [258] (-67)
00259A  00                 [259] (-67)
00259B  00                 [260] (-65)
00259C  7F                 [261] (-65)
00259D  01                 [262] (-65)
00259E  00                 [263] (-65)
00259F  00                 [264] (-65)
0025A0  7F                 [265] (-65)
0025A1  01                 [266] (-61)
0025A2  00                 [267] (-61)
0025A3  00                 [268] (-61)
0025A4  7B                 [269] (-61)
0025A5  01                 [270] (-61)
0025A6  00                 [271] (-60)
0025A7  00                 [272] (-60)
0025A8  83                 [273] (-60)
0025A9  01                 [274] (-60)
0025AA  00                 [275] (-59)
0025AB  00                 [276] (-59)
0025AC  83                 [277] (-59)
0025AD  01                 [278] (-59)
0025AE  00                 [279] (-59)
0025AF  00                 [280] (-59)
0025B0  83                 [281] (-59)
0025B1  01                 [282] (-59)
0025B2  00                 [283] (-59)
0025B3  00                 [284] (-59)
0025B4  83                 [285] (-59)
0025B5  01                 [286] (-59)
0025B6  00                 [287] (-58)
0025B7  00                 [288] (-58)
0025B8  86                 [289] (-58)
0025B9  01                 [290] (-58)
0025BA  00                 [291] (-58)
0025BB  00                 [292] (-60)
0025BC  87                 [293] (-58)
0025BD  01                 [294] (-54)
0025BE  00                 [295] (-54)
0025BF  00                 [296] (-54)
0025C0  87                 [297] (-54)
0025C1  01                 [298] (-53)
0025C2  00                 [299] (-53)
0025C3  00                 [300] (-53)
0025C4  87                 [301] (-53)
0025C5  01                 [302] (-53)
0025C6  00                 [303] (-52)
0025C7  00                 [304] (-52)
0025C8  87                 [305] (-52)
0025C9  01                 [306] (-52)
0025CA  00                 [307] (-51)
0025CB  00                 [308] (-51)
0025CC  87                 [309] (-51)
0025CD  01                 [310] (-51)
0025CE  00                 [311] (-54)
0025CF  00                 [312] (-48)
0025D0  87                 [313] (-48)
0025D1  01                 [314] (-48)
0025D2  00                 [315] (-48)
0025D3  00                 [316] (-45)
                           * locals:
002988  00                 sizelocvars (0)
                           * upvalues:
002989  00                 sizeupvalues (0)
                           ** end of function **

                           
00298A                     ** function [11] definition (level 2)
                           ** start of function **
00298A  00                 string size (0)
                           source name: (none)
00298C  03                 line defined (471)
00298D  EF                 last line defined (495)
00298E  03                 nups (0)
00298F  00                 numparams (2)
002990  02                 is_vararg (0)
002991  00                 maxstacksize (14)
                           * code:
002993  48                 sizecode (72)
fail op	35
002994  63004000           [01] close      1  
002998  1A000180           [02] jmp        5            ; to [8]
00299C  9D400000           [03] getglobal  2   1        ; 1780700712
0029A0  D2000000           [04] move       3   0      
0029A4  A2800001           [05] call       2   2   2  
fail op	35
0029A8  23804001           [06] close      0  
0029AC  1AC00F80           [07] jmp        64           ; to [72]
0029B0  9D400000           [08] getglobal  2   1        ; 1780700712
0029B4  D2008000           [09] move       3   1      
0029B8  A2800001           [10] call       2   2   2  
fail op	35
0029BC  23804001           [11] close      0  
0029C0  1A800E80           [12] jmp        59           ; to [72]
0029C4  9DC00000           [13] getglobal  2   3        ; 1074689893
0029C8  DD000100           [14] getglobal  3   4        ; _T
0029CC  CE40C101           [15] gettable   3   3   261  ; "SQUADLINK_VaultStatusChanged"
0029D0  A2800001           [16] call       2   2   2  
0029D4  98400000           [17] test       2       1    ; to [19] if false
0029D8  1A000180           [18] jmp        5            ; to [24]
0029DC  9D000100           [19] getglobal  2   4        ; _T
0029E0  8E804101           [20] gettable   2   2   262  ; -1679207832
0029E4  D2000000           [21] move       3   0      
0029E8  12018000           [22] move       4   1      
0029EC  A2408001           [23] call       2   3   1  
0029F0  99C00100           [24] loadk      2   7        ; 0
0029F4  CA008000           [25] len        3   1      
0029F8  19C10100           [26] loadk      4   7        ; 0
0029FC  90800A80           [27] forprep    2   43       ; to [71]
002A00  18000000           [28] test       0       0    ; to [30] if true
002A04  1A800180           [29] jmp        7            ; to [37]
002A08  8E410100           [30] gettable   6   0   5  
002A0C  98010000           [31] test       6       0    ; to [33] if true
002A10  1AC00080           [32] jmp        4            ; to [37]
002A14  8E410100           [33] gettable   6   0   5  
002A18  8E014203           [34] gettable   6   6   264  ; "s"
002A1C  98410000           [35] test       6       1    ; to [37] if false
002A20  1A000080           [36] jmp        1            ; to [38]
002A24  99410200           [37] loadk      6   9        ; 0
002A28  CE418100           [38] gettable   7   1   5  
002A2C  D8010000           [39] test       7       0    ; to [41] if true
002A30  1AC00080           [40] jmp        4            ; to [45]
002A34  CE418100           [41] gettable   7   1   5  
002A38  CE01C203           [42] gettable   7   7   264  ; "s"
002A3C  D8410000           [43] test       7       1    ; to [45] if false
002A40  1A000080           [44] jmp        1            ; to [46]
002A44  D9410200           [45] loadk      7   9        ; 0
fail op	35
002A48  63C00103           [46] close      1  
002A4C  1A800180           [47] jmp        7            ; to [55]
fail op	35
002A50  23C0C103           [48] close      0  
002A54  1A000180           [49] jmp        5            ; to [55]
002A58  1D020100           [50] getglobal  8   4        ; _T
002A5C  5D020100           [51] getglobal  9   4        ; _T
002A60  4E82C204           [52] gettable   9   9   266  ; "SquadLinkSurvivalGiveRewards"
002A64  43C2C104           [53] add        9   9   263  ; 0
002A68  0C420285           [54] settable   8   266 9    ; "SquadLinkSurvivalGiveRewards"
fail op	35
002A6C  23C0C203           [55] close      0  
002A70  1A400380           [56] jmp        14           ; to [71]
002A74  0E428100           [57] gettable   8   1   5  
002A78  18020000           [58] test       8       0    ; to [60] if true
002A7C  1A400080           [59] jmp        2            ; to [62]
002A80  0E428100           [60] gettable   8   1   5  
002A84  0E024304           [61] gettable   8   8   268  ; "t"
002A88  18020000           [62] test       8       0    ; to [64] if true
002A8C  1A800180           [63] jmp        7            ; to [71]
002A90  5D420300           [64] getglobal  9   13       ; -469071827
002A94  99820300           [65] loadk      10  14       ; "SquadLink - Vault"
002A98  D2028002           [66] move       11  5      
002A9C  19C30300           [67] loadk      12  15       ; " timer: "
002AA0  52030004           [68] move       13  8      
002AA4  82420305           [69] concat     10  10  13 
002AA8  62420001           [70] call       9   2   1  
002AAC  94C0F47F           [71] forloop    2   -44      ; to [28] if loop
002AB0  1E008000           [72] return     0   1      
                           * constants:
002AB4  10                 sizek (16)
002AB5  00                 const type 0
                           const [0]: nil
002AB6  01                 const type 3
002AB7  2856236A           const [1]: (1780700712)
002ABB  04                 const type 4
002ABC  06                 string size (6)
002ABD  7461626C6500       "table\0"
                           const [2]: "table"
002AC3  01                 const type 3
002AC4  65770E40           const [3]: (1074689893)
002AC8  04                 const type 4
002AC9  03                 string size (3)
002ACA  5F5400             "_T\0"
                           const [4]: "_T"
002ACD  04                 const type 4
002ACE  1D                 string size (29)
002ACF  53515541444C494E+  "SQUADLIN"
002AD7  4B5F5661756C7453+  "K_VaultS"
002ADF  7461747573436861+  "tatusCha"
002AE7  6E67656400         "nged\0"
                           const [5]: "SQUADLINK_VaultStatusChanged"
002AEC  01                 const type 3
002AED  6852E99B           const [6]: (-1679207832)
002AF1  03                 const type 3
002AF2  0000803F           const [7]: (0)
002AF6  04                 const type 4
002AF7  02                 string size (2)
002AF8  7300               "s\0"
                           const [8]: "s"
002AFA  03                 const type 3
002AFB  00000000           const [9]: (0)
002AFF  04                 const type 4
002B00  1D                 string size (29)
002B01  53717561644C696E+  "SquadLin"
002B09  6B53757276697661+  "kSurviva"
002B11  6C47697665526577+  "lGiveRew"
002B19  6172647300         "ards\0"
                           const [10]: "SquadLinkSurvivalGiveRewards"
002B1E  03                 const type 3
002B1F  00004040           const [11]: (0)
002B23  04                 const type 4
002B24  02                 string size (2)
002B25  7400               "t\0"
                           const [12]: "t"
002B27  01                 const type 3
002B28  2D880AE4           const [13]: (-469071827)
002B2C  04                 const type 4
002B2D  12                 string size (18)
002B2E  53717561644C696E+  "SquadLin"
002B36  6B202D205661756C+  "k - Vaul"
002B3E  7400               "t\0"
                           const [14]: "SquadLink - Vault"
002B40  04                 const type 4
002B41  09                 string size (9)
002B42  2074696D65723A20+  " timer: "
002B4A  00                 "\0"
                           const [15]: " timer: "
                           * functions:
002B4B  00                 sizep (0)
                           * lines:
002B4C  48                 sizelineinfo (72)
                           [pc] (line)
002B4D  D8                 [01] (-40)
002B4E  01                 [02] (-40)
002B4F  00                 [03] (-40)
002B50  00                 [04] (-40)
002B51  D8                 [05] (-40)
002B52  01                 [06] (-40)
002B53  00                 [07] (-40)
002B54  00                 [08] (-40)
002B55  D8                 [09] (-40)
002B56  01                 [10] (-40)
002B57  00                 [11] (-40)
002B58  00                 [12] (-40)
002B59  D8                 [13] (-39)
002B5A  01                 [14] (-39)
002B5B  00                 [15] (-39)
002B5C  00                 [16] (-39)
002B5D  D8                 [17] (-39)
002B5E  01                 [18] (-39)
002B5F  00                 [19] (-38)
002B60  00                 [20] (-38)
002B61  D8                 [21] (-38)
002B62  01                 [22] (-38)
002B63  00                 [23] (-38)
002B64  00                 [24] (-36)
002B65  D8                 [25] (-36)
002B66  01                 [26] (-36)
002B67  00                 [27] (-36)
002B68  00                 [28] (-35)
002B69  D8                 [29] (-35)
002B6A  01                 [30] (-35)
002B6B  00                 [31] (-35)
002B6C  00                 [32] (-35)
002B6D  D8                 [33] (-35)
002B6E  01                 [34] (-35)
002B6F  00                 [35] (-35)
002B70  00                 [36] (-35)
002B71  D8                 [37] (-35)
002B72  01                 [38] (-34)
002B73  00                 [39] (-34)
002B74  00                 [40] (-34)
002B75  D8                 [41] (-34)
002B76  01                 [42] (-34)
002B77  00                 [43] (-34)
002B78  00                 [44] (-34)
002B79  D8                 [45] (-34)
002B7A  01                 [46] (-32)
002B7B  00                 [47] (-32)
002B7C  00                 [48] (-31)
002B7D  D9                 [49] (-31)
002B7E  01                 [50] (-29)
002B7F  00                 [51] (-29)
002B80  00                 [52] (-29)
002B81  D9                 [53] (-29)
002B82  01                 [54] (-29)
002B83  00                 [55] (-25)
002B84  00                 [56] (-25)
002B85  D9                 [57] (-24)
002B86  01                 [58] (-24)
002B87  00                 [59] (-24)
002B88  00                 [60] (-24)
002B89  D9                 [61] (-24)
002B8A  01                 [62] (-23)
002B8B  00                 [63] (-23)
002B8C  00                 [64] (-22)
002B8D  D9                 [65] (-22)
002B8E  01                 [66] (-22)
002B8F  00                 [67] (-22)
002B90  00                 [68] (-22)
002B91  D9                 [69] (-22)
002B92  01                 [70] (-22)
002B93  00                 [71] (-36)
002B94  00                 [72] (-17)
                           * locals:
002C6D  00                 sizelocvars (0)
                           * upvalues:
002C6E  00                 sizeupvalues (0)
                           ** end of function **

                           
002C6F                     ** function [12] definition (level 2)
                           ** start of function **
002C6F  00                 string size (0)
                           source name: (none)
002C71  03                 line defined (497)
002C72  F3                 last line defined (499)
002C73  03                 nups (1)
002C74  01                 numparams (0)
002C75  00                 is_vararg (0)
002C76  00                 maxstacksize (2)
                           * code:
002C78  06                 sizecode (6)
002C79  13000000           [1] getupval   0   0      
002C7D  0E004000           [2] gettable   0   0   256  ; -1084877855
002C81  53000000           [3] getupval   1   0      
002C85  4E40C000           [4] gettable   1   1   257  ; "INITIATOR_SUCCESS"
002C89  22400001           [5] call       0   2   1  
002C8D  1E008000           [6] return     0   1      
                           * constants:
002C91  02                 sizek (2)
002C92  01                 const type 3
002C93  E11356BF           const [0]: (-1084877855)
002C97  04                 const type 4
002C98  12                 string size (18)
002C99  494E49544941544F+  "INITIATO"
002CA1  525F535543434553+  "R_SUCCES"
002CA9  5300               "S\0"
                           const [1]: "INITIATOR_SUCCESS"
                           * functions:
002CAB  00                 sizep (0)
                           * lines:
002CAC  06                 sizelineinfo (6)
                           [pc] (line)
002CAD  F2                 [1] (-14)
002CAE  01                 [2] (-14)
002CAF  00                 [3] (-14)
002CB0  00                 [4] (-14)
002CB1  F2                 [5] (-14)
002CB2  01                 [6] (-13)
                           * locals:
002CC5  00                 sizelocvars (0)
                           * upvalues:
002CC6  00                 sizeupvalues (0)
                           ** end of function **

                           
002CC7                     ** function [13] definition (level 2)
                           ** start of function **
002CC7  00                 string size (0)
                           source name: (none)
002CC9  03                 line defined (501)
002CCA  F9                 last line defined (505)
002CCB  03                 nups (1)
002CCC  01                 numparams (2)
002CCD  02                 is_vararg (0)
002CCE  00                 maxstacksize (5)
                           * code:
002CD0  13                 sizecode (19)
002CD1  9D000000           [01] getglobal  2   0        ; gRegion
002CD5  A4404001           [02] self       2   2   257  ; 65205951
002CD9  A2800001           [03] call       2   2   2  
fail op	35
002CDD  23808000           [04] close      0  
002CE1  1A000380           [05] jmp        13           ; to [19]
002CE5  93000000           [06] getupval   2   0      
002CE9  8E804001           [07] gettable   2   2   258  ; -1726069212
002CED  A2808000           [08] call       2   1   2  
002CF1  98000000           [09] test       2       0    ; to [11] if true
002CF5  1AC00180           [10] jmp        8            ; to [19]
002CF9  9D000000           [11] getglobal  2   0        ; gRegion
002CFD  A4C04001           [12] self       2   2   259  ; 925677844
002D01  A2800001           [13] call       2   2   2  
002D05  A4004101           [14] self       2   2   260  ; -1704783487
002D09  A2800001           [15] call       2   2   2  
002D0D  A4404101           [16] self       2   2   261  ; -219182425
002D11  19810100           [17] loadk      4   6        ; "/Lotus/Language/SquadLink/ActionDisabledWhileMatchmaking"
002D15  A2408001           [18] call       2   3   1  
002D19  1E008000           [19] return     0   1      
                           * constants:
002D1D  07                 sizek (7)
002D1E  04                 const type 4
002D1F  08                 string size (8)
002D20  67526567696F6E00   "gRegion\0"
                           const [0]: "gRegion"
002D28  01                 const type 3
002D29  BFF6E203           const [1]: (65205951)
002D2D  01                 const type 3
002D2E  24461E99           const [2]: (-1726069212)
002D32  01                 const type 3
002D33  14B92C37           const [3]: (925677844)
002D37  01                 const type 3
002D38  8111639A           const [4]: (-1704783487)
002D3C  01                 const type 3
002D3D  A78AEFF2           const [5]: (-219182425)
002D41  04                 const type 4
002D42  39                 string size (57)
002D43  2F4C6F7475732F4C+  "/Lotus/L"
002D4B  616E67756167652F+  "anguage/"
002D53  53717561644C696E+  "SquadLin"
002D5B  6B2F416374696F6E+  "k/Action"
002D63  44697361626C6564+  "Disabled"
002D6B  5768696C654D6174+  "WhileMat"
002D73  63686D616B696E67+  "chmaking"
002D7B  00                 "\0"
                           const [6]: "/Lotus/Language/SquadLink/ActionDisabledWhileMatchmaking"
                           * functions:
002D7C  00                 sizep (0)
                           * lines:
002D7D  13                 sizelineinfo (19)
                           [pc] (line)
002D7E  F6                 [01] (-10)
002D7F  01                 [02] (-10)
002D80  00                 [03] (-10)
002D81  00                 [04] (-10)
002D82  F6                 [05] (-10)
002D83  01                 [06] (-10)
002D84  00                 [07] (-10)
002D85  00                 [08] (-10)
002D86  F6                 [09] (-10)
002D87  01                 [10] (-10)
002D88  00                 [11] (-9)
002D89  00                 [12] (-9)
002D8A  F6                 [13] (-9)
002D8B  01                 [14] (-9)
002D8C  00                 [15] (-9)
002D8D  00                 [16] (-9)
002D8E  F6                 [17] (-9)
002D8F  01                 [18] (-9)
002D90  00                 [19] (-7)
                           * locals:
002DCA  00                 sizelocvars (0)
                           * upvalues:
002DCB  00                 sizeupvalues (0)
                           ** end of function **

                           
002DCC                     ** function [14] definition (level 2)
                           ** start of function **
002DCC  00                 string size (0)
                           source name: (none)
002DCE  03                 line defined (507)
002DCF  FF                 last line defined (511)
002DD0  03                 nups (0)
002DD1  00                 numparams (2)
002DD2  02                 is_vararg (0)
002DD3  00                 maxstacksize (5)
                           * code:
002DD5  0E                 sizecode (14)
002DD6  9D000000           [01] getglobal  2   0        ; gRegion
002DDA  A4404001           [02] self       2   2   257  ; 65205951
002DDE  A2800001           [03] call       2   2   2  
fail op	35
002DE2  23808000           [04] close      0  
002DE6  1AC00180           [05] jmp        8            ; to [14]
002DEA  9D000000           [06] getglobal  2   0        ; gRegion
002DEE  A4804001           [07] self       2   2   258  ; 925677844
002DF2  A2800001           [08] call       2   2   2  
002DF6  A4C04001           [09] self       2   2   259  ; -1704783487
002DFA  A2800001           [10] call       2   2   2  
002DFE  A4004101           [11] self       2   2   260  ; -219182425
002E02  19410100           [12] loadk      4   5        ; ""
002E06  A2408001           [13] call       2   3   1  
002E0A  1E008000           [14] return     0   1      
                           * constants:
002E0E  06                 sizek (6)
002E0F  04                 const type 4
002E10  08                 string size (8)
002E11  67526567696F6E00   "gRegion\0"
                           const [0]: "gRegion"
002E19  01                 const type 3
002E1A  BFF6E203           const [1]: (65205951)
002E1E  01                 const type 3
002E1F  14B92C37           const [2]: (925677844)
002E23  01                 const type 3
002E24  8111639A           const [3]: (-1704783487)
002E28  01                 const type 3
002E29  A78AEFF2           const [4]: (-219182425)
002E2D  04                 const type 4
002E2E  01                 string size (0)
                           const [5]: ""
                           * functions:
002E30  00                 sizep (0)
                           * lines:
002E31  0E                 sizelineinfo (14)
                           [pc] (line)
002E32  FC                 [01] (-4)
002E33  01                 [02] (-4)
002E34  00                 [03] (-4)
002E35  00                 [04] (-4)
002E36  FC                 [05] (-4)
002E37  01                 [06] (-3)
002E38  00                 [07] (-3)
002E39  00                 [08] (-3)
002E3A  FC                 [09] (-3)
002E3B  01                 [10] (-3)
002E3C  00                 [11] (-3)
002E3D  00                 [12] (-3)
002E3E  FC                 [13] (-3)
002E3F  01                 [14] (-1)
                           * locals:
002E6A  00                 sizelocvars (0)
                           * upvalues:
002E6B  00                 sizeupvalues (0)
                           ** end of function **

                           
002E6C                     ** function [15] definition (level 2)
                           ** start of function **
002E6C  00                 string size (0)
                           source name: (none)
002E6E  04                 line defined (515)
002E6F  8E                 last line defined (526)
002E70  04                 nups (0)
002E71  00                 numparams (2)
002E72  02                 is_vararg (0)
002E73  00                 maxstacksize (12)
                           * code:
002E75  22                 sizecode (34)
002E76  9D000000           [01] getglobal  2   0        ; 1074689893
002E7A  D2000000           [02] move       3   0      
002E7E  A2800001           [03] call       2   2   2  
002E82  98000000           [04] test       2       0    ; to [6] if true
002E86  1A000080           [05] jmp        1            ; to [7]
002E8A  1E008000           [06] return     0   1      
002E8E  9D400000           [07] getglobal  2   1        ; gRegion
002E92  A4804001           [08] self       2   2   258  ; -2071158816
002E96  A2800001           [09] call       2   2   2  
002E9A  DDC00000           [10] getglobal  3   3        ; 1672515847
002E9E  12010001           [11] move       4   2      
002EA2  E2000101           [12] call       3   2   4  
002EA6  1A400480           [13] jmp        18           ; to [32]
002EAA  1D020000           [14] getglobal  8   0        ; 1074689893
002EAE  6402C103           [15] self       9   7   260  ; -564624675
002EB2  62020001           [16] call       9   2   0  
002EB6  22820000           [17] call       8   0   2  
002EBA  18420000           [18] test       8       1    ; to [20] if false
002EBE  1AC00280           [19] jmp        12           ; to [32]
002EC2  2402C103           [20] self       8   7   260  ; -564624675
002EC6  22820001           [21] call       8   2   2  
002ECA  24424104           [22] self       8   8   261  ; 188678183
002ECE  22820001           [23] call       8   2   2  
002ED2  18020000           [24] test       8       0    ; to [26] if true
002ED6  1A400180           [25] jmp        6            ; to [32]
002EDA  2482C103           [26] self       8   7   262  ; -1917464545
002EDE  22820001           [27] call       8   2   2  
002EE2  24C24104           [28] self       8   8   263  ; 1401485941
002EE6  92020000           [29] move       10  0      
002EEA  D2028000           [30] move       11  1      
002EEE  22420002           [31] call       8   4   1  
002EF2  D6800000           [32] tforloop   3       2    ; to [34] if exit
002EF6  1AC0FA7F           [33] jmp        -20          ; to [14]
002EFA  1E008000           [34] return     0   1      
                           * constants:
002EFE  08                 sizek (8)
002EFF  01                 const type 3
002F00  65770E40           const [0]: (1074689893)
002F04  04                 const type 4
002F05  08                 string size (8)
002F06  67526567696F6E00   "gRegion\0"
                           const [1]: "gRegion"
002F0E  01                 const type 3
002F0F  E09F8C84           const [2]: (-2071158816)
002F13  01                 const type 3
002F14  0791B063           const [3]: (1672515847)
002F18  01                 const type 3
002F19  DD8258DE           const [4]: (-564624675)
002F1D  01                 const type 3
002F1E  27003F0B           const [5]: (188678183)
002F22  01                 const type 3
002F23  1FD0B58D           const [6]: (-1917464545)
002F27  01                 const type 3
002F28  75FA8853           const [7]: (1401485941)
                           * functions:
002F2C  00                 sizep (0)
                           * lines:
002F2D  22                 sizelineinfo (34)
                           [pc] (line)
002F2E  04                 [01] (4)
002F2F  02                 [02] (4)
002F30  00                 [03] (4)
002F31  00                 [04] (4)
002F32  04                 [05] (4)
002F33  02                 [06] (5)
002F34  00                 [07] (8)
002F35  00                 [08] (8)
002F36  04                 [09] (8)
002F37  02                 [10] (9)
002F38  00                 [11] (9)
002F39  00                 [12] (9)
002F3A  04                 [13] (9)
002F3B  02                 [14] (10)
002F3C  00                 [15] (10)
002F3D  00                 [16] (10)
002F3E  04                 [17] (10)
002F3F  02                 [18] (10)
002F40  00                 [19] (10)
002F41  00                 [20] (10)
002F42  05                 [21] (10)
002F43  02                 [22] (10)
002F44  00                 [23] (10)
002F45  00                 [24] (10)
002F46  08                 [25] (10)
002F47  02                 [26] (11)
002F48  00                 [27] (11)
002F49  00                 [28] (11)
002F4A  08                 [29] (11)
002F4B  02                 [30] (11)
002F4C  00                 [31] (11)
002F4D  00                 [32] (9)
002F4E  08                 [33] (12)
002F4F  02                 [34] (14)
                           * locals:
002FB6  00                 sizelocvars (0)
                           * upvalues:
002FB7  00                 sizeupvalues (0)
                           ** end of function **

                           
002FB8                     ** function [16] definition (level 2)
                           ** start of function **
002FB8  00                 string size (0)
                           source name: (none)
002FBA  04                 line defined (528)
002FBB  95                 last line defined (533)
002FBC  04                 nups (0)
002FBD  00                 numparams (1)
002FBE  01                 is_vararg (0)
002FBF  00                 maxstacksize (7)
                           * code:
002FC1  10                 sizecode (16)
002FC2  5D000000           [01] getglobal  1   0        ; gFlashMgr
002FC6  6440C000           [02] self       1   1   257  ; 38794118
002FCA  DD800000           [03] getglobal  3   2        ; survivalRewardsMovie
002FCE  62808001           [04] call       1   3   2  
002FD2  9DC00000           [05] getglobal  2   3        ; 1074689893
002FD6  D2008000           [06] move       3   1      
002FDA  A2800001           [07] call       2   2   2  
002FDE  98400000           [08] test       2       1    ; to [10] if false
002FE2  1A400180           [09] jmp        6            ; to [16]
002FE6  A400C100           [10] self       2   1   260  ; 1167009705
002FEA  19410100           [11] loadk      4   5        ; "ShowReward"
002FEE  5D810100           [12] getglobal  5   6        ; -1615931716
002FF2  92010000           [13] move       6   0      
002FF6  62010001           [14] call       5   2   0  
002FFA  A2400000           [15] call       2   0   1  
002FFE  1E008000           [16] return     0   1      
                           * constants:
003002  07                 sizek (7)
003003  04                 const type 4
003004  0A                 string size (10)
003005  67466C6173684D67+  "gFlashMg"
00300D  7200               "r\0"
                           const [0]: "gFlashMgr"
00300F  01                 const type 3
003010  86F34F02           const [1]: (38794118)
003014  04                 const type 4
003015  15                 string size (21)
003016  737572766976616C+  "survival"
00301E  526577617264734D+  "RewardsM"
003026  6F76696500         "ovie\0"
                           const [2]: "survivalRewardsMovie"
00302B  01                 const type 3
00302C  65770E40           const [3]: (1074689893)
003030  01                 const type 3
003031  A9278F45           const [4]: (1167009705)
003035  04                 const type 4
003036  0B                 string size (11)
003037  53686F7752657761+  "ShowRewa"
00303F  726400             "rd\0"
                           const [5]: "ShowReward"
003042  01                 const type 3
003043  BCD6AE9F           const [6]: (-1615931716)
                           * functions:
003047  00                 sizep (0)
                           * lines:
003048  10                 sizelineinfo (16)
                           [pc] (line)
003049  11                 [01] (17)
00304A  02                 [02] (17)
00304B  00                 [03] (17)
00304C  00                 [04] (17)
00304D  11                 [05] (18)
00304E  02                 [06] (18)
00304F  00                 [07] (18)
003050  00                 [08] (18)
003051  11                 [09] (18)
003052  02                 [10] (19)
003053  00                 [11] (19)
003054  00                 [12] (19)
003055  11                 [13] (19)
003056  02                 [14] (19)
003057  00                 [15] (19)
003058  00                 [16] (21)
                           * locals:
003089  00                 sizelocvars (0)
                           * upvalues:
00308A  00                 sizeupvalues (0)
                           ** end of function **

                           
00308B                     ** function [17] definition (level 2)
                           ** start of function **
00308B  00                 string size (0)
                           source name: (none)
00308D  04                 line defined (535)
00308E  A6                 last line defined (550)
00308F  04                 nups (0)
003090  00                 numparams (3)
003091  03                 is_vararg (0)
003092  00                 maxstacksize (12)
                           * code:
003094  39                 sizecode (57)
003095  D9000000           [01] loadk      3   0        ; 0
003099  06010002           [02] loadnil    4   4      
00309D  5D410000           [03] getglobal  5   1        ; 1074689893
0030A1  92010001           [04] move       6   2      
0030A5  62810001           [05] call       5   2   2  
0030A9  58410000           [06] test       5       1    ; to [8] if false
0030AD  1A000080           [07] jmp        1            ; to [9]
0030B1  D2000001           [08] move       3   2      
0030B5  5D410000           [09] getglobal  5   1        ; 1074689893
0030B9  92018000           [10] move       6   1      
0030BD  62810001           [11] call       5   2   2  
0030C1  58410000           [12] test       5       1    ; to [14] if false
0030C5  1A400080           [13] jmp        2            ; to [16]
0030C9  12018000           [14] move       4   1      
0030CD  1A000180           [15] jmp        5            ; to [21]
0030D1  5D810000           [16] getglobal  5   2        ; -1577254049
0030D5  9DC10000           [17] getglobal  6   3        ; 1491452635
0030D9  A2018000           [18] call       6   1   0  
0030DD  62810000           [19] call       5   0   2  
0030E1  12018002           [20] move       4   5      
0030E5  4E014100           [21] gettable   5   0   260  ; "red"
0030E9  9D410100           [22] getglobal  6   5        ; math
0030ED  8E814103           [23] gettable   6   6   262  ; -113279800
0030F1  CDC10002           [24] sub        7   4   3  
0030F5  DCC18003           [25] div        7   7   3  
0030F9  A2810001           [26] call       6   2   2  
0030FD  CE014100           [27] gettable   7   0   260  ; "red"
003101  CDC18183           [28] sub        7   263 7    ; 0
003105  84C10103           [29] mul        6   6   7  
003109  43818102           [30] add        5   5   6  
00310D  8E014200           [31] gettable   6   0   264  ; "green"
003111  DD410100           [32] getglobal  7   5        ; math
003115  CE81C103           [33] gettable   7   7   262  ; -113279800
003119  0DC20002           [34] sub        8   4   3  
00311D  1CC20004           [35] div        8   8   3  
003121  E2810001           [36] call       7   2   2  
003125  0E024200           [37] gettable   8   0   264  ; "green"
003129  0D028283           [38] sub        8   263 8    ; 0
00312D  C4018203           [39] mul        7   7   8  
003131  83C10103           [40] add        6   6   7  
003135  CE414200           [41] gettable   7   0   265  ; "blue"
003139  1D420100           [42] getglobal  8   5        ; math
00313D  0E824104           [43] gettable   8   8   262  ; -113279800
003141  4DC20002           [44] sub        9   4   3  
003145  5CC28004           [45] div        9   9   3  
003149  22820001           [46] call       8   2   2  
00314D  4E424200           [47] gettable   9   0   265  ; "blue"
003151  4D428283           [48] sub        9   263 9    ; 0
003155  04420204           [49] mul        8   8   9  
003159  C3018203           [50] add        7   7   8  
00315D  1D820200           [51] getglobal  8   10       ; -1247440829
003161  52028002           [52] move       9   5      
003165  92020003           [53] move       10  6      
003169  D2028003           [54] move       11  7      
00316D  07020002           [55] tailcall   8   4   0  
003171  1E020000           [56] return     8   0      
003175  1E008000           [57] return     0   1      
                           * constants:
003179  0B                 sizek (11)
00317A  03                 const type 3
00317B  0000003F           const [0]: (0)
00317F  01                 const type 3
003180  65770E40           const [1]: (1074689893)
003184  01                 const type 3
003185  5F03FDA1           const [2]: (-1577254049)
003189  01                 const type 3
00318A  DBC2E558           const [3]: (1491452635)
00318E  04                 const type 4
00318F  04                 string size (4)
003190  72656400           "red\0"
                           const [4]: "red"
003194  04                 const type 4
003195  05                 string size (5)
003196  6D61746800         "math\0"
                           const [5]: "math"
00319B  01                 const type 3
00319C  C87C3FF9           const [6]: (-113279800)
0031A0  03                 const type 3
0031A1  00007F43           const [7]: (0)
0031A5  04                 const type 4
0031A6  06                 string size (6)
0031A7  677265656E00       "green\0"
                           const [8]: "green"
0031AD  04                 const type 4
0031AE  05                 string size (5)
0031AF  626C756500         "blue\0"
                           const [9]: "blue"
0031B4  01                 const type 3
0031B5  4390A5B5           const [10]: (-1247440829)
                           * functions:
0031B9  00                 sizep (0)
                           * lines:
0031BA  39                 sizelineinfo (57)
                           [pc] (line)
0031BB  18                 [01] (24)
0031BC  02                 [02] (25)
0031BD  00                 [03] (26)
0031BE  00                 [04] (26)
0031BF  19                 [05] (26)
0031C0  02                 [06] (26)
0031C1  00                 [07] (26)
0031C2  00                 [08] (27)
0031C3  1A                 [09] (29)
0031C4  02                 [10] (29)
0031C5  00                 [11] (29)
0031C6  00                 [12] (29)
0031C7  1A                 [13] (29)
0031C8  02                 [14] (30)
0031C9  00                 [15] (30)
0031CA  00                 [16] (32)
0031CB  1A                 [17] (32)
0031CC  02                 [18] (32)
0031CD  00                 [19] (32)
0031CE  00                 [20] (32)
0031CF  1A                 [21] (34)
0031D0  02                 [22] (34)
0031D1  00                 [23] (34)
0031D2  00                 [24] (34)
0031D3  1A                 [25] (34)
0031D4  02                 [26] (34)
0031D5  00                 [27] (34)
0031D6  00                 [28] (34)
0031D7  1B                 [29] (34)
0031D8  02                 [30] (34)
0031D9  00                 [31] (35)
0031DA  00                 [32] (35)
0031DB  1D                 [33] (35)
0031DC  02                 [34] (35)
0031DD  00                 [35] (35)
0031DE  00                 [36] (35)
0031DF  1D                 [37] (35)
0031E0  02                 [38] (35)
0031E1  00                 [39] (35)
0031E2  00                 [40] (35)
0031E3  1D                 [41] (36)
0031E4  02                 [42] (36)
0031E5  00                 [43] (36)
0031E6  00                 [44] (36)
0031E7  1D                 [45] (36)
0031E8  02                 [46] (36)
0031E9  00                 [47] (36)
0031EA  00                 [48] (36)
0031EB  1D                 [49] (36)
0031EC  02                 [50] (36)
0031ED  00                 [51] (37)
0031EE  00                 [52] (37)
0031EF  1E                 [53] (37)
0031F0  02                 [54] (37)
0031F1  00                 [55] (37)
0031F2  00                 [56] (37)
0031F3  1E                 [57] (38)
                           * locals:
00329F  00                 sizelocvars (0)
                           * upvalues:
0032A0  00                 sizeupvalues (0)
                           ** end of function **

                           
0032A1                     ** function [18] definition (level 2)
                           ** start of function **
0032A1  00                 string size (0)
                           source name: (none)
0032A3  04                 line defined (552)
0032A4  AF                 last line defined (559)
0032A5  04                 nups (0)
0032A6  00                 numparams (1)
0032A7  01                 is_vararg (0)
0032A8  00                 maxstacksize (16)
                           * code:
0032AA  14                 sizecode (20)
0032AB  5D000000           [01] getglobal  1   0        ; gRegion
0032AF  6440C000           [02] self       1   1   257  ; -2071158816
0032B3  62800001           [03] call       1   2   2  
0032B7  9D800000           [04] getglobal  2   2        ; gGameRules
0032BB  DDC00000           [05] getglobal  3   3        ; 1672515847
0032BF  12018000           [06] move       4   1      
0032C3  E2000101           [07] call       3   2   4  
0032C7  1A000280           [08] jmp        9            ; to [18]
0032CB  24024101           [09] self       8   2   260  ; 908734006
0032CF  A442C103           [10] self       10  7   261  ; -564624675
0032D3  A2820001           [11] call       10  2   2  
0032D7  D2020000           [12] move       11  0      
0032DB  19830100           [13] loadk      12  6        ; ""
0032DF  59C30100           [14] loadk      13  7        ; 0
0032E3  99030200           [15] loadk      14  8        ; 0
0032E7  D7038000           [16] loadbool   15  1   0    ; true
0032EB  22420004           [17] call       8   8   1  
0032EF  D6800000           [18] tforloop   3       2    ; to [20] if exit
0032F3  1A00FD7F           [19] jmp        -11          ; to [9]
0032F7  1E008000           [20] return     0   1      
                           * constants:
0032FB  09                 sizek (9)
0032FC  04                 const type 4
0032FD  08                 string size (8)
0032FE  67526567696F6E00   "gRegion\0"
                           const [0]: "gRegion"
003306  01                 const type 3
003307  E09F8C84           const [1]: (-2071158816)
00330B  04                 const type 4
00330C  0B                 string size (11)
00330D  6747616D6552756C+  "gGameRul"
003315  657300             "es\0"
                           const [2]: "gGameRules"
003318  01                 const type 3
003319  0791B063           const [3]: (1672515847)
00331D  01                 const type 3
00331E  362E2A36           const [4]: (908734006)
003322  01                 const type 3
003323  DD8258DE           const [5]: (-564624675)
003327  04                 const type 4
003328  01                 string size (0)
                           const [6]: ""
00332A  03                 const type 3
00332B  00000000           const [7]: (0)
00332F  03                 const type 3
003330  00000040           const [8]: (0)
                           * functions:
003334  00                 sizep (0)
                           * lines:
003335  14                 sizelineinfo (20)
                           [pc] (line)
003336  29                 [01] (41)
003337  02                 [02] (41)
003338  00                 [03] (41)
003339  00                 [04] (42)
00333A  29                 [05] (43)
00333B  02                 [06] (43)
00333C  00                 [07] (43)
00333D  00                 [08] (43)
00333E  29                 [09] (45)
00333F  02                 [10] (45)
003340  00                 [11] (45)
003341  00                 [12] (45)
003342  2A                 [13] (45)
003343  02                 [14] (45)
003344  00                 [15] (45)
003345  00                 [16] (45)
003346  2B                 [17] (45)
003347  02                 [18] (43)
003348  00                 [19] (45)
003349  00                 [20] (47)
                           * locals:
003386  00                 sizelocvars (0)
                           * upvalues:
003387  00                 sizeupvalues (0)
                           ** end of function **

                           
003388                     ** function [19] definition (level 2)
                           ** start of function **
003388  00                 string size (0)
                           source name: (none)
00338A  04                 line defined (561)
00338B  CF                 last line defined (591)
00338C  04                 nups (2)
00338D  02                 numparams (1)
00338E  01                 is_vararg (0)
00338F  00                 maxstacksize (25)
                           * code:
003391  4D                 sizecode (77)
003392  53000000           [01] getupval   1   0      
003396  4E00C000           [02] gettable   1   1   256  ; 28862632
00339A  62808000           [03] call       1   1   2  
00339E  8B000000           [04] newtable   2   0   0    ; array=0, hash=0
0033A2  DD400000           [05] getglobal  3   1        ; FLT_MAX
0033A6  19810000           [06] loadk      4   2        ; 0
0033AA  4A010000           [07] len        5   0      
0033AE  99810000           [08] loadk      6   2        ; 0
0033B2  10810A80           [09] forprep    4   43       ; to [53]
0033B6  06020004           [10] loadnil    8   8      
0033BA  4A020000           [11] len        9   0      
0033BE  99820000           [12] loadk      10  2        ; 0
0033C2  D9C20000           [13] loadk      11  3        ; 0
0033C6  50420580           [14] forprep    9   22       ; to [37]
0033CA  5D030100           [15] getglobal  13  4        ; 1074689893
0033CE  8E030300           [16] gettable   14  0   12 
0033D2  8E434107           [17] gettable   14  14  261  ; "extractState"
0033D6  62830001           [18] call       13  2   2  
0033DA  58430000           [19] test       13      1    ; to [21] if false
0033DE  1A800280           [20] jmp        11           ; to [32]
0033E2  53038000           [21] getupval   13  1      
0033E6  8E030300           [22] gettable   14  0   12 
0033EA  8E434107           [23] gettable   14  14  261  ; "extractState"
0033EE  A4834107           [24] self       14  14  262  ; -358079410
0033F2  A2830001           [25] call       14  2   2  
0033F6  4D838306           [26] sub        13  13  14 
fail op	21
0033FA  15C08006           [27] concat     0   13  3  
0033FE  1AC00180           [28] jmp        8            ; to [37]
003402  D2008006           [29] move       3   13     
003406  12020006           [30] move       8   12     
00340A  1A000180           [31] jmp        5            ; to [37]
00340E  9DC30100           [32] getglobal  14  7        ; table
003412  8E034207           [33] gettable   14  14  264  ; -843973282
003416  D2030000           [34] move       15  0      
00341A  12040006           [35] move       16  12     
00341E  A2438001           [36] call       14  3   1  
003422  5402FA7F           [37] forloop    9   -23      ; to [15] if loop
003426  9D030100           [38] getglobal  14  4        ; 1074689893
00342A  D2030004           [39] move       15  8      
00342E  A2830001           [40] call       14  2   2  
003432  98430000           [41] test       14      1    ; to [43] if false
003436  1A400280           [42] jmp        10           ; to [53]
00343A  9DC30100           [43] getglobal  14  7        ; table
00343E  8E434207           [44] gettable   14  14  265  ; -431682403
003442  D2030001           [45] move       15  2      
003446  0E040200           [46] gettable   16  0   8  
00344A  A2438001           [47] call       14  3   1  
00344E  9DC30100           [48] getglobal  14  7        ; table
003452  8E034207           [49] gettable   14  14  264  ; -843973282
003456  D2030000           [50] move       15  0      
00345A  12040004           [51] move       16  8      
00345E  A2438001           [52] call       14  3   1  
003462  14C1F47F           [53] forloop    4   -44      ; to [10] if loop
003466  9D830200           [54] getglobal  14  10       ; 1672515847
00346A  D2030001           [55] move       15  2      
00346E  A2030101           [56] call       14  2   4  
003472  1A000480           [57] jmp        17           ; to [75]
003476  C384C008           [58] add        19  17  258  ; 0
00347A  C4C48408           [59] mul        19  17  19 
00347E  DCC4C209           [60] div        19  19  267  ; 0
003482  0305C300           [61] add        20  1   268  ; 0
003486  03C5040A           [62] add        20  20  19 
00348A  4345C300           [63] add        21  1   269  ; 0
00348E  43C5840A           [64] add        21  21  19 
003492  8E854309           [65] gettable   22  18  270  ; "healthTracker"
003496  8EC5430B           [66] gettable   22  22  271  ; 1812102435
00349A  D205000A           [67] move       23  20     
00349E  17060000           [68] loadbool   24  0   0    ; false
0034A2  A2458001           [69] call       22  3   1  
0034A6  8E054409           [70] gettable   22  18  272  ; "statusTracker"
0034AA  8EC5430B           [71] gettable   22  22  271  ; 1812102435
0034AE  D205800A           [72] move       23  21     
0034B2  17060000           [73] loadbool   24  0   0    ; false
0034B6  A2458001           [74] call       22  3   1  
0034BA  96830000           [75] tforloop   14      2    ; to [77] if exit
0034BE  1A00FB7F           [76] jmp        -19          ; to [58]
0034C2  1E008000           [77] return     0   1      
                           * constants:
0034C6  11                 sizek (17)
0034C7  01                 const type 3
0034C8  A868B801           const [0]: (28862632)
0034CC  04                 const type 4
0034CD  08                 string size (8)
0034CE  464C545F4D415800   "FLT_MAX\0"
                           const [1]: "FLT_MAX"
0034D6  03                 const type 3
0034D7  0000803F           const [2]: (0)
0034DB  03                 const type 3
0034DC  000080BF           const [3]: (0)
0034E0  01                 const type 3
0034E1  65770E40           const [4]: (1074689893)
0034E5  04                 const type 4
0034E6  0D                 string size (13)
0034E7  6578747261637453+  "extractS"
0034EF  7461746500         "tate\0"
                           const [5]: "extractState"
0034F4  01                 const type 3
0034F5  4E24A8EA           const [6]: (-358079410)
0034F9  04                 const type 4
0034FA  06                 string size (6)
0034FB  7461626C6500       "table\0"
                           const [7]: "table"
003501  01                 const type 3
003502  5EFDB1CD           const [8]: (-843973282)
003506  01                 const type 3
003507  9D0C45E6           const [9]: (-431682403)
00350B  01                 const type 3
00350C  0791B063           const [10]: (1672515847)
003510  03                 const type 3
003511  00000040           const [11]: (0)
003515  03                 const type 3
003516  00002041           const [12]: (0)
00351A  03                 const type 3
00351B  00003041           const [13]: (0)
00351F  04                 const type 4
003520  0E                 string size (14)
003521  6865616C74685472+  "healthTr"
003529  61636B657200       "acker\0"
                           const [14]: "healthTracker"
00352F  01                 const type 3
003530  237D026C           const [15]: (1812102435)
003534  04                 const type 4
003535  0E                 string size (14)
003536  7374617475735472+  "statusTr"
00353E  61636B657200       "acker\0"
                           const [16]: "statusTracker"
                           * functions:
003544  00                 sizep (0)
                           * lines:
003545  4D                 sizelineinfo (77)
                           [pc] (line)
003546  32                 [01] (50)
003547  02                 [02] (50)
003548  00                 [03] (50)
003549  00                 [04] (51)
00354A  32                 [05] (52)
00354B  02                 [06] (53)
00354C  00                 [07] (53)
00354D  00                 [08] (53)
00354E  32                 [09] (53)
00354F  02                 [10] (54)
003550  00                 [11] (55)
003551  00                 [12] (55)
003552  33                 [13] (55)
003553  02                 [14] (55)
003554  00                 [15] (56)
003555  00                 [16] (56)
003556  34                 [17] (56)
003557  02                 [18] (56)
003558  00                 [19] (56)
003559  00                 [20] (56)
00355A  35                 [21] (57)
00355B  02                 [22] (57)
00355C  00                 [23] (57)
00355D  00                 [24] (57)
00355E  35                 [25] (57)
00355F  02                 [26] (57)
003560  00                 [27] (58)
003561  00                 [28] (58)
003562  35                 [29] (59)
003563  02                 [30] (60)
003564  00                 [31] (61)
003565  00                 [32] (63)
003566  35                 [33] (63)
003567  02                 [34] (63)
003568  00                 [35] (63)
003569  00                 [36] (63)
00356A  36                 [37] (55)
00356B  02                 [38] (66)
00356C  00                 [39] (66)
00356D  00                 [40] (66)
00356E  37                 [41] (66)
00356F  02                 [42] (66)
003570  00                 [43] (67)
003571  00                 [44] (67)
003572  37                 [45] (67)
003573  02                 [46] (67)
003574  00                 [47] (67)
003575  00                 [48] (68)
003576  37                 [49] (68)
003577  02                 [50] (68)
003578  00                 [51] (68)
003579  00                 [52] (68)
00357A  37                 [53] (53)
00357B  02                 [54] (72)
00357C  00                 [55] (72)
00357D  00                 [56] (72)
00357E  38                 [57] (72)
00357F  02                 [58] (73)
003580  00                 [59] (73)
003581  00                 [60] (73)
003582  38                 [61] (74)
003583  02                 [62] (74)
003584  00                 [63] (75)
003585  00                 [64] (75)
003586  38                 [65] (76)
003587  02                 [66] (76)
003588  00                 [67] (76)
003589  00                 [68] (76)
00358A  38                 [69] (76)
00358B  02                 [70] (77)
00358C  00                 [71] (77)
00358D  00                 [72] (77)
00358E  38                 [73] (77)
00358F  02                 [74] (77)
003590  00                 [75] (72)
003591  00                 [76] (77)
003592  38                 [77] (79)
                           * locals:
00367A  00                 sizelocvars (0)
                           * upvalues:
00367B  00                 sizeupvalues (0)
                           ** end of function **

                           
00367C                     ** function [20] definition (level 2)
                           ** start of function **
00367C  00                 string size (0)
                           source name: (none)
00367E  04                 line defined (593)
00367F  8E                 last line defined (782)
003680  06                 nups (17)
003681  11                 numparams (0)
003682  00                 is_vararg (0)
003683  00                 maxstacksize (71)
                           * code:
003686  03                 sizecode (500)
003687  1D000000           [001] getglobal  0   0        ; gGameRules
00368B  5D400000           [002] getglobal  1   1        ; 1074689893
00368F  92000000           [003] move       2   0      
003693  62800001           [004] call       1   2   2  
003697  58000000           [005] test       1       0    ; to [7] if true
00369B  1A000180           [006] jmp        5            ; to [12]
00369F  1D000000           [007] getglobal  0   0        ; gGameRules
0036A3  5D800000           [008] getglobal  1   2        ; 538022378
0036A7  99C00000           [009] loadk      2   3        ; -51
0036AB  62400001           [010] call       1   2   1  
0036AF  1A40FD7F           [011] jmp        -10          ; to [2]
0036B3  64004100           [012] self       1   0   260  ; -2029400442
0036B7  62800001           [013] call       1   2   2  
0036BB  9D400000           [014] getglobal  2   1        ; 1074689893
0036BF  D2008000           [015] move       3   1      
0036C3  A2800001           [016] call       2   2   2  
0036C7  98000000           [017] test       2       0    ; to [19] if true
0036CB  1A800180           [018] jmp        7            ; to [26]
0036CF  A4004100           [019] self       2   0   260  ; -2029400442
0036D3  A2800001           [020] call       2   2   2  
0036D7  52000001           [021] move       1   2      
0036DB  9D800000           [022] getglobal  2   2        ; 538022378
0036DF  D9C00000           [023] loadk      3   3        ; -51
0036E3  A2400001           [024] call       2   2   1  
0036E7  1AC0FC7F           [025] jmp        -12          ; to [14]
0036EB  99400100           [026] loadk      2   5        ; "A01B1B"
0036EF  D9800100           [027] loadk      3   6        ; "</font><font color=\"#22EEFF\"><b>"
0036F3  19C10100           [028] loadk      4   7        ; "</b></font><font color=\"#FFFFFF\"><b>"
0036F7  59010200           [029] loadk      5   8        ; "</font><font color=\"#"
0036FB  92010001           [030] move       6   2      
0036FF  D9410200           [031] loadk      7   9        ; "\"><b>"
003703  42C18102           [032] concat     5   5   7  
003707  A481C200           [033] self       6   1   266  ; 98241492
00370B  19C20200           [034] loadk      8   11       ; "<SURVIVAL_PILLAR_MARKER>"
00370F  57028000           [035] loadbool   9   1   0    ; true
003713  A2810002           [036] call       6   4   2  
003717  E481C200           [037] self       7   1   266  ; 98241492
00371B  59020300           [038] loadk      9   12       ; "<SURVIVAL_PILLAR_OUTLINE_MARKER>"
00371F  97028000           [039] loadbool   10  1   0    ; true
003723  E2810002           [040] call       7   4   2  
003727  13020000           [041] getupval   8   0      
00372B  22828000           [042] call       8   1   2  
00372F  59420300           [043] loadk      9   13       ; "<font color=\"#"
003733  9D820300           [044] getglobal  10  14       ; string
003737  8EC24305           [045] gettable   10  10  271  ; 1260343128
00373B  D9020400           [046] loadk      11  16       ; "%X"
00373F  1D430400           [047] getglobal  12  17       ; _G
003743  0E834406           [048] gettable   12  12  274  ; "UIColor_Health"
003747  A2828001           [049] call       10  3   2  
00374B  D9420200           [050] loadk      11  9        ; "\"><b>"
00374F  42C28204           [051] concat     9   9   11 
003753  99420300           [052] loadk      10  13       ; "<font color=\"#"
003757  D2020001           [053] move       11  2      
00375B  19C30400           [054] loadk      12  19       ; "\">"
00375F  52030003           [055] move       13  6      
003763  99030500           [056] loadk      14  20       ; "</font>"
003767  82820305           [057] concat     10  10  14 
00376B  D3028000           [058] getupval   11  1      
00376F  CE42C505           [059] gettable   11  11  277  ; 181713444
003773  1D430400           [060] getglobal  12  17       ; _G
003777  0E834506           [061] gettable   12  12  278  ; "UIColor_Red"
00377B  E2820001           [062] call       11  2   2  
00377F  1DC30500           [063] getglobal  12  23       ; -1247440829
003783  4E03C605           [064] gettable   13  11  280  ; "r"
003787  8E43C605           [065] gettable   14  11  281  ; "g"
00378B  CE83C605           [066] gettable   15  11  282  ; "b"
00378F  22830002           [067] call       12  4   2  
003793  5DC30500           [068] getglobal  13  23       ; -1247440829
003797  99C30600           [069] loadk      14  27       ; 0
00379B  D9030700           [070] loadk      15  28       ; 0
00379F  19440700           [071] loadk      16  29       ; 0
0037A3  62830002           [072] call       13  4   2  
0037A7  99830700           [073] loadk      14  30       ; 0
0037AB  D9C30700           [074] loadk      15  31       ; ""
0037AF  13040001           [075] getupval   16  2      
0037B3  0E044808           [076] gettable   16  16  288  ; 198248041
0037B7  22848000           [077] call       16  1   2  
0037BB  57040000           [078] loadbool   17  0   0    ; false
0037BF  A5040000           [079] closure    18  0      
0037C3  13008000           [080] getupval   0   1      
0037C7  C6048009           [081] loadnil    19  19     
0037CB  0B058001           [082] newtable   20  3   0    ; array=3, hash=0
0037CF  4605800B           [083] loadnil    21  23     
0037D3  1B458001           [084] setlist    20  3   1    ; index 1 to 3
0037D7  4B058001           [085] newtable   21  3   0    ; array=3, hash=0
0037DB  8605000C           [086] loadnil    22  24     
0037DF  5B458001           [087] setlist    21  3   1    ; index 1 to 3
0037E3  97050000           [088] loadbool   22  0   0    ; false
0037E7  D9450800           [089] loadk      23  33       ; 0
0037EB  24864800           [090] self       24  0   290  ; -317790213
0037EF  93068001           [091] getupval   26  3      
0037F3  22868001           [092] call       24  3   2  
0037F7  5D460000           [093] getglobal  25  1        ; 1074689893
0037FB  92068000           [094] move       26  1      
0037FF  62860001           [095] call       25  2   2  
003803  58460000           [096] test       25      1    ; to [98] if false
003807  1A405B80           [097] jmp        366          ; to [464]
00380B  5D460000           [098] getglobal  25  1        ; 1074689893
00380F  92060000           [099] move       26  0      
003813  62860001           [100] call       25  2   2  
003817  58460000           [101] test       25      1    ; to [103] if false
00381B  1A005A80           [102] jmp        361          ; to [464]
00381F  64864800           [103] self       25  0   290  ; -317790213
003823  D3060002           [104] getupval   27  4      
003827  62868001           [105] call       25  3   2  
fail op	35
00382B  63C0C80C           [106] close      1  
00382F  1AC05880           [107] jmp        356          ; to [464]
003833  59060900           [108] loadk      25  36       ; "<p><font color=\"#FFFFFF\">"
003837  A4864800           [109] self       26  0   290  ; -317790213
00383B  13078002           [110] getupval   28  5      
00383F  A2868001           [111] call       26  3   2  
003843  E4864800           [112] self       27  0   290  ; -317790213
003847  53070003           [113] getupval   29  6      
00384B  E2868001           [114] call       27  3   2  
00384F  24874800           [115] self       28  0   290  ; -317790213
003853  93078003           [116] getupval   30  7      
003857  22878001           [117] call       28  3   2  
00385B  64874800           [118] self       29  0   290  ; -317790213
00385F  D3070004           [119] getupval   31  8      
003863  62878001           [120] call       29  3   2  
003867  0DC7060E           [121] sub        28  28  27 
fail op	35
00386B  2340490D           [122] close      0  
00386F  1A000180           [123] jmp        5            ; to [129]
003873  9207800C           [124] move       30  25     
003877  D2078001           [125] move       31  3      
00387B  12088003           [126] move       32  7      
00387F  52080002           [127] move       33  4      
003883  4246080F           [128] concat     25  30  33 
003887  99470900           [129] loadk      30  37       ; 0
00388B  D207000E           [130] move       31  28     
00388F  19480900           [131] loadk      32  37       ; 0
003893  90870080           [132] forprep    30  3        ; to [136]
003897  9208800C           [133] move       34  25     
00389B  D2080003           [134] move       35  6      
00389F  42C60811           [135] concat     25  34  35 
0038A3  94C7FE7F           [136] forloop    30  -4       ; to [133] if loop
0038A7  99480900           [137] loadk      34  37       ; 0
0038AB  D208800E           [138] move       35  29     
0038AF  19490900           [139] loadk      36  37       ; 0
0038B3  90080180           [140] forprep    34  5        ; to [146]
0038B7  9209800C           [141] move       38  25     
0038BB  D2098002           [142] move       39  5      
0038BF  120A0003           [143] move       40  6      
0038C3  520A0002           [144] move       41  4      
0038C7  42460A13           [145] concat     25  38  41 
0038CB  9448FE7F           [146] forloop    34  -6       ; to [141] if loop
0038CF  99490900           [147] loadk      38  37       ; 0
0038D3  D209800D           [148] move       39  27     
0038D7  194A0900           [149] loadk      40  37       ; 0
0038DB  90090180           [150] forprep    38  5        ; to [156]
0038DF  920A800C           [151] move       42  25     
0038E3  D20A0009           [152] move       43  18     
0038E7  120B8003           [153] move       44  7      
0038EB  E28A0001           [154] call       43  2   2  
0038EF  42C60A15           [155] concat     25  42  43 
0038F3  9449FE7F           [156] forloop    38  -6       ; to [151] if loop
0038F7  920A800C           [157] move       42  25     
0038FB  D98A0900           [158] loadk      43  38       ; "</b></font></p>"
0038FF  42C60A15           [159] concat     25  42  43 
003903  9D4A0000           [160] getglobal  42  1        ; 1074689893
003907  D20A8009           [161] move       43  19     
00390B  A28A0001           [162] call       42  2   2  
00390F  980A0000           [163] test       42      0    ; to [165] if true
003913  1A000580           [164] jmp        21           ; to [186]
003917  930A8004           [165] getupval   42  9      
00391B  8ECA4915           [166] gettable   42  42  295  ; 28862632
00391F  A28A8000           [167] call       42  1   2  
003923  830A4A15           [168] add        42  42  296  ; 0
003927  DD4A0A00           [169] getglobal  43  41       ; _T
00392B  CE8ACA15           [170] gettable   43  43  298  ; 972116663
00392F  19CB0A00           [171] loadk      44  43       ; "SurvivalLSLabel"
003933  530B0005           [172] getupval   45  10     
003937  4E0BCB16           [173] gettable   45  45  300  ; "HT_LABEL"
00393B  994B0B00           [174] loadk      46  45       ; -102
00393F  D20B0015           [175] move       47  42     
003943  170C0000           [176] loadbool   48  0   0    ; false
003947  E28A0003           [177] call       43  6   2  
00394B  D2048015           [178] move       19  43     
00394F  D30A8004           [179] getupval   43  9      
003953  CE8ACB15           [180] gettable   43  43  302  ; -95499506
003957  E2CA8000           [181] call       43  1   3  
00395B  4ECBCB09           [182] gettable   45  19  303  ; -632628974
00395F  830BCC15           [183] add        46  43  304  ; 0
003963  D94B0C00           [184] loadk      47  49       ; 0
003967  624B8001           [185] call       45  3   1  
00396B  4E8BCC09           [186] gettable   45  19  306  ; 934616952
00396F  920B800C           [187] move       46  25     
003973  624B0001           [188] call       45  2   1  
003977  648B4800           [189] self       45  0   290  ; -317790213
00397B  D30B8001           [190] getupval   47  3      
00397F  628B8001           [191] call       45  3   2  
fail op	21
003983  15400B0C           [192] concat     0   24  45 
003987  1A800080           [193] jmp        3            ; to [197]
fail op	35
00398B  2340C80B           [194] close      0  
00398F  1A000080           [195] jmp        1            ; to [197]
003993  D2050007           [196] move       23  14     
003997  12068016           [197] move       24  45     
00399B  9DCB0C00           [198] getglobal  46  51       ; gRegion
00399F  A40B4D17           [199] self       46  46  308  ; -1520831144
0039A3  A28B0001           [200] call       46  2   2  
0039A7  980B0000           [201] test       46      0    ; to [203] if true
0039AB  1AC00B80           [202] jmp        48           ; to [251]
0039AF  A48B4800           [203] self       46  0   290  ; -317790213
0039B3  130C8001           [204] getupval   48  3      
0039B7  A28B8001           [205] call       46  3   2  
0039BB  D30B8005           [206] getupval   47  11     
0039BF  DCCB0B17           [207] div        47  46  47 
fail op	33
0039C3  2140CD17           [208] tforloop   0       309  ; to [210] if exit
0039C7  1AC00180           [209] jmp        8            ; to [218]
0039CB  D30B8004           [210] getupval   47  9      
0039CF  CE8BCD17           [211] gettable   47  47  310  ; 929933590
0039D3  130C0006           [212] getupval   48  12     
0039D7  520C0006           [213] move       49  12     
0039DB  220C0001           [214] call       48  2   0  
0039DF  E24B0000           [215] call       47  0   1  
0039E3  97058000           [216] loadbool   22  1   0    ; true
0039E7  1A000880           [217] jmp        33           ; to [251]
fail op	21
0039EB  15C0859B           [218] concat     0   311 23 
0039EF  1A400480           [219] jmp        18           ; to [238]
0039F3  DC8B830B           [220] div        47  23  14 
0039F7  130C8004           [221] getupval   48  9      
0039FB  0E8C4D18           [222] gettable   48  48  310  ; 929933590
0039FF  530C0006           [223] getupval   49  12     
003A03  920C8006           [224] move       50  13     
003A07  D20C8017           [225] move       51  47     
003A0B  120D0007           [226] move       52  14     
003A0F  620C0002           [227] call       49  4   0  
003A13  224C0000           [228] call       48  0   1  
003A17  1D0C0E00           [229] getglobal  48  56       ; math
003A1B  0E4C4E18           [230] gettable   48  48  313  ; -1962864584
003A1F  5D8C0E00           [231] getglobal  49  58       ; 1289681407
003A23  628C8000           [232] call       49  1   2  
003A27  4D4C8C0B           [233] sub        49  23  49 
003A2B  99CC0D00           [234] loadk      50  55       ; 0
003A2F  228C8001           [235] call       48  3   2  
003A33  D2050018           [236] move       23  48     
003A37  1A000380           [237] jmp        13           ; to [251]
003A3B  98450000           [238] test       22      1    ; to [240] if false
003A3F  1A400080           [239] jmp        2            ; to [242]
fail op	35
003A43  23C0CD0B           [240] close      0  
003A47  1A000280           [241] jmp        9            ; to [251]
003A4B  130C8004           [242] getupval   48  9      
003A4F  0E8C4D18           [243] gettable   48  48  310  ; 929933590
003A53  5DCC0500           [244] getglobal  49  23       ; -1247440829
003A57  99CC0E00           [245] loadk      50  59       ; 0
003A5B  D9CC0E00           [246] loadk      51  59       ; 0
003A5F  19CD0E00           [247] loadk      52  59       ; 0
003A63  620C0002           [248] call       49  4   0  
003A67  224C0000           [249] call       48  0   1  
003A6B  D9450800           [250] loadk      23  33       ; 0
003A6F  18020000           [251] test       8       0    ; to [253] if true
003A73  1A402D80           [252] jmp        182          ; to [435]
003A77  1DCC0C00           [253] getglobal  48  51       ; gRegion
003A7B  240C4D18           [254] self       48  48  308  ; -1520831144
003A7F  228C0001           [255] call       48  2   2  
003A83  180C0000           [256] test       48      0    ; to [258] if true
003A87  1A002C80           [257] jmp        177          ; to [435]
003A8B  1D4C0000           [258] getglobal  48  1        ; 1074689893
003A8F  5D4C0A00           [259] getglobal  49  41       ; _T
003A93  4E0CCF18           [260] gettable   49  49  316  ; "kuvaExtractorList"
003A97  228C0001           [261] call       48  2   2  
003A9B  184C0000           [262] test       48      1    ; to [264] if false
003A9F  1A802A80           [263] jmp        171          ; to [435]
003AA3  170C0000           [264] loadbool   48  0   0    ; false
003AA7  4B0C0000           [265] newtable   49  0   0    ; array=0, hash=0
003AAB  994C0900           [266] loadk      50  37       ; 0
003AAF  D30C8006           [267] getupval   51  13     
003AB3  194D0900           [268] loadk      52  37       ; 0
003AB7  908C2780           [269] forprep    50  159      ; to [429]
003ABB  994D0F00           [270] loadk      54  61       ; "KuvaHealthTracker"
003ABF  D20D801A           [271] move       55  53     
003AC3  82CD0D1B           [272] concat     54  54  55 
003AC7  D98D0F00           [273] loadk      55  62       ; "SurvivalKuvaStatus"
003ACB  120E801A           [274] move       56  53     
003ACF  C20D8E1B           [275] concat     55  55  56 
003AD3  1D4E0A00           [276] getglobal  56  41       ; _T
003AD7  0E0E4F1C           [277] gettable   56  56  316  ; "kuvaExtractorList"
003ADB  0E4E0D1C           [278] gettable   56  56  53 
003ADF  460E801C           [279] loadnil    57  57     
fail op	35
003AE3  63C04D1C           [280] close      1  
003AE7  1A800080           [281] jmp        3            ; to [285]
003AEB  A4CE4F1C           [282] self       58  56  319  ; -2135866365
003AEF  A28E0001           [283] call       58  2   2  
003AF3  520E001D           [284] move       57  58     
003AF7  9D4E0000           [285] getglobal  58  1        ; 1074689893
003AFB  D20E801C           [286] move       59  57     
003AFF  A28E0001           [287] call       58  2   2  
003B03  984E0000           [288] test       58      1    ; to [290] if false
003B07  1A401C80           [289] jmp        114          ; to [404]
003B0B  9D4E0000           [290] getglobal  58  1        ; 1074689893
003B0F  DD4E0A00           [291] getglobal  59  41       ; _T
003B13  CE0ED01D           [292] gettable   59  59  320  ; 1515565072
003B17  120F001B           [293] move       60  54     
003B1B  E20E0001           [294] call       59  2   0  
003B1F  A28E0000           [295] call       58  0   2  
003B23  980E0000           [296] test       58      0    ; to [298] if true
003B27  1A000A80           [297] jmp        41           ; to [339]
003B2B  930E8004           [298] getupval   58  9      
003B2F  8E8E4B1D           [299] gettable   58  58  302  ; -95499506
003B33  A2CE8000           [300] call       58  1   3  
003B37  130F8000           [301] getupval   60  1      
003B3B  0E4F501E           [302] gettable   60  60  321  ; -132701534
fail op	35
003B3F  6340C91A           [303] close      1  
003B43  1A000080           [304] jmp        1            ; to [306]
003B47  574F0000           [305] loadbool   61  0   1    ; false, to [307]
003B4B  570F8000           [306] loadbool   61  1   0    ; true
003B4F  838FD01D           [307] add        62  59  322  ; 0
003B53  C30FCA1D           [308] add        63  59  296  ; 0
003B57  228F0002           [309] call       60  4   2  
003B5B  D20E001E           [310] move       59  60     
003B5F  1D4F0A00           [311] getglobal  60  41       ; _T
003B63  0E8F4A1E           [312] gettable   60  60  298  ; 972116663
003B67  520F001B           [313] move       61  54     
003B6B  930F0005           [314] getupval   62  10     
003B6F  8ECF501F           [315] gettable   62  62  323  ; "HT_HEALTH_TRACKER"
003B73  D94F0B00           [316] loadk      63  45       ; -102
003B77  19901000           [317] loadk      64  66       ; 0
003B7B  57108000           [318] loadbool   65  1   0    ; true
003B7F  228F0003           [319] call       60  6   2  
003B83  4C058F1A           [320] settable   21  53  60 
003B87  0E4F8D0A           [321] gettable   60  21  53 
003B8B  0ECF4B1E           [322] gettable   60  60  303  ; -632628974
003B8F  590F1100           [323] loadk      61  68       ; 0
003B93  920F801D           [324] move       62  59     
003B97  224F8001           [325] call       60  3   1  
003B9B  0E4F8D0A           [326] gettable   60  21  53 
003B9F  0E4F511E           [327] gettable   60  60  325  ; 171649145
003BA3  520F801C           [328] move       61  57     
003BA7  224F0001           [329] call       60  2   1  
003BAB  0E4F8D0A           [330] gettable   60  21  53 
003BAF  0E8F511E           [331] gettable   60  60  326  ; -1532099522
003BB3  59CF1100           [332] loadk      61  71       ; 0
003BB7  224F0001           [333] call       60  2   1  
003BBB  0E4F8D0A           [334] gettable   60  21  53 
003BBF  0E0F521E           [335] gettable   60  60  328  ; -290006412
003BC3  570F8000           [336] loadbool   61  1   0    ; true
003BC7  224F0001           [337] call       60  2   1  
003BCB  170C8000           [338] loadbool   48  1   0    ; true
003BCF  1D4F0000           [339] getglobal  60  1        ; 1074689893
003BD3  5D4F0A00           [340] getglobal  61  41       ; _T
003BD7  4E0FD01E           [341] gettable   61  61  320  ; 1515565072
003BDB  920F801B           [342] move       62  55     
003BDF  620F0001           [343] call       61  2   0  
003BE3  228F0000           [344] call       60  0   2  
003BE7  180F0000           [345] test       60      0    ; to [347] if true
003BEB  1A800680           [346] jmp        27           ; to [374]
003BEF  1D4F0A00           [347] getglobal  60  41       ; _T
003BF3  0E8F4A1E           [348] gettable   60  60  298  ; 972116663
003BF7  520F801B           [349] move       61  55     
003BFB  930F0005           [350] getupval   62  10     
003BFF  8E0F4B1F           [351] gettable   62  62  300  ; "HT_LABEL"
003C03  D94F0B00           [352] loadk      63  45       ; -102
003C07  19901000           [353] loadk      64  66       ; 0
003C0B  57108000           [354] loadbool   65  1   0    ; true
003C0F  228F0003           [355] call       60  6   2  
003C13  0C058F1A           [356] settable   20  53  60 
003C17  0E4F0D0A           [357] gettable   60  20  53 
003C1B  0ECF4B1E           [358] gettable   60  60  303  ; -632628974
003C1F  59CF0D00           [359] loadk      61  55       ; 0
003C23  994F0C00           [360] loadk      62  49       ; 0
003C27  224F8001           [361] call       60  3   1  
fail op	35
003C2B  63C0C707           [362] close      1  
003C2F  1A400080           [363] jmp        2            ; to [366]
fail op	35
003C33  2340D207           [364] close      0  
003C37  1A800180           [365] jmp        7            ; to [373]
003C3B  0E4F0D0A           [366] gettable   60  20  53 
003C3F  0E8F521E           [367] gettable   60  60  330  ; -421772368
003C43  594F1200           [368] loadk      61  73       ; "/Lotus/Language/Game/ExcavationTime"
003C47  860F001F           [369] loadnil    62  62     
003C4B  D70F0000           [370] loadbool   63  0   0    ; false
003C4F  228F0002           [371] call       60  4   2  
003C53  D203001E           [372] move       15  60     
003C57  170C8000           [373] loadbool   48  1   0    ; true
003C5B  1D4F0000           [374] getglobal  60  1        ; 1074689893
003C5F  4E4F0D0A           [375] gettable   61  20  53 
003C63  228F0001           [376] call       60  2   2  
003C67  184F0000           [377] test       60      1    ; to [379] if false
003C6B  1A400980           [378] jmp        38           ; to [417]
003C6F  0E4F0D0A           [379] gettable   60  20  53 
003C73  0ECF521E           [380] gettable   60  60  331  ; "Removing"
003C77  184F0000           [381] test       60      1    ; to [383] if false
003C7B  1A400880           [382] jmp        34           ; to [417]
003C7F  130F0007           [383] getupval   60  14     
003C83  5D0F0E00           [384] getglobal  61  56       ; math
003C87  4E0FD31E           [385] gettable   61  61  332  ; -150971781
003C8B  A44F531C           [386] self       62  56  333  ; -358079410
003C8F  A20F0001           [387] call       62  2   0  
003C93  628F0000           [388] call       61  0   2  
003C97  0D4F0F1E           [389] sub        60  60  61 
003C9B  598F1300           [390] loadk      61  78       ; "<p><font color=\"#FFFFFF\"><b>"
003C9F  920F8007           [391] move       62  15     
003CA3  D9CF1300           [392] loadk      63  79       ; "</b> "
003CA7  13100001           [393] getupval   64  2      
003CAB  0E105420           [394] gettable   64  64  336  ; 1622728895
003CAF  5210001E           [395] move       65  60     
003CB3  22900001           [396] call       64  2   2  
003CB7  59900900           [397] loadk      65  38       ; "</b></font></p>"
003CBB  424F901E           [398] concat     61  61  65 
003CBF  8E4F0D0A           [399] gettable   62  20  53 
003CC3  8E8F4C1F           [400] gettable   62  62  306  ; 934616952
003CC7  D20F801E           [401] move       63  61     
003CCB  A24F0001           [402] call       62  2   1  
003CCF  1A000380           [403] jmp        13           ; to [417]
003CD3  9D4F0000           [404] getglobal  62  1        ; 1074689893
003CD7  CE4F8D0A           [405] gettable   63  21  53 
003CDB  A28F0001           [406] call       62  2   2  
003CDF  980F0000           [407] test       62      0    ; to [409] if true
003CE3  1A000180           [408] jmp        5            ; to [414]
003CE7  9D4F0000           [409] getglobal  62  1        ; 1074689893
003CEB  CE4F0D0A           [410] gettable   63  20  53 
003CEF  A28F0001           [411] call       62  2   2  
003CF3  984F0000           [412] test       62      1    ; to [414] if false
003CF7  1A800080           [413] jmp        3            ; to [417]
003CFB  4C45D41A           [414] settable   21  53  337  ; nil
003CFF  0C45D41A           [415] settable   20  53  337  ; nil
003D03  170C8000           [416] loadbool   48  1   0    ; true
003D07  8B8F8000           [417] newtable   62  1   2    ; array=1, hash=2
003D0B  CE4F8D0A           [418] gettable   63  21  53 
003D0F  8CCF0FA9           [419] settable   62  338 63   ; "healthTracker"
003D13  CE4F0D0A           [420] gettable   63  20  53 
003D17  8CCF8FA9           [421] settable   62  339 63   ; "statusTracker"
003D1B  D20F001C           [422] move       63  56     
003D1F  9B4F8000           [423] setlist    62  1   1    ; index 1 to 1
003D23  DD0F1500           [424] getglobal  63  84       ; table
003D27  CE4FD51F           [425] gettable   63  63  341  ; -431682403
003D2B  12108018           [426] move       64  49     
003D2F  5210001F           [427] move       65  62     
003D33  E24F8001           [428] call       63  3   1  
003D37  94CCD77F           [429] forloop    50  -160     ; to [270] if loop
003D3B  180C0000           [430] test       48      0    ; to [432] if true
003D3F  1A800080           [431] jmp        3            ; to [435]
003D43  D30F8007           [432] getupval   63  15     
003D47  12108018           [433] move       64  49     
003D4B  E24F0001           [434] call       63  2   1  
003D4F  D30F0008           [435] getupval   63  16     
fail op	35
003D53  2340D41F           [436] close      0  
003D57  1A400580           [437] jmp        22           ; to [460]
003D5B  D30F8004           [438] getupval   63  9      
003D5F  CE8FD51F           [439] gettable   63  63  342  ; 1479188533
003D63  E28F8000           [440] call       63  1   2  
fail op	21
003D67  15C08F9B           [441] concat     0   311 63 
003D6B  1AC00180           [442] jmp        8            ; to [451]
003D6F  58440000           [443] test       17      1    ; to [445] if false
003D73  1A400180           [444] jmp        6            ; to [451]
003D77  24D05508           [445] self       64  16  343  ; -2145913200
003D7B  9D101600           [446] getglobal  66  88       ; Lotus_Game
003D7F  8E505621           [447] gettable   66  66  345  ; "BaseMarkerInfo_DR_NONE"
003D83  22508001           [448] call       64  3   1  
003D87  57048000           [449] loadbool   17  1   0    ; true
003D8B  1A000280           [450] jmp        9            ; to [460]
fail op	35
003D8F  23C0CD1F           [451] close      0  
003D93  1A800180           [452] jmp        7            ; to [460]
003D97  58040000           [453] test       17      0    ; to [455] if true
003D9B  1A000180           [454] jmp        5            ; to [460]
003D9F  24D05508           [455] self       64  16  343  ; -2145913200
003DA3  9D101600           [456] getglobal  66  88       ; Lotus_Game
003DA7  8E905621           [457] gettable   66  66  346  ; "BaseMarkerInfo_DR_SAME_ZONE"
003DAB  22508001           [458] call       64  3   1  
003DAF  57040000           [459] loadbool   17  0   0    ; false
003DB3  1D900000           [460] getglobal  64  2        ; 538022378
003DB7  59D00D00           [461] loadk      65  55       ; 0
003DBB  22500001           [462] call       64  2   1  
003DBF  1A00A37F           [463] jmp        -371         ; to [93]
003DC3  1D500A00           [464] getglobal  64  41       ; _T
003DC7  0ED05620           [465] gettable   64  64  347  ; "RemoveHudTracker"
003DCB  18100000           [466] test       64      0    ; to [468] if true
003DCF  1AC00780           [467] jmp        32           ; to [500]
003DD3  D8040000           [468] test       19      0    ; to [470] if true
003DD7  1A400780           [469] jmp        30           ; to [500]
003DDB  1D500A00           [470] getglobal  64  41       ; _T
003DDF  0E105720           [471] gettable   64  64  348  ; 327577324
003DE3  52108009           [472] move       65  19     
003DE7  22500001           [473] call       64  2   1  
003DEB  C6048009           [474] loadnil    19  19     
003DEF  13108004           [475] getupval   64  9      
003DF3  0E904D20           [476] gettable   64  64  310  ; 929933590
003DF7  5DD00500           [477] getglobal  65  23       ; -1247440829
003DFB  99501700           [478] loadk      66  93       ; 0
003DFF  D9501700           [479] loadk      67  93       ; 0
003E03  19511700           [480] loadk      68  93       ; 0
003E07  62100002           [481] call       65  4   0  
003E0B  22500000           [482] call       64  0   1  
003E0F  19500900           [483] loadk      64  37       ; 0
003E13  53108006           [484] getupval   65  13     
003E17  99500900           [485] loadk      66  37       ; 0
003E1B  10D00280           [486] forprep    64  12       ; to [499]
003E1F  1D510A00           [487] getglobal  68  41       ; _T
003E23  0E115722           [488] gettable   68  68  348  ; 327577324
003E27  59910F00           [489] loadk      69  62       ; "SurvivalKuvaStatus"
003E2B  92118021           [490] move       70  67     
003E2F  42919122           [491] concat     69  69  70 
003E33  22510001           [492] call       68  2   1  
003E37  1D510A00           [493] getglobal  68  41       ; _T
003E3B  0E115722           [494] gettable   68  68  348  ; 327577324
003E3F  59510F00           [495] loadk      69  61       ; "KuvaHealthTracker"
003E43  92118021           [496] move       70  67     
003E47  42919122           [497] concat     69  69  70 
003E4B  22510001           [498] call       68  2   1  
003E4F  1490FC7F           [499] forloop    64  -13      ; to [487] if loop
003E53  1E008000           [500] return     0   1      
                           * constants:
003E57  5E                 sizek (94)
003E58  04                 const type 4
003E59  0B                 string size (11)
003E5A  6747616D6552756C+  "gGameRul"
003E62  657300             "es\0"
                           const [0]: "gGameRules"
003E65  01                 const type 3
003E66  65770E40           const [1]: (1074689893)
003E6A  01                 const type 3
003E6B  EA911120           const [2]: (538022378)
003E6F  03                 const type 3
003E70  CDCCCC3D           const [3]: (-51)
003E74  01                 const type 3
003E75  86CE0987           const [4]: (-2029400442)
003E79  04                 const type 4
003E7A  07                 string size (7)
003E7B  41303142314200     "A01B1B\0"
                           const [5]: "A01B1B"
003E82  04                 const type 4
003E83  21                 string size (33)
003E84  3C2F666F6E743E3C+  "</font><"
003E8C  666F6E7420636F6C+  "font col"
003E94  6F723D2223323245+  "or=\"#22E"
003E9C  454646223E3C623E+  "EFF\"><b>"
003EA4  00                 "\0"
                           const [6]: "</font><font color=\"#22EEFF\"><b>"
003EA5  04                 const type 4
003EA6  25                 string size (37)
003EA7  3C2F623E3C2F666F+  "</b></fo"
003EAF  6E743E3C666F6E74+  "nt><font"
003EB7  20636F6C6F723D22+  " color=\""
003EBF  2346464646464622+  "#FFFFFF\""
003EC7  3E3C623E00         "><b>\0"
                           const [7]: "</b></font><font color=\"#FFFFFF\"><b>"
003ECC  04                 const type 4
003ECD  16                 string size (22)
003ECE  3C2F666F6E743E3C+  "</font><"
003ED6  666F6E7420636F6C+  "font col"
003EDE  6F723D222300       "or=\"#\0"
                           const [8]: "</font><font color=\"#"
003EE4  04                 const type 4
003EE5  06                 string size (6)
003EE6  223E3C623E00       "\"><b>\0"
                           const [9]: "\"><b>"
003EEC  01                 const type 3
003EED  D40BDB05           const [10]: (98241492)
003EF1  04                 const type 4
003EF2  19                 string size (25)
003EF3  3C53555256495641+  "<SURVIVA"
003EFB  4C5F50494C4C4152+  "L_PILLAR"
003F03  5F4D41524B45523E+  "_MARKER>"
003F0B  00                 "\0"
                           const [11]: "<SURVIVAL_PILLAR_MARKER>"
003F0C  04                 const type 4
003F0D  21                 string size (33)
003F0E  3C53555256495641+  "<SURVIVA"
003F16  4C5F50494C4C4152+  "L_PILLAR"
003F1E  5F4F55544C494E45+  "_OUTLINE"
003F26  5F4D41524B45523E+  "_MARKER>"
003F2E  00                 "\0"
                           const [12]: "<SURVIVAL_PILLAR_OUTLINE_MARKER>"
003F2F  04                 const type 4
003F30  0F                 string size (15)
003F31  3C666F6E7420636F+  "<font co"
003F39  6C6F723D222300     "lor=\"#\0"
                           const [13]: "<font color=\"#"
003F40  04                 const type 4
003F41  07                 string size (7)
003F42  737472696E6700     "string\0"
                           const [14]: "string"
003F49  01                 const type 3
003F4A  584F1F4B           const [15]: (1260343128)
003F4E  04                 const type 4
003F4F  03                 string size (3)
003F50  255800             "%X\0"
                           const [16]: "%X"
003F53  04                 const type 4
003F54  03                 string size (3)
003F55  5F4700             "_G\0"
                           const [17]: "_G"
003F58  04                 const type 4
003F59  0F                 string size (15)
003F5A  5549436F6C6F725F+  "UIColor_"
003F62  4865616C746800     "Health\0"
                           const [18]: "UIColor_Health"
003F69  04                 const type 4
003F6A  03                 string size (3)
003F6B  223E00             "\">\0"
                           const [19]: "\">"
003F6E  04                 const type 4
003F6F  08                 string size (8)
003F70  3C2F666F6E743E00   "</font>\0"
                           const [20]: "</font>"
003F78  01                 const type 3
003F79  24BAD40A           const [21]: (181713444)
003F7D  04                 const type 4
003F7E  0C                 string size (12)
003F7F  5549436F6C6F725F+  "UIColor_"
003F87  52656400           "Red\0"
                           const [22]: "UIColor_Red"
003F8B  01                 const type 3
003F8C  4390A5B5           const [23]: (-1247440829)
003F90  04                 const type 4
003F91  02                 string size (2)
003F92  7200               "r\0"
                           const [24]: "r"
003F94  04                 const type 4
003F95  02                 string size (2)
003F96  6700               "g\0"
                           const [25]: "g"
003F98  04                 const type 4
003F99  02                 string size (2)
003F9A  6200               "b\0"
                           const [26]: "b"
003F9C  03                 const type 3
003F9D  0000DC42           const [27]: (0)
003FA1  03                 const type 3
003FA2  00005C43           const [28]: (0)
003FA6  03                 const type 3
003FA7  00006643           const [29]: (0)
003FAB  03                 const type 3
003FAC  0000003F           const [30]: (0)
003FB0  04                 const type 4
003FB1  01                 string size (0)
                           const [31]: ""
003FB3  01                 const type 3
003FB4  6906D10B           const [32]: (198248041)
003FB8  03                 const type 3
003FB9  000080BF           const [33]: (0)
003FBD  01                 const type 3
003FBE  FBE70EED           const [34]: (-317790213)
003FC2  03                 const type 3
003FC3  00008040           const [35]: (0)
003FC7  04                 const type 4
003FC8  1A                 string size (26)
003FC9  3C703E3C666F6E74+  "<p><font"
003FD1  20636F6C6F723D22+  " color=\""
003FD9  2346464646464622+  "#FFFFFF\""
003FE1  3E00               ">\0"
                           const [36]: "<p><font color=\"#FFFFFF\">"
003FE3  03                 const type 3
003FE4  0000803F           const [37]: (0)
003FE8  04                 const type 4
003FE9  10                 string size (16)
003FEA  3C2F623E3C2F666F+  "</b></fo"
003FF2  6E743E3C2F703E00   "nt></p>\0"
                           const [38]: "</b></font></p>"
003FFA  01                 const type 3
003FFB  A868B801           const [39]: (28862632)
003FFF  03                 const type 3
004000  0000A040           const [40]: (0)
004004  04                 const type 4
004005  03                 string size (3)
004006  5F5400             "_T\0"
                           const [41]: "_T"
004009  01                 const type 3
00400A  B752F139           const [42]: (972116663)
00400E  04                 const type 4
00400F  10                 string size (16)
004010  537572766976616C+  "Survival"
004018  4C534C6162656C00   "LSLabel\0"
                           const [43]: "SurvivalLSLabel"
004020  04                 const type 4
004021  09                 string size (9)
004022  48545F4C4142454C+  "HT_LABEL"
00402A  00                 "\0"
                           const [44]: "HT_LABEL"
00402B  03                 const type 3
00402C  9A99193E           const [45]: (-102)
004030  01                 const type 3
004031  0ECB4EFA           const [46]: (-95499506)
004035  01                 const type 3
004036  12D94ADA           const [47]: (-632628974)
00403A  03                 const type 3
00403B  00007042           const [48]: (0)
00403F  03                 const type 3
004040  000070C1           const [49]: (0)
004044  01                 const type 3
004045  781FB537           const [50]: (934616952)
004049  04                 const type 4
00404A  08                 string size (8)
00404B  67526567696F6E00   "gRegion\0"
                           const [51]: "gRegion"
004053  01                 const type 3
004054  58F559A5           const [52]: (-1520831144)
004058  03                 const type 3
004059  CDCC4C3E           const [53]: (-51)
00405D  01                 const type 3
00405E  16A96D37           const [54]: (929933590)
004062  03                 const type 3
004063  00000000           const [55]: (0)
004067  04                 const type 4
004068  05                 string size (5)
004069  6D61746800         "math\0"
                           const [56]: "math"
00406E  01                 const type 3
00406F  3810018B           const [57]: (-1962864584)
004073  01                 const type 3
004074  FFF9DE4C           const [58]: (1289681407)
004078  03                 const type 3
004079  00007F43           const [59]: (0)
00407D  04                 const type 4
00407E  12                 string size (18)
00407F  6B75766145787472+  "kuvaExtr"
004087  6163746F724C6973+  "actorLis"
00408F  7400               "t\0"
                           const [60]: "kuvaExtractorList"
004091  04                 const type 4
004092  12                 string size (18)
004093  4B7576614865616C+  "KuvaHeal"
00409B  7468547261636B65+  "thTracke"
0040A3  7200               "r\0"
                           const [61]: "KuvaHealthTracker"
0040A5  04                 const type 4
0040A6  13                 string size (19)
0040A7  537572766976616C+  "Survival"
0040AF  4B75766153746174+  "KuvaStat"
0040B7  757300             "us\0"
                           const [62]: "SurvivalKuvaStatus"
0040BA  01                 const type 3
0040BB  0344B180           const [63]: (-2135866365)
0040BF  01                 const type 3
0040C0  10B0555A           const [64]: (1515565072)
0040C4  01                 const type 3
0040C5  A22217F8           const [65]: (-132701534)
0040C9  03                 const type 3
0040CA  00002041           const [66]: (0)
0040CE  04                 const type 4
0040CF  12                 string size (18)
0040D0  48545F4845414C54+  "HT_HEALT"
0040D8  485F545241434B45+  "H_TRACKE"
0040E0  5200               "R\0"
                           const [67]: "HT_HEALTH_TRACKER"
0040E2  03                 const type 3
0040E3  00004040           const [68]: (0)
0040E7  01                 const type 3
0040E8  79283B0A           const [69]: (171649145)
0040EC  01                 const type 3
0040ED  3E04AEA4           const [70]: (-1532099522)
0040F1  03                 const type 3
0040F2  0000A041           const [71]: (0)
0040F6  01                 const type 3
0040F7  74DAB6EE           const [72]: (-290006412)
0040FB  04                 const type 4
0040FC  24                 string size (36)
0040FD  2F4C6F7475732F4C+  "/Lotus/L"
004105  616E67756167652F+  "anguage/"
00410D  47616D652F457863+  "Game/Exc"
004115  61766174696F6E54+  "avationT"
00411D  696D6500           "ime\0"
                           const [73]: "/Lotus/Language/Game/ExcavationTime"
004121  01                 const type 3
004122  B043DCE6           const [74]: (-421772368)
004126  04                 const type 4
004127  09                 string size (9)
004128  52656D6F76696E67+  "Removing"
004130  00                 "\0"
                           const [75]: "Removing"
004131  01                 const type 3
004132  7B5A00F7           const [76]: (-150971781)
004136  01                 const type 3
004137  4E24A8EA           const [77]: (-358079410)
00413B  04                 const type 4
00413C  1D                 string size (29)
00413D  3C703E3C666F6E74+  "<p><font"
004145  20636F6C6F723D22+  " color=\""
00414D  2346464646464622+  "#FFFFFF\""
004155  3E3C623E00         "><b>\0"
                           const [78]: "<p><font color=\"#FFFFFF\"><b>"
00415A  04                 const type 4
00415B  06                 string size (6)
00415C  3C2F623E2000       "</b> \0"
                           const [79]: "</b> "
004162  01                 const type 3
004163  BFE0B860           const [80]: (1622728895)
004167  00                 const type 0
                           const [81]: nil
004168  04                 const type 4
004169  0E                 string size (14)
00416A  6865616C74685472+  "healthTr"
004172  61636B657200       "acker\0"
                           const [82]: "healthTracker"
004178  04                 const type 4
004179  0E                 string size (14)
00417A  7374617475735472+  "statusTr"
004182  61636B657200       "acker\0"
                           const [83]: "statusTracker"
004188  04                 const type 4
004189  06                 string size (6)
00418A  7461626C6500       "table\0"
                           const [84]: "table"
004190  01                 const type 3
004191  9D0C45E6           const [85]: (-431682403)
004195  01                 const type 3
004196  35A02A58           const [86]: (1479188533)
00419A  01                 const type 3
00419B  90F61780           const [87]: (-2145913200)
00419F  04                 const type 4
0041A0  0B                 string size (11)
0041A1  4C6F7475735F4761+  "Lotus_Ga"
0041A9  6D6500             "me\0"
                           const [88]: "Lotus_Game"
0041AC  04                 const type 4
0041AD  17                 string size (23)
0041AE  426173654D61726B+  "BaseMark"
0041B6  6572496E666F5F44+  "erInfo_D"
0041BE  525F4E4F4E4500     "R_NONE\0"
                           const [89]: "BaseMarkerInfo_DR_NONE"
0041C5  04                 const type 4
0041C6  1C                 string size (28)
0041C7  426173654D61726B+  "BaseMark"
0041CF  6572496E666F5F44+  "erInfo_D"
0041D7  525F53414D455F5A+  "R_SAME_Z"
0041DF  4F4E4500           "ONE\0"
                           const [90]: "BaseMarkerInfo_DR_SAME_ZONE"
0041E3  04                 const type 4
0041E4  11                 string size (17)
0041E5  52656D6F76654875+  "RemoveHu"
0041ED  64547261636B6572+  "dTracker"
0041F5  00                 "\0"
                           const [91]: "RemoveHudTracker"
0041F6  01                 const type 3
0041F7  EC6E8613           const [92]: (327577324)
0041FB  03                 const type 3
0041FC  00000043           const [93]: (0)
                           * functions:
004200  01                 sizep (1)
                           
004201                     ** function [0] definition (level 3)
                           ** start of function **
004201  00                 string size (0)
                           source name: (none)
004203  04                 line defined (629)
004204  FB                 last line defined (635)
004205  04                 nups (1)
004206  01                 numparams (1)
004207  01                 is_vararg (0)
004208  00                 maxstacksize (10)
                           * code:
00420A  2F                 sizecode (47)
00420B  5D000000           [01] getglobal  1   0        ; math
00420F  4E40C000           [02] gettable   1   1   257  ; -113279800
004213  9D800000           [03] getglobal  2   2        ; -1577254049
004217  DDC00000           [04] getglobal  3   3        ; 1491452635
00421B  E2008000           [05] call       3   1   0  
00421F  A2800000           [06] call       2   0   2  
004223  8D004101           [07] sub        2   2   260  ; 0
004227  9C004101           [08] div        2   2   260  ; 0
00422B  62800001           [09] call       1   2   2  
00422F  4440C100           [10] mul        1   1   261  ; 0
004233  43400083           [11] add        1   262 1    ; 0
004237  9D000000           [12] getglobal  2   0        ; math
00423B  8E404001           [13] gettable   2   2   257  ; -113279800
00423F  DD800000           [14] getglobal  3   2        ; -1577254049
004243  1DC10000           [15] getglobal  4   3        ; 1491452635
004247  22018000           [16] call       4   1   0  
00424B  E2800000           [17] call       3   0   2  
00424F  CD00C101           [18] sub        3   3   260  ; 0
004253  DC00C101           [19] div        3   3   260  ; 0
004257  A2800001           [20] call       2   2   2  
00425B  84C04101           [21] mul        2   2   263  ; 0
00425F  83800084           [22] add        2   264 2    ; 0
004263  DD000000           [23] getglobal  3   0        ; math
004267  CE40C001           [24] gettable   3   3   257  ; -113279800
00426B  1D810000           [25] getglobal  4   2        ; -1577254049
00426F  5DC10000           [26] getglobal  5   3        ; 1491452635
004273  62018000           [27] call       5   1   0  
004277  22810000           [28] call       4   0   2  
00427B  0D014102           [29] sub        4   4   260  ; 0
00427F  1C014102           [30] div        4   4   260  ; 0
004283  E2800001           [31] call       3   2   2  
004287  C440C201           [32] mul        3   3   265  ; 0
00428B  C3C00085           [33] add        3   266 3    ; 0
00428F  13010000           [34] getupval   4   0      
004293  0EC14202           [35] gettable   4   4   267  ; -1422945187
004297  52018000           [36] move       5   1      
00429B  92010001           [37] move       6   2      
00429F  D2018001           [38] move       7   3      
0042A3  22810002           [39] call       4   4   2  
0042A7  59010300           [40] loadk      5   12       ; "</font><font color=\"#"
0042AB  92010002           [41] move       6   4      
0042AF  D9410300           [42] loadk      7   13       ; "\">"
0042B3  12020000           [43] move       8   0      
0042B7  59820300           [44] loadk      9   14       ; "</font>"
0042BB  42418202           [45] concat     5   5   9  
0042BF  5E010001           [46] return     5   2      
0042C3  1E008000           [47] return     0   1      
                           * constants:
0042C7  0F                 sizek (15)
0042C8  04                 const type 4
0042C9  05                 string size (5)
0042CA  6D61746800         "math\0"
                           const [0]: "math"
0042CF  01                 const type 3
0042D0  C87C3FF9           const [1]: (-113279800)
0042D4  01                 const type 3
0042D5  5F03FDA1           const [2]: (-1577254049)
0042D9  01                 const type 3
0042DA  DBC2E558           const [3]: (1491452635)
0042DE  03                 const type 3
0042DF  0000003F           const [4]: (0)
0042E3  03                 const type 3
0042E4  00007F43           const [5]: (0)
0042E8  03                 const type 3
0042E9  00000000           const [6]: (0)
0042ED  03                 const type 3
0042EE  00005C42           const [7]: (0)
0042F2  03                 const type 3
0042F3  00004843           const [8]: (0)
0042F7  03                 const type 3
0042F8  00003442           const [9]: (0)
0042FC  03                 const type 3
0042FD  00005243           const [10]: (0)
004301  01                 const type 3
004302  5D942FAB           const [11]: (-1422945187)
004306  04                 const type 4
004307  16                 string size (22)
004308  3C2F666F6E743E3C+  "</font><"
004310  666F6E7420636F6C+  "font col"
004318  6F723D222300       "or=\"#\0"
                           const [12]: "</font><font color=\"#"
00431E  04                 const type 4
00431F  03                 string size (3)
004320  223E00             "\">\0"
                           const [13]: "\">"
004323  04                 const type 4
004324  08                 string size (8)
004325  3C2F666F6E743E00   "</font>\0"
                           const [14]: "</font>"
                           * functions:
00432D  00                 sizep (0)
                           * lines:
00432E  2F                 sizelineinfo (47)
                           [pc] (line)
00432F  76                 [01] (118)
004330  02                 [02] (118)
004331  00                 [03] (118)
004332  00                 [04] (118)
004333  76                 [05] (118)
004334  02                 [06] (118)
004335  00                 [07] (118)
004336  00                 [08] (118)
004337  76                 [09] (118)
004338  02                 [10] (118)
004339  00                 [11] (118)
00433A  00                 [12] (119)
00433B  76                 [13] (119)
00433C  02                 [14] (119)
00433D  00                 [15] (119)
00433E  00                 [16] (119)
00433F  76                 [17] (119)
004340  02                 [18] (119)
004341  00                 [19] (119)
004342  00                 [20] (119)
004343  76                 [21] (119)
004344  02                 [22] (119)
004345  00                 [23] (120)
004346  00                 [24] (120)
004347  76                 [25] (120)
004348  02                 [26] (120)
004349  00                 [27] (120)
00434A  00                 [28] (120)
00434B  76                 [29] (120)
00434C  02                 [30] (120)
00434D  00                 [31] (120)
00434E  00                 [32] (120)
00434F  76                 [33] (120)
004350  02                 [34] (121)
004351  00                 [35] (121)
004352  00                 [36] (121)
004353  76                 [37] (121)
004354  02                 [38] (121)
004355  00                 [39] (121)
004356  00                 [40] (122)
004357  76                 [41] (122)
004358  02                 [42] (122)
004359  00                 [43] (122)
00435A  00                 [44] (122)
00435B  77                 [45] (122)
00435C  02                 [46] (122)
00435D  00                 [47] (123)
                           * locals:
0043EB  00                 sizelocvars (0)
                           * upvalues:
0043EC  00                 sizeupvalues (0)
                           ** end of function **

                           * lines:
0043EE  03                 sizelineinfo (500)
                           [pc] (line)
0043EF  52                 [001] (82)
0043F0  02                 [002] (83)
0043F1  00                 [003] (83)
0043F2  00                 [004] (83)
0043F3  53                 [005] (83)
0043F4  02                 [006] (83)
0043F5  00                 [007] (84)
0043F6  00                 [008] (85)
0043F7  53                 [009] (85)
0043F8  02                 [010] (85)
0043F9  00                 [011] (85)
0043FA  00                 [012] (88)
0043FB  53                 [013] (88)
0043FC  02                 [014] (89)
0043FD  00                 [015] (89)
0043FE  00                 [016] (89)
0043FF  53                 [017] (89)
004400  02                 [018] (89)
004401  00                 [019] (90)
004402  00                 [020] (90)
004403  53                 [021] (90)
004404  02                 [022] (91)
004405  00                 [023] (91)
004406  00                 [024] (91)
004407  54                 [025] (91)
004408  02                 [026] (95)
004409  00                 [027] (96)
00440A  00                 [028] (97)
00440B  55                 [029] (98)
00440C  02                 [030] (98)
00440D  00                 [031] (98)
00440E  00                 [032] (98)
00440F  55                 [033] (99)
004410  02                 [034] (99)
004411  00                 [035] (99)
004412  00                 [036] (99)
004413  55                 [037] (100)
004414  02                 [038] (100)
004415  00                 [039] (100)
004416  00                 [040] (100)
004417  55                 [041] (101)
004418  02                 [042] (101)
004419  00                 [043] (102)
00441A  00                 [044] (102)
00441B  58                 [045] (102)
00441C  02                 [046] (102)
00441D  00                 [047] (102)
00441E  00                 [048] (102)
00441F  58                 [049] (102)
004420  02                 [050] (102)
004421  00                 [051] (102)
004422  00                 [052] (103)
004423  59                 [053] (103)
004424  02                 [054] (103)
004425  00                 [055] (103)
004426  00                 [056] (103)
004427  59                 [057] (103)
004428  02                 [058] (104)
004429  00                 [059] (104)
00442A  00                 [060] (104)
00442B  59                 [061] (104)
00442C  02                 [062] (104)
00442D  00                 [063] (105)
00442E  00                 [064] (105)
00442F  59                 [065] (105)
004430  02                 [066] (105)
004431  00                 [067] (105)
004432  00                 [068] (106)
004433  59                 [069] (106)
004434  02                 [070] (106)
004435  00                 [071] (106)
004436  00                 [072] (106)
004437  5A                 [073] (107)
004438  02                 [074] (108)
004439  00                 [075] (110)
00443A  00                 [076] (110)
00443B  5A                 [077] (110)
00443C  02                 [078] (111)
00443D  00                 [079] (123)
00443E  00                 [080] (123)
00443F  5A                 [081] (125)
004440  02                 [082] (126)
004441  00                 [083] (126)
004442  00                 [084] (126)
004443  5B                 [085] (127)
004444  02                 [086] (127)
004445  00                 [087] (127)
004446  00                 [088] (-128)
004447  5B                 [089] (-127)
004448  02                 [090] (-126)
004449  00                 [091] (-126)
00444A  00                 [092] (-126)
00444B  5B                 [093] (-124)
00444C  02                 [094] (-124)
00444D  00                 [095] (-124)
00444E  00                 [096] (-124)
00444F  5B                 [097] (-124)
004450  02                 [098] (-124)
004451  00                 [099] (-124)
004452  00                 [100] (-124)
004453  5F                 [101] (-124)
004454  02                 [102] (-124)
004455  00                 [103] (-124)
004456  00                 [104] (-124)
004457  60                 [105] (-124)
004458  02                 [106] (-124)
004459  00                 [107] (-124)
00445A  00                 [108] (-122)
00445B  61                 [109] (-119)
00445C  02                 [110] (-119)
00445D  00                 [111] (-119)
00445E  00                 [112] (-118)
00445F  62                 [113] (-118)
004460  02                 [114] (-118)
004461  00                 [115] (-117)
004462  00                 [116] (-117)
004463  62                 [117] (-117)
004464  02                 [118] (-116)
004465  00                 [119] (-116)
004466  00                 [120] (-116)
004467  62                 [121] (-115)
004468  02                 [122] (-112)
004469  00                 [123] (-112)
00446A  00                 [124] (-111)
00446B  62                 [125] (-111)
00446C  02                 [126] (-111)
00446D  00                 [127] (-111)
00446E  00                 [128] (-111)
00446F  63                 [129] (-109)
004470  02                 [130] (-109)
004471  00                 [131] (-109)
004472  00                 [132] (-109)
004473  63                 [133] (-108)
004474  02                 [134] (-108)
004475  00                 [135] (-108)
004476  00                 [136] (-109)
004477  63                 [137] (-106)
004478  02                 [138] (-106)
004479  00                 [139] (-106)
00447A  00                 [140] (-106)
00447B  63                 [141] (-105)
00447C  02                 [142] (-105)
00447D  00                 [143] (-105)
00447E  00                 [144] (-105)
00447F  64                 [145] (-105)
004480  02                 [146] (-106)
004481  00                 [147] (-103)
004482  00                 [148] (-103)
004483  64                 [149] (-103)
004484  02                 [150] (-103)
004485  00                 [151] (-102)
004486  00                 [152] (-102)
004487  64                 [153] (-102)
004488  02                 [154] (-102)
004489  00                 [155] (-102)
00448A  00                 [156] (-103)
00448B  64                 [157] (-99)
00448C  02                 [158] (-99)
00448D  00                 [159] (-99)
00448E  00                 [160] (-97)
00448F  65                 [161] (-97)
004490  02                 [162] (-97)
004491  00                 [163] (-97)
004492  00                 [164] (-97)
004493  65                 [165] (-96)
004494  02                 [166] (-96)
004495  00                 [167] (-96)
004496  00                 [168] (-96)
004497  66                 [169] (-95)
004498  02                 [170] (-95)
004499  00                 [171] (-95)
00449A  00                 [172] (-95)
00449B  66                 [173] (-95)
00449C  02                 [174] (-95)
00449D  00                 [175] (-95)
00449E  00                 [176] (-95)
00449F  66                 [177] (-95)
0044A0  02                 [178] (-95)
0044A1  00                 [179] (-94)
0044A2  00                 [180] (-94)
0044A3  66                 [181] (-94)
0044A4  02                 [182] (-93)
0044A5  00                 [183] (-93)
0044A6  00                 [184] (-93)
0044A7  66                 [185] (-93)
0044A8  02                 [186] (-91)
0044A9  00                 [187] (-91)
0044AA  00                 [188] (-91)
0044AB  66                 [189] (-88)
0044AC  02                 [190] (-88)
0044AD  00                 [191] (-88)
0044AE  00                 [192] (-87)
0044AF  66                 [193] (-87)
0044B0  02                 [194] (-87)
0044B1  00                 [195] (-87)
0044B2  00                 [196] (-86)
0044B3  66                 [197] (-84)
0044B4  02                 [198] (-81)
0044B5  00                 [199] (-81)
0044B6  00                 [200] (-81)
0044B7  66                 [201] (-81)
0044B8  02                 [202] (-81)
0044B9  00                 [203] (-80)
0044BA  00                 [204] (-80)
0044BB  67                 [205] (-80)
0044BC  02                 [206] (-79)
0044BD  00                 [207] (-79)
0044BE  00                 [208] (-79)
0044BF  67                 [209] (-79)
0044C0  02                 [210] (-78)
0044C1  00                 [211] (-78)
0044C2  00                 [212] (-78)
0044C3  67                 [213] (-78)
0044C4  02                 [214] (-78)
0044C5  00                 [215] (-78)
0044C6  00                 [216] (-77)
0044C7  67                 [217] (-77)
0044C8  02                 [218] (-76)
0044C9  00                 [219] (-76)
0044CA  00                 [220] (-75)
0044CB  67                 [221] (-74)
0044CC  02                 [222] (-74)
0044CD  00                 [223] (-74)
0044CE  00                 [224] (-74)
0044CF  67                 [225] (-74)
0044D0  02                 [226] (-74)
0044D1  00                 [227] (-74)
0044D2  00                 [228] (-74)
0044D3  68                 [229] (-73)
0044D4  02                 [230] (-73)
0044D5  00                 [231] (-73)
0044D6  00                 [232] (-73)
0044D7  68                 [233] (-73)
0044D8  02                 [234] (-73)
0044D9  00                 [235] (-73)
0044DA  00                 [236] (-73)
0044DB  68                 [237] (-73)
0044DC  02                 [238] (-72)
0044DD  00                 [239] (-72)
0044DE  00                 [240] (-72)
0044DF  68                 [241] (-72)
0044E0  02                 [242] (-71)
0044E1  00                 [243] (-71)
0044E2  00                 [244] (-71)
0044E3  68                 [245] (-71)
0044E4  02                 [246] (-71)
0044E5  00                 [247] (-71)
0044E6  00                 [248] (-71)
0044E7  69                 [249] (-71)
0044E8  02                 [250] (-70)
0044E9  00                 [251] (-65)
0044EA  00                 [252] (-65)
0044EB  69                 [253] (-65)
0044EC  02                 [254] (-65)
0044ED  00                 [255] (-65)
0044EE  00                 [256] (-65)
0044EF  69                 [257] (-65)
0044F0  02                 [258] (-65)
0044F1  00                 [259] (-65)
0044F2  00                 [260] (-65)
0044F3  69                 [261] (-65)
0044F4  02                 [262] (-65)
0044F5  00                 [263] (-65)
0044F6  00                 [264] (-64)
0044F7  69                 [265] (-63)
0044F8  02                 [266] (-61)
0044F9  00                 [267] (-61)
0044FA  00                 [268] (-61)
0044FB  6A                 [269] (-61)
0044FC  02                 [270] (-60)
0044FD  00                 [271] (-60)
0044FE  00                 [272] (-60)
0044FF  6A                 [273] (-59)
004500  02                 [274] (-59)
004501  00                 [275] (-59)
004502  00                 [276] (-58)
004503  6A                 [277] (-58)
004504  02                 [278] (-58)
004505  00                 [279] (-56)
004506  00                 [280] (-54)
004507  6A                 [281] (-54)
004508  02                 [282] (-53)
004509  00                 [283] (-53)
00450A  00                 [284] (-53)
00450B  6A                 [285] (-50)
00450C  02                 [286] (-50)
00450D  00                 [287] (-50)
00450E  00                 [288] (-50)
00450F  6B                 [289] (-50)
004510  02                 [290] (-49)
004511  00                 [291] (-49)
004512  00                 [292] (-49)
004513  6C                 [293] (-49)
004514  02                 [294] (-49)
004515  00                 [295] (-49)
004516  00                 [296] (-49)
004517  6E                 [297] (-49)
004518  02                 [298] (-48)
004519  00                 [299] (-48)
00451A  00                 [300] (-48)
00451B  6E                 [301] (-47)
00451C  02                 [302] (-47)
00451D  00                 [303] (-47)
00451E  00                 [304] (-47)
00451F  6E                 [305] (-47)
004520  02                 [306] (-47)
004521  00                 [307] (-47)
004522  00                 [308] (-47)
004523  6F                 [309] (-47)
004524  02                 [310] (-47)
004525  00                 [311] (-46)
004526  00                 [312] (-46)
004527  7B                 [313] (-46)
004528  02                 [314] (-46)
004529  00                 [315] (-46)
00452A  00                 [316] (-46)
00452B  7B                 [317] (-46)
00452C  02                 [318] (-46)
00452D  00                 [319] (-46)
00452E  00                 [320] (-46)
00452F  7D                 [321] (-45)
004530  02                 [322] (-45)
004531  00                 [323] (-45)
004532  00                 [324] (-45)
004533  7E                 [325] (-45)
004534  02                 [326] (-44)
004535  00                 [327] (-44)
004536  00                 [328] (-44)
004537  7E                 [329] (-44)
004538  02                 [330] (-43)
004539  00                 [331] (-43)
00453A  00                 [332] (-43)
00453B  7E                 [333] (-43)
00453C  02                 [334] (-42)
00453D  00                 [335] (-42)
00453E  00                 [336] (-42)
00453F  7F                 [337] (-42)
004540  02                 [338] (-41)
004541  00                 [339] (-39)
004542  00                 [340] (-39)
004543  7F                 [341] (-39)
004544  02                 [342] (-39)
004545  00                 [343] (-39)
004546  00                 [344] (-39)
004547  7F                 [345] (-39)
004548  02                 [346] (-39)
004549  00                 [347] (-38)
00454A  00                 [348] (-38)
00454B  80                 [349] (-38)
00454C  02                 [350] (-38)
00454D  00                 [351] (-38)
00454E  00                 [352] (-38)
00454F  81                 [353] (-38)
004550  02                 [354] (-38)
004551  00                 [355] (-38)
004552  00                 [356] (-38)
004553  82                 [357] (-37)
004554  02                 [358] (-37)
004555  00                 [359] (-37)
004556  00                 [360] (-37)
004557  82                 [361] (-37)
004558  02                 [362] (-36)
004559  00                 [363] (-36)
00455A  00                 [364] (-36)
00455B  82                 [365] (-36)
00455C  02                 [366] (-35)
00455D  00                 [367] (-35)
00455E  00                 [368] (-35)
00455F  84                 [369] (-35)
004560  02                 [370] (-35)
004561  00                 [371] (-35)
004562  00                 [372] (-35)
004563  84                 [373] (-33)
004564  02                 [374] (-30)
004565  00                 [375] (-30)
004566  00                 [376] (-30)
004567  84                 [377] (-30)
004568  02                 [378] (-30)
004569  00                 [379] (-30)
00456A  00                 [380] (-30)
00456B  84                 [381] (-30)
00456C  02                 [382] (-30)
00456D  00                 [383] (-29)
00456E  00                 [384] (-29)
00456F  84                 [385] (-29)
004570  02                 [386] (-29)
004571  00                 [387] (-29)
004572  00                 [388] (-29)
004573  84                 [389] (-29)
004574  02                 [390] (-28)
004575  00                 [391] (-28)
004576  00                 [392] (-28)
004577  84                 [393] (-28)
004578  02                 [394] (-28)
004579  00                 [395] (-28)
00457A  00                 [396] (-28)
00457B  84                 [397] (-28)
00457C  02                 [398] (-28)
00457D  00                 [399] (-27)
00457E  00                 [400] (-27)
00457F  84                 [401] (-27)
004580  02                 [402] (-27)
004581  00                 [403] (-26)
004582  00                 [404] (-25)
004583  84                 [405] (-25)
004584  02                 [406] (-25)
004585  00                 [407] (-25)
004586  00                 [408] (-25)
004587  84                 [409] (-25)
004588  02                 [410] (-25)
004589  00                 [411] (-25)
00458A  00                 [412] (-25)
00458B  84                 [413] (-25)
00458C  02                 [414] (-24)
00458D  00                 [415] (-23)
00458E  00                 [416] (-22)
00458F  84                 [417] (-19)
004590  02                 [418] (-19)
004591  00                 [419] (-19)
004592  00                 [420] (-19)
004593  84                 [421] (-19)
004594  02                 [422] (-19)
004595  00                 [423] (-19)
004596  00                 [424] (-18)
004597  84                 [425] (-18)
004598  02                 [426] (-18)
004599  00                 [427] (-18)
00459A  00                 [428] (-18)
00459B  86                 [429] (-61)
00459C  02                 [430] (-15)
00459D  00                 [431] (-15)
00459E  00                 [432] (-14)
00459F  89                 [433] (-14)
0045A0  02                 [434] (-14)
0045A1  00                 [435] (-9)
0045A2  00                 [436] (-9)
0045A3  89                 [437] (-9)
0045A4  02                 [438] (-8)
0045A5  00                 [439] (-8)
0045A6  00                 [440] (-8)
0045A7  89                 [441] (-7)
0045A8  02                 [442] (-7)
0045A9  00                 [443] (-7)
0045AA  00                 [444] (-7)
0045AB  8A                 [445] (-6)
0045AC  02                 [446] (-6)
0045AD  00                 [447] (-6)
0045AE  00                 [448] (-6)
0045AF  8A                 [449] (-5)
0045B0  02                 [450] (-5)
0045B1  00                 [451] (-4)
0045B2  00                 [452] (-4)
0045B3  8A                 [453] (-4)
0045B4  02                 [454] (-4)
0045B5  00                 [455] (-3)
0045B6  00                 [456] (-3)
0045B7  8B                 [457] (-3)
0045B8  02                 [458] (-3)
0045B9  00                 [459] (-2)
0045BA  00                 [460] (2)
0045BB  8B                 [461] (2)
0045BC  02                 [462] (2)
0045BD  00                 [463] (2)
0045BE  00                 [464] (5)
0045BF  8B                 [465] (5)
0045C0  02                 [466] (5)
0045C1  00                 [467] (5)
0045C2  00                 [468] (5)
0045C3  8C                 [469] (5)
0045C4  02                 [470] (6)
0045C5  00                 [471] (6)
0045C6  00                 [472] (6)
0045C7  8C                 [473] (6)
0045C8  02                 [474] (7)
0045C9  00                 [475] (8)
0045CA  00                 [476] (8)
0045CB  8C                 [477] (8)
0045CC  02                 [478] (8)
0045CD  00                 [479] (8)
0045CE  00                 [480] (8)
0045CF  8D                 [481] (8)
0045D0  02                 [482] (8)
0045D1  00                 [483] (9)
0045D2  00                 [484] (9)
0045D3  90                 [485] (9)
0045D4  02                 [486] (9)
0045D5  00                 [487] (10)
0045D6  00                 [488] (10)
0045D7  90                 [489] (10)
0045D8  02                 [490] (10)
0045D9  00                 [491] (10)
0045DA  00                 [492] (10)
0045DB  91                 [493] (11)
0045DC  02                 [494] (11)
0045DD  00                 [495] (11)
0045DE  00                 [496] (11)
0045DF  91                 [497] (11)
0045E0  02                 [498] (11)
0045E1  00                 [499] (9)
0045E2  00                 [500] (14)
                           * locals:
004BBF  00                 sizelocvars (0)
                           * upvalues:
004BC0  00                 sizeupvalues (0)
                           ** end of function **

                           
004BC1                     ** function [21] definition (level 2)
                           ** start of function **
004BC1  00                 string size (0)
                           source name: (none)
004BC3  06                 line defined (784)
004BC4  AE                 last line defined (814)
004BC5  06                 nups (8)
004BC6  08                 numparams (0)
004BC7  00                 is_vararg (0)
004BC8  00                 maxstacksize (12)
                           * code:
004BCA  5B                 sizecode (91)
004BCB  1D000000           [01] getglobal  0   0        ; gGameRules
fail op	35
004BCF  23404000           [02] close      0  
004BD3  1A000080           [03] jmp        1            ; to [5]
004BD7  1E008000           [04] return     0   1      
004BDB  64804000           [05] self       1   0   258  ; -2029400442
004BDF  62800001           [06] call       1   2   2  
fail op	35
004BE3  2340C000           [07] close      0  
004BE7  1A000080           [08] jmp        1            ; to [10]
004BEB  1E008000           [09] return     0   1      
004BEF  A4C04000           [10] self       2   0   259  ; -317790213
004BF3  13010000           [11] getupval   4   0      
004BF7  A2808001           [12] call       2   3   2  
004BFB  D3008000           [13] getupval   3   1      
004BFF  DCC00001           [14] div        3   2   3  
004C03  1D010100           [15] getglobal  4   4        ; 1074689893
004C07  5D410100           [16] getglobal  5   5        ; _T
004C0B  4E81C102           [17] gettable   5   5   262  ; "LifeSupportBar"
004C0F  22810001           [18] call       4   2   2  
004C13  18010000           [19] test       4       0    ; to [21] if true
004C17  1A800280           [20] jmp        11           ; to [32]
004C1B  13010001           [21] getupval   4   2      
004C1F  0EC14102           [22] gettable   4   4   263  ; -1079095470
004C23  53018001           [23] getupval   5   3      
004C27  9D010200           [24] getglobal  6   8        ; math
004C2B  8E414203           [25] gettable   6   6   265  ; -150971781
004C2F  C481C201           [26] mul        7   3   266  ; 0
004C33  A2810001           [27] call       6   2   2  
004C37  D9810200           [28] loadk      7   10       ; 0
004C3B  1DC20200           [29] getglobal  8   11       ; survivalBroadcastObjectiveIcon
004C3F  57028000           [30] loadbool   9   1   0    ; true
004C43  22410003           [31] call       4   6   1  
004C47  13010001           [32] getupval   4   2      
004C4B  0E014302           [33] gettable   4   4   268  ; 1377969697
004C4F  5D010200           [34] getglobal  5   8        ; math
004C53  4E41C202           [35] gettable   5   5   265  ; -150971781
004C57  8481C201           [36] mul        6   3   266  ; 0
004C5B  62810001           [37] call       5   2   2  
004C5F  99810200           [38] loadk      6   10       ; 0
004C63  22418001           [39] call       4   3   1  
004C67  1D010100           [40] getglobal  4   4        ; 1074689893
004C6B  5D410100           [41] getglobal  5   5        ; _T
004C6F  4E41C302           [42] gettable   5   5   269  ; "SurvivalTimer"
004C73  22810001           [43] call       4   2   2  
004C77  18010000           [44] test       4       0    ; to [46] if true
004C7B  1A400880           [45] jmp        34           ; to [80]
004C7F  13010001           [46] getupval   4   2      
004C83  0E814302           [47] gettable   4   4   270  ; 28862632
004C87  22818000           [48] call       4   1   2  
004C8B  03C14302           [49] add        4   4   271  ; 0
004C8F  5D410100           [50] getglobal  5   5        ; _T
004C93  9D410100           [51] getglobal  6   5        ; _T
004C97  8E014403           [52] gettable   6   6   272  ; 972116663
004C9B  D9410300           [53] loadk      7   13       ; "SurvivalTimer"
004C9F  13020002           [54] getupval   8   4      
004CA3  0E424404           [55] gettable   8   8   273  ; "HT_TIMER"
004CA7  59820400           [56] loadk      9   18       ; 0
004CAB  92020002           [57] move       10  4      
004CAF  D7028000           [58] loadbool   11  1   0    ; true
004CB3  A2810003           [59] call       6   6   2  
004CB7  4C818186           [60] settable   5   269 6    ; "SurvivalTimer"
004CBB  53018002           [61] getupval   5   5      
004CBF  62818000           [62] call       5   1   2  
004CC3  58010000           [63] test       5       0    ; to [65] if true
004CC7  1A000180           [64] jmp        5            ; to [70]
004CCB  5D410100           [65] getglobal  5   5        ; _T
004CCF  4E41C302           [66] gettable   5   5   269  ; "SurvivalTimer"
004CD3  4EC1C402           [67] gettable   5   5   275  ; 934616952
004CD7  93010003           [68] getupval   6   6      
004CDB  62410001           [69] call       5   2   1  
004CDF  53010001           [70] getupval   5   2      
004CE3  4E01C502           [71] gettable   5   5   276  ; -95499506
004CE7  62C18000           [72] call       5   1   3  
004CEB  DD410100           [73] getglobal  7   5        ; _T
004CEF  CE41C303           [74] gettable   7   7   269  ; "SurvivalTimer"
004CF3  CE41C503           [75] gettable   7   7   277  ; -632628974
004CF7  12028002           [76] move       8   5      
004CFB  52020003           [77] move       9   6      
004CFF  97028000           [78] loadbool   10  1   0    ; true
004D03  E2410002           [79] call       7   4   1  
004D07  DD010200           [80] getglobal  7   8        ; math
004D0B  CE41C203           [81] gettable   7   7   265  ; -150971781
004D0F  24824500           [82] self       8   0   278  ; 1157879449
004D13  93028003           [83] getupval   10  7      
004D17  22028001           [84] call       8   3   0  
004D1B  E2810000           [85] call       7   0   2  
004D1F  1D420100           [86] getglobal  8   5        ; _T
004D23  0E424304           [87] gettable   8   8   269  ; "SurvivalTimer"
004D27  0EC24504           [88] gettable   8   8   279  ; 1731445362
004D2B  52028003           [89] move       9   7      
004D2F  22420001           [90] call       8   2   1  
004D33  1E008000           [91] return     0   1      
                           * constants:
004D37  18                 sizek (24)
004D38  04                 const type 4
004D39  0B                 string size (11)
004D3A  6747616D6552756C+  "gGameRul"
004D42  657300             "es\0"
                           const [0]: "gGameRules"
004D45  00                 const type 0
                           const [1]: nil
004D46  01                 const type 3
004D47  86CE0987           const [2]: (-2029400442)
004D4B  01                 const type 3
004D4C  FBE70EED           const [3]: (-317790213)
004D50  01                 const type 3
004D51  65770E40           const [4]: (1074689893)
004D55  04                 const type 4
004D56  03                 string size (3)
004D57  5F5400             "_T\0"
                           const [5]: "_T"
004D5A  04                 const type 4
004D5B  0F                 string size (15)
004D5C  4C69666553757070+  "LifeSupp"
004D64  6F727442617200     "ortBar\0"
                           const [6]: "LifeSupportBar"
004D6B  01                 const type 3
004D6C  524FAEBF           const [7]: (-1079095470)
004D70  04                 const type 4
004D71  05                 string size (5)
004D72  6D61746800         "math\0"
                           const [8]: "math"
004D77  01                 const type 3
004D78  7B5A00F7           const [9]: (-150971781)
004D7C  03                 const type 3
004D7D  0000C842           const [10]: (0)
004D81  04                 const type 4
004D82  1F                 string size (31)
004D83  737572766976616C+  "survival"
004D8B  42726F6164636173+  "Broadcas"
004D93  744F626A65637469+  "tObjecti"
004D9B  766549636F6E00     "veIcon\0"
                           const [11]: "survivalBroadcastObjectiveIcon"
004DA2  01                 const type 3
004DA3  21262252           const [12]: (1377969697)
004DA7  04                 const type 4
004DA8  0E                 string size (14)
004DA9  537572766976616C+  "Survival"
004DB1  54696D657200       "Timer\0"
                           const [13]: "SurvivalTimer"
004DB7  01                 const type 3
004DB8  A868B801           const [14]: (28862632)
004DBC  03                 const type 3
004DBD  0000A040           const [15]: (0)
004DC1  01                 const type 3
004DC2  B752F139           const [16]: (972116663)
004DC6  04                 const type 4
004DC7  09                 string size (9)
004DC8  48545F54494D4552+  "HT_TIMER"
004DD0  00                 "\0"
                           const [17]: "HT_TIMER"
004DD1  03                 const type 3
004DD2  0000803E           const [18]: (0)
004DD6  01                 const type 3
004DD7  781FB537           const [19]: (934616952)
004DDB  01                 const type 3
004DDC  0ECB4EFA           const [20]: (-95499506)
004DE0  01                 const type 3
004DE1  12D94ADA           const [21]: (-632628974)
004DE5  01                 const type 3
004DE6  99D60345           const [22]: (1157879449)
004DEA  01                 const type 3
004DEB  72C23367           const [23]: (1731445362)
                           * functions:
004DEF  00                 sizep (0)
                           * lines:
004DF0  5B                 sizelineinfo (91)
                           [pc] (line)
004DF1  11                 [01] (17)
004DF2  03                 [02] (18)
004DF3  00                 [03] (18)
004DF4  00                 [04] (19)
004DF5  12                 [05] (21)
004DF6  03                 [06] (21)
004DF7  00                 [07] (22)
004DF8  00                 [08] (22)
004DF9  12                 [09] (23)
004DFA  03                 [10] (25)
004DFB  00                 [11] (25)
004DFC  00                 [12] (25)
004DFD  13                 [13] (26)
004DFE  03                 [14] (26)
004DFF  00                 [15] (28)
004E00  00                 [16] (28)
004E01  15                 [17] (28)
004E02  03                 [18] (28)
004E03  00                 [19] (28)
004E04  00                 [20] (28)
004E05  15                 [21] (29)
004E06  03                 [22] (29)
004E07  00                 [23] (29)
004E08  00                 [24] (29)
004E09  16                 [25] (29)
004E0A  03                 [26] (29)
004E0B  00                 [27] (29)
004E0C  00                 [28] (29)
004E0D  16                 [29] (29)
004E0E  03                 [30] (29)
004E0F  00                 [31] (29)
004E10  00                 [32] (31)
004E11  17                 [33] (31)
004E12  03                 [34] (31)
004E13  00                 [35] (31)
004E14  00                 [36] (31)
004E15  19                 [37] (31)
004E16  03                 [38] (31)
004E17  00                 [39] (31)
004E18  00                 [40] (33)
004E19  19                 [41] (33)
004E1A  03                 [42] (33)
004E1B  00                 [43] (33)
004E1C  00                 [44] (33)
004E1D  19                 [45] (33)
004E1E  03                 [46] (34)
004E1F  00                 [47] (34)
004E20  00                 [48] (34)
004E21  1A                 [49] (34)
004E22  03                 [50] (35)
004E23  00                 [51] (35)
004E24  00                 [52] (35)
004E25  1A                 [53] (35)
004E26  03                 [54] (35)
004E27  00                 [55] (35)
004E28  00                 [56] (35)
004E29  1C                 [57] (35)
004E2A  03                 [58] (35)
004E2B  00                 [59] (35)
004E2C  00                 [60] (35)
004E2D  1C                 [61] (36)
004E2E  03                 [62] (36)
004E2F  00                 [63] (36)
004E30  00                 [64] (36)
004E31  1C                 [65] (37)
004E32  03                 [66] (37)
004E33  00                 [67] (37)
004E34  00                 [68] (37)
004E35  1C                 [69] (37)
004E36  03                 [70] (39)
004E37  00                 [71] (39)
004E38  00                 [72] (39)
004E39  1C                 [73] (40)
004E3A  03                 [74] (40)
004E3B  00                 [75] (40)
004E3C  00                 [76] (40)
004E3D  1C                 [77] (40)
004E3E  03                 [78] (40)
004E3F  00                 [79] (40)
004E40  00                 [80] (44)
004E41  1D                 [81] (44)
004E42  03                 [82] (44)
004E43  00                 [83] (44)
004E44  00                 [84] (44)
004E45  1D                 [85] (44)
004E46  03                 [86] (45)
004E47  00                 [87] (45)
004E48  00                 [88] (45)
004E49  1D                 [89] (45)
004E4A  03                 [90] (45)
004E4B  00                 [91] (46)
                           * locals:
004F5D  00                 sizelocvars (0)
                           * upvalues:
004F5E  00                 sizeupvalues (0)
                           ** end of function **

                           
004F5F                     ** function [22] definition (level 2)
                           ** start of function **
004F5F  00                 string size (0)
                           source name: (none)
004F61  06                 line defined (816)
004F62  BC                 last line defined (828)
004F63  06                 nups (2)
004F64  02                 numparams (1)
004F65  01                 is_vararg (0)
004F66  00                 maxstacksize (8)
                           * code:
004F68  11                 sizecode (17)
004F69  5D000000           [01] getglobal  1   0        ; gGameRules
004F6D  A440C000           [02] self       2   1   257  ; -317790213
004F71  13010000           [03] getupval   4   0      
004F75  A2808001           [04] call       2   3   2  
fail op	33
004F79  21804001           [05] tforloop   0       258  ; to [7] if exit
004F7D  1A000080           [06] jmp        1            ; to [8]
004F81  1E008000           [07] return     0   1      
004F85  C3000001           [08] add        3   2   0  
004F89  13018000           [09] getupval   4   1      
fail op	21
004F8D  15C00002           [10] concat     0   4   3  
004F91  1A000080           [11] jmp        1            ; to [13]
004F95  D3008000           [12] getupval   3   1      
004F99  24C1C000           [13] self       4   1   259  ; -803877924
004F9D  93010000           [14] getupval   6   0      
004FA1  D2018001           [15] move       7   3      
004FA5  22410002           [16] call       4   4   1  
004FA9  1E008000           [17] return     0   1      
                           * constants:
004FAD  04                 sizek (4)
004FAE  04                 const type 4
004FAF  0B                 string size (11)
004FB0  6747616D6552756C+  "gGameRul"
004FB8  657300             "es\0"
                           const [0]: "gGameRules"
004FBB  01                 const type 3
004FBC  FBE70EED           const [1]: (-317790213)
004FC0  03                 const type 3
004FC1  00000000           const [2]: (0)
004FC5  01                 const type 3
004FC6  DCCB15D0           const [3]: (-803877924)
                           * functions:
004FCA  00                 sizep (0)
                           * lines:
004FCB  11                 sizelineinfo (17)
                           [pc] (line)
004FCC  31                 [01] (49)
004FCD  03                 [02] (50)
004FCE  00                 [03] (50)
004FCF  00                 [04] (50)
004FD0  32                 [05] (51)
004FD1  03                 [06] (51)
004FD2  00                 [07] (52)
004FD3  00                 [08] (55)
004FD4  32                 [09] (56)
004FD5  03                 [10] (56)
004FD6  00                 [11] (56)
004FD7  00                 [12] (57)
004FD8  32                 [13] (59)
004FD9  03                 [14] (59)
004FDA  00                 [15] (59)
004FDB  00                 [16] (59)
004FDC  33                 [17] (60)
                           * locals:
005010  00                 sizelocvars (0)
                           * upvalues:
005011  00                 sizeupvalues (0)
                           ** end of function **

                           
005012                     ** function [23] definition (level 2)
                           ** start of function **
005012  00                 string size (0)
                           source name: (none)
005014  06                 line defined (830)
005015  CB                 last line defined (843)
005016  06                 nups (5)
005017  05                 numparams (0)
005018  00                 is_vararg (0)
005019  00                 maxstacksize (6)
                           * code:
00501B  25                 sizecode (37)
00501C  1D000000           [01] getglobal  0   0        ; gRegion
005020  24404000           [02] self       0   0   257  ; -1520831144
005024  22800001           [03] call       0   2   2  
005028  18400000           [04] test       0       1    ; to [6] if false
00502C  1A000080           [05] jmp        1            ; to [7]
005030  1E008000           [06] return     0   1      
005034  13000000           [07] getupval   0   0      
005038  53008000           [08] getupval   1   1      
00503C  62808000           [09] call       1   1   2  
005040  58000000           [10] test       1       0    ; to [12] if true
005044  1A000080           [11] jmp        1            ; to [13]
005048  04804000           [12] mul        0   0   258  ; 0
00504C  53000001           [13] getupval   1   2      
005050  92000000           [14] move       2   0      
005054  62400001           [15] call       1   2   1  
005058  5DC00000           [16] getglobal  1   3        ; gGameRules
00505C  6400C100           [17] self       1   1   260  ; -317790213
005060  D3008001           [18] getupval   3   3      
005064  62808001           [19] call       1   3   2  
fail op	21
005068  1540C100           [20] concat     0   1   261
00506C  1A800380           [21] jmp        15           ; to [37]
005070  9DC00000           [22] getglobal  2   3        ; gGameRules
005074  A4804101           [23] self       2   2   262  ; -1201441975
005078  A2800001           [24] call       2   2   2  
00507C  8EC04101           [25] gettable   2   2   263  ; "difficulty"
fail op	21
005080  15004201           [26] concat     0   2   264
005084  1A000280           [27] jmp        9            ; to [37]
005088  93000002           [28] getupval   2   4      
00508C  8E404201           [29] gettable   2   2   265  ; -78033590
005090  DD800200           [30] getglobal  3   10       ; _T
005094  CEC0C201           [31] gettable   3   3   267  ; "MissionTransmissionSet"
005098  1D010300           [32] getglobal  4   12       ; -332969190
00509C  59410300           [33] loadk      5   13       ; "SurvivalPickupVO"
0050A0  22810001           [34] call       4   2   2  
0050A4  59810300           [35] loadk      5   14       ; 0
0050A8  A2400002           [36] call       2   4   1  
0050AC  1E008000           [37] return     0   1      
                           * constants:
0050B0  0F                 sizek (15)
0050B1  04                 const type 4
0050B2  08                 string size (8)
0050B3  67526567696F6E00   "gRegion\0"
                           const [0]: "gRegion"
0050BB  01                 const type 3
0050BC  58F559A5           const [1]: (-1520831144)
0050C0  03                 const type 3
0050C1  0000403F           const [2]: (0)
0050C5  04                 const type 4
0050C6  0B                 string size (11)
0050C7  6747616D6552756C+  "gGameRul"
0050CF  657300             "es\0"
                           const [3]: "gGameRules"
0050D2  01                 const type 3
0050D3  FBE70EED           const [4]: (-317790213)
0050D7  03                 const type 3
0050D8  00007042           const [5]: (0)
0050DC  01                 const type 3
0050DD  497363B8           const [6]: (-1201441975)
0050E1  04                 const type 4
0050E2  0B                 string size (11)
0050E3  646966666963756C+  "difficul"
0050EB  747900             "ty\0"
                           const [7]: "difficulty"
0050EE  03                 const type 3
0050EF  CDCC4C3F           const [8]: (-51)
0050F3  01                 const type 3
0050F4  4A4D59FB           const [9]: (-78033590)
0050F8  04                 const type 4
0050F9  03                 string size (3)
0050FA  5F5400             "_T\0"
                           const [10]: "_T"
0050FD  04                 const type 4
0050FE  17                 string size (23)
0050FF  4D697373696F6E54+  "MissionT"
005107  72616E736D697373+  "ransmiss"
00510F  696F6E53657400     "ionSet\0"
                           const [11]: "MissionTransmissionSet"
005116  01                 const type 3
005117  1A4B27EC           const [12]: (-332969190)
00511B  04                 const type 4
00511C  11                 string size (17)
00511D  537572766976616C+  "Survival"
005125  5069636B7570564F+  "PickupVO"
00512D  00                 "\0"
                           const [13]: "SurvivalPickupVO"
00512E  03                 const type 3
00512F  00000000           const [14]: (0)
                           * functions:
005133  00                 sizep (0)
                           * lines:
005134  25                 sizelineinfo (37)
                           [pc] (line)
005135  3F                 [01] (63)
005136  03                 [02] (63)
005137  00                 [03] (63)
005138  00                 [04] (63)
005139  3F                 [05] (63)
00513A  03                 [06] (64)
00513B  00                 [07] (66)
00513C  00                 [08] (67)
00513D  3F                 [09] (67)
00513E  03                 [10] (67)
00513F  00                 [11] (67)
005140  00                 [12] (68)
005141  3F                 [13] (70)
005142  03                 [14] (70)
005143  00                 [15] (70)
005144  00                 [16] (71)
005145  3F                 [17] (71)
005146  03                 [18] (71)
005147  00                 [19] (71)
005148  00                 [20] (72)
005149  40                 [21] (72)
00514A  03                 [22] (72)
00514B  00                 [23] (72)
00514C  00                 [24] (72)
00514D  42                 [25] (72)
00514E  03                 [26] (72)
00514F  00                 [27] (72)
005150  00                 [28] (73)
005151  43                 [29] (73)
005152  03                 [30] (73)
005153  00                 [31] (73)
005154  00                 [32] (73)
005155  43                 [33] (73)
005156  03                 [34] (73)
005157  00                 [35] (73)
005158  00                 [36] (73)
005159  43                 [37] (75)
                           * locals:
0051C9  00                 sizelocvars (0)
                           * upvalues:
0051CA  00                 sizeupvalues (0)
                           ** end of function **

                           
0051CB                     ** function [24] definition (level 2)
                           ** start of function **
0051CB  00                 string size (0)
                           source name: (none)
0051CD  06                 line defined (845)
0051CE  CF                 last line defined (847)
0051CF  06                 nups (1)
0051D0  01                 numparams (1)
0051D1  01                 is_vararg (0)
0051D2  00                 maxstacksize (3)
                           * code:
0051D4  05                 sizecode (5)
0051D5  53000000           [1] getupval   1   0      
0051D9  4E00C000           [2] gettable   1   1   256  ; -1259372903
0051DD  92000000           [3] move       2   0      
0051E1  62400001           [4] call       1   2   1  
0051E5  1E008000           [5] return     0   1      
                           * constants:
0051E9  01                 sizek (1)
0051EA  01                 const type 3
0051EB  997EEFB4           const [0]: (-1259372903)
                           * functions:
0051EF  00                 sizep (0)
                           * lines:
0051F0  05                 sizelineinfo (5)
                           [pc] (line)
0051F1  4E                 [1] (78)
0051F2  03                 [2] (78)
0051F3  00                 [3] (78)
0051F4  00                 [4] (78)
0051F5  4E                 [5] (79)
                           * locals:
005205  00                 sizelocvars (0)
                           * upvalues:
005206  00                 sizeupvalues (0)
                           ** end of function **

                           
005207                     ** function [25] definition (level 2)
                           ** start of function **
005207  00                 string size (0)
                           source name: (none)
005209  06                 line defined (851)
00520A  DA                 last line defined (858)
00520B  06                 nups (0)
00520C  00                 numparams (0)
00520D  00                 is_vararg (0)
00520E  00                 maxstacksize (4)
                           * code:
005210  18                 sizecode (24)
005211  1D000000           [01] getglobal  0   0        ; 1074689893
005215  5D400000           [02] getglobal  1   1        ; _T
005219  4E80C000           [03] gettable   1   1   258  ; "EndlessModeEnemyLevel"
00521D  22800001           [04] call       0   2   2  
005221  18000000           [05] test       0       0    ; to [7] if true
005225  1A000280           [06] jmp        9            ; to [16]
005229  1DC00000           [07] getglobal  0   3        ; gRegion
00522D  24004100           [08] self       0   0   260  ; -774964848
005231  22800001           [09] call       0   2   2  
005235  24404100           [10] self       0   0   261  ; 537471347
005239  22800001           [11] call       0   2   2  
00523D  5D400000           [12] getglobal  1   1        ; _T
005241  A4804100           [13] self       2   0   262  ; -472735398
005245  A2800001           [14] call       2   2   2  
005249  4C800081           [15] settable   1   258 2    ; "EndlessModeEnemyLevel"
00524D  5DC00100           [16] getglobal  1   7        ; math
005251  4E00C200           [17] gettable   1   1   264  ; 1710846250
005255  9D400000           [18] getglobal  2   1        ; _T
005259  8E804001           [19] gettable   2   2   258  ; "EndlessModeEnemyLevel"
00525D  9C404201           [20] div        2   2   265  ; 0
005261  D9800200           [21] loadk      3   10       ; 0
005265  62808001           [22] call       1   3   2  
005269  5E000001           [23] return     1   2      
00526D  1E008000           [24] return     0   1      
                           * constants:
005271  0B                 sizek (11)
005272  01                 const type 3
005273  65770E40           const [0]: (1074689893)
005277  04                 const type 4
005278  03                 string size (3)
005279  5F5400             "_T\0"
                           const [1]: "_T"
00527C  04                 const type 4
00527D  16                 string size (22)
00527E  456E646C6573734D+  "EndlessM"
005286  6F6465456E656D79+  "odeEnemy"
00528E  4C6576656C00       "Level\0"
                           const [2]: "EndlessModeEnemyLevel"
005294  04                 const type 4
005295  08                 string size (8)
005296  67526567696F6E00   "gRegion\0"
                           const [3]: "gRegion"
00529E  01                 const type 3
00529F  90F9CED1           const [4]: (-774964848)
0052A3  01                 const type 3
0052A4  73290920           const [5]: (537471347)
0052A8  01                 const type 3
0052A9  5AA1D2E3           const [6]: (-472735398)
0052AD  04                 const type 4
0052AE  05                 string size (5)
0052AF  6D61746800         "math\0"
                           const [7]: "math"
0052B4  01                 const type 3
0052B5  2A71F965           const [8]: (1710846250)
0052B9  03                 const type 3
0052BA  0000F041           const [9]: (0)
0052BE  03                 const type 3
0052BF  0000803F           const [10]: (0)
                           * functions:
0052C3  00                 sizep (0)
                           * lines:
0052C4  18                 sizelineinfo (24)
                           [pc] (line)
0052C5  54                 [01] (84)
0052C6  03                 [02] (84)
0052C7  00                 [03] (84)
0052C8  00                 [04] (84)
0052C9  54                 [05] (84)
0052CA  03                 [06] (84)
0052CB  00                 [07] (85)
0052CC  00                 [08] (85)
0052CD  54                 [09] (85)
0052CE  03                 [10] (85)
0052CF  00                 [11] (85)
0052D0  00                 [12] (86)
0052D1  54                 [13] (86)
0052D2  03                 [14] (86)
0052D3  00                 [15] (86)
0052D4  00                 [16] (88)
0052D5  54                 [17] (88)
0052D6  03                 [18] (88)
0052D7  00                 [19] (88)
0052D8  00                 [20] (88)
0052D9  54                 [21] (88)
0052DA  03                 [22] (88)
0052DB  00                 [23] (89)
0052DC  00                 [24] (90)
                           * locals:
005325  00                 sizelocvars (0)
                           * upvalues:
005326  00                 sizeupvalues (0)
                           ** end of function **

                           
005327                     ** function [26] definition (level 2)
                           ** start of function **
005327  00                 string size (0)
                           source name: (none)
005329  06                 line defined (860)
00532A  9C                 last line defined (924)
00532B  07                 nups (0)
00532C  00                 numparams (2)
00532D  02                 is_vararg (0)
00532E  00                 maxstacksize (16)
                           * code:
005331  01                 sizecode (133)
005332  A4004000           [001] self       2   0   256  ; -1187710491
005336  17018000           [002] loadbool   4   1   0    ; true
00533A  A2408001           [003] call       2   3   1  
00533E  A4404000           [004] self       2   0   257  ; 1594371397
005342  17018000           [005] loadbool   4   1   0    ; true
005346  A2408001           [006] call       2   3   1  
00534A  A4804000           [007] self       2   0   258  ; -2010255519
00534E  17018000           [008] loadbool   4   1   0    ; true
005352  A2408001           [009] call       2   3   1  
005356  A4C04000           [010] self       2   0   259  ; 265918238
00535A  17018000           [011] loadbool   4   1   0    ; true
00535E  59010100           [012] loadk      5   4        ; 0
005362  A2400002           [013] call       2   4   1  
005366  A4404100           [014] self       2   0   261  ; -1850937571
00536A  A2400001           [015] call       2   2   1  
00536E  9D800100           [016] getglobal  2   6        ; 538022378
005372  D9C00100           [017] loadk      3   7        ; 0
005376  A2400001           [018] call       2   2   1  
00537A  9D000200           [019] getglobal  2   8        ; 1074689893
00537E  D2000000           [020] move       3   0      
005382  A2800001           [021] call       2   2   2  
005386  98000000           [022] test       2       0    ; to [24] if true
00538A  1A000080           [023] jmp        1            ; to [25]
00538E  1E008000           [024] return     0   1      
005392  A4404200           [025] self       2   0   265  ; -2135866365
005396  A2800001           [026] call       2   2   2  
00539A  DD000200           [027] getglobal  3   8        ; 1074689893
00539E  12010001           [028] move       4   2      
0053A2  E2800001           [029] call       3   2   2  
0053A6  D8000000           [030] test       3       0    ; to [32] if true
0053AA  1A000080           [031] jmp        1            ; to [33]
0053AE  1E008000           [032] return     0   1      
0053B2  C6008001           [033] loadnil    3   3      
0053B6  1D010200           [034] getglobal  4   8        ; 1074689893
0053BA  5D810200           [035] getglobal  5   10       ; _T
0053BE  4EC1C202           [036] gettable   5   5   267  ; "kuvaExtractorList"
0053C2  22810001           [037] call       4   2   2  
0053C6  18410000           [038] test       4       1    ; to [40] if false
0053CA  1AC00880           [039] jmp        36           ; to [76]
0053CE  0B010000           [040] newtable   4   0   0    ; array=0, hash=0
0053D2  5D010300           [041] getglobal  5   12       ; 1672515847
0053D6  9D810200           [042] getglobal  6   10       ; _T
0053DA  8EC14203           [043] gettable   6   6   267  ; "kuvaExtractorList"
0053DE  62010101           [044] call       5   2   4  
0053E2  1A400380           [045] jmp        14           ; to [60]
fail op	35
0053E6  63C0C104           [046] close      1  
0053EA  1AC00280           [047] jmp        12           ; to [60]
0053EE  A442C204           [048] self       10  9   265  ; -2135866365
0053F2  A2820001           [049] call       10  2   2  
0053F6  DD020200           [050] getglobal  11  8        ; 1074689893
0053FA  12030005           [051] move       12  10     
0053FE  E2820001           [052] call       11  2   2  
005402  D8420000           [053] test       11      1    ; to [55] if false
005406  1A000180           [054] jmp        5            ; to [60]
00540A  DD420300           [055] getglobal  11  13       ; table
00540E  CE82C305           [056] gettable   11  11  270  ; -431682403
005412  12030002           [057] move       12  4      
005416  52030005           [058] move       13  10     
00541A  E2428001           [059] call       11  3   1  
00541E  56810000           [060] tforloop   5       2    ; to [62] if exit
005422  1AC0FB7F           [061] jmp        -16          ; to [46]
005426  CA020002           [062] len        11  4      
fail op	35
00542A  23C0C305           [063] close      0  
00542E  1A400080           [064] jmp        2            ; to [67]
005432  CEC04302           [065] gettable   3   4   271  ; 0
005436  1A000280           [066] jmp        9            ; to [76]
00543A  CA020002           [067] len        11  4      
fail op	21
00543E  15C08287           [068] concat     0   271 11 
005442  1A400180           [069] jmp        6            ; to [76]
005446  DD020400           [070] getglobal  11  16       ; gRegion
00544A  E442C405           [071] self       11  11  273  ; -467928635
00544E  52030001           [072] move       13  2      
005452  92030002           [073] move       14  4      
005456  E2820002           [074] call       11  4   2  
00545A  D2008005           [075] move       3   11     
00545E  DD020200           [076] getglobal  11  8        ; 1074689893
005462  12038001           [077] move       12  3      
005466  E2820001           [078] call       11  2   2  
00546A  D8020000           [079] test       11      0    ; to [81] if true
00546E  1A000980           [080] jmp        37           ; to [118]
005472  D9C20300           [081] loadk      11  15       ; 0
005476  0A038000           [082] len        12  1      
fail op	33
00547A  21008305           [083] tforloop   0       12   ; to [85] if exit
00547E  1A400480           [084] jmp        18           ; to [103]
005482  1D030200           [085] getglobal  12  8        ; 1074689893
005486  4EC38200           [086] gettable   13  1   11 
00548A  22830001           [087] call       12  2   2  
00548E  18430000           [088] test       12      1    ; to [90] if false
005492  1A000180           [089] jmp        5            ; to [95]
005496  0EC38200           [090] gettable   12  1   11 
00549A  24834406           [091] self       12  12  274  ; 1511086594
00549E  22830001           [092] call       12  2   2  
0054A2  18030000           [093] test       12      0    ; to [95] if true
0054A6  1A400180           [094] jmp        6            ; to [101]
0054AA  1D430300           [095] getglobal  12  13       ; table
0054AE  0EC34406           [096] gettable   12  12  275  ; -843973282
0054B2  52038000           [097] move       13  1      
0054B6  92038005           [098] move       14  11     
0054BA  22438001           [099] call       12  3   1  
0054BE  1A00FB7F           [100] jmp        -19          ; to [82]
0054C2  C3C2C305           [101] add        11  11  271  ; 0
0054C6  1A80FA7F           [102] jmp        -21          ; to [82]
0054CA  CA028000           [103] len        11  1      
fail op	35
0054CE  23C0C105           [104] close      0  
0054D2  1A400080           [105] jmp        2            ; to [108]
0054D6  C6008001           [106] loadnil    3   3      
0054DA  1A400280           [107] jmp        10           ; to [118]
fail op	35
0054DE  23C0C305           [108] close      0  
0054E2  1A400080           [109] jmp        2            ; to [112]
0054E6  CEC0C300           [110] gettable   3   1   271  ; 0
0054EA  1A400180           [111] jmp        6            ; to [118]
0054EE  1D030400           [112] getglobal  12  16       ; gRegion
0054F2  24434406           [113] self       12  12  273  ; -467928635
0054F6  92030001           [114] move       14  2      
0054FA  D2038000           [115] move       15  1      
0054FE  22830002           [116] call       12  4   2  
005502  D2000006           [117] move       3   12     
005506  1D030200           [118] getglobal  12  8        ; 1074689893
00550A  52038001           [119] move       13  3      
00550E  22830001           [120] call       12  2   2  
005512  18030000           [121] test       12      0    ; to [123] if true
005516  1A800180           [122] jmp        7            ; to [130]
00551A  1D030500           [123] getglobal  12  20       ; -1817107093
00551E  59430500           [124] loadk      13  21       ; "No target to storm for "
005522  A4834501           [125] self       14  2   278  ; 455421500
005526  A2830001           [126] call       14  2   2  
00552A  42838306           [127] concat     13  13  14 
00552E  22430001           [128] call       12  2   1  
005532  1A800080           [129] jmp        3            ; to [133]
005536  24C34500           [130] self       12  0   279  ; 1755388072
00553A  92038001           [131] move       14  3      
00553E  22438001           [132] call       12  3   1  
005542  1E008000           [133] return     0   1      
                           * constants:
005546  18                 sizek (24)
005547  01                 const type 3
005548  E5F934B9           const [0]: (-1187710491)
00554C  01                 const type 3
00554D  452D085F           const [1]: (1594371397)
005551  01                 const type 3
005552  61EF2D88           const [2]: (-2010255519)
005556  01                 const type 3
005557  1E97D90F           const [3]: (265918238)
00555B  03                 const type 3
00555C  00004842           const [4]: (0)
005560  01                 const type 3
005561  1DEFAC91           const [5]: (-1850937571)
005565  01                 const type 3
005566  EA911120           const [6]: (538022378)
00556A  03                 const type 3
00556B  00000000           const [7]: (0)
00556F  01                 const type 3
005570  65770E40           const [8]: (1074689893)
005574  01                 const type 3
005575  0344B180           const [9]: (-2135866365)
005579  04                 const type 4
00557A  03                 string size (3)
00557B  5F5400             "_T\0"
                           const [10]: "_T"
00557E  04                 const type 4
00557F  12                 string size (18)
005580  6B75766145787472+  "kuvaExtr"
005588  6163746F724C6973+  "actorLis"
005590  7400               "t\0"
                           const [11]: "kuvaExtractorList"
005592  01                 const type 3
005593  0791B063           const [12]: (1672515847)
005597  04                 const type 4
005598  06                 string size (6)
005599  7461626C6500       "table\0"
                           const [13]: "table"
00559F  01                 const type 3
0055A0  9D0C45E6           const [14]: (-431682403)
0055A4  03                 const type 3
0055A5  0000803F           const [15]: (0)
0055A9  04                 const type 4
0055AA  08                 string size (8)
0055AB  67526567696F6E00   "gRegion\0"
                           const [16]: "gRegion"
0055B3  01                 const type 3
0055B4  C5F91BE4           const [17]: (-467928635)
0055B8  01                 const type 3
0055B9  025A115A           const [18]: (1511086594)
0055BD  01                 const type 3
0055BE  5EFDB1CD           const [19]: (-843973282)
0055C2  01                 const type 3
0055C3  6B25B193           const [20]: (-1817107093)
0055C7  04                 const type 4
0055C8  18                 string size (24)
0055C9  4E6F207461726765+  "No targe"
0055D1  7420746F2073746F+  "t to sto"
0055D9  726D20666F722000   "rm for \0"
                           const [21]: "No target to storm for "
0055E1  01                 const type 3
0055E2  3C2E251B           const [22]: (455421500)
0055E6  01                 const type 3
0055E7  A818A168           const [23]: (1755388072)
                           * functions:
0055EB  00                 sizep (0)
                           * lines:
0055ED  01                 sizelineinfo (133)
                           [pc] (line)
0055EE  5D                 [001] (93)
0055EF  03                 [002] (93)
0055F0  00                 [003] (93)
0055F1  00                 [004] (94)
0055F2  5D                 [005] (94)
0055F3  03                 [006] (94)
0055F4  00                 [007] (95)
0055F5  00                 [008] (95)
0055F6  5D                 [009] (95)
0055F7  03                 [010] (96)
0055F8  00                 [011] (96)
0055F9  00                 [012] (96)
0055FA  5E                 [013] (96)
0055FB  03                 [014] (97)
0055FC  00                 [015] (97)
0055FD  00                 [016] (101)
0055FE  5E                 [017] (101)
0055FF  03                 [018] (101)
005600  00                 [019] (103)
005601  00                 [020] (103)
005602  5E                 [021] (103)
005603  03                 [022] (103)
005604  00                 [023] (103)
005605  00                 [024] (104)
005606  5F                 [025] (107)
005607  03                 [026] (107)
005608  00                 [027] (108)
005609  00                 [028] (108)
00560A  5F                 [029] (108)
00560B  03                 [030] (108)
00560C  00                 [031] (108)
00560D  00                 [032] (109)
00560E  5F                 [033] (112)
00560F  03                 [034] (114)
005610  00                 [035] (114)
005611  00                 [036] (114)
005612  60                 [037] (114)
005613  03                 [038] (114)
005614  00                 [039] (114)
005615  00                 [040] (115)
005616  60                 [041] (116)
005617  03                 [042] (116)
005618  00                 [043] (116)
005619  00                 [044] (116)
00561A  60                 [045] (116)
00561B  03                 [046] (117)
00561C  00                 [047] (117)
00561D  00                 [048] (118)
00561E  60                 [049] (118)
00561F  03                 [050] (119)
005620  00                 [051] (119)
005621  00                 [052] (119)
005622  61                 [053] (119)
005623  03                 [054] (119)
005624  00                 [055] (120)
005625  00                 [056] (120)
005626  61                 [057] (120)
005627  03                 [058] (120)
005628  00                 [059] (120)
005629  00                 [060] (116)
00562A  65                 [061] (122)
00562B  03                 [062] (124)
00562C  00                 [063] (124)
00562D  00                 [064] (124)
00562E  65                 [065] (125)
00562F  03                 [066] (125)
005630  00                 [067] (126)
005631  00                 [068] (126)
005632  65                 [069] (126)
005633  03                 [070] (127)
005634  00                 [071] (127)
005635  00                 [072] (127)
005636  67                 [073] (127)
005637  03                 [074] (127)
005638  00                 [075] (127)
005639  00                 [076] (-125)
00563A  67                 [077] (-125)
00563B  03                 [078] (-125)
00563C  00                 [079] (-125)
00563D  00                 [080] (-125)
00563E  67                 [081] (-124)
00563F  03                 [082] (-123)
005640  00                 [083] (-123)
005641  00                 [084] (-123)
005642  67                 [085] (-122)
005643  03                 [086] (-122)
005644  00                 [087] (-122)
005645  00                 [088] (-122)
005646  67                 [089] (-122)
005647  03                 [090] (-122)
005648  00                 [091] (-122)
005649  00                 [092] (-122)
00564A  68                 [093] (-122)
00564B  03                 [094] (-122)
00564C  00                 [095] (-121)
00564D  00                 [096] (-121)
00564E  6B                 [097] (-121)
00564F  03                 [098] (-121)
005650  00                 [099] (-121)
005651  00                 [100] (-121)
005652  6B                 [101] (-119)
005653  03                 [102] (-118)
005654  00                 [103] (-116)
005655  00                 [104] (-114)
005656  6C                 [105] (-114)
005657  03                 [106] (-113)
005658  00                 [107] (-113)
005659  00                 [108] (-112)
00565A  6C                 [109] (-112)
00565B  03                 [110] (-111)
00565C  00                 [111] (-111)
00565D  00                 [112] (-109)
00565E  6C                 [113] (-109)
00565F  03                 [114] (-109)
005660  00                 [115] (-109)
005661  00                 [116] (-109)
005662  6C                 [117] (-109)
005663  03                 [118] (-105)
005664  00                 [119] (-105)
005665  00                 [120] (-105)
005666  6C                 [121] (-105)
005667  03                 [122] (-105)
005668  00                 [123] (-104)
005669  00                 [124] (-104)
00566A  6D                 [125] (-104)
00566B  03                 [126] (-104)
00566C  00                 [127] (-104)
00566D  00                 [128] (-104)
00566E  70                 [129] (-104)
00566F  03                 [130] (-102)
005670  00                 [131] (-102)
005671  00                 [132] (-102)
005672  72                 [133] (-100)
                           * locals:
005802  00                 sizelocvars (0)
                           * upvalues:
005803  00                 sizeupvalues (0)
                           ** end of function **

                           
005804                     ** function [27] definition (level 2)
                           ** start of function **
005804  00                 string size (0)
                           source name: (none)
005806  07                 line defined (926)
005807  BF                 last line defined (959)
005808  07                 nups (6)
005809  06                 numparams (0)
00580A  00                 is_vararg (0)
00580B  00                 maxstacksize (16)
                           * code:
00580D  46                 sizecode (70)
00580E  1D000000           [01] getglobal  0   0        ; gRegion
005812  24404000           [02] self       0   0   257  ; -774964848
005816  22800001           [03] call       0   2   2  
00581A  64804000           [04] self       1   0   258  ; 537471347
00581E  62800001           [05] call       1   2   2  
005822  9DC00000           [06] getglobal  2   3        ; gGameRules
005826  E4004101           [07] self       3   2   260  ; -1201441975
00582A  E2800001           [08] call       3   2   2  
00582E  1D010000           [09] getglobal  4   0        ; gRegion
005832  24414102           [10] self       4   4   261  ; 1395335411
005836  22810001           [11] call       4   2   2  
00583A  5D810100           [12] getglobal  5   6        ; gFlashMgr
00583E  64C1C102           [13] self       5   5   263  ; -1998378965
005842  D9010200           [14] loadk      7   8        ; "Server.NumVirtualTestClients"
005846  62818001           [15] call       5   3   2  
00584A  03410102           [16] add        4   4   5  
00584E  64414201           [17] self       5   2   265  ; -317790213
005852  D3010000           [18] getupval   7   0      
005856  62818001           [19] call       5   3   2  
00585A  93018000           [20] getupval   6   1      
00585E  D3010001           [21] getupval   7   2      
005862  1D820200           [22] getglobal  8   10       ; math
005866  0EC24204           [23] gettable   8   8   267  ; 1710846250
00586A  52020002           [24] move       9   4      
00586E  99020300           [25] loadk      10  12       ; 0
005872  22828001           [26] call       8   3   2  
005876  6442C301           [27] self       9   3   269  ; -272348948
00587A  62820001           [28] call       9   2   2  
00587E  9D820300           [29] getglobal  10  14       ; -332969190
005882  D9C20300           [30] loadk      11  15       ; "Infestation"
005886  A2820001           [31] call       10  2   2  
fail op	35
00588A  23808204           [32] close      0  
00588E  1A400080           [33] jmp        2            ; to [36]
005892  93018001           [34] getupval   6   3      
005896  D3010002           [35] getupval   7   4      
00589A  9D020400           [36] getglobal  10  16       ; Engine
00589E  8E424405           [37] gettable   10  10  273  ; 328784635
0058A2  A2828000           [38] call       10  1   2  
0058A6  98020000           [39] test       10      0    ; to [41] if true
0058AA  1A400180           [40] jmp        6            ; to [47]
0058AE  9D820200           [41] getglobal  10  10       ; math
0058B2  8EC24205           [42] gettable   10  10  267  ; 1710846250
0058B6  D9820400           [43] loadk      11  18       ; 0
0058BA  12030004           [44] move       12  8      
0058BE  A2828001           [45] call       10  3   2  
0058C2  12020005           [46] move       8   10     
0058C6  9D820200           [47] getglobal  10  10       ; math
0058CA  8EC24205           [48] gettable   10  10  267  ; 1710846250
0058CE  E4C2C400           [49] self       11  1   275  ; -1738719634
0058D2  E2820001           [50] call       11  2   2  
0058D6  0E030203           [51] gettable   12  6   8  
0058DA  A2828001           [52] call       10  3   2  
0058DE  DD820200           [53] getglobal  11  10       ; math
0058E2  CEC2C205           [54] gettable   11  11  267  ; 1710846250
0058E6  24C3C400           [55] self       12  1   275  ; -1738719634
0058EA  22830001           [56] call       12  2   2  
0058EE  4E038203           [57] gettable   13  7   8  
0058F2  E2828001           [58] call       11  3   2  
0058F6  1D030500           [59] getglobal  12  20       ; -1828500651
0058FA  52030005           [60] move       13  10     
0058FE  92038005           [61] move       14  11     
005902  D3038002           [62] getupval   15  5      
005906  E2038000           [63] call       15  1   0  
00590A  22830000           [64] call       12  0   2  
00590E  5D830200           [65] getglobal  13  10       ; math
005912  4E43C506           [66] gettable   13  13  277  ; -150971781
005916  92030006           [67] move       14  12     
00591A  47030001           [68] tailcall   13  2   0  
00591E  5E030000           [69] return     13  0      
005922  1E008000           [70] return     0   1      
                           * constants:
005926  16                 sizek (22)
005927  04                 const type 4
005928  08                 string size (8)
005929  67526567696F6E00   "gRegion\0"
                           const [0]: "gRegion"
005931  01                 const type 3
005932  90F9CED1           const [1]: (-774964848)
005936  01                 const type 3
005937  73290920           const [2]: (537471347)
00593B  04                 const type 4
00593C  0B                 string size (11)
00593D  6747616D6552756C+  "gGameRul"
005945  657300             "es\0"
                           const [3]: "gGameRules"
005948  01                 const type 3
005949  497363B8           const [4]: (-1201441975)
00594D  01                 const type 3
00594E  F3202B53           const [5]: (1395335411)
005952  04                 const type 4
005953  0A                 string size (10)
005954  67466C6173684D67+  "gFlashMg"
00595C  7200               "r\0"
                           const [6]: "gFlashMgr"
00595E  01                 const type 3
00595F  2B28E388           const [7]: (-1998378965)
005963  04                 const type 4
005964  1D                 string size (29)
005965  5365727665722E4E+  "Server.N"
00596D  756D566972747561+  "umVirtua"
005975  6C54657374436C69+  "lTestCli"
00597D  656E747300         "ents\0"
                           const [8]: "Server.NumVirtualTestClients"
005982  01                 const type 3
005983  FBE70EED           const [9]: (-317790213)
005987  04                 const type 4
005988  05                 string size (5)
005989  6D61746800         "math\0"
                           const [10]: "math"
00598E  01                 const type 3
00598F  2A71F965           const [11]: (1710846250)
005993  03                 const type 3
005994  00008040           const [12]: (0)
005998  01                 const type 3
005999  EC48C4EF           const [13]: (-272348948)
00599D  01                 const type 3
00599E  1A4B27EC           const [14]: (-332969190)
0059A2  04                 const type 4
0059A3  0C                 string size (12)
0059A4  496E666573746174+  "Infestat"
0059AC  696F6E00           "ion\0"
                           const [15]: "Infestation"
0059B0  04                 const type 4
0059B1  07                 string size (7)
0059B2  456E67696E6500     "Engine\0"
                           const [16]: "Engine"
0059B9  01                 const type 3
0059BA  FBDA9813           const [17]: (328784635)
0059BE  03                 const type 3
0059BF  00004040           const [18]: (0)
0059C3  01                 const type 3
0059C4  6E3E5D98           const [19]: (-1738719634)
0059C8  01                 const type 3
0059C9  554B0393           const [20]: (-1828500651)
0059CD  01                 const type 3
0059CE  7B5A00F7           const [21]: (-150971781)
                           * functions:
0059D2  00                 sizep (0)
                           * lines:
0059D3  46                 sizelineinfo (70)
                           [pc] (line)
0059D4  9F                 [01] (-97)
0059D5  03                 [02] (-97)
0059D6  00                 [03] (-97)
0059D7  00                 [04] (-96)
0059D8  9F                 [05] (-96)
0059D9  03                 [06] (-95)
0059DA  00                 [07] (-94)
0059DB  00                 [08] (-94)
0059DC  9F                 [09] (-93)
0059DD  03                 [10] (-93)
0059DE  00                 [11] (-93)
0059DF  00                 [12] (-93)
0059E0  A0                 [13] (-93)
0059E1  03                 [14] (-93)
0059E2  00                 [15] (-93)
0059E3  00                 [16] (-93)
0059E4  A0                 [17] (-92)
0059E5  03                 [18] (-92)
0059E6  00                 [19] (-92)
0059E7  00                 [20] (-89)
0059E8  A1                 [21] (-88)
0059E9  03                 [22] (-87)
0059EA  00                 [23] (-87)
0059EB  00                 [24] (-87)
0059EC  A2                 [25] (-87)
0059ED  03                 [26] (-87)
0059EE  00                 [27] (-86)
0059EF  00                 [28] (-86)
0059F0  A2                 [29] (-85)
0059F1  03                 [30] (-85)
0059F2  00                 [31] (-85)
0059F3  00                 [32] (-85)
0059F4  A3                 [33] (-85)
0059F5  03                 [34] (-84)
0059F6  00                 [35] (-83)
0059F7  00                 [36] (-81)
0059F8  A3                 [37] (-81)
0059F9  03                 [38] (-81)
0059FA  00                 [39] (-81)
0059FB  00                 [40] (-81)
0059FC  A3                 [41] (-80)
0059FD  03                 [42] (-80)
0059FE  00                 [43] (-80)
0059FF  00                 [44] (-80)
005A00  A3                 [45] (-80)
005A01  03                 [46] (-80)
005A02  00                 [47] (-78)
005A03  00                 [48] (-78)
005A04  A3                 [49] (-78)
005A05  03                 [50] (-78)
005A06  00                 [51] (-78)
005A07  00                 [52] (-78)
005A08  A3                 [53] (-77)
005A09  03                 [54] (-77)
005A0A  00                 [55] (-77)
005A0B  00                 [56] (-77)
005A0C  A3                 [57] (-77)
005A0D  03                 [58] (-77)
005A0E  00                 [59] (-76)
005A0F  00                 [60] (-76)
005A10  A3                 [61] (-76)
005A11  03                 [62] (-76)
005A12  00                 [63] (-76)
005A13  00                 [64] (-76)
005A14  A4                 [65] (-66)
005A15  03                 [66] (-66)
005A16  00                 [67] (-66)
005A17  00                 [68] (-66)
005A18  A4                 [69] (-66)
005A19  03                 [70] (-65)
                           * locals:
005AEC  00                 sizelocvars (0)
                           * upvalues:
005AED  00                 sizeupvalues (0)
                           ** end of function **

                           
005AEE                     ** function [28] definition (level 2)
                           ** start of function **
005AEE  00                 string size (0)
                           source name: (none)
005AF0  07                 line defined (961)
005AF1  C9                 last line defined (969)
005AF2  07                 nups (2)
005AF3  02                 numparams (0)
005AF4  00                 is_vararg (0)
005AF5  00                 maxstacksize (5)
                           * code:
005AF7  16                 sizecode (22)
005AF8  1D000000           [01] getglobal  0   0        ; gRegion
005AFC  24404000           [02] self       0   0   257  ; -774964848
005B00  22800001           [03] call       0   2   2  
005B04  64804000           [04] self       1   0   258  ; 537471347
005B08  62800001           [05] call       1   2   2  
005B0C  93000000           [06] getupval   2   0      
005B10  A2808000           [07] call       2   1   2  
005B14  E4C0C000           [08] self       3   1   259  ; 932988922
005B18  E2800001           [09] call       3   2   2  
fail op	21
005B1C  15808001           [10] concat     0   3   2  
005B20  1AC00180           [11] jmp        8            ; to [20]
005B24  E400C100           [12] self       3   1   260  ; -1626084341
005B28  E2800001           [13] call       3   2   2  
005B2C  13018000           [14] getupval   4   1      
005B30  03010101           [15] add        4   2   4  
fail op	21
005B34  15008101           [16] concat     0   3   4  
005B38  1A400080           [17] jmp        2            ; to [20]
005B3C  D7008000           [18] loadbool   3   1   0    ; true
005B40  DE000001           [19] return     3   2      
005B44  D7000000           [20] loadbool   3   0   0    ; false
005B48  DE000001           [21] return     3   2      
005B4C  1E008000           [22] return     0   1      
                           * constants:
005B50  05                 sizek (5)
005B51  04                 const type 4
005B52  08                 string size (8)
005B53  67526567696F6E00   "gRegion\0"
                           const [0]: "gRegion"
005B5B  01                 const type 3
005B5C  90F9CED1           const [1]: (-774964848)
005B60  01                 const type 3
005B61  73290920           const [2]: (537471347)
005B65  01                 const type 3
005B66  FA479C37           const [3]: (932988922)
005B6A  01                 const type 3
005B6B  0BEC139F           const [4]: (-1626084341)
                           * functions:
005B6F  00                 sizep (0)
                           * lines:
005B70  16                 sizelineinfo (22)
                           [pc] (line)
005B71  C2                 [01] (-62)
005B72  03                 [02] (-62)
005B73  00                 [03] (-62)
005B74  00                 [04] (-61)
005B75  C2                 [05] (-61)
005B76  03                 [06] (-60)
005B77  00                 [07] (-60)
005B78  00                 [08] (-59)
005B79  C2                 [09] (-59)
005B7A  03                 [10] (-59)
005B7B  00                 [11] (-59)
005B7C  00                 [12] (-59)
005B7D  C3                 [13] (-59)
005B7E  03                 [14] (-59)
005B7F  00                 [15] (-59)
005B80  00                 [16] (-59)
005B81  C3                 [17] (-59)
005B82  03                 [18] (-58)
005B83  00                 [19] (-58)
005B84  00                 [20] (-56)
005B85  C4                 [21] (-56)
005B86  03                 [22] (-55)
                           * locals:
005BC9  00                 sizelocvars (0)
                           * upvalues:
005BCA  00                 sizeupvalues (0)
                           ** end of function **

                           
005BCB                     ** function [29] definition (level 2)
                           ** start of function **
005BCB  00                 string size (0)
                           source name: (none)
005BCD  07                 line defined (971)
005BCE  F2                 last line defined (1010)
005BCF  07                 nups (12)
005BD0  0C                 numparams (0)
005BD1  00                 is_vararg (0)
005BD2  00                 maxstacksize (15)
                           * code:
005BD4  46                 sizecode (70)
005BD5  19000000           [01] loadk      0   0        ; 0
005BD9  59400000           [02] loadk      1   1        ; 0
005BDD  8D008000           [03] sub        2   1   0  
005BE1  9C804001           [04] div        2   2   258  ; 0
005BE5  C4C04001           [05] mul        3   2   259  ; 0
005BE9  CDC00000           [06] sub        3   0   3  
005BED  1D010100           [07] getglobal  4   4        ; gGameRules
005BF1  64414102           [08] self       5   4   261  ; -317790213
005BF5  D3010000           [09] getupval   7   0      
005BF9  62818001           [10] call       5   3   2  
005BFD  93018000           [11] getupval   6   1      
005C01  9C818102           [12] div        6   5   6  
005C05  D3010001           [13] getupval   7   2      
005C09  E2818000           [14] call       7   1   2  
005C0D  04C20101           [15] mul        8   2   7  
005C11  03028201           [16] add        8   3   8  
005C15  1C824104           [17] div        8   8   262  ; 0
005C19  64424102           [18] self       9   4   261  ; -317790213
005C1D  D3028001           [19] getupval   11  3      
005C21  62828001           [20] call       9   3   2  
fail op	35
005C25  23C0C104           [21] close      0  
005C29  1A400080           [22] jmp        2            ; to [25]
005C2D  19020200           [23] loadk      8   8        ; 0
005C31  1A800280           [24] jmp        11           ; to [36]
005C35  53020002           [25] getupval   9   4      
fail op	33
005C39  21400203           [26] tforloop   0       9    ; to [28] if exit
005C3D  1A800080           [27] jmp        3            ; to [31]
005C41  53028002           [28] getupval   9   5      
005C45  04420204           [29] mul        8   8   9  
005C49  1A000180           [30] jmp        5            ; to [36]
005C4D  53020003           [31] getupval   9   6      
fail op	33
005C51  21808104           [32] tforloop   0       6    ; to [34] if exit
005C55  1A400080           [33] jmp        2            ; to [36]
005C59  53028003           [34] getupval   9   7      
005C5D  04420204           [35] mul        8   8   9  
005C61  53020004           [36] getupval   9   8      
005C65  62828000           [37] call       9   1   2  
005C69  58020000           [38] test       9       0    ; to [40] if true
005C6D  1A400680           [39] jmp        26           ; to [66]
005C71  53028004           [40] getupval   9   9      
005C75  62828000           [41] call       9   1   2  
fail op	33
005C79  2140C204           [42] tforloop   0       265  ; to [44] if exit
005C7D  1A800080           [43] jmp        3            ; to [47]
005C81  93020005           [44] getupval   10  10     
005C85  04820204           [45] mul        8   8   10 
005C89  1A000380           [46] jmp        13           ; to [60]
fail op	21
005C8D  15408284           [47] concat     0   265 9  
005C91  1A800280           [48] jmp        11           ; to [60]
fail op	21
005C95  1580C204           [49] concat     0   9   266
005C99  1A000280           [50] jmp        9            ; to [60]
005C9D  8D42C204           [51] sub        10  9   265  ; 0
005CA1  9C424205           [52] div        10  10  265  ; 0
005CA5  DDC20200           [53] getglobal  11  11       ; -1828500651
005CA9  13030005           [54] getupval   12  10     
005CAD  04030304           [55] mul        12  8   12 
005CB1  52030004           [56] move       13  8      
005CB5  92030005           [57] move       14  10     
005CB9  E2820002           [58] call       11  4   2  
005CBD  12028005           [59] move       8   11     
005CC1  E4024302           [60] self       11  4   268  ; 1157879449
005CC5  53038005           [61] getupval   13  11     
005CC9  E2828001           [62] call       11  3   2  
fail op	33
005CCD  2100C205           [63] tforloop   0       264  ; to [65] if exit
005CD1  1A000080           [64] jmp        1            ; to [66]
005CD5  19020200           [65] loadk      8   8        ; 0
005CD9  E4424302           [66] self       11  4   269  ; 1575106704
005CDD  52030004           [67] move       13  8      
005CE1  9D830300           [68] getglobal  14  14       ; timeAddPickup
005CE5  E2420002           [69] call       11  4   1  
005CE9  1E008000           [70] return     0   1      
                           * constants:
005CED  0F                 sizek (15)
005CEE  03                 const type 3
005CEF  0000C841           const [0]: (0)
005CF3  03                 const type 3
005CF4  0000C040           const [1]: (0)
005CF8  03                 const type 3
005CF9  0000F841           const [2]: (0)
005CFD  03                 const type 3
005CFE  00000041           const [3]: (0)
005D02  04                 const type 4
005D03  0B                 string size (11)
005D04  6747616D6552756C+  "gGameRul"
005D0C  657300             "es\0"
                           const [4]: "gGameRules"
005D0F  01                 const type 3
005D10  FBE70EED           const [5]: (-317790213)
005D14  03                 const type 3
005D15  0000C842           const [6]: (0)
005D19  03                 const type 3
005D1A  00008040           const [7]: (0)
005D1E  03                 const type 3
005D1F  00000000           const [8]: (0)
005D23  03                 const type 3
005D24  00001644           const [9]: (0)
005D28  03                 const type 3
005D29  00009644           const [10]: (0)
005D2D  01                 const type 3
005D2E  554B0393           const [11]: (-1828500651)
005D32  01                 const type 3
005D33  99D60345           const [12]: (1157879449)
005D37  01                 const type 3
005D38  9038E25D           const [13]: (1575106704)
005D3C  04                 const type 4
005D3D  0E                 string size (14)
005D3E  74696D6541646450+  "timeAddP"
005D46  69636B757000       "ickup\0"
                           const [14]: "timeAddPickup"
                           * functions:
005D4C  00                 sizep (0)
                           * lines:
005D4D  46                 sizelineinfo (70)
                           [pc] (line)
005D4E  CC                 [01] (-52)
005D4F  03                 [02] (-51)
005D50  00                 [03] (-50)
005D51  00                 [04] (-50)
005D52  CD                 [05] (-49)
005D53  03                 [06] (-49)
005D54  00                 [07] (-47)
005D55  00                 [08] (-46)
005D56  CE                 [09] (-46)
005D57  03                 [10] (-46)
005D58  00                 [11] (-45)
005D59  00                 [12] (-45)
005D5A  CE                 [13] (-44)
005D5B  03                 [14] (-44)
005D5C  00                 [15] (-43)
005D5D  00                 [16] (-43)
005D5E  CF                 [17] (-43)
005D5F  03                 [18] (-36)
005D60  00                 [19] (-36)
005D61  00                 [20] (-36)
005D62  CF                 [21] (-36)
005D63  03                 [22] (-36)
005D64  00                 [23] (-35)
005D65  00                 [24] (-35)
005D66  D1                 [25] (-34)
005D67  03                 [26] (-34)
005D68  00                 [27] (-34)
005D69  00                 [28] (-33)
005D6A  D2                 [29] (-33)
005D6B  03                 [30] (-33)
005D6C  00                 [31] (-32)
005D6D  00                 [32] (-32)
005D6E  D2                 [33] (-32)
005D6F  03                 [34] (-31)
005D70  00                 [35] (-31)
005D71  00                 [36] (-28)
005D72  D2                 [37] (-28)
005D73  03                 [38] (-28)
005D74  00                 [39] (-28)
005D75  00                 [40] (-27)
005D76  D3                 [41] (-27)
005D77  03                 [42] (-26)
005D78  00                 [43] (-26)
005D79  00                 [44] (-25)
005D7A  D3                 [45] (-25)
005D7B  03                 [46] (-25)
005D7C  00                 [47] (-24)
005D7D  00                 [48] (-24)
005D7E  D4                 [49] (-24)
005D7F  03                 [50] (-24)
005D80  00                 [51] (-23)
005D81  00                 [52] (-23)
005D82  D4                 [53] (-22)
005D83  03                 [54] (-22)
005D84  00                 [55] (-22)
005D85  00                 [56] (-22)
005D86  D5                 [57] (-22)
005D87  03                 [58] (-22)
005D88  00                 [59] (-22)
005D89  00                 [60] (-20)
005D8A  D5                 [61] (-20)
005D8B  03                 [62] (-20)
005D8C  00                 [63] (-20)
005D8D  00                 [64] (-20)
005D8E  D5                 [65] (-19)
005D8F  03                 [66] (-15)
005D90  00                 [67] (-15)
005D91  00                 [68] (-15)
005D92  DC                 [69] (-15)
005D93  03                 [70] (-14)
                           * locals:
005E66  00                 sizelocvars (0)
                           * upvalues:
005E67  00                 sizeupvalues (0)
                           ** end of function **

                           
005E68                     ** function [30] definition (level 2)
                           ** start of function **
005E68  00                 string size (0)
                           source name: (none)
005E6A  07                 line defined (1012)
005E6B  FD                 last line defined (1021)
005E6C  07                 nups (5)
005E6D  05                 numparams (0)
005E6E  00                 is_vararg (0)
005E6F  00                 maxstacksize (6)
                           * code:
005E71  1F                 sizecode (31)
005E72  1D000000           [01] getglobal  0   0        ; math
005E76  0E404000           [02] gettable   0   0   257  ; -1775039999
005E7A  53000000           [03] getupval   1   0      
005E7E  22800001           [04] call       0   2   2  
005E82  03804000           [05] add        0   0   258  ; -92
005E86  0FC04000           [06] unm        0   0      
005E8A  04000082           [07] mul        0   260 0    ; 0
005E8E  5D400100           [08] getglobal  1   5        ; -1828500651
005E92  93008000           [09] getupval   2   1      
005E96  D3000001           [10] getupval   3   2      
005E9A  12010000           [11] move       4   0      
005E9E  62800002           [12] call       1   4   2  
005EA2  93008001           [13] getupval   2   3      
005EA6  D3000002           [14] getupval   3   4      
005EAA  E2808000           [15] call       3   1   2  
005EAE  9CC00001           [16] div        2   2   3  
005EB2  D3000000           [17] getupval   3   0      
005EB6  C3808001           [18] add        3   3   2  
fail op	8
005EBA  C8000000           [19] setupval   3   0      
005EBE  D3000000           [20] getupval   3   0      
005EC2  13018001           [21] getupval   4   3      
fail op	21
005EC6  15C00002           [22] concat     0   4   3  
005ECA  1A400180           [23] jmp        6            ; to [30]
005ECE  DD000000           [24] getglobal  3   0        ; math
005ED2  CE80C101           [25] gettable   3   3   262  ; 842624623
005ED6  13010000           [26] getupval   4   0      
005EDA  53018001           [27] getupval   5   3      
005EDE  E2808001           [28] call       3   3   2  
fail op	8
005EE2  C8000000           [29] setupval   3   0      
005EE6  5E000001           [30] return     1   2      
005EEA  1E008000           [31] return     0   1      
                           * constants:
005EEE  07                 sizek (7)
005EEF  04                 const type 4
005EF0  05                 string size (5)
005EF1  6D61746800         "math\0"
                           const [0]: "math"
005EF6  01                 const type 3
005EF7  010A3396           const [1]: (-1775039999)
005EFB  03                 const type 3
005EFC  A4707D3F           const [2]: (-92)
005F00  03                 const type 3
005F01  00000040           const [3]: (0)
005F05  03                 const type 3
005F06  0000803E           const [4]: (0)
005F0A  01                 const type 3
005F0B  554B0393           const [5]: (-1828500651)
005F0F  01                 const type 3
005F10  6F6E3932           const [6]: (842624623)
                           * functions:
005F14  00                 sizep (0)
                           * lines:
005F15  1F                 sizelineinfo (31)
                           [pc] (line)
005F16  F5                 [01] (-11)
005F17  03                 [02] (-11)
005F18  00                 [03] (-11)
005F19  00                 [04] (-11)
005F1A  F5                 [05] (-11)
005F1B  03                 [06] (-11)
005F1C  00                 [07] (-11)
005F1D  00                 [08] (-10)
005F1E  F5                 [09] (-10)
005F1F  03                 [10] (-10)
005F20  00                 [11] (-10)
005F21  00                 [12] (-10)
005F22  F5                 [13] (-9)
005F23  03                 [14] (-9)
005F24  00                 [15] (-9)
005F25  00                 [16] (-9)
005F26  F5                 [17] (-8)
005F27  03                 [18] (-8)
005F28  00                 [19] (-8)
005F29  00                 [20] (-7)
005F2A  F5                 [21] (-7)
005F2B  03                 [22] (-7)
005F2C  00                 [23] (-7)
005F2D  00                 [24] (-6)
005F2E  F5                 [25] (-6)
005F2F  03                 [26] (-6)
005F30  00                 [27] (-6)
005F31  00                 [28] (-6)
005F32  F6                 [29] (-6)
005F33  03                 [30] (-4)
005F34  00                 [31] (-3)
                           * locals:
005F92  00                 sizelocvars (0)
                           * upvalues:
005F93  00                 sizeupvalues (0)
                           ** end of function **

                           
005F94                     ** function [31] definition (level 2)
                           ** start of function **
005F94  00                 string size (0)
                           source name: (none)
005F96  07                 line defined (1023)
005F97  81                 last line defined (1153)
005F98  09                 nups (30)
005F99  1E                 numparams (0)
005F9A  00                 is_vararg (0)
005F9B  00                 maxstacksize (42)
                           * code:
005F9E  02                 sizecode (349)
005F9F  1D000000           [001] getglobal  0   0        ; gRegion
005FA3  24404000           [002] self       0   0   257  ; -774964848
005FA7  22800001           [003] call       0   2   2  
005FAB  64804000           [004] self       1   0   258  ; 537471347
005FAF  62800001           [005] call       1   2   2  
005FB3  9DC00000           [006] getglobal  2   3        ; gGameRules
005FB7  E4004101           [007] self       3   2   260  ; -317790213
005FBB  53010000           [008] getupval   5   0      
005FBF  E2808001           [009] call       3   3   2  
005FC3  1D010000           [010] getglobal  4   0        ; gRegion
005FC7  24414102           [011] self       4   4   261  ; -2071158816
005FCB  22810001           [012] call       4   2   2  
005FCF  46018002           [013] loadnil    5   5      
005FD3  A4014101           [014] self       6   2   260  ; -317790213
005FD7  13028000           [015] getupval   8   1      
005FDB  A2818001           [016] call       6   3   2  
005FDF  C3808101           [017] add        3   3   6  
005FE3  E481C100           [018] self       7   1   262  ; -472735398
005FE7  E2810001           [019] call       7   2   2  
005FEB  24C2C100           [020] self       8   1   263  ; -354168336
005FEF  22820001           [021] call       8   2   2  
005FF3  46028004           [022] loadnil    9   9      
005FF7  93020001           [023] getupval   10  2      
005FFB  A2828000           [024] call       10  1   2  
005FFF  98020000           [025] test       10      0    ; to [27] if true
006003  1A400680           [026] jmp        26           ; to [53]
006007  93020002           [027] getupval   10  4      
00600B  A2828000           [028] call       10  1   2  
fail op	8
00600F  88028001           [029] setupval   10  3      
006013  93020002           [030] getupval   10  4      
006017  A2828000           [031] call       10  1   2  
fail op	8
00601B  88028002           [032] setupval   10  5      
00601F  93020003           [033] getupval   10  6      
006023  8E024205           [034] gettable   10  10  264  ; 1280353250
006027  A2828000           [035] call       10  1   2  
00602B  98020000           [036] test       10      0    ; to [38] if true
00602F  1AC00180           [037] jmp        8            ; to [46]
006033  9D420200           [038] getglobal  10  9        ; math
006037  8E824205           [039] gettable   10  10  266  ; -1962864584
00603B  D2020004           [040] move       11  8      
00603F  13038003           [041] getupval   12  7      
006043  03038303           [042] add        12  7   12 
006047  A2828001           [043] call       10  3   2  
00604B  12020005           [044] move       8   10     
00604F  1A800180           [045] jmp        7            ; to [53]
006053  9D420200           [046] getglobal  10  9        ; math
006057  8E824205           [047] gettable   10  10  266  ; -1962864584
00605B  D2020004           [048] move       11  8      
00605F  13030004           [049] getupval   12  8      
006063  03038303           [050] add        12  7   12 
006067  A2828001           [051] call       10  3   2  
00606B  12020005           [052] move       8   10     
00606F  93028004           [053] getupval   10  9      
006073  A2828000           [054] call       10  1   2  
006077  98020000           [055] test       10      0    ; to [57] if true
00607B  1AC00080           [056] jmp        4            ; to [61]
00607F  93020005           [057] getupval   10  10     
fail op	8
006083  88028001           [058] setupval   10  3      
006087  93028005           [059] getupval   10  11     
fail op	8
00608B  88028002           [060] setupval   10  5      
00608F  93028001           [061] getupval   10  3      
fail op	21
006093  15C00005           [062] concat     0   10  3  
006097  1A800580           [063] jmp        23           ; to [87]
00609B  9D420200           [064] getglobal  10  9        ; math
00609F  8E824205           [065] gettable   10  10  266  ; -1962864584
0060A3  DD420200           [066] getglobal  11  9        ; math
0060A7  CEC2C205           [067] gettable   11  11  267  ; -150971781
0060AB  13030006           [068] getupval   12  12     
0060AF  53038001           [069] getupval   13  3      
0060B3  4D438301           [070] sub        13  3   13 
0060B7  93030006           [071] getupval   14  12     
0060BB  5C838306           [072] div        13  13  14 
0060BF  93038006           [073] getupval   14  13     
0060C3  44838306           [074] mul        13  13  14 
0060C7  0D430306           [075] sub        12  12  13 
0060CB  E2820001           [076] call       11  2   2  
0060CF  13030007           [077] getupval   12  14     
0060D3  A2828001           [078] call       10  3   2  
0060D7  DD420200           [079] getglobal  11  9        ; math
0060DB  CEC2C205           [080] gettable   11  11  267  ; -150971781
0060DF  13038001           [081] getupval   12  3      
0060E3  0D038301           [082] sub        12  3   12 
0060E7  1C830206           [083] div        12  12  10 
0060EB  E2820001           [084] call       11  2   2  
0060EF  43C20204           [085] add        9   8   11 
0060F3  1AC00180           [086] jmp        8            ; to [95]
0060F7  D3028002           [087] getupval   11  5      
0060FB  DCC28201           [088] div        11  3   11 
0060FF  1D030300           [089] getglobal  12  12       ; -1828500651
006103  52038003           [090] move       13  7      
006107  92030004           [091] move       14  8      
00610B  D2038005           [092] move       15  11     
00610F  22830002           [093] call       12  4   2  
006113  52020006           [094] move       9   12     
006117  1D430200           [095] getglobal  12  9        ; math
00611B  0E434306           [096] gettable   12  12  269  ; 1710846250
00611F  52038004           [097] move       13  9      
006123  99830300           [098] loadk      14  14       ; 0
006127  22838001           [099] call       12  3   2  
00612B  52020006           [100] move       9   12     
00612F  1DC30300           [101] getglobal  12  15       ; _T
006133  0C430288           [102] settable   12  272 9    ; "EndlessModeEnemyLevel"
006137  24434401           [103] self       12  2   273  ; -1201441975
00613B  22830001           [104] call       12  2   2  
00613F  53038007           [105] getupval   13  15     
006143  93030001           [106] getupval   14  2      
006147  A2838000           [107] call       14  1   2  
00614B  98030000           [108] test       14      0    ; to [110] if true
00614F  1AC00480           [109] jmp        20           ; to [130]
006153  9D430200           [110] getglobal  14  9        ; math
006157  8E834207           [111] gettable   14  14  266  ; -1962864584
00615B  D9830400           [112] loadk      15  18       ; 0
00615F  13040002           [113] getupval   16  4      
006163  22848000           [114] call       16  1   2  
006167  0DC44408           [115] sub        16  16  275  ; 0
00616B  A2838001           [116] call       14  3   2  
00616F  D3038007           [117] getupval   15  15     
006173  DCC30307           [118] div        15  14  15 
006177  13040008           [119] getupval   16  16     
fail op	21
00617B  15008407           [120] concat     0   15  16 
00617F  1A400080           [121] jmp        2            ; to [124]
006183  D3030008           [122] getupval   15  16     
006187  5CC30307           [123] div        13  14  15 
00618B  D3030003           [124] getupval   15  6      
00618F  CE03C207           [125] gettable   15  15  264  ; 1280353250
006193  E2838000           [126] call       15  1   2  
006197  D8030000           [127] test       15      0    ; to [129] if true
00619B  1A000080           [128] jmp        1            ; to [130]
00619F  4403C506           [129] mul        13  13  276  ; 0
0061A3  DD430200           [130] getglobal  15  9        ; math
0061A7  CEC3C207           [131] gettable   15  15  267  ; -150971781
0061AB  1C448301           [132] div        16  3   13 
0061AF  E2830001           [133] call       15  2   2  
0061B3  13048008           [134] getupval   16  17     
0061B7  C4038407           [135] mul        15  15  16 
0061BB  1D440200           [136] getglobal  16  9        ; math
0061BF  0E844208           [137] gettable   16  16  266  ; -1962864584
0061C3  52048007           [138] move       17  15     
0061C7  99440500           [139] loadk      18  21       ; 0
0061CB  22848001           [140] call       16  3   2  
0061CF  D2030008           [141] move       15  16     
0061D3  1D440200           [142] getglobal  16  9        ; math
0061D7  0E444308           [143] gettable   16  16  269  ; 1710846250
0061DB  52048007           [144] move       17  15     
0061DF  93040008           [145] getupval   18  16     
0061E3  22848001           [146] call       16  3   2  
0061E7  D2030008           [147] move       15  16     
0061EB  2484C500           [148] self       16  1   278  ; -207649908
0061EF  92048007           [149] move       18  15     
0061F3  22448001           [150] call       16  3   1  
0061F7  17040000           [151] loadbool   16  0   0    ; false
0061FB  53040009           [152] getupval   17  18     
0061FF  62848000           [153] call       17  1   2  
006203  93048009           [154] getupval   18  19     
006207  DD040300           [155] getglobal  19  12       ; -1828500651
00620B  1305000A           [156] getupval   20  20     
00620F  5305800A           [157] getupval   21  21     
006213  92058008           [158] move       22  17     
006217  E2840002           [159] call       19  4   2  
00621B  83C40409           [160] add        18  18  19 
00621F  D304000B           [161] getupval   19  22     
006223  1D050300           [162] getglobal  20  12       ; -1828500651
006227  5305000A           [163] getupval   21  20     
00622B  9305800A           [164] getupval   22  21     
00622F  D2058008           [165] move       23  17     
006233  22850002           [166] call       20  4   2  
006237  C3048509           [167] add        19  19  20 
00623B  1305800B           [168] getupval   20  23     
00623F  5305000C           [169] getupval   21  24     
006243  8EC54506           [170] gettable   22  12  279  ; "leadersAlwaysAllowed"
006247  98050000           [171] test       22      0    ; to [173] if true
00624B  1A800580           [172] jmp        23           ; to [196]
00624F  8E054606           [173] gettable   22  12  280  ; "sortieId"
fail op	35
006253  2340460B           [174] close      0  
006257  1A400180           [175] jmp        6            ; to [182]
00625B  8E854606           [176] gettable   22  12  282  ; "alertId"
fail op	35
00625F  2340460B           [177] close      0  
006263  1A800080           [178] jmp        3            ; to [182]
006267  8EC54606           [179] gettable   22  12  283  ; "goalId"
fail op	35
00626B  6340460B           [180] close      1  
00626F  1A400380           [181] jmp        14           ; to [196]
006273  9D050700           [182] getglobal  22  28       ; 1668611480
006277  C4454709           [183] mul        23  18  285  ; -51
00627B  19860700           [184] loadk      24  30       ; 0
00627F  52060009           [185] move       25  18     
006283  A2850002           [186] call       22  4   2  
006287  9204000B           [187] move       18  22     
00628B  9D050700           [188] getglobal  22  28       ; 1668611480
00628F  C445C709           [189] mul        23  19  285  ; -51
006293  19860700           [190] loadk      24  30       ; 0
006297  52068009           [191] move       25  19     
00629B  A2850002           [192] call       22  4   2  
00629F  D204000B           [193] move       19  22     
0062A3  04C5470A           [194] mul        20  20  287  ; 0
0062A7  44C5C70A           [195] mul        21  21  287  ; 0
fail op	33
0062AB  21C00009           [196] tforloop   0       3    ; to [198] if exit
0062AF  1A400480           [197] jmp        18           ; to [216]
0062B3  9D450200           [198] getglobal  22  9        ; math
0062B7  8E45430B           [199] gettable   22  22  269  ; 1710846250
0062BB  CD858401           [200] sub        23  3   18 
0062BF  0D868409           [201] sub        24  19  18 
0062C3  DC05860B           [202] div        23  23  24 
0062C7  19860700           [203] loadk      24  30       ; 0
0062CB  A2858001           [204] call       22  3   2  
0062CF  DD050300           [205] getglobal  23  12       ; -1828500651
0062D3  1206000A           [206] move       24  20     
0062D7  5206800A           [207] move       25  21     
0062DB  9206000B           [208] move       26  22     
0062DF  E2850002           [209] call       23  4   2  
0062E3  1D460200           [210] getglobal  24  9        ; math
0062E7  0E06480C           [211] gettable   24  24  288  ; -2040962569
0062EB  22868000           [212] call       24  1   2  
fail op	33
0062EF  21C0050C           [213] tforloop   0       23   ; to [215] if exit
0062F3  1A000080           [214] jmp        1            ; to [216]
0062F7  17048000           [215] loadbool   16  1   0    ; true
0062FB  4606800C           [216] loadnil    25  25     
0062FF  9D460800           [217] getglobal  26  33       ; 1074689893
006303  DDC60300           [218] getglobal  27  15       ; _T
006307  CE86C80D           [219] gettable   27  27  290  ; "gMiniBossArtifactSpawn"
00630B  A2860001           [220] call       26  2   2  
00630F  98460000           [221] test       26      1    ; to [223] if false
006313  1A401780           [222] jmp        94           ; to [317]
006317  A4064101           [223] self       26  2   260  ; -317790213
00631B  1307800C           [224] getupval   28  25     
00631F  A2868001           [225] call       26  3   2  
006323  CD86470D           [226] sub        27  26  286  ; 0
006327  DFC6C80D           [227] mod        27  27  291  ; 0
00632B  C3C6868F           [228] add        27  287 27   ; 0
00632F  1DC70300           [229] getglobal  28  15       ; _T
006333  0E07440E           [230] gettable   28  28  272  ; "EndlessModeEnemyLevel"
006337  6407C900           [231] self       29  1   292  ; 1842573415
00633B  DDC70300           [232] getglobal  31  15       ; _T
00633F  CE47C90F           [233] gettable   31  31  293  ; "faction"
006343  1208000E           [234] move       32  28     
006347  57088000           [235] loadbool   33  1   0    ; true
00634B  97080000           [236] loadbool   34  0   0    ; false
00634F  D208800D           [237] move       35  27     
006353  17098000           [238] loadbool   36  1   0    ; true
006357  62870004           [239] call       29  8   2  
00635B  9D470800           [240] getglobal  30  33       ; 1074689893
00635F  D207800E           [241] move       31  29     
006363  A2870001           [242] call       30  2   2  
006367  98070000           [243] test       30      0    ; to [245] if true
00636B  1A800280           [244] jmp        11           ; to [256]
00636F  D3060008           [245] getupval   27  16     
006373  A407C900           [246] self       30  1   292  ; 1842573415
006377  1DC80300           [247] getglobal  32  15       ; _T
00637B  0E484910           [248] gettable   32  32  293  ; "faction"
00637F  5208000E           [249] move       33  28     
006383  97088000           [250] loadbool   34  1   0    ; true
006387  D7080000           [251] loadbool   35  0   0    ; false
00638B  1209800D           [252] move       36  27     
00638F  57090000           [253] loadbool   37  0   0    ; false
006393  A2870004           [254] call       30  8   2  
006397  5207000F           [255] move       29  30     
00639B  A487C900           [256] self       30  1   294  ; -898367557
00639F  1DC80300           [257] getglobal  32  15       ; _T
0063A3  0E884810           [258] gettable   32  32  290  ; "gMiniBossArtifactSpawn"
0063A7  24C84910           [259] self       32  32  295  ; 1839670529
0063AB  22880001           [260] call       32  2   2  
0063AF  59880400           [261] loadk      33  18       ; 0
0063B3  99080A00           [262] loadk      34  40       ; 0
0063B7  D7088000           [263] loadbool   35  1   0    ; true
0063BB  19490700           [264] loadk      36  29       ; -51
0063BF  A2878003           [265] call       30  7   2  
0063C3  E447CA00           [266] self       31  1   297  ; 436282865
0063C7  5208800E           [267] move       33  29     
0063CB  9208000F           [268] move       34  30     
0063CF  DD880A00           [269] getglobal  35  42       ; 508519041
0063D3  E2888000           [270] call       35  1   2  
0063D7  1DC90A00           [271] getglobal  36  43       ; -332969190
0063DB  59090B00           [272] loadk      37  44       ; "MiniBossTeam"
0063DF  22890001           [273] call       36  2   2  
0063E3  5209000E           [274] move       37  28     
0063E7  86090013           [275] loadnil    38  38     
0063EB  DD490B00           [276] getglobal  39  45       ; Engine
0063EF  CE89CB13           [277] gettable   39  39  302  ; "EXIMUS"
0063F3  E2878004           [278] call       31  9   2  
0063F7  5206800F           [279] move       25  31     
0063FB  DD470800           [280] getglobal  31  33       ; 1074689893
0063FF  1208800C           [281] move       32  25     
006403  E2870001           [282] call       31  2   2  
006407  D8470000           [283] test       31      1    ; to [285] if false
00640B  1A800680           [284] jmp        27           ; to [312]
00640F  E4C7CB0C           [285] self       31  25  303  ; -2135866365
006413  E2870001           [286] call       31  2   2  
006417  13088004           [287] getupval   32  9      
00641B  22888000           [288] call       32  1   2  
00641F  18080000           [289] test       32      0    ; to [291] if true
006423  1AC00080           [290] jmp        4            ; to [295]
006427  2408CC0F           [291] self       32  31  304  ; 2080276352
00642B  9D480C00           [292] getglobal  34  49       ; kuvaConvertorDropTable
00642F  22488001           [293] call       32  3   1  
006433  1A000280           [294] jmp        9            ; to [304]
006437  1D880C00           [295] getglobal  32  50       ; table
00643B  0EC84C10           [296] gettable   32  32  307  ; -431682403
00643F  5308000D           [297] getupval   33  26     
006443  9208800C           [298] move       34  25     
006447  22488001           [299] call       32  3   1  
00644B  1308800D           [300] getupval   32  27     
00644F  5208800C           [301] move       33  25     
006453  92080002           [302] move       34  4      
006457  22488001           [303] call       32  3   1  
00645B  2408CD0F           [304] self       32  31  308  ; -1421644046
00645F  9D480D00           [305] getglobal  34  53       ; killMarkerType
006463  DDC80A00           [306] getglobal  35  43       ; -332969190
006467  19890D00           [307] loadk      36  54       ; "GAME_C1_SPINE3"
00646B  E2080001           [308] call       35  2   0  
00646F  22480000           [309] call       32  0   1  
006473  1DC80300           [310] getglobal  32  15       ; _T
006477  0CC84D91           [311] settable   32  290 311  ; "gMiniBossArtifactSpawn" nil
00647B  24084E01           [312] self       32  2   312  ; -803877924
00647F  9308000E           [313] getupval   34  28     
006483  D9480500           [314] loadk      35  21       ; 0
006487  22480002           [315] call       32  4   1  
00648B  1A800780           [316] jmp        31           ; to [348]
00648F  2448CE00           [317] self       32  1   313  ; 387241288
006493  92088002           [318] move       34  5      
006497  DDC80A00           [319] getglobal  35  43       ; -332969190
00649B  19890E00           [320] loadk      36  58       ; "RandomTeam"
00649F  E2880001           [321] call       35  2   2  
0064A3  12098004           [322] move       36  9      
0064A7  46098012           [323] loadnil    37  37     
0064AB  9309800E           [324] getupval   38  29     
0064AF  8EC94E13           [325] gettable   38  38  315  ; -132701534
0064B3  D2090008           [326] move       39  16     
0064B7  1D4A0B00           [327] getglobal  40  45       ; Engine
0064BB  0E8A4B14           [328] gettable   40  40  302  ; "EXIMUS"
0064BF  5D4A0B00           [329] getglobal  41  45       ; Engine
0064C3  4E0ACF14           [330] gettable   41  41  316  ; "STANDARD"
0064C7  A2090002           [331] call       38  4   0  
0064CB  22880000           [332] call       32  0   2  
0064CF  52060010           [333] move       25  32     
0064D3  1D480800           [334] getglobal  32  33       ; 1074689893
0064D7  5208800C           [335] move       33  25     
0064DB  22880001           [336] call       32  2   2  
0064DF  18480000           [337] test       32      1    ; to [339] if false
0064E3  1A000280           [338] jmp        9            ; to [348]
0064E7  1D880C00           [339] getglobal  32  50       ; table
0064EB  0EC84C10           [340] gettable   32  32  307  ; -431682403
0064EF  5308000D           [341] getupval   33  26     
0064F3  9208800C           [342] move       34  25     
0064F7  22488001           [343] call       32  3   1  
0064FB  1308800D           [344] getupval   32  27     
0064FF  5208800C           [345] move       33  25     
006503  92080002           [346] move       34  4      
006507  22488001           [347] call       32  3   1  
00650B  5E060001           [348] return     25  2      
00650F  1E008000           [349] return     0   1      
                           * constants:
006513  3D                 sizek (61)
006514  04                 const type 4
006515  08                 string size (8)
006516  67526567696F6E00   "gRegion\0"
                           const [0]: "gRegion"
00651E  01                 const type 3
00651F  90F9CED1           const [1]: (-774964848)
006523  01                 const type 3
006524  73290920           const [2]: (537471347)
006528  04                 const type 4
006529  0B                 string size (11)
00652A  6747616D6552756C+  "gGameRul"
006532  657300             "es\0"
                           const [3]: "gGameRules"
006535  01                 const type 3
006536  FBE70EED           const [4]: (-317790213)
00653A  01                 const type 3
00653B  E09F8C84           const [5]: (-2071158816)
00653F  01                 const type 3
006540  5AA1D2E3           const [6]: (-472735398)
006544  01                 const type 3
006545  F0D1E3EA           const [7]: (-354168336)
006549  01                 const type 3
00654A  E2A3504C           const [8]: (1280353250)
00654E  04                 const type 4
00654F  05                 string size (5)
006550  6D61746800         "math\0"
                           const [9]: "math"
006555  01                 const type 3
006556  3810018B           const [10]: (-1962864584)
00655A  01                 const type 3
00655B  7B5A00F7           const [11]: (-150971781)
00655F  01                 const type 3
006560  554B0393           const [12]: (-1828500651)
006564  01                 const type 3
006565  2A71F965           const [13]: (1710846250)
006569  03                 const type 3
00656A  003C1C46           const [14]: (0)
00656E  04                 const type 4
00656F  03                 string size (3)
006570  5F5400             "_T\0"
                           const [15]: "_T"
006573  04                 const type 4
006574  16                 string size (22)
006575  456E646C6573734D+  "EndlessM"
00657D  6F6465456E656D79+  "odeEnemy"
006585  4C6576656C00       "Level\0"
                           const [16]: "EndlessModeEnemyLevel"
00658B  01                 const type 3
00658C  497363B8           const [17]: (-1201441975)
006590  03                 const type 3
006591  0000A040           const [18]: (0)
006595  03                 const type 3
006596  00009643           const [19]: (0)
00659A  03                 const type 3
00659B  0000003F           const [20]: (0)
00659F  03                 const type 3
0065A0  00000000           const [21]: (0)
0065A4  01                 const type 3
0065A5  8C839FF3           const [22]: (-207649908)
0065A9  04                 const type 4
0065AA  15                 string size (21)
0065AB  6C65616465727341+  "leadersA"
0065B3  6C77617973416C6C+  "lwaysAll"
0065BB  6F77656400         "owed\0"
                           const [23]: "leadersAlwaysAllowed"
0065C0  04                 const type 4
0065C1  09                 string size (9)
0065C2  736F727469654964+  "sortieId"
0065CA  00                 "\0"
                           const [24]: "sortieId"
0065CB  04                 const type 4
0065CC  01                 string size (0)
                           const [25]: ""
0065CE  04                 const type 4
0065CF  08                 string size (8)
0065D0  616C657274496400   "alertId\0"
                           const [26]: "alertId"
0065D8  04                 const type 4
0065D9  07                 string size (7)
0065DA  676F616C496400     "goalId\0"
                           const [27]: "goalId"
0065E1  01                 const type 3
0065E2  98FD7463           const [28]: (1668611480)
0065E6  03                 const type 3
0065E7  CDCCCC3D           const [29]: (-51)
0065EB  03                 const type 3
0065EC  0000803F           const [30]: (0)
0065F0  03                 const type 3
0065F1  00002041           const [31]: (0)
0065F5  01                 const type 3
0065F6  F7615986           const [32]: (-2040962569)
0065FA  01                 const type 3
0065FB  65770E40           const [33]: (1074689893)
0065FF  04                 const type 4
006600  17                 string size (23)
006601  674D696E69426F73+  "gMiniBos"
006609  7341727469666163+  "sArtifac"
006611  74537061776E00     "tSpawn\0"
                           const [34]: "gMiniBossArtifactSpawn"
006618  03                 const type 3
006619  00004040           const [35]: (0)
00661D  01                 const type 3
00661E  6770D36D           const [36]: (1842573415)
006622  04                 const type 4
006623  08                 string size (8)
006624  66616374696F6E00   "faction\0"
                           const [37]: "faction"
00662C  01                 const type 3
00662D  BBFF73CA           const [38]: (-898367557)
006631  01                 const type 3
006632  0125A76D           const [39]: (1839670529)
006636  03                 const type 3
006637  00000C42           const [40]: (0)
00663B  01                 const type 3
00663C  F125011A           const [41]: (436282865)
006640  01                 const type 3
006641  81624F1E           const [42]: (508519041)
006645  01                 const type 3
006646  1A4B27EC           const [43]: (-332969190)
00664A  04                 const type 4
00664B  0D                 string size (13)
00664C  4D696E69426F7373+  "MiniBoss"
006654  5465616D00         "Team\0"
                           const [44]: "MiniBossTeam"
006659  04                 const type 4
00665A  07                 string size (7)
00665B  456E67696E6500     "Engine\0"
                           const [45]: "Engine"
006662  04                 const type 4
006663  07                 string size (7)
006664  4558494D555300     "EXIMUS\0"
                           const [46]: "EXIMUS"
00666B  01                 const type 3
00666C  0344B180           const [47]: (-2135866365)
006670  01                 const type 3
006671  807FFE7B           const [48]: (2080276352)
006675  04                 const type 4
006676  17                 string size (23)
006677  6B757661436F6E76+  "kuvaConv"
00667F  6572746F7244726F+  "ertorDro"
006687  705461626C6500     "pTable\0"
                           const [49]: "kuvaConvertorDropTable"
00668E  04                 const type 4
00668F  06                 string size (6)
006690  7461626C6500       "table\0"
                           const [50]: "table"
006696  01                 const type 3
006697  9D0C45E6           const [51]: (-431682403)
00669B  01                 const type 3
00669C  F26E43AB           const [52]: (-1421644046)
0066A0  04                 const type 4
0066A1  0F                 string size (15)
0066A2  6B696C6C4D61726B+  "killMark"
0066AA  65725479706500     "erType\0"
                           const [53]: "killMarkerType"
0066B1  04                 const type 4
0066B2  0F                 string size (15)
0066B3  47414D455F43315F+  "GAME_C1_"
0066BB  5350494E453300     "SPINE3\0"
                           const [54]: "GAME_C1_SPINE3"
0066C2  00                 const type 0
                           const [55]: nil
0066C3  01                 const type 3
0066C4  DCCB15D0           const [56]: (-803877924)
0066C8  01                 const type 3
0066C9  48D51417           const [57]: (387241288)
0066CD  04                 const type 4
0066CE  0B                 string size (11)
0066CF  52616E646F6D5465+  "RandomTe"
0066D7  616D00             "am\0"
                           const [58]: "RandomTeam"
0066DA  01                 const type 3
0066DB  A22217F8           const [59]: (-132701534)
0066DF  04                 const type 4
0066E0  09                 string size (9)
0066E1  5354414E44415244+  "STANDARD"
0066E9  00                 "\0"
                           const [60]: "STANDARD"
                           * functions:
0066EA  00                 sizep (0)
                           * lines:
0066EC  02                 sizelineinfo (349)
                           [pc] (line)
0066ED  00                 [001] (0)
0066EE  04                 [002] (0)
0066EF  00                 [003] (0)
0066F0  00                 [004] (1)
0066F1  00                 [005] (1)
0066F2  04                 [006] (2)
0066F3  00                 [007] (3)
0066F4  00                 [008] (3)
0066F5  00                 [009] (3)
0066F6  04                 [010] (4)
0066F7  00                 [011] (4)
0066F8  00                 [012] (4)
0066F9  01                 [013] (5)
0066FA  04                 [014] (8)
0066FB  00                 [015] (8)
0066FC  00                 [016] (8)
0066FD  01                 [017] (9)
0066FE  04                 [018] (12)
0066FF  00                 [019] (12)
006700  00                 [020] (13)
006701  02                 [021] (13)
006702  04                 [022] (14)
006703  00                 [023] (16)
006704  00                 [024] (16)
006705  03                 [025] (16)
006706  04                 [026] (16)
006707  00                 [027] (17)
006708  00                 [028] (17)
006709  03                 [029] (17)
00670A  04                 [030] (18)
00670B  00                 [031] (18)
00670C  00                 [032] (18)
00670D  03                 [033] (19)
00670E  04                 [034] (19)
00670F  00                 [035] (19)
006710  00                 [036] (19)
006711  04                 [037] (19)
006712  04                 [038] (20)
006713  00                 [039] (20)
006714  00                 [040] (20)
006715  04                 [041] (20)
006716  04                 [042] (20)
006717  00                 [043] (20)
006718  00                 [044] (20)
006719  04                 [045] (20)
00671A  04                 [046] (22)
00671B  00                 [047] (22)
00671C  00                 [048] (22)
00671D  05                 [049] (22)
00671E  04                 [050] (22)
00671F  00                 [051] (22)
006720  00                 [052] (22)
006721  08                 [053] (26)
006722  04                 [054] (26)
006723  00                 [055] (26)
006724  00                 [056] (26)
006725  08                 [057] (27)
006726  04                 [058] (27)
006727  00                 [059] (28)
006728  00                 [060] (28)
006729  08                 [061] (31)
00672A  04                 [062] (31)
00672B  00                 [063] (31)
00672C  00                 [064] (32)
00672D  09                 [065] (32)
00672E  04                 [066] (32)
00672F  00                 [067] (32)
006730  00                 [068] (32)
006731  0C                 [069] (32)
006732  04                 [070] (32)
006733  00                 [071] (32)
006734  00                 [072] (32)
006735  0C                 [073] (32)
006736  04                 [074] (32)
006737  00                 [075] (32)
006738  00                 [076] (32)
006739  0D                 [077] (32)
00673A  04                 [078] (32)
00673B  00                 [079] (33)
00673C  00                 [080] (33)
00673D  0D                 [081] (33)
00673E  04                 [082] (33)
00673F  00                 [083] (33)
006740  00                 [084] (33)
006741  0E                 [085] (33)
006742  04                 [086] (33)
006743  00                 [087] (35)
006744  00                 [088] (35)
006745  10                 [089] (36)
006746  04                 [090] (36)
006747  00                 [091] (36)
006748  00                 [092] (36)
006749  10                 [093] (36)
00674A  04                 [094] (36)
00674B  00                 [095] (39)
00674C  00                 [096] (39)
00674D  10                 [097] (39)
00674E  04                 [098] (39)
00674F  00                 [099] (39)
006750  00                 [100] (39)
006751  10                 [101] (40)
006752  04                 [102] (40)
006753  00                 [103] (51)
006754  00                 [104] (51)
006755  11                 [105] (52)
006756  04                 [106] (53)
006757  00                 [107] (53)
006758  00                 [108] (53)
006759  11                 [109] (53)
00675A  04                 [110] (54)
00675B  00                 [111] (54)
00675C  00                 [112] (54)
00675D  11                 [113] (54)
00675E  04                 [114] (54)
00675F  00                 [115] (54)
006760  00                 [116] (54)
006761  12                 [117] (55)
006762  04                 [118] (55)
006763  00                 [119] (55)
006764  00                 [120] (55)
006765  12                 [121] (55)
006766  04                 [122] (56)
006767  00                 [123] (56)
006768  00                 [124] (58)
006769  12                 [125] (58)
00676A  04                 [126] (58)
00676B  00                 [127] (58)
00676C  00                 [128] (58)
00676D  13                 [129] (59)
00676E  04                 [130] (62)
00676F  00                 [131] (62)
006770  00                 [132] (62)
006771  13                 [133] (62)
006772  04                 [134] (62)
006773  00                 [135] (62)
006774  00                 [136] (63)
006775  13                 [137] (63)
006776  04                 [138] (63)
006777  00                 [139] (63)
006778  00                 [140] (63)
006779  13                 [141] (63)
00677A  04                 [142] (64)
00677B  00                 [143] (64)
00677C  00                 [144] (64)
00677D  13                 [145] (64)
00677E  04                 [146] (64)
00677F  00                 [147] (64)
006780  00                 [148] (65)
006781  14                 [149] (65)
006782  04                 [150] (65)
006783  00                 [151] (68)
006784  00                 [152] (69)
006785  14                 [153] (69)
006786  04                 [154] (70)
006787  00                 [155] (70)
006788  00                 [156] (70)
006789  14                 [157] (70)
00678A  04                 [158] (70)
00678B  00                 [159] (70)
00678C  00                 [160] (70)
00678D  14                 [161] (71)
00678E  04                 [162] (71)
00678F  00                 [163] (71)
006790  00                 [164] (71)
006791  14                 [165] (71)
006792  04                 [166] (71)
006793  00                 [167] (71)
006794  00                 [168] (72)
006795  14                 [169] (73)
006796  04                 [170] (75)
006797  00                 [171] (75)
006798  00                 [172] (75)
006799  14                 [173] (75)
00679A  04                 [174] (75)
00679B  00                 [175] (75)
00679C  00                 [176] (75)
00679D  14                 [177] (75)
00679E  04                 [178] (75)
00679F  00                 [179] (75)
0067A0  00                 [180] (75)
0067A1  16                 [181] (75)
0067A2  04                 [182] (76)
0067A3  00                 [183] (76)
0067A4  00                 [184] (76)
0067A5  16                 [185] (76)
0067A6  04                 [186] (76)
0067A7  00                 [187] (76)
0067A8  00                 [188] (77)
0067A9  16                 [189] (77)
0067AA  04                 [190] (77)
0067AB  00                 [191] (77)
0067AC  00                 [192] (77)
0067AD  16                 [193] (77)
0067AE  04                 [194] (78)
0067AF  00                 [195] (79)
0067B0  00                 [196] (82)
0067B1  16                 [197] (82)
0067B2  04                 [198] (83)
0067B3  00                 [199] (83)
0067B4  00                 [200] (83)
0067B5  16                 [201] (83)
0067B6  04                 [202] (83)
0067B7  00                 [203] (83)
0067B8  00                 [204] (83)
0067B9  16                 [205] (84)
0067BA  04                 [206] (84)
0067BB  00                 [207] (84)
0067BC  00                 [208] (84)
0067BD  1A                 [209] (84)
0067BE  04                 [210] (85)
0067BF  00                 [211] (85)
0067C0  00                 [212] (85)
0067C1  1A                 [213] (86)
0067C2  04                 [214] (86)
0067C3  00                 [215] (87)
0067C4  00                 [216] (92)
0067C5  1A                 [217] (94)
0067C6  04                 [218] (94)
0067C7  00                 [219] (94)
0067C8  00                 [220] (94)
0067C9  1A                 [221] (94)
0067CA  04                 [222] (94)
0067CB  00                 [223] (95)
0067CC  00                 [224] (95)
0067CD  1B                 [225] (95)
0067CE  04                 [226] (96)
0067CF  00                 [227] (96)
0067D0  00                 [228] (96)
0067D1  1B                 [229] (97)
0067D2  04                 [230] (97)
0067D3  00                 [231] (98)
0067D4  00                 [232] (98)
0067D5  1C                 [233] (98)
0067D6  04                 [234] (98)
0067D7  00                 [235] (98)
0067D8  00                 [236] (98)
0067D9  1C                 [237] (98)
0067DA  04                 [238] (98)
0067DB  00                 [239] (98)
0067DC  00                 [240] (99)
0067DD  1F                 [241] (99)
0067DE  04                 [242] (99)
0067DF  00                 [243] (99)
0067E0  00                 [244] (99)
0067E1  1F                 [245] (100)
0067E2  04                 [246] (101)
0067E3  00                 [247] (101)
0067E4  00                 [248] (101)
0067E5  1F                 [249] (101)
0067E6  04                 [250] (101)
0067E7  00                 [251] (101)
0067E8  00                 [252] (101)
0067E9  20                 [253] (101)
0067EA  04                 [254] (101)
0067EB  00                 [255] (101)
0067EC  00                 [256] (104)
0067ED  20                 [257] (104)
0067EE  04                 [258] (104)
0067EF  00                 [259] (104)
0067F0  00                 [260] (104)
0067F1  20                 [261] (104)
0067F2  04                 [262] (104)
0067F3  00                 [263] (104)
0067F4  00                 [264] (104)
0067F5  20                 [265] (104)
0067F6  04                 [266] (105)
0067F7  00                 [267] (105)
0067F8  00                 [268] (105)
0067F9  20                 [269] (105)
0067FA  04                 [270] (105)
0067FB  00                 [271] (105)
0067FC  00                 [272] (105)
0067FD  20                 [273] (105)
0067FE  04                 [274] (105)
0067FF  00                 [275] (105)
006800  00                 [276] (105)
006801  20                 [277] (105)
006802  04                 [278] (105)
006803  00                 [279] (105)
006804  00                 [280] (108)
006805  20                 [281] (108)
006806  04                 [282] (108)
006807  00                 [283] (108)
006808  00                 [284] (108)
006809  20                 [285] (109)
00680A  04                 [286] (109)
00680B  00                 [287] (110)
00680C  00                 [288] (110)
00680D  20                 [289] (110)
00680E  04                 [290] (110)
00680F  00                 [291] (111)
006810  00                 [292] (111)
006811  20                 [293] (111)
006812  04                 [294] (111)
006813  00                 [295] (113)
006814  00                 [296] (113)
006815  20                 [297] (113)
006816  04                 [298] (113)
006817  00                 [299] (113)
006818  00                 [300] (114)
006819  20                 [301] (114)
00681A  04                 [302] (114)
00681B  00                 [303] (114)
00681C  00                 [304] (116)
00681D  20                 [305] (116)
00681E  04                 [306] (116)
00681F  00                 [307] (116)
006820  00                 [308] (116)
006821  20                 [309] (116)
006822  04                 [310] (117)
006823  00                 [311] (117)
006824  00                 [312] (119)
006825  21                 [313] (119)
006826  04                 [314] (119)
006827  00                 [315] (119)
006828  00                 [316] (119)
006829  21                 [317] (121)
00682A  04                 [318] (121)
00682B  00                 [319] (121)
00682C  00                 [320] (121)
00682D  21                 [321] (121)
00682E  04                 [322] (121)
00682F  00                 [323] (121)
006830  00                 [324] (121)
006831  21                 [325] (121)
006832  04                 [326] (121)
006833  00                 [327] (121)
006834  00                 [328] (121)
006835  21                 [329] (121)
006836  04                 [330] (121)
006837  00                 [331] (121)
006838  00                 [332] (121)
006839  21                 [333] (121)
00683A  04                 [334] (122)
00683B  00                 [335] (122)
00683C  00                 [336] (122)
00683D  21                 [337] (122)
00683E  04                 [338] (122)
00683F  00                 [339] (123)
006840  00                 [340] (123)
006841  21                 [341] (123)
006842  04                 [342] (123)
006843  00                 [343] (123)
006844  00                 [344] (124)
006845  23                 [345] (124)
006846  04                 [346] (124)
006847  00                 [347] (124)
006848  00                 [348] (-128)
006849  23                 [349] (-127)
                           * locals:
006C61  00                 sizelocvars (0)
                           * upvalues:
006C62  00                 sizeupvalues (0)
                           ** end of function **

                           
006C63                     ** function [32] definition (level 2)
                           ** start of function **
006C63  00                 string size (0)
                           source name: (none)
006C65  09                 line defined (1155)
006C66  9A                 last line defined (1178)
006C67  09                 nups (5)
006C68  05                 numparams (1)
006C69  01                 is_vararg (0)
006C6A  00                 maxstacksize (6)
                           * code:
006C6C  2D                 sizecode (45)
006C6D  59000000           [01] loadk      1   0        ; 0
006C71  93000000           [02] getupval   2   0      
006C75  A2408000           [03] call       2   1   1  
006C79  93008000           [04] getupval   2   1      
006C7D  A2808000           [05] call       2   1   2  
006C81  98000000           [06] test       2       0    ; to [8] if true
006C85  1AC00880           [07] jmp        36           ; to [44]
006C89  9D400000           [08] getglobal  2   1        ; math
006C8D  8E804001           [09] gettable   2   2   258  ; -1962864584
006C91  D3000001           [10] getupval   3   2      
006C95  CD008001           [11] sub        3   3   0  
fail op	0
006C99  00010000           [12] move       4   0      
006C9D  A2808001           [13] call       2   3   2  
fail op	8
006CA1  88000001           [14] setupval   2   2      
006CA5  93008000           [15] getupval   2   1      
006CA9  A2808000           [16] call       2   1   2  
006CAD  98000000           [17] test       2       0    ; to [19] if true
006CB1  1A000680           [18] jmp        25           ; to [44]
006CB5  93000001           [19] getupval   2   2      
fail op	21
006CB9  55800080           [20] concat     1   256 2  
006CBD  1A400580           [21] jmp        22           ; to [44]
fail op	33
006CC1  21400000           [22] tforloop   0       1    ; to [24] if exit
006CC5  1A000080           [23] jmp        1            ; to [25]
006CC9  1A800480           [24] jmp        19           ; to [44]
006CCD  93008001           [25] getupval   2   3      
006CD1  A2808000           [26] call       2   1   2  
006CD5  DDC00000           [27] getglobal  3   3        ; 1074689893
006CD9  12010001           [28] move       4   2      
006CDD  E2800001           [29] call       3   2   2  
006CE1  D8400000           [30] test       3       1    ; to [32] if false
006CE5  1A000180           [31] jmp        5            ; to [37]
006CE9  D3000002           [32] getupval   3   4      
006CED  E2808000           [33] call       3   1   2  
006CF1  13010001           [34] getupval   4   2      
006CF5  03C10002           [35] add        4   4   3  
fail op	8
006CF9  08010001           [36] setupval   4   2      
006CFD  1D010100           [37] getglobal  4   4        ; 1289681407
006D01  22818000           [38] call       4   1   2  
006D05  43008100           [39] add        1   1   4  
006D09  1D410100           [40] getglobal  4   5        ; 538022378
006D0D  59010000           [41] loadk      5   0        ; 0
006D11  22410001           [42] call       4   2   1  
006D15  1A80F87F           [43] jmp        -29          ; to [15]
006D19  5E000001           [44] return     1   2      
006D1D  1E008000           [45] return     0   1      
                           * constants:
006D21  06                 sizek (6)
006D22  03                 const type 3
006D23  00000000           const [0]: (0)
006D27  04                 const type 4
006D28  05                 string size (5)
006D29  6D61746800         "math\0"
                           const [1]: "math"
006D2E  01                 const type 3
006D2F  3810018B           const [2]: (-1962864584)
006D33  01                 const type 3
006D34  65770E40           const [3]: (1074689893)
006D38  01                 const type 3
006D39  FFF9DE4C           const [4]: (1289681407)
006D3D  01                 const type 3
006D3E  EA911120           const [5]: (538022378)
                           * functions:
006D42  00                 sizep (0)
                           * lines:
006D43  2D                 sizelineinfo (45)
                           [pc] (line)
006D44  84                 [01] (-124)
006D45  04                 [02] (-123)
006D46  00                 [03] (-123)
006D47  00                 [04] (-121)
006D48  85                 [05] (-121)
006D49  04                 [06] (-121)
006D4A  00                 [07] (-121)
006D4B  00                 [08] (-120)
006D4C  85                 [09] (-120)
006D4D  04                 [10] (-120)
006D4E  00                 [11] (-120)
006D4F  00                 [12] (-120)
006D50  87                 [13] (-120)
006D51  04                 [14] (-120)
006D52  00                 [15] (-119)
006D53  00                 [16] (-119)
006D54  87                 [17] (-119)
006D55  04                 [18] (-119)
006D56  00                 [19] (-118)
006D57  00                 [20] (-118)
006D58  87                 [21] (-118)
006D59  04                 [22] (-118)
006D5A  00                 [23] (-118)
006D5B  00                 [24] (-117)
006D5C  87                 [25] (-114)
006D5D  04                 [26] (-114)
006D5E  00                 [27] (-113)
006D5F  00                 [28] (-113)
006D60  88                 [29] (-113)
006D61  04                 [30] (-113)
006D62  00                 [31] (-113)
006D63  00                 [32] (-112)
006D64  88                 [33] (-112)
006D65  04                 [34] (-111)
006D66  00                 [35] (-111)
006D67  00                 [36] (-111)
006D68  88                 [37] (-107)
006D69  04                 [38] (-107)
006D6A  00                 [39] (-107)
006D6B  00                 [40] (-106)
006D6C  88                 [41] (-106)
006D6D  04                 [42] (-106)
006D6E  00                 [43] (-106)
006D6F  00                 [44] (-103)
006D70  88                 [45] (-102)
                           * locals:
006DF8  00                 sizelocvars (0)
                           * upvalues:
006DF9  00                 sizeupvalues (0)
                           ** end of function **

                           
006DFA                     ** function [33] definition (level 2)
                           ** start of function **
006DFA  00                 string size (0)
                           source name: (none)
006DFC  09                 line defined (1182)
006DFD  A2                 last line defined (1186)
006DFE  09                 nups (1)
006DFF  01                 numparams (0)
006E00  00                 is_vararg (0)
006E01  00                 maxstacksize (6)
                           * code:
006E03  09                 sizecode (9)
006E04  1D000000           [1] getglobal  0   0        ; gGameRules
006E08  64404000           [2] self       1   0   257  ; -317790213
006E0C  D3000000           [3] getupval   3   0      
006E10  62808001           [4] call       1   3   2  
006E14  A4804000           [5] self       2   0   258  ; -803877924
006E18  13010000           [6] getupval   4   0      
006E1C  43C1C000           [7] add        5   1   259  ; 0
006E20  A2400002           [8] call       2   4   1  
006E24  1E008000           [9] return     0   1      
                           * constants:
006E28  04                 sizek (4)
006E29  04                 const type 4
006E2A  0B                 string size (11)
006E2B  6747616D6552756C+  "gGameRul"
006E33  657300             "es\0"
                           const [0]: "gGameRules"
006E36  01                 const type 3
006E37  FBE70EED           const [1]: (-317790213)
006E3B  01                 const type 3
006E3C  DCCB15D0           const [2]: (-803877924)
006E40  03                 const type 3
006E41  0000803F           const [3]: (0)
                           * functions:
006E45  00                 sizep (0)
                           * lines:
006E46  09                 sizelineinfo (9)
                           [pc] (line)
006E47  9F                 [1] (-97)
006E48  04                 [2] (-96)
006E49  00                 [3] (-96)
006E4A  00                 [4] (-96)
006E4B  A0                 [5] (-95)
006E4C  04                 [6] (-95)
006E4D  00                 [7] (-95)
006E4E  00                 [8] (-95)
006E4F  A0                 [9] (-94)
                           * locals:
006E6B  00                 sizelocvars (0)
                           * upvalues:
006E6C  00                 sizeupvalues (0)
                           ** end of function **

                           
006E6D                     ** function [34] definition (level 2)
                           ** start of function **
006E6D  00                 string size (0)
                           source name: (none)
006E6F  09                 line defined (1188)
006E70  A6                 last line defined (1190)
006E71  09                 nups (0)
006E72  00                 numparams (1)
006E73  01                 is_vararg (0)
006E74  00                 maxstacksize (4)
                           * code:
006E76  05                 sizecode (5)
006E77  5D000000           [1] getglobal  1   0        ; -1799570112
006E7B  92000000           [2] move       2   0      
006E7F  D9400000           [3] loadk      3   1        ; "OnActivated"
006E83  62408001           [4] call       1   3   1  
006E87  1E008000           [5] return     0   1      
                           * constants:
006E8B  02                 sizek (2)
006E8C  01                 const type 3
006E8D  40BDBC94           const [0]: (-1799570112)
006E91  04                 const type 4
006E92  0C                 string size (12)
006E93  4F6E416374697661+  "OnActiva"
006E9B  74656400           "ted\0"
                           const [1]: "OnActivated"
                           * functions:
006E9F  00                 sizep (0)
                           * lines:
006EA0  05                 sizelineinfo (5)
                           [pc] (line)
006EA1  A5                 [1] (-91)
006EA2  04                 [2] (-91)
006EA3  00                 [3] (-91)
006EA4  00                 [4] (-91)
006EA5  A5                 [5] (-90)
                           * locals:
006EB5  00                 sizelocvars (0)
                           * upvalues:
006EB6  00                 sizeupvalues (0)
                           ** end of function **

                           
006EB7                     ** function [35] definition (level 2)
                           ** start of function **
006EB7  00                 string size (0)
                           source name: (none)
006EB9  09                 line defined (1192)
006EBA  8B                 last line defined (1291)
006EBB  0A                 nups (15)
006EBC  0F                 numparams (0)
006EBD  00                 is_vararg (0)
006EBE  00                 maxstacksize (25)
                           * code:
006EC1  01                 sizecode (220)
006EC2  1D000000           [001] getglobal  0   0        ; gGameRules
006EC6  53000000           [002] getupval   1   0      
006ECA  62808000           [003] call       1   1   2  
006ECE  A4404000           [004] self       2   0   257  ; -317790213
006ED2  13018000           [005] getupval   4   1      
006ED6  A2808001           [006] call       2   3   2  
006EDA  D3000001           [007] getupval   3   2      
006EDE  E2808000           [008] call       3   1   2  
006EE2  19810000           [009] loadk      4   2        ; 0
006EE6  64414000           [010] self       5   0   257  ; -317790213
006EEA  D3018001           [011] getupval   7   3      
006EEE  62818001           [012] call       5   3   2  
fail op	21
006EF2  15C0C002           [013] concat     0   5   259
006EF6  1A003380           [014] jmp        205          ; to [220]
006EFA  46018002           [015] loadnil    5   5      
006EFE  A4414000           [016] self       6   0   257  ; -317790213
006F02  13020002           [017] getupval   8   4      
006F06  A2818001           [018] call       6   3   2  
006F0A  DD010100           [019] getglobal  7   4        ; 1074689893
006F0E  12028002           [020] move       8   5      
006F12  E2810001           [021] call       7   2   2  
006F16  D8410000           [022] test       7       1    ; to [24] if false
006F1A  1A000180           [023] jmp        5            ; to [29]
006F1E  D3018002           [024] getupval   7   5      
fail op	33
006F22  61808103           [025] tforloop   1       6    ; to [27] if exit
006F26  1A400080           [026] jmp        2            ; to [29]
fail op	33
006F2A  21800101           [027] tforloop   0       6    ; to [29] if exit
006F2E  1A400D80           [028] jmp        54           ; to [83]
006F32  D3018002           [029] getupval   7   5      
fail op	21
006F36  15C00103           [030] concat     0   6   7  
006F3A  1A000880           [031] jmp        33           ; to [65]
fail op	21
006F3E  15800003           [032] concat     0   6   2  
006F42  1A800780           [033] jmp        31           ; to [65]
006F46  D3010003           [034] getupval   7   6      
006F4A  19420100           [035] loadk      8   5        ; 0
006F4E  E2810001           [036] call       7   2   2  
006F52  0A028003           [037] len        8   7      
fail op	21
006F56  15008282           [038] concat     0   261 8  
006F5A  1A400180           [039] jmp        6            ; to [46]
006F5E  13028003           [040] getupval   8   7      
006F62  52028003           [041] move       9   7      
006F66  99420100           [042] loadk      10  5        ; 0
006F6A  22828001           [043] call       8   3   2  
006F6E  52010004           [044] move       5   8      
006F72  1A800480           [045] jmp        19           ; to [65]
006F76  13020003           [046] getupval   8   6      
006F7A  59820100           [047] loadk      9   6        ; 0
006F7E  22820001           [048] call       8   2   2  
006F82  4A020004           [049] len        9   8      
fail op	35
006F86  2340C104           [050] close      0  
006F8A  1AC00080           [051] jmp        4            ; to [56]
006F8E  53020003           [052] getupval   9   6      
006F92  99C20100           [053] loadk      10  7        ; 0
006F96  62820001           [054] call       9   2   2  
006F9A  12028004           [055] move       8   9      
006F9E  59020200           [056] loadk      9   8        ; 0
006FA2  8A020004           [057] len        10  8      
006FA6  D9020200           [058] loadk      11  8        ; 0
006FAA  50C20080           [059] forprep    9   4        ; to [64]
006FAE  4E030304           [060] gettable   13  8   12 
006FB2  6443C206           [061] self       13  13  265  ; 699694160
006FB6  D9430100           [062] loadk      15  5        ; 0
006FBA  62438001           [063] call       13  3   1  
006FBE  5482FE7F           [064] forloop    9   -5       ; to [60] if loop
006FC2  64434000           [065] self       13  0   257  ; -317790213
006FC6  D3038001           [066] getupval   15  3      
006FCA  62838001           [067] call       13  3   2  
fail op	35
006FCE  63C0C006           [068] close      1  
006FD2  1AC00080           [069] jmp        4            ; to [74]
006FD6  5D830200           [070] getglobal  13  10       ; _T
006FDA  4EC3C206           [071] gettable   13  13  267  ; "MissionComplete"
006FDE  58030000           [072] test       13      0    ; to [74] if true
006FE2  1A000080           [073] jmp        1            ; to [75]
006FE6  1E008000           [074] return     0   1      
006FEA  5D030300           [075] getglobal  13  12       ; 538022378
006FEE  99430300           [076] loadk      14  13       ; -51
006FF2  62430001           [077] call       13  2   1  
006FF6  64434000           [078] self       13  0   257  ; -317790213
006FFA  D3030002           [079] getupval   15  4      
006FFE  62838001           [080] call       13  3   2  
007002  92018006           [081] move       6   13     
007006  1AC0EF7F           [082] jmp        -64          ; to [19]
00700A  53030004           [083] getupval   13  8      
00700E  A483C302           [084] self       14  5   270  ; -1870903749
007012  A2830001           [085] call       14  2   2  
007016  E4C34307           [086] self       15  14  271  ; -231049143
00701A  E2830001           [087] call       15  2   2  
00701E  24444000           [088] self       16  0   257  ; -317790213
007022  93048004           [089] getupval   18  9      
007026  22848001           [090] call       16  3   2  
fail op	21
00702A  15008482           [091] concat     0   261 16 
00702E  1A401780           [092] jmp        94           ; to [187]
007032  24444000           [093] self       16  0   257  ; -317790213
007036  93040005           [094] getupval   18  10     
00703A  22848001           [095] call       16  3   2  
00703E  5D040400           [096] getglobal  17  16       ; math
007042  4E44C408           [097] gettable   17  17  273  ; -1962864584
007046  8D048406           [098] sub        18  13  16 
00704A  D9440100           [099] loadk      19  5        ; 0
00704E  62848001           [100] call       17  3   2  
007052  97040000           [101] loadbool   18  0   0    ; false
007056  98040000           [102] test       18      0    ; to [104] if true
00705A  1A000080           [103] jmp        1            ; to [105]
00705E  59840400           [104] loadk      17  18       ; 0
007062  92048008           [105] move       18  17     
007066  D3048005           [106] getupval   19  11     
fail op	21
00706A  15808409           [107] concat     0   19  18 
00706E  1A000680           [108] jmp        25           ; to [134]
007072  DD040400           [109] getglobal  19  16       ; math
007076  CE44C409           [110] gettable   19  19  273  ; -1962864584
00707A  0D050109           [111] sub        20  18  4  
00707E  59450100           [112] loadk      21  5        ; 0
007082  E2848001           [113] call       19  3   2  
007086  92048009           [114] move       18  19     
00708A  E4444000           [115] self       19  0   257  ; -317790213
00708E  53058001           [116] getupval   21  3      
007092  E2848001           [117] call       19  3   2  
fail op	35
007096  63C0C009           [118] close      1  
00709A  1AC00080           [119] jmp        4            ; to [124]
00709E  DD840200           [120] getglobal  19  10       ; _T
0070A2  CEC4C209           [121] gettable   19  19  267  ; "MissionComplete"
0070A6  D8040000           [122] test       19      0    ; to [124] if true
0070AA  1A000080           [123] jmp        1            ; to [125]
0070AE  1E008000           [124] return     0   1      
0070B2  03040108           [125] add        16  16  4  
0070B6  E4C44400           [126] self       19  0   275  ; -803877924
0070BA  53050005           [127] getupval   21  10     
0070BE  92050008           [128] move       22  16     
0070C2  E2440002           [129] call       19  4   1  
0070C6  DD040300           [130] getglobal  19  12       ; 538022378
0070CA  12050002           [131] move       20  4      
0070CE  E2440001           [132] call       19  2   1  
0070D2  1AC0F87F           [133] jmp        -28          ; to [106]
fail op	21
0070D6  15408482           [134] concat     0   261 17 
0070DA  1A800480           [135] jmp        19           ; to [155]
0070DE  D3040006           [136] getupval   19  12     
0070E2  CE04C509           [137] gettable   19  19  276  ; -78033590
0070E6  1D850200           [138] getglobal  20  10       ; _T
0070EA  0E45450A           [139] gettable   20  20  277  ; "MissionTransmissionSet"
0070EE  5D850500           [140] getglobal  21  22       ; -332969190
0070F2  99C50500           [141] loadk      22  23       ; "AdvanceWarningVO"
0070F6  62850001           [142] call       21  2   2  
0070FA  99450100           [143] loadk      22  5        ; 0
0070FE  E2440002           [144] call       19  4   1  
007102  E4044607           [145] self       19  14  280  ; -1421644046
007106  5D450600           [146] getglobal  21  25       ; capsuleIncomingEffect
00710A  9D850600           [147] getglobal  22  26       ; EMPTY_SYMBOL
00710E  DDC50600           [148] getglobal  23  27       ; ZERO_VECTOR
007112  12068007           [149] move       24  15     
007116  E2440003           [150] call       19  6   1  
00711A  E4C44400           [151] self       19  0   275  ; -803877924
00711E  53058006           [152] getupval   21  13     
007122  99050200           [153] loadk      22  8        ; 0
007126  E2440002           [154] call       19  4   1  
00712A  DD040400           [155] getglobal  19  16       ; math
00712E  CE04C709           [156] gettable   19  19  284  ; 1710846250
007132  13058005           [157] getupval   20  11     
007136  52058008           [158] move       21  17     
00713A  E2848001           [159] call       19  3   2  
fail op	21
00713E  15C08482           [160] concat     0   261 19 
007142  1A000680           [161] jmp        25           ; to [187]
007146  1D050400           [162] getglobal  20  16       ; math
00714A  0E45440A           [163] gettable   20  20  273  ; -1962864584
00714E  4D058109           [164] sub        21  19  4  
007152  99450100           [165] loadk      22  5        ; 0
007156  22858001           [166] call       20  3   2  
00715A  D204000A           [167] move       19  20     
00715E  24454000           [168] self       20  0   257  ; -317790213
007162  93058001           [169] getupval   22  3      
007166  22858001           [170] call       20  3   2  
fail op	35
00716A  63C0400A           [171] close      1  
00716E  1AC00080           [172] jmp        4            ; to [177]
007172  1D850200           [173] getglobal  20  10       ; _T
007176  0EC5420A           [174] gettable   20  20  267  ; "MissionComplete"
00717A  18050000           [175] test       20      0    ; to [177] if true
00717E  1A000080           [176] jmp        1            ; to [178]
007182  1E008000           [177] return     0   1      
007186  03040108           [178] add        16  16  4  
00718A  24C54400           [179] self       20  0   275  ; -803877924
00718E  93050005           [180] getupval   22  10     
007192  D2050008           [181] move       23  16     
007196  22450002           [182] call       20  4   1  
00719A  1D050300           [183] getglobal  20  12       ; 538022378
00719E  52050002           [184] move       21  4      
0071A2  22450001           [185] call       20  2   1  
0071A6  1A00F97F           [186] jmp        -27          ; to [160]
0071AA  24C54400           [187] self       20  0   275  ; -803877924
0071AE  93058006           [188] getupval   22  13     
0071B2  D9450100           [189] loadk      23  5        ; 0
0071B6  22450002           [190] call       20  4   1  
0071BA  24C54400           [191] self       20  0   275  ; -803877924
0071BE  93050005           [192] getupval   22  10     
0071C2  D9450100           [193] loadk      23  5        ; 0
0071C6  22450002           [194] call       20  4   1  
0071CA  24454000           [195] self       20  0   257  ; -317790213
0071CE  93058001           [196] getupval   22  3      
0071D2  22858001           [197] call       20  3   2  
fail op	35
0071D6  63C0400A           [198] close      1  
0071DA  1AC00080           [199] jmp        4            ; to [204]
0071DE  1D850200           [200] getglobal  20  10       ; _T
0071E2  0EC5420A           [201] gettable   20  20  267  ; "MissionComplete"
0071E6  18050000           [202] test       20      0    ; to [204] if true
0071EA  1A000080           [203] jmp        1            ; to [205]
0071EE  1E008000           [204] return     0   1      
0071F2  2445C702           [205] self       20  5   285  ; -1923578185
0071F6  99850700           [206] loadk      22  30       ; "Execute"
0071FA  22458001           [207] call       20  3   1  
0071FE  D8000000           [208] test       3       0    ; to [210] if true
007202  1A400180           [209] jmp        6            ; to [216]
007206  24C54400           [210] self       20  0   275  ; -803877924
00720A  93050007           [211] getupval   22  14     
00720E  D9050200           [212] loadk      23  8        ; 0
007212  22450002           [213] call       20  4   1  
007216  1D850200           [214] getglobal  20  10       ; _T
00721A  0C45818F           [215] settable   20  287 5    ; "gMiniBossArtifactSpawn"
00721E  1D050300           [216] getglobal  20  12       ; 538022378
007222  59450100           [217] loadk      21  5        ; 0
007226  22450001           [218] call       20  2   1  
00722A  1A40CB7F           [219] jmp        -210         ; to [10]
00722E  1E008000           [220] return     0   1      
                           * constants:
007232  20                 sizek (32)
007233  04                 const type 4
007234  0B                 string size (11)
007235  6747616D6552756C+  "gGameRul"
00723D  657300             "es\0"
                           const [0]: "gGameRules"
007240  01                 const type 3
007241  FBE70EED           const [1]: (-317790213)
007245  03                 const type 3
007246  0000003F           const [2]: (0)
00724A  03                 const type 3
00724B  00008040           const [3]: (0)
00724F  01                 const type 3
007250  65770E40           const [4]: (1074689893)
007254  03                 const type 3
007255  00000000           const [5]: (0)
007259  03                 const type 3
00725A  00000040           const [6]: (0)
00725E  03                 const type 3
00725F  00004040           const [7]: (0)
007263  03                 const type 3
007264  0000803F           const [8]: (0)
007268  01                 const type 3
007269  507CB429           const [9]: (699694160)
00726D  04                 const type 4
00726E  03                 string size (3)
00726F  5F5400             "_T\0"
                           const [10]: "_T"
007272  04                 const type 4
007273  10                 string size (16)
007274  4D697373696F6E43+  "MissionC"
00727C  6F6D706C65746500   "omplete\0"
                           const [11]: "MissionComplete"
007284  01                 const type 3
007285  EA911120           const [12]: (538022378)
007289  03                 const type 3
00728A  CDCCCC3D           const [13]: (-51)
00728E  01                 const type 3
00728F  3B467C90           const [14]: (-1870903749)
007293  01                 const type 3
007294  49783AF2           const [15]: (-231049143)
007298  04                 const type 4
007299  05                 string size (5)
00729A  6D61746800         "math\0"
                           const [16]: "math"
00729F  01                 const type 3
0072A0  3810018B           const [17]: (-1962864584)
0072A4  03                 const type 3
0072A5  0000A040           const [18]: (0)
0072A9  01                 const type 3
0072AA  DCCB15D0           const [19]: (-803877924)
0072AE  01                 const type 3
0072AF  4A4D59FB           const [20]: (-78033590)
0072B3  04                 const type 4
0072B4  17                 string size (23)
0072B5  4D697373696F6E54+  "MissionT"
0072BD  72616E736D697373+  "ransmiss"
0072C5  696F6E53657400     "ionSet\0"
                           const [21]: "MissionTransmissionSet"
0072CC  01                 const type 3
0072CD  1A4B27EC           const [22]: (-332969190)
0072D1  04                 const type 4
0072D2  11                 string size (17)
0072D3  416476616E636557+  "AdvanceW"
0072DB  61726E696E67564F+  "arningVO"
0072E3  00                 "\0"
                           const [23]: "AdvanceWarningVO"
0072E4  01                 const type 3
0072E5  F26E43AB           const [24]: (-1421644046)
0072E9  04                 const type 4
0072EA  16                 string size (22)
0072EB  63617073756C6549+  "capsuleI"
0072F3  6E636F6D696E6745+  "ncomingE"
0072FB  666665637400       "ffect\0"
                           const [25]: "capsuleIncomingEffect"
007301  04                 const type 4
007302  0D                 string size (13)
007303  454D5054595F5359+  "EMPTY_SY"
00730B  4D424F4C00         "MBOL\0"
                           const [26]: "EMPTY_SYMBOL"
007310  04                 const type 4
007311  0C                 string size (12)
007312  5A45524F5F564543+  "ZERO_VEC"
00731A  544F5200           "TOR\0"
                           const [27]: "ZERO_VECTOR"
00731E  01                 const type 3
00731F  2A71F965           const [28]: (1710846250)
007323  01                 const type 3
007324  B786588D           const [29]: (-1923578185)
007328  04                 const type 4
007329  08                 string size (8)
00732A  4578656375746500   "Execute\0"
                           const [30]: "Execute"
007332  04                 const type 4
007333  17                 string size (23)
007334  674D696E69426F73+  "gMiniBos"
00733C  7341727469666163+  "sArtifac"
007344  74537061776E00     "tSpawn\0"
                           const [31]: "gMiniBossArtifactSpawn"
                           * functions:
00734B  00                 sizep (0)
                           * lines:
00734D  01                 sizelineinfo (220)
                           [pc] (line)
00734E  A9                 [001] (-87)
00734F  04                 [002] (-86)
007350  00                 [003] (-86)
007351  00                 [004] (-85)
007352  AA                 [005] (-85)
007353  04                 [006] (-85)
007354  00                 [007] (-84)
007355  00                 [008] (-84)
007356  AA                 [009] (-83)
007357  04                 [010] (-81)
007358  00                 [011] (-81)
007359  00                 [012] (-81)
00735A  AB                 [013] (-81)
00735B  04                 [014] (-81)
00735C  00                 [015] (-78)
00735D  00                 [016] (-77)
00735E  AB                 [017] (-77)
00735F  04                 [018] (-77)
007360  00                 [019] (-76)
007361  00                 [020] (-76)
007362  AB                 [021] (-76)
007363  04                 [022] (-76)
007364  00                 [023] (-76)
007365  00                 [024] (-76)
007366  AC                 [025] (-76)
007367  04                 [026] (-76)
007368  00                 [027] (-76)
007369  00                 [028] (-76)
00736A  AC                 [029] (-75)
00736B  04                 [030] (-75)
00736C  00                 [031] (-75)
00736D  00                 [032] (-75)
00736E  AD                 [033] (-75)
00736F  04                 [034] (-74)
007370  00                 [035] (-74)
007371  00                 [036] (-74)
007372  AF                 [037] (-73)
007373  04                 [038] (-73)
007374  00                 [039] (-73)
007375  00                 [040] (-72)
007376  AF                 [041] (-72)
007377  04                 [042] (-72)
007378  00                 [043] (-72)
007379  00                 [044] (-72)
00737A  AF                 [045] (-72)
00737B  04                 [046] (-70)
00737C  00                 [047] (-70)
00737D  00                 [048] (-70)
00737E  AF                 [049] (-69)
00737F  04                 [050] (-69)
007380  00                 [051] (-69)
007381  00                 [052] (-68)
007382  AF                 [053] (-68)
007383  04                 [054] (-68)
007384  00                 [055] (-68)
007385  00                 [056] (-66)
007386  B2                 [057] (-66)
007387  04                 [058] (-66)
007388  00                 [059] (-66)
007389  00                 [060] (-65)
00738A  B3                 [061] (-65)
00738B  04                 [062] (-65)
00738C  00                 [063] (-65)
00738D  00                 [064] (-66)
00738E  B3                 [065] (-59)
00738F  04                 [066] (-59)
007390  00                 [067] (-59)
007391  00                 [068] (-59)
007392  B3                 [069] (-59)
007393  04                 [070] (-59)
007394  00                 [071] (-59)
007395  00                 [072] (-59)
007396  B4                 [073] (-59)
007397  04                 [074] (-58)
007398  00                 [075] (-55)
007399  00                 [076] (-55)
00739A  B4                 [077] (-55)
00739B  04                 [078] (-54)
00739C  00                 [079] (-54)
00739D  00                 [080] (-54)
00739E  B4                 [081] (-54)
00739F  04                 [082] (-54)
0073A0  00                 [083] (-50)
0073A1  00                 [084] (-49)
0073A2  B4                 [085] (-49)
0073A3  04                 [086] (-48)
0073A4  00                 [087] (-48)
0073A5  00                 [088] (-46)
0073A6  B4                 [089] (-46)
0073A7  04                 [090] (-46)
0073A8  00                 [091] (-46)
0073A9  00                 [092] (-46)
0073AA  B4                 [093] (-44)
0073AB  04                 [094] (-44)
0073AC  00                 [095] (-44)
0073AD  00                 [096] (-43)
0073AE  B4                 [097] (-43)
0073AF  04                 [098] (-43)
0073B0  00                 [099] (-43)
0073B1  00                 [100] (-43)
0073B2  B4                 [101] (-42)
0073B3  04                 [102] (-42)
0073B4  00                 [103] (-42)
0073B5  00                 [104] (-41)
0073B6  B4                 [105] (-39)
0073B7  04                 [106] (-38)
0073B8  00                 [107] (-38)
0073B9  00                 [108] (-38)
0073BA  B4                 [109] (-37)
0073BB  04                 [110] (-37)
0073BC  00                 [111] (-37)
0073BD  00                 [112] (-37)
0073BE  B5                 [113] (-37)
0073BF  04                 [114] (-37)
0073C0  00                 [115] (-36)
0073C1  00                 [116] (-36)
0073C2  B5                 [117] (-36)
0073C3  04                 [118] (-36)
0073C4  00                 [119] (-36)
0073C5  00                 [120] (-36)
0073C6  B5                 [121] (-36)
0073C7  04                 [122] (-36)
0073C8  00                 [123] (-36)
0073C9  00                 [124] (-35)
0073CA  B5                 [125] (-30)
0073CB  04                 [126] (-29)
0073CC  00                 [127] (-29)
0073CD  00                 [128] (-29)
0073CE  B5                 [129] (-29)
0073CF  04                 [130] (-28)
0073D0  00                 [131] (-28)
0073D1  00                 [132] (-28)
0073D2  B6                 [133] (-28)
0073D3  04                 [134] (-26)
0073D4  00                 [135] (-26)
0073D5  00                 [136] (-25)
0073D6  B6                 [137] (-25)
0073D7  04                 [138] (-25)
0073D8  00                 [139] (-25)
0073D9  00                 [140] (-25)
0073DA  B6                 [141] (-25)
0073DB  04                 [142] (-25)
0073DC  00                 [143] (-25)
0073DD  00                 [144] (-25)
0073DE  B7                 [145] (-24)
0073DF  04                 [146] (-24)
0073E0  00                 [147] (-24)
0073E1  00                 [148] (-24)
0073E2  B7                 [149] (-24)
0073E3  04                 [150] (-24)
0073E4  00                 [151] (-23)
0073E5  00                 [152] (-23)
0073E6  B7                 [153] (-23)
0073E7  04                 [154] (-23)
0073E8  00                 [155] (-19)
0073E9  00                 [156] (-19)
0073EA  B8                 [157] (-19)
0073EB  04                 [158] (-19)
0073EC  00                 [159] (-19)
0073ED  00                 [160] (-18)
0073EE  B8                 [161] (-18)
0073EF  04                 [162] (-17)
0073F0  00                 [163] (-17)
0073F1  00                 [164] (-17)
0073F2  B8                 [165] (-17)
0073F3  04                 [166] (-17)
0073F4  00                 [167] (-17)
0073F5  00                 [168] (-16)
0073F6  B8                 [169] (-16)
0073F7  04                 [170] (-16)
0073F8  00                 [171] (-16)
0073F9  00                 [172] (-16)
0073FA  B8                 [173] (-16)
0073FB  04                 [174] (-16)
0073FC  00                 [175] (-16)
0073FD  00                 [176] (-16)
0073FE  B8                 [177] (-15)
0073FF  04                 [178] (-13)
007400  00                 [179] (-12)
007401  00                 [180] (-12)
007402  BA                 [181] (-12)
007403  04                 [182] (-12)
007404  00                 [183] (-11)
007405  00                 [184] (-11)
007406  BA                 [185] (-11)
007407  04                 [186] (-11)
007408  00                 [187] (-6)
007409  00                 [188] (-6)
00740A  BA                 [189] (-6)
00740B  04                 [190] (-6)
00740C  00                 [191] (-5)
00740D  00                 [192] (-5)
00740E  BB                 [193] (-5)
00740F  04                 [194] (-5)
007410  00                 [195] (-3)
007411  00                 [196] (-3)
007412  BB                 [197] (-3)
007413  04                 [198] (-3)
007414  00                 [199] (-3)
007415  00                 [200] (-3)
007416  BB                 [201] (-3)
007417  04                 [202] (-3)
007418  00                 [203] (-3)
007419  00                 [204] (-2)
00741A  BC                 [205] (2)
00741B  04                 [206] (2)
00741C  00                 [207] (2)
00741D  00                 [208] (4)
00741E  BC                 [209] (4)
00741F  04                 [210] (5)
007420  00                 [211] (5)
007421  00                 [212] (5)
007422  BC                 [213] (5)
007423  04                 [214] (6)
007424  00                 [215] (6)
007425  00                 [216] (9)
007426  BC                 [217] (9)
007427  04                 [218] (9)
007428  00                 [219] (9)
007429  00                 [220] (11)
                           * locals:
0076BE  00                 sizelocvars (0)
                           * upvalues:
0076BF  00                 sizeupvalues (0)
                           ** end of function **

                           
0076C0                     ** function [36] definition (level 2)
                           ** start of function **
0076C0  00                 string size (0)
                           source name: (none)
0076C2  0A                 line defined (1293)
0076C3  8F                 last line defined (1295)
0076C4  0A                 nups (1)
0076C5  01                 numparams (0)
0076C6  00                 is_vararg (0)
0076C7  00                 maxstacksize (2)
                           * code:
0076C9  03                 sizecode (3)
0076CA  13000000           [1] getupval   0   0      
0076CE  22408000           [2] call       0   1   1  
0076D2  1E008000           [3] return     0   1      
                           * constants:
0076D6  00                 sizek (0)
                           * functions:
0076D7  00                 sizep (0)
                           * lines:
0076D8  03                 sizelineinfo (3)
                           [pc] (line)
0076D9  0E                 [1] (14)
0076DA  05                 [2] (14)
0076DB  00                 [3] (15)
                           * locals:
0076E5  00                 sizelocvars (0)
                           * upvalues:
0076E6  00                 sizeupvalues (0)
                           ** end of function **

                           
0076E7                     ** function [37] definition (level 2)
                           ** start of function **
0076E7  00                 string size (0)
                           source name: (none)
0076E9  0A                 line defined (1297)
0076EA  C4                 last line defined (1348)
0076EB  0A                 nups (8)
0076EC  08                 numparams (1)
0076ED  01                 is_vararg (0)
0076EE  00                 maxstacksize (18)
                           * code:
0076F0  6D                 sizecode (109)
0076F1  5D000000           [001] getglobal  1   0        ; gGameRules
0076F5  9D400000           [002] getglobal  2   1        ; gRegion
0076F9  A4804001           [003] self       2   2   258  ; -774964848
0076FD  A2800001           [004] call       2   2   2  
007701  E4C04001           [005] self       3   2   259  ; 537471347
007705  E2800001           [006] call       3   2   2  
007709  24014100           [007] self       4   0   260  ; -1870903749
00770D  22810001           [008] call       4   2   2  
007711  64414102           [009] self       5   4   261  ; -1923578185
007715  D9810100           [010] loadk      7   6        ; "Show"
007719  62418001           [011] call       5   3   1  
00771D  64C1C100           [012] self       5   1   263  ; -317790213
007721  D3010000           [013] getupval   7   0      
007725  62818001           [014] call       5   3   2  
007729  4301C202           [015] add        5   5   264  ; 0
00772D  A441C200           [016] self       6   1   265  ; -803877924
007731  13020000           [017] getupval   8   0      
007735  52028002           [018] move       9   5      
007739  A2410002           [019] call       6   4   1  
00773D  A4C1C100           [020] self       6   1   263  ; -317790213
007741  13028000           [021] getupval   8   1      
007745  A2818001           [022] call       6   3   2  
007749  E441C200           [023] self       7   1   265  ; -803877924
00774D  53028000           [024] getupval   9   1      
007751  83024203           [025] add        10  6   264  ; 0
007755  E2410002           [026] call       7   4   1  
007759  E4814202           [027] self       7   4   266  ; -1421644046
00775D  5DC20200           [028] getglobal  9   11       ; objectiveMarkerType
007761  9D020300           [029] getglobal  10  12       ; EMPTY_SYMBOL
007765  D3020001           [030] getupval   11  2      
007769  E2418002           [031] call       7   5   1  
00776D  E4414300           [032] self       7   0   269  ; 699694160
007771  59020200           [033] loadk      9   8        ; 0
007775  E2418001           [034] call       7   3   1  
007779  D3018001           [035] getupval   7   3      
00777D  E2818000           [036] call       7   1   2  
007781  D8010000           [037] test       7       0    ; to [39] if true
007785  1A000280           [038] jmp        9            ; to [48]
007789  24C2C100           [039] self       8   1   263  ; -317790213
00778D  93020002           [040] getupval   10  4      
007791  22828001           [041] call       8   3   2  
fail op	35
007795  23804304           [042] close      0  
007799  1A800180           [043] jmp        7            ; to [51]
00779D  64C2C301           [044] self       9   3   271  ; -906150570
0077A1  D2020002           [045] move       11  4      
0077A5  62428001           [046] call       9   3   1  
0077A9  1A800080           [047] jmp        3            ; to [51]
0077AD  64C2C301           [048] self       9   3   271  ; -906150570
0077B1  D2020002           [049] move       11  4      
0077B5  62428001           [050] call       9   3   1  
0077B9  64824202           [051] self       9   4   266  ; -1421644046
0077BD  DD020400           [052] getglobal  11  16       ; survivalProgressBarActionType
0077C1  1D030300           [053] getglobal  12  12       ; EMPTY_SYMBOL
0077C5  5D430400           [054] getglobal  13  17       ; ZERO_VECTOR
0077C9  A4834402           [055] self       14  4   274  ; -231049143
0077CD  A2030001           [056] call       14  2   0  
0077D1  62420000           [057] call       9   0   1  
0077D5  64C2C100           [058] self       9   1   263  ; -317790213
0077D9  D3028002           [059] getupval   11  5      
0077DD  62828001           [060] call       9   3   2  
fail op	21
0077E1  15C0C404           [061] concat     0   9   275
0077E5  1AC00380           [062] jmp        16           ; to [79]
0077E9  D8410000           [063] test       7       1    ; to [65] if false
0077ED  1A000280           [064] jmp        9            ; to [74]
0077F1  93020003           [065] getupval   10  6      
0077F5  8E024505           [066] gettable   10  10  276  ; -78033590
0077F9  DD420500           [067] getglobal  11  21       ; _T
0077FD  CE82C505           [068] gettable   11  11  278  ; "MissionTransmissionSet"
007801  1DC30500           [069] getglobal  12  23       ; -332969190
007805  59030600           [070] loadk      13  24       ; "SurvivalFirstDrop"
007809  22830001           [071] call       12  2   2  
00780D  59830300           [072] loadk      13  14       ; 0
007811  A2420002           [073] call       10  4   1  
007815  A442C200           [074] self       10  1   265  ; -803877924
007819  13038002           [075] getupval   12  5      
00781D  59C30400           [076] loadk      13  19       ; 0
007821  A2420002           [077] call       10  4   1  
007825  1A000280           [078] jmp        9            ; to [88]
007829  93020003           [079] getupval   10  6      
00782D  8E024505           [080] gettable   10  10  276  ; -78033590
007831  DD420500           [081] getglobal  11  21       ; _T
007835  CE82C505           [082] gettable   11  11  278  ; "MissionTransmissionSet"
007839  1DC30500           [083] getglobal  12  23       ; -332969190
00783D  59430600           [084] loadk      13  25       ; "SurvivalDrop"
007841  22830001           [085] call       12  2   2  
007845  59830300           [086] loadk      13  14       ; 0
007849  A2420002           [087] call       10  4   1  
00784D  A4824602           [088] self       10  4   282  ; -1625438872
007851  1DC30600           [089] getglobal  12  27       ; capsuleIncomingEffect
007855  A2828001           [090] call       10  3   2  
007859  DD020700           [091] getglobal  11  28       ; 1074689893
00785D  12030005           [092] move       12  10     
007861  E2820001           [093] call       11  2   2  
007865  D8420000           [094] test       11      1    ; to [96] if false
007869  1A400080           [095] jmp        2            ; to [98]
00786D  E4424705           [096] self       11  10  285  ; -725453761
007871  E2420001           [097] call       11  2   1  
007875  E482C700           [098] self       11  1   286  ; 1157879449
007879  53038003           [099] getupval   13  7      
00787D  E2828001           [100] call       11  3   2  
007881  1DC30700           [101] getglobal  12  31       ; -1817107093
007885  59030800           [102] loadk      13  32       ; "Survival: New capsule "
007889  92038002           [103] move       14  5      
00788D  D9430800           [104] loadk      15  33       ; " became available at "
007891  12048005           [105] move       16  11     
007895  59840800           [106] loadk      17  34       ; " seconds."
007899  42438406           [107] concat     13  13  17 
00789D  22430001           [108] call       12  2   1  
0078A1  1E008000           [109] return     0   1      
                           * constants:
0078A5  23                 sizek (35)
0078A6  04                 const type 4
0078A7  0B                 string size (11)
0078A8  6747616D6552756C+  "gGameRul"
0078B0  657300             "es\0"
                           const [0]: "gGameRules"
0078B3  04                 const type 4
0078B4  08                 string size (8)
0078B5  67526567696F6E00   "gRegion\0"
                           const [1]: "gRegion"
0078BD  01                 const type 3
0078BE  90F9CED1           const [2]: (-774964848)
0078C2  01                 const type 3
0078C3  73290920           const [3]: (537471347)
0078C7  01                 const type 3
0078C8  3B467C90           const [4]: (-1870903749)
0078CC  01                 const type 3
0078CD  B786588D           const [5]: (-1923578185)
0078D1  04                 const type 4
0078D2  05                 string size (5)
0078D3  53686F7700         "Show\0"
                           const [6]: "Show"
0078D8  01                 const type 3
0078D9  FBE70EED           const [7]: (-317790213)
0078DD  03                 const type 3
0078DE  0000803F           const [8]: (0)
0078E2  01                 const type 3
0078E3  DCCB15D0           const [9]: (-803877924)
0078E7  01                 const type 3
0078E8  F26E43AB           const [10]: (-1421644046)
0078EC  04                 const type 4
0078ED  14                 string size (20)
0078EE  6F626A6563746976+  "objectiv"
0078F6  654D61726B657254+  "eMarkerT"
0078FE  79706500           "ype\0"
                           const [11]: "objectiveMarkerType"
007902  04                 const type 4
007903  0D                 string size (13)
007904  454D5054595F5359+  "EMPTY_SY"
00790C  4D424F4C00         "MBOL\0"
                           const [12]: "EMPTY_SYMBOL"
007911  01                 const type 3
007912  507CB429           const [13]: (699694160)
007916  03                 const type 3
007917  00000000           const [14]: (0)
00791B  01                 const type 3
00791C  563DFDC9           const [15]: (-906150570)
007920  04                 const type 4
007921  1E                 string size (30)
007922  737572766976616C+  "survival"
00792A  50726F6772657373+  "Progress"
007932  426172416374696F+  "BarActio"
00793A  6E5479706500       "nType\0"
                           const [16]: "survivalProgressBarActionType"
007940  04                 const type 4
007941  0C                 string size (12)
007942  5A45524F5F564543+  "ZERO_VEC"
00794A  544F5200           "TOR\0"
                           const [17]: "ZERO_VECTOR"
00794E  01                 const type 3
00794F  49783AF2           const [18]: (-231049143)
007953  03                 const type 3
007954  00000040           const [19]: (0)
007958  01                 const type 3
007959  4A4D59FB           const [20]: (-78033590)
00795D  04                 const type 4
00795E  03                 string size (3)
00795F  5F5400             "_T\0"
                           const [21]: "_T"
007962  04                 const type 4
007963  17                 string size (23)
007964  4D697373696F6E54+  "MissionT"
00796C  72616E736D697373+  "ransmiss"
007974  696F6E53657400     "ionSet\0"
                           const [22]: "MissionTransmissionSet"
00797B  01                 const type 3
00797C  1A4B27EC           const [23]: (-332969190)
007980  04                 const type 4
007981  12                 string size (18)
007982  537572766976616C+  "Survival"
00798A  466972737444726F+  "FirstDro"
007992  7000               "p\0"
                           const [24]: "SurvivalFirstDrop"
007994  04                 const type 4
007995  0D                 string size (13)
007996  537572766976616C+  "Survival"
00799E  44726F7000         "Drop\0"
                           const [25]: "SurvivalDrop"
0079A3  01                 const type 3
0079A4  68C51D9F           const [26]: (-1625438872)
0079A8  04                 const type 4
0079A9  16                 string size (22)
0079AA  63617073756C6549+  "capsuleI"
0079B2  6E636F6D696E6745+  "ncomingE"
0079BA  666665637400       "ffect\0"
                           const [27]: "capsuleIncomingEffect"
0079C0  01                 const type 3
0079C1  65770E40           const [28]: (1074689893)
0079C5  01                 const type 3
0079C6  3F74C2D4           const [29]: (-725453761)
0079CA  01                 const type 3
0079CB  99D60345           const [30]: (1157879449)
0079CF  01                 const type 3
0079D0  6B25B193           const [31]: (-1817107093)
0079D4  04                 const type 4
0079D5  17                 string size (23)
0079D6  537572766976616C+  "Survival"
0079DE  3A204E6577206361+  ": New ca"
0079E6  7073756C652000     "psule \0"
                           const [32]: "Survival: New capsule "
0079ED  04                 const type 4
0079EE  16                 string size (22)
0079EF  20626563616D6520+  " became "
0079F7  617661696C61626C+  "availabl"
0079FF  652061742000       "e at \0"
                           const [33]: " became available at "
007A05  04                 const type 4
007A06  0A                 string size (10)
007A07  207365636F6E6473+  " seconds"
007A0F  2E00               ".\0"
                           const [34]: " seconds."
                           * functions:
007A11  00                 sizep (0)
                           * lines:
007A12  6D                 sizelineinfo (109)
                           [pc] (line)
007A13  12                 [001] (18)
007A14  05                 [002] (19)
007A15  00                 [003] (19)
007A16  00                 [004] (19)
007A17  13                 [005] (20)
007A18  05                 [006] (20)
007A19  00                 [007] (22)
007A1A  00                 [008] (22)
007A1B  13                 [009] (23)
007A1C  05                 [010] (23)
007A1D  00                 [011] (23)
007A1E  00                 [012] (26)
007A1F  13                 [013] (26)
007A20  05                 [014] (26)
007A21  00                 [015] (27)
007A22  00                 [016] (28)
007A23  14                 [017] (28)
007A24  05                 [018] (28)
007A25  00                 [019] (28)
007A26  00                 [020] (29)
007A27  14                 [021] (29)
007A28  05                 [022] (29)
007A29  00                 [023] (30)
007A2A  00                 [024] (30)
007A2B  16                 [025] (30)
007A2C  05                 [026] (30)
007A2D  00                 [027] (33)
007A2E  00                 [028] (33)
007A2F  16                 [029] (33)
007A30  05                 [030] (33)
007A31  00                 [031] (33)
007A32  00                 [032] (35)
007A33  17                 [033] (35)
007A34  05                 [034] (35)
007A35  00                 [035] (37)
007A36  00                 [036] (37)
007A37  17                 [037] (39)
007A38  05                 [038] (39)
007A39  00                 [039] (40)
007A3A  00                 [040] (40)
007A3B  17                 [041] (40)
007A3C  05                 [042] (41)
007A3D  00                 [043] (41)
007A3E  00                 [044] (42)
007A3F  1A                 [045] (42)
007A40  05                 [046] (42)
007A41  00                 [047] (43)
007A42  00                 [048] (45)
007A43  1A                 [049] (45)
007A44  05                 [050] (45)
007A45  00                 [051] (47)
007A46  00                 [052] (47)
007A47  1A                 [053] (47)
007A48  05                 [054] (47)
007A49  00                 [055] (47)
007A4A  00                 [056] (47)
007A4B  1B                 [057] (47)
007A4C  05                 [058] (50)
007A4D  00                 [059] (50)
007A4E  00                 [060] (50)
007A4F  1C                 [061] (51)
007A50  05                 [062] (51)
007A51  00                 [063] (52)
007A52  00                 [064] (52)
007A53  1C                 [065] (53)
007A54  05                 [066] (53)
007A55  00                 [067] (53)
007A56  00                 [068] (53)
007A57  1C                 [069] (53)
007A58  05                 [070] (53)
007A59  00                 [071] (53)
007A5A  00                 [072] (53)
007A5B  1C                 [073] (53)
007A5C  05                 [074] (55)
007A5D  00                 [075] (55)
007A5E  00                 [076] (55)
007A5F  1D                 [077] (55)
007A60  05                 [078] (55)
007A61  00                 [079] (57)
007A62  00                 [080] (57)
007A63  1D                 [081] (57)
007A64  05                 [082] (57)
007A65  00                 [083] (57)
007A66  00                 [084] (57)
007A67  1D                 [085] (57)
007A68  05                 [086] (57)
007A69  00                 [087] (57)
007A6A  00                 [088] (61)
007A6B  1E                 [089] (61)
007A6C  05                 [090] (61)
007A6D  00                 [091] (62)
007A6E  00                 [092] (62)
007A6F  1E                 [093] (62)
007A70  05                 [094] (62)
007A71  00                 [095] (62)
007A72  00                 [096] (63)
007A73  1E                 [097] (63)
007A74  05                 [098] (66)
007A75  00                 [099] (66)
007A76  00                 [100] (66)
007A77  1E                 [101] (67)
007A78  05                 [102] (67)
007A79  00                 [103] (67)
007A7A  00                 [104] (67)
007A7B  21                 [105] (67)
007A7C  05                 [106] (67)
007A7D  00                 [107] (67)
007A7E  00                 [108] (67)
007A7F  21                 [109] (68)
                           * locals:
007BC7  00                 sizelocvars (0)
                           * upvalues:
007BC8  00                 sizeupvalues (0)
                           ** end of function **

                           
007BC9                     ** function [38] definition (level 2)
                           ** start of function **
007BC9  00                 string size (0)
                           source name: (none)
007BCB  0A                 line defined (1350)
007BCC  81                 last line defined (1409)
007BCD  0B                 nups (9)
007BCE  09                 numparams (2)
007BCF  02                 is_vararg (0)
007BD0  00                 maxstacksize (22)
                           * code:
007BD3  01                 sizecode (147)
007BD4  A4004000           [001] self       2   0   256  ; -1870903749
007BD8  A2800001           [002] call       2   2   2  
007BDC  DD400000           [003] getglobal  3   1        ; 1074689893
007BE0  12010001           [004] move       4   2      
007BE4  E2800001           [005] call       3   2   2  
007BE8  D8400000           [006] test       3       1    ; to [8] if false
007BEC  1A000880           [007] jmp        33           ; to [41]
007BF0  E4804001           [008] self       3   2   258  ; 366271214
007BF4  5DC10000           [009] getglobal  5   3        ; objectiveMarkerType
007BF8  E2808001           [010] call       3   3   2  
007BFC  1D410000           [011] getglobal  4   1        ; 1074689893
007C00  52018001           [012] move       5   3      
007C04  22810001           [013] call       4   2   2  
007C08  18410000           [014] test       4       1    ; to [16] if false
007C0C  1AC00180           [015] jmp        8            ; to [24]
007C10  1D410000           [016] getglobal  4   1        ; 1074689893
007C14  4E01C101           [017] gettable   5   3   260  ; 0
007C18  22810001           [018] call       4   2   2  
007C1C  18410000           [019] test       4       1    ; to [21] if false
007C20  1A800080           [020] jmp        3            ; to [24]
007C24  0E01C101           [021] gettable   4   3   260  ; 0
007C28  24414102           [022] self       4   4   261  ; -725453761
007C2C  22410001           [023] call       4   2   1  
007C30  24814101           [024] self       4   2   262  ; -1923578185
007C34  99C10100           [025] loadk      6   7        ; "Hide"
007C38  22418001           [026] call       4   3   1  
007C3C  24014201           [027] self       4   2   264  ; -1421644046
007C40  9D410200           [028] getglobal  6   9        ; artifactActivatedEffect
007C44  DD810200           [029] getglobal  7   10       ; EMPTY_SYMBOL
007C48  1DC20200           [030] getglobal  8   11       ; ZERO_VECTOR
007C4C  64024301           [031] self       9   2   268  ; -231049143
007C50  62020001           [032] call       9   2   0  
007C54  22410000           [033] call       4   0   1  
007C58  24014201           [034] self       4   2   264  ; -1421644046
007C5C  9D410300           [035] getglobal  6   13       ; artifactActivatedSpawner
007C60  DD810200           [036] getglobal  7   10       ; EMPTY_SYMBOL
007C64  1DC20200           [037] getglobal  8   11       ; ZERO_VECTOR
007C68  64024301           [038] self       9   2   268  ; -231049143
007C6C  62020001           [039] call       9   2   0  
007C70  22410000           [040] call       4   0   1  
007C74  1D810300           [041] getglobal  4   14       ; gRegion
007C78  24C14302           [042] self       4   4   271  ; -1520831144
007C7C  22810001           [043] call       4   2   2  
007C80  18410000           [044] test       4       1    ; to [46] if false
007C84  1A000080           [045] jmp        1            ; to [47]
007C88  1E008000           [046] return     0   1      
007C8C  13010000           [047] getupval   4   0      
007C90  53018000           [048] getupval   5   1      
007C94  22410001           [049] call       4   2   1  
007C98  1D010400           [050] getglobal  4   16       ; gGameRules
007C9C  64414402           [051] self       5   4   273  ; -317790213
007CA0  D3010001           [052] getupval   7   2      
007CA4  62818001           [053] call       5   3   2  
007CA8  93018001           [054] getupval   6   3      
007CAC  D9810400           [055] loadk      7   18       ; 0
007CB0  A2810001           [056] call       6   2   2  
007CB4  D9010100           [057] loadk      7   4        ; 0
007CB8  0A020003           [058] len        8   6      
007CBC  59020100           [059] loadk      9   4        ; 0
007CC0  D0C10080           [060] forprep    7   4        ; to [65]
007CC4  CE820203           [061] gettable   11  6   10 
007CC8  E4C2C405           [062] self       11  11  275  ; 699694160
007CCC  59030500           [063] loadk      13  20       ; 0
007CD0  E2428001           [064] call       11  3   1  
007CD4  D481FE7F           [065] forloop    7   -5       ; to [61] if loop
007CD8  DD420000           [066] getglobal  11  1        ; 1074689893
007CDC  12030001           [067] move       12  2      
007CE0  E2820001           [068] call       11  2   2  
007CE4  D8420000           [069] test       11      1    ; to [71] if false
007CE8  1A000480           [070] jmp        17           ; to [88]
007CEC  E4824001           [071] self       11  2   258  ; 366271214
007CF0  5D430500           [072] getglobal  13  21       ; powerUpScriptType
007CF4  E2828001           [073] call       11  3   2  
007CF8  1D430000           [074] getglobal  12  1        ; 1074689893
007CFC  52038005           [075] move       13  11     
007D00  22830001           [076] call       12  2   2  
007D04  18430000           [077] test       12      1    ; to [79] if false
007D08  1A000280           [078] jmp        9            ; to [88]
007D0C  1D430000           [079] getglobal  12  1        ; 1074689893
007D10  4E03C105           [080] gettable   13  11  260  ; 0
007D14  22830001           [081] call       12  2   2  
007D18  18430000           [082] test       12      1    ; to [84] if false
007D1C  1AC00080           [083] jmp        4            ; to [88]
007D20  0E03C105           [084] gettable   12  11  260  ; 0
007D24  24C34406           [085] self       12  12  275  ; 699694160
007D28  99830400           [086] loadk      14  18       ; 0
007D2C  22438001           [087] call       12  3   1  
007D30  4301C102           [088] add        5   5   260  ; 0
007D34  24834502           [089] self       12  4   278  ; -803877924
007D38  93030001           [090] getupval   14  2      
007D3C  D2038002           [091] move       15  5      
007D40  22430002           [092] call       12  4   1  
007D44  24434402           [093] self       12  4   273  ; -317790213
007D48  93030002           [094] getupval   14  4      
007D4C  22838001           [095] call       12  3   2  
007D50  5DC30500           [096] getglobal  13  23       ; math
007D54  4E03C606           [097] gettable   13  13  280  ; -1962864584
007D58  8D034106           [098] sub        14  12  260  ; 0
007D5C  D9430600           [099] loadk      15  25       ; 0
007D60  62838001           [100] call       13  3   2  
007D64  12038006           [101] move       12  13     
007D68  64834502           [102] self       13  4   278  ; -803877924
007D6C  D3030002           [103] getupval   15  4      
007D70  12040006           [104] move       16  12     
007D74  62430002           [105] call       13  4   1  
007D78  64434402           [106] self       13  4   273  ; -317790213
007D7C  D3038002           [107] getupval   15  5      
007D80  62838001           [108] call       13  3   2  
007D84  9DC30500           [109] getglobal  14  23       ; math
007D88  8E034607           [110] gettable   14  14  280  ; -1962864584
007D8C  CD03C106           [111] sub        15  13  260  ; 0
007D90  19440600           [112] loadk      16  25       ; 0
007D94  A2838001           [113] call       14  3   2  
007D98  52030007           [114] move       13  14     
007D9C  A4834502           [115] self       14  4   278  ; -803877924
007DA0  13048002           [116] getupval   16  5      
007DA4  52048006           [117] move       17  13     
007DA8  A2430002           [118] call       14  4   1  
007DAC  A4434402           [119] self       14  4   273  ; -317790213
007DB0  13040003           [120] getupval   16  6      
007DB4  A2838001           [121] call       14  3   2  
fail op	35
007DB8  63804607           [122] close      1  
007DBC  1A000280           [123] jmp        9            ; to [133]
007DC0  D3038003           [124] getupval   15  7      
007DC4  CEC3C607           [125] gettable   15  15  283  ; -78033590
007DC8  1D040700           [126] getglobal  16  28       ; _T
007DCC  0E444708           [127] gettable   16  16  285  ; "MissionTransmissionSet"
007DD0  5D840700           [128] getglobal  17  30       ; -332969190
007DD4  99C40700           [129] loadk      18  31       ; "SurvivalDropActivated"
007DD8  62840001           [130] call       17  2   2  
007DDC  99440600           [131] loadk      18  25       ; 0
007DE0  E2430002           [132] call       15  4   1  
007DE4  DD030400           [133] getglobal  15  16       ; gGameRules
007DE8  E403C807           [134] self       15  15  288  ; 1157879449
007DEC  53040004           [135] getupval   17  8      
007DF0  E2838001           [136] call       15  3   2  
007DF4  1D440800           [137] getglobal  16  33       ; -1817107093
007DF8  59840800           [138] loadk      17  34       ; "Survival: Capsule "
007DFC  92048002           [139] move       18  5      
007E00  D9C40800           [140] loadk      19  35       ; " activated at "
007E04  12058007           [141] move       20  15     
007E08  59050900           [142] loadk      21  36       ; " seconds."
007E0C  42448508           [143] concat     17  17  21 
007E10  22440001           [144] call       16  2   1  
007E14  1D040700           [145] getglobal  16  28       ; _T
007E18  0C84C992           [146] settable   16  293 294  ; "gUpdateElementalLayer" 1
007E1C  1E008000           [147] return     0   1      
                           * constants:
007E20  27                 sizek (39)
007E21  01                 const type 3
007E22  3B467C90           const [0]: (-1870903749)
007E26  01                 const type 3
007E27  65770E40           const [1]: (1074689893)
007E2B  01                 const type 3
007E2C  EEDAD415           const [2]: (366271214)
007E30  04                 const type 4
007E31  14                 string size (20)
007E32  6F626A6563746976+  "objectiv"
007E3A  654D61726B657254+  "eMarkerT"
007E42  79706500           "ype\0"
                           const [3]: "objectiveMarkerType"
007E46  03                 const type 3
007E47  0000803F           const [4]: (0)
007E4B  01                 const type 3
007E4C  3F74C2D4           const [5]: (-725453761)
007E50  01                 const type 3
007E51  B786588D           const [6]: (-1923578185)
007E55  04                 const type 4
007E56  05                 string size (5)
007E57  4869646500         "Hide\0"
                           const [7]: "Hide"
007E5C  01                 const type 3
007E5D  F26E43AB           const [8]: (-1421644046)
007E61  04                 const type 4
007E62  18                 string size (24)
007E63  6172746966616374+  "artifact"
007E6B  4163746976617465+  "Activate"
007E73  6445666665637400   "dEffect\0"
                           const [9]: "artifactActivatedEffect"
007E7B  04                 const type 4
007E7C  0D                 string size (13)
007E7D  454D5054595F5359+  "EMPTY_SY"
007E85  4D424F4C00         "MBOL\0"
                           const [10]: "EMPTY_SYMBOL"
007E8A  04                 const type 4
007E8B  0C                 string size (12)
007E8C  5A45524F5F564543+  "ZERO_VEC"
007E94  544F5200           "TOR\0"
                           const [11]: "ZERO_VECTOR"
007E98  01                 const type 3
007E99  49783AF2           const [12]: (-231049143)
007E9D  04                 const type 4
007E9E  19                 string size (25)
007E9F  6172746966616374+  "artifact"
007EA7  4163746976617465+  "Activate"
007EAF  64537061776E6572+  "dSpawner"
007EB7  00                 "\0"
                           const [13]: "artifactActivatedSpawner"
007EB8  04                 const type 4
007EB9  08                 string size (8)
007EBA  67526567696F6E00   "gRegion\0"
                           const [14]: "gRegion"
007EC2  01                 const type 3
007EC3  58F559A5           const [15]: (-1520831144)
007EC7  04                 const type 4
007EC8  0B                 string size (11)
007EC9  6747616D6552756C+  "gGameRul"
007ED1  657300             "es\0"
                           const [16]: "gGameRules"
007ED4  01                 const type 3
007ED5  FBE70EED           const [17]: (-317790213)
007ED9  03                 const type 3
007EDA  00004040           const [18]: (0)
007EDE  01                 const type 3
007EDF  507CB429           const [19]: (699694160)
007EE3  03                 const type 3
007EE4  00000040           const [20]: (0)
007EE8  04                 const type 4
007EE9  12                 string size (18)
007EEA  706F776572557053+  "powerUpS"
007EF2  6372697074547970+  "criptTyp"
007EFA  6500               "e\0"
                           const [21]: "powerUpScriptType"
007EFC  01                 const type 3
007EFD  DCCB15D0           const [22]: (-803877924)
007F01  04                 const type 4
007F02  05                 string size (5)
007F03  6D61746800         "math\0"
                           const [23]: "math"
007F08  01                 const type 3
007F09  3810018B           const [24]: (-1962864584)
007F0D  03                 const type 3
007F0E  00000000           const [25]: (0)
007F12  03                 const type 3
007F13  00008040           const [26]: (0)
007F17  01                 const type 3
007F18  4A4D59FB           const [27]: (-78033590)
007F1C  04                 const type 4
007F1D  03                 string size (3)
007F1E  5F5400             "_T\0"
                           const [28]: "_T"
007F21  04                 const type 4
007F22  17                 string size (23)
007F23  4D697373696F6E54+  "MissionT"
007F2B  72616E736D697373+  "ransmiss"
007F33  696F6E53657400     "ionSet\0"
                           const [29]: "MissionTransmissionSet"
007F3A  01                 const type 3
007F3B  1A4B27EC           const [30]: (-332969190)
007F3F  04                 const type 4
007F40  16                 string size (22)
007F41  537572766976616C+  "Survival"
007F49  44726F7041637469+  "DropActi"
007F51  766174656400       "vated\0"
                           const [31]: "SurvivalDropActivated"
007F57  01                 const type 3
007F58  99D60345           const [32]: (1157879449)
007F5C  01                 const type 3
007F5D  6B25B193           const [33]: (-1817107093)
007F61  04                 const type 4
007F62  13                 string size (19)
007F63  537572766976616C+  "Survival"
007F6B  3A2043617073756C+  ": Capsul"
007F73  652000             "e \0"
                           const [34]: "Survival: Capsule "
007F76  04                 const type 4
007F77  0F                 string size (15)
007F78  2061637469766174+  " activat"
007F80  65642061742000     "ed at \0"
                           const [35]: " activated at "
007F87  04                 const type 4
007F88  0A                 string size (10)
007F89  207365636F6E6473+  " seconds"
007F91  2E00               ".\0"
                           const [36]: " seconds."
007F93  04                 const type 4
007F94  16                 string size (22)
007F95  6755706461746545+  "gUpdateE"
007F9D  6C656D656E74616C+  "lemental"
007FA5  4C6179657200       "Layer\0"
                           const [37]: "gUpdateElementalLayer"
007FAB  01                 const type 3
007FAC  01000000           const [38]: (1)
                           * functions:
007FB0  00                 sizep (0)
                           * lines:
007FB2  01                 sizelineinfo (147)
                           [pc] (line)
007FB3  47                 [001] (71)
007FB4  05                 [002] (71)
007FB5  00                 [003] (72)
007FB6  00                 [004] (72)
007FB7  47                 [005] (72)
007FB8  05                 [006] (72)
007FB9  00                 [007] (72)
007FBA  00                 [008] (73)
007FBB  48                 [009] (73)
007FBC  05                 [010] (73)
007FBD  00                 [011] (74)
007FBE  00                 [012] (74)
007FBF  48                 [013] (74)
007FC0  05                 [014] (74)
007FC1  00                 [015] (74)
007FC2  00                 [016] (75)
007FC3  48                 [017] (75)
007FC4  05                 [018] (75)
007FC5  00                 [019] (75)
007FC6  00                 [020] (75)
007FC7  48                 [021] (76)
007FC8  05                 [022] (76)
007FC9  00                 [023] (76)
007FCA  00                 [024] (79)
007FCB  48                 [025] (79)
007FCC  05                 [026] (79)
007FCD  00                 [027] (80)
007FCE  00                 [028] (80)
007FCF  49                 [029] (80)
007FD0  05                 [030] (80)
007FD1  00                 [031] (80)
007FD2  00                 [032] (80)
007FD3  49                 [033] (80)
007FD4  05                 [034] (81)
007FD5  00                 [035] (81)
007FD6  00                 [036] (81)
007FD7  49                 [037] (81)
007FD8  05                 [038] (81)
007FD9  00                 [039] (81)
007FDA  00                 [040] (81)
007FDB  4A                 [041] (84)
007FDC  05                 [042] (84)
007FDD  00                 [043] (84)
007FDE  00                 [044] (84)
007FDF  4A                 [045] (84)
007FE0  05                 [046] (85)
007FE1  00                 [047] (88)
007FE2  00                 [048] (88)
007FE3  4A                 [049] (88)
007FE4  05                 [050] (90)
007FE5  00                 [051] (91)
007FE6  00                 [052] (91)
007FE7  4A                 [053] (91)
007FE8  05                 [054] (92)
007FE9  00                 [055] (92)
007FEA  00                 [056] (92)
007FEB  4A                 [057] (95)
007FEC  05                 [058] (95)
007FED  00                 [059] (95)
007FEE  00                 [060] (95)
007FEF  4B                 [061] (96)
007FF0  05                 [062] (96)
007FF1  00                 [063] (96)
007FF2  00                 [064] (96)
007FF3  4B                 [065] (95)
007FF4  05                 [066] (99)
007FF5  00                 [067] (99)
007FF6  00                 [068] (99)
007FF7  4B                 [069] (99)
007FF8  05                 [070] (99)
007FF9  00                 [071] (100)
007FFA  00                 [072] (100)
007FFB  4B                 [073] (100)
007FFC  05                 [074] (101)
007FFD  00                 [075] (101)
007FFE  00                 [076] (101)
007FFF  4B                 [077] (101)
008000  05                 [078] (101)
008001  00                 [079] (102)
008002  00                 [080] (102)
008003  4C                 [081] (102)
008004  05                 [082] (102)
008005  00                 [083] (102)
008006  00                 [084] (103)
008007  4C                 [085] (103)
008008  05                 [086] (103)
008009  00                 [087] (103)
00800A  00                 [088] (108)
00800B  4C                 [089] (109)
00800C  05                 [090] (109)
00800D  00                 [091] (109)
00800E  00                 [092] (109)
00800F  4F                 [093] (112)
008010  05                 [094] (112)
008011  00                 [095] (112)
008012  00                 [096] (113)
008013  4F                 [097] (113)
008014  05                 [098] (113)
008015  00                 [099] (113)
008016  00                 [100] (113)
008017  4F                 [101] (113)
008018  05                 [102] (114)
008019  00                 [103] (114)
00801A  00                 [104] (114)
00801B  50                 [105] (114)
00801C  05                 [106] (115)
00801D  00                 [107] (115)
00801E  00                 [108] (115)
00801F  50                 [109] (116)
008020  05                 [110] (116)
008021  00                 [111] (116)
008022  00                 [112] (116)
008023  50                 [113] (116)
008024  05                 [114] (116)
008025  00                 [115] (117)
008026  00                 [116] (117)
008027  50                 [117] (117)
008028  05                 [118] (117)
008029  00                 [119] (119)
00802A  00                 [120] (119)
00802B  50                 [121] (119)
00802C  05                 [122] (120)
00802D  00                 [123] (120)
00802E  00                 [124] (121)
00802F  50                 [125] (121)
008030  05                 [126] (121)
008031  00                 [127] (121)
008032  00                 [128] (121)
008033  50                 [129] (121)
008034  05                 [130] (121)
008035  00                 [131] (121)
008036  00                 [132] (121)
008037  51                 [133] (124)
008038  05                 [134] (124)
008039  00                 [135] (124)
00803A  00                 [136] (124)
00803B  51                 [137] (125)
00803C  05                 [138] (125)
00803D  00                 [139] (125)
00803E  00                 [140] (125)
00803F  51                 [141] (125)
008040  05                 [142] (125)
008041  00                 [143] (125)
008042  00                 [144] (125)
008043  51                 [145] (-128)
008044  05                 [146] (-128)
008045  00                 [147] (-127)
                           * locals:
0081FF  00                 sizelocvars (0)
                           * upvalues:
008200  00                 sizeupvalues (0)
                           ** end of function **

                           
008201                     ** function [39] definition (level 2)
                           ** start of function **
008201  00                 string size (0)
                           source name: (none)
008203  0B                 line defined (1411)
008204  D5                 last line defined (1493)
008205  0B                 nups (5)
008206  05                 numparams (1)
008207  01                 is_vararg (0)
008208  00                 maxstacksize (28)
                           * code:
00820B  01                 sizecode (203)
00820C  64004000           [001] self       1   0   256  ; -1625438872
008210  DD400000           [002] getglobal  3   1        ; gScriptTriggerType
008214  62808001           [003] call       1   3   2  
008218  A4004000           [004] self       2   0   256  ; -1625438872
00821C  1D810000           [005] getglobal  4   2        ; gContextActionType
008220  A2808001           [006] call       2   3   2  
008224  E4C04000           [007] self       3   0   259  ; 1839670529
008228  E2800001           [008] call       3   2   2  
00822C  24014100           [009] self       4   0   260  ; -231049143
008230  22810001           [010] call       4   2   2  
008234  5D410100           [011] getglobal  5   5        ; gRegion
008238  6481C102           [012] self       5   5   262  ; -774964848
00823C  62810001           [013] call       5   2   2  
008240  64C1C102           [014] self       5   5   263  ; 537471347
008244  62810001           [015] call       5   2   2  
008248  9D010200           [016] getglobal  6   8        ; gGameRules
00824C  DD410200           [017] getglobal  7   9        ; 1074689893
008250  12020003           [018] move       8   6      
008254  E2810001           [019] call       7   2   2  
008258  D8010000           [020] test       7       0    ; to [22] if true
00825C  1A000080           [021] jmp        1            ; to [23]
008260  1E008000           [022] return     0   1      
008264  D9810200           [023] loadk      7   10       ; 0
008268  24C24203           [024] self       8   6   267  ; -317790213
00826C  93020000           [025] getupval   10  0      
008270  22828001           [026] call       8   3   2  
fail op	21
008274  15004304           [027] concat     0   8   268
008278  1A402B80           [028] jmp        174          ; to [203]
00827C  5D420200           [029] getglobal  9   9        ; 1074689893
008280  92020003           [030] move       10  6      
008284  62820001           [031] call       9   2   2  
008288  58020000           [032] test       9       0    ; to [34] if true
00828C  1A000080           [033] jmp        1            ; to [35]
008290  9D010200           [034] getglobal  6   8        ; gGameRules
008294  5D420200           [035] getglobal  9   9        ; 1074689893
008298  92020003           [036] move       10  6      
00829C  62820001           [037] call       9   2   2  
0082A0  58420000           [038] test       9       1    ; to [40] if false
0082A4  1A802780           [039] jmp        159          ; to [199]
0082A8  5D420100           [040] getglobal  9   5        ; gRegion
0082AC  6442C304           [041] self       9   9   269  ; -1520831144
0082B0  62820001           [042] call       9   2   2  
0082B4  58020000           [043] test       9       0    ; to [45] if true
0082B8  1A402680           [044] jmp        154          ; to [199]
0082BC  64C24203           [045] self       9   6   267  ; -317790213
0082C0  D3020000           [046] getupval   11  0      
0082C4  62828001           [047] call       9   3   2  
0082C8  12028004           [048] move       8   9      
0082CC  64C24203           [049] self       9   6   267  ; -317790213
0082D0  D3028000           [050] getupval   11  1      
0082D4  62828001           [051] call       9   3   2  
fail op	35
0082D8  2380C304           [052] close      0  
0082DC  1AC00180           [053] jmp        8            ; to [62]
0082E0  5D420200           [054] getglobal  9   9        ; 1074689893
0082E4  9DC20300           [055] getglobal  10  15       ; _T
0082E8  8E024405           [056] gettable   10  10  272  ; "gMiniBossArtifactSpawn"
0082EC  62820001           [057] call       9   2   2  
0082F0  58020000           [058] test       9       0    ; to [60] if true
0082F4  1A400080           [059] jmp        2            ; to [62]
0082F8  5DC20300           [060] getglobal  9   15       ; _T
0082FC  4C020088           [061] settable   9   272 0    ; "gMiniBossArtifactSpawn"
008300  59420400           [062] loadk      9   17       ; 0
008304  A4024000           [063] self       10  0   256  ; -1625438872
008308  1D830000           [064] getglobal  12  2        ; gContextActionType
00830C  A2828001           [065] call       10  3   2  
008310  92000005           [066] move       2   10     
008314  9D420200           [067] getglobal  10  9        ; 1074689893
008318  D2020001           [068] move       11  2      
00831C  A2820001           [069] call       10  2   2  
008320  98420000           [070] test       10      1    ; to [72] if false
008324  1A800080           [071] jmp        3            ; to [75]
008328  A4824401           [072] self       10  2   274  ; -1157851114
00832C  A2820001           [073] call       10  2   2  
008330  52020005           [074] move       9   10     
008334  A4C24203           [075] self       10  6   267  ; -317790213
008338  13030001           [076] getupval   12  2      
00833C  A2828001           [077] call       10  3   2  
008340  D3028001           [078] getupval   11  3      
fail op	21
008344  15C00205           [079] concat     0   10  11 
008348  1A001B80           [080] jmp        109          ; to [190]
00834C  DD420200           [081] getglobal  11  9        ; 1074689893
008350  12038000           [082] move       12  1      
008354  E2820001           [083] call       11  2   2  
008358  D8420000           [084] test       11      1    ; to [86] if false
00835C  1AC01980           [085] jmp        104          ; to [190]
008360  E4C2C400           [086] self       11  1   275  ; -803264084
008364  E2820001           [087] call       11  2   2  
fail op	35
008368  2380C305           [088] close      0  
00836C  1AC01880           [089] jmp        100          ; to [190]
fail op	35
008370  2340C404           [090] close      0  
008374  1A401880           [091] jmp        98           ; to [190]
008378  DD420100           [092] getglobal  11  5        ; gRegion
00837C  E402C505           [093] self       11  11  276  ; -2071158816
008380  E2820001           [094] call       11  2   2  
008384  1D430500           [095] getglobal  12  21       ; 1672515847
008388  52038005           [096] move       13  11     
00838C  22030101           [097] call       12  2   4  
008390  1AC01580           [098] jmp        88           ; to [187]
008394  64844508           [099] self       17  16  278  ; -496598497
008398  DDC40500           [100] getglobal  19  23       ; kuvaConvertorItemType
00839C  62848001           [101] call       17  3   2  
0083A0  58040000           [102] test       17      0    ; to [104] if true
0083A4  1A801480           [103] jmp        83           ; to [187]
0083A8  64044608           [104] self       17  16  280  ; -1399888605
0083AC  D2048001           [105] move       19  3      
0083B0  62848001           [106] call       17  3   2  
fail op	21
0083B4  15C08108           [107] concat     0   17  7  
0083B8  1A401380           [108] jmp        78           ; to [187]
0083BC  64444608           [109] self       17  16  281  ; -655368910
0083C0  DDC40500           [110] getglobal  19  23       ; kuvaConvertorItemType
0083C4  62448001           [111] call       17  3   1  
0083C8  64C44203           [112] self       17  6   267  ; -317790213
0083CC  D3040001           [113] getupval   19  2      
0083D0  19450400           [114] loadk      20  17       ; 0
0083D4  62840002           [115] call       17  4   2  
0083D8  A4844603           [116] self       18  6   282  ; -803877924
0083DC  13050001           [117] getupval   20  2      
0083E0  4385C308           [118] add        21  17  270  ; 0
0083E4  A2440002           [119] call       18  4   1  
0083E8  A4C44203           [120] self       18  6   267  ; -317790213
0083EC  13050002           [121] getupval   20  4      
0083F0  A2848001           [122] call       18  3   2  
0083F4  E4844603           [123] self       19  6   282  ; -803877924
0083F8  53050002           [124] getupval   21  4      
0083FC  8D854309           [125] sub        22  18  270  ; 0
008400  E2440002           [126] call       19  4   1  
008404  E4C4C600           [127] self       19  1   283  ; 699694160
008408  59050300           [128] loadk      21  12       ; 0
00840C  E2448001           [129] call       19  3   1  
008410  E4044000           [130] self       19  0   256  ; -1625438872
008414  5D050700           [131] getglobal  21  28       ; survivalProgressBarActionType
008418  E2848001           [132] call       19  3   2  
00841C  1D450200           [133] getglobal  20  9        ; 1074689893
008420  52058009           [134] move       21  19     
008424  22850001           [135] call       20  2   2  
008428  18450000           [136] test       20      1    ; to [138] if false
00842C  1A400080           [137] jmp        2            ; to [140]
008430  2445C709           [138] self       20  19  285  ; -725453761
008434  22450001           [139] call       20  2   1  
008438  24854700           [140] self       20  0   286  ; -1923578185
00843C  99C50700           [141] loadk      22  31       ; "Hide"
008440  22458001           [142] call       20  3   1  
008444  24054000           [143] self       20  0   256  ; -1625438872
008448  9D050800           [144] getglobal  22  32       ; gBaseMarkerInfoType
00844C  22858001           [145] call       20  3   2  
008450  5D450200           [146] getglobal  21  9        ; 1074689893
008454  9205000A           [147] move       22  20     
008458  62850001           [148] call       21  2   2  
00845C  58450000           [149] test       21      1    ; to [151] if false
008460  1A400080           [150] jmp        2            ; to [153]
008464  6445470A           [151] self       21  20  285  ; -725453761
008468  62450001           [152] call       21  2   1  
00846C  6445C802           [153] self       21  5   289  ; -1766734455
008470  DD850800           [154] getglobal  23  34       ; kuvaExtractorAgentType
008474  12068001           [155] move       24  3      
008478  52060002           [156] move       25  4      
00847C  9DC60800           [157] getglobal  26  35       ; -332969190
008480  D9060900           [158] loadk      27  36       ; "KuvaTowerTeam"
008484  A2060001           [159] call       26  2   0  
008488  62850000           [160] call       21  0   2  
00848C  9D450200           [161] getglobal  22  9        ; 1074689893
008490  D205800A           [162] move       23  21     
008494  A2850001           [163] call       22  2   2  
008498  98450000           [164] test       22      1    ; to [166] if false
00849C  1AC00080           [165] jmp        4            ; to [170]
0084A0  9D450900           [166] getglobal  22  37       ; 538022378
0084A4  D9450400           [167] loadk      23  17       ; 0
0084A8  A2450001           [168] call       22  2   1  
0084AC  1A80FD7F           [169] jmp        -9           ; to [161]
0084B0  A4C5C600           [170] self       22  1   283  ; 699694160
0084B4  19860200           [171] loadk      24  10       ; 0
0084B8  A2458001           [172] call       22  3   1  
0084BC  99450400           [173] loadk      22  17       ; 0
fail op	21
0084C0  1580490B           [174] concat     0   22  294
0084C4  1A800180           [175] jmp        7            ; to [183]
0084C8  DDC50900           [176] getglobal  23  39       ; 1289681407
0084CC  E2858000           [177] call       23  1   2  
0084D0  83C5050B           [178] add        22  22  23 
0084D4  DD450900           [179] getglobal  23  37       ; 538022378
0084D8  19460400           [180] loadk      24  17       ; 0
0084DC  E2450001           [181] call       23  2   1  
0084E0  1A80FD7F           [182] jmp        -9           ; to [174]
0084E4  E4C5C600           [183] self       23  1   283  ; 699694160
0084E8  59060A00           [184] loadk      25  40       ; 0
0084EC  E2458001           [185] call       23  3   1  
0084F0  1AC00280           [186] jmp        12           ; to [199]
0084F4  16830000           [187] tforloop   12      2    ; to [189] if exit
0084F8  1A40E97F           [188] jmp        -90          ; to [99]
0084FC  1A000280           [189] jmp        9            ; to [199]
008500  DD450200           [190] getglobal  23  9        ; 1074689893
008504  12068000           [191] move       24  1      
008508  E2850001           [192] call       23  2   2  
00850C  D8050000           [193] test       23      0    ; to [195] if true
008510  1AC00080           [194] jmp        4            ; to [199]
008514  E4054000           [195] self       23  0   256  ; -1625438872
008518  5D460000           [196] getglobal  25  1        ; gScriptTriggerType
00851C  E2858001           [197] call       23  3   2  
008520  5200800B           [198] move       1   23     
008524  DD450900           [199] getglobal  23  37       ; 538022378
008528  19460400           [200] loadk      24  17       ; 0
00852C  E2450001           [201] call       23  2   1  
008530  1AC0D37F           [202] jmp        -176         ; to [27]
008534  1E008000           [203] return     0   1      
                           * constants:
008538  29                 sizek (41)
008539  01                 const type 3
00853A  68C51D9F           const [0]: (-1625438872)
00853E  04                 const type 4
00853F  13                 string size (19)
008540  6753637269707454+  "gScriptT"
008548  7269676765725479+  "riggerTy"
008550  706500             "pe\0"
                           const [1]: "gScriptTriggerType"
008553  04                 const type 4
008554  13                 string size (19)
008555  67436F6E74657874+  "gContext"
00855D  416374696F6E5479+  "ActionTy"
008565  706500             "pe\0"
                           const [2]: "gContextActionType"
008568  01                 const type 3
008569  0125A76D           const [3]: (1839670529)
00856D  01                 const type 3
00856E  49783AF2           const [4]: (-231049143)
008572  04                 const type 4
008573  08                 string size (8)
008574  67526567696F6E00   "gRegion\0"
                           const [5]: "gRegion"
00857C  01                 const type 3
00857D  90F9CED1           const [6]: (-774964848)
008581  01                 const type 3
008582  73290920           const [7]: (537471347)
008586  04                 const type 4
008587  0B                 string size (11)
008588  6747616D6552756C+  "gGameRul"
008590  657300             "es\0"
                           const [8]: "gGameRules"
008593  01                 const type 3
008594  65770E40           const [9]: (1074689893)
008598  03                 const type 3
008599  00004040           const [10]: (0)
00859D  01                 const type 3
00859E  FBE70EED           const [11]: (-317790213)
0085A2  03                 const type 3
0085A3  00008040           const [12]: (0)
0085A7  01                 const type 3
0085A8  58F559A5           const [13]: (-1520831144)
0085AC  03                 const type 3
0085AD  0000803F           const [14]: (0)
0085B1  04                 const type 4
0085B2  03                 string size (3)
0085B3  5F5400             "_T\0"
                           const [15]: "_T"
0085B6  04                 const type 4
0085B7  17                 string size (23)
0085B8  674D696E69426F73+  "gMiniBos"
0085C0  7341727469666163+  "sArtifac"
0085C8  74537061776E00     "tSpawn\0"
                           const [16]: "gMiniBossArtifactSpawn"
0085CF  03                 const type 3
0085D0  00000000           const [17]: (0)
0085D4  01                 const type 3
0085D5  1698FCBA           const [18]: (-1157851114)
0085D9  01                 const type 3
0085DA  AC291FD0           const [19]: (-803264084)
0085DE  01                 const type 3
0085DF  E09F8C84           const [20]: (-2071158816)
0085E3  01                 const type 3
0085E4  0791B063           const [21]: (1672515847)
0085E8  01                 const type 3
0085E9  1F8266E2           const [22]: (-496598497)
0085ED  04                 const type 4
0085EE  16                 string size (22)
0085EF  6B757661436F6E76+  "kuvaConv"
0085F7  6572746F72497465+  "ertorIte"
0085FF  6D5479706500       "mType\0"
                           const [23]: "kuvaConvertorItemType"
008605  01                 const type 3
008606  23658FAC           const [24]: (-1399888605)
00860A  01                 const type 3
00860B  32DDEFD8           const [25]: (-655368910)
00860F  01                 const type 3
008610  DCCB15D0           const [26]: (-803877924)
008614  01                 const type 3
008615  507CB429           const [27]: (699694160)
008619  04                 const type 4
00861A  1E                 string size (30)
00861B  737572766976616C+  "survival"
008623  50726F6772657373+  "Progress"
00862B  426172416374696F+  "BarActio"
008633  6E5479706500       "nType\0"
                           const [28]: "survivalProgressBarActionType"
008639  01                 const type 3
00863A  3F74C2D4           const [29]: (-725453761)
00863E  01                 const type 3
00863F  B786588D           const [30]: (-1923578185)
008643  04                 const type 4
008644  05                 string size (5)
008645  4869646500         "Hide\0"
                           const [31]: "Hide"
00864A  04                 const type 4
00864B  14                 string size (20)
00864C  67426173654D6172+  "gBaseMar"
008654  6B6572496E666F54+  "kerInfoT"
00865C  79706500           "ype\0"
                           const [32]: "gBaseMarkerInfoType"
008660  01                 const type 3
008661  89C5B196           const [33]: (-1766734455)
008665  04                 const type 4
008666  17                 string size (23)
008667  6B75766145787472+  "kuvaExtr"
00866F  6163746F72416765+  "actorAge"
008677  6E745479706500     "ntType\0"
                           const [34]: "kuvaExtractorAgentType"
00867E  01                 const type 3
00867F  1A4B27EC           const [35]: (-332969190)
008683  04                 const type 4
008684  0E                 string size (14)
008685  4B757661546F7765+  "KuvaTowe"
00868D  725465616D00       "rTeam\0"
                           const [36]: "KuvaTowerTeam"
008693  01                 const type 3
008694  EA911120           const [37]: (538022378)
008698  03                 const type 3
008699  0000A041           const [38]: (0)
00869D  01                 const type 3
00869E  FFF9DE4C           const [39]: (1289681407)
0086A2  03                 const type 3
0086A3  00000040           const [40]: (0)
                           * functions:
0086A7  00                 sizep (0)
                           * lines:
0086A9  01                 sizelineinfo (203)
                           [pc] (line)
0086AA  84                 [001] (-124)
0086AB  05                 [002] (-124)
0086AC  00                 [003] (-124)
0086AD  00                 [004] (-123)
0086AE  84                 [005] (-123)
0086AF  05                 [006] (-123)
0086B0  00                 [007] (-122)
0086B1  00                 [008] (-122)
0086B2  84                 [009] (-121)
0086B3  05                 [010] (-121)
0086B4  00                 [011] (-120)
0086B5  00                 [012] (-120)
0086B6  85                 [013] (-120)
0086B7  05                 [014] (-120)
0086B8  00                 [015] (-120)
0086B9  00                 [016] (-119)
0086BA  85                 [017] (-117)
0086BB  05                 [018] (-117)
0086BC  00                 [019] (-117)
0086BD  00                 [020] (-117)
0086BE  85                 [021] (-117)
0086BF  05                 [022] (-116)
0086C0  00                 [023] (-113)
0086C1  00                 [024] (-112)
0086C2  86                 [025] (-112)
0086C3  05                 [026] (-112)
0086C4  00                 [027] (-110)
0086C5  00                 [028] (-110)
0086C6  86                 [029] (-109)
0086C7  05                 [030] (-109)
0086C8  00                 [031] (-109)
0086C9  00                 [032] (-109)
0086CA  87                 [033] (-109)
0086CB  05                 [034] (-108)
0086CC  00                 [035] (-106)
0086CD  00                 [036] (-106)
0086CE  87                 [037] (-106)
0086CF  05                 [038] (-106)
0086D0  00                 [039] (-106)
0086D1  00                 [040] (-106)
0086D2  88                 [041] (-106)
0086D3  05                 [042] (-106)
0086D4  00                 [043] (-106)
0086D5  00                 [044] (-106)
0086D6  88                 [045] (-105)
0086D7  05                 [046] (-105)
0086D8  00                 [047] (-105)
0086D9  00                 [048] (-105)
0086DA  88                 [049] (-103)
0086DB  05                 [050] (-103)
0086DC  00                 [051] (-103)
0086DD  00                 [052] (-103)
0086DE  88                 [053] (-103)
0086DF  05                 [054] (-103)
0086E0  00                 [055] (-103)
0086E1  00                 [056] (-103)
0086E2  88                 [057] (-103)
0086E3  05                 [058] (-103)
0086E4  00                 [059] (-103)
0086E5  00                 [060] (-101)
0086E6  89                 [061] (-101)
0086E7  05                 [062] (-98)
0086E8  00                 [063] (-97)
0086E9  00                 [064] (-97)
0086EA  8B                 [065] (-97)
0086EB  05                 [066] (-97)
0086EC  00                 [067] (-96)
0086ED  00                 [068] (-96)
0086EE  8B                 [069] (-96)
0086EF  05                 [070] (-96)
0086F0  00                 [071] (-96)
0086F1  00                 [072] (-95)
0086F2  8B                 [073] (-95)
0086F3  05                 [074] (-95)
0086F4  00                 [075] (-92)
0086F5  00                 [076] (-92)
0086F6  8B                 [077] (-92)
0086F7  05                 [078] (-91)
0086F8  00                 [079] (-91)
0086F9  00                 [080] (-91)
0086FA  8B                 [081] (-91)
0086FB  05                 [082] (-91)
0086FC  00                 [083] (-91)
0086FD  00                 [084] (-91)
0086FE  8C                 [085] (-91)
0086FF  05                 [086] (-91)
008700  00                 [087] (-91)
008701  00                 [088] (-91)
008702  8F                 [089] (-91)
008703  05                 [090] (-91)
008704  00                 [091] (-91)
008705  00                 [092] (-90)
008706  90                 [093] (-90)
008707  05                 [094] (-90)
008708  00                 [095] (-89)
008709  00                 [096] (-89)
00870A  90                 [097] (-89)
00870B  05                 [098] (-89)
00870C  00                 [099] (-88)
00870D  00                 [100] (-88)
00870E  90                 [101] (-88)
00870F  05                 [102] (-88)
008710  00                 [103] (-88)
008711  00                 [104] (-88)
008712  92                 [105] (-88)
008713  05                 [106] (-88)
008714  00                 [107] (-88)
008715  00                 [108] (-88)
008716  92                 [109] (-85)
008717  05                 [110] (-85)
008718  00                 [111] (-85)
008719  00                 [112] (-83)
00871A  93                 [113] (-83)
00871B  05                 [114] (-83)
00871C  00                 [115] (-83)
00871D  00                 [116] (-82)
00871E  93                 [117] (-82)
00871F  05                 [118] (-82)
008720  00                 [119] (-82)
008721  00                 [120] (-81)
008722  93                 [121] (-81)
008723  05                 [122] (-81)
008724  00                 [123] (-80)
008725  00                 [124] (-80)
008726  93                 [125] (-80)
008727  05                 [126] (-80)
008728  00                 [127] (-78)
008729  00                 [128] (-78)
00872A  93                 [129] (-78)
00872B  05                 [130] (-76)
00872C  00                 [131] (-76)
00872D  00                 [132] (-76)
00872E  94                 [133] (-75)
00872F  05                 [134] (-75)
008730  00                 [135] (-75)
008731  00                 [136] (-75)
008732  96                 [137] (-75)
008733  05                 [138] (-74)
008734  00                 [139] (-74)
008735  00                 [140] (-71)
008736  96                 [141] (-71)
008737  05                 [142] (-71)
008738  00                 [143] (-70)
008739  00                 [144] (-70)
00873A  96                 [145] (-70)
00873B  05                 [146] (-69)
00873C  00                 [147] (-69)
00873D  00                 [148] (-69)
00873E  96                 [149] (-69)
00873F  05                 [150] (-69)
008740  00                 [151] (-68)
008741  00                 [152] (-68)
008742  96                 [153] (-65)
008743  05                 [154] (-65)
008744  00                 [155] (-65)
008745  00                 [156] (-65)
008746  96                 [157] (-65)
008747  05                 [158] (-65)
008748  00                 [159] (-65)
008749  00                 [160] (-65)
00874A  96                 [161] (-63)
00874B  05                 [162] (-63)
00874C  00                 [163] (-63)
00874D  00                 [164] (-63)
00874E  96                 [165] (-63)
00874F  05                 [166] (-62)
008750  00                 [167] (-62)
008751  00                 [168] (-62)
008752  96                 [169] (-62)
008753  05                 [170] (-59)
008754  00                 [171] (-59)
008755  00                 [172] (-59)
008756  96                 [173] (-58)
008757  05                 [174] (-57)
008758  00                 [175] (-57)
008759  00                 [176] (-56)
00875A  97                 [177] (-56)
00875B  05                 [178] (-56)
00875C  00                 [179] (-55)
00875D  00                 [180] (-55)
00875E  97                 [181] (-55)
00875F  05                 [182] (-55)
008760  00                 [183] (-53)
008761  00                 [184] (-53)
008762  97                 [185] (-53)
008763  05                 [186] (-52)
008764  00                 [187] (-89)
008765  00                 [188] (-51)
008766  97                 [189] (-50)
008767  05                 [190] (-49)
008768  00                 [191] (-49)
008769  00                 [192] (-49)
00876A  99                 [193] (-49)
00876B  05                 [194] (-49)
00876C  00                 [195] (-48)
00876D  00                 [196] (-48)
00876E  99                 [197] (-48)
00876F  05                 [198] (-48)
008770  00                 [199] (-45)
008771  00                 [200] (-45)
008772  99                 [201] (-45)
008773  05                 [202] (-45)
008774  00                 [203] (-43)
                           * locals:
0089D6  00                 sizelocvars (0)
                           * upvalues:
0089D7  00                 sizeupvalues (0)
                           ** end of function **

                           
0089D8                     ** function [40] definition (level 2)
                           ** start of function **
0089D8  00                 string size (0)
                           source name: (none)
0089DA  0B                 line defined (1495)
0089DB  E8                 last line defined (1640)
0089DC  0C                 nups (17)
0089DD  11                 numparams (1)
0089DE  01                 is_vararg (0)
0089DF  00                 maxstacksize (39)
                           * code:
0089E2  02                 sizecode (356)
0089E3  5D000000           [001] getglobal  1   0        ; 538022378
0089E7  99400000           [002] loadk      2   1        ; 0
0089EB  62400001           [003] call       1   2   1  
0089EF  5D800000           [004] getglobal  1   2        ; gGameRules
0089F3  9DC00000           [005] getglobal  2   3        ; gRegion
0089F7  A4004101           [006] self       2   2   260  ; -774964848
0089FB  A2800001           [007] call       2   2   2  
0089FF  A4404101           [008] self       2   2   261  ; 537471347
008A03  A2800001           [009] call       2   2   2  
008A07  E4804100           [010] self       3   0   262  ; 1839670529
008A0B  E2800001           [011] call       3   2   2  
008A0F  24C14100           [012] self       4   0   263  ; -231049143
008A13  22810001           [013] call       4   2   2  
008A17  59010200           [014] loadk      5   8        ; 0
008A1B  99410200           [015] loadk      6   9        ; -102
008A1F  E4814201           [016] self       7   2   266  ; -472735398
008A23  E2810001           [017] call       7   2   2  
008A27  0F828103           [018] unm        8   7      
008A2B  04028202           [019] mul        8   5   8  
008A2F  5FC24204           [020] mod        9   8   267  ; 0
008A33  0D420204           [021] sub        8   8   9  
008A37  64024300           [022] self       9   0   268  ; 796523475
008A3B  62820001           [023] call       9   2   2  
fail op	21
008A3F  15400204           [024] concat     0   8   9  
008A43  1AC00080           [025] jmp        4            ; to [30]
008A47  A4424300           [026] self       10  0   269  ; 1992436207
008A4B  12030004           [027] move       12  8      
008A4F  57030000           [028] loadbool   13  0   0    ; false
008A53  A2420002           [029] call       10  4   1  
008A57  A4824300           [030] self       10  0   270  ; 2090114668
008A5B  12030004           [031] move       12  8      
008A5F  57038000           [032] loadbool   13  1   0    ; true
008A63  A2420002           [033] call       10  4   1  
008A67  9DC20000           [034] getglobal  10  3        ; gRegion
008A6B  A4C24305           [035] self       10  10  271  ; -1084394954
008A6F  13030000           [036] getupval   12  0      
008A73  52038001           [037] move       13  3      
008A77  99030400           [038] loadk      14  16       ; 0
008A7B  A2828002           [039] call       10  5   2  
008A7F  DD420400           [040] getglobal  11  17       ; 1074689893
008A83  12030005           [041] move       12  10     
008A87  E2820001           [042] call       11  2   2  
008A8B  D8020000           [043] test       11      0    ; to [45] if true
008A8F  1A000080           [044] jmp        1            ; to [46]
008A93  1E008000           [045] return     0   1      
008A97  E4824405           [046] self       11  10  274  ; -974578778
008A9B  57038000           [047] loadbool   13  1   0    ; true
008A9F  E2428001           [048] call       11  3   1  
008AA3  E4C24405           [049] self       11  10  275  ; -519842096
008AA7  52030000           [050] move       13  0      
008AAB  E2428001           [051] call       11  3   1  
008AAF  DD420400           [052] getglobal  11  17       ; 1074689893
008AB3  1D030500           [053] getglobal  12  20       ; _T
008AB7  0E434506           [054] gettable   12  12  277  ; "kuvaExtractorList"
008ABB  E2820001           [055] call       11  2   2  
008ABF  D8020000           [056] test       11      0    ; to [58] if true
008AC3  1A800180           [057] jmp        7            ; to [65]
008AC7  DD020500           [058] getglobal  11  20       ; _T
008ACB  0B038001           [059] newtable   12  3   0    ; array=3, hash=0
008ACF  59430000           [060] loadk      13  1        ; 0
008AD3  99430000           [061] loadk      14  1        ; 0
008AD7  D9430000           [062] loadk      15  1        ; 0
008ADB  1B438001           [063] setlist    12  3   1    ; index 1 to 3
008ADF  CC02838A           [064] settable   11  277 12   ; "kuvaExtractorList"
008AE3  D9820500           [065] loadk      11  22       ; 0
008AE7  19C30500           [066] loadk      12  23       ; 0
008AEB  5D030500           [067] getglobal  13  20       ; _T
008AEF  4E43C506           [068] gettable   13  13  277  ; "kuvaExtractorList"
008AF3  4A038006           [069] len        13  13     
008AF7  99C30500           [070] loadk      14  23       ; 0
008AFB  10030280           [071] forprep    12  9        ; to [81]
008AFF  1D040500           [072] getglobal  16  20       ; _T
008B03  0E444508           [073] gettable   16  16  277  ; "kuvaExtractorList"
008B07  0EC40308           [074] gettable   16  16  15 
fail op	35
008B0B  23404008           [075] close      0  
008B0F  1AC00080           [076] jmp        4            ; to [81]
008B13  1D040500           [077] getglobal  16  20       ; _T
008B17  0E444508           [078] gettable   16  16  277  ; "kuvaExtractorList"
008B1B  0C848207           [079] settable   16  15  10 
008B1F  1A000080           [080] jmp        1            ; to [82]
008B23  1443FD7F           [081] forloop    12  -10      ; to [72] if loop
008B27  24044605           [082] self       16  10  280  ; -358079410
008B2B  22840001           [083] call       16  2   2  
008B2F  57040000           [084] loadbool   17  0   0    ; false
008B33  58040000           [085] test       17      0    ; to [87] if true
008B37  1A400080           [086] jmp        2            ; to [89]
008B3B  59440600           [087] loadk      17  25       ; 0
fail op	8
008B3F  48048000           [088] setupval   17  1      
008B43  64844601           [089] self       17  2   282  ; -906150570
008B47  D2040000           [090] move       19  0      
008B4B  62448001           [091] call       17  3   1  
008B4F  53040001           [092] getupval   17  2      
008B53  99C40600           [093] loadk      18  27       ; "/Lotus/Language/Objectives/KuvaTowerStarted"
008B57  62440001           [094] call       17  2   1  
008B5B  53048001           [095] getupval   17  3      
008B5F  4E04C708           [096] gettable   17  17  284  ; -78033590
008B63  9D040500           [097] getglobal  18  20       ; _T
008B67  8E444709           [098] gettable   18  18  285  ; "MissionTransmissionSet"
008B6B  DD840700           [099] getglobal  19  30       ; -332969190
008B6F  19C50700           [100] loadk      20  31       ; "KuvaTowerStarted"
008B73  E2840001           [101] call       19  2   2  
008B77  19450000           [102] loadk      20  1        ; 0
008B7B  62440002           [103] call       17  4   1  
008B7F  53048001           [104] getupval   17  3      
008B83  4E04C708           [105] gettable   17  17  284  ; -78033590
008B87  9D040500           [106] getglobal  18  20       ; _T
008B8B  8E444709           [107] gettable   18  18  285  ; "MissionTransmissionSet"
008B8F  DD840700           [108] getglobal  19  30       ; -332969190
008B93  19050800           [109] loadk      20  32       ; "KuvaTowerWarningIntro"
008B97  E2840001           [110] call       19  2   2  
008B9B  19450000           [111] loadk      20  1        ; 0
008B9F  62440002           [112] call       17  4   1  
008BA3  5D440400           [113] getglobal  17  17       ; 1074689893
008BA7  9D440800           [114] getglobal  18  33       ; towerStartSound
008BAB  62840001           [115] call       17  2   2  
008BAF  58440000           [116] test       17      1    ; to [118] if false
008BB3  1A400180           [117] jmp        6            ; to [124]
008BB7  64844800           [118] self       17  0   290  ; 630793108
008BBB  DD440800           [119] getglobal  19  33       ; towerStartSound
008BBF  17050000           [120] loadbool   20  0   0    ; false
008BC3  59C50500           [121] loadk      21  23       ; 0
008BC7  97058000           [122] loadbool   22  1   0    ; true
008BCB  62440003           [123] call       17  6   1  
008BCF  5D440400           [124] getglobal  17  17       ; 1074689893
008BD3  9DC40800           [125] getglobal  18  35       ; towerKeyInsertSound
008BD7  62840001           [126] call       17  2   2  
008BDB  58440000           [127] test       17      1    ; to [129] if false
008BDF  1A400180           [128] jmp        6            ; to [135]
008BE3  64844800           [129] self       17  0   290  ; 630793108
008BE7  DDC40800           [130] getglobal  19  35       ; towerKeyInsertSound
008BEB  17050000           [131] loadbool   20  0   0    ; false
008BEF  59C50500           [132] loadk      21  23       ; 0
008BF3  97058000           [133] loadbool   22  1   0    ; true
008BF7  62440003           [134] call       17  6   1  
008BFB  6404C900           [135] self       17  1   292  ; -317790213
008BFF  D3040002           [136] getupval   19  4      
008C03  62848001           [137] call       17  3   2  
008C07  9D440400           [138] getglobal  18  17       ; 1074689893
008C0B  D2040000           [139] move       19  0      
008C0F  A2840001           [140] call       18  2   2  
008C13  98440000           [141] test       18      1    ; to [143] if false
008C17  1A800580           [142] jmp        23           ; to [166]
008C1B  A4444900           [143] self       18  0   293  ; 1511086594
008C1F  A2840001           [144] call       18  2   2  
008C23  98440000           [145] test       18      1    ; to [147] if false
008C27  1A800480           [146] jmp        19           ; to [166]
008C2B  93048000           [147] getupval   18  1      
fail op	33
008C2F  21800408           [148] tforloop   0       18   ; to [150] if exit
008C33  1AC00380           [149] jmp        16           ; to [166]
fail op	21
008C37  1580C908           [150] concat     0   17  294
008C3B  1A400380           [151] jmp        14           ; to [166]
008C3F  93048000           [152] getupval   18  1      
008C43  8D040409           [153] sub        18  18  16 
008C47  E4C44905           [154] self       19  10  295  ; -1354502290
008C4B  52050008           [155] move       21  16     
008C4F  E2448001           [156] call       19  3   1  
008C53  03C40208           [157] add        16  16  11 
008C57  DD040000           [158] getglobal  19  0        ; 538022378
008C5B  12058005           [159] move       20  11     
008C5F  E2440001           [160] call       19  2   1  
008C63  E404C900           [161] self       19  1   292  ; -317790213
008C67  53050002           [162] getupval   21  4      
008C6B  E2848001           [163] call       19  3   2  
008C6F  52048009           [164] move       17  19     
008C73  1AC0F87F           [165] jmp        -28          ; to [138]
008C77  DD440400           [166] getglobal  19  17       ; 1074689893
008C7B  12050000           [167] move       20  0      
008C7F  E2840001           [168] call       19  2   2  
008C83  D8440000           [169] test       19      1    ; to [171] if false
008C87  1A400180           [170] jmp        6            ; to [177]
008C8B  E4444900           [171] self       19  0   293  ; 1511086594
008C8F  E2840001           [172] call       19  2   2  
008C93  D8440000           [173] test       19      1    ; to [175] if false
008C97  1A400080           [174] jmp        2            ; to [177]
fail op	33
008C9B  21400493           [175] tforloop   0       17   ; to [177] if exit
008C9F  1A000980           [176] jmp        37           ; to [214]
fail op	21
008CA3  1580C908           [177] concat     0   17  294
008CA7  1AC00280           [178] jmp        12           ; to [191]
008CAB  D3040001           [179] getupval   19  2      
008CAF  19050A00           [180] loadk      20  40       ; "/Lotus/Language/Objectives/KuvaTowerDestroyed"
008CB3  E2440001           [181] call       19  2   1  
008CB7  D3048001           [182] getupval   19  3      
008CBB  CE04C709           [183] gettable   19  19  284  ; -78033590
008CBF  1D050500           [184] getglobal  20  20       ; _T
008CC3  0E45470A           [185] gettable   20  20  285  ; "MissionTransmissionSet"
008CC7  5D850700           [186] getglobal  21  30       ; -332969190
008CCB  99450A00           [187] loadk      22  41       ; "KuvaTowerDestroyed"
008CCF  62850001           [188] call       21  2   2  
008CD3  99450000           [189] loadk      22  1        ; 0
008CD7  E2440002           [190] call       19  4   1  
008CDB  DD440400           [191] getglobal  19  17       ; 1074689893
008CDF  1D850A00           [192] getglobal  20  42       ; towerDeadFx
008CE3  E2840001           [193] call       19  2   2  
008CE7  D8440000           [194] test       19      1    ; to [196] if false
008CEB  1A400180           [195] jmp        6            ; to [202]
008CEF  DDC40000           [196] getglobal  19  3        ; gRegion
008CF3  E4C4CA09           [197] self       19  19  299  ; -1110225722
008CF7  5D850A00           [198] getglobal  21  42       ; towerDeadFx
008CFB  92058001           [199] move       22  3      
008CFF  D2050002           [200] move       23  4      
008D03  E2448002           [201] call       19  5   1  
008D07  DD440400           [202] getglobal  19  17       ; 1074689893
008D0B  1D050B00           [203] getglobal  20  44       ; towerDestroyedSound
008D0F  E2840001           [204] call       19  2   2  
008D13  D8440000           [205] test       19      1    ; to [207] if false
008D17  1AC01080           [206] jmp        68           ; to [275]
008D1B  E4844800           [207] self       19  0   290  ; 630793108
008D1F  5D050B00           [208] getglobal  21  44       ; towerDestroyedSound
008D23  97050000           [209] loadbool   22  0   0    ; false
008D27  D9C50500           [210] loadk      23  23       ; 0
008D2B  17068000           [211] loadbool   24  1   0    ; true
008D2F  E2440003           [212] call       19  6   1  
008D33  1A000F80           [213] jmp        61           ; to [275]
008D37  D3040001           [214] getupval   19  2      
008D3B  19450B00           [215] loadk      20  45       ; "/Lotus/Language/Objectives/KuvaTowerCompleted"
008D3F  E2440001           [216] call       19  2   1  
008D43  DD440400           [217] getglobal  19  17       ; 1074689893
008D47  1D850B00           [218] getglobal  20  46       ; towerDoneFx
008D4B  E2840001           [219] call       19  2   2  
008D4F  D8440000           [220] test       19      1    ; to [222] if false
008D53  1A400180           [221] jmp        6            ; to [228]
008D57  DDC40000           [222] getglobal  19  3        ; gRegion
008D5B  E4C4CA09           [223] self       19  19  299  ; -1110225722
008D5F  5D850B00           [224] getglobal  21  46       ; towerDoneFx
008D63  92058001           [225] move       22  3      
008D67  D2050002           [226] move       23  4      
008D6B  E2448002           [227] call       19  5   1  
008D6F  DD440400           [228] getglobal  19  17       ; 1074689893
008D73  1DC50B00           [229] getglobal  20  47       ; towerCompleteSound
008D77  E2840001           [230] call       19  2   2  
008D7B  D8440000           [231] test       19      1    ; to [233] if false
008D7F  1A400180           [232] jmp        6            ; to [239]
008D83  E4844800           [233] self       19  0   290  ; 630793108
008D87  5DC50B00           [234] getglobal  21  47       ; towerCompleteSound
008D8B  97050000           [235] loadbool   22  0   0    ; false
008D8F  D9C50500           [236] loadk      23  23       ; 0
008D93  17068000           [237] loadbool   24  1   0    ; true
008D97  E2440003           [238] call       19  6   1  
008D9B  DD040C00           [239] getglobal  19  48       ; -1828500651
008D9F  13058002           [240] getupval   20  5      
008DA3  53050003           [241] getupval   21  6      
008DA7  93058003           [242] getupval   22  7      
008DAB  A2058000           [243] call       22  1   0  
008DAF  E2840000           [244] call       19  0   2  
008DB3  13050004           [245] getupval   20  8      
008DB7  0E454C0A           [246] gettable   20  20  305  ; 758124900
008DBB  52058009           [247] move       21  19     
008DBF  9D850700           [248] getglobal  22  30       ; -332969190
008DC3  D9850C00           [249] loadk      23  50       ; "/Lotus/Language/Game/GenericObjectiveCompleteXp"
008DC7  A2050001           [250] call       22  2   0  
008DCB  22450000           [251] call       20  0   1  
008DCF  13058004           [252] getupval   20  9      
008DD3  53050005           [253] getupval   21  10     
008DD7  99C50C00           [254] loadk      22  51       ; 0
008DDB  22458001           [255] call       20  3   1  
008DDF  1DC50000           [256] getglobal  20  3        ; gRegion
008DE3  24C54A0A           [257] self       20  20  299  ; -1110225722
008DE7  9D050D00           [258] getglobal  22  52       ; artifactActivatedEffect
008DEB  D2058001           [259] move       23  3      
008DEF  12060002           [260] move       24  4      
008DF3  22458002           [261] call       20  5   1  
008DF7  1DC50000           [262] getglobal  20  3        ; gRegion
008DFB  24C54A0A           [263] self       20  20  299  ; -1110225722
008DFF  9D450D00           [264] getglobal  22  53       ; artifactActivatedSpawner
008E03  D2058001           [265] move       23  3      
008E07  12060002           [266] move       24  4      
008E0B  22458002           [267] call       20  5   1  
008E0F  13058005           [268] getupval   20  11     
008E13  5D850D00           [269] getglobal  21  54       ; math
008E17  4EC5CD0A           [270] gettable   21  21  311  ; -1124579617
008E1B  93050006           [271] getupval   22  12     
008E1F  9C054E0B           [272] div        22  22  312  ; 0
008E23  62050001           [273] call       21  2   0  
008E27  22450000           [274] call       20  0   1  
008E2B  13058006           [275] getupval   20  13     
008E2F  18450000           [276] test       20      1    ; to [278] if false
008E33  1A000180           [277] jmp        5            ; to [283]
008E37  2445CE00           [278] self       20  1   313  ; 952266004
008E3B  97058000           [279] loadbool   22  1   0    ; true
008E3F  22458001           [280] call       20  3   1  
008E43  17058000           [281] loadbool   20  1   0    ; true
fail op	8
008E47  08058006           [282] setupval   20  13     
008E4B  24854405           [283] self       20  10  274  ; -974578778
008E4F  97050000           [284] loadbool   22  0   0    ; false
008E53  22458001           [285] call       20  3   1  
008E57  24C54405           [286] self       20  10  275  ; -519842096
008E5B  8605000B           [287] loadnil    22  22     
008E5F  22458001           [288] call       20  3   1  
008E63  24C54905           [289] self       20  10  295  ; -1354502290
008E67  99450000           [290] loadk      22  1        ; 0
008E6B  22458001           [291] call       20  3   1  
008E6F  1D850E00           [292] getglobal  20  58       ; 1672515847
008E73  5D050500           [293] getglobal  21  20       ; _T
008E77  4E45C50A           [294] gettable   21  21  277  ; "kuvaExtractorList"
008E7B  22050101           [295] call       20  2   4  
008E7F  1A000180           [296] jmp        5            ; to [302]
fail op	35
008E83  2380020C           [297] close      0  
008E87  1A800080           [298] jmp        3            ; to [302]
008E8B  5D060500           [299] getglobal  25  20       ; _T
008E8F  4E46C50C           [300] gettable   25  25  277  ; "kuvaExtractorList"
008E93  4C46C00B           [301] settable   25  23  257  ; 0
008E97  16850000           [302] tforloop   20      2    ; to [304] if exit
008E9B  1A00FE7F           [303] jmp        -7           ; to [297]
008E9F  59C60500           [304] loadk      25  23       ; 0
008EA3  93060007           [305] getupval   26  14     
008EA7  D9C60500           [306] loadk      27  23       ; 0
008EAB  50860480           [307] forprep    25  19       ; to [327]
008EAF  59C70E00           [308] loadk      29  59       ; "SurvivalKuvaStatus"
008EB3  9207000E           [309] move       30  28     
008EB7  4287870E           [310] concat     29  29  30 
008EBB  99070F00           [311] loadk      30  60       ; "KuvaHealthTracker"
008EBF  D207000E           [312] move       31  28     
008EC3  82C7070F           [313] concat     30  30  31 
008EC7  DD070500           [314] getglobal  31  20       ; _T
008ECB  CE47C50F           [315] gettable   31  31  277  ; "kuvaExtractorList"
008ECF  CE07870F           [316] gettable   31  31  28 
fail op	35
008ED3  2340C00F           [317] close      0  
008ED7  1AC00180           [318] jmp        8            ; to [327]
008EDB  DD070500           [319] getglobal  31  20       ; _T
008EDF  CE47CF0F           [320] gettable   31  31  317  ; 327577324
008EE3  1208800E           [321] move       32  29     
008EE7  E2470001           [322] call       31  2   1  
008EEB  DD070500           [323] getglobal  31  20       ; _T
008EEF  CE47CF0F           [324] gettable   31  31  317  ; 327577324
008EF3  1208000F           [325] move       32  30     
008EF7  E2470001           [326] call       31  2   1  
008EFB  54C6FA7F           [327] forloop    25  -20      ; to [308] if loop
008EFF  D3078007           [328] getupval   31  15     
008F03  19C80500           [329] loadk      32  23       ; 0
008F07  E2870001           [330] call       31  2   2  
008F0B  1D480400           [331] getglobal  32  17       ; 1074689893
008F0F  5208800F           [332] move       33  31     
008F13  22880001           [333] call       32  2   2  
008F17  18480000           [334] test       32      1    ; to [336] if false
008F1B  1A400180           [335] jmp        6            ; to [342]
008F1F  0A08800F           [336] len        32  31     
fail op	21
008F23  15008880           [337] concat     0   257 32 
008F27  1A800080           [338] jmp        3            ; to [342]
008F2B  24884601           [339] self       32  2   282  ; -906150570
008F2F  8EC8C50F           [340] gettable   34  31  279  ; 0
008F33  22488001           [341] call       32  3   1  
008F37  2408C900           [342] self       32  1   292  ; -317790213
008F3B  93080008           [343] getupval   34  16     
008F3F  D9480000           [344] loadk      35  1        ; 0
008F43  22880002           [345] call       32  4   2  
008F47  6488CF00           [346] self       33  1   318  ; -803877924
008F4B  D3080008           [347] getupval   35  16     
008F4F  1D890D00           [348] getglobal  36  54       ; math
008F53  0EC94F12           [349] gettable   36  36  319  ; -1962864584
008F57  4DC94510           [350] sub        37  32  279  ; 0
008F5B  99490000           [351] loadk      38  1        ; 0
008F5F  22098001           [352] call       36  3   0  
008F63  62480000           [353] call       33  0   1  
008F67  64085000           [354] self       33  0   320  ; -725453761
008F6B  62480001           [355] call       33  2   1  
008F6F  1E008000           [356] return     0   1      
                           * constants:
008F73  41                 sizek (65)
008F74  01                 const type 3
008F75  EA911120           const [0]: (538022378)
008F79  03                 const type 3
008F7A  00000000           const [1]: (0)
008F7E  04                 const type 4
008F7F  0B                 string size (11)
008F80  6747616D6552756C+  "gGameRul"
008F88  657300             "es\0"
                           const [2]: "gGameRules"
008F8B  04                 const type 4
008F8C  08                 string size (8)
008F8D  67526567696F6E00   "gRegion\0"
                           const [3]: "gRegion"
008F95  01                 const type 3
008F96  90F9CED1           const [4]: (-774964848)
008F9A  01                 const type 3
008F9B  73290920           const [5]: (537471347)
008F9F  01                 const type 3
008FA0  0125A76D           const [6]: (1839670529)
008FA4  01                 const type 3
008FA5  49783AF2           const [7]: (-231049143)
008FA9  03                 const type 3
008FAA  0000FA43           const [8]: (0)
008FAE  03                 const type 3
008FAF  9A99193F           const [9]: (-102)
008FB3  01                 const type 3
008FB4  5AA1D2E3           const [10]: (-472735398)
008FB8  03                 const type 3
008FB9  0000C842           const [11]: (0)
008FBD  01                 const type 3
008FBE  D3FB792F           const [12]: (796523475)
008FC2  01                 const type 3
008FC3  EF29C276           const [13]: (1992436207)
008FC7  01                 const type 3
008FC8  6C9E947C           const [14]: (2090114668)
008FCC  01                 const type 3
008FCD  36725DBF           const [15]: (-1084394954)
008FD1  03                 const type 3
008FD2  0000A040           const [16]: (0)
008FD6  01                 const type 3
008FD7  65770E40           const [17]: (1074689893)
008FDB  01                 const type 3
008FDC  A61BE9C5           const [18]: (-974578778)
008FE0  01                 const type 3
008FE1  D0D603E1           const [19]: (-519842096)
008FE5  04                 const type 4
008FE6  03                 string size (3)
008FE7  5F5400             "_T\0"
                           const [20]: "_T"
008FEA  04                 const type 4
008FEB  12                 string size (18)
008FEC  6B75766145787472+  "kuvaExtr"
008FF4  6163746F724C6973+  "actorLis"
008FFC  7400               "t\0"
                           const [21]: "kuvaExtractorList"
008FFE  03                 const type 3
008FFF  0000003F           const [22]: (0)
009003  03                 const type 3
009004  0000803F           const [23]: (0)
009008  01                 const type 3
009009  4E24A8EA           const [24]: (-358079410)
00900D  03                 const type 3
00900E  00002041           const [25]: (0)
009012  01                 const type 3
009013  563DFDC9           const [26]: (-906150570)
009017  04                 const type 4
009018  2C                 string size (44)
009019  2F4C6F7475732F4C+  "/Lotus/L"
009021  616E67756167652F+  "anguage/"
009029  4F626A6563746976+  "Objectiv"
009031  65732F4B75766154+  "es/KuvaT"
009039  6F77657253746172+  "owerStar"
009041  74656400           "ted\0"
                           const [27]: "/Lotus/Language/Objectives/KuvaTowerStarted"
009045  01                 const type 3
009046  4A4D59FB           const [28]: (-78033590)
00904A  04                 const type 4
00904B  17                 string size (23)
00904C  4D697373696F6E54+  "MissionT"
009054  72616E736D697373+  "ransmiss"
00905C  696F6E53657400     "ionSet\0"
                           const [29]: "MissionTransmissionSet"
009063  01                 const type 3
009064  1A4B27EC           const [30]: (-332969190)
009068  04                 const type 4
009069  11                 string size (17)
00906A  4B757661546F7765+  "KuvaTowe"
009072  7253746172746564+  "rStarted"
00907A  00                 "\0"
                           const [31]: "KuvaTowerStarted"
00907B  04                 const type 4
00907C  16                 string size (22)
00907D  4B757661546F7765+  "KuvaTowe"
009085  725761726E696E67+  "rWarning"
00908D  496E74726F00       "Intro\0"
                           const [32]: "KuvaTowerWarningIntro"
009093  04                 const type 4
009094  10                 string size (16)
009095  746F776572537461+  "towerSta"
00909D  7274536F756E6400   "rtSound\0"
                           const [33]: "towerStartSound"
0090A5  01                 const type 3
0090A6  94239925           const [34]: (630793108)
0090AA  04                 const type 4
0090AB  14                 string size (20)
0090AC  746F7765724B6579+  "towerKey"
0090B4  496E73657274536F+  "InsertSo"
0090BC  756E6400           "und\0"
                           const [35]: "towerKeyInsertSound"
0090C0  01                 const type 3
0090C1  FBE70EED           const [36]: (-317790213)
0090C5  01                 const type 3
0090C6  025A115A           const [37]: (1511086594)
0090CA  03                 const type 3
0090CB  00008040           const [38]: (0)
0090CF  01                 const type 3
0090D0  6EEF43AF           const [39]: (-1354502290)
0090D4  04                 const type 4
0090D5  2E                 string size (46)
0090D6  2F4C6F7475732F4C+  "/Lotus/L"
0090DE  616E67756167652F+  "anguage/"
0090E6  4F626A6563746976+  "Objectiv"
0090EE  65732F4B75766154+  "es/KuvaT"
0090F6  6F77657244657374+  "owerDest"
0090FE  726F79656400       "royed\0"
                           const [40]: "/Lotus/Language/Objectives/KuvaTowerDestroyed"
009104  04                 const type 4
009105  13                 string size (19)
009106  4B757661546F7765+  "KuvaTowe"
00910E  7244657374726F79+  "rDestroy"
009116  656400             "ed\0"
                           const [41]: "KuvaTowerDestroyed"
009119  04                 const type 4
00911A  0C                 string size (12)
00911B  746F776572446561+  "towerDea"
009123  64467800           "dFx\0"
                           const [42]: "towerDeadFx"
009127  01                 const type 3
009128  C64CD3BD           const [43]: (-1110225722)
00912C  04                 const type 4
00912D  14                 string size (20)
00912E  746F776572446573+  "towerDes"
009136  74726F796564536F+  "troyedSo"
00913E  756E6400           "und\0"
                           const [44]: "towerDestroyedSound"
009142  04                 const type 4
009143  2E                 string size (46)
009144  2F4C6F7475732F4C+  "/Lotus/L"
00914C  616E67756167652F+  "anguage/"
009154  4F626A6563746976+  "Objectiv"
00915C  65732F4B75766154+  "es/KuvaT"
009164  6F776572436F6D70+  "owerComp"
00916C  6C6574656400       "leted\0"
                           const [45]: "/Lotus/Language/Objectives/KuvaTowerCompleted"
009172  04                 const type 4
009173  0C                 string size (12)
009174  746F776572446F6E+  "towerDon"
00917C  65467800           "eFx\0"
                           const [46]: "towerDoneFx"
009180  04                 const type 4
009181  13                 string size (19)
009182  746F776572436F6D+  "towerCom"
00918A  706C657465536F75+  "pleteSou"
009192  6E6400             "nd\0"
                           const [47]: "towerCompleteSound"
009195  01                 const type 3
009196  554B0393           const [48]: (-1828500651)
00919A  01                 const type 3
00919B  6411302D           const [49]: (758124900)
00919F  04                 const type 4
0091A0  30                 string size (48)
0091A1  2F4C6F7475732F4C+  "/Lotus/L"
0091A9  616E67756167652F+  "anguage/"
0091B1  47616D652F47656E+  "Game/Gen"
0091B9  657269634F626A65+  "ericObje"
0091C1  6374697665436F6D+  "ctiveCom"
0091C9  706C657465587000   "pleteXp\0"
                           const [50]: "/Lotus/Language/Game/GenericObjectiveCompleteXp"
0091D1  03                 const type 3
0091D2  00004843           const [51]: (0)
0091D6  04                 const type 4
0091D7  18                 string size (24)
0091D8  6172746966616374+  "artifact"
0091E0  4163746976617465+  "Activate"
0091E8  6445666665637400   "dEffect\0"
                           const [52]: "artifactActivatedEffect"
0091F0  04                 const type 4
0091F1  19                 string size (25)
0091F2  6172746966616374+  "artifact"
0091FA  4163746976617465+  "Activate"
009202  64537061776E6572+  "dSpawner"
00920A  00                 "\0"
                           const [53]: "artifactActivatedSpawner"
00920B  04                 const type 4
00920C  05                 string size (5)
00920D  6D61746800         "math\0"
                           const [54]: "math"
009212  01                 const type 3
009213  DF46F8BC           const [55]: (-1124579617)
009217  03                 const type 3
009218  00004040           const [56]: (0)
00921C  01                 const type 3
00921D  146DC238           const [57]: (952266004)
009221  01                 const type 3
009222  0791B063           const [58]: (1672515847)
009226  04                 const type 4
009227  13                 string size (19)
009228  537572766976616C+  "Survival"
009230  4B75766153746174+  "KuvaStat"
009238  757300             "us\0"
                           const [59]: "SurvivalKuvaStatus"
00923B  04                 const type 4
00923C  12                 string size (18)
00923D  4B7576614865616C+  "KuvaHeal"
009245  7468547261636B65+  "thTracke"
00924D  7200               "r\0"
                           const [60]: "KuvaHealthTracker"
00924F  01                 const type 3
009250  EC6E8613           const [61]: (327577324)
009254  01                 const type 3
009255  DCCB15D0           const [62]: (-803877924)
009259  01                 const type 3
00925A  3810018B           const [63]: (-1962864584)
00925E  01                 const type 3
00925F  3F74C2D4           const [64]: (-725453761)
                           * functions:
009263  00                 sizep (0)
                           * lines:
009265  02                 sizelineinfo (356)
                           [pc] (line)
009266  D8                 [001] (-40)
009267  05                 [002] (-40)
009268  00                 [003] (-40)
009269  00                 [004] (-38)
00926A  D8                 [005] (-37)
00926B  05                 [006] (-37)
00926C  00                 [007] (-37)
00926D  00                 [008] (-37)
00926E  D8                 [009] (-37)
00926F  05                 [010] (-36)
009270  00                 [011] (-36)
009271  00                 [012] (-35)
009272  DA                 [013] (-35)
009273  05                 [014] (-32)
009274  00                 [015] (-31)
009275  00                 [016] (-25)
009276  DB                 [017] (-25)
009277  05                 [018] (-24)
009278  00                 [019] (-24)
009279  00                 [020] (-23)
00927A  DB                 [021] (-23)
00927B  05                 [022] (-22)
00927C  00                 [023] (-22)
00927D  00                 [024] (-21)
00927E  DB                 [025] (-21)
00927F  05                 [026] (-20)
009280  00                 [027] (-20)
009281  00                 [028] (-20)
009282  DB                 [029] (-20)
009283  05                 [030] (-18)
009284  00                 [031] (-18)
009285  00                 [032] (-18)
009286  DB                 [033] (-18)
009287  05                 [034] (-15)
009288  00                 [035] (-15)
009289  00                 [036] (-15)
00928A  DC                 [037] (-15)
00928B  05                 [038] (-15)
00928C  00                 [039] (-15)
00928D  00                 [040] (-14)
00928E  DC                 [041] (-14)
00928F  05                 [042] (-14)
009290  00                 [043] (-14)
009291  00                 [044] (-14)
009292  DD                 [045] (-13)
009293  05                 [046] (-11)
009294  00                 [047] (-11)
009295  00                 [048] (-11)
009296  DD                 [049] (-10)
009297  05                 [050] (-10)
009298  00                 [051] (-10)
009299  00                 [052] (-8)
00929A  E0                 [053] (-8)
00929B  05                 [054] (-8)
00929C  00                 [055] (-8)
00929D  00                 [056] (-8)
00929E  E1                 [057] (-8)
00929F  05                 [058] (-7)
0092A0  00                 [059] (-7)
0092A1  00                 [060] (-7)
0092A2  E7                 [061] (-7)
0092A3  05                 [062] (-7)
0092A4  00                 [063] (-7)
0092A5  00                 [064] (-7)
0092A6  E7                 [065] (-4)
0092A7  05                 [066] (-3)
0092A8  00                 [067] (-3)
0092A9  00                 [068] (-3)
0092AA  E8                 [069] (-3)
0092AB  05                 [070] (-3)
0092AC  00                 [071] (-3)
0092AD  00                 [072] (-2)
0092AE  E8                 [073] (-2)
0092AF  05                 [074] (-2)
0092B0  00                 [075] (-2)
0092B1  00                 [076] (-2)
0092B2  E9                 [077] (-1)
0092B3  05                 [078] (-1)
0092B4  00                 [079] (-1)
0092B5  00                 [080] (0)
0092B6  E9                 [081] (-3)
0092B7  05                 [082] (5)
0092B8  00                 [083] (5)
0092B9  00                 [084] (6)
0092BA  EA                 [085] (6)
0092BB  05                 [086] (6)
0092BC  00                 [087] (7)
0092BD  00                 [088] (7)
0092BE  EA                 [089] (9)
0092BF  05                 [090] (9)
0092C0  00                 [091] (9)
0092C1  00                 [092] (12)
0092C2  EB                 [093] (12)
0092C3  05                 [094] (12)
0092C4  00                 [095] (13)
0092C5  00                 [096] (13)
0092C6  EB                 [097] (13)
0092C7  05                 [098] (13)
0092C8  00                 [099] (13)
0092C9  00                 [100] (13)
0092CA  EC                 [101] (13)
0092CB  05                 [102] (13)
0092CC  00                 [103] (13)
0092CD  00                 [104] (14)
0092CE  EC                 [105] (14)
0092CF  05                 [106] (14)
0092D0  00                 [107] (14)
0092D1  00                 [108] (14)
0092D2  EC                 [109] (14)
0092D3  05                 [110] (14)
0092D4  00                 [111] (14)
0092D5  00                 [112] (14)
0092D6  EC                 [113] (15)
0092D7  05                 [114] (15)
0092D8  00                 [115] (15)
0092D9  00                 [116] (15)
0092DA  EE                 [117] (15)
0092DB  05                 [118] (16)
0092DC  00                 [119] (16)
0092DD  00                 [120] (16)
0092DE  EE                 [121] (16)
0092DF  05                 [122] (16)
0092E0  00                 [123] (16)
0092E1  00                 [124] (18)
0092E2  EE                 [125] (18)
0092E3  05                 [126] (18)
0092E4  00                 [127] (18)
0092E5  00                 [128] (18)
0092E6  EE                 [129] (19)
0092E7  05                 [130] (19)
0092E8  00                 [131] (19)
0092E9  00                 [132] (19)
0092EA  F1                 [133] (19)
0092EB  05                 [134] (19)
0092EC  00                 [135] (23)
0092ED  00                 [136] (23)
0092EE  F1                 [137] (23)
0092EF  05                 [138] (24)
0092F0  00                 [139] (24)
0092F1  00                 [140] (24)
0092F2  F1                 [141] (24)
0092F3  05                 [142] (24)
0092F4  00                 [143] (24)
0092F5  00                 [144] (24)
0092F6  F1                 [145] (24)
0092F7  05                 [146] (24)
0092F8  00                 [147] (24)
0092F9  00                 [148] (24)
0092FA  F1                 [149] (24)
0092FB  05                 [150] (24)
0092FC  00                 [151] (24)
0092FD  00                 [152] (25)
0092FE  F1                 [153] (25)
0092FF  05                 [154] (26)
009300  00                 [155] (26)
009301  00                 [156] (26)
009302  F2                 [157] (27)
009303  05                 [158] (28)
009304  00                 [159] (28)
009305  00                 [160] (28)
009306  F2                 [161] (29)
009307  05                 [162] (29)
009308  00                 [163] (29)
009309  00                 [164] (29)
00930A  F2                 [165] (29)
00930B  05                 [166] (33)
00930C  00                 [167] (33)
00930D  00                 [168] (33)
00930E  F2                 [169] (33)
00930F  05                 [170] (33)
009310  00                 [171] (33)
009311  00                 [172] (33)
009312  F2                 [173] (33)
009313  05                 [174] (33)
009314  00                 [175] (33)
009315  00                 [176] (33)
009316  F3                 [177] (34)
009317  05                 [178] (34)
009318  00                 [179] (35)
009319  00                 [180] (35)
00931A  F5                 [181] (35)
00931B  05                 [182] (36)
00931C  00                 [183] (36)
00931D  00                 [184] (36)
00931E  F5                 [185] (36)
00931F  05                 [186] (36)
009320  00                 [187] (36)
009321  00                 [188] (36)
009322  F5                 [189] (36)
009323  05                 [190] (36)
009324  00                 [191] (38)
009325  00                 [192] (38)
009326  F6                 [193] (38)
009327  05                 [194] (38)
009328  00                 [195] (38)
009329  00                 [196] (39)
00932A  F6                 [197] (39)
00932B  05                 [198] (39)
00932C  00                 [199] (39)
00932D  00                 [200] (39)
00932E  F6                 [201] (39)
00932F  05                 [202] (41)
009330  00                 [203] (41)
009331  00                 [204] (41)
009332  F8                 [205] (41)
009333  05                 [206] (41)
009334  00                 [207] (42)
009335  00                 [208] (42)
009336  F8                 [209] (42)
009337  05                 [210] (42)
009338  00                 [211] (42)
009339  00                 [212] (42)
00933A  F8                 [213] (43)
00933B  05                 [214] (45)
00933C  00                 [215] (45)
00933D  00                 [216] (45)
00933E  F8                 [217] (47)
00933F  05                 [218] (47)
009340  00                 [219] (47)
009341  00                 [220] (47)
009342  F8                 [221] (47)
009343  05                 [222] (48)
009344  00                 [223] (48)
009345  00                 [224] (48)
009346  F8                 [225] (48)
009347  05                 [226] (48)
009348  00                 [227] (48)
009349  00                 [228] (50)
00934A  F9                 [229] (50)
00934B  05                 [230] (50)
00934C  00                 [231] (50)
00934D  00                 [232] (50)
00934E  F9                 [233] (51)
00934F  05                 [234] (51)
009350  00                 [235] (51)
009351  00                 [236] (51)
009352  F9                 [237] (51)
009353  05                 [238] (51)
009354  00                 [239] (54)
009355  00                 [240] (54)
009356  F9                 [241] (54)
009357  05                 [242] (54)
009358  00                 [243] (54)
009359  00                 [244] (54)
00935A  F9                 [245] (55)
00935B  05                 [246] (55)
00935C  00                 [247] (55)
00935D  00                 [248] (55)
00935E  F9                 [249] (55)
00935F  05                 [250] (55)
009360  00                 [251] (55)
009361  00                 [252] (60)
009362  F9                 [253] (60)
009363  05                 [254] (60)
009364  00                 [255] (60)
009365  00                 [256] (63)
009366  FC                 [257] (63)
009367  05                 [258] (63)
009368  00                 [259] (63)
009369  00                 [260] (63)
00936A  FD                 [261] (63)
00936B  05                 [262] (64)
00936C  00                 [263] (64)
00936D  00                 [264] (64)
00936E  FD                 [265] (64)
00936F  05                 [266] (64)
009370  00                 [267] (64)
009371  00                 [268] (65)
009372  FD                 [269] (65)
009373  05                 [270] (65)
009374  00                 [271] (65)
009375  00                 [272] (65)
009376  FD                 [273] (65)
009377  05                 [274] (65)
009378  00                 [275] (69)
009379  00                 [276] (69)
00937A  FD                 [277] (69)
00937B  05                 [278] (70)
00937C  00                 [279] (70)
00937D  00                 [280] (70)
00937E  FD                 [281] (71)
00937F  05                 [282] (71)
009380  00                 [283] (75)
009381  00                 [284] (75)
009382  FE                 [285] (75)
009383  05                 [286] (76)
009384  00                 [287] (76)
009385  00                 [288] (76)
009386  FE                 [289] (77)
009387  05                 [290] (77)
009388  00                 [291] (77)
009389  00                 [292] (78)
00938A  FE                 [293] (78)
00938B  05                 [294] (78)
00938C  00                 [295] (78)
00938D  00                 [296] (78)
00938E  FE                 [297] (79)
00938F  05                 [298] (79)
009390  00                 [299] (80)
009391  00                 [300] (80)
009392  FE                 [301] (80)
009393  05                 [302] (78)
009394  00                 [303] (81)
009395  00                 [304] (85)
009396  FF                 [305] (85)
009397  05                 [306] (85)
009398  00                 [307] (85)
009399  00                 [308] (86)
00939A  FF                 [309] (86)
00939B  05                 [310] (86)
00939C  00                 [311] (87)
00939D  00                 [312] (87)
00939E  FF                 [313] (87)
00939F  05                 [314] (88)
0093A0  00                 [315] (88)
0093A1  00                 [316] (88)
0093A2  00                 [317] (88)
0093A3  06                 [318] (88)
0093A4  00                 [319] (89)
0093A5  00                 [320] (89)
0093A6  FD                 [321] (89)
0093A7  05                 [322] (89)
0093A8  00                 [323] (90)
0093A9  00                 [324] (90)
0093AA  05                 [325] (90)
0093AB  06                 [326] (90)
0093AC  00                 [327] (85)
0093AD  00                 [328] (95)
0093AE  05                 [329] (95)
0093AF  06                 [330] (95)
0093B0  00                 [331] (96)
0093B1  00                 [332] (96)
0093B2  06                 [333] (96)
0093B3  06                 [334] (96)
0093B4  00                 [335] (96)
0093B5  00                 [336] (96)
0093B6  06                 [337] (96)
0093B7  06                 [338] (96)
0093B8  00                 [339] (97)
0093B9  00                 [340] (97)
0093BA  06                 [341] (97)
0093BB  06                 [342] (101)
0093BC  00                 [343] (101)
0093BD  00                 [344] (101)
0093BE  07                 [345] (101)
0093BF  06                 [346] (102)
0093C0  00                 [347] (102)
0093C1  00                 [348] (102)
0093C2  07                 [349] (102)
0093C3  06                 [350] (102)
0093C4  00                 [351] (102)
0093C5  00                 [352] (102)
0093C6  09                 [353] (102)
0093C7  06                 [354] (103)
0093C8  00                 [355] (103)
0093C9  00                 [356] (104)
                           * locals:
0097F6  00                 sizelocvars (0)
                           * upvalues:
0097F7  00                 sizeupvalues (0)
                           ** end of function **

                           
0097F8                     ** function [41] definition (level 2)
                           ** start of function **
0097F8  00                 string size (0)
                           source name: (none)
0097FA  0C                 line defined (1642)
0097FB  EF                 last line defined (1647)
0097FC  0C                 nups (1)
0097FD  01                 numparams (1)
0097FE  01                 is_vararg (0)
0097FF  00                 maxstacksize (7)
                           * code:
009801  12                 sizecode (18)
009802  64004000           [01] self       1   0   256  ; -2135866365
009806  62800001           [02] call       1   2   2  
00980A  9D400000           [03] getglobal  2   1        ; 1074689893
00980E  D2008000           [04] move       3   1      
009812  A2800001           [05] call       2   2   2  
009816  98400000           [06] test       2       1    ; to [8] if false
00981A  1A400280           [07] jmp        10           ; to [18]
00981E  93000000           [08] getupval   2   0      
009822  8E804001           [09] gettable   2   2   258  ; 1151150014
009826  DDC00000           [10] getglobal  3   3        ; _T
00982A  CE00C101           [11] gettable   3   3   260  ; "MissionTransmissionSet"
00982E  1D410100           [12] getglobal  4   5        ; -332969190
009832  59810100           [13] loadk      5   6        ; "KuvaCellPickedUp"
009836  22810001           [14] call       4   2   2  
00983A  59C10100           [15] loadk      5   7        ; 0
00983E  92018000           [16] move       6   1      
009842  A2408002           [17] call       2   5   1  
009846  1E008000           [18] return     0   1      
                           * constants:
00984A  08                 sizek (8)
00984B  01                 const type 3
00984C  0344B180           const [0]: (-2135866365)
009850  01                 const type 3
009851  65770E40           const [1]: (1074689893)
009855  01                 const type 3
009856  BE279D44           const [2]: (1151150014)
00985A  04                 const type 4
00985B  03                 string size (3)
00985C  5F5400             "_T\0"
                           const [3]: "_T"
00985F  04                 const type 4
009860  17                 string size (23)
009861  4D697373696F6E54+  "MissionT"
009869  72616E736D697373+  "ransmiss"
009871  696F6E53657400     "ionSet\0"
                           const [4]: "MissionTransmissionSet"
009878  01                 const type 3
009879  1A4B27EC           const [5]: (-332969190)
00987D  04                 const type 4
00987E  11                 string size (17)
00987F  4B75766143656C6C+  "KuvaCell"
009887  5069636B65645570+  "PickedUp"
00988F  00                 "\0"
                           const [6]: "KuvaCellPickedUp"
009890  03                 const type 3
009891  00000000           const [7]: (0)
                           * functions:
009895  00                 sizep (0)
                           * lines:
009896  12                 sizelineinfo (18)
                           [pc] (line)
009897  6B                 [01] (107)
009898  06                 [02] (107)
009899  00                 [03] (108)
00989A  00                 [04] (108)
00989B  6B                 [05] (108)
00989C  06                 [06] (108)
00989D  00                 [07] (108)
00989E  00                 [08] (109)
00989F  6C                 [09] (109)
0098A0  06                 [10] (109)
0098A1  00                 [11] (109)
0098A2  00                 [12] (109)
0098A3  6C                 [13] (109)
0098A4  06                 [14] (109)
0098A5  00                 [15] (109)
0098A6  00                 [16] (109)
0098A7  6C                 [17] (109)
0098A8  06                 [18] (111)
                           * locals:
0098DF  00                 sizelocvars (0)
                           * upvalues:
0098E0  00                 sizeupvalues (0)
                           ** end of function **

                           
0098E1                     ** function [42] definition (level 2)
                           ** start of function **
0098E1  00                 string size (0)
                           source name: (none)
0098E3  0C                 line defined (1653)
0098E4  A4                 last line defined (1700)
0098E5  0D                 nups (4)
0098E6  04                 numparams (0)
0098E7  00                 is_vararg (0)
0098E8  00                 maxstacksize (9)
                           * code:
0098EA  4A                 sizecode (74)
0098EB  1D000000           [01] getglobal  0   0        ; gGameRules
0098EF  64404000           [02] self       1   0   257  ; -317790213
0098F3  D3000000           [03] getupval   3   0      
0098F7  13018000           [04] getupval   4   1      
0098FB  62800002           [05] call       1   4   2  
0098FF  9D800000           [06] getglobal  2   2        ; gPromotedToHost
009903  98400000           [07] test       2       1    ; to [9] if false
009907  1A000180           [08] jmp        5            ; to [14]
00990B  9DC00000           [09] getglobal  2   3        ; 1074689893
00990F  D2000000           [10] move       3   0      
009913  A2800001           [11] call       2   2   2  
009917  98000000           [12] test       2       0    ; to [14] if true
00991B  1AC00080           [13] jmp        4            ; to [18]
00991F  9D000100           [14] getglobal  2   4        ; -1817107093
009923  D9400100           [15] loadk      3   5        ; "Survival: Bailing on SurvivalLoopClient because I am now the host!"
009927  A2400001           [16] call       2   2   1  
00992B  1AC00D80           [17] jmp        56           ; to [74]
00992F  A4404000           [18] self       2   0   257  ; -317790213
009933  13010000           [19] getupval   4   0      
009937  A2808001           [20] call       2   3   2  
fail op	35
00993B  63808000           [21] close      1  
00993F  1A800B80           [22] jmp        47           ; to [70]
fail op	21
009943  15808000           [23] concat     0   1   2  
009947  1A400880           [24] jmp        34           ; to [59]
00994B  E4804100           [25] self       3   0   262  ; -958621156
00994F  52018000           [26] move       5   1      
009953  E2408001           [27] call       3   3   1  
009957  E4C04100           [28] self       3   0   263  ; -959123546
00995B  E2400001           [29] call       3   2   1  
fail op	35
00995F  63808000           [30] close      1  
009963  1A800580           [31] jmp        23           ; to [55]
009967  DD000100           [32] getglobal  3   4        ; -1817107093
00996B  19010200           [33] loadk      4   8        ; "Survival: Client: trying to catch up with new reward count= "
00996F  5D410200           [34] getglobal  5   9        ; -1615931716
009973  92010001           [35] move       6   2      
009977  62810001           [36] call       5   2   2  
00997B  99810200           [37] loadk      6   10       ; ", current="
00997F  DD410200           [38] getglobal  7   9        ; -1615931716
009983  12028000           [39] move       8   1      
009987  E2810001           [40] call       7   2   2  
00998B  02C10102           [41] concat     4   4   7  
00998F  E2400001           [42] call       3   2   1  
009993  43C0C200           [43] add        1   1   267  ; 0
009997  D3000001           [44] getupval   3   2      
00999B  E2808000           [45] call       3   1   2  
00999F  D8400000           [46] test       3       1    ; to [48] if false
0099A3  1A800080           [47] jmp        3            ; to [51]
0099A7  D3008001           [48] getupval   3   3      
0099AB  12018000           [49] move       4   1      
0099AF  E2400001           [50] call       3   2   1  
0099B3  DD000300           [51] getglobal  3   12       ; 538022378
0099B7  19410300           [52] loadk      4   13       ; 0
0099BB  E2400001           [53] call       3   2   1  
0099BF  1A80F97F           [54] jmp        -25          ; to [30]
0099C3  DD000100           [55] getglobal  3   4        ; -1817107093
0099C7  19810300           [56] loadk      4   14       ; "Survival: Client: Reward count matches new reward count."
0099CB  E2400001           [57] call       3   2   1  
0099CF  1A800280           [58] jmp        11           ; to [70]
0099D3  D3008000           [59] getupval   3   1      
fail op	35
0099D7  23C08000           [60] close      0  
0099DB  1AC00180           [61] jmp        8            ; to [70]
0099DF  DD000100           [62] getglobal  3   4        ; -1817107093
0099E3  19C10300           [63] loadk      4   15       ; "Survival: Client: Reward count not yet initialized, setting to "
0099E7  5D410200           [64] getglobal  5   9        ; -1615931716
0099EB  92010001           [65] move       6   2      
0099EF  62810001           [66] call       5   2   2  
0099F3  02410102           [67] concat     4   4   5  
0099F7  E2400001           [68] call       3   2   1  
0099FB  52000001           [69] move       1   2      
0099FF  DD000300           [70] getglobal  3   12       ; 538022378
009A03  19410300           [71] loadk      4   13       ; 0
009A07  E2400001           [72] call       3   2   1  
009A0B  1AC0EE7F           [73] jmp        -68          ; to [6]
009A0F  1E008000           [74] return     0   1      
                           * constants:
009A13  10                 sizek (16)
009A14  04                 const type 4
009A15  0B                 string size (11)
009A16  6747616D6552756C+  "gGameRul"
009A1E  657300             "es\0"
                           const [0]: "gGameRules"
009A21  01                 const type 3
009A22  FBE70EED           const [1]: (-317790213)
009A26  04                 const type 4
009A27  10                 string size (16)
009A28  6750726F6D6F7465+  "gPromote"
009A30  64546F486F737400   "dToHost\0"
                           const [2]: "gPromotedToHost"
009A38  01                 const type 3
009A39  65770E40           const [3]: (1074689893)
009A3D  01                 const type 3
009A3E  6B25B193           const [4]: (-1817107093)
009A42  04                 const type 4
009A43  43                 string size (67)
009A44  537572766976616C+  "Survival"
009A4C  3A204261696C696E+  ": Bailin"
009A54  67206F6E20537572+  "g on Sur"
009A5C  766976616C4C6F6F+  "vivalLoo"
009A64  70436C69656E7420+  "pClient "
009A6C  6265636175736520+  "because "
009A74  4920616D206E6F77+  "I am now"
009A7C  2074686520686F73+  " the hos"
009A84  742100             "t!\0"
                           const [5]: "Survival: Bailing on SurvivalLoopClient because I am now the host!"
009A87  01                 const type 3
009A88  1C9ADCC6           const [6]: (-958621156)
009A8C  01                 const type 3
009A8D  A6EFD4C6           const [7]: (-959123546)
009A91  04                 const type 4
009A92  3D                 string size (61)
009A93  537572766976616C+  "Survival"
009A9B  3A20436C69656E74+  ": Client"
009AA3  3A20747279696E67+  ": trying"
009AAB  20746F2063617463+  " to catc"
009AB3  6820757020776974+  "h up wit"
009ABB  68206E6577207265+  "h new re"
009AC3  7761726420636F75+  "ward cou"
009ACB  6E743D2000         "nt= \0"
                           const [8]: "Survival: Client: trying to catch up with new reward count= "
009AD0  01                 const type 3
009AD1  BCD6AE9F           const [9]: (-1615931716)
009AD5  04                 const type 4
009AD6  0B                 string size (11)
009AD7  2C2063757272656E+  ", curren"
009ADF  743D00             "t=\0"
                           const [10]: ", current="
009AE2  03                 const type 3
009AE3  0000803F           const [11]: (0)
009AE7  01                 const type 3
009AE8  EA911120           const [12]: (538022378)
009AEC  03                 const type 3
009AED  00000000           const [13]: (0)
009AF1  04                 const type 4
009AF2  39                 string size (57)
009AF3  537572766976616C+  "Survival"
009AFB  3A20436C69656E74+  ": Client"
009B03  3A20526577617264+  ": Reward"
009B0B  20636F756E74206D+  " count m"
009B13  617463686573206E+  "atches n"
009B1B  6577207265776172+  "ew rewar"
009B23  6420636F756E742E+  "d count."
009B2B  00                 "\0"
                           const [14]: "Survival: Client: Reward count matches new reward count."
009B2C  04                 const type 4
009B2D  40                 string size (64)
009B2E  537572766976616C+  "Survival"
009B36  3A20436C69656E74+  ": Client"
009B3E  3A20526577617264+  ": Reward"
009B46  20636F756E74206E+  " count n"
009B4E  6F74207965742069+  "ot yet i"
009B56  6E697469616C697A+  "nitializ"
009B5E  65642C2073657474+  "ed, sett"
009B66  696E6720746F2000   "ing to \0"
                           const [15]: "Survival: Client: Reward count not yet initialized, setting to "
                           * functions:
009B6E  00                 sizep (0)
                           * lines:
009B6F  4A                 sizelineinfo (74)
                           [pc] (line)
009B70  76                 [01] (118)
009B71  06                 [02] (120)
009B72  00                 [03] (120)
009B73  00                 [04] (120)
009B74  78                 [05] (120)
009B75  06                 [06] (126)
009B76  00                 [07] (126)
009B77  00                 [08] (126)
009B78  78                 [09] (126)
009B79  06                 [10] (126)
009B7A  00                 [11] (126)
009B7B  00                 [12] (126)
009B7C  78                 [13] (126)
009B7D  06                 [14] (127)
009B7E  00                 [15] (127)
009B7F  00                 [16] (127)
009B80  78                 [17] (-128)
009B81  06                 [18] (-123)
009B82  00                 [19] (-123)
009B83  00                 [20] (-123)
009B84  7E                 [21] (-121)
009B85  06                 [22] (-121)
009B86  00                 [23] (-120)
009B87  00                 [24] (-120)
009B88  7E                 [25] (-119)
009B89  06                 [26] (-119)
009B8A  00                 [27] (-119)
009B8B  00                 [28] (-118)
009B8C  7E                 [29] (-118)
009B8D  06                 [30] (-116)
009B8E  00                 [31] (-116)
009B8F  00                 [32] (-115)
009B90  7E                 [33] (-115)
009B91  06                 [34] (-115)
009B92  00                 [35] (-115)
009B93  00                 [36] (-115)
009B94  7E                 [37] (-115)
009B95  06                 [38] (-115)
009B96  00                 [39] (-115)
009B97  00                 [40] (-115)
009B98  7E                 [41] (-115)
009B99  06                 [42] (-115)
009B9A  00                 [43] (-114)
009B9B  00                 [44] (-113)
009B9C  7E                 [45] (-113)
009B9D  06                 [46] (-113)
009B9E  00                 [47] (-113)
009B9F  00                 [48] (-112)
009BA0  7E                 [49] (-112)
009BA1  06                 [50] (-112)
009BA2  00                 [51] (-110)
009BA3  00                 [52] (-110)
009BA4  7F                 [53] (-110)
009BA5  06                 [54] (-110)
009BA6  00                 [55] (-108)
009BA7  00                 [56] (-108)
009BA8  7F                 [57] (-108)
009BA9  06                 [58] (-108)
009BAA  00                 [59] (-107)
009BAB  00                 [60] (-107)
009BAC  7F                 [61] (-107)
009BAD  06                 [62] (-106)
009BAE  00                 [63] (-106)
009BAF  00                 [64] (-106)
009BB0  80                 [65] (-106)
009BB1  06                 [66] (-106)
009BB2  00                 [67] (-106)
009BB3  00                 [68] (-106)
009BB4  85                 [69] (-105)
009BB5  06                 [70] (-94)
009BB6  00                 [71] (-94)
009BB7  00                 [72] (-94)
009BB8  85                 [73] (-94)
009BB9  06                 [74] (-92)
                           * locals:
009C98  00                 sizelocvars (0)
                           * upvalues:
009C99  00                 sizeupvalues (0)
                           ** end of function **

                           
009C9A                     ** function [43] definition (level 2)
                           ** start of function **
009C9A  00                 string size (0)
                           source name: (none)
009C9C  0D                 line defined (1702)
009C9D  B2                 last line defined (1714)
009C9E  0D                 nups (2)
009C9F  02                 numparams (0)
009CA0  00                 is_vararg (0)
009CA1  00                 maxstacksize (6)
                           * code:
009CA3  32                 sizecode (50)
009CA4  13000000           [01] getupval   0   0      
009CA8  0A000000           [02] len        0   0      
fail op	21
009CAC  15000080           [03] concat     0   256 0  
009CB0  1A000B80           [04] jmp        45           ; to [50]
009CB4  1D400000           [05] getglobal  0   1        ; table
009CB8  0E804000           [06] gettable   0   0   258  ; -843973282
009CBC  53000000           [07] getupval   1   0      
009CC0  22800001           [08] call       0   2   2  
009CC4  5DC00000           [09] getglobal  1   3        ; 1074689893
009CC8  92000000           [10] move       2   0      
009CCC  62800001           [11] call       1   2   2  
009CD0  58400000           [12] test       1       1    ; to [14] if false
009CD4  1A80FC7F           [13] jmp        -13          ; to [1]
009CD8  64004100           [14] self       1   0   260  ; -2135866365
009CDC  62800001           [15] call       1   2   2  
009CE0  6440C100           [16] self       1   1   261  ; 1511086594
009CE4  62800001           [17] call       1   2   2  
009CE8  58400000           [18] test       1       1    ; to [20] if false
009CEC  1A00FB7F           [19] jmp        -19          ; to [1]
009CF0  5D400000           [20] getglobal  1   1        ; table
009CF4  4E80C100           [21] gettable   1   1   262  ; -431682403
009CF8  93000000           [22] getupval   2   0      
009CFC  D9C00100           [23] loadk      3   7        ; 0
009D00  12010000           [24] move       4   0      
009D04  62400002           [25] call       1   4   1  
009D08  64004200           [26] self       1   0   264  ; 1569762139
009D0C  62800001           [27] call       1   2   2  
009D10  9DC00000           [28] getglobal  2   3        ; 1074689893
009D14  D2008000           [29] move       3   1      
009D18  A2800001           [30] call       2   2   2  
009D1C  98400000           [31] test       2       1    ; to [33] if false
009D20  1A000280           [32] jmp        9            ; to [42]
009D24  A440C200           [33] self       2   1   265  ; -1957065004
009D28  1D810200           [34] getglobal  4   10       ; gAvatarType
009D2C  A2808001           [35] call       2   3   2  
009D30  98000000           [36] test       2       0    ; to [38] if true
009D34  1A400280           [37] jmp        10           ; to [48]
009D38  A440C100           [38] self       2   1   261  ; 1511086594
009D3C  A2800001           [39] call       2   2   2  
009D40  98000000           [40] test       2       0    ; to [42] if true
009D44  1A400180           [41] jmp        6            ; to [48]
009D48  93008000           [42] getupval   2   1      
009D4C  D2000000           [43] move       3   0      
009D50  1DC10200           [44] getglobal  4   11       ; gRegion
009D54  24014302           [45] self       4   4   268  ; -2071158816
009D58  22010001           [46] call       4   2   0  
009D5C  A2400000           [47] call       2   0   1  
009D60  1E008000           [48] return     0   1      
009D64  1A80F37F           [49] jmp        -49          ; to [1]
009D68  1E008000           [50] return     0   1      
                           * constants:
009D6C  0D                 sizek (13)
009D6D  03                 const type 3
009D6E  00000000           const [0]: (0)
009D72  04                 const type 4
009D73  06                 string size (6)
009D74  7461626C6500       "table\0"
                           const [1]: "table"
009D7A  01                 const type 3
009D7B  5EFDB1CD           const [2]: (-843973282)
009D7F  01                 const type 3
009D80  65770E40           const [3]: (1074689893)
009D84  01                 const type 3
009D85  0344B180           const [4]: (-2135866365)
009D89  01                 const type 3
009D8A  025A115A           const [5]: (1511086594)
009D8E  01                 const type 3
009D8F  9D0C45E6           const [6]: (-431682403)
009D93  03                 const type 3
009D94  0000803F           const [7]: (0)
009D98  01                 const type 3
009D99  5BAB905D           const [8]: (1569762139)
009D9D  01                 const type 3
009D9E  D48E598B           const [9]: (-1957065004)
009DA2  04                 const type 4
009DA3  0C                 string size (12)
009DA4  6741766174617254+  "gAvatarT"
009DAC  79706500           "ype\0"
                           const [10]: "gAvatarType"
009DB0  04                 const type 4
009DB1  08                 string size (8)
009DB2  67526567696F6E00   "gRegion\0"
                           const [11]: "gRegion"
009DBA  01                 const type 3
009DBB  E09F8C84           const [12]: (-2071158816)
                           * functions:
009DBF  00                 sizep (0)
                           * lines:
009DC0  32                 sizelineinfo (50)
                           [pc] (line)
009DC1  A7                 [01] (-89)
009DC2  06                 [02] (-89)
009DC3  00                 [03] (-89)
009DC4  00                 [04] (-89)
009DC5  A7                 [05] (-88)
009DC6  06                 [06] (-88)
009DC7  00                 [07] (-88)
009DC8  00                 [08] (-88)
009DC9  A7                 [09] (-87)
009DCA  06                 [10] (-87)
009DCB  00                 [11] (-87)
009DCC  00                 [12] (-87)
009DCD  A7                 [13] (-87)
009DCE  06                 [14] (-87)
009DCF  00                 [15] (-87)
009DD0  00                 [16] (-87)
009DD1  A8                 [17] (-87)
009DD2  06                 [18] (-87)
009DD3  00                 [19] (-87)
009DD4  00                 [20] (-86)
009DD5  A8                 [21] (-86)
009DD6  06                 [22] (-86)
009DD7  00                 [23] (-86)
009DD8  00                 [24] (-86)
009DD9  A8                 [25] (-86)
009DDA  06                 [26] (-85)
009DDB  00                 [27] (-85)
009DDC  00                 [28] (-84)
009DDD  A8                 [29] (-84)
009DDE  06                 [30] (-84)
009DDF  00                 [31] (-84)
009DE0  00                 [32] (-84)
009DE1  A9                 [33] (-84)
009DE2  06                 [34] (-84)
009DE3  00                 [35] (-84)
009DE4  00                 [36] (-84)
009DE5  A9                 [37] (-84)
009DE6  06                 [38] (-84)
009DE7  00                 [39] (-84)
009DE8  00                 [40] (-84)
009DE9  A9                 [41] (-84)
009DEA  06                 [42] (-83)
009DEB  00                 [43] (-83)
009DEC  00                 [44] (-83)
009DED  A9                 [45] (-83)
009DEE  06                 [46] (-83)
009DEF  00                 [47] (-83)
009DF0  00                 [48] (-81)
009DF1  A9                 [49] (-80)
009DF2  06                 [50] (-78)
                           * locals:
009E89  00                 sizelocvars (0)
                           * upvalues:
009E8A  00                 sizeupvalues (0)
                           ** end of function **

                           
009E8B                     ** function [44] definition (level 2)
                           ** start of function **
009E8B  00                 string size (0)
                           source name: (none)
009E8D  0D                 line defined (1716)
009E8E  D3                 last line defined (1747)
009E8F  0D                 nups (9)
009E90  09                 numparams (0)
009E91  00                 is_vararg (0)
009E92  00                 maxstacksize (10)
                           * code:
009E94  4D                 sizecode (77)
009E95  1D000000           [01] getglobal  0   0        ; gGameRules
009E99  5D400000           [02] getglobal  1   1        ; gRegion
009E9D  6480C000           [03] self       1   1   258  ; -774964848
009EA1  62800001           [04] call       1   2   2  
009EA5  A4C0C000           [05] self       2   1   259  ; 537471347
009EA9  A2800001           [06] call       2   2   2  
009EAD  E4004100           [07] self       3   0   260  ; -317790213
009EB1  53010000           [08] getupval   5   0      
009EB5  E2808001           [09] call       3   3   2  
009EB9  13018000           [10] getupval   4   1      
009EBD  0E414102           [11] gettable   4   4   261  ; 198248041
009EC1  22818000           [12] call       4   1   2  
009EC5  64814101           [13] self       5   2   262  ; -287792134
009EC9  62810001           [14] call       5   2   2  
009ECD  58410000           [15] test       5       1    ; to [17] if false
009ED1  1A000780           [16] jmp        29           ; to [46]
009ED5  53010001           [17] getupval   5   2      
fail op	33
009ED9  21C08002           [18] tforloop   0       3    ; to [20] if exit
009EDD  1A400680           [19] jmp        26           ; to [46]
009EE1  64C14100           [20] self       5   0   263  ; -803877924
009EE5  D3018001           [21] getupval   7   3      
009EE9  19020200           [22] loadk      8   8        ; 0
009EED  62410002           [23] call       5   4   1  
009EF1  64414200           [24] self       5   0   265  ; 2051260977
009EF5  D7018000           [25] loadbool   7   1   0    ; true
009EF9  62418001           [26] call       5   3   1  
009EFD  64814202           [27] self       5   4   266  ; -1923578185
009F01  D9C10200           [28] loadk      7   11       ; "Enable"
009F05  62418001           [29] call       5   3   1  
009F09  53010002           [30] getupval   5   4      
009F0D  4E01C302           [31] gettable   5   5   268  ; -78033590
009F11  9D410300           [32] getglobal  6   13       ; _T
009F15  8E814303           [33] gettable   6   6   270  ; "MissionTransmissionSet"
009F19  DDC10300           [34] getglobal  7   15       ; -332969190
009F1D  19020400           [35] loadk      8   16       ; "SurvivalExtractionReady"
009F21  E2810001           [36] call       7   2   2  
009F25  19420400           [37] loadk      8   17       ; 0
009F29  62410002           [38] call       5   4   1  
009F2D  53018002           [39] getupval   5   5      
009F31  62818000           [40] call       5   1   2  
009F35  58010000           [41] test       5       0    ; to [43] if true
009F39  1A800080           [42] jmp        3            ; to [46]
009F3D  53010003           [43] getupval   5   6      
009F41  4E81C402           [44] gettable   5   5   274  ; -1903315282
009F45  62418000           [45] call       5   1   1  
009F49  64014100           [46] self       5   0   260  ; -317790213
009F4D  D3010000           [47] getupval   7   0      
009F51  62818001           [48] call       5   3   2  
009F55  9DC10400           [49] getglobal  6   19       ; 1074689893
009F59  D2010002           [50] move       7   4      
009F5D  A2810001           [51] call       6   2   2  
009F61  98410000           [52] test       6       1    ; to [54] if false
009F65  1A800580           [53] jmp        23           ; to [77]
fail op	35
009F69  6300C502           [54] close      1  
009F6D  1A000180           [55] jmp        5            ; to [61]
fail op	21
009F71  15408188           [56] concat     0   273 5  
009F75  1A800480           [57] jmp        19           ; to [77]
009F79  9F41C502           [58] mod        6   5   277  ; 0
fail op	35
009F7D  23404403           [59] close      0  
009F81  1AC00380           [60] jmp        16           ; to [77]
009F85  A4814502           [61] self       6   4   278  ; -2145913200
009F89  1DC20500           [62] getglobal  8   23       ; Lotus_Game
009F8D  0E024604           [63] gettable   8   8   280  ; "BaseMarkerInfo_DR_NONE"
009F91  A2418001           [64] call       6   3   1  
009F95  93018003           [65] getupval   6   7      
fail op	35
009F99  23404603           [66] close      0  
009F9D  1A000280           [67] jmp        9            ; to [77]
009FA1  93010004           [68] getupval   6   8      
009FA5  A4814603           [69] self       6   6   282  ; 1632191879
009FA9  19C20600           [70] loadk      8   27       ; 0
009FAD  65020000           [71] closure    9   0      
009FB1  12000002           [72] move       0   4      
009FB5  13000004           [73] getupval   0   8      
009FB9  13008003           [74] getupval   0   7      
009FBD  A2810002           [75] call       6   4   2  
fail op	8
009FC1  88018003           [76] setupval   6   7      
009FC5  1E008000           [77] return     0   1      
                           * constants:
009FC9  1C                 sizek (28)
009FCA  04                 const type 4
009FCB  0B                 string size (11)
009FCC  6747616D6552756C+  "gGameRul"
009FD4  657300             "es\0"
                           const [0]: "gGameRules"
009FD7  04                 const type 4
009FD8  08                 string size (8)
009FD9  67526567696F6E00   "gRegion\0"
                           const [1]: "gRegion"
009FE1  01                 const type 3
009FE2  90F9CED1           const [2]: (-774964848)
009FE6  01                 const type 3
009FE7  73290920           const [3]: (537471347)
009FEB  01                 const type 3
009FEC  FBE70EED           const [4]: (-317790213)
009FF0  01                 const type 3
009FF1  6906D10B           const [5]: (198248041)
009FF5  01                 const type 3
009FF6  FAA3D8EE           const [6]: (-287792134)
009FFA  01                 const type 3
009FFB  DCCB15D0           const [7]: (-803877924)
009FFF  03                 const type 3
00A000  00004040           const [8]: (0)
00A004  01                 const type 3
00A005  31C2437A           const [9]: (2051260977)
00A009  01                 const type 3
00A00A  B786588D           const [10]: (-1923578185)
00A00E  04                 const type 4
00A00F  07                 string size (7)
00A010  456E61626C6500     "Enable\0"
                           const [11]: "Enable"
00A017  01                 const type 3
00A018  4A4D59FB           const [12]: (-78033590)
00A01C  04                 const type 4
00A01D  03                 string size (3)
00A01E  5F5400             "_T\0"
                           const [13]: "_T"
00A021  04                 const type 4
00A022  17                 string size (23)
00A023  4D697373696F6E54+  "MissionT"
00A02B  72616E736D697373+  "ransmiss"
00A033  696F6E53657400     "ionSet\0"
                           const [14]: "MissionTransmissionSet"
00A03A  01                 const type 3
00A03B  1A4B27EC           const [15]: (-332969190)
00A03F  04                 const type 4
00A040  18                 string size (24)
00A041  537572766976616C+  "Survival"
00A049  4578747261637469+  "Extracti"
00A051  6F6E526561647900   "onReady\0"
                           const [16]: "SurvivalExtractionReady"
00A059  03                 const type 3
00A05A  00000000           const [17]: (0)
00A05E  01                 const type 3
00A05F  AEB68D8E           const [18]: (-1903315282)
00A063  01                 const type 3
00A064  65770E40           const [19]: (1074689893)
00A068  03                 const type 3
00A069  0000803F           const [20]: (0)
00A06D  03                 const type 3
00A06E  00008040           const [21]: (0)
00A072  01                 const type 3
00A073  90F61780           const [22]: (-2145913200)
00A077  04                 const type 4
00A078  0B                 string size (11)
00A079  4C6F7475735F4761+  "Lotus_Ga"
00A081  6D6500             "me\0"
                           const [23]: "Lotus_Game"
00A084  04                 const type 4
00A085  17                 string size (23)
00A086  426173654D61726B+  "BaseMark"
00A08E  6572496E666F5F44+  "erInfo_D"
00A096  525F4E4F4E4500     "R_NONE\0"
                           const [24]: "BaseMarkerInfo_DR_NONE"
00A09D  00                 const type 0
                           const [25]: nil
00A09E  01                 const type 3
00A09F  87454961           const [26]: (1632191879)
00A0A3  03                 const type 3
00A0A4  00007042           const [27]: (0)
                           * functions:
00A0A8  01                 sizep (1)
                           
00A0A9                     ** function [0] definition (level 3)
                           ** start of function **
00A0A9  00                 string size (0)
                           source name: (none)
00A0AB  0D                 line defined (1740)
00A0AC  D0                 last line defined (1744)
00A0AD  0D                 nups (3)
00A0AE  03                 numparams (0)
00A0AF  00                 is_vararg (0)
00A0B0  00                 maxstacksize (3)
                           * code:
00A0B2  0C                 sizecode (12)
00A0B3  13000000           [01] getupval   0   0      
00A0B7  24004000           [02] self       0   0   256  ; -2145913200
00A0BB  9D400000           [03] getglobal  2   1        ; Lotus_Game
00A0BF  8E804001           [04] gettable   2   2   258  ; "BaseMarkerInfo_DR_SAME_ZONE"
00A0C3  22408001           [05] call       0   3   1  
00A0C7  13008000           [06] getupval   0   1      
00A0CB  24C04000           [07] self       0   0   259  ; -718845091
00A0CF  93000001           [08] getupval   2   2      
00A0D3  22408001           [09] call       0   3   1  
00A0D7  06000000           [10] loadnil    0   0      
fail op	8
00A0DB  08000001           [11] setupval   0   2      
00A0DF  1E008000           [12] return     0   1      
                           * constants:
00A0E3  04                 sizek (4)
00A0E4  01                 const type 3
00A0E5  90F61780           const [0]: (-2145913200)
00A0E9  04                 const type 4
00A0EA  0B                 string size (11)
00A0EB  4C6F7475735F4761+  "Lotus_Ga"
00A0F3  6D6500             "me\0"
                           const [1]: "Lotus_Game"
00A0F6  04                 const type 4
00A0F7  1C                 string size (28)
00A0F8  426173654D61726B+  "BaseMark"
00A100  6572496E666F5F44+  "erInfo_D"
00A108  525F53414D455F5A+  "R_SAME_Z"
00A110  4F4E4500           "ONE\0"
                           const [2]: "BaseMarkerInfo_DR_SAME_ZONE"
00A114  01                 const type 3
00A115  5D4B27D5           const [3]: (-718845091)
                           * functions:
00A119  00                 sizep (0)
                           * lines:
00A11A  0C                 sizelineinfo (12)
                           [pc] (line)
00A11B  CD                 [01] (-51)
00A11C  06                 [02] (-51)
00A11D  00                 [03] (-51)
00A11E  00                 [04] (-51)
00A11F  CD                 [05] (-51)
00A120  06                 [06] (-50)
00A121  00                 [07] (-50)
00A122  00                 [08] (-50)
00A123  CD                 [09] (-50)
00A124  06                 [10] (-49)
00A125  00                 [11] (-49)
00A126  00                 [12] (-48)
                           * locals:
00A14B  00                 sizelocvars (0)
                           * upvalues:
00A14C  00                 sizeupvalues (0)
                           ** end of function **

                           * lines:
00A14D  4D                 sizelineinfo (77)
                           [pc] (line)
00A14E  B5                 [01] (-75)
00A14F  06                 [02] (-74)
00A150  00                 [03] (-74)
00A151  00                 [04] (-74)
00A152  B6                 [05] (-73)
00A153  06                 [06] (-73)
00A154  00                 [07] (-72)
00A155  00                 [08] (-72)
00A156  B6                 [09] (-72)
00A157  06                 [10] (-70)
00A158  00                 [11] (-70)
00A159  00                 [12] (-70)
00A15A  B6                 [13] (-68)
00A15B  06                 [14] (-68)
00A15C  00                 [15] (-68)
00A15D  00                 [16] (-68)
00A15E  B7                 [17] (-68)
00A15F  06                 [18] (-68)
00A160  00                 [19] (-68)
00A161  00                 [20] (-67)
00A162  B7                 [21] (-67)
00A163  06                 [22] (-67)
00A164  00                 [23] (-67)
00A165  00                 [24] (-66)
00A166  B8                 [25] (-66)
00A167  06                 [26] (-66)
00A168  00                 [27] (-65)
00A169  00                 [28] (-65)
00A16A  B8                 [29] (-65)
00A16B  06                 [30] (-64)
00A16C  00                 [31] (-64)
00A16D  00                 [32] (-64)
00A16E  B8                 [33] (-64)
00A16F  06                 [34] (-64)
00A170  00                 [35] (-64)
00A171  00                 [36] (-64)
00A172  BA                 [37] (-64)
00A173  06                 [38] (-64)
00A174  00                 [39] (-62)
00A175  00                 [40] (-62)
00A176  BA                 [41] (-62)
00A177  06                 [42] (-62)
00A178  00                 [43] (-61)
00A179  00                 [44] (-61)
00A17A  BA                 [45] (-61)
00A17B  06                 [46] (-56)
00A17C  00                 [47] (-56)
00A17D  00                 [48] (-56)
00A17E  BC                 [49] (-55)
00A17F  06                 [50] (-55)
00A180  00                 [51] (-55)
00A181  00                 [52] (-55)
00A182  BC                 [53] (-55)
00A183  06                 [54] (-55)
00A184  00                 [55] (-55)
00A185  00                 [56] (-55)
00A186  BC                 [57] (-55)
00A187  06                 [58] (-55)
00A188  00                 [59] (-55)
00A189  00                 [60] (-55)
00A18A  BC                 [61] (-54)
00A18B  06                 [62] (-54)
00A18C  00                 [63] (-54)
00A18D  00                 [64] (-54)
00A18E  BC                 [65] (-53)
00A18F  06                 [66] (-53)
00A190  00                 [67] (-53)
00A191  00                 [68] (-52)
00A192  BC                 [69] (-52)
00A193  06                 [70] (-52)
00A194  00                 [71] (-48)
00A195  00                 [72] (-48)
00A196  BC                 [73] (-48)
00A197  06                 [74] (-48)
00A198  00                 [75] (-52)
00A199  00                 [76] (-48)
00A19A  BD                 [77] (-45)
                           * locals:
00A282  00                 sizelocvars (0)
                           * upvalues:
00A283  00                 sizeupvalues (0)
                           ** end of function **

                           
00A284                     ** function [45] definition (level 2)
                           ** start of function **
00A284  00                 string size (0)
                           source name: (none)
00A286  0D                 line defined (1749)
00A287  8A                 last line defined (1802)
00A288  0E                 nups (6)
00A289  06                 numparams (2)
00A28A  02                 is_vararg (0)
00A28B  00                 maxstacksize (11)
                           * code:
00A28D  7B                 sizecode (123)
00A28E  97000000           [001] loadbool   2   0   0    ; false
00A292  DD000000           [002] getglobal  3   0        ; string
00A296  CE40C001           [003] gettable   3   3   257  ; -565905820
00A29A  1D810000           [004] getglobal  4   2        ; -1615931716
00A29E  5DC10000           [005] getglobal  5   3        ; gGameRules
00A2A2  6401C102           [006] self       5   5   260  ; -1201441975
00A2A6  62810001           [007] call       5   2   2  
00A2AA  4E41C102           [008] gettable   5   5   261  ; "activeMissionTag"
00A2AE  22810001           [009] call       4   2   2  
00A2B2  59810100           [010] loadk      5   6        ; "Void"
00A2B6  E2808001           [011] call       3   3   2  
00A2BA  D8000000           [012] test       3       0    ; to [14] if true
00A2BE  1A001280           [013] jmp        73           ; to [87]
fail op	35
00A2C2  63C0C100           [014] close      1  
00A2C6  1A800080           [015] jmp        3            ; to [19]
00A2CA  13010000           [016] getupval   4   0      
fail op	35
00A2CE  23008100           [017] close      0  
00A2D2  1AC01080           [018] jmp        68           ; to [87]
00A2D6  1DC10000           [019] getglobal  4   3        ; gGameRules
00A2DA  24014202           [020] self       4   4   264  ; -803877924
00A2DE  93018000           [021] getupval   6   1      
00A2E2  D3010000           [022] getupval   7   0      
00A2E6  22410002           [023] call       4   4   1  
00A2EA  13010001           [024] getupval   4   2      
00A2EE  0E414202           [025] gettable   4   4   265  ; -132701534
fail op	35
00A2F2  63C0C100           [026] close      1  
00A2F6  1A000080           [027] jmp        1            ; to [29]
00A2FA  57410000           [028] loadbool   5   0   1    ; false, to [30]
00A2FE  57018000           [029] loadbool   5   1   0    ; true
00A302  99810200           [030] loadk      6   10       ; 0
00A306  D9C10200           [031] loadk      7   11       ; 0
00A30A  22810002           [032] call       4   4   2  
00A30E  53018001           [033] getupval   5   3      
00A312  4E01C302           [034] gettable   5   5   268  ; 1776858983
00A316  62818000           [035] call       5   1   2  
00A31A  58410000           [036] test       5       1    ; to [38] if false
00A31E  1A400280           [037] jmp        10           ; to [48]
00A322  5D410300           [038] getglobal  5   13       ; 1289681407
00A326  62818000           [039] call       5   1   2  
00A32A  0D410102           [040] sub        4   4   5  
fail op	33
00A32E  21C04202           [041] tforloop   0       267  ; to [43] if exit
00A332  1A000080           [042] jmp        1            ; to [44]
00A336  1AC00080           [043] jmp        4            ; to [48]
00A33A  5D810300           [044] getglobal  5   14       ; 538022378
00A33E  99C10200           [045] loadk      6   11       ; 0
00A342  62410001           [046] call       5   2   1  
00A346  1A00FC7F           [047] jmp        -15          ; to [33]
00A34A  19C10300           [048] loadk      4   15       ; 0
00A34E  53018001           [049] getupval   5   3      
00A352  4E01C302           [050] gettable   5   5   268  ; 1776858983
00A356  62818000           [051] call       5   1   2  
00A35A  58010000           [052] test       5       0    ; to [54] if true
00A35E  1A400280           [053] jmp        10           ; to [64]
00A362  5D410300           [054] getglobal  5   13       ; 1289681407
00A366  62818000           [055] call       5   1   2  
00A36A  0D410102           [056] sub        4   4   5  
fail op	33
00A36E  21C04202           [057] tforloop   0       267  ; to [59] if exit
00A372  1A000080           [058] jmp        1            ; to [60]
00A376  1AC00080           [059] jmp        4            ; to [64]
00A37A  5D810300           [060] getglobal  5   14       ; 538022378
00A37E  99C10200           [061] loadk      6   11       ; 0
00A382  62410001           [062] call       5   2   1  
00A386  1A00FC7F           [063] jmp        -15          ; to [49]
00A38A  5DC10000           [064] getglobal  5   3        ; gGameRules
00A38E  6401C402           [065] self       5   5   272  ; 1941208407
00A392  D2010000           [066] move       7   0      
00A396  17020000           [067] loadbool   8   0   0    ; false
00A39A  62810002           [068] call       5   4   2  
00A39E  9D410400           [069] getglobal  6   17       ; 1074689893
00A3A2  D2018002           [070] move       7   5      
00A3A6  A2810001           [071] call       6   2   2  
00A3AA  98410000           [072] test       6       1    ; to [74] if false
00A3AE  1A000380           [073] jmp        13           ; to [87]
00A3B2  97008000           [074] loadbool   2   1   0    ; true
00A3B6  9D410400           [075] getglobal  6   17       ; 1074689893
00A3BA  D2018002           [076] move       7   5      
00A3BE  A2810001           [077] call       6   2   2  
00A3C2  98410000           [078] test       6       1    ; to [80] if false
00A3C6  1AC00080           [079] jmp        4            ; to [84]
00A3CA  9D810300           [080] getglobal  6   14       ; 538022378
00A3CE  D9C10200           [081] loadk      7   11       ; 0
00A3D2  A2410001           [082] call       6   2   1  
00A3D6  1A80FD7F           [083] jmp        -9           ; to [75]
00A3DA  9DC10000           [084] getglobal  6   3        ; gGameRules
00A3DE  A4814403           [085] self       6   6   274  ; -1533880292
00A3E2  A2410001           [086] call       6   2   1  
00A3E6  98400000           [087] test       2       1    ; to [89] if false
00A3EA  1A800080           [088] jmp        3            ; to [92]
00A3EE  93010002           [089] getupval   6   4      
fail op	35
00A3F2  23808100           [090] close      0  
00A3F6  1A400680           [091] jmp        26           ; to [118]
00A3FA  9DC10000           [092] getglobal  6   3        ; gGameRules
00A3FE  A4014203           [093] self       6   6   264  ; -803877924
00A402  13028000           [094] getupval   8   1      
00A406  53020002           [095] getupval   9   4      
00A40A  A2410002           [096] call       6   4   1  
00A40E  9DC10000           [097] getglobal  6   3        ; gGameRules
00A412  A4C14403           [098] self       6   6   275  ; 1409011458
fail op	35
00A416  23C0C100           [099] close      0  
00A41A  1A000080           [100] jmp        1            ; to [102]
00A41E  17420000           [101] loadbool   8   0   1    ; false, to [103]
00A422  17028000           [102] loadbool   8   1   0    ; true
00A426  A2818001           [103] call       6   3   2  
00A42A  DD410400           [104] getglobal  7   17       ; 1074689893
00A42E  12020003           [105] move       8   6      
00A432  E2810001           [106] call       7   2   2  
00A436  D8410000           [107] test       7       1    ; to [109] if false
00A43A  1A000280           [108] jmp        9            ; to [118]
00A43E  DD410400           [109] getglobal  7   17       ; 1074689893
00A442  12020003           [110] move       8   6      
00A446  E2810001           [111] call       7   2   2  
00A44A  D8410000           [112] test       7       1    ; to [114] if false
00A44E  1AC00080           [113] jmp        4            ; to [118]
00A452  DD810300           [114] getglobal  7   14       ; 538022378
00A456  19C20200           [115] loadk      8   11       ; 0
00A45A  E2410001           [116] call       7   2   1  
00A45E  1A80FD7F           [117] jmp        -9           ; to [109]
00A462  DDC10000           [118] getglobal  7   3        ; gGameRules
00A466  E401C203           [119] self       7   7   264  ; -803877924
00A46A  53028000           [120] getupval   9   1      
00A46E  93028002           [121] getupval   10  5      
00A472  E2410002           [122] call       7   4   1  
00A476  1E008000           [123] return     0   1      
                           * constants:
00A47A  14                 sizek (20)
00A47B  04                 const type 4
00A47C  07                 string size (7)
00A47D  737472696E6700     "string\0"
                           const [0]: "string"
00A484  01                 const type 3
00A485  64F644DE           const [1]: (-565905820)
00A489  01                 const type 3
00A48A  BCD6AE9F           const [2]: (-1615931716)
00A48E  04                 const type 4
00A48F  0B                 string size (11)
00A490  6747616D6552756C+  "gGameRul"
00A498  657300             "es\0"
                           const [3]: "gGameRules"
00A49B  01                 const type 3
00A49C  497363B8           const [4]: (-1201441975)
00A4A0  04                 const type 4
00A4A1  11                 string size (17)
00A4A2  6163746976654D69+  "activeMi"
00A4AA  7373696F6E546167+  "ssionTag"
00A4B2  00                 "\0"
                           const [5]: "activeMissionTag"
00A4B3  04                 const type 4
00A4B4  05                 string size (5)
00A4B5  566F696400         "Void\0"
                           const [6]: "Void"
00A4BA  00                 const type 0
                           const [7]: nil
00A4BB  01                 const type 3
00A4BC  DCCB15D0           const [8]: (-803877924)
00A4C0  01                 const type 3
00A4C1  A22217F8           const [9]: (-132701534)
00A4C5  03                 const type 3
00A4C6  00002041           const [10]: (0)
00A4CA  03                 const type 3
00A4CB  00000000           const [11]: (0)
00A4CF  01                 const type 3
00A4D0  67B7E869           const [12]: (1776858983)
00A4D4  01                 const type 3
00A4D5  FFF9DE4C           const [13]: (1289681407)
00A4D9  01                 const type 3
00A4DA  EA911120           const [14]: (538022378)
00A4DE  03                 const type 3
00A4DF  0000A041           const [15]: (0)
00A4E3  01                 const type 3
00A4E4  577DB473           const [16]: (1941208407)
00A4E8  01                 const type 3
00A4E9  65770E40           const [17]: (1074689893)
00A4ED  01                 const type 3
00A4EE  1CD892A4           const [18]: (-1533880292)
00A4F2  01                 const type 3
00A4F3  02CFFB53           const [19]: (1409011458)
                           * functions:
00A4F7  00                 sizep (0)
                           * lines:
00A4F8  7B                 sizelineinfo (123)
                           [pc] (line)
00A4F9  D6                 [001] (-42)
00A4FA  06                 [002] (-41)
00A4FB  00                 [003] (-41)
00A4FC  00                 [004] (-41)
00A4FD  D7                 [005] (-41)
00A4FE  06                 [006] (-41)
00A4FF  00                 [007] (-41)
00A500  00                 [008] (-41)
00A501  D7                 [009] (-41)
00A502  06                 [010] (-41)
00A503  00                 [011] (-41)
00A504  00                 [012] (-40)
00A505  D7                 [013] (-40)
00A506  06                 [014] (-40)
00A507  00                 [015] (-40)
00A508  00                 [016] (-40)
00A509  D7                 [017] (-40)
00A50A  06                 [018] (-40)
00A50B  00                 [019] (-39)
00A50C  00                 [020] (-39)
00A50D  D7                 [021] (-39)
00A50E  06                 [022] (-39)
00A50F  00                 [023] (-39)
00A510  00                 [024] (-37)
00A511  D7                 [025] (-37)
00A512  06                 [026] (-37)
00A513  00                 [027] (-37)
00A514  00                 [028] (-37)
00A515  D7                 [029] (-37)
00A516  06                 [030] (-37)
00A517  00                 [031] (-37)
00A518  00                 [032] (-37)
00A519  D7                 [033] (-36)
00A51A  06                 [034] (-36)
00A51B  00                 [035] (-36)
00A51C  00                 [036] (-36)
00A51D  D7                 [037] (-36)
00A51E  06                 [038] (-35)
00A51F  00                 [039] (-35)
00A520  00                 [040] (-35)
00A521  D7                 [041] (-34)
00A522  06                 [042] (-34)
00A523  00                 [043] (-33)
00A524  00                 [044] (-30)
00A525  D8                 [045] (-30)
00A526  06                 [046] (-30)
00A527  00                 [047] (-30)
00A528  00                 [048] (-26)
00A529  D8                 [049] (-25)
00A52A  06                 [050] (-25)
00A52B  00                 [051] (-25)
00A52C  00                 [052] (-25)
00A52D  D8                 [053] (-25)
00A52E  06                 [054] (-24)
00A52F  00                 [055] (-24)
00A530  00                 [056] (-24)
00A531  D8                 [057] (-23)
00A532  06                 [058] (-23)
00A533  00                 [059] (-22)
00A534  00                 [060] (-19)
00A535  D8                 [061] (-19)
00A536  06                 [062] (-19)
00A537  00                 [063] (-19)
00A538  00                 [064] (-15)
00A539  D8                 [065] (-15)
00A53A  06                 [066] (-15)
00A53B  00                 [067] (-15)
00A53C  00                 [068] (-15)
00A53D  D8                 [069] (-14)
00A53E  06                 [070] (-14)
00A53F  00                 [071] (-14)
00A540  00                 [072] (-14)
00A541  D9                 [073] (-14)
00A542  06                 [074] (-13)
00A543  00                 [075] (-11)
00A544  00                 [076] (-11)
00A545  D9                 [077] (-11)
00A546  06                 [078] (-11)
00A547  00                 [079] (-11)
00A548  00                 [080] (-10)
00A549  D9                 [081] (-10)
00A54A  06                 [082] (-10)
00A54B  00                 [083] (-10)
00A54C  00                 [084] (-7)
00A54D  D9                 [085] (-7)
00A54E  06                 [086] (-7)
00A54F  00                 [087] (-2)
00A550  00                 [088] (-2)
00A551  D9                 [089] (-2)
00A552  06                 [090] (-2)
00A553  00                 [091] (-2)
00A554  00                 [092] (-1)
00A555  DB                 [093] (-1)
00A556  06                 [094] (-1)
00A557  00                 [095] (-1)
00A558  00                 [096] (-1)
00A559  DB                 [097] (1)
00A55A  06                 [098] (1)
00A55B  00                 [099] (1)
00A55C  00                 [100] (1)
00A55D  DB                 [101] (1)
00A55E  06                 [102] (1)
00A55F  00                 [103] (1)
00A560  00                 [104] (2)
00A561  DB                 [105] (2)
00A562  06                 [106] (2)
00A563  00                 [107] (2)
00A564  00                 [108] (2)
00A565  DB                 [109] (3)
00A566  06                 [110] (3)
00A567  00                 [111] (3)
00A568  00                 [112] (3)
00A569  DB                 [113] (3)
00A56A  06                 [114] (4)
00A56B  00                 [115] (4)
00A56C  00                 [116] (4)
00A56D  DB                 [117] (4)
00A56E  06                 [118] (9)
00A56F  00                 [119] (9)
00A570  00                 [120] (9)
00A571  DB                 [121] (9)
00A572  06                 [122] (9)
00A573  00                 [123] (10)
                           * locals:
00A6E5  00                 sizelocvars (0)
                           * upvalues:
00A6E6  00                 sizeupvalues (0)
                           ** end of function **

                           
00A6E7                     ** function [46] definition (level 2)
                           ** start of function **
00A6E7  00                 string size (0)
                           source name: (none)
00A6E9  0E                 line defined (1804)
00A6EA  DA                 last line defined (2010)
00A6EB  0F                 nups (24)
00A6EC  18                 numparams (0)
00A6ED  00                 is_vararg (0)
00A6EE  00                 maxstacksize (39)
                           * code:
00A6F1  04                 sizecode (561)
00A6F2  1D000000           [001] getglobal  0   0        ; gGameRules
00A6F6  5D400000           [002] getglobal  1   1        ; gRegion
00A6FA  6480C000           [003] self       1   1   258  ; -774964848
00A6FE  62800001           [004] call       1   2   2  
00A702  A4C0C000           [005] self       2   1   259  ; 537471347
00A706  A2800001           [006] call       2   2   2  
00A70A  D3000000           [007] getupval   3   0      
00A70E  E2808000           [008] call       3   1   2  
00A712  19010100           [009] loadk      4   4        ; 0
00A716  5D410100           [010] getglobal  5   5        ; 849075268
00A71A  99810100           [011] loadk      6   6        ; "Lotus.Interface.Libs.TimerMgr"
00A71E  62810001           [012] call       5   2   2  
00A722  8EC1C102           [013] gettable   6   5   263  ; -1029178688
00A726  A2818000           [014] call       6   1   2  
fail op	8
00A72A  88018000           [015] setupval   6   1      
00A72E  9D010200           [016] getglobal  6   8        ; -1817107093
00A732  D9410200           [017] loadk      7   9        ; "Survival: Main gameplay loop started"
00A736  A2410001           [018] call       6   2   1  
00A73A  97010000           [019] loadbool   6   0   0    ; false
00A73E  98010000           [020] test       6       0    ; to [22] if true
00A742  1AC00480           [021] jmp        20           ; to [42]
00A746  D8400000           [022] test       3       1    ; to [24] if false
00A74A  1A400480           [023] jmp        18           ; to [42]
00A74E  9D810200           [024] getglobal  6   10       ; string
00A752  8EC14203           [025] gettable   6   6   267  ; -565905820
00A756  DD010300           [026] getglobal  7   12       ; -1615931716
00A75A  1D020000           [027] getglobal  8   0        ; gGameRules
00A75E  24424304           [028] self       8   8   269  ; -1201441975
00A762  22820001           [029] call       8   2   2  
00A766  0E824304           [030] gettable   8   8   270  ; "activeMissionTag"
00A76A  E2810001           [031] call       7   2   2  
00A76E  19C20300           [032] loadk      8   15       ; "Void"
00A772  A2818001           [033] call       6   3   2  
00A776  D3018001           [034] getupval   7   3      
00A77A  CE01C403           [035] gettable   7   7   272  ; -132701534
00A77E  12020003           [036] move       8   6      
00A782  59420400           [037] loadk      9   17       ; 0
00A786  99820400           [038] loadk      10  18       ; 0
00A78A  E2810002           [039] call       7   4   2  
fail op	8
00A78E  C8010001           [040] setupval   7   2      
00A792  1A000180           [041] jmp        5            ; to [47]
00A796  D8000000           [042] test       3       0    ; to [44] if true
00A79A  1A800080           [043] jmp        3            ; to [47]
00A79E  D3010002           [044] getupval   7   4      
00A7A2  E2818000           [045] call       7   1   2  
fail op	8
00A7A6  C8010001           [046] setupval   7   2      
00A7AA  DD010000           [047] getglobal  7   0        ; gGameRules
00A7AE  E441C303           [048] self       7   7   269  ; -1201441975
00A7B2  E2810001           [049] call       7   2   2  
00A7B6  CEC1C403           [050] gettable   7   7   275  ; "goalId"
fail op	35
00A7BA  6300C503           [051] close      1  
00A7BE  1A400180           [052] jmp        6            ; to [59]
00A7C2  D3010000           [053] getupval   7   0      
00A7C6  E2818000           [054] call       7   1   2  
00A7CA  D8410000           [055] test       7       1    ; to [57] if false
00A7CE  1A400080           [056] jmp        2            ; to [59]
00A7D2  D9410500           [057] loadk      7   21       ; 0
fail op	8
00A7D6  C8018002           [058] setupval   7   5      
00A7DA  E4814501           [059] self       7   2   278  ; -1642058584
00A7DE  53020003           [060] getupval   9   6      
00A7E2  93020003           [061] getupval   10  6      
00A7E6  D7020000           [062] loadbool   11  0   0    ; false
00A7EA  17030000           [063] loadbool   12  0   0    ; false
00A7EE  E2410003           [064] call       7   6   1  
00A7F2  E4C14501           [065] self       7   2   279  ; -1504288900
00A7F6  53028003           [066] getupval   9   7      
00A7FA  93020003           [067] getupval   10  6      
00A7FE  D9020100           [068] loadk      11  4        ; 0
00A802  19030600           [069] loadk      12  24       ; 0
00A806  57038000           [070] loadbool   13  1   0    ; true
00A80A  97030000           [071] loadbool   14  0   0    ; false
00A80E  D7038000           [072] loadbool   15  1   0    ; true
00A812  E2418004           [073] call       7   9   1  
00A816  E4414601           [074] self       7   2   281  ; 1022855233
00A81A  57028000           [075] loadbool   9   1   0    ; true
00A81E  E2418001           [076] call       7   3   1  
00A822  E4814601           [077] self       7   2   282  ; -736036065
00A826  5DC20600           [078] getglobal  9   27       ; -332969190
00A82A  99020700           [079] loadk      10  28       ; "DefenseAgentSpawn"
00A82E  62020001           [080] call       9   2   0  
00A832  E2410000           [081] call       7   0   1  
00A836  E4814601           [082] self       7   2   282  ; -736036065
00A83A  5DC20600           [083] getglobal  9   27       ; -332969190
00A83E  99420700           [084] loadk      10  29       ; "BipedSpecialSpawn"
00A842  62020001           [085] call       9   2   0  
00A846  E2410000           [086] call       7   0   1  
00A84A  E4814601           [087] self       7   2   282  ; -736036065
00A84E  5DC20600           [088] getglobal  9   27       ; -332969190
00A852  99820700           [089] loadk      10  30       ; "DoNotUse"
00A856  62020001           [090] call       9   2   0  
00A85A  E2410000           [091] call       7   0   1  
00A85E  E4814601           [092] self       7   2   282  ; -736036065
00A862  5DC20600           [093] getglobal  9   27       ; -332969190
00A866  99C20700           [094] loadk      10  31       ; "CameraSpawn"
00A86A  62020001           [095] call       9   2   0  
00A86E  E2410000           [096] call       7   0   1  
00A872  E4814601           [097] self       7   2   282  ; -736036065
00A876  5DC20600           [098] getglobal  9   27       ; -332969190
00A87A  99020800           [099] loadk      10  32       ; "TurretSpawn"
00A87E  62020001           [100] call       9   2   0  
00A882  E2410000           [101] call       7   0   1  
00A886  E4814601           [102] self       7   2   282  ; -736036065
00A88A  5DC20600           [103] getglobal  9   27       ; -332969190
00A88E  99420800           [104] loadk      10  33       ; "WaterSpawn"
00A892  62020001           [105] call       9   2   0  
00A896  E2410000           [106] call       7   0   1  
00A89A  E4814801           [107] self       7   2   290  ; -962077198
00A89E  57020000           [108] loadbool   9   0   0    ; false
00A8A2  E2418001           [109] call       7   3   1  
00A8A6  E4C14801           [110] self       7   2   291  ; -215508952
00A8AA  59020100           [111] loadk      9   4        ; 0
00A8AE  E2418001           [112] call       7   3   1  
00A8B2  E4014900           [113] self       7   0   292  ; -317790213
00A8B6  53020004           [114] getupval   9   8      
00A8BA  E2818001           [115] call       7   3   2  
fail op	21
00A8BE  15C00182           [116] concat     0   260 7  
00A8C2  1A406980           [117] jmp        422          ; to [540]
00A8C6  1D420900           [118] getglobal  8   37       ; _T
00A8CA  0E824904           [119] gettable   8   8   294  ; "MissionComplete"
fail op	35
00A8CE  63C04904           [120] close      1  
00A8D2  1A406880           [121] jmp        418          ; to [540]
00A8D6  24024A00           [122] self       8   0   296  ; 1157879449
00A8DA  93028004           [123] getupval   10  9      
00A8DE  22828001           [124] call       8   3   2  
00A8E2  D8000000           [125] test       3       0    ; to [127] if true
00A8E6  1AC00180           [126] jmp        8            ; to [135]
00A8EA  5D420A00           [127] getglobal  9   41       ; math
00A8EE  4E82CA04           [128] gettable   9   9   298  ; -1962864584
00A8F2  99020100           [129] loadk      10  4        ; 0
00A8F6  D3020002           [130] getupval   11  4      
00A8FA  E2828000           [131] call       11  1   2  
00A8FE  CD028205           [132] sub        11  11  8  
00A902  62828001           [133] call       9   3   2  
00A906  12028004           [134] move       8   9      
00A90A  53020005           [135] getupval   9   10     
00A90E  62428000           [136] call       9   1   1  
00A912  53028005           [137] getupval   9   11     
00A916  62428000           [138] call       9   1   1  
00A91A  53020006           [139] getupval   9   12     
00A91E  93028006           [140] getupval   10  13     
00A922  62820001           [141] call       9   2   2  
00A926  93028000           [142] getupval   10  1      
00A92A  A4C24A05           [143] self       10  10  299  ; -1938777623
00A92E  13038006           [144] getupval   12  13     
00A932  03430206           [145] add        12  12  9  
00A936  5D030B00           [146] getglobal  13  44       ; 1289681407
00A93A  62838000           [147] call       13  1   2  
00A93E  03430306           [148] add        12  12  13 
00A942  A2428001           [149] call       10  3   1  
00A946  93020007           [150] getupval   10  14     
00A94A  98420000           [151] test       10      1    ; to [153] if false
00A94E  1A000280           [152] jmp        9            ; to [162]
fail op	21
00A952  5540C403           [153] concat     1   7   273
00A956  1A400080           [154] jmp        2            ; to [157]
fail op	33
00A95A  21008296           [155] tforloop   0       8    ; to [157] if exit
00A95E  1A000180           [156] jmp        5            ; to [162]
00A962  A4824B00           [157] self       10  0   302  ; 952266004
00A966  17038000           [158] loadbool   12  1   0    ; true
00A96A  A2428001           [159] call       10  3   1  
00A96E  97028000           [160] loadbool   10  1   0    ; true
fail op	8
00A972  88020007           [161] setupval   10  14     
00A976  9D420900           [162] getglobal  10  37       ; _T
00A97A  8EC24B05           [163] gettable   10  10  303  ; "SquadLinkSurvivalGiveRewards"
00A97E  E4024900           [164] self       11  0   292  ; -317790213
00A982  53038007           [165] getupval   13  15     
00A986  E2828001           [166] call       11  3   2  
00A98A  24034900           [167] self       12  0   292  ; -317790213
00A98E  93030008           [168] getupval   14  16     
00A992  D9030100           [169] loadk      15  4        ; 0
00A996  22830002           [170] call       12  4   2  
00A99A  5D430A00           [171] getglobal  13  41       ; math
00A99E  4E03CC06           [172] gettable   13  13  304  ; -150971781
00A9A2  93030001           [173] getupval   14  2      
00A9A6  9C830304           [174] div        14  8   14 
00A9AA  62830001           [175] call       13  2   2  
00A9AE  43038306           [176] add        13  13  12 
00A9B2  43838206           [177] add        13  13  10 
00A9B6  8343CC05           [178] add        14  11  305  ; 0
00A9BA  D2038006           [179] move       15  13     
00A9BE  19440C00           [180] loadk      16  49       ; 0
00A9C2  90832D80           [181] forprep    14  183      ; to [365]
fail op	21
00A9C6  15800282           [182] concat     0   260 10 
00A9CA  1AC00380           [183] jmp        16           ; to [200]
00A9CE  8D848206           [184] sub        18  13  10 
fail op	21
00A9D2  15400409           [185] concat     0   18  17 
00A9D6  1A000380           [186] jmp        13           ; to [200]
00A9DA  A4844C00           [187] self       18  0   306  ; -803877924
00A9DE  13050008           [188] getupval   20  16     
00A9E2  64054900           [189] self       21  0   292  ; -317790213
00A9E6  D3050008           [190] getupval   23  16     
00A9EA  19060100           [191] loadk      24  4        ; 0
00A9EE  62850002           [192] call       21  4   2  
00A9F2  4345CC0A           [193] add        21  21  305  ; 0
00A9F6  A2440002           [194] call       18  4   1  
00A9FA  9D440900           [195] getglobal  18  37       ; _T
00A9FE  DD440900           [196] getglobal  19  37       ; _T
00AA02  CEC4CB09           [197] gettable   19  19  303  ; "SquadLinkSurvivalGiveRewards"
00AA06  CD44CC09           [198] sub        19  19  305  ; 0
00AA0A  8CC48497           [199] settable   18  303 19   ; "SquadLinkSurvivalGiveRewards"
fail op	35
00AA0E  2340CC08           [200] close      0  
00AA12  1AC00480           [201] jmp        20           ; to [222]
00AA16  A4844B00           [202] self       18  0   302  ; 952266004
00AA1A  17058000           [203] loadbool   20  1   0    ; true
00AA1E  A2448001           [204] call       18  3   1  
00AA22  A4C44C00           [205] self       18  0   307  ; -959123546
00AA26  A2440001           [206] call       18  2   1  
00AA2A  A4844C00           [207] self       18  0   306  ; -803877924
00AA2E  13058007           [208] getupval   20  15     
00AA32  59450C00           [209] loadk      21  49       ; 0
00AA36  A2440002           [210] call       18  4   1  
00AA3A  A4044D00           [211] self       18  0   308  ; -958621156
00AA3E  A2440001           [212] call       18  2   1  
00AA42  D8400000           [213] test       3       1    ; to [215] if false
00AA46  1A800980           [214] jmp        39           ; to [254]
00AA4A  9D040200           [215] getglobal  18  8        ; -1817107093
00AA4E  D9440D00           [216] loadk      19  53       ; "Survival: Host - first reward"
00AA52  A2440001           [217] call       18  2   1  
00AA56  93048008           [218] getupval   18  17     
00AA5A  D9440C00           [219] loadk      19  49       ; 0
00AA5E  A2440001           [220] call       18  2   1  
00AA62  1AC00780           [221] jmp        32           ; to [254]
00AA66  D8400000           [222] test       3       1    ; to [224] if false
00AA6A  1A400780           [223] jmp        30           ; to [254]
00AA6E  A4044D00           [224] self       18  0   308  ; -958621156
00AA72  0D45CC08           [225] sub        20  17  305  ; 0
00AA76  A2448001           [226] call       18  3   1  
00AA7A  93048008           [227] getupval   18  17     
00AA7E  D2048008           [228] move       19  17     
00AA82  A2440001           [229] call       18  2   1  
00AA86  A4844C00           [230] self       18  0   306  ; -803877924
00AA8A  13058007           [231] getupval   20  15     
00AA8E  52058008           [232] move       21  17     
00AA92  A2440002           [233] call       18  4   1  
00AA96  93040009           [234] getupval   18  18     
00AA9A  8E844D09           [235] gettable   18  18  310  ; -78033590
00AA9E  DD440900           [236] getglobal  19  37       ; _T
00AAA2  CEC4CD09           [237] gettable   19  19  311  ; "MissionTransmissionSet"
00AAA6  1DC50600           [238] getglobal  20  27       ; -332969190
00AAAA  59050E00           [239] loadk      21  56       ; "SurvivalRewardReached"
00AAAE  22850001           [240] call       20  2   2  
00AAB2  59050100           [241] loadk      21  4        ; 0
00AAB6  A2440002           [242] call       18  4   1  
00AABA  8D848206           [243] sub        18  13  10 
fail op	33
00AABE  21808408           [244] tforloop   0       18   ; to [246] if exit
00AAC2  1AC00180           [245] jmp        8            ; to [254]
00AAC6  8D048308           [246] sub        18  17  12 
fail op	21
00AACA  15808498           [247] concat     0   305 18 
00AACE  1A000180           [248] jmp        5            ; to [254]
00AAD2  93048009           [249] getupval   18  19     
00AAD6  A2448000           [250] call       18  1   1  
00AADA  9304000A           [251] getupval   18  20     
00AADE  CD048308           [252] sub        19  17  12 
00AAE2  A2440001           [253] call       18  2   1  
00AAE6  8D048308           [254] sub        18  17  12 
fail op	35
00AAEA  23404C09           [255] close      0  
00AAEE  1AC01A80           [256] jmp        108          ; to [365]
00AAF2  93040001           [257] getupval   18  2      
fail op	33
00AAF6  21000209           [258] tforloop   0       8    ; to [260] if exit
00AAFA  1A001A80           [259] jmp        105          ; to [365]
00AAFE  93048009           [260] getupval   18  19     
00AB02  A2448000           [261] call       18  1   1  
00AB06  93040009           [262] getupval   18  18     
00AB0A  8E844D09           [263] gettable   18  18  310  ; -78033590
00AB0E  DD440900           [264] getglobal  19  37       ; _T
00AB12  CEC4CD09           [265] gettable   19  19  311  ; "MissionTransmissionSet"
00AB16  1DC50600           [266] getglobal  20  27       ; -332969190
00AB1A  59450E00           [267] loadk      21  57       ; "SurvivalFirstTimeReached"
00AB1E  22850001           [268] call       20  2   2  
00AB22  59050100           [269] loadk      21  4        ; 0
00AB26  A2440002           [270] call       18  4   1  
00AB2A  9D840E00           [271] getglobal  18  58       ; 538022378
00AB2E  D9040100           [272] loadk      19  4        ; 0
00AB32  A2440001           [273] call       18  2   1  
00AB36  9304000A           [274] getupval   18  20     
00AB3A  D9440C00           [275] loadk      19  49       ; 0
00AB3E  A2440001           [276] call       18  2   1  
00AB42  D8000000           [277] test       3       0    ; to [279] if true
00AB46  1A000C80           [278] jmp        49           ; to [328]
00AB4A  9D440000           [279] getglobal  18  1        ; gRegion
00AB4E  A4C44E09           [280] self       18  18  315  ; -2071158816
00AB52  A2840001           [281] call       18  2   2  
00AB56  D9440C00           [282] loadk      19  49       ; 0
00AB5A  0A050009           [283] len        20  18     
00AB5E  59450C00           [284] loadk      21  49       ; 0
00AB62  D0840280           [285] forprep    19  11       ; to [297]
00AB66  DD050000           [286] getglobal  23  0        ; gGameRules
00AB6A  E405CF0B           [287] self       23  23  316  ; 908734006
00AB6E  4E860509           [288] gettable   25  18  22 
00AB72  6446CF0C           [289] self       25  25  317  ; -564624675
00AB76  62860001           [290] call       25  2   2  
00AB7A  99860F00           [291] loadk      26  62       ; "/Lotus/Language/Game/ExtractionTimer"
00AB7E  D9060500           [292] loadk      27  20       ; ""
00AB82  19070100           [293] loadk      28  4        ; 0
00AB86  59C70F00           [294] loadk      29  63       ; 0
00AB8A  97078000           [295] loadbool   30  1   0    ; true
00AB8E  E2450004           [296] call       23  8   1  
00AB92  D4C4FC7F           [297] forloop    19  -12      ; to [286] if loop
fail op	33
00AB96  2100D003           [298] tforloop   0       320  ; to [300] if exit
00AB9A  1A000480           [299] jmp        17           ; to [317]
00AB9E  D3058006           [300] getupval   23  13     
00ABA2  CDC505A0           [301] sub        23  320 23   ; 0
00ABA6  1D060B00           [302] getglobal  24  44       ; 1289681407
00ABAA  22868000           [303] call       24  1   2  
00ABAE  CD05860B           [304] sub        23  23  24 
fail op	33
00ABB2  21C0810B           [305] tforloop   0       7    ; to [307] if exit
00ABB6  1A400280           [306] jmp        10           ; to [317]
00ABBA  D3050009           [307] getupval   23  18     
00ABBE  CE85CD0B           [308] gettable   23  23  310  ; -78033590
00ABC2  1D460900           [309] getglobal  24  37       ; _T
00ABC6  0EC64D0C           [310] gettable   24  24  311  ; "MissionTransmissionSet"
00ABCA  5DC60600           [311] getglobal  25  27       ; -332969190
00ABCE  99461000           [312] loadk      26  65       ; "SurvivalExtractionUrgent"
00ABD2  62860001           [313] call       25  2   2  
00ABD6  99060100           [314] loadk      26  4        ; 0
00ABDA  E2450002           [315] call       23  4   1  
00ABDE  1A000C80           [316] jmp        49           ; to [366]
00ABE2  D3050009           [317] getupval   23  18     
00ABE6  CE85CD0B           [318] gettable   23  23  310  ; -78033590
00ABEA  1D460900           [319] getglobal  24  37       ; _T
00ABEE  0EC64D0C           [320] gettable   24  24  311  ; "MissionTransmissionSet"
00ABF2  5DC60600           [321] getglobal  25  27       ; -332969190
00ABF6  99861000           [322] loadk      26  66       ; "SurvivalExtractionReady"
00ABFA  62860001           [323] call       25  2   2  
00ABFE  99060100           [324] loadk      26  4        ; 0
00AC02  E2450002           [325] call       23  4   1  
00AC06  1A800980           [326] jmp        39           ; to [366]
00AC0A  1A000980           [327] jmp        37           ; to [365]
fail op	33
00AC0E  21C0D003           [328] tforloop   0       323  ; to [330] if exit
00AC12  1A800880           [329] jmp        35           ; to [365]
00AC16  DD051100           [330] getglobal  23  68       ; useInfestedFogGradient
00AC1A  D8050000           [331] test       23      0    ; to [333] if true
00AC1E  1A000480           [332] jmp        17           ; to [350]
00AC22  DD450900           [333] getglobal  23  37       ; _T
00AC26  CE45D10B           [334] gettable   23  23  325  ; "faction"
00AC2A  1DC60600           [335] getglobal  24  27       ; -332969190
00AC2E  59861100           [336] loadk      25  70       ; "Infestation"
00AC32  22860001           [337] call       24  2   2  
fail op	35
00AC36  2300860B           [338] close      0  
00AC3A  1A400280           [339] jmp        10           ; to [350]
00AC3E  D3050009           [340] getupval   23  18     
00AC42  CE85CD0B           [341] gettable   23  23  310  ; -78033590
00AC46  1D460900           [342] getglobal  24  37       ; _T
00AC4A  0EC64D0C           [343] gettable   24  24  311  ; "MissionTransmissionSet"
00AC4E  5DC60600           [344] getglobal  25  27       ; -332969190
00AC52  99C61100           [345] loadk      26  71       ; "SurvivalExtractionUrgentInfested"
00AC56  62860001           [346] call       25  2   2  
00AC5A  99060100           [347] loadk      26  4        ; 0
00AC5E  E2450002           [348] call       23  4   1  
00AC62  1A800380           [349] jmp        15           ; to [365]
00AC66  E4054900           [350] self       23  0   292  ; -317790213
00AC6A  53068007           [351] getupval   25  15     
00AC6E  E2858001           [352] call       23  3   2  
00AC72  13068002           [353] getupval   24  5      
fail op	33
00AC76  21C0050C           [354] tforloop   0       23   ; to [356] if exit
00AC7A  1A000280           [355] jmp        9            ; to [365]
00AC7E  D3050009           [356] getupval   23  18     
00AC82  CE85CD0B           [357] gettable   23  23  310  ; -78033590
00AC86  1D460900           [358] getglobal  24  37       ; _T
00AC8A  0EC64D0C           [359] gettable   24  24  311  ; "MissionTransmissionSet"
00AC8E  5DC60600           [360] getglobal  25  27       ; -332969190
00AC92  99461000           [361] loadk      26  65       ; "SurvivalExtractionUrgent"
00AC96  62860001           [362] call       25  2   2  
00AC9A  99060100           [363] loadk      26  4        ; 0
00AC9E  E2450002           [364] call       23  4   1  
00ACA2  94C3D17F           [365] forloop    14  -184     ; to [182] if loop
00ACA6  E4054900           [366] self       23  0   292  ; -317790213
00ACAA  5306800A           [367] getupval   25  21     
00ACAE  E2858001           [368] call       23  3   2  
fail op	33
00ACB2  2100D003           [369] tforloop   0       320  ; to [371] if exit
00ACB6  1A800D80           [370] jmp        55           ; to [426]
00ACBA  13068006           [371] getupval   24  13     
00ACBE  0D0606A0           [372] sub        24  320 24   ; 0
00ACC2  5D060B00           [373] getglobal  25  44       ; 1289681407
00ACC6  62868000           [374] call       25  1   2  
00ACCA  0D46060C           [375] sub        24  24  25 
fail op	33
00ACCE  21C0010C           [376] tforloop   0       7    ; to [378] if exit
00ACD2  1AC00B80           [377] jmp        48           ; to [426]
fail op	33
00ACD6  21C0859F           [378] tforloop   0       23   ; to [380] if exit
00ACDA  1AC00880           [379] jmp        36           ; to [416]
00ACDE  24064900           [380] self       24  0   292  ; -317790213
00ACE2  93068007           [381] getupval   26  15     
00ACE6  22868001           [382] call       24  3   2  
00ACEA  53068002           [383] getupval   25  5      
fail op	33
00ACEE  2100860C           [384] tforloop   0       24   ; to [386] if exit
00ACF2  1A400780           [385] jmp        30           ; to [416]
00ACF6  1D061100           [386] getglobal  24  68       ; useInfestedFogGradient
00ACFA  18060000           [387] test       24      0    ; to [389] if true
00ACFE  1A000480           [388] jmp        17           ; to [406]
00AD02  1D460900           [389] getglobal  24  37       ; _T
00AD06  0E46510C           [390] gettable   24  24  325  ; "faction"
00AD0A  5DC60600           [391] getglobal  25  27       ; -332969190
00AD0E  99861100           [392] loadk      26  70       ; "Infestation"
00AD12  62860001           [393] call       25  2   2  
fail op	35
00AD16  2340060C           [394] close      0  
00AD1A  1A400280           [395] jmp        10           ; to [406]
00AD1E  13060009           [396] getupval   24  18     
00AD22  0E864D0C           [397] gettable   24  24  310  ; -78033590
00AD26  5D460900           [398] getglobal  25  37       ; _T
00AD2A  4EC6CD0C           [399] gettable   25  25  311  ; "MissionTransmissionSet"
00AD2E  9DC60600           [400] getglobal  26  27       ; -332969190
00AD32  D9C61100           [401] loadk      27  71       ; "SurvivalExtractionUrgentInfested"
00AD36  A2860001           [402] call       26  2   2  
00AD3A  D9060100           [403] loadk      27  4        ; 0
00AD3E  22460002           [404] call       24  4   1  
00AD42  1A400980           [405] jmp        38           ; to [444]
00AD46  13060009           [406] getupval   24  18     
00AD4A  0E864D0C           [407] gettable   24  24  310  ; -78033590
00AD4E  5D460900           [408] getglobal  25  37       ; _T
00AD52  4EC6CD0C           [409] gettable   25  25  311  ; "MissionTransmissionSet"
00AD56  9DC60600           [410] getglobal  26  27       ; -332969190
00AD5A  D9461000           [411] loadk      27  65       ; "SurvivalExtractionUrgent"
00AD5E  A2860001           [412] call       26  2   2  
00AD62  D9060100           [413] loadk      27  4        ; 0
00AD66  22460002           [414] call       24  4   1  
00AD6A  1AC00680           [415] jmp        28           ; to [444]
00AD6E  13060009           [416] getupval   24  18     
00AD72  0E864D0C           [417] gettable   24  24  310  ; -78033590
00AD76  5D460900           [418] getglobal  25  37       ; _T
00AD7A  4EC6CD0C           [419] gettable   25  25  311  ; "MissionTransmissionSet"
00AD7E  9DC60600           [420] getglobal  26  27       ; -332969190
00AD82  D9061200           [421] loadk      27  72       ; "Survival30SecondsLeft"
00AD86  A2860001           [422] call       26  2   2  
00AD8A  D9060100           [423] loadk      27  4        ; 0
00AD8E  22460002           [424] call       24  4   1  
00AD92  1A400480           [425] jmp        18           ; to [444]
fail op	33
00AD96  2140D203           [426] tforloop   0       329  ; to [428] if exit
00AD9A  1AC00380           [427] jmp        16           ; to [444]
00AD9E  13068006           [428] getupval   24  13     
00ADA2  0D0686A4           [429] sub        24  329 24   ; 0
00ADA6  5D060B00           [430] getglobal  25  44       ; 1289681407
00ADAA  62868000           [431] call       25  1   2  
00ADAE  0D46060C           [432] sub        24  24  25 
fail op	33
00ADB2  21C0010C           [433] tforloop   0       7    ; to [435] if exit
00ADB6  1A000280           [434] jmp        9            ; to [444]
00ADBA  13060009           [435] getupval   24  18     
00ADBE  0E864D0C           [436] gettable   24  24  310  ; -78033590
00ADC2  5D460900           [437] getglobal  25  37       ; _T
00ADC6  4EC6CD0C           [438] gettable   25  25  311  ; "MissionTransmissionSet"
00ADCA  9DC60600           [439] getglobal  26  27       ; -332969190
00ADCE  D9861200           [440] loadk      27  74       ; "Survival60SecondsLeft"
00ADD2  A2860001           [441] call       26  2   2  
00ADD6  D9060100           [442] loadk      27  4        ; 0
00ADDA  22460002           [443] call       24  4   1  
00ADDE  24064900           [444] self       24  0   292  ; -317790213
00ADE2  93060004           [445] getupval   26  8      
00ADE6  22868001           [446] call       24  3   2  
00ADEA  4D464C0C           [447] sub        25  24  305  ; 0
fail op	33
00ADEE  61408603           [448] tforloop   1       25   ; to [450] if exit
00ADF2  1A800080           [449] jmp        3            ; to [453]
00ADF6  43464C0C           [450] add        25  24  305  ; 0
fail op	33
00ADFA  21C0810C           [451] tforloop   0       7    ; to [453] if exit
00ADFE  1A000080           [452] jmp        1            ; to [454]
00AE02  D201000C           [453] move       7   24     
00AE06  53068006           [454] getupval   25  13     
00AE0A  4D468603           [455] sub        25  7   25 
00AE0E  CD41820C           [456] sub        7   25  9  
00AE12  57060000           [457] loadbool   25  0   0    ; false
00AE16  58060000           [458] test       25      0    ; to [460] if true
00AE1A  1A000080           [459] jmp        1            ; to [461]
00AE1E  D9410400           [460] loadk      7   17       ; 0
fail op	33
00AE22  2100C103           [461] tforloop   0       260  ; to [463] if exit
00AE26  1AC00580           [462] jmp        24           ; to [487]
00AE2A  D9010100           [463] loadk      7   4        ; 0
00AE2E  5D060200           [464] getglobal  25  8        ; -1817107093
00AE32  99C61200           [465] loadk      26  75       ; "Survival: Life support is at 0, checking for capsules still in use."
00AE36  62460001           [466] call       25  2   1  
00AE3A  5D460000           [467] getglobal  25  1        ; gRegion
00AE3E  6406D30C           [468] self       25  25  332  ; 152279552
00AE42  DD461300           [469] getglobal  27  77       ; survivalProgressBarActionType
00AE46  62868001           [470] call       25  3   2  
00AE4A  99060100           [471] loadk      26  4        ; 0
00AE4E  D9460C00           [472] loadk      27  49       ; 0
00AE52  0A07800C           [473] len        28  25     
00AE56  59470C00           [474] loadk      29  49       ; 0
00AE5A  D0C60080           [475] forprep    27  4        ; to [480]
00AE5E  CE87870C           [476] gettable   31  25  30 
00AE62  E487D30F           [477] self       31  31  334  ; -1157851114
00AE66  E2870001           [478] call       31  2   2  
00AE6A  83C6070D           [479] add        26  26  31 
00AE6E  D486FE7F           [480] forloop    27  -5       ; to [476] if loop
fail op	21
00AE72  15800682           [481] concat     0   260 26 
00AE76  1AC00080           [482] jmp        4            ; to [487]
00AE7A  DD070200           [483] getglobal  31  8        ; -1817107093
00AE7E  19C81300           [484] loadk      32  79       ; "Survival: Life support capsule being activated, waiting for it to finish."
00AE82  E2470001           [485] call       31  2   1  
00AE86  C3C1CF03           [486] add        7   7   319  ; 0
00AE8A  DD470A00           [487] getglobal  31  41       ; math
00AE8E  CE07D40F           [488] gettable   31  31  336  ; -1124579617
00AE92  12088003           [489] move       32  7      
00AE96  E2870001           [490] call       31  2   2  
00AE9A  24884C00           [491] self       32  0   306  ; -803877924
00AE9E  93080004           [492] getupval   34  8      
00AEA2  D208800F           [493] move       35  31     
00AEA6  22480002           [494] call       32  4   1  
fail op	21
00AEAA  15004104           [495] concat     0   8   260
00AEAE  1A400080           [496] jmp        2            ; to [499]
00AEB2  19020100           [497] loadk      8   4        ; 0
00AEB6  1A800080           [498] jmp        3            ; to [502]
00AEBA  1D080B00           [499] getglobal  32  44       ; 1289681407
00AEBE  22888000           [500] call       32  1   2  
00AEC2  03020804           [501] add        8   8   32 
00AEC6  1D480A00           [502] getglobal  32  41       ; math
00AECA  0E084C10           [503] gettable   32  32  304  ; -150971781
00AECE  52080004           [504] move       33  8      
00AED2  22880001           [505] call       32  2   2  
00AED6  5F484410           [506] mod        33  32  273  ; 0
fail op	35
00AEDA  2300C110           [507] close      0  
00AEDE  1AC00380           [508] jmp        16           ; to [525]
fail op	21
00AEE2  15000802           [509] concat     0   4   32 
00AEE6  1A400380           [510] jmp        14           ; to [525]
00AEEA  59481400           [511] loadk      33  81       ; "SurvivalTimed"
00AEEE  9C484410           [512] div        34  32  273  ; 0
00AEF2  D9881400           [513] loadk      35  82       ; "Mins"
00AEF6  42C88810           [514] concat     33  33  35 
00AEFA  93080009           [515] getupval   34  18     
00AEFE  8E884D11           [516] gettable   34  34  310  ; -78033590
00AF02  DD480900           [517] getglobal  35  37       ; _T
00AF06  CEC8CD11           [518] gettable   35  35  311  ; "MissionTransmissionSet"
00AF0A  1DC90600           [519] getglobal  36  27       ; -332969190
00AF0E  52098010           [520] move       37  33     
00AF12  22890001           [521] call       36  2   2  
00AF16  59090100           [522] loadk      37  4        ; 0
00AF1A  A2480002           [523] call       34  4   1  
00AF1E  1201800F           [524] move       4   31     
00AF22  A4C85400           [525] self       34  0   339  ; 1186319620
00AF26  13098004           [526] getupval   36  9      
00AF2A  A2888001           [527] call       34  3   2  
00AF2E  98080000           [528] test       34      0    ; to [530] if true
00AF32  1A400080           [529] jmp        2            ; to [532]
00AF36  D8000000           [530] test       3       0    ; to [532] if true
00AF3A  1AC00080           [531] jmp        4            ; to [536]
00AF3E  A4884C00           [532] self       34  0   306  ; -803877924
00AF42  1309000B           [533] getupval   36  22     
00AF46  52090004           [534] move       37  8      
00AF4A  A2480002           [535] call       34  4   1  
00AF4E  9D880E00           [536] getglobal  34  58       ; 538022378
00AF52  D3088006           [537] getupval   35  13     
00AF56  A2480001           [538] call       34  2   1  
00AF5A  1AC0957F           [539] jmp        -424         ; to [116]
00AF5E  A4084900           [540] self       34  0   292  ; -317790213
00AF62  1309000B           [541] getupval   36  22     
00AF66  A2888001           [542] call       34  3   2  
00AF6A  DD080200           [543] getglobal  35  8        ; -1817107093
00AF6E  19091500           [544] loadk      36  84       ; "Survival: Final score is "
00AF72  52090011           [545] move       37  34     
00AF76  02490912           [546] concat     36  36  37 
00AF7A  E2480001           [547] call       35  2   1  
fail op	33
00AF7E  2100C103           [548] tforloop   0       260  ; to [550] if exit
00AF82  1A800280           [549] jmp        11           ; to [561]
00AF86  DD880E00           [550] getglobal  35  58       ; 538022378
00AF8A  19490C00           [551] loadk      36  49       ; 0
00AF8E  E2480001           [552] call       35  2   1  
00AF92  D308800B           [553] getupval   35  23     
00AF96  CE48D511           [554] gettable   35  35  341  ; 1534343691
00AF9A  1DC90600           [555] getglobal  36  27       ; -332969190
00AF9E  59891500           [556] loadk      37  86       ; "EndMissionScript"
00AFA2  22890001           [557] call       36  2   2  
00AFA6  57090000           [558] loadbool   37  0   0    ; false
00AFAA  97098000           [559] loadbool   38  1   0    ; true
00AFAE  E2480002           [560] call       35  4   1  
00AFB2  1E008000           [561] return     0   1      
                           * constants:
00AFB6  57                 sizek (87)
00AFB7  04                 const type 4
00AFB8  0B                 string size (11)
00AFB9  6747616D6552756C+  "gGameRul"
00AFC1  657300             "es\0"
                           const [0]: "gGameRules"
00AFC4  04                 const type 4
00AFC5  08                 string size (8)
00AFC6  67526567696F6E00   "gRegion\0"
                           const [1]: "gRegion"
00AFCE  01                 const type 3
00AFCF  90F9CED1           const [2]: (-774964848)
00AFD3  01                 const type 3
00AFD4  73290920           const [3]: (537471347)
00AFD8  03                 const type 3
00AFD9  00000000           const [4]: (0)
00AFDD  01                 const type 3
00AFDE  44DC9B32           const [5]: (849075268)
00AFE2  04                 const type 4
00AFE3  1E                 string size (30)
00AFE4  4C6F7475732E496E+  "Lotus.In"
00AFEC  746572666163652E+  "terface."
00AFF4  4C6962732E54696D+  "Libs.Tim"
00AFFC  65724D677200       "erMgr\0"
                           const [6]: "Lotus.Interface.Libs.TimerMgr"
00B002  01                 const type 3
00B003  C0FAA7C2           const [7]: (-1029178688)
00B007  01                 const type 3
00B008  6B25B193           const [8]: (-1817107093)
00B00C  04                 const type 4
00B00D  25                 string size (37)
00B00E  537572766976616C+  "Survival"
00B016  3A204D61696E2067+  ": Main g"
00B01E  616D65706C617920+  "ameplay "
00B026  6C6F6F7020737461+  "loop sta"
00B02E  7274656400         "rted\0"
                           const [9]: "Survival: Main gameplay loop started"
00B033  04                 const type 4
00B034  07                 string size (7)
00B035  737472696E6700     "string\0"
                           const [10]: "string"
00B03C  01                 const type 3
00B03D  64F644DE           const [11]: (-565905820)
00B041  01                 const type 3
00B042  BCD6AE9F           const [12]: (-1615931716)
00B046  01                 const type 3
00B047  497363B8           const [13]: (-1201441975)
00B04B  04                 const type 4
00B04C  11                 string size (17)
00B04D  6163746976654D69+  "activeMi"
00B055  7373696F6E546167+  "ssionTag"
00B05D  00                 "\0"
                           const [14]: "activeMissionTag"
00B05E  04                 const type 4
00B05F  05                 string size (5)
00B060  566F696400         "Void\0"
                           const [15]: "Void"
00B065  01                 const type 3
00B066  A22217F8           const [16]: (-132701534)
00B06A  03                 const type 3
00B06B  00007042           const [17]: (0)
00B06F  03                 const type 3
00B070  00007041           const [18]: (0)
00B074  04                 const type 4
00B075  07                 string size (7)
00B076  676F616C496400     "goalId\0"
                           const [19]: "goalId"
00B07D  04                 const type 4
00B07E  01                 string size (0)
                           const [20]: ""
00B080  03                 const type 3
00B081  00008040           const [21]: (0)
00B085  01                 const type 3
00B086  A82C209E           const [22]: (-1642058584)
00B08A  01                 const type 3
00B08B  7C5F56A6           const [23]: (-1504288900)
00B08F  03                 const type 3
00B090  00000040           const [24]: (0)
00B094  01                 const type 3
00B095  4188F73C           const [25]: (1022855233)
00B099  01                 const type 3
00B09A  1FFB20D4           const [26]: (-736036065)
00B09E  01                 const type 3
00B09F  1A4B27EC           const [27]: (-332969190)
00B0A3  04                 const type 4
00B0A4  12                 string size (18)
00B0A5  446566656E736541+  "DefenseA"
00B0AD  67656E7453706177+  "gentSpaw"
00B0B5  6E00               "n\0"
                           const [28]: "DefenseAgentSpawn"
00B0B7  04                 const type 4
00B0B8  12                 string size (18)
00B0B9  4269706564537065+  "BipedSpe"
00B0C1  6369616C53706177+  "cialSpaw"
00B0C9  6E00               "n\0"
                           const [29]: "BipedSpecialSpawn"
00B0CB  04                 const type 4
00B0CC  09                 string size (9)
00B0CD  446F4E6F74557365+  "DoNotUse"
00B0D5  00                 "\0"
                           const [30]: "DoNotUse"
00B0D6  04                 const type 4
00B0D7  0C                 string size (12)
00B0D8  43616D6572615370+  "CameraSp"
00B0E0  61776E00           "awn\0"
                           const [31]: "CameraSpawn"
00B0E4  04                 const type 4
00B0E5  0C                 string size (12)
00B0E6  5475727265745370+  "TurretSp"
00B0EE  61776E00           "awn\0"
                           const [32]: "TurretSpawn"
00B0F2  04                 const type 4
00B0F3  0B                 string size (11)
00B0F4  5761746572537061+  "WaterSpa"
00B0FC  776E00             "wn\0"
                           const [33]: "WaterSpawn"
00B0FF  01                 const type 3
00B100  F2DDA7C6           const [34]: (-962077198)
00B104  01                 const type 3
00B105  289827F3           const [35]: (-215508952)
00B109  01                 const type 3
00B10A  FBE70EED           const [36]: (-317790213)
00B10E  04                 const type 4
00B10F  03                 string size (3)
00B110  5F5400             "_T\0"
                           const [37]: "_T"
00B113  04                 const type 4
00B114  10                 string size (16)
00B115  4D697373696F6E43+  "MissionC"
00B11D  6F6D706C65746500   "omplete\0"
                           const [38]: "MissionComplete"
00B125  01                 const type 3
00B126  01000000           const [39]: (1)
00B12A  01                 const type 3
00B12B  99D60345           const [40]: (1157879449)
00B12F  04                 const type 4
00B130  05                 string size (5)
00B131  6D61746800         "math\0"
                           const [41]: "math"
00B136  01                 const type 3
00B137  3810018B           const [42]: (-1962864584)
00B13B  01                 const type 3
00B13C  E999708C           const [43]: (-1938777623)
00B140  01                 const type 3
00B141  FFF9DE4C           const [44]: (1289681407)
00B145  03                 const type 3
00B146  00005243           const [45]: (0)
00B14A  01                 const type 3
00B14B  146DC238           const [46]: (952266004)
00B14F  04                 const type 4
00B150  1D                 string size (29)
00B151  53717561644C696E+  "SquadLin"
00B159  6B53757276697661+  "kSurviva"
00B161  6C47697665526577+  "lGiveRew"
00B169  6172647300         "ards\0"
                           const [47]: "SquadLinkSurvivalGiveRewards"
00B16E  01                 const type 3
00B16F  7B5A00F7           const [48]: (-150971781)
00B173  03                 const type 3
00B174  0000803F           const [49]: (0)
00B178  01                 const type 3
00B179  DCCB15D0           const [50]: (-803877924)
00B17D  01                 const type 3
00B17E  A6EFD4C6           const [51]: (-959123546)
00B182  01                 const type 3
00B183  1C9ADCC6           const [52]: (-958621156)
00B187  04                 const type 4
00B188  1E                 string size (30)
00B189  537572766976616C+  "Survival"
00B191  3A20486F7374202D+  ": Host -"
00B199  2066697273742072+  " first r"
00B1A1  657761726400       "eward\0"
                           const [53]: "Survival: Host - first reward"
00B1A7  01                 const type 3
00B1A8  4A4D59FB           const [54]: (-78033590)
00B1AC  04                 const type 4
00B1AD  17                 string size (23)
00B1AE  4D697373696F6E54+  "MissionT"
00B1B6  72616E736D697373+  "ransmiss"
00B1BE  696F6E53657400     "ionSet\0"
                           const [55]: "MissionTransmissionSet"
00B1C5  04                 const type 4
00B1C6  16                 string size (22)
00B1C7  537572766976616C+  "Survival"
00B1CF  5265776172645265+  "RewardRe"
00B1D7  616368656400       "ached\0"
                           const [56]: "SurvivalRewardReached"
00B1DD  04                 const type 4
00B1DE  19                 string size (25)
00B1DF  537572766976616C+  "Survival"
00B1E7  466972737454696D+  "FirstTim"
00B1EF  6552656163686564+  "eReached"
00B1F7  00                 "\0"
                           const [57]: "SurvivalFirstTimeReached"
00B1F8  01                 const type 3
00B1F9  EA911120           const [58]: (538022378)
00B1FD  01                 const type 3
00B1FE  E09F8C84           const [59]: (-2071158816)
00B202  01                 const type 3
00B203  362E2A36           const [60]: (908734006)
00B207  01                 const type 3
00B208  DD8258DE           const [61]: (-564624675)
00B20C  04                 const type 4
00B20D  25                 string size (37)
00B20E  2F4C6F7475732F4C+  "/Lotus/L"
00B216  616E67756167652F+  "anguage/"
00B21E  47616D652F457874+  "Game/Ext"
00B226  72616374696F6E54+  "ractionT"
00B22E  696D657200         "imer\0"
                           const [62]: "/Lotus/Language/Game/ExtractionTimer"
00B233  03                 const type 3
00B234  00004040           const [63]: (0)
00B238  03                 const type 3
00B239  0000F841           const [64]: (0)
00B23D  04                 const type 4
00B23E  19                 string size (25)
00B23F  537572766976616C+  "Survival"
00B247  4578747261637469+  "Extracti"
00B24F  6F6E557267656E74+  "onUrgent"
00B257  00                 "\0"
                           const [65]: "SurvivalExtractionUrgent"
00B258  04                 const type 4
00B259  18                 string size (24)
00B25A  537572766976616C+  "Survival"
00B262  4578747261637469+  "Extracti"
00B26A  6F6E526561647900   "onReady\0"
                           const [66]: "SurvivalExtractionReady"
00B272  03                 const type 3
00B273  0000F041           const [67]: (0)
00B277  04                 const type 4
00B278  17                 string size (23)
00B279  757365496E666573+  "useInfes"
00B281  746564466F674772+  "tedFogGr"
00B289  616469656E7400     "adient\0"
                           const [68]: "useInfestedFogGradient"
00B290  04                 const type 4
00B291  08                 string size (8)
00B292  66616374696F6E00   "faction\0"
                           const [69]: "faction"
00B29A  04                 const type 4
00B29B  0C                 string size (12)
00B29C  496E666573746174+  "Infestat"
00B2A4  696F6E00           "ion\0"
                           const [70]: "Infestation"
00B2A8  04                 const type 4
00B2A9  21                 string size (33)
00B2AA  537572766976616C+  "Survival"
00B2B2  4578747261637469+  "Extracti"
00B2BA  6F6E557267656E74+  "onUrgent"
00B2C2  496E666573746564+  "Infested"
00B2CA  00                 "\0"
                           const [71]: "SurvivalExtractionUrgentInfested"
00B2CB  04                 const type 4
00B2CC  16                 string size (22)
00B2CD  537572766976616C+  "Survival"
00B2D5  33305365636F6E64+  "30Second"
00B2DD  734C65667400       "sLeft\0"
                           const [72]: "Survival30SecondsLeft"
00B2E3  03                 const type 3
00B2E4  00007442           const [73]: (0)
00B2E8  04                 const type 4
00B2E9  16                 string size (22)
00B2EA  537572766976616C+  "Survival"
00B2F2  36305365636F6E64+  "60Second"
00B2FA  734C65667400       "sLeft\0"
                           const [74]: "Survival60SecondsLeft"
00B300  04                 const type 4
00B301  44                 string size (68)
00B302  537572766976616C+  "Survival"
00B30A  3A204C6966652073+  ": Life s"
00B312  7570706F72742069+  "upport i"
00B31A  7320617420302C20+  "s at 0, "
00B322  636865636B696E67+  "checking"
00B32A  20666F7220636170+  " for cap"
00B332  73756C6573207374+  "sules st"
00B33A  696C6C20696E2075+  "ill in u"
00B342  73652E00           "se.\0"
                           const [75]: "Survival: Life support is at 0, checking for capsules still in use."
00B346  01                 const type 3
00B347  009A1309           const [76]: (152279552)
00B34B  04                 const type 4
00B34C  1E                 string size (30)
00B34D  737572766976616C+  "survival"
00B355  50726F6772657373+  "Progress"
00B35D  426172416374696F+  "BarActio"
00B365  6E5479706500       "nType\0"
                           const [77]: "survivalProgressBarActionType"
00B36B  01                 const type 3
00B36C  1698FCBA           const [78]: (-1157851114)
00B370  04                 const type 4
00B371  4A                 string size (74)
00B372  537572766976616C+  "Survival"
00B37A  3A204C6966652073+  ": Life s"
00B382  7570706F72742063+  "upport c"
00B38A  617073756C652062+  "apsule b"
00B392  65696E6720616374+  "eing act"
00B39A  6976617465642C20+  "ivated, "
00B3A2  77616974696E6720+  "waiting "
00B3AA  666F722069742074+  "for it t"
00B3B2  6F2066696E697368+  "o finish"
00B3BA  2E00               ".\0"
                           const [79]: "Survival: Life support capsule being activated, waiting for it to finish."
00B3BC  01                 const type 3
00B3BD  DF46F8BC           const [80]: (-1124579617)
00B3C1  04                 const type 4
00B3C2  0E                 string size (14)
00B3C3  537572766976616C+  "Survival"
00B3CB  54696D656400       "Timed\0"
                           const [81]: "SurvivalTimed"
00B3D1  04                 const type 4
00B3D2  05                 string size (5)
00B3D3  4D696E7300         "Mins\0"
                           const [82]: "Mins"
00B3D8  01                 const type 3
00B3D9  04CDB546           const [83]: (1186319620)
00B3DD  04                 const type 4
00B3DE  1A                 string size (26)
00B3DF  537572766976616C+  "Survival"
00B3E7  3A2046696E616C20+  ": Final "
00B3EF  73636F7265206973+  "score is"
00B3F7  2000               " \0"
                           const [84]: "Survival: Final score is "
00B3F9  01                 const type 3
00B3FA  0B3A745B           const [85]: (1534343691)
00B3FE  04                 const type 4
00B3FF  11                 string size (17)
00B400  456E644D69737369+  "EndMissi"
00B408  6F6E536372697074+  "onScript"
00B410  00                 "\0"
                           const [86]: "EndMissionScript"
                           * functions:
00B411  00                 sizep (0)
                           * lines:
00B413  04                 sizelineinfo (561)
                           [pc] (line)
00B414  0D                 [001] (13)
00B415  07                 [002] (14)
00B416  00                 [003] (14)
00B417  00                 [004] (14)
00B418  0E                 [005] (15)
00B419  07                 [006] (15)
00B41A  00                 [007] (16)
00B41B  00                 [008] (16)
00B41C  0E                 [009] (17)
00B41D  07                 [010] (19)
00B41E  00                 [011] (19)
00B41F  00                 [012] (19)
00B420  0E                 [013] (20)
00B421  07                 [014] (20)
00B422  00                 [015] (20)
00B423  00                 [016] (22)
00B424  0F                 [017] (22)
00B425  07                 [018] (22)
00B426  00                 [019] (24)
00B427  00                 [020] (24)
00B428  0F                 [021] (24)
00B429  07                 [022] (24)
00B42A  00                 [023] (24)
00B42B  00                 [024] (25)
00B42C  10                 [025] (25)
00B42D  07                 [026] (25)
00B42E  00                 [027] (25)
00B42F  00                 [028] (25)
00B430  10                 [029] (25)
00B431  07                 [030] (25)
00B432  00                 [031] (25)
00B433  00                 [032] (25)
00B434  11                 [033] (25)
00B435  07                 [034] (26)
00B436  00                 [035] (26)
00B437  00                 [036] (26)
00B438  13                 [037] (26)
00B439  07                 [038] (26)
00B43A  00                 [039] (26)
00B43B  00                 [040] (26)
00B43C  13                 [041] (26)
00B43D  07                 [042] (27)
00B43E  00                 [043] (27)
00B43F  00                 [044] (29)
00B440  13                 [045] (29)
00B441  07                 [046] (29)
00B442  00                 [047] (32)
00B443  00                 [048] (32)
00B444  14                 [049] (32)
00B445  07                 [050] (32)
00B446  00                 [051] (32)
00B447  00                 [052] (32)
00B448  14                 [053] (32)
00B449  07                 [054] (32)
00B44A  00                 [055] (32)
00B44B  00                 [056] (32)
00B44C  14                 [057] (33)
00B44D  07                 [058] (33)
00B44E  00                 [059] (36)
00B44F  00                 [060] (36)
00B450  16                 [061] (36)
00B451  07                 [062] (36)
00B452  00                 [063] (36)
00B453  00                 [064] (36)
00B454  16                 [065] (37)
00B455  07                 [066] (37)
00B456  00                 [067] (37)
00B457  00                 [068] (37)
00B458  16                 [069] (37)
00B459  07                 [070] (37)
00B45A  00                 [071] (37)
00B45B  00                 [072] (37)
00B45C  18                 [073] (37)
00B45D  07                 [074] (38)
00B45E  00                 [075] (38)
00B45F  00                 [076] (38)
00B460  18                 [077] (39)
00B461  07                 [078] (39)
00B462  00                 [079] (39)
00B463  00                 [080] (39)
00B464  18                 [081] (39)
00B465  07                 [082] (40)
00B466  00                 [083] (40)
00B467  00                 [084] (40)
00B468  18                 [085] (40)
00B469  07                 [086] (40)
00B46A  00                 [087] (41)
00B46B  00                 [088] (41)
00B46C  18                 [089] (41)
00B46D  07                 [090] (41)
00B46E  00                 [091] (41)
00B46F  00                 [092] (42)
00B470  19                 [093] (42)
00B471  07                 [094] (42)
00B472  00                 [095] (42)
00B473  00                 [096] (42)
00B474  19                 [097] (43)
00B475  07                 [098] (43)
00B476  00                 [099] (43)
00B477  00                 [100] (43)
00B478  19                 [101] (43)
00B479  07                 [102] (44)
00B47A  00                 [103] (44)
00B47B  00                 [104] (44)
00B47C  19                 [105] (44)
00B47D  07                 [106] (44)
00B47E  00                 [107] (45)
00B47F  00                 [108] (45)
00B480  19                 [109] (45)
00B481  07                 [110] (46)
00B482  00                 [111] (46)
00B483  00                 [112] (46)
00B484  19                 [113] (49)
00B485  07                 [114] (49)
00B486  00                 [115] (49)
00B487  00                 [116] (50)
00B488  19                 [117] (50)
00B489  07                 [118] (50)
00B48A  00                 [119] (50)
00B48B  00                 [120] (50)
00B48C  19                 [121] (50)
00B48D  07                 [122] (51)
00B48E  00                 [123] (51)
00B48F  00                 [124] (51)
00B490  19                 [125] (52)
00B491  07                 [126] (52)
00B492  00                 [127] (53)
00B493  00                 [128] (53)
00B494  19                 [129] (53)
00B495  07                 [130] (53)
00B496  00                 [131] (53)
00B497  00                 [132] (53)
00B498  1A                 [133] (53)
00B499  07                 [134] (53)
00B49A  00                 [135] (57)
00B49B  00                 [136] (57)
00B49C  1A                 [137] (60)
00B49D  07                 [138] (60)
00B49E  00                 [139] (63)
00B49F  00                 [140] (63)
00B4A0  1A                 [141] (63)
00B4A1  07                 [142] (66)
00B4A2  00                 [143] (66)
00B4A3  00                 [144] (66)
00B4A4  1A                 [145] (66)
00B4A5  07                 [146] (66)
00B4A6  00                 [147] (66)
00B4A7  00                 [148] (66)
00B4A8  1A                 [149] (66)
00B4A9  07                 [150] (69)
00B4AA  00                 [151] (69)
00B4AB  00                 [152] (69)
00B4AC  1A                 [153] (69)
00B4AD  07                 [154] (69)
00B4AE  00                 [155] (69)
00B4AF  00                 [156] (69)
00B4B0  1A                 [157] (70)
00B4B1  07                 [158] (70)
00B4B2  00                 [159] (70)
00B4B3  00                 [160] (71)
00B4B4  1A                 [161] (71)
00B4B5  07                 [162] (75)
00B4B6  00                 [163] (75)
00B4B7  00                 [164] (76)
00B4B8  1B                 [165] (76)
00B4B9  07                 [166] (76)
00B4BA  00                 [167] (77)
00B4BB  00                 [168] (77)
00B4BC  1B                 [169] (77)
00B4BD  07                 [170] (77)
00B4BE  00                 [171] (78)
00B4BF  00                 [172] (78)
00B4C0  1D                 [173] (78)
00B4C1  07                 [174] (78)
00B4C2  00                 [175] (78)
00B4C3  00                 [176] (78)
00B4C4  1D                 [177] (78)
00B4C5  07                 [178] (79)
00B4C6  00                 [179] (79)
00B4C7  00                 [180] (79)
00B4C8  1D                 [181] (79)
00B4C9  07                 [182] (80)
00B4CA  00                 [183] (80)
00B4CB  00                 [184] (80)
00B4CC  20                 [185] (80)
00B4CD  07                 [186] (80)
00B4CE  00                 [187] (81)
00B4CF  00                 [188] (81)
00B4D0  20                 [189] (81)
00B4D1  07                 [190] (81)
00B4D2  00                 [191] (81)
00B4D3  00                 [192] (81)
00B4D4  20                 [193] (81)
00B4D5  07                 [194] (81)
00B4D6  00                 [195] (82)
00B4D7  00                 [196] (82)
00B4D8  20                 [197] (82)
00B4D9  07                 [198] (82)
00B4DA  00                 [199] (82)
00B4DB  00                 [200] (85)
00B4DC  20                 [201] (85)
00B4DD  07                 [202] (86)
00B4DE  00                 [203] (86)
00B4DF  00                 [204] (86)
00B4E0  20                 [205] (87)
00B4E1  07                 [206] (87)
00B4E2  00                 [207] (88)
00B4E3  00                 [208] (88)
00B4E4  20                 [209] (88)
00B4E5  07                 [210] (88)
00B4E6  00                 [211] (89)
00B4E7  00                 [212] (89)
00B4E8  20                 [213] (91)
00B4E9  07                 [214] (91)
00B4EA  00                 [215] (92)
00B4EB  00                 [216] (92)
00B4EC  20                 [217] (92)
00B4ED  07                 [218] (93)
00B4EE  00                 [219] (93)
00B4EF  00                 [220] (93)
00B4F0  20                 [221] (94)
00B4F1  07                 [222] (95)
00B4F2  00                 [223] (95)
00B4F3  00                 [224] (96)
00B4F4  21                 [225] (96)
00B4F5  07                 [226] (96)
00B4F6  00                 [227] (98)
00B4F7  00                 [228] (98)
00B4F8  21                 [229] (98)
00B4F9  07                 [230] (99)
00B4FA  00                 [231] (99)
00B4FB  00                 [232] (99)
00B4FC  24                 [233] (99)
00B4FD  07                 [234] (100)
00B4FE  00                 [235] (100)
00B4FF  00                 [236] (100)
00B500  24                 [237] (100)
00B501  07                 [238] (100)
00B502  00                 [239] (100)
00B503  00                 [240] (100)
00B504  24                 [241] (100)
00B505  07                 [242] (100)
00B506  00                 [243] (102)
00B507  00                 [244] (102)
00B508  24                 [245] (102)
00B509  07                 [246] (102)
00B50A  00                 [247] (102)
00B50B  00                 [248] (102)
00B50C  24                 [249] (103)
00B50D  07                 [250] (103)
00B50E  00                 [251] (104)
00B50F  00                 [252] (104)
00B510  24                 [253] (104)
00B511  07                 [254] (108)
00B512  00                 [255] (108)
00B513  00                 [256] (108)
00B514  25                 [257] (108)
00B515  07                 [258] (108)
00B516  00                 [259] (108)
00B517  00                 [260] (109)
00B518  25                 [261] (109)
00B519  07                 [262] (111)
00B51A  00                 [263] (111)
00B51B  00                 [264] (111)
00B51C  25                 [265] (111)
00B51D  07                 [266] (111)
00B51E  00                 [267] (111)
00B51F  00                 [268] (111)
00B520  25                 [269] (111)
00B521  07                 [270] (111)
00B522  00                 [271] (113)
00B523  00                 [272] (113)
00B524  25                 [273] (113)
00B525  07                 [274] (115)
00B526  00                 [275] (115)
00B527  00                 [276] (115)
00B528  25                 [277] (117)
00B529  07                 [278] (117)
00B52A  00                 [279] (118)
00B52B  00                 [280] (118)
00B52C  25                 [281] (118)
00B52D  07                 [282] (119)
00B52E  00                 [283] (119)
00B52F  00                 [284] (119)
00B530  25                 [285] (119)
00B531  07                 [286] (120)
00B532  00                 [287] (120)
00B533  00                 [288] (120)
00B534  25                 [289] (120)
00B535  07                 [290] (120)
00B536  00                 [291] (120)
00B537  00                 [292] (120)
00B538  26                 [293] (120)
00B539  07                 [294] (120)
00B53A  00                 [295] (120)
00B53B  00                 [296] (120)
00B53C  26                 [297] (119)
00B53D  07                 [298] (122)
00B53E  00                 [299] (122)
00B53F  00                 [300] (122)
00B540  26                 [301] (122)
00B541  07                 [302] (122)
00B542  00                 [303] (122)
00B543  00                 [304] (122)
00B544  27                 [305] (122)
00B545  07                 [306] (122)
00B546  00                 [307] (123)
00B547  00                 [308] (123)
00B548  27                 [309] (123)
00B549  07                 [310] (123)
00B54A  00                 [311] (123)
00B54B  00                 [312] (123)
00B54C  27                 [313] (123)
00B54D  07                 [314] (123)
00B54E  00                 [315] (123)
00B54F  00                 [316] (123)
00B550  27                 [317] (125)
00B551  07                 [318] (125)
00B552  00                 [319] (125)
00B553  00                 [320] (125)
00B554  27                 [321] (125)
00B555  07                 [322] (125)
00B556  00                 [323] (125)
00B557  00                 [324] (125)
00B558  28                 [325] (125)
00B559  07                 [326] (-128)
00B55A  00                 [327] (-128)
00B55B  00                 [328] (-126)
00B55C  28                 [329] (-126)
00B55D  07                 [330] (-125)
00B55E  00                 [331] (-125)
00B55F  00                 [332] (-125)
00B560  28                 [333] (-125)
00B561  07                 [334] (-125)
00B562  00                 [335] (-125)
00B563  00                 [336] (-125)
00B564  28                 [337] (-125)
00B565  07                 [338] (-125)
00B566  00                 [339] (-125)
00B567  00                 [340] (-124)
00B568  28                 [341] (-124)
00B569  07                 [342] (-124)
00B56A  00                 [343] (-124)
00B56B  00                 [344] (-124)
00B56C  29                 [345] (-124)
00B56D  07                 [346] (-124)
00B56E  00                 [347] (-124)
00B56F  00                 [348] (-124)
00B570  29                 [349] (-124)
00B571  07                 [350] (-123)
00B572  00                 [351] (-123)
00B573  00                 [352] (-123)
00B574  29                 [353] (-123)
00B575  07                 [354] (-123)
00B576  00                 [355] (-123)
00B577  00                 [356] (-122)
00B578  29                 [357] (-122)
00B579  07                 [358] (-122)
00B57A  00                 [359] (-122)
00B57B  00                 [360] (-122)
00B57C  29                 [361] (-122)
00B57D  07                 [362] (-122)
00B57E  00                 [363] (-122)
00B57F  00                 [364] (-122)
00B580  2A                 [365] (79)
00B581  07                 [366] (-114)
00B582  00                 [367] (-114)
00B583  00                 [368] (-114)
00B584  2A                 [369] (-113)
00B585  07                 [370] (-113)
00B586  00                 [371] (-113)
00B587  00                 [372] (-113)
00B588  2A                 [373] (-113)
00B589  07                 [374] (-113)
00B58A  00                 [375] (-113)
00B58B  00                 [376] (-113)
00B58C  2A                 [377] (-113)
00B58D  07                 [378] (-112)
00B58E  00                 [379] (-112)
00B58F  00                 [380] (-112)
00B590  2A                 [381] (-112)
00B591  07                 [382] (-112)
00B592  00                 [383] (-112)
00B593  00                 [384] (-112)
00B594  2B                 [385] (-112)
00B595  07                 [386] (-111)
00B596  00                 [387] (-111)
00B597  00                 [388] (-111)
00B598  2B                 [389] (-111)
00B599  07                 [390] (-111)
00B59A  00                 [391] (-111)
00B59B  00                 [392] (-111)
00B59C  2B                 [393] (-111)
00B59D  07                 [394] (-111)
00B59E  00                 [395] (-111)
00B59F  00                 [396] (-110)
00B5A0  2B                 [397] (-110)
00B5A1  07                 [398] (-110)
00B5A2  00                 [399] (-110)
00B5A3  00                 [400] (-110)
00B5A4  2B                 [401] (-110)
00B5A5  07                 [402] (-110)
00B5A6  00                 [403] (-110)
00B5A7  00                 [404] (-110)
00B5A8  2C                 [405] (-110)
00B5A9  07                 [406] (-108)
00B5AA  00                 [407] (-108)
00B5AB  00                 [408] (-108)
00B5AC  2C                 [409] (-108)
00B5AD  07                 [410] (-108)
00B5AE  00                 [411] (-108)
00B5AF  00                 [412] (-108)
00B5B0  2C                 [413] (-108)
00B5B1  07                 [414] (-108)
00B5B2  00                 [415] (-107)
00B5B3  00                 [416] (-105)
00B5B4  2C                 [417] (-105)
00B5B5  07                 [418] (-105)
00B5B6  00                 [419] (-105)
00B5B7  00                 [420] (-105)
00B5B8  2C                 [421] (-105)
00B5B9  07                 [422] (-105)
00B5BA  00                 [423] (-105)
00B5BB  00                 [424] (-105)
00B5BC  2D                 [425] (-104)
00B5BD  07                 [426] (-103)
00B5BE  00                 [427] (-103)
00B5BF  00                 [428] (-103)
00B5C0  2D                 [429] (-103)
00B5C1  07                 [430] (-103)
00B5C2  00                 [431] (-103)
00B5C3  00                 [432] (-103)
00B5C4  2D                 [433] (-103)
00B5C5  07                 [434] (-103)
00B5C6  00                 [435] (-102)
00B5C7  00                 [436] (-102)
00B5C8  2E                 [437] (-102)
00B5C9  07                 [438] (-102)
00B5CA  00                 [439] (-102)
00B5CB  00                 [440] (-102)
00B5CC  2E                 [441] (-102)
00B5CD  07                 [442] (-102)
00B5CE  00                 [443] (-102)
00B5CF  00                 [444] (-98)
00B5D0  2E                 [445] (-98)
00B5D1  07                 [446] (-98)
00B5D2  00                 [447] (-97)
00B5D3  00                 [448] (-97)
00B5D4  31                 [449] (-97)
00B5D5  07                 [450] (-97)
00B5D6  00                 [451] (-97)
00B5D7  00                 [452] (-97)
00B5D8  31                 [453] (-96)
00B5D9  07                 [454] (-93)
00B5DA  00                 [455] (-93)
00B5DB  00                 [456] (-93)
00B5DC  31                 [457] (-91)
00B5DD  07                 [458] (-91)
00B5DE  00                 [459] (-91)
00B5DF  00                 [460] (-90)
00B5E0  32                 [461] (-87)
00B5E1  07                 [462] (-87)
00B5E2  00                 [463] (-86)
00B5E3  00                 [464] (-85)
00B5E4  32                 [465] (-85)
00B5E5  07                 [466] (-85)
00B5E6  00                 [467] (-83)
00B5E7  00                 [468] (-83)
00B5E8  32                 [469] (-83)
00B5E9  07                 [470] (-83)
00B5EA  00                 [471] (-82)
00B5EB  00                 [472] (-81)
00B5EC  32                 [473] (-81)
00B5ED  07                 [474] (-81)
00B5EE  00                 [475] (-81)
00B5EF  00                 [476] (-80)
00B5F0  32                 [477] (-80)
00B5F1  07                 [478] (-80)
00B5F2  00                 [479] (-80)
00B5F3  00                 [480] (-81)
00B5F4  32                 [481] (-77)
00B5F5  07                 [482] (-77)
00B5F6  00                 [483] (-76)
00B5F7  00                 [484] (-76)
00B5F8  33                 [485] (-76)
00B5F9  07                 [486] (-75)
00B5FA  00                 [487] (-71)
00B5FB  00                 [488] (-71)
00B5FC  33                 [489] (-71)
00B5FD  07                 [490] (-71)
00B5FE  00                 [491] (-70)
00B5FF  00                 [492] (-70)
00B600  33                 [493] (-70)
00B601  07                 [494] (-70)
00B602  00                 [495] (-69)
00B603  00                 [496] (-69)
00B604  34                 [497] (-68)
00B605  07                 [498] (-68)
00B606  00                 [499] (-66)
00B607  00                 [500] (-66)
00B608  34                 [501] (-66)
00B609  07                 [502] (-62)
00B60A  00                 [503] (-62)
00B60B  00                 [504] (-62)
00B60C  35                 [505] (-62)
00B60D  07                 [506] (-61)
00B60E  00                 [507] (-61)
00B60F  00                 [508] (-61)
00B610  35                 [509] (-61)
00B611  07                 [510] (-61)
00B612  00                 [511] (-60)
00B613  00                 [512] (-60)
00B614  35                 [513] (-60)
00B615  07                 [514] (-60)
00B616  00                 [515] (-59)
00B617  00                 [516] (-59)
00B618  35                 [517] (-59)
00B619  07                 [518] (-59)
00B61A  00                 [519] (-59)
00B61B  00                 [520] (-59)
00B61C  35                 [521] (-59)
00B61D  07                 [522] (-59)
00B61E  00                 [523] (-59)
00B61F  00                 [524] (-58)
00B620  35                 [525] (-54)
00B621  07                 [526] (-54)
00B622  00                 [527] (-54)
00B623  00                 [528] (-54)
00B624  35                 [529] (-54)
00B625  07                 [530] (-54)
00B626  00                 [531] (-54)
00B627  00                 [532] (-53)
00B628  35                 [533] (-53)
00B629  07                 [534] (-53)
00B62A  00                 [535] (-53)
00B62B  00                 [536] (-50)
00B62C  39                 [537] (-50)
00B62D  07                 [538] (-50)
00B62E  00                 [539] (-50)
00B62F  00                 [540] (-47)
00B630  39                 [541] (-47)
00B631  07                 [542] (-47)
00B632  00                 [543] (-46)
00B633  00                 [544] (-46)
00B634  3C                 [545] (-46)
00B635  07                 [546] (-46)
00B636  00                 [547] (-46)
00B637  00                 [548] (-43)
00B638  3C                 [549] (-43)
00B639  07                 [550] (-42)
00B63A  00                 [551] (-42)
00B63B  00                 [552] (-42)
00B63C  3F                 [553] (-41)
00B63D  07                 [554] (-41)
00B63E  00                 [555] (-41)
00B63F  00                 [556] (-41)
00B640  3F                 [557] (-41)
00B641  07                 [558] (-41)
00B642  00                 [559] (-41)
00B643  00                 [560] (-41)
00B644  3F                 [561] (-38)
                           * locals:
00BCD8  00                 sizelocvars (0)
                           * upvalues:
00BCD9  00                 sizeupvalues (0)
                           ** end of function **

                           
00BCDA                     ** function [47] definition (level 2)
                           ** start of function **
00BCDA  00                 string size (0)
                           source name: (none)
00BCDC  0F                 line defined (2012)
00BCDD  B1                 last line defined (2097)
00BCDE  10                 nups (18)
00BCDF  12                 numparams (0)
00BCE0  00                 is_vararg (0)
00BCE1  00                 maxstacksize (22)
                           * code:
00BCE4  01                 sizecode (223)
00BCE5  1D000000           [001] getglobal  0   0        ; gRegion
00BCE9  24404000           [002] self       0   0   257  ; -774964848
00BCED  22800001           [003] call       0   2   2  
00BCF1  24804000           [004] self       0   0   258  ; 537471347
00BCF5  22800001           [005] call       0   2   2  
00BCF9  5DC00000           [006] getglobal  1   3        ; -1817107093
00BCFD  99000100           [007] loadk      2   4        ; "Survival: Alarm triggered"
00BD01  62400001           [008] call       1   2   1  
00BD05  53000000           [009] getupval   1   0      
00BD09  4E40C100           [010] gettable   1   1   261  ; 387243374
00BD0D  62408000           [011] call       1   1   1  
00BD11  5D800100           [012] getglobal  1   6        ; gGameRules
00BD15  9D000000           [013] getglobal  2   0        ; gRegion
00BD19  A4C04101           [014] self       2   2   263  ; -1520831144
00BD1D  A2800001           [015] call       2   2   2  
00BD21  98000000           [016] test       2       0    ; to [18] if true
00BD25  1A000280           [017] jmp        9            ; to [27]
00BD29  A400C200           [018] self       2   1   264  ; -803877924
00BD2D  13018000           [019] getupval   4   1      
00BD31  59410200           [020] loadk      5   9        ; 0
00BD35  A2400002           [021] call       2   4   1  
00BD39  A400C200           [022] self       2   1   264  ; -803877924
00BD3D  13010001           [023] getupval   4   2      
00BD41  53018001           [024] getupval   5   3      
00BD45  A2400002           [025] call       2   4   1  
00BD49  1A400280           [026] jmp        10           ; to [37]
00BD4D  9D800200           [027] getglobal  2   10       ; 1074689893
00BD51  D2008000           [028] move       3   1      
00BD55  A2800001           [029] call       2   2   2  
00BD59  98000000           [030] test       2       0    ; to [32] if true
00BD5D  1A000180           [031] jmp        5            ; to [37]
00BD61  9DC00200           [032] getglobal  2   11       ; 538022378
00BD65  D9000300           [033] loadk      3   12       ; 0
00BD69  A2400001           [034] call       2   2   1  
00BD6D  5D800100           [035] getglobal  1   6        ; gGameRules
00BD71  1A40FD7F           [036] jmp        -10          ; to [27]
00BD75  93000002           [037] getupval   2   4      
00BD79  A2808000           [038] call       2   1   2  
00BD7D  98000000           [039] test       2       0    ; to [41] if true
00BD81  1A800080           [040] jmp        3            ; to [44]
00BD85  A4404300           [041] self       2   0   269  ; 447196028
00BD89  17018000           [042] loadbool   4   1   0    ; true
00BD8D  A2408001           [043] call       2   3   1  
00BD91  9D800300           [044] getglobal  2   14       ; gChallengeMgr
00BD95  A4C04301           [045] self       2   2   271  ; 1694488284
00BD99  17018000           [046] loadbool   4   1   0    ; true
00BD9D  A2408001           [047] call       2   3   1  
00BDA1  A4004400           [048] self       2   0   272  ; -736036065
00BDA5  1D410400           [049] getglobal  4   17       ; -332969190
00BDA9  59810400           [050] loadk      5   18       ; "WaterSpawn"
00BDAD  22010001           [051] call       4   2   0  
00BDB1  A2400000           [052] call       2   0   1  
00BDB5  9D000000           [053] getglobal  2   0        ; gRegion
00BDB9  A4C04401           [054] self       2   2   275  ; -1485896174
00BDBD  1D410400           [055] getglobal  4   17       ; -332969190
00BDC1  59810400           [056] loadk      5   18       ; "WaterSpawn"
00BDC5  22010001           [057] call       4   2   0  
00BDC9  A2800000           [058] call       2   0   2  
00BDCD  DD000500           [059] getglobal  3   20       ; 1672515847
00BDD1  12010001           [060] move       4   2      
00BDD5  E2000101           [061] call       3   2   4  
00BDD9  1A800080           [062] jmp        3            ; to [66]
00BDDD  2442C503           [063] self       8   7   277  ; -1923578185
00BDE1  99820500           [064] loadk      10  22       ; "Disable"
00BDE5  22428001           [065] call       8   3   1  
00BDE9  D6800000           [066] tforloop   3       2    ; to [68] if exit
00BDED  1A80FE7F           [067] jmp        -5           ; to [63]
00BDF1  13028002           [068] getupval   8   5      
00BDF5  22828000           [069] call       8   1   2  
00BDF9  18020000           [070] test       8       0    ; to [72] if true
00BDFD  1A400280           [071] jmp        10           ; to [82]
00BE01  13020003           [072] getupval   8   6      
00BE05  0EC24504           [073] gettable   8   8   279  ; -78033590
00BE09  5D020600           [074] getglobal  9   24       ; _T
00BE0D  4E42C604           [075] gettable   9   9   281  ; "MissionTransmissionSet"
00BE11  9D420400           [076] getglobal  10  17       ; -332969190
00BE15  D9820600           [077] loadk      11  26       ; "SurvivalLifeSupportCutKuva"
00BE19  A2820001           [078] call       10  2   2  
00BE1D  D9020300           [079] loadk      11  12       ; 0
00BE21  22420002           [080] call       8   4   1  
00BE25  1A000780           [081] jmp        29           ; to [111]
00BE29  1DC20600           [082] getglobal  8   27       ; useInfestedFogGradient
00BE2D  18020000           [083] test       8       0    ; to [85] if true
00BE31  1A000480           [084] jmp        17           ; to [102]
00BE35  1D020600           [085] getglobal  8   24       ; _T
00BE39  0E024704           [086] gettable   8   8   284  ; "faction"
00BE3D  5D420400           [087] getglobal  9   17       ; -332969190
00BE41  99420700           [088] loadk      10  29       ; "Infestation"
00BE45  62820001           [089] call       9   2   2  
fail op	35
00BE49  23400204           [090] close      0  
00BE4D  1A400280           [091] jmp        10           ; to [102]
00BE51  13020003           [092] getupval   8   6      
00BE55  0EC24504           [093] gettable   8   8   279  ; -78033590
00BE59  5D020600           [094] getglobal  9   24       ; _T
00BE5D  4E42C604           [095] gettable   9   9   281  ; "MissionTransmissionSet"
00BE61  9D420400           [096] getglobal  10  17       ; -332969190
00BE65  D9820700           [097] loadk      11  30       ; "SurvivalLifeSupportCutInfested"
00BE69  A2820001           [098] call       10  2   2  
00BE6D  D9020300           [099] loadk      11  12       ; 0
00BE71  22420002           [100] call       8   4   1  
00BE75  1A000280           [101] jmp        9            ; to [111]
00BE79  13020003           [102] getupval   8   6      
00BE7D  0EC24504           [103] gettable   8   8   279  ; -78033590
00BE81  5D020600           [104] getglobal  9   24       ; _T
00BE85  4E42C604           [105] gettable   9   9   281  ; "MissionTransmissionSet"
00BE89  9D420400           [106] getglobal  10  17       ; -332969190
00BE8D  D9C20700           [107] loadk      11  31       ; "SurvivalLifeSupportCut"
00BE91  A2820001           [108] call       10  2   2  
00BE95  D9020300           [109] loadk      11  12       ; 0
00BE99  22420002           [110] call       8   4   1  
00BE9D  1D020600           [111] getglobal  8   24       ; _T
00BEA1  6442C800           [112] self       9   1   289  ; -559213774
00BEA5  62820001           [113] call       9   2   2  
00BEA9  0C420290           [114] settable   8   288 9    ; "gSurvivalRewardSeed"
00BEAD  13028003           [115] getupval   8   7      
00BEB1  0E824804           [116] gettable   8   8   290  ; -473869226
00BEB5  22428000           [117] call       8   1   1  
00BEB9  1DC20200           [118] getglobal  8   11       ; 538022378
00BEBD  53020004           [119] getupval   9   8      
00BEC1  22420001           [120] call       8   2   1  
00BEC5  5D800100           [121] getglobal  1   6        ; gGameRules
00BEC9  24C2C800           [122] self       8   1   291  ; -2029400442
00BECD  22820001           [123] call       8   2   2  
00BED1  5D820200           [124] getglobal  9   10       ; 1074689893
00BED5  92020004           [125] move       10  8      
00BED9  62820001           [126] call       9   2   2  
00BEDD  58420000           [127] test       9       1    ; to [129] if false
00BEE1  1AC00480           [128] jmp        20           ; to [149]
00BEE5  5D020600           [129] getglobal  9   24       ; _T
00BEE9  4E02C904           [130] gettable   9   9   292  ; "AddHudTracker"
fail op	35
00BEED  6340C904           [131] close      1  
00BEF1  1AC00380           [132] jmp        16           ; to [149]
00BEF5  5D820200           [133] getglobal  9   10       ; 1074689893
00BEF9  9D020600           [134] getglobal  10  24       ; _T
00BEFD  8E824905           [135] gettable   10  10  294  ; "LifeSupportBar"
00BF01  62820001           [136] call       9   2   2  
00BF05  58020000           [137] test       9       0    ; to [139] if true
00BF09  1A000480           [138] jmp        17           ; to [156]
00BF0D  53028003           [139] getupval   9   7      
00BF11  4EC2C904           [140] gettable   9   9   295  ; -1079095470
00BF15  93028004           [141] getupval   10  9      
00BF19  D9020A00           [142] loadk      11  40       ; 0
00BF1D  19030A00           [143] loadk      12  40       ; 0
00BF21  5D430A00           [144] getglobal  13  41       ; survivalBroadcastObjectiveIcon
00BF25  97038000           [145] loadbool   14  1   0    ; true
00BF29  62420003           [146] call       9   6   1  
00BF2D  1AC00180           [147] jmp        8            ; to [156]
00BF31  1A00F97F           [148] jmp        -27          ; to [122]
00BF35  5DC20000           [149] getglobal  9   3        ; -1817107093
00BF39  99820A00           [150] loadk      10  42       ; "Survival: Waiting for hud to be a thing"
00BF3D  62420001           [151] call       9   2   1  
00BF41  5DC20200           [152] getglobal  9   11       ; 538022378
00BF45  99C20A00           [153] loadk      10  43       ; -51
00BF49  62420001           [154] call       9   2   1  
00BF4D  1A40F77F           [155] jmp        -34          ; to [122]
00BF51  5D020000           [156] getglobal  9   0        ; gRegion
00BF55  64C2C104           [157] self       9   9   263  ; -1520831144
00BF59  62820001           [158] call       9   2   2  
00BF5D  58020000           [159] test       9       0    ; to [161] if true
00BF61  1A000E80           [160] jmp        57           ; to [218]
00BF65  5D020000           [161] getglobal  9   0        ; gRegion
00BF69  64C2C404           [162] self       9   9   275  ; -1485896174
00BF6D  DD420400           [163] getglobal  11  17       ; -332969190
00BF71  19030B00           [164] loadk      12  44       ; "AlarmObjMarker"
00BF75  E2020001           [165] call       11  2   0  
00BF79  62820000           [166] call       9   0   2  
00BF7D  99420200           [167] loadk      10  9        ; 0
00BF81  CA028004           [168] len        11  9      
00BF85  19430200           [169] loadk      12  9        ; 0
00BF89  90820080           [170] forprep    10  3        ; to [174]
00BF8D  8E438304           [171] gettable   14  9   13 
00BF91  A4434B07           [172] self       14  14  301  ; 766584623
00BF95  A2430001           [173] call       14  2   1  
00BF99  94C2FE7F           [174] forloop    10  -4       ; to [171] if loop
00BF9D  93030005           [175] getupval   14  10     
00BFA1  A2838000           [176] call       14  1   2  
00BFA5  98030000           [177] test       14      0    ; to [179] if true
00BFA9  1A400280           [178] jmp        10           ; to [189]
00BFAD  A483CB00           [179] self       14  1   302  ; -249861443
00BFB1  13048005           [180] getupval   16  11     
00BFB5  53040006           [181] getupval   17  12     
00BFB9  93048006           [182] getupval   18  13     
00BFBD  A2848000           [183] call       18  1   2  
00BFC1  D7040000           [184] loadbool   19  0   0    ; false
00BFC5  17058000           [185] loadbool   20  1   0    ; true
00BFC9  57050000           [186] loadbool   21  0   0    ; false
00BFCD  A2430004           [187] call       14  8   1  
00BFD1  1AC00180           [188] jmp        8            ; to [197]
00BFD5  A483CB00           [189] self       14  1   302  ; -249861443
00BFD9  13048005           [190] getupval   16  11     
00BFDD  53040006           [191] getupval   17  12     
00BFE1  99040300           [192] loadk      18  12       ; 0
00BFE5  D7040000           [193] loadbool   19  0   0    ; false
00BFE9  17058000           [194] loadbool   20  1   0    ; true
00BFED  57058000           [195] loadbool   21  1   0    ; true
00BFF1  A2430004           [196] call       14  8   1  
00BFF5  93030007           [197] getupval   14  14     
00BFF9  8EC34B07           [198] gettable   14  14  303  ; 1534343691
00BFFD  DD430400           [199] getglobal  15  17       ; -332969190
00C001  19040C00           [200] loadk      16  48       ; "RandomArtifactScript"
00C005  E2830001           [201] call       15  2   2  
00C009  17040000           [202] loadbool   16  0   0    ; false
00C00D  57048000           [203] loadbool   17  1   0    ; true
00C011  A2430002           [204] call       14  4   1  
00C015  A443CC00           [205] self       14  1   305  ; 719602438
00C019  A2430001           [206] call       14  2   1  
00C01D  93038003           [207] getupval   14  7      
00C021  8E834C07           [208] gettable   14  14  306  ; -694534839
00C025  D3038007           [209] getupval   15  15     
00C029  19040300           [210] loadk      16  12       ; 0
00C02D  A2438001           [211] call       14  3   1  
00C031  9DC30200           [212] getglobal  14  11       ; 538022378
00C035  D9430200           [213] loadk      15  9        ; 0
00C039  A2430001           [214] call       14  2   1  
00C03D  93030008           [215] getupval   14  16     
00C041  A2438000           [216] call       14  1   1  
00C045  1A000180           [217] jmp        5            ; to [223]
00C049  9DC30200           [218] getglobal  14  11       ; 538022378
00C04D  D9430200           [219] loadk      15  9        ; 0
00C051  A2430001           [220] call       14  2   1  
00C055  93038008           [221] getupval   14  17     
00C059  A2438000           [222] call       14  1   1  
00C05D  1E008000           [223] return     0   1      
                           * constants:
00C061  33                 sizek (51)
00C062  04                 const type 4
00C063  08                 string size (8)
00C064  67526567696F6E00   "gRegion\0"
                           const [0]: "gRegion"
00C06C  01                 const type 3
00C06D  90F9CED1           const [1]: (-774964848)
00C071  01                 const type 3
00C072  73290920           const [2]: (537471347)
00C076  01                 const type 3
00C077  6B25B193           const [3]: (-1817107093)
00C07B  04                 const type 4
00C07C  1A                 string size (26)
00C07D  537572766976616C+  "Survival"
00C085  3A20416C61726D20+  ": Alarm "
00C08D  7472696767657265+  "triggere"
00C095  6400               "d\0"
                           const [4]: "Survival: Alarm triggered"
00C097  01                 const type 3
00C098  6EDD1417           const [5]: (387243374)
00C09C  04                 const type 4
00C09D  0B                 string size (11)
00C09E  6747616D6552756C+  "gGameRul"
00C0A6  657300             "es\0"
                           const [6]: "gGameRules"
00C0A9  01                 const type 3
00C0AA  58F559A5           const [7]: (-1520831144)
00C0AE  01                 const type 3
00C0AF  DCCB15D0           const [8]: (-803877924)
00C0B3  03                 const type 3
00C0B4  0000803F           const [9]: (0)
00C0B8  01                 const type 3
00C0B9  65770E40           const [10]: (1074689893)
00C0BD  01                 const type 3
00C0BE  EA911120           const [11]: (538022378)
00C0C2  03                 const type 3
00C0C3  00000000           const [12]: (0)
00C0C7  01                 const type 3
00C0C8  7CABA71A           const [13]: (447196028)
00C0CC  04                 const type 4
00C0CD  0E                 string size (14)
00C0CE  674368616C6C656E+  "gChallen"
00C0D6  67654D677200       "geMgr\0"
                           const [14]: "gChallengeMgr"
00C0DC  01                 const type 3
00C0DD  DCD6FF64           const [15]: (1694488284)
00C0E1  01                 const type 3
00C0E2  1FFB20D4           const [16]: (-736036065)
00C0E6  01                 const type 3
00C0E7  1A4B27EC           const [17]: (-332969190)
00C0EB  04                 const type 4
00C0EC  0B                 string size (11)
00C0ED  5761746572537061+  "WaterSpa"
00C0F5  776E00             "wn\0"
                           const [18]: "WaterSpawn"
00C0F8  01                 const type 3
00C0F9  12066FA7           const [19]: (-1485896174)
00C0FD  01                 const type 3
00C0FE  0791B063           const [20]: (1672515847)
00C102  01                 const type 3
00C103  B786588D           const [21]: (-1923578185)
00C107  04                 const type 4
00C108  08                 string size (8)
00C109  44697361626C6500   "Disable\0"
                           const [22]: "Disable"
00C111  01                 const type 3
00C112  4A4D59FB           const [23]: (-78033590)
00C116  04                 const type 4
00C117  03                 string size (3)
00C118  5F5400             "_T\0"
                           const [24]: "_T"
00C11B  04                 const type 4
00C11C  17                 string size (23)
00C11D  4D697373696F6E54+  "MissionT"
00C125  72616E736D697373+  "ransmiss"
00C12D  696F6E53657400     "ionSet\0"
                           const [25]: "MissionTransmissionSet"
00C134  04                 const type 4
00C135  1B                 string size (27)
00C136  537572766976616C+  "Survival"
00C13E  4C69666553757070+  "LifeSupp"
00C146  6F72744375744B75+  "ortCutKu"
00C14E  766100             "va\0"
                           const [26]: "SurvivalLifeSupportCutKuva"
00C151  04                 const type 4
00C152  17                 string size (23)
00C153  757365496E666573+  "useInfes"
00C15B  746564466F674772+  "tedFogGr"
00C163  616469656E7400     "adient\0"
                           const [27]: "useInfestedFogGradient"
00C16A  04                 const type 4
00C16B  08                 string size (8)
00C16C  66616374696F6E00   "faction\0"
                           const [28]: "faction"
00C174  04                 const type 4
00C175  0C                 string size (12)
00C176  496E666573746174+  "Infestat"
00C17E  696F6E00           "ion\0"
                           const [29]: "Infestation"
00C182  04                 const type 4
00C183  1F                 string size (31)
00C184  537572766976616C+  "Survival"
00C18C  4C69666553757070+  "LifeSupp"
00C194  6F7274437574496E+  "ortCutIn"
00C19C  66657374656400     "fested\0"
                           const [30]: "SurvivalLifeSupportCutInfested"
00C1A3  04                 const type 4
00C1A4  17                 string size (23)
00C1A5  537572766976616C+  "Survival"
00C1AD  4C69666553757070+  "LifeSupp"
00C1B5  6F727443757400     "ortCut\0"
                           const [31]: "SurvivalLifeSupportCut"
00C1BC  04                 const type 4
00C1BD  14                 string size (20)
00C1BE  6753757276697661+  "gSurviva"
00C1C6  6C52657761726453+  "lRewardS"
00C1CE  65656400           "eed\0"
                           const [32]: "gSurvivalRewardSeed"
00C1D2  01                 const type 3
00C1D3  3213ABDE           const [33]: (-559213774)
00C1D7  01                 const type 3
00C1D8  5654C1E3           const [34]: (-473869226)
00C1DC  01                 const type 3
00C1DD  86CE0987           const [35]: (-2029400442)
00C1E1  04                 const type 4
00C1E2  0E                 string size (14)
00C1E3  4164644875645472+  "AddHudTr"
00C1EB  61636B657200       "acker\0"
                           const [36]: "AddHudTracker"
00C1F1  00                 const type 0
                           const [37]: nil
00C1F2  04                 const type 4
00C1F3  0F                 string size (15)
00C1F4  4C69666553757070+  "LifeSupp"
00C1FC  6F727442617200     "ortBar\0"
                           const [38]: "LifeSupportBar"
00C203  01                 const type 3
00C204  524FAEBF           const [39]: (-1079095470)
00C208  03                 const type 3
00C209  0000C842           const [40]: (0)
00C20D  04                 const type 4
00C20E  1F                 string size (31)
00C20F  737572766976616C+  "survival"
00C217  42726F6164636173+  "Broadcas"
00C21F  744F626A65637469+  "tObjecti"
00C227  766549636F6E00     "veIcon\0"
                           const [41]: "survivalBroadcastObjectiveIcon"
00C22E  04                 const type 4
00C22F  28                 string size (40)
00C230  537572766976616C+  "Survival"
00C238  3A2057616974696E+  ": Waitin"
00C240  6720666F72206875+  "g for hu"
00C248  6420746F20626520+  "d to be "
00C250  61207468696E6700   "a thing\0"
                           const [42]: "Survival: Waiting for hud to be a thing"
00C258  03                 const type 3
00C259  CDCCCC3D           const [43]: (-51)
00C25D  04                 const type 4
00C25E  0F                 string size (15)
00C25F  416C61726D4F626A+  "AlarmObj"
00C267  4D61726B657200     "Marker\0"
                           const [44]: "AlarmObjMarker"
00C26E  01                 const type 3
00C26F  2F27B12D           const [45]: (766584623)
00C273  01                 const type 3
00C274  BD6A1BF1           const [46]: (-249861443)
00C278  01                 const type 3
00C279  0B3A745B           const [47]: (1534343691)
00C27D  04                 const type 4
00C27E  15                 string size (21)
00C27F  52616E646F6D4172+  "RandomAr"
00C287  7469666163745363+  "tifactSc"
00C28F  7269707400         "ript\0"
                           const [48]: "RandomArtifactScript"
00C294  01                 const type 3
00C295  0643E42A           const [49]: (719602438)
00C299  01                 const type 3
00C29A  493D9AD6           const [50]: (-694534839)
                           * functions:
00C29E  00                 sizep (0)
                           * lines:
00C2A0  01                 sizelineinfo (223)
                           [pc] (line)
00C2A1  DE                 [001] (-34)
00C2A2  07                 [002] (-34)
00C2A3  00                 [003] (-34)
00C2A4  00                 [004] (-34)
00C2A5  DE                 [005] (-34)
00C2A6  07                 [006] (-33)
00C2A7  00                 [007] (-33)
00C2A8  00                 [008] (-33)
00C2A9  DE                 [009] (-31)
00C2AA  07                 [010] (-31)
00C2AB  00                 [011] (-31)
00C2AC  00                 [012] (-29)
00C2AD  DE                 [013] (-28)
00C2AE  07                 [014] (-28)
00C2AF  00                 [015] (-28)
00C2B0  00                 [016] (-28)
00C2B1  DE                 [017] (-28)
00C2B2  07                 [018] (-27)
00C2B3  00                 [019] (-27)
00C2B4  00                 [020] (-27)
00C2B5  DF                 [021] (-27)
00C2B6  07                 [022] (-26)
00C2B7  00                 [023] (-26)
00C2B8  00                 [024] (-26)
00C2B9  DF                 [025] (-26)
00C2BA  07                 [026] (-26)
00C2BB  00                 [027] (-24)
00C2BC  00                 [028] (-24)
00C2BD  DF                 [029] (-24)
00C2BE  07                 [030] (-24)
00C2BF  00                 [031] (-24)
00C2C0  00                 [032] (-22)
00C2C1  E1                 [033] (-22)
00C2C2  07                 [034] (-22)
00C2C3  00                 [035] (-21)
00C2C4  00                 [036] (-21)
00C2C5  E1                 [037] (-17)
00C2C6  07                 [038] (-17)
00C2C7  00                 [039] (-17)
00C2C8  00                 [040] (-17)
00C2C9  E1                 [041] (-16)
00C2CA  07                 [042] (-16)
00C2CB  00                 [043] (-16)
00C2CC  00                 [044] (-12)
00C2CD  E3                 [045] (-12)
00C2CE  07                 [046] (-12)
00C2CF  00                 [047] (-12)
00C2D0  00                 [048] (-10)
00C2D1  E4                 [049] (-10)
00C2D2  07                 [050] (-10)
00C2D3  00                 [051] (-10)
00C2D4  00                 [052] (-10)
00C2D5  E4                 [053] (-9)
00C2D6  07                 [054] (-9)
00C2D7  00                 [055] (-9)
00C2D8  00                 [056] (-9)
00C2D9  E4                 [057] (-9)
00C2DA  07                 [058] (-9)
00C2DB  00                 [059] (-8)
00C2DC  00                 [060] (-8)
00C2DD  E4                 [061] (-8)
00C2DE  07                 [062] (-8)
00C2DF  00                 [063] (-7)
00C2E0  00                 [064] (-7)
00C2E1  E4                 [065] (-7)
00C2E2  07                 [066] (-8)
00C2E3  00                 [067] (-7)
00C2E4  00                 [068] (-3)
00C2E5  E5                 [069] (-3)
00C2E6  07                 [070] (-3)
00C2E7  00                 [071] (-3)
00C2E8  00                 [072] (-2)
00C2E9  E5                 [073] (-2)
00C2EA  07                 [074] (-2)
00C2EB  00                 [075] (-2)
00C2EC  00                 [076] (-2)
00C2ED  E5                 [077] (-2)
00C2EE  07                 [078] (-2)
00C2EF  00                 [079] (-2)
00C2F0  00                 [080] (-2)
00C2F1  E5                 [081] (-2)
00C2F2  07                 [082] (-1)
00C2F3  00                 [083] (-1)
00C2F4  00                 [084] (-1)
00C2F5  E6                 [085] (-1)
00C2F6  07                 [086] (-1)
00C2F7  00                 [087] (-1)
00C2F8  00                 [088] (-1)
00C2F9  E6                 [089] (-1)
00C2FA  07                 [090] (-1)
00C2FB  00                 [091] (-1)
00C2FC  00                 [092] (0)
00C2FD  E6                 [093] (0)
00C2FE  07                 [094] (0)
00C2FF  00                 [095] (0)
00C300  00                 [096] (0)
00C301  E6                 [097] (0)
00C302  07                 [098] (0)
00C303  00                 [099] (0)
00C304  00                 [100] (0)
00C305  E6                 [101] (0)
00C306  07                 [102] (2)
00C307  00                 [103] (2)
00C308  00                 [104] (2)
00C309  E8                 [105] (2)
00C30A  07                 [106] (2)
00C30B  00                 [107] (2)
00C30C  00                 [108] (2)
00C30D  E8                 [109] (2)
00C30E  07                 [110] (2)
00C30F  00                 [111] (5)
00C310  00                 [112] (5)
00C311  E8                 [113] (5)
00C312  07                 [114] (5)
00C313  00                 [115] (7)
00C314  00                 [116] (7)
00C315  E8                 [117] (7)
00C316  07                 [118] (9)
00C317  00                 [119] (9)
00C318  00                 [120] (9)
00C319  E8                 [121] (12)
00C31A  07                 [122] (15)
00C31B  00                 [123] (15)
00C31C  00                 [124] (16)
00C31D  EA                 [125] (16)
00C31E  07                 [126] (16)
00C31F  00                 [127] (16)
00C320  00                 [128] (16)
00C321  EA                 [129] (16)
00C322  07                 [130] (16)
00C323  00                 [131] (16)
00C324  00                 [132] (16)
00C325  EA                 [133] (17)
00C326  07                 [134] (17)
00C327  00                 [135] (17)
00C328  00                 [136] (17)
00C329  EB                 [137] (17)
00C32A  07                 [138] (17)
00C32B  00                 [139] (18)
00C32C  00                 [140] (18)
00C32D  EB                 [141] (18)
00C32E  07                 [142] (18)
00C32F  00                 [143] (18)
00C330  00                 [144] (18)
00C331  EF                 [145] (18)
00C332  07                 [146] (18)
00C333  00                 [147] (22)
00C334  00                 [148] (22)
00C335  EF                 [149] (24)
00C336  07                 [150] (24)
00C337  00                 [151] (24)
00C338  00                 [152] (25)
00C339  EF                 [153] (25)
00C33A  07                 [154] (25)
00C33B  00                 [155] (26)
00C33C  00                 [156] (29)
00C33D  EF                 [157] (29)
00C33E  07                 [158] (29)
00C33F  00                 [159] (29)
00C340  00                 [160] (29)
00C341  F0                 [161] (30)
00C342  07                 [162] (30)
00C343  00                 [163] (30)
00C344  00                 [164] (30)
00C345  F0                 [165] (30)
00C346  07                 [166] (30)
00C347  00                 [167] (31)
00C348  00                 [168] (31)
00C349  F0                 [169] (31)
00C34A  07                 [170] (31)
00C34B  00                 [171] (32)
00C34C  00                 [172] (32)
00C34D  F4                 [173] (32)
00C34E  07                 [174] (31)
00C34F  00                 [175] (35)
00C350  00                 [176] (35)
00C351  F4                 [177] (35)
00C352  07                 [178] (35)
00C353  00                 [179] (36)
00C354  00                 [180] (36)
00C355  F4                 [181] (36)
00C356  07                 [182] (36)
00C357  00                 [183] (36)
00C358  00                 [184] (36)
00C359  F4                 [185] (36)
00C35A  07                 [186] (36)
00C35B  00                 [187] (36)
00C35C  00                 [188] (36)
00C35D  F6                 [189] (38)
00C35E  07                 [190] (38)
00C35F  00                 [191] (38)
00C360  00                 [192] (38)
00C361  F6                 [193] (38)
00C362  07                 [194] (38)
00C363  00                 [195] (38)
00C364  00                 [196] (38)
00C365  F6                 [197] (40)
00C366  07                 [198] (40)
00C367  00                 [199] (40)
00C368  00                 [200] (40)
00C369  F6                 [201] (40)
00C36A  07                 [202] (40)
00C36B  00                 [203] (40)
00C36C  00                 [204] (40)
00C36D  F6                 [205] (41)
00C36E  07                 [206] (41)
00C36F  00                 [207] (42)
00C370  00                 [208] (42)
00C371  F7                 [209] (42)
00C372  07                 [210] (42)
00C373  00                 [211] (42)
00C374  00                 [212] (43)
00C375  F7                 [213] (43)
00C376  07                 [214] (43)
00C377  00                 [215] (44)
00C378  00                 [216] (44)
00C379  F7                 [217] (44)
00C37A  07                 [218] (46)
00C37B  00                 [219] (46)
00C37C  00                 [220] (46)
00C37D  F7                 [221] (47)
00C37E  07                 [222] (47)
00C37F  00                 [223] (49)
                           * locals:
00C61D  00                 sizelocvars (0)
                           * upvalues:
00C61E  00                 sizeupvalues (0)
                           ** end of function **

                           
00C61F                     ** function [48] definition (level 2)
                           ** start of function **
00C61F  00                 string size (0)
                           source name: (none)
00C621  10                 line defined (2099)
00C622  E0                 last line defined (2144)
00C623  10                 nups (1)
00C624  01                 numparams (3)
00C625  03                 is_vararg (0)
00C626  00                 maxstacksize (16)
                           * code:
00C628  69                 sizecode (105)
00C629  DD000000           [001] getglobal  3   0        ; gRegion
00C62D  E440C001           [002] self       3   3   257  ; -1485896174
00C631  5D810000           [003] getglobal  5   2        ; -332969190
00C635  99C10000           [004] loadk      6   3        ; "DoorHint"
00C639  62010001           [005] call       5   2   0  
00C63D  E2800000           [006] call       3   0   2  
00C641  1D010100           [007] getglobal  4   4        ; 1074689893
00C645  52010000           [008] move       5   0      
00C649  22810001           [009] call       4   2   2  
00C64D  18010000           [010] test       4       0    ; to [12] if true
00C651  1A000080           [011] jmp        1            ; to [13]
00C655  1E008000           [012] return     0   1      
00C659  1D010100           [013] getglobal  4   4        ; 1074689893
00C65D  64414100           [014] self       5   0   261  ; -1411785325
00C661  62010001           [015] call       5   2   0  
00C665  22810000           [016] call       4   0   2  
00C669  18410000           [017] test       4       1    ; to [19] if false
00C66D  1A000080           [018] jmp        1            ; to [20]
00C671  59800100           [019] loadk      1   6        ; 0
fail op	35
00C675  23C0C100           [020] close      0  
00C679  1A000080           [021] jmp        1            ; to [23]
00C67D  59800100           [022] loadk      1   6        ; 0
fail op	35
00C681  2380C100           [023] close      0  
00C685  1AC01380           [024] jmp        80           ; to [105]
00C689  13010000           [025] getupval   4   0      
00C68D  0E014202           [026] gettable   4   4   264  ; 1534343691
00C691  5D810000           [027] getglobal  5   2        ; -332969190
00C695  99410200           [028] loadk      6   9        ; "StartSurvival"
00C699  62810001           [029] call       5   2   2  
00C69D  97010000           [030] loadbool   6   0   0    ; false
00C6A1  D7018000           [031] loadbool   7   1   0    ; true
00C6A5  22410002           [032] call       4   4   1  
00C6A9  1D010100           [033] getglobal  4   4        ; 1074689893
00C6AD  5D810200           [034] getglobal  5   10       ; alarmDeco
00C6B1  22810001           [035] call       4   2   2  
00C6B5  18410000           [036] test       4       1    ; to [38] if false
00C6B9  1A000480           [037] jmp        17           ; to [55]
00C6BD  1D010100           [038] getglobal  4   4        ; 1074689893
00C6C1  5DC10200           [039] getglobal  5   11       ; alarmMaterialSwap
00C6C5  22810001           [040] call       4   2   2  
00C6C9  18410000           [041] test       4       1    ; to [43] if false
00C6CD  1A000180           [042] jmp        5            ; to [48]
00C6D1  1D810200           [043] getglobal  4   10       ; alarmDeco
00C6D5  24014302           [044] self       4   4   268  ; 1728877662
00C6D9  9D410300           [045] getglobal  6   13       ; alarmMaterialSlot
00C6DD  DDC10200           [046] getglobal  7   11       ; alarmMaterialSwap
00C6E1  22410002           [047] call       4   4   1  
00C6E5  1D810200           [048] getglobal  4   10       ; alarmDeco
00C6E9  24814302           [049] self       4   4   270  ; 630793108
00C6ED  9DC10300           [050] getglobal  6   15       ; alarmSound
00C6F1  D7010000           [051] loadbool   7   0   0    ; false
00C6F5  19020400           [052] loadk      8   16       ; 0
00C6F9  57028000           [053] loadbool   9   1   0    ; true
00C6FD  22410003           [054] call       4   6   1  
00C701  24414401           [055] self       4   2   273  ; -1923578185
00C705  99810400           [056] loadk      6   18       ; "Disable"
00C709  22418001           [057] call       4   3   1  
00C70D  1D010100           [058] getglobal  4   4        ; 1074689893
00C711  5DC10400           [059] getglobal  5   19       ; alarmMarker
00C715  22810001           [060] call       4   2   2  
00C719  18410000           [061] test       4       1    ; to [63] if false
00C71D  1AC00080           [062] jmp        4            ; to [67]
00C721  1DC10400           [063] getglobal  4   19       ; alarmMarker
00C725  24414402           [064] self       4   4   273  ; -1923578185
00C729  99810400           [065] loadk      6   18       ; "Disable"
00C72D  22418001           [066] call       4   3   1  
00C731  1D010100           [067] getglobal  4   4        ; 1074689893
00C735  5D010500           [068] getglobal  5   20       ; alarmLight
00C739  22810001           [069] call       4   2   2  
00C73D  18410000           [070] test       4       1    ; to [72] if false
00C741  1AC00080           [071] jmp        4            ; to [76]
00C745  1D010500           [072] getglobal  4   20       ; alarmLight
00C749  24414402           [073] self       4   4   273  ; -1923578185
00C74D  99410500           [074] loadk      6   21       ; "TurnOff"
00C751  22418001           [075] call       4   3   1  
00C755  1D010100           [076] getglobal  4   4        ; 1074689893
00C759  52018001           [077] move       5   3      
00C75D  22810001           [078] call       4   2   2  
00C761  18410000           [079] test       4       1    ; to [81] if false
00C765  1A000280           [080] jmp        9            ; to [90]
00C769  19810100           [081] loadk      4   6        ; 0
00C76D  4A018001           [082] len        5   3      
00C771  99810100           [083] loadk      6   6        ; 0
00C775  10C10080           [084] forprep    4   4        ; to [89]
00C779  0EC28101           [085] gettable   8   3   7  
00C77D  24424404           [086] self       8   8   273  ; -1923578185
00C781  99820500           [087] loadk      10  22       ; "Unlock"
00C785  22428001           [088] call       8   3   1  
00C789  1481FE7F           [089] forloop    4   -5       ; to [85] if loop
00C78D  1D020000           [090] getglobal  8   0        ; gRegion
00C791  24424004           [091] self       8   8   257  ; -1485896174
00C795  9D820000           [092] getglobal  10  2        ; -332969190
00C799  D9C20500           [093] loadk      11  23       ; "SurvivalDoor"
00C79D  A2020001           [094] call       10  2   0  
00C7A1  22820000           [095] call       8   0   2  
00C7A5  59820100           [096] loadk      9   6        ; 0
00C7A9  8A020004           [097] len        10  8      
00C7AD  D9820100           [098] loadk      11  6        ; 0
00C7B1  50C20080           [099] forprep    9   4        ; to [104]
00C7B5  4E030304           [100] gettable   13  8   12 
00C7B9  6443C406           [101] self       13  13  273  ; -1923578185
00C7BD  D9030600           [102] loadk      15  24       ; "Start"
00C7C1  62438001           [103] call       13  3   1  
00C7C5  5482FE7F           [104] forloop    9   -5       ; to [100] if loop
00C7C9  1E008000           [105] return     0   1      
                           * constants:
00C7CD  19                 sizek (25)
00C7CE  04                 const type 4
00C7CF  08                 string size (8)
00C7D0  67526567696F6E00   "gRegion\0"
                           const [0]: "gRegion"
00C7D8  01                 const type 3
00C7D9  12066FA7           const [1]: (-1485896174)
00C7DD  01                 const type 3
00C7DE  1A4B27EC           const [2]: (-332969190)
00C7E2  04                 const type 4
00C7E3  09                 string size (9)
00C7E4  446F6F7248696E74+  "DoorHint"
00C7EC  00                 "\0"
                           const [3]: "DoorHint"
00C7ED  01                 const type 3
00C7EE  65770E40           const [4]: (1074689893)
00C7F2  01                 const type 3
00C7F3  93DDD9AB           const [5]: (-1411785325)
00C7F7  03                 const type 3
00C7F8  0000803F           const [6]: (0)
00C7FC  00                 const type 0
                           const [7]: nil
00C7FD  01                 const type 3
00C7FE  0B3A745B           const [8]: (1534343691)
00C802  04                 const type 4
00C803  0E                 string size (14)
00C804  5374617274537572+  "StartSur"
00C80C  766976616C00       "vival\0"
                           const [9]: "StartSurvival"
00C812  04                 const type 4
00C813  0A                 string size (10)
00C814  616C61726D446563+  "alarmDec"
00C81C  6F00               "o\0"
                           const [10]: "alarmDeco"
00C81E  04                 const type 4
00C81F  12                 string size (18)
00C820  616C61726D4D6174+  "alarmMat"
00C828  657269616C537761+  "erialSwa"
00C830  7000               "p\0"
                           const [11]: "alarmMaterialSwap"
00C832  01                 const type 3
00C833  5E940C67           const [12]: (1728877662)
00C837  04                 const type 4
00C838  12                 string size (18)
00C839  616C61726D4D6174+  "alarmMat"
00C841  657269616C536C6F+  "erialSlo"
00C849  7400               "t\0"
                           const [13]: "alarmMaterialSlot"
00C84B  01                 const type 3
00C84C  94239925           const [14]: (630793108)
00C850  04                 const type 4
00C851  0B                 string size (11)
00C852  616C61726D536F75+  "alarmSou"
00C85A  6E6400             "nd\0"
                           const [15]: "alarmSound"
00C85D  03                 const type 3
00C85E  00000000           const [16]: (0)
00C862  01                 const type 3
00C863  B786588D           const [17]: (-1923578185)
00C867  04                 const type 4
00C868  08                 string size (8)
00C869  44697361626C6500   "Disable\0"
                           const [18]: "Disable"
00C871  04                 const type 4
00C872  0C                 string size (12)
00C873  616C61726D4D6172+  "alarmMar"
00C87B  6B657200           "ker\0"
                           const [19]: "alarmMarker"
00C87F  04                 const type 4
00C880  0B                 string size (11)
00C881  616C61726D4C6967+  "alarmLig"
00C889  687400             "ht\0"
                           const [20]: "alarmLight"
00C88C  04                 const type 4
00C88D  08                 string size (8)
00C88E  5475726E4F666600   "TurnOff\0"
                           const [21]: "TurnOff"
00C896  04                 const type 4
00C897  07                 string size (7)
00C898  556E6C6F636B00     "Unlock\0"
                           const [22]: "Unlock"
00C89F  04                 const type 4
00C8A0  0D                 string size (13)
00C8A1  537572766976616C+  "Survival"
00C8A9  446F6F7200         "Door\0"
                           const [23]: "SurvivalDoor"
00C8AE  04                 const type 4
00C8AF  06                 string size (6)
00C8B0  537461727400       "Start\0"
                           const [24]: "Start"
                           * functions:
00C8B6  00                 sizep (0)
                           * lines:
00C8B7  69                 sizelineinfo (105)
                           [pc] (line)
00C8B8  35                 [001] (53)
00C8B9  08                 [002] (53)
00C8BA  00                 [003] (53)
00C8BB  00                 [004] (53)
00C8BC  35                 [005] (53)
00C8BD  08                 [006] (53)
00C8BE  00                 [007] (55)
00C8BF  00                 [008] (55)
00C8C0  35                 [009] (55)
00C8C1  08                 [010] (55)
00C8C2  00                 [011] (55)
00C8C3  00                 [012] (56)
00C8C4  35                 [013] (59)
00C8C5  08                 [014] (59)
00C8C6  00                 [015] (59)
00C8C7  00                 [016] (59)
00C8C8  35                 [017] (59)
00C8C9  08                 [018] (59)
00C8CA  00                 [019] (60)
00C8CB  00                 [020] (63)
00C8CC  35                 [021] (63)
00C8CD  08                 [022] (64)
00C8CE  00                 [023] (67)
00C8CF  00                 [024] (67)
00C8D0  37                 [025] (68)
00C8D1  08                 [026] (68)
00C8D2  00                 [027] (68)
00C8D3  00                 [028] (68)
00C8D4  37                 [029] (68)
00C8D5  08                 [030] (68)
00C8D6  00                 [031] (68)
00C8D7  00                 [032] (68)
00C8D8  37                 [033] (69)
00C8D9  08                 [034] (69)
00C8DA  00                 [035] (69)
00C8DB  00                 [036] (69)
00C8DC  37                 [037] (69)
00C8DD  08                 [038] (70)
00C8DE  00                 [039] (70)
00C8DF  00                 [040] (70)
00C8E0  37                 [041] (70)
00C8E1  08                 [042] (70)
00C8E2  00                 [043] (71)
00C8E3  00                 [044] (71)
00C8E4  38                 [045] (71)
00C8E5  08                 [046] (71)
00C8E6  00                 [047] (71)
00C8E7  00                 [048] (73)
00C8E8  3B                 [049] (73)
00C8E9  08                 [050] (73)
00C8EA  00                 [051] (73)
00C8EB  00                 [052] (73)
00C8EC  3B                 [053] (73)
00C8ED  08                 [054] (73)
00C8EE  00                 [055] (75)
00C8EF  00                 [056] (75)
00C8F0  3B                 [057] (75)
00C8F1  08                 [058] (76)
00C8F2  00                 [059] (76)
00C8F3  00                 [060] (76)
00C8F4  3B                 [061] (76)
00C8F5  08                 [062] (76)
00C8F6  00                 [063] (77)
00C8F7  00                 [064] (77)
00C8F8  3B                 [065] (77)
00C8F9  08                 [066] (77)
00C8FA  00                 [067] (79)
00C8FB  00                 [068] (79)
00C8FC  3B                 [069] (79)
00C8FD  08                 [070] (79)
00C8FE  00                 [071] (79)
00C8FF  00                 [072] (80)
00C900  3C                 [073] (80)
00C901  08                 [074] (80)
00C902  00                 [075] (80)
00C903  00                 [076] (83)
00C904  3F                 [077] (83)
00C905  08                 [078] (83)
00C906  00                 [079] (83)
00C907  00                 [080] (83)
00C908  3F                 [081] (84)
00C909  08                 [082] (84)
00C90A  00                 [083] (84)
00C90B  00                 [084] (84)
00C90C  40                 [085] (85)
00C90D  08                 [086] (85)
00C90E  00                 [087] (85)
00C90F  00                 [088] (85)
00C910  43                 [089] (84)
00C911  08                 [090] (89)
00C912  00                 [091] (89)
00C913  00                 [092] (89)
00C914  43                 [093] (89)
00C915  08                 [094] (89)
00C916  00                 [095] (89)
00C917  00                 [096] (90)
00C918  44                 [097] (90)
00C919  08                 [098] (90)
00C91A  00                 [099] (90)
00C91B  00                 [100] (91)
00C91C  44                 [101] (91)
00C91D  08                 [102] (91)
00C91E  00                 [103] (91)
00C91F  00                 [104] (90)
00C920  44                 [105] (96)
                           * locals:
00CA5C  00                 sizelocvars (0)
                           * upvalues:
00CA5D  00                 sizeupvalues (0)
                           ** end of function **

                           
00CA5E                     ** function [49] definition (level 2)
                           ** start of function **
00CA5E  00                 string size (0)
                           source name: (none)
00CA60  10                 line defined (2146)
00CA61  FE                 last line defined (2174)
00CA62  10                 nups (0)
00CA63  00                 numparams (0)
00CA64  00                 is_vararg (0)
00CA65  00                 maxstacksize (14)
                           * code:
00CA67  41                 sizecode (65)
00CA68  1D000000           [01] getglobal  0   0        ; gRegion
00CA6C  24404000           [02] self       0   0   257  ; -2071158816
00CA70  22800001           [03] call       0   2   2  
00CA74  46008000           [04] loadnil    1   1      
00CA78  99800000           [05] loadk      2   2        ; 0
00CA7C  CA000000           [06] len        3   0      
00CA80  19810000           [07] loadk      4   2        ; 0
00CA84  90C00280           [08] forprep    2   12       ; to [21]
00CA88  9DC10000           [09] getglobal  6   3        ; 1074689893
00CA8C  CE410100           [10] gettable   7   0   5  
00CA90  A2810001           [11] call       6   2   2  
00CA94  98410000           [12] test       6       1    ; to [14] if false
00CA98  1A800180           [13] jmp        7            ; to [21]
00CA9C  8E410100           [14] gettable   6   0   5  
00CAA0  A4014103           [15] self       6   6   260  ; 1511086594
00CAA4  A2810001           [16] call       6   2   2  
00CAA8  98410000           [17] test       6       1    ; to [19] if false
00CAAC  1A400080           [18] jmp        2            ; to [21]
00CAB0  4E400100           [19] gettable   1   0   5  
00CAB4  1A000080           [20] jmp        1            ; to [22]
00CAB8  9480FC7F           [21] forloop    2   -13      ; to [9] if loop
00CABC  9DC10000           [22] getglobal  6   3        ; 1074689893
00CAC0  D2018000           [23] move       7   1      
00CAC4  A2810001           [24] call       6   2   2  
00CAC8  98010000           [25] test       6       0    ; to [27] if true
00CACC  1A400080           [26] jmp        2            ; to [29]
00CAD0  97010000           [27] loadbool   6   0   0    ; false
00CAD4  9E010001           [28] return     6   2      
00CAD8  9D010000           [29] getglobal  6   0        ; gRegion
00CADC  A4414103           [30] self       6   6   261  ; 152279552
00CAE0  1D820100           [31] getglobal  8   6        ; 738251817
00CAE4  59C20100           [32] loadk      9   7        ; "/Lotus/Types/Actions/SurvivalHackAction"
00CAE8  22020001           [33] call       8   2   0  
00CAEC  A2810000           [34] call       6   0   2  
00CAF0  D9810000           [35] loadk      7   2        ; 0
00CAF4  0A020003           [36] len        8   6      
00CAF8  59820000           [37] loadk      9   2        ; 0
00CAFC  D0810580           [38] forprep    7   23       ; to [62]
00CB00  DDC20000           [39] getglobal  11  3        ; 1074689893
00CB04  0E830203           [40] gettable   12  6   10 
00CB08  E2820001           [41] call       11  2   2  
00CB0C  D8420000           [42] test       11      1    ; to [44] if false
00CB10  1A400480           [43] jmp        18           ; to [62]
00CB14  CE820203           [44] gettable   11  6   10 
00CB18  E402C205           [45] self       11  11  264  ; -1318948062
00CB1C  E2820001           [46] call       11  2   2  
00CB20  D8020000           [47] test       11      0    ; to [49] if true
00CB24  1A000380           [48] jmp        13           ; to [62]
00CB28  CE820203           [49] gettable   11  6   10 
00CB2C  E442C205           [50] self       11  11  265  ; -1499772696
00CB30  59830000           [51] loadk      13  2        ; 0
00CB34  E2428001           [52] call       11  3   1  
00CB38  CE820203           [53] gettable   11  6   10 
00CB3C  E482C205           [54] self       11  11  266  ; 112381581
00CB40  52038000           [55] move       13  1      
00CB44  E2428001           [56] call       11  3   1  
00CB48  CE820203           [57] gettable   11  6   10 
00CB4C  E4C2C205           [58] self       11  11  267  ; 766584623
00CB50  E2420001           [59] call       11  2   1  
00CB54  D7028000           [60] loadbool   11  1   0    ; true
00CB58  DE020001           [61] return     11  2      
00CB5C  D4C1F97F           [62] forloop    7   -24      ; to [39] if loop
00CB60  D7020000           [63] loadbool   11  0   0    ; false
00CB64  DE020001           [64] return     11  2      
00CB68  1E008000           [65] return     0   1      
                           * constants:
00CB6C  0C                 sizek (12)
00CB6D  04                 const type 4
00CB6E  08                 string size (8)
00CB6F  67526567696F6E00   "gRegion\0"
                           const [0]: "gRegion"
00CB77  01                 const type 3
00CB78  E09F8C84           const [1]: (-2071158816)
00CB7C  03                 const type 3
00CB7D  0000803F           const [2]: (0)
00CB81  01                 const type 3
00CB82  65770E40           const [3]: (1074689893)
00CB86  01                 const type 3
00CB87  025A115A           const [4]: (1511086594)
00CB8B  01                 const type 3
00CB8C  009A1309           const [5]: (152279552)
00CB90  01                 const type 3
00CB91  29D4002C           const [6]: (738251817)
00CB95  04                 const type 4
00CB96  28                 string size (40)
00CB97  2F4C6F7475732F54+  "/Lotus/T"
00CB9F  797065732F416374+  "ypes/Act"
00CBA7  696F6E732F537572+  "ions/Sur"
00CBAF  766976616C486163+  "vivalHac"
00CBB7  6B416374696F6E00   "kAction\0"
                           const [7]: "/Lotus/Types/Actions/SurvivalHackAction"
00CBBF  01                 const type 3
00CBC0  227362B1           const [8]: (-1318948062)
00CBC4  01                 const type 3
00CBC5  E8489BA6           const [9]: (-1499772696)
00CBC9  01                 const type 3
00CBCA  8DCEB206           const [10]: (112381581)
00CBCE  01                 const type 3
00CBCF  2F27B12D           const [11]: (766584623)
                           * functions:
00CBD3  00                 sizep (0)
                           * lines:
00CBD4  41                 sizelineinfo (65)
                           [pc] (line)
00CBD5  63                 [01] (99)
00CBD6  08                 [02] (99)
00CBD7  00                 [03] (99)
00CBD8  00                 [04] (101)
00CBD9  63                 [05] (103)
00CBDA  08                 [06] (103)
00CBDB  00                 [07] (103)
00CBDC  00                 [08] (103)
00CBDD  63                 [09] (104)
00CBDE  08                 [10] (104)
00CBDF  00                 [11] (104)
00CBE0  00                 [12] (104)
00CBE1  65                 [13] (104)
00CBE2  08                 [14] (104)
00CBE3  00                 [15] (104)
00CBE4  00                 [16] (104)
00CBE5  67                 [17] (104)
00CBE6  08                 [18] (104)
00CBE7  00                 [19] (105)
00CBE8  00                 [20] (106)
00CBE9  67                 [21] (103)
00CBEA  08                 [22] (110)
00CBEB  00                 [23] (110)
00CBEC  00                 [24] (110)
00CBED  67                 [25] (110)
00CBEE  08                 [26] (110)
00CBEF  00                 [27] (111)
00CBF0  00                 [28] (111)
00CBF1  67                 [29] (114)
00CBF2  08                 [30] (114)
00CBF3  00                 [31] (114)
00CBF4  00                 [32] (114)
00CBF5  68                 [33] (114)
00CBF6  08                 [34] (114)
00CBF7  00                 [35] (116)
00CBF8  00                 [36] (116)
00CBF9  68                 [37] (116)
00CBFA  08                 [38] (116)
00CBFB  00                 [39] (117)
00CBFC  00                 [40] (117)
00CBFD  68                 [41] (117)
00CBFE  08                 [42] (117)
00CBFF  00                 [43] (117)
00CC00  00                 [44] (117)
00CC01  68                 [45] (117)
00CC02  08                 [46] (117)
00CC03  00                 [47] (117)
00CC04  00                 [48] (117)
00CC05  68                 [49] (118)
00CC06  08                 [50] (118)
00CC07  00                 [51] (118)
00CC08  00                 [52] (118)
00CC09  68                 [53] (119)
00CC0A  08                 [54] (119)
00CC0B  00                 [55] (119)
00CC0C  00                 [56] (119)
00CC0D  68                 [57] (120)
00CC0E  08                 [58] (120)
00CC0F  00                 [59] (120)
00CC10  00                 [60] (121)
00CC11  68                 [61] (121)
00CC12  08                 [62] (116)
00CC13  00                 [63] (125)
00CC14  00                 [64] (125)
00CC15  68                 [65] (126)
                           * locals:
00CCD9  00                 sizelocvars (0)
                           * upvalues:
00CCDA  00                 sizeupvalues (0)
                           ** end of function **

                           
00CCDB                     ** function [50] definition (level 2)
                           ** start of function **
00CCDB  00                 string size (0)
                           source name: (none)
00CCDD  11                 line defined (2176)
00CCDE  9E                 last line defined (2334)
00CCDF  12                 nups (16)
00CCE0  10                 numparams (1)
00CCE1  01                 is_vararg (0)
00CCE2  00                 maxstacksize (52)
                           * code:
00CCE5  02                 sizecode (378)
00CCE6  5D000000           [001] getglobal  1   0        ; _T
00CCEA  4C80C080           [002] settable   1   257 258  ; "AllowWrinkles" 0
00CCEE  5D000000           [003] getglobal  1   0        ; _T
00CCF2  4C00C181           [004] settable   1   259 260  ; "gSkipExtractionTimer" 1
00CCF6  5D400100           [005] getglobal  1   5        ; gPromotedToHost
00CCFA  58000000           [006] test       1       0    ; to [8] if true
00CCFE  1A000080           [007] jmp        1            ; to [9]
00CD02  1E008000           [008] return     0   1      
00CD06  5D800100           [009] getglobal  1   6        ; -1817107093
00CD0A  99C00100           [010] loadk      2   7        ; "Survival: Mission started"
00CD0E  62400001           [011] call       1   2   1  
00CD12  5D000200           [012] getglobal  1   8        ; gRegion
00CD16  6440C200           [013] self       1   1   265  ; -1520831144
00CD1A  62800001           [014] call       1   2   2  
00CD1E  58000000           [015] test       1       0    ; to [17] if true
00CD22  1AC05680           [016] jmp        348          ; to [365]
00CD26  53000000           [017] getupval   1   0      
00CD2A  62808000           [018] call       1   1   2  
00CD2E  93008000           [019] getupval   2   1      
00CD32  A2808000           [020] call       2   1   2  
00CD36  D3000001           [021] getupval   3   2      
00CD3A  CE80C201           [022] gettable   3   3   266  ; 1381354263
00CD3E  1DC10200           [023] getglobal  4   11       ; transmissionSet
00CD42  E2400001           [024] call       3   2   1  
00CD46  98000000           [025] test       2       0    ; to [27] if true
00CD4A  1A400280           [026] jmp        10           ; to [37]
00CD4E  D3000001           [027] getupval   3   2      
00CD52  CE00C301           [028] gettable   3   3   268  ; -78033590
00CD56  1D010000           [029] getglobal  4   0        ; _T
00CD5A  0E414302           [030] gettable   4   4   269  ; "MissionTransmissionSet"
00CD5E  5D810300           [031] getglobal  5   14       ; -332969190
00CD62  99C10300           [032] loadk      6   15       ; "ObjectiveStartKuva"
00CD66  62810001           [033] call       5   2   2  
00CD6A  99010400           [034] loadk      6   16       ; 0
00CD6E  E2400002           [035] call       3   4   1  
00CD72  1A000780           [036] jmp        29           ; to [66]
00CD76  DD400400           [037] getglobal  3   17       ; useInfestedFogGradient
00CD7A  D8000000           [038] test       3       0    ; to [40] if true
00CD7E  1A000480           [039] jmp        17           ; to [57]
00CD82  DD000000           [040] getglobal  3   0        ; _T
00CD86  CE80C401           [041] gettable   3   3   274  ; "faction"
00CD8A  1D810300           [042] getglobal  4   14       ; -332969190
00CD8E  59C10400           [043] loadk      5   19       ; "Infestation"
00CD92  22810001           [044] call       4   2   2  
fail op	35
00CD96  23008101           [045] close      0  
00CD9A  1A400280           [046] jmp        10           ; to [57]
00CD9E  D3000001           [047] getupval   3   2      
00CDA2  CE00C301           [048] gettable   3   3   268  ; -78033590
00CDA6  1D010000           [049] getglobal  4   0        ; _T
00CDAA  0E414302           [050] gettable   4   4   269  ; "MissionTransmissionSet"
00CDAE  5D810300           [051] getglobal  5   14       ; -332969190
00CDB2  99010500           [052] loadk      6   20       ; "ObjectiveStartInfested"
00CDB6  62810001           [053] call       5   2   2  
00CDBA  99010400           [054] loadk      6   16       ; 0
00CDBE  E2400002           [055] call       3   4   1  
00CDC2  1A000280           [056] jmp        9            ; to [66]
00CDC6  D3000001           [057] getupval   3   2      
00CDCA  CE00C301           [058] gettable   3   3   268  ; -78033590
00CDCE  1D010000           [059] getglobal  4   0        ; _T
00CDD2  0E414302           [060] gettable   4   4   269  ; "MissionTransmissionSet"
00CDD6  5D810300           [061] getglobal  5   14       ; -332969190
00CDDA  99410500           [062] loadk      6   21       ; "ObjectiveStart"
00CDDE  62810001           [063] call       5   2   2  
00CDE2  99010400           [064] loadk      6   16       ; 0
00CDE6  E2400002           [065] call       3   4   1  
00CDEA  58400000           [066] test       1       1    ; to [68] if false
00CDEE  1AC00480           [067] jmp        20           ; to [88]
00CDF2  DD000200           [068] getglobal  3   8        ; gRegion
00CDF6  E480C501           [069] self       3   3   278  ; -1485896174
00CDFA  5D810300           [070] getglobal  5   14       ; -332969190
00CDFE  99C10500           [071] loadk      6   23       ; "DoorHint"
00CE02  62010001           [072] call       5   2   0  
00CE06  E2800000           [073] call       3   0   2  
00CE0A  1D010600           [074] getglobal  4   24       ; 1074689893
00CE0E  52018001           [075] move       5   3      
00CE12  22810001           [076] call       4   2   2  
00CE16  18410000           [077] test       4       1    ; to [79] if false
00CE1A  1A000280           [078] jmp        9            ; to [88]
00CE1E  19410600           [079] loadk      4   25       ; 0
00CE22  4A018001           [080] len        5   3      
00CE26  99410600           [081] loadk      6   25       ; 0
00CE2A  10C10080           [082] forprep    4   4        ; to [87]
00CE2E  0EC28101           [083] gettable   8   3   7  
00CE32  24824604           [084] self       8   8   282  ; -1923578185
00CE36  99C20600           [085] loadk      10  27       ; "Lock"
00CE3A  22428001           [086] call       8   3   1  
00CE3E  1481FE7F           [087] forloop    4   -5       ; to [83] if loop
00CE42  1D020200           [088] getglobal  8   8        ; gRegion
00CE46  24824504           [089] self       8   8   278  ; -1485896174
00CE4A  9D820300           [090] getglobal  10  14       ; -332969190
00CE4E  D9020700           [091] loadk      11  28       ; "SurvivalSetupForwarder"
00CE52  A2020001           [092] call       10  2   0  
00CE56  22820000           [093] call       8   0   2  
00CE5A  5D420700           [094] getglobal  9   29       ; 1672515847
00CE5E  92020004           [095] move       10  8      
00CE62  62020101           [096] call       9   2   4  
00CE66  1A800080           [097] jmp        3            ; to [101]
00CE6A  A483C606           [098] self       14  13  282  ; -1923578185
00CE6E  19840700           [099] loadk      16  30       ; "TriggerPort"
00CE72  A2438001           [100] call       14  3   1  
00CE76  56820000           [101] tforloop   9       2    ; to [103] if exit
00CE7A  1A80FE7F           [102] jmp        -5           ; to [98]
00CE7E  58400000           [103] test       1       1    ; to [105] if false
00CE82  1AC00080           [104] jmp        4            ; to [109]
00CE86  93038001           [105] getupval   14  3      
00CE8A  8EC34707           [106] gettable   14  14  287  ; -694534839
00CE8E  D9030800           [107] loadk      15  32       ; "/Lotus/Language/Objectives/SurvivalTriggerAlarm"
00CE92  A2430001           [108] call       14  2   1  
00CE96  9D030200           [109] getglobal  14  8        ; gRegion
00CE9A  A4834507           [110] self       14  14  278  ; -1485896174
00CE9E  1D840300           [111] getglobal  16  14       ; -332969190
00CEA2  59440800           [112] loadk      17  33       ; "BreakableOnPath"
00CEA6  22040001           [113] call       16  2   0  
00CEAA  A2830000           [114] call       14  0   2  
00CEAE  D9430600           [115] loadk      15  25       ; 0
00CEB2  0A040007           [116] len        16  14     
00CEB6  59440600           [117] loadk      17  25       ; 0
00CEBA  D0C30080           [118] forprep    15  4        ; to [123]
00CEBE  CE840407           [119] gettable   19  14  18 
00CEC2  E484C609           [120] self       19  19  282  ; -1923578185
00CEC6  59850800           [121] loadk      21  34       ; "Destroy"
00CECA  E2448001           [122] call       19  3   1  
00CECE  D483FE7F           [123] forloop    15  -5       ; to [119] if loop
00CED2  DD040200           [124] getglobal  19  8        ; gRegion
00CED6  E4C4C809           [125] self       19  19  291  ; -774964848
00CEDA  E2840001           [126] call       19  2   2  
00CEDE  2405C909           [127] self       20  19  292  ; 537471347
00CEE2  22850001           [128] call       20  2   2  
00CEE6  5D450900           [129] getglobal  21  37       ; gGameRules
00CEEA  A485490A           [130] self       22  20  294  ; -974578778
00CEEE  17068000           [131] loadbool   24  1   0    ; true
00CEF2  A2458001           [132] call       22  3   1  
00CEF6  58000000           [133] test       1       0    ; to [135] if true
00CEFA  1AC00080           [134] jmp        4            ; to [139]
00CEFE  A4C5490A           [135] self       22  20  295  ; -110386376
00CF02  17068000           [136] loadbool   24  1   0    ; true
00CF06  A2458001           [137] call       22  3   1  
00CF0A  1A400180           [138] jmp        6            ; to [145]
00CF0E  A4C5490A           [139] self       22  20  295  ; -110386376
00CF12  17060000           [140] loadbool   24  0   0    ; false
00CF16  A2458001           [141] call       22  3   1  
00CF1A  A4054A0A           [142] self       22  20  296  ; 447196028
00CF1E  17068000           [143] loadbool   24  1   0    ; true
00CF22  A2458001           [144] call       22  3   1  
00CF26  A4454A0A           [145] self       22  20  297  ; -1859611084
00CF2A  19060400           [146] loadk      24  16       ; 0
00CF2E  A2458001           [147] call       22  3   1  
00CF32  A485CA0A           [148] self       22  21  298  ; -803877924
00CF36  13060002           [149] getupval   24  4      
00CF3A  59060400           [150] loadk      25  16       ; 0
00CF3E  A2450002           [151] call       22  4   1  
00CF42  A4C54A0A           [152] self       22  20  299  ; 767503342
00CF46  17060000           [153] loadbool   24  0   0    ; false
00CF4A  A2458001           [154] call       22  3   1  
00CF4E  9D050200           [155] getglobal  22  8        ; gRegion
00CF52  A485450B           [156] self       22  22  278  ; -1485896174
00CF56  1D860300           [157] getglobal  24  14       ; -332969190
00CF5A  59060B00           [158] loadk      25  44       ; "SurvivalArtifactSpawn"
00CF5E  22060001           [159] call       24  2   0  
00CF62  A2850000           [160] call       22  0   2  
00CF66  CB050000           [161] newtable   23  0   0    ; array=0, hash=0
00CF6A  1D460700           [162] getglobal  24  29       ; 1672515847
00CF6E  5206000B           [163] move       25  22     
00CF72  22060101           [164] call       24  2   4  
00CF76  1AC00680           [165] jmp        28           ; to [194]
00CF7A  64474B0E           [166] self       29  28  301  ; 1927666530
00CF7E  62870001           [167] call       29  2   2  
00CF82  9D070600           [168] getglobal  30  24       ; 1074689893
00CF86  D207800E           [169] move       31  29     
00CF8A  A2870001           [170] call       30  2   2  
00CF8E  98470000           [171] test       30      1    ; to [173] if false
00CF92  1A000580           [172] jmp        21           ; to [194]
00CF96  A487CB0E           [173] self       30  29  302  ; -830264577
00CF9A  A2870001           [174] call       30  2   2  
00CF9E  DD870300           [175] getglobal  31  14       ; -332969190
00CFA2  19C80B00           [176] loadk      32  47       ; "Intermediate"
00CFA6  E2870001           [177] call       31  2   2  
fail op	35
00CFAA  63C0070F           [178] close      1  
00CFAE  1A000180           [179] jmp        5            ; to [185]
00CFB2  DD870300           [180] getglobal  31  14       ; -332969190
00CFB6  19080C00           [181] loadk      32  48       ; "Boss"
00CFBA  E2870001           [182] call       31  2   2  
fail op	35
00CFBE  23C0070F           [183] close      0  
00CFC2  1A000280           [184] jmp        9            ; to [194]
00CFC6  DD070000           [185] getglobal  31  0        ; _T
00CFCA  CE47CC0F           [186] gettable   31  31  305  ; "VoidTearSpawn"
fail op	35
00CFCE  63C0070E           [187] close      1  
00CFD2  1A000180           [188] jmp        5            ; to [194]
00CFD6  DD870C00           [189] getglobal  31  50       ; table
00CFDA  CEC7CC0F           [190] gettable   31  31  307  ; -431682403
00CFDE  1208800B           [191] move       32  23     
00CFE2  5208000E           [192] move       33  28     
00CFE6  E2478001           [193] call       31  3   1  
00CFEA  16860000           [194] tforloop   24      2    ; to [196] if exit
00CFEE  1A40F87F           [195] jmp        -30          ; to [166]
00CFF2  DD070D00           [196] getglobal  31  52       ; survivalArtifactType
00CFF6  13088000           [197] getupval   32  1      
00CFFA  22888000           [198] call       32  1   2  
00CFFE  18080000           [199] test       32      0    ; to [201] if true
00D002  1A000080           [200] jmp        1            ; to [202]
00D006  DD470D00           [201] getglobal  31  53       ; kuvaArtifactType
00D00A  1D480700           [202] getglobal  32  29       ; 1672515847
00D00E  5208800B           [203] move       33  23     
00D012  22080101           [204] call       32  2   4  
00D016  1AC00180           [205] jmp        8            ; to [214]
00D01A  5D090200           [206] getglobal  37  8        ; gRegion
00D01E  6489CD12           [207] self       37  37  310  ; -1110225722
00D022  D209800F           [208] move       39  31     
00D026  24CA4D12           [209] self       40  36  311  ; 1839670529
00D02A  228A0001           [210] call       40  2   2  
00D02E  640A4E12           [211] self       41  36  312  ; -231049143
00D032  620A0001           [212] call       41  2   0  
00D036  62490000           [213] call       37  0   1  
00D03A  16880000           [214] tforloop   32      2    ; to [216] if exit
00D03E  1A40FD7F           [215] jmp        -10          ; to [206]
00D042  5D890100           [216] getglobal  37  6        ; -1817107093
00D046  99490E00           [217] loadk      38  57       ; "Survival: "
00D04A  CA09800B           [218] len        39  23     
00D04E  198A0E00           [219] loadk      40  58       ; " valid life support spawns available."
00D052  82090A13           [220] concat     38  38  40 
00D056  62490001           [221] call       37  2   1  
00D05A  6489CA0A           [222] self       37  21  298  ; -803877924
00D05E  D3098002           [223] getupval   39  5      
00D062  0A0A800B           [224] len        40  23     
00D066  62490002           [225] call       37  4   1  
00D06A  5D890300           [226] getglobal  37  14       ; -332969190
00D06E  99C90E00           [227] loadk      38  59       ; "Spawn"
00D072  62890001           [228] call       37  2   2  
00D076  58000000           [229] test       1       0    ; to [231] if true
00D07A  1AC00080           [230] jmp        4            ; to [235]
00D07E  9D890300           [231] getglobal  38  14       ; -332969190
00D082  D9C90B00           [232] loadk      39  47       ; "Intermediate"
00D086  A2890001           [233] call       38  2   2  
00D08A  52090013           [234] move       37  38     
00D08E  9D090200           [235] getglobal  38  8        ; gRegion
00D092  A4894513           [236] self       38  38  278  ; -1485896174
00D096  1D8A0300           [237] getglobal  40  14       ; -332969190
00D09A  590A0F00           [238] loadk      41  60       ; "AlarmObjMarker"
00D09E  220A0001           [239] call       40  2   0  
00D0A2  A2890000           [240] call       38  0   2  
00D0A6  C6098013           [241] loadnil    39  39     
00D0AA  194A0600           [242] loadk      40  25       ; 0
00D0AE  4A0A0013           [243] len        41  38     
00D0B2  994A0600           [244] loadk      42  25       ; 0
00D0B6  100A0280           [245] forprep    40  9        ; to [255]
00D0BA  0ECB0A13           [246] gettable   44  38  43 
00D0BE  244B4B16           [247] self       44  44  301  ; 1927666530
00D0C2  228B0001           [248] call       44  2   2  
00D0C6  648B4B16           [249] self       45  44  302  ; -830264577
00D0CA  628B0001           [250] call       45  2   2  
fail op	35
00D0CE  23408916           [251] close      0  
00D0D2  1A400080           [252] jmp        2            ; to [255]
00D0D6  CEC90A13           [253] gettable   39  38  43 
00D0DA  1A000080           [254] jmp        1            ; to [256]
00D0DE  144AFD7F           [255] forloop    40  -10      ; to [246] if loop
00D0E2  A48BC913           [256] self       46  39  294  ; -974578778
00D0E6  A24B0001           [257] call       46  2   1  
00D0EA  A44B4F0A           [258] self       46  20  317  ; -906150570
00D0EE  120C8013           [259] move       48  39     
00D0F2  A24B8001           [260] call       46  3   1  
00D0F6  930B0003           [261] getupval   46  6      
00D0FA  8E8B4F17           [262] gettable   46  46  318  ; 1534343691
00D0FE  DD8B0300           [263] getglobal  47  14       ; -332969190
00D102  19CC0F00           [264] loadk      48  63       ; "SurvivalFog"
00D106  E28B0001           [265] call       47  2   2  
00D10A  170C0000           [266] loadbool   48  0   0    ; false
00D10E  570C8000           [267] loadbool   49  1   0    ; true
00D112  A24B0002           [268] call       46  4   1  
00D116  930B0003           [269] getupval   46  6      
00D11A  8E0B5017           [270] gettable   46  46  320  ; 1942291758
00D11E  A24B8000           [271] call       46  1   1  
00D122  930B8003           [272] getupval   46  7      
00D126  A28B8000           [273] call       46  1   2  
00D12A  984B0000           [274] test       46      1    ; to [276] if false
00D12E  1A800580           [275] jmp        23           ; to [299]
00D132  930B0004           [276] getupval   46  8      
00D136  8E4B5017           [277] gettable   46  46  321  ; -1626548999
00D13A  D98B1000           [278] loadk      47  66       ; "SurvivalSpy"
00D13E  A24B0001           [279] call       46  2   1  
00D142  930B0004           [280] getupval   46  8      
00D146  8ECB5017           [281] gettable   46  46  323  ; 844858906
00D14A  D98B1000           [282] loadk      47  66       ; "SurvivalSpy"
00D14E  190C1100           [283] loadk      48  68       ; "Vaults"
00D152  530C8004           [284] getupval   49  9      
00D156  A24B0002           [285] call       46  4   1  
00D15A  9D0B0000           [286] getglobal  46  0        ; _T
00D15E  DD0B0000           [287] getglobal  47  0        ; _T
00D162  CE4BD117           [288] gettable   47  47  325  ; "AllPlayersExtractingCallbacks"
00D166  D84B0000           [289] test       47      1    ; to [291] if false
00D16A  1A000080           [290] jmp        1            ; to [292]
00D16E  CB0B0000           [291] newtable   47  0   0    ; array=0, hash=0
00D172  8CCB8BA2           [292] settable   46  325 47   ; "AllPlayersExtractingCallbacks"
00D176  9D8B0C00           [293] getglobal  46  50       ; table
00D17A  8ECB4C17           [294] gettable   46  46  307  ; -431682403
00D17E  DD0B0000           [295] getglobal  47  0        ; _T
00D182  CE4BD117           [296] gettable   47  47  325  ; "AllPlayersExtractingCallbacks"
00D186  130C0005           [297] getupval   48  10     
00D18A  A24B8001           [298] call       46  3   1  
00D18E  9D8B1100           [299] getglobal  46  70       ; startupTimeout
fail op	21
00D192  15800B88           [300] concat     0   272 46 
00D196  1A800F80           [301] jmp        63           ; to [365]
00D19A  990B0400           [302] loadk      46  16       ; 0
00D19E  E4CBD10A           [303] self       47  21  327  ; -317790213
00D1A2  530C8005           [304] getupval   49  11     
00D1A6  E28B8001           [305] call       47  3   2  
fail op	35
00D1AA  2300C417           [306] close      0  
00D1AE  1A000E80           [307] jmp        57           ; to [365]
00D1B2  DD0B1200           [308] getglobal  47  72       ; 1289681407
00D1B6  E28B8000           [309] call       47  1   2  
00D1BA  83CB0B17           [310] add        46  46  47 
00D1BE  DD8B1100           [311] getglobal  47  70       ; startupTimeout
fail op	21
00D1C2  15808B17           [312] concat     0   47  46 
00D1C6  1A000780           [313] jmp        29           ; to [343]
00D1CA  D30B0004           [314] getupval   47  8      
00D1CE  CE4BD217           [315] gettable   47  47  329  ; 387243374
00D1D2  E24B8000           [316] call       47  1   1  
00D1D6  D30B0004           [317] getupval   47  8      
00D1DA  CE8BD217           [318] gettable   47  47  330  ; -1726069212
00D1DE  E28B8000           [319] call       47  1   2  
00D1E2  D80B0000           [320] test       47      0    ; to [322] if true
00D1E6  1AC00080           [321] jmp        4            ; to [326]
00D1EA  DDCB1200           [322] getglobal  47  75       ; 538022378
00D1EE  190C0400           [323] loadk      48  16       ; 0
00D1F2  E24B0001           [324] call       47  2   1  
00D1F6  1A80FD7F           [325] jmp        -9           ; to [317]
00D1FA  D30B0006           [326] getupval   47  12     
00D1FE  E28B8000           [327] call       47  1   2  
00D202  D80B0000           [328] test       47      0    ; to [330] if true
00D206  1A400080           [329] jmp        2            ; to [332]
00D20A  1A400880           [330] jmp        34           ; to [365]
00D20E  1A800280           [331] jmp        11           ; to [343]
00D212  D30B0004           [332] getupval   47  8      
00D216  CE0BD317           [333] gettable   47  47  332  ; -1084877855
00D21A  130C0004           [334] getupval   48  8      
00D21E  0E4C5318           [335] gettable   48  48  333  ; "INITIATOR_FAILURE"
00D222  E24B0001           [336] call       47  2   1  
00D226  DD4B0900           [337] getglobal  47  37       ; gGameRules
00D22A  E48BD317           [338] self       47  47  334  ; -34409044
00D22E  5DCC1300           [339] getglobal  49  79       ; Engine
00D232  4E0CD418           [340] gettable   49  49  336  ; "GameRules_GS_FAILURE"
00D236  E24B8001           [341] call       47  3   1  
00D23A  1E008000           [342] return     0   1      
00D23E  D30B0004           [343] getupval   47  8      
00D242  CE8BD217           [344] gettable   47  47  330  ; -1726069212
00D246  E28B8000           [345] call       47  1   2  
00D24A  D80B0000           [346] test       47      0    ; to [348] if true
00D24E  1A400180           [347] jmp        6            ; to [354]
00D252  130C8006           [348] getupval   48  13     
00D256  184C0000           [349] test       48      1    ; to [351] if false
00D25A  1A800080           [350] jmp        3            ; to [354]
00D25E  130C0007           [351] getupval   48  14     
00D262  224C8000           [352] call       48  1   1  
00D266  1A800180           [353] jmp        7            ; to [361]
00D26A  D84B0000           [354] test       47      1    ; to [356] if false
00D26E  1A000180           [355] jmp        5            ; to [361]
00D272  130C8006           [356] getupval   48  13     
00D276  180C0000           [357] test       48      0    ; to [359] if true
00D27A  1A400080           [358] jmp        2            ; to [361]
00D27E  130C8007           [359] getupval   48  15     
00D282  224C8000           [360] call       48  1   1  
00D286  1DCC1200           [361] getglobal  48  75       ; 538022378
00D28A  590C0400           [362] loadk      49  16       ; 0
00D28E  224C0001           [363] call       48  2   1  
00D292  1A40F07F           [364] jmp        -62          ; to [303]
00D296  1D0C0200           [365] getglobal  48  8        ; gRegion
00D29A  244C4218           [366] self       48  48  265  ; -1520831144
00D29E  228C0001           [367] call       48  2   2  
00D2A2  180C0000           [368] test       48      0    ; to [370] if true
00D2A6  1AC00180           [369] jmp        8            ; to [378]
00D2AA  130C0003           [370] getupval   48  6      
00D2AE  0E8C4F18           [371] gettable   48  48  318  ; 1534343691
00D2B2  5D8C0300           [372] getglobal  49  14       ; -332969190
00D2B6  994C1400           [373] loadk      50  81       ; "SurvivalHudScript"
00D2BA  628C0001           [374] call       49  2   2  
00D2BE  970C0000           [375] loadbool   50  0   0    ; false
00D2C2  D70C8000           [376] loadbool   51  1   0    ; true
00D2C6  224C0002           [377] call       48  4   1  
00D2CA  1E008000           [378] return     0   1      
                           * constants:
00D2CE  52                 sizek (82)
00D2CF  04                 const type 4
00D2D0  03                 string size (3)
00D2D1  5F5400             "_T\0"
                           const [0]: "_T"
00D2D4  04                 const type 4
00D2D5  0E                 string size (14)
00D2D6  416C6C6F77577269+  "AllowWri"
00D2DE  6E6B6C657300       "nkles\0"
                           const [1]: "AllowWrinkles"
00D2E4  01                 const type 3
00D2E5  00000000           const [2]: (0)
00D2E9  04                 const type 4
00D2EA  15                 string size (21)
00D2EB  67536B6970457874+  "gSkipExt"
00D2F3  72616374696F6E54+  "ractionT"
00D2FB  696D657200         "imer\0"
                           const [3]: "gSkipExtractionTimer"
00D300  01                 const type 3
00D301  01000000           const [4]: (1)
00D305  04                 const type 4
00D306  10                 string size (16)
00D307  6750726F6D6F7465+  "gPromote"
00D30F  64546F486F737400   "dToHost\0"
                           const [5]: "gPromotedToHost"
00D317  01                 const type 3
00D318  6B25B193           const [6]: (-1817107093)
00D31C  04                 const type 4
00D31D  1A                 string size (26)
00D31E  537572766976616C+  "Survival"
00D326  3A204D697373696F+  ": Missio"
00D32E  6E20737461727465+  "n starte"
00D336  6400               "d\0"
                           const [7]: "Survival: Mission started"
00D338  04                 const type 4
00D339  08                 string size (8)
00D33A  67526567696F6E00   "gRegion\0"
                           const [8]: "gRegion"
00D342  01                 const type 3
00D343  58F559A5           const [9]: (-1520831144)
00D347  01                 const type 3
00D348  17CB5552           const [10]: (1381354263)
00D34C  04                 const type 4
00D34D  10                 string size (16)
00D34E  7472616E736D6973+  "transmis"
00D356  73696F6E53657400   "sionSet\0"
                           const [11]: "transmissionSet"
00D35E  01                 const type 3
00D35F  4A4D59FB           const [12]: (-78033590)
00D363  04                 const type 4
00D364  17                 string size (23)
00D365  4D697373696F6E54+  "MissionT"
00D36D  72616E736D697373+  "ransmiss"
00D375  696F6E53657400     "ionSet\0"
                           const [13]: "MissionTransmissionSet"
00D37C  01                 const type 3
00D37D  1A4B27EC           const [14]: (-332969190)
00D381  04                 const type 4
00D382  13                 string size (19)
00D383  4F626A6563746976+  "Objectiv"
00D38B  6553746172744B75+  "eStartKu"
00D393  766100             "va\0"
                           const [15]: "ObjectiveStartKuva"
00D396  03                 const type 3
00D397  00000000           const [16]: (0)
00D39B  04                 const type 4
00D39C  17                 string size (23)
00D39D  757365496E666573+  "useInfes"
00D3A5  746564466F674772+  "tedFogGr"
00D3AD  616469656E7400     "adient\0"
                           const [17]: "useInfestedFogGradient"
00D3B4  04                 const type 4
00D3B5  08                 string size (8)
00D3B6  66616374696F6E00   "faction\0"
                           const [18]: "faction"
00D3BE  04                 const type 4
00D3BF  0C                 string size (12)
00D3C0  496E666573746174+  "Infestat"
00D3C8  696F6E00           "ion\0"
                           const [19]: "Infestation"
00D3CC  04                 const type 4
00D3CD  17                 string size (23)
00D3CE  4F626A6563746976+  "Objectiv"
00D3D6  655374617274496E+  "eStartIn"
00D3DE  66657374656400     "fested\0"
                           const [20]: "ObjectiveStartInfested"
00D3E5  04                 const type 4
00D3E6  0F                 string size (15)
00D3E7  4F626A6563746976+  "Objectiv"
00D3EF  65537461727400     "eStart\0"
                           const [21]: "ObjectiveStart"
00D3F6  01                 const type 3
00D3F7  12066FA7           const [22]: (-1485896174)
00D3FB  04                 const type 4
00D3FC  09                 string size (9)
00D3FD  446F6F7248696E74+  "DoorHint"
00D405  00                 "\0"
                           const [23]: "DoorHint"
00D406  01                 const type 3
00D407  65770E40           const [24]: (1074689893)
00D40B  03                 const type 3
00D40C  0000803F           const [25]: (0)
00D410  01                 const type 3
00D411  B786588D           const [26]: (-1923578185)
00D415  04                 const type 4
00D416  05                 string size (5)
00D417  4C6F636B00         "Lock\0"
                           const [27]: "Lock"
00D41C  04                 const type 4
00D41D  17                 string size (23)
00D41E  537572766976616C+  "Survival"
00D426  5365747570466F72+  "SetupFor"
00D42E  77617264657200     "warder\0"
                           const [28]: "SurvivalSetupForwarder"
00D435  01                 const type 3
00D436  0791B063           const [29]: (1672515847)
00D43A  04                 const type 4
00D43B  0C                 string size (12)
00D43C  5472696767657250+  "TriggerP"
00D444  6F727400           "ort\0"
                           const [30]: "TriggerPort"
00D448  01                 const type 3
00D449  493D9AD6           const [31]: (-694534839)
00D44D  04                 const type 4
00D44E  30                 string size (48)
00D44F  2F4C6F7475732F4C+  "/Lotus/L"
00D457  616E67756167652F+  "anguage/"
00D45F  4F626A6563746976+  "Objectiv"
00D467  65732F5375727669+  "es/Survi"
00D46F  76616C5472696767+  "valTrigg"
00D477  6572416C61726D00   "erAlarm\0"
                           const [32]: "/Lotus/Language/Objectives/SurvivalTriggerAlarm"
00D47F  04                 const type 4
00D480  10                 string size (16)
00D481  427265616B61626C+  "Breakabl"
00D489  654F6E5061746800   "eOnPath\0"
                           const [33]: "BreakableOnPath"
00D491  04                 const type 4
00D492  08                 string size (8)
00D493  44657374726F7900   "Destroy\0"
                           const [34]: "Destroy"
00D49B  01                 const type 3
00D49C  90F9CED1           const [35]: (-774964848)
00D4A0  01                 const type 3
00D4A1  73290920           const [36]: (537471347)
00D4A5  04                 const type 4
00D4A6  0B                 string size (11)
00D4A7  6747616D6552756C+  "gGameRul"
00D4AF  657300             "es\0"
                           const [37]: "gGameRules"
00D4B2  01                 const type 3
00D4B3  A61BE9C5           const [38]: (-974578778)
00D4B7  01                 const type 3
00D4B8  38A36BF9           const [39]: (-110386376)
00D4BC  01                 const type 3
00D4BD  7CABA71A           const [40]: (447196028)
00D4C1  01                 const type 3
00D4C2  34962891           const [41]: (-1859611084)
00D4C6  01                 const type 3
00D4C7  DCCB15D0           const [42]: (-803877924)
00D4CB  01                 const type 3
00D4CC  EE2BBF2D           const [43]: (767503342)
00D4D0  04                 const type 4
00D4D1  16                 string size (22)
00D4D2  537572766976616C+  "Survival"
00D4DA  4172746966616374+  "Artifact"
00D4E2  537061776E00       "Spawn\0"
                           const [44]: "SurvivalArtifactSpawn"
00D4E8  01                 const type 3
00D4E9  62DBE572           const [45]: (1927666530)
00D4ED  01                 const type 3
00D4EE  FF2A83CE           const [46]: (-830264577)
00D4F2  04                 const type 4
00D4F3  0D                 string size (13)
00D4F4  496E7465726D6564+  "Intermed"
00D4FC  6961746500         "iate\0"
                           const [47]: "Intermediate"
00D501  04                 const type 4
00D502  05                 string size (5)
00D503  426F737300         "Boss\0"
                           const [48]: "Boss"
00D508  04                 const type 4
00D509  0E                 string size (14)
00D50A  566F696454656172+  "VoidTear"
00D512  537061776E00       "Spawn\0"
                           const [49]: "VoidTearSpawn"
00D518  04                 const type 4
00D519  06                 string size (6)
00D51A  7461626C6500       "table\0"
                           const [50]: "table"
00D520  01                 const type 3
00D521  9D0C45E6           const [51]: (-431682403)
00D525  04                 const type 4
00D526  15                 string size (21)
00D527  737572766976616C+  "survival"
00D52F  4172746966616374+  "Artifact"
00D537  5479706500         "Type\0"
                           const [52]: "survivalArtifactType"
00D53C  04                 const type 4
00D53D  11                 string size (17)
00D53E  6B75766141727469+  "kuvaArti"
00D546  6661637454797065+  "factType"
00D54E  00                 "\0"
                           const [53]: "kuvaArtifactType"
00D54F  01                 const type 3
00D550  C64CD3BD           const [54]: (-1110225722)
00D554  01                 const type 3
00D555  0125A76D           const [55]: (1839670529)
00D559  01                 const type 3
00D55A  49783AF2           const [56]: (-231049143)
00D55E  04                 const type 4
00D55F  0B                 string size (11)
00D560  537572766976616C+  "Survival"
00D568  3A2000             ": \0"
                           const [57]: "Survival: "
00D56B  04                 const type 4
00D56C  26                 string size (38)
00D56D  2076616C6964206C+  " valid l"
00D575  6966652073757070+  "ife supp"
00D57D  6F72742073706177+  "ort spaw"
00D585  6E7320617661696C+  "ns avail"
00D58D  61626C652E00       "able.\0"
                           const [58]: " valid life support spawns available."
00D593  04                 const type 4
00D594  06                 string size (6)
00D595  537061776E00       "Spawn\0"
                           const [59]: "Spawn"
00D59B  04                 const type 4
00D59C  0F                 string size (15)
00D59D  416C61726D4F626A+  "AlarmObj"
00D5A5  4D61726B657200     "Marker\0"
                           const [60]: "AlarmObjMarker"
00D5AC  01                 const type 3
00D5AD  563DFDC9           const [61]: (-906150570)
00D5B1  01                 const type 3
00D5B2  0B3A745B           const [62]: (1534343691)
00D5B6  04                 const type 4
00D5B7  0C                 string size (12)
00D5B8  537572766976616C+  "Survival"
00D5C0  466F6700           "Fog\0"
                           const [63]: "SurvivalFog"
00D5C4  01                 const type 3
00D5C5  2E05C573           const [64]: (1942291758)
00D5C9  01                 const type 3
00D5CA  F9D40C9F           const [65]: (-1626548999)
00D5CE  04                 const type 4
00D5CF  0C                 string size (12)
00D5D0  537572766976616C+  "Survival"
00D5D8  53707900           "Spy\0"
                           const [66]: "SurvivalSpy"
00D5DC  01                 const type 3
00D5DD  1A865B32           const [67]: (844858906)
00D5E1  04                 const type 4
00D5E2  07                 string size (7)
00D5E3  5661756C747300     "Vaults\0"
                           const [68]: "Vaults"
00D5EA  04                 const type 4
00D5EB  1E                 string size (30)
00D5EC  416C6C506C617965+  "AllPlaye"
00D5F4  7273457874726163+  "rsExtrac"
00D5FC  74696E6743616C6C+  "tingCall"
00D604  6261636B7300       "backs\0"
                           const [69]: "AllPlayersExtractingCallbacks"
00D60A  04                 const type 4
00D60B  0F                 string size (15)
00D60C  7374617274757054+  "startupT"
00D614  696D656F757400     "imeout\0"
                           const [70]: "startupTimeout"
00D61B  01                 const type 3
00D61C  FBE70EED           const [71]: (-317790213)
00D620  01                 const type 3
00D621  FFF9DE4C           const [72]: (1289681407)
00D625  01                 const type 3
00D626  6EDD1417           const [73]: (387243374)
00D62A  01                 const type 3
00D62B  24461E99           const [74]: (-1726069212)
00D62F  01                 const type 3
00D630  EA911120           const [75]: (538022378)
00D634  01                 const type 3
00D635  E11356BF           const [76]: (-1084877855)
00D639  04                 const type 4
00D63A  12                 string size (18)
00D63B  494E49544941544F+  "INITIATO"
00D643  525F4641494C5552+  "R_FAILUR"
00D64B  4500               "E\0"
                           const [77]: "INITIATOR_FAILURE"
00D64D  01                 const type 3
00D64E  ACF5F2FD           const [78]: (-34409044)
00D652  04                 const type 4
00D653  07                 string size (7)
00D654  456E67696E6500     "Engine\0"
                           const [79]: "Engine"
00D65B  04                 const type 4
00D65C  15                 string size (21)
00D65D  47616D6552756C65+  "GameRule"
00D665  735F47535F464149+  "s_GS_FAI"
00D66D  4C55524500         "LURE\0"
                           const [80]: "GameRules_GS_FAILURE"
00D672  04                 const type 4
00D673  12                 string size (18)
00D674  537572766976616C+  "Survival"
00D67C  4875645363726970+  "HudScrip"
00D684  7400               "t\0"
                           const [81]: "SurvivalHudScript"
                           * functions:
00D686  00                 sizep (0)
                           * lines:
00D688  02                 sizelineinfo (378)
                           [pc] (line)
00D689  82                 [001] (-126)
00D68A  08                 [002] (-126)
00D68B  00                 [003] (-125)
00D68C  00                 [004] (-125)
00D68D  82                 [005] (-123)
00D68E  08                 [006] (-123)
00D68F  00                 [007] (-123)
00D690  00                 [008] (-122)
00D691  83                 [009] (-119)
00D692  08                 [010] (-119)
00D693  00                 [011] (-119)
00D694  00                 [012] (-116)
00D695  83                 [013] (-116)
00D696  08                 [014] (-116)
00D697  00                 [015] (-116)
00D698  00                 [016] (-116)
00D699  85                 [017] (-114)
00D69A  08                 [018] (-114)
00D69B  00                 [019] (-113)
00D69C  00                 [020] (-113)
00D69D  85                 [021] (-110)
00D69E  08                 [022] (-110)
00D69F  00                 [023] (-110)
00D6A0  00                 [024] (-110)
00D6A1  85                 [025] (-109)
00D6A2  08                 [026] (-109)
00D6A3  00                 [027] (-108)
00D6A4  00                 [028] (-108)
00D6A5  86                 [029] (-108)
00D6A6  08                 [030] (-108)
00D6A7  00                 [031] (-108)
00D6A8  00                 [032] (-108)
00D6A9  89                 [033] (-108)
00D6AA  08                 [034] (-108)
00D6AB  00                 [035] (-108)
00D6AC  00                 [036] (-108)
00D6AD  89                 [037] (-107)
00D6AE  08                 [038] (-107)
00D6AF  00                 [039] (-107)
00D6B0  00                 [040] (-107)
00D6B1  89                 [041] (-107)
00D6B2  08                 [042] (-107)
00D6B3  00                 [043] (-107)
00D6B4  00                 [044] (-107)
00D6B5  8C                 [045] (-107)
00D6B6  08                 [046] (-107)
00D6B7  00                 [047] (-106)
00D6B8  00                 [048] (-106)
00D6B9  8C                 [049] (-106)
00D6BA  08                 [050] (-106)
00D6BB  00                 [051] (-106)
00D6BC  00                 [052] (-106)
00D6BD  8C                 [053] (-106)
00D6BE  08                 [054] (-106)
00D6BF  00                 [055] (-106)
00D6C0  00                 [056] (-106)
00D6C1  8C                 [057] (-104)
00D6C2  08                 [058] (-104)
00D6C3  00                 [059] (-104)
00D6C4  00                 [060] (-104)
00D6C5  8C                 [061] (-104)
00D6C6  08                 [062] (-104)
00D6C7  00                 [063] (-104)
00D6C8  00                 [064] (-104)
00D6C9  8E                 [065] (-104)
00D6CA  08                 [066] (-101)
00D6CB  00                 [067] (-101)
00D6CC  00                 [068] (-100)
00D6CD  8E                 [069] (-100)
00D6CE  08                 [070] (-100)
00D6CF  00                 [071] (-100)
00D6D0  00                 [072] (-100)
00D6D1  8F                 [073] (-100)
00D6D2  08                 [074] (-99)
00D6D3  00                 [075] (-99)
00D6D4  00                 [076] (-99)
00D6D5  8F                 [077] (-99)
00D6D6  08                 [078] (-99)
00D6D7  00                 [079] (-98)
00D6D8  00                 [080] (-98)
00D6D9  92                 [081] (-98)
00D6DA  08                 [082] (-98)
00D6DB  00                 [083] (-97)
00D6DC  00                 [084] (-97)
00D6DD  92                 [085] (-97)
00D6DE  08                 [086] (-97)
00D6DF  00                 [087] (-98)
00D6E0  00                 [088] (-91)
00D6E1  92                 [089] (-91)
00D6E2  08                 [090] (-91)
00D6E3  00                 [091] (-91)
00D6E4  00                 [092] (-91)
00D6E5  92                 [093] (-91)
00D6E6  08                 [094] (-90)
00D6E7  00                 [095] (-90)
00D6E8  00                 [096] (-90)
00D6E9  93                 [097] (-90)
00D6EA  08                 [098] (-89)
00D6EB  00                 [099] (-89)
00D6EC  00                 [100] (-89)
00D6ED  93                 [101] (-90)
00D6EE  08                 [102] (-89)
00D6EF  00                 [103] (-86)
00D6F0  00                 [104] (-86)
00D6F1  94                 [105] (-85)
00D6F2  08                 [106] (-85)
00D6F3  00                 [107] (-85)
00D6F4  00                 [108] (-85)
00D6F5  94                 [109] (-81)
00D6F6  08                 [110] (-81)
00D6F7  00                 [111] (-81)
00D6F8  00                 [112] (-81)
00D6F9  94                 [113] (-81)
00D6FA  08                 [114] (-81)
00D6FB  00                 [115] (-80)
00D6FC  00                 [116] (-80)
00D6FD  94                 [117] (-80)
00D6FE  08                 [118] (-80)
00D6FF  00                 [119] (-79)
00D700  00                 [120] (-79)
00D701  94                 [121] (-79)
00D702  08                 [122] (-79)
00D703  00                 [123] (-80)
00D704  00                 [124] (-76)
00D705  94                 [125] (-76)
00D706  08                 [126] (-76)
00D707  00                 [127] (-75)
00D708  00                 [128] (-75)
00D709  94                 [129] (-74)
00D70A  08                 [130] (-73)
00D70B  00                 [131] (-73)
00D70C  00                 [132] (-73)
00D70D  94                 [133] (-71)
00D70E  08                 [134] (-71)
00D70F  00                 [135] (-70)
00D710  00                 [136] (-70)
00D711  94                 [137] (-70)
00D712  08                 [138] (-70)
00D713  00                 [139] (-68)
00D714  00                 [140] (-68)
00D715  94                 [141] (-68)
00D716  08                 [142] (-67)
00D717  00                 [143] (-67)
00D718  00                 [144] (-67)
00D719  95                 [145] (-64)
00D71A  08                 [146] (-64)
00D71B  00                 [147] (-64)
00D71C  00                 [148] (-63)
00D71D  95                 [149] (-63)
00D71E  08                 [150] (-63)
00D71F  00                 [151] (-63)
00D720  00                 [152] (-62)
00D721  95                 [153] (-62)
00D722  08                 [154] (-62)
00D723  00                 [155] (-59)
00D724  00                 [156] (-59)
00D725  95                 [157] (-59)
00D726  08                 [158] (-59)
00D727  00                 [159] (-59)
00D728  00                 [160] (-59)
00D729  95                 [161] (-58)
00D72A  08                 [162] (-57)
00D72B  00                 [163] (-57)
00D72C  00                 [164] (-57)
00D72D  95                 [165] (-57)
00D72E  08                 [166] (-56)
00D72F  00                 [167] (-56)
00D730  00                 [168] (-55)
00D731  95                 [169] (-55)
00D732  08                 [170] (-55)
00D733  00                 [171] (-55)
00D734  00                 [172] (-55)
00D735  95                 [173] (-54)
00D736  08                 [174] (-54)
00D737  00                 [175] (-53)
00D738  00                 [176] (-53)
00D739  95                 [177] (-53)
00D73A  08                 [178] (-53)
00D73B  00                 [179] (-53)
00D73C  00                 [180] (-53)
00D73D  95                 [181] (-53)
00D73E  08                 [182] (-53)
00D73F  00                 [183] (-53)
00D740  00                 [184] (-53)
00D741  96                 [185] (-53)
00D742  08                 [186] (-53)
00D743  00                 [187] (-53)
00D744  00                 [188] (-53)
00D745  96                 [189] (-52)
00D746  08                 [190] (-52)
00D747  00                 [191] (-52)
00D748  00                 [192] (-52)
00D749  96                 [193] (-52)
00D74A  08                 [194] (-57)
00D74B  00                 [195] (-50)
00D74C  00                 [196] (-46)
00D74D  96                 [197] (-45)
00D74E  08                 [198] (-45)
00D74F  00                 [199] (-45)
00D750  00                 [200] (-45)
00D751  96                 [201] (-44)
00D752  08                 [202] (-42)
00D753  00                 [203] (-42)
00D754  00                 [204] (-42)
00D755  96                 [205] (-42)
00D756  08                 [206] (-41)
00D757  00                 [207] (-41)
00D758  00                 [208] (-41)
00D759  96                 [209] (-41)
00D75A  08                 [210] (-41)
00D75B  00                 [211] (-41)
00D75C  00                 [212] (-41)
00D75D  96                 [213] (-41)
00D75E  08                 [214] (-42)
00D75F  00                 [215] (-41)
00D760  00                 [216] (-39)
00D761  96                 [217] (-39)
00D762  08                 [218] (-39)
00D763  00                 [219] (-39)
00D764  00                 [220] (-39)
00D765  96                 [221] (-39)
00D766  08                 [222] (-38)
00D767  00                 [223] (-38)
00D768  00                 [224] (-38)
00D769  98                 [225] (-38)
00D76A  08                 [226] (-35)
00D76B  00                 [227] (-35)
00D76C  00                 [228] (-35)
00D76D  98                 [229] (-34)
00D76E  08                 [230] (-34)
00D76F  00                 [231] (-33)
00D770  00                 [232] (-33)
00D771  98                 [233] (-33)
00D772  08                 [234] (-33)
00D773  00                 [235] (-31)
00D774  00                 [236] (-31)
00D775  98                 [237] (-31)
00D776  08                 [238] (-31)
00D777  00                 [239] (-31)
00D778  00                 [240] (-31)
00D779  98                 [241] (-30)
00D77A  08                 [242] (-29)
00D77B  00                 [243] (-29)
00D77C  00                 [244] (-29)
00D77D  98                 [245] (-29)
00D77E  08                 [246] (-28)
00D77F  00                 [247] (-28)
00D780  00                 [248] (-28)
00D781  98                 [249] (-27)
00D782  08                 [250] (-27)
00D783  00                 [251] (-26)
00D784  00                 [252] (-26)
00D785  98                 [253] (-25)
00D786  08                 [254] (-24)
00D787  00                 [255] (-29)
00D788  00                 [256] (-21)
00D789  98                 [257] (-21)
00D78A  08                 [258] (-20)
00D78B  00                 [259] (-20)
00D78C  00                 [260] (-20)
00D78D  9B                 [261] (-19)
00D78E  08                 [262] (-19)
00D78F  00                 [263] (-19)
00D790  00                 [264] (-19)
00D791  9B                 [265] (-19)
00D792  08                 [266] (-19)
00D793  00                 [267] (-19)
00D794  00                 [268] (-19)
00D795  9C                 [269] (-18)
00D796  08                 [270] (-18)
00D797  00                 [271] (-18)
00D798  00                 [272] (-16)
00D799  9C                 [273] (-16)
00D79A  08                 [274] (-16)
00D79B  00                 [275] (-16)
00D79C  00                 [276] (-15)
00D79D  9C                 [277] (-15)
00D79E  08                 [278] (-15)
00D79F  00                 [279] (-15)
00D7A0  00                 [280] (-14)
00D7A1  9C                 [281] (-14)
00D7A2  08                 [282] (-14)
00D7A3  00                 [283] (-14)
00D7A4  00                 [284] (-14)
00D7A5  9C                 [285] (-14)
00D7A6  08                 [286] (-12)
00D7A7  00                 [287] (-12)
00D7A8  00                 [288] (-12)
00D7A9  9C                 [289] (-12)
00D7AA  08                 [290] (-12)
00D7AB  00                 [291] (-12)
00D7AC  00                 [292] (-12)
00D7AD  9D                 [293] (-11)
00D7AE  08                 [294] (-11)
00D7AF  00                 [295] (-11)
00D7B0  00                 [296] (-11)
00D7B1  9D                 [297] (-11)
00D7B2  08                 [298] (-11)
00D7B3  00                 [299] (-8)
00D7B4  00                 [300] (-8)
00D7B5  9D                 [301] (-8)
00D7B6  08                 [302] (-7)
00D7B7  00                 [303] (-5)
00D7B8  00                 [304] (-5)
00D7B9  9D                 [305] (-5)
00D7BA  08                 [306] (-5)
00D7BB  00                 [307] (-5)
00D7BC  00                 [308] (-4)
00D7BD  9D                 [309] (-4)
00D7BE  08                 [310] (-4)
00D7BF  00                 [311] (-2)
00D7C0  00                 [312] (-2)
00D7C1  9E                 [313] (-2)
00D7C2  08                 [314] (-1)
00D7C3  00                 [315] (-1)
00D7C4  00                 [316] (-1)
00D7C5  9E                 [317] (1)
00D7C6  08                 [318] (1)
00D7C7  00                 [319] (1)
00D7C8  00                 [320] (1)
00D7C9  9E                 [321] (1)
00D7CA  08                 [322] (2)
00D7CB  00                 [323] (2)
00D7CC  00                 [324] (2)
00D7CD  9E                 [325] (2)
00D7CE  08                 [326] (5)
00D7CF  00                 [327] (5)
00D7D0  00                 [328] (5)
00D7D1  9F                 [329] (5)
00D7D2  08                 [330] (6)
00D7D3  00                 [331] (6)
00D7D4  00                 [332] (9)
00D7D5  9F                 [333] (9)
00D7D6  08                 [334] (9)
00D7D7  00                 [335] (9)
00D7D8  00                 [336] (9)
00D7D9  9F                 [337] (10)
00D7DA  08                 [338] (10)
00D7DB  00                 [339] (10)
00D7DC  00                 [340] (10)
00D7DD  9F                 [341] (10)
00D7DE  08                 [342] (11)
00D7DF  00                 [343] (15)
00D7E0  00                 [344] (15)
00D7E1  9E                 [345] (15)
00D7E2  08                 [346] (16)
00D7E3  00                 [347] (16)
00D7E4  00                 [348] (16)
00D7E5  A5                 [349] (16)
00D7E6  08                 [350] (16)
00D7E7  00                 [351] (17)
00D7E8  00                 [352] (17)
00D7E9  A5                 [353] (17)
00D7EA  08                 [354] (18)
00D7EB  00                 [355] (18)
00D7EC  00                 [356] (18)
00D7ED  A5                 [357] (18)
00D7EE  08                 [358] (18)
00D7EF  00                 [359] (19)
00D7F0  00                 [360] (19)
00D7F1  A5                 [361] (22)
00D7F2  08                 [362] (22)
00D7F3  00                 [363] (22)
00D7F4  00                 [364] (22)
00D7F5  A5                 [365] (27)
00D7F6  08                 [366] (27)
00D7F7  00                 [367] (27)
00D7F8  00                 [368] (27)
00D7F9  A5                 [369] (27)
00D7FA  08                 [370] (28)
00D7FB  00                 [371] (28)
00D7FC  00                 [372] (28)
00D7FD  A6                 [373] (28)
00D7FE  08                 [374] (28)
00D7FF  00                 [375] (28)
00D800  00                 [376] (28)
00D801  A6                 [377] (28)
00D802  08                 [378] (30)
                           * locals:
00DC71  00                 sizelocvars (0)
                           * upvalues:
00DC72  00                 sizeupvalues (0)
                           ** end of function **

                           
00DC73                     ** function [51] definition (level 2)
                           ** start of function **
00DC73  00                 string size (0)
                           source name: (none)
00DC75  12                 line defined (2336)
00DC76  B3                 last line defined (2483)
00DC77  13                 nups (19)
00DC78  13                 numparams (1)
00DC79  01                 is_vararg (0)
00DC7A  00                 maxstacksize (54)
                           * code:
00DC7D  02                 sizecode (367)
00DC7E  5D000000           [001] getglobal  1   0        ; gRegion
00DC82  6440C000           [002] self       1   1   257  ; -1520831144
00DC86  62800001           [003] call       1   2   2  
00DC8A  58000000           [004] test       1       0    ; to [6] if true
00DC8E  1A000180           [005] jmp        5            ; to [11]
00DC92  5D800000           [006] getglobal  1   2        ; gGameRules
00DC96  64C0C000           [007] self       1   1   259  ; -803877924
00DC9A  D3000000           [008] getupval   3   0      
00DC9E  19010100           [009] loadk      4   4        ; 0
00DCA2  62400002           [010] call       1   4   1  
00DCA6  5D800000           [011] getglobal  1   2        ; gGameRules
00DCAA  9D400100           [012] getglobal  2   5        ; _T
00DCAE  8E804101           [013] gettable   2   2   262  ; "LifeSupportBar"
00DCB2  98000000           [014] test       2       0    ; to [16] if true
00DCB6  1A800180           [015] jmp        7            ; to [23]
00DCBA  9D400100           [016] getglobal  2   5        ; _T
00DCBE  8EC04101           [017] gettable   2   2   263  ; 327577324
00DCC2  DD400100           [018] getglobal  3   5        ; _T
00DCC6  CE80C101           [019] gettable   3   3   262  ; "LifeSupportBar"
00DCCA  A2400001           [020] call       2   2   1  
00DCCE  9D400100           [021] getglobal  2   5        ; _T
00DCD2  8C004283           [022] settable   2   262 264  ; "LifeSupportBar" nil
00DCD6  A440C200           [023] self       2   1   265  ; -317790213
00DCDA  13018000           [024] getupval   4   1      
00DCDE  A2808001           [025] call       2   3   2  
00DCE2  D9800200           [026] loadk      3   10       ; 0
00DCE6  1DC10200           [027] getglobal  4   11       ; -1817107093
00DCEA  59010300           [028] loadk      5   12       ; "Survival: Life support ran out at "
00DCEE  92010001           [029] move       6   2      
00DCF2  42818102           [030] concat     5   5   6  
00DCF6  22410001           [031] call       4   2   1  
00DCFA  2441C300           [032] self       4   1   269  ; -249861443
00DCFE  93010001           [033] getupval   6   2      
00DD02  DD810300           [034] getglobal  7   14       ; -332969190
00DD06  E2818000           [035] call       7   1   2  
00DD0A  19C20300           [036] loadk      8   15       ; 0
00DD0E  57020000           [037] loadbool   9   0   0    ; false
00DD12  97020000           [038] loadbool   10  0   0    ; false
00DD16  22418003           [039] call       4   7   1  
00DD1A  1D410100           [040] getglobal  4   5        ; _T
00DD1E  0C414488           [041] settable   4   272 273  ; "gSkipExtractionTimer" 0
00DD22  13018001           [042] getupval   4   3      
00DD26  0E814402           [043] gettable   4   4   274  ; -1903315282
00DD2A  22418000           [044] call       4   1   1  
00DD2E  13010002           [045] getupval   4   4      
00DD32  0EC14402           [046] gettable   4   4   275  ; 198248041
00DD36  22818000           [047] call       4   1   2  
00DD3A  64014502           [048] self       5   4   276  ; -2145913200
00DD3E  DD410500           [049] getglobal  7   21       ; Lotus_Game
00DD42  CE81C503           [050] gettable   7   7   278  ; "BaseMarkerInfo_DR_NONE"
00DD46  62418001           [051] call       5   3   1  
00DD4A  5D010000           [052] getglobal  5   0        ; gRegion
00DD4E  6441C002           [053] self       5   5   257  ; -1520831144
00DD52  62810001           [054] call       5   2   2  
00DD56  58010000           [055] test       5       0    ; to [57] if true
00DD5A  1A404D80           [056] jmp        310          ; to [367]
00DD5E  53010002           [057] getupval   5   4      
00DD62  4EC1C502           [058] gettable   5   5   279  ; -1265610197
00DD66  97018000           [059] loadbool   6   1   0    ; true
00DD6A  62410001           [060] call       5   2   1  
00DD6E  5D010000           [061] getglobal  5   0        ; gRegion
00DD72  6401C602           [062] self       5   5   280  ; 152279552
00DD76  DD410600           [063] getglobal  7   25       ; survivalProgressBarActionType
00DD7A  62818001           [064] call       5   3   2  
00DD7E  99810600           [065] loadk      6   26       ; 0
00DD82  CA018002           [066] len        7   5      
00DD86  19820600           [067] loadk      8   26       ; 0
00DD8A  90C10080           [068] forprep    6   4        ; to [73]
00DD8E  8E428202           [069] gettable   10  5   9  
00DD92  A4C24605           [070] self       10  10  283  ; -1923578185
00DD96  19030700           [071] loadk      12  28       ; "Disable"
00DD9A  A2428001           [072] call       10  3   1  
00DD9E  9481FE7F           [073] forloop    6   -5       ; to [69] if loop
00DDA2  9D020000           [074] getglobal  10  0        ; gRegion
00DDA6  A4424705           [075] self       10  10  285  ; -1485896174
00DDAA  1D830300           [076] getglobal  12  14       ; -332969190
00DDAE  59830700           [077] loadk      13  30       ; "ArtifactDeco"
00DDB2  22030001           [078] call       12  2   0  
00DDB6  A2820000           [079] call       10  0   2  
00DDBA  D9820600           [080] loadk      11  26       ; 0
00DDBE  0A030005           [081] len        12  10     
00DDC2  59830600           [082] loadk      13  26       ; 0
00DDC6  D0C20080           [083] forprep    11  4        ; to [88]
00DDCA  CE830305           [084] gettable   15  10  14 
00DDCE  E4C3C607           [085] self       15  15  283  ; -1923578185
00DDD2  59C40700           [086] loadk      17  31       ; "Hide"
00DDD6  E2438001           [087] call       15  3   1  
00DDDA  D482FE7F           [088] forloop    11  -5       ; to [84] if loop
00DDDE  DD030000           [089] getglobal  15  0        ; gRegion
00DDE2  E403C607           [090] self       15  15  280  ; 152279552
00DDE6  5D040800           [091] getglobal  17  32       ; capsuleIncomingEffect
00DDEA  E2838001           [092] call       15  3   2  
00DDEE  19840600           [093] loadk      16  26       ; 0
00DDF2  4A048007           [094] len        17  15     
00DDF6  99840600           [095] loadk      18  26       ; 0
00DDFA  10840080           [096] forprep    16  3        ; to [100]
00DDFE  0EC58407           [097] gettable   20  15  19 
00DE02  2445480A           [098] self       20  20  289  ; -725453761
00DE06  22450001           [099] call       20  2   1  
00DE0A  14C4FE7F           [100] forloop    16  -4       ; to [97] if loop
00DE0E  1D050000           [101] getglobal  20  0        ; gRegion
00DE12  2445470A           [102] self       20  20  285  ; -1485896174
00DE16  9D850300           [103] getglobal  22  14       ; -332969190
00DE1A  D9850800           [104] loadk      23  34       ; "ArtifactObjMarker"
00DE1E  A2050001           [105] call       22  2   0  
00DE22  22850000           [106] call       20  0   2  
00DE26  59850600           [107] loadk      21  26       ; 0
00DE2A  8A05000A           [108] len        22  20     
00DE2E  D9850600           [109] loadk      23  26       ; 0
00DE32  50C50080           [110] forprep    21  4        ; to [115]
00DE36  4E06060A           [111] gettable   25  20  24 
00DE3A  64C6C60C           [112] self       25  25  283  ; -1923578185
00DE3E  D9060700           [113] loadk      27  28       ; "Disable"
00DE42  62468001           [114] call       25  3   1  
00DE46  5485FE7F           [115] forloop    21  -5       ; to [111] if loop
00DE4A  5D060000           [116] getglobal  25  0        ; gRegion
00DE4E  6406C60C           [117] self       25  25  280  ; 152279552
00DE52  DDC60800           [118] getglobal  27  35       ; timeAddPickup
00DE56  62868001           [119] call       25  3   2  
00DE5A  99860600           [120] loadk      26  26       ; 0
00DE5E  CA06800C           [121] len        27  25     
00DE62  19870600           [122] loadk      28  26       ; 0
00DE66  90860080           [123] forprep    26  3        ; to [127]
00DE6A  8E47870C           [124] gettable   30  25  29 
00DE6E  A447480F           [125] self       30  30  289  ; -725453761
00DE72  A2470001           [126] call       30  2   1  
00DE76  94C6FE7F           [127] forloop    26  -4       ; to [124] if loop
00DE7A  9D070000           [128] getglobal  30  0        ; gRegion
00DE7E  A407490F           [129] self       30  30  292  ; 630793108
00DE82  1D480900           [130] getglobal  32  37       ; supportDepletedSound
00DE86  5D880900           [131] getglobal  33  38       ; 572299008
00DE8A  62888000           [132] call       33  1   2  
00DE8E  97080000           [133] loadbool   34  0   0    ; false
00DE92  A2478002           [134] call       30  5   1  
00DE96  93078002           [135] getupval   30  5      
00DE9A  A2878000           [136] call       30  1   2  
00DE9E  E447C200           [137] self       31  1   265  ; -317790213
00DEA2  53080003           [138] getupval   33  6      
00DEA6  E2878001           [139] call       31  3   2  
00DEAA  1D480100           [140] getglobal  32  5        ; _T
00DEAE  0EC84910           [141] gettable   32  32  295  ; "MissionComplete"
00DEB2  18080000           [142] test       32      0    ; to [144] if true
00DEB6  1A000080           [143] jmp        1            ; to [145]
00DEBA  1E008000           [144] return     0   1      
00DEBE  1D080A00           [145] getglobal  32  40       ; math
00DEC2  0E484A10           [146] gettable   32  32  297  ; -150971781
00DEC6  5208800F           [147] move       33  31     
00DECA  22880001           [148] call       32  2   2  
00DECE  64C8C000           [149] self       33  1   259  ; -803877924
00DED2  D3080003           [150] getupval   35  6      
00DED6  12090010           [151] move       36  32     
00DEDA  62480002           [152] call       33  4   1  
00DEDE  59880A00           [153] loadk      33  42       ; 0
00DEE2  98070000           [154] test       30      0    ; to [156] if true
00DEE6  1A400280           [155] jmp        10           ; to [166]
00DEEA  93088003           [156] getupval   34  7      
fail op	21
00DEEE  15800810           [157] concat     0   32  34 
00DEF2  1AC00080           [158] jmp        4            ; to [163]
00DEF6  93080004           [159] getupval   34  8      
00DEFA  D3088004           [160] getupval   35  9      
00DEFE  A2880001           [161] call       34  2   2  
00DF02  52080011           [162] move       33  34     
00DF06  93088005           [163] getupval   34  11     
fail op	8
00DF0A  88080005           [164] setupval   34  10     
00DF0E  1AC00080           [165] jmp        4            ; to [170]
00DF12  93080004           [166] getupval   34  8      
00DF16  D3088004           [167] getupval   35  9      
00DF1A  A2880001           [168] call       34  2   2  
00DF1E  52080011           [169] move       33  34     
00DF22  93080006           [170] getupval   34  12     
00DF26  9F88880F           [171] mod        34  31  34 
fail op	21
00DF2A  15C00011           [172] concat     0   34  3  
00DF2E  1A402080           [173] jmp        130          ; to [304]
00DF32  9D080000           [174] getglobal  34  0        ; gRegion
00DF36  A4C84A11           [175] self       34  34  299  ; -2071158816
00DF3A  A2880001           [176] call       34  2   2  
00DF3E  DD080B00           [177] getglobal  35  44       ; 1074689893
00DF42  12090011           [178] move       36  34     
00DF46  E2880001           [179] call       35  2   2  
00DF4A  D8480000           [180] test       35      1    ; to [182] if false
00DF4E  1A401E80           [181] jmp        122          ; to [304]
00DF52  DD080000           [182] getglobal  35  0        ; gRegion
00DF56  E448C011           [183] self       35  35  257  ; -1520831144
00DF5A  E2880001           [184] call       35  2   2  
00DF5E  D8080000           [185] test       35      0    ; to [187] if true
00DF62  1A001D80           [186] jmp        117          ; to [304]
00DF66  D9880600           [187] loadk      35  26       ; 0
00DF6A  0A090011           [188] len        36  34     
00DF6E  59890600           [189] loadk      37  26       ; 0
00DF72  D0C81B80           [190] forprep    35  112      ; to [303]
00DF76  DD090B00           [191] getglobal  39  44       ; 1074689893
00DF7A  0E8A0911           [192] gettable   40  34  38 
00DF7E  E2890001           [193] call       39  2   2  
00DF82  D8490000           [194] test       39      1    ; to [196] if false
00DF86  1A801A80           [195] jmp        107          ; to [303]
00DF8A  CE890911           [196] gettable   39  34  38 
00DF8E  E449CB13           [197] self       39  39  301  ; -1544157541
00DF92  E2890001           [198] call       39  2   2  
00DF96  0E8A0911           [199] gettable   40  34  38 
00DF9A  248A4B14           [200] self       40  40  302  ; 796523475
00DF9E  228A0001           [201] call       40  2   2  
00DFA2  59CA0B00           [202] loadk      41  47       ; 0
00DFA6  8E8A0911           [203] gettable   42  34  38 
00DFAA  A40A4C15           [204] self       42  42  304  ; 945541886
00DFAE  A28A0001           [205] call       42  2   2  
00DFB2  D30A0005           [206] getupval   43  10     
00DFB6  84CA0A15           [207] mul        42  42  43 
00DFBA  DD0A0A00           [208] getglobal  43  40       ; math
00DFBE  CE4ACA15           [209] gettable   43  43  297  ; -150971781
00DFC2  130B8006           [210] getupval   44  13     
00DFC6  530B0007           [211] getupval   45  14     
00DFCA  444B8B0F           [212] mul        45  31  45 
00DFCE  0F4B0B16           [213] unm        44  44     
00DFD2  040B0B15           [214] mul        44  42  44 
00DFD6  E28A0001           [215] call       43  2   2  
fail op	21
00DFDA  15000A95           [216] concat     0   298 40 
00DFDE  1A801180           [217] jmp        71           ; to [289]
00DFE2  0E8B0911           [218] gettable   44  34  38 
00DFE6  244B4C16           [219] self       44  44  305  ; 1511086594
00DFEA  228B0001           [220] call       44  2   2  
00DFEE  184B0000           [221] test       44      1    ; to [223] if false
00DFF2  1A401080           [222] jmp        66           ; to [289]
00DFF6  1D0B0B00           [223] getglobal  44  44       ; 1074689893
00DFFA  520B8013           [224] move       45  39     
00DFFE  228B0001           [225] call       44  2   2  
00E002  184B0000           [226] test       44      1    ; to [228] if false
00E006  1A000F80           [227] jmp        61           ; to [289]
00E00A  248BCC13           [228] self       44  39  306  ; -1519595333
00E00E  228B0001           [229] call       44  2   2  
00E012  184B0000           [230] test       44      1    ; to [232] if false
00E016  1A000E80           [231] jmp        57           ; to [289]
00E01A  24CBCC13           [232] self       44  39  307  ; -1583259949
00E01E  228B0001           [233] call       44  2   2  
fail op	33
00E022  21804A16           [234] tforloop   0       298  ; to [236] if exit
00E026  1A000880           [235] jmp        33           ; to [269]
00E02A  1D0B0A00           [236] getglobal  44  40       ; math
00E02E  0E0B4D16           [237] gettable   44  44  308  ; -1962864584
00E032  4DCB0A14           [238] sub        45  40  43 
00E036  920B8014           [239] move       46  41     
00E03A  228B8001           [240] call       44  3   2  
00E03E  4E8B0911           [241] gettable   45  34  38 
00E042  644BCD16           [242] self       45  45  309  ; 1992436207
00E046  D20B0016           [243] move       47  44     
00E04A  624B8001           [244] call       45  3   1  
00E04E  5D8B0300           [245] getglobal  45  14       ; -332969190
00E052  998B0D00           [246] loadk      46  54       ; "IronSkinDM"
00E056  628B0001           [247] call       45  2   2  
00E05A  8E8B0911           [248] gettable   46  34  38 
00E05E  A44B4B17           [249] self       46  46  301  ; -1544157541
00E062  A28B0001           [250] call       46  2   2  
00E066  DD0B0B00           [251] getglobal  47  44       ; 1074689893
00E06A  120C0017           [252] move       48  46     
00E06E  E28B0001           [253] call       47  2   2  
00E072  D84B0000           [254] test       47      1    ; to [256] if false
00E076  1A000380           [255] jmp        13           ; to [269]
00E07A  CE8B0911           [256] gettable   47  34  38 
00E07E  E48BCB17           [257] self       47  47  302  ; 796523475
00E082  E28B0001           [258] call       47  2   2  
fail op	21
00E086  15C0CD17           [259] concat     0   47  311
00E08A  1AC00180           [260] jmp        8            ; to [269]
00E08E  E40B4E17           [261] self       47  46  312  ; -1555898369
00E092  520C8016           [262] move       49  45     
00E096  E28B8001           [263] call       47  3   2  
fail op	21
00E09A  15C00B95           [264] concat     0   298 47 
00E09E  1A800080           [265] jmp        3            ; to [269]
00E0A2  E44B4E17           [266] self       47  46  313  ; 848276485
00E0A6  520C8016           [267] move       49  45     
00E0AA  E24B8001           [268] call       47  3   1  
00E0AE  CE8B0911           [269] gettable   47  34  38 
00E0B2  E48BCE17           [270] self       47  47  314  ; -1917464545
00E0B6  E28B0001           [271] call       47  2   2  
00E0BA  E4CBCE17           [272] self       47  47  315  ; 1769516121
00E0BE  E28B0001           [273] call       47  2   2  
00E0C2  24CCCC13           [274] self       48  39  307  ; -1583259949
00E0C6  228C0001           [275] call       48  2   2  
00E0CA  5D0C0A00           [276] getglobal  49  40       ; math
00E0CE  4E0CCD18           [277] gettable   49  49  308  ; -1962864584
00E0D2  8DCC0A18           [278] sub        50  48  43 
00E0D6  D98C0A00           [279] loadk      51  42       ; 0
00E0DA  628C8001           [280] call       49  3   2  
00E0DE  A40CCF13           [281] self       50  39  316  ; -1992773175
00E0E2  120D8018           [282] move       52  49     
00E0E6  A24C8001           [283] call       50  3   1  
fail op	33
00E0EA  2180CA18           [284] tforloop   0       298  ; to [286] if exit
00E0EE  1A800080           [285] jmp        3            ; to [289]
00E0F2  A44CCF13           [286] self       50  39  317  ; -1814078075
00E0F6  198D0A00           [287] loadk      52  42       ; 0
00E0FA  A24C8001           [288] call       50  3   1  
00E0FE  9D8C0F00           [289] getglobal  50  62       ; useInfestedFogGradient
00E102  984C0000           [290] test       50      1    ; to [292] if false
00E106  1A800280           [291] jmp        11           ; to [303]
00E10A  9D4C0100           [292] getglobal  50  5        ; _T
00E10E  8ECC4F19           [293] gettable   50  50  319  ; "faction"
00E112  DD8C0300           [294] getglobal  51  14       ; -332969190
00E116  190D1000           [295] loadk      52  64       ; "Infestation"
00E11A  E28C0001           [296] call       51  2   2  
fail op	35
00E11E  63C00C19           [297] close      1  
00E122  1AC00080           [298] jmp        4            ; to [303]
00E126  8E8C0911           [299] gettable   50  34  38 
00E12A  A44C5019           [300] self       50  50  321  ; -1444325826
00E12E  170D8000           [301] loadbool   52  1   0    ; true
00E132  A24C8001           [302] call       50  3   1  
00E136  D488E37F           [303] forloop    35  -113     ; to [191] if loop
00E13A  930C8007           [304] getupval   50  15     
fail op	21
00E13E  15C00719           [305] concat     0   50  31 
00E142  1A400580           [306] jmp        22           ; to [329]
00E146  98470000           [307] test       30      1    ; to [309] if false
00E14A  1AC00480           [308] jmp        20           ; to [329]
00E14E  9DCC0200           [309] getglobal  50  11       ; -1817107093
00E152  D98C1000           [310] loadk      51  66       ; "Survival: 5 minutes elapsed after life support ran out, mission failed."
00E156  A24C0001           [311] call       50  2   1  
00E15A  930C0008           [312] getupval   50  16     
00E15E  8ECC5019           [313] gettable   50  50  323  ; 387243374
00E162  A24C8000           [314] call       50  1   1  
00E166  930C0008           [315] getupval   50  16     
00E16A  8E0C5119           [316] gettable   50  50  324  ; -1084877855
00E16E  D30C0008           [317] getupval   51  16     
00E172  CE4CD119           [318] gettable   51  51  325  ; "INITIATOR_FAILURE"
00E176  A24C0001           [319] call       50  2   1  
00E17A  A4CCC000           [320] self       50  1   259  ; -803877924
00E17E  130D8000           [321] getupval   52  1      
00E182  598D0A00           [322] loadk      53  42       ; 0
00E186  A24C0002           [323] call       50  4   1  
00E18A  A48CD100           [324] self       50  1   326  ; -34409044
00E18E  1DCD1100           [325] getglobal  52  71       ; Engine
00E192  0E0D521A           [326] gettable   52  52  328  ; "GameRules_GS_FAILURE"
00E196  A24C8001           [327] call       50  3   1  
00E19A  1E008000           [328] return     0   1      
00E19E  930C8002           [329] getupval   50  5      
00E1A2  A28C8000           [330] call       50  1   2  
00E1A6  980C0000           [331] test       50      0    ; to [333] if true
00E1AA  1A800080           [332] jmp        3            ; to [336]
00E1AE  930C0009           [333] getupval   50  18     
00E1B2  A28C8000           [334] call       50  1   2  
fail op	8
00E1B6  880C8008           [335] setupval   50  17     
fail op	21
00E1BA  15C08797           [336] concat     0   303 31 
00E1BE  1A800580           [337] jmp        23           ; to [361]
00E1C2  930C8008           [338] getupval   50  17     
fail op	21
00E1C6  15800C01           [339] concat     0   2   50 
00E1CA  1AC00480           [340] jmp        20           ; to [361]
00E1CE  9DCC0200           [341] getglobal  50  11       ; -1817107093
00E1D2  D94C1200           [342] loadk      51  73       ; "Survival: Life support ran out before first reward reached, mission failed."
00E1D6  A24C0001           [343] call       50  2   1  
00E1DA  930C0008           [344] getupval   50  16     
00E1DE  8ECC5019           [345] gettable   50  50  323  ; 387243374
00E1E2  A24C8000           [346] call       50  1   1  
00E1E6  930C0008           [347] getupval   50  16     
00E1EA  8E0C5119           [348] gettable   50  50  324  ; -1084877855
00E1EE  D30C0008           [349] getupval   51  16     
00E1F2  CE4CD119           [350] gettable   51  51  325  ; "INITIATOR_FAILURE"
00E1F6  A24C0001           [351] call       50  2   1  
00E1FA  A4CCC000           [352] self       50  1   259  ; -803877924
00E1FE  130D8000           [353] getupval   52  1      
00E202  598D0A00           [354] loadk      53  42       ; 0
00E206  A24C0002           [355] call       50  4   1  
00E20A  A48CD100           [356] self       50  1   326  ; -34409044
00E20E  1DCD1100           [357] getglobal  52  71       ; Engine
00E212  0E0D521A           [358] gettable   52  52  328  ; "GameRules_GS_FAILURE"
00E216  A24C8001           [359] call       50  3   1  
00E21A  1E008000           [360] return     0   1      
00E21E  83CC800F           [361] add        50  31  3  
00E222  C3470819           [362] add        31  50  33 
00E226  9D8C1200           [363] getglobal  50  74       ; 538022378
00E22A  D20C8001           [364] move       51  3      
00E22E  A24C0001           [365] call       50  2   1  
00E232  1A00C77F           [366] jmp        -227         ; to [140]
00E236  1E008000           [367] return     0   1      
                           * constants:
00E23A  4B                 sizek (75)
00E23B  04                 const type 4
00E23C  08                 string size (8)
00E23D  67526567696F6E00   "gRegion\0"
                           const [0]: "gRegion"
00E245  01                 const type 3
00E246  58F559A5           const [1]: (-1520831144)
00E24A  04                 const type 4
00E24B  0B                 string size (11)
00E24C  6747616D6552756C+  "gGameRul"
00E254  657300             "es\0"
                           const [2]: "gGameRules"
00E257  01                 const type 3
00E258  DCCB15D0           const [3]: (-803877924)
00E25C  03                 const type 3
00E25D  00008040           const [4]: (0)
00E261  04                 const type 4
00E262  03                 string size (3)
00E263  5F5400             "_T\0"
                           const [5]: "_T"
00E266  04                 const type 4
00E267  0F                 string size (15)
00E268  4C69666553757070+  "LifeSupp"
00E270  6F727442617200     "ortBar\0"
                           const [6]: "LifeSupportBar"
00E277  01                 const type 3
00E278  EC6E8613           const [7]: (327577324)
00E27C  00                 const type 0
                           const [8]: nil
00E27D  01                 const type 3
00E27E  FBE70EED           const [9]: (-317790213)
00E282  03                 const type 3
00E283  0000803E           const [10]: (0)
00E287  01                 const type 3
00E288  6B25B193           const [11]: (-1817107093)
00E28C  04                 const type 4
00E28D  23                 string size (35)
00E28E  537572766976616C+  "Survival"
00E296  3A204C6966652073+  ": Life s"
00E29E  7570706F72742072+  "upport r"
00E2A6  616E206F75742061+  "an out a"
00E2AE  742000             "t \0"
                           const [12]: "Survival: Life support ran out at "
00E2B1  01                 const type 3
00E2B2  BD6A1BF1           const [13]: (-249861443)
00E2B6  01                 const type 3
00E2B7  1A4B27EC           const [14]: (-332969190)
00E2BB  03                 const type 3
00E2BC  000080BF           const [15]: (0)
00E2C0  04                 const type 4
00E2C1  15                 string size (21)
00E2C2  67536B6970457874+  "gSkipExt"
00E2CA  72616374696F6E54+  "ractionT"
00E2D2  696D657200         "imer\0"
                           const [16]: "gSkipExtractionTimer"
00E2D7  01                 const type 3
00E2D8  00000000           const [17]: (0)
00E2DC  01                 const type 3
00E2DD  AEB68D8E           const [18]: (-1903315282)
00E2E1  01                 const type 3
00E2E2  6906D10B           const [19]: (198248041)
00E2E6  01                 const type 3
00E2E7  90F61780           const [20]: (-2145913200)
00E2EB  04                 const type 4
00E2EC  0B                 string size (11)
00E2ED  4C6F7475735F4761+  "Lotus_Ga"
00E2F5  6D6500             "me\0"
                           const [21]: "Lotus_Game"
00E2F8  04                 const type 4
00E2F9  17                 string size (23)
00E2FA  426173654D61726B+  "BaseMark"
00E302  6572496E666F5F44+  "erInfo_D"
00E30A  525F4E4F4E4500     "R_NONE\0"
                           const [22]: "BaseMarkerInfo_DR_NONE"
00E311  01                 const type 3
00E312  2B5290B4           const [23]: (-1265610197)
00E316  01                 const type 3
00E317  009A1309           const [24]: (152279552)
00E31B  04                 const type 4
00E31C  1E                 string size (30)
00E31D  737572766976616C+  "survival"
00E325  50726F6772657373+  "Progress"
00E32D  426172416374696F+  "BarActio"
00E335  6E5479706500       "nType\0"
                           const [25]: "survivalProgressBarActionType"
00E33B  03                 const type 3
00E33C  0000803F           const [26]: (0)
00E340  01                 const type 3
00E341  B786588D           const [27]: (-1923578185)
00E345  04                 const type 4
00E346  08                 string size (8)
00E347  44697361626C6500   "Disable\0"
                           const [28]: "Disable"
00E34F  01                 const type 3
00E350  12066FA7           const [29]: (-1485896174)
00E354  04                 const type 4
00E355  0D                 string size (13)
00E356  4172746966616374+  "Artifact"
00E35E  4465636F00         "Deco\0"
                           const [30]: "ArtifactDeco"
00E363  04                 const type 4
00E364  05                 string size (5)
00E365  4869646500         "Hide\0"
                           const [31]: "Hide"
00E36A  04                 const type 4
00E36B  16                 string size (22)
00E36C  63617073756C6549+  "capsuleI"
00E374  6E636F6D696E6745+  "ncomingE"
00E37C  666665637400       "ffect\0"
                           const [32]: "capsuleIncomingEffect"
00E382  01                 const type 3
00E383  3F74C2D4           const [33]: (-725453761)
00E387  04                 const type 4
00E388  12                 string size (18)
00E389  4172746966616374+  "Artifact"
00E391  4F626A4D61726B65+  "ObjMarke"
00E399  7200               "r\0"
                           const [34]: "ArtifactObjMarker"
00E39B  04                 const type 4
00E39C  0E                 string size (14)
00E39D  74696D6541646450+  "timeAddP"
00E3A5  69636B757000       "ickup\0"
                           const [35]: "timeAddPickup"
00E3AB  01                 const type 3
00E3AC  94239925           const [36]: (630793108)
00E3B0  04                 const type 4
00E3B1  15                 string size (21)
00E3B2  737570706F727444+  "supportD"
00E3BA  65706C6574656453+  "epletedS"
00E3C2  6F756E6400         "ound\0"
                           const [37]: "supportDepletedSound"
00E3C7  01                 const type 3
00E3C8  00971C22           const [38]: (572299008)
00E3CC  04                 const type 4
00E3CD  10                 string size (16)
00E3CE  4D697373696F6E43+  "MissionC"
00E3D6  6F6D706C65746500   "omplete\0"
                           const [39]: "MissionComplete"
00E3DE  04                 const type 4
00E3DF  05                 string size (5)
00E3E0  6D61746800         "math\0"
                           const [40]: "math"
00E3E5  01                 const type 3
00E3E6  7B5A00F7           const [41]: (-150971781)
00E3EA  03                 const type 3
00E3EB  00000000           const [42]: (0)
00E3EF  01                 const type 3
00E3F0  E09F8C84           const [43]: (-2071158816)
00E3F4  01                 const type 3
00E3F5  65770E40           const [44]: (1074689893)
00E3F9  01                 const type 3
00E3FA  9B06F6A3           const [45]: (-1544157541)
00E3FE  01                 const type 3
00E3FF  D3FB792F           const [46]: (796523475)
00E403  03                 const type 3
00E404  0000A040           const [47]: (0)
00E408  01                 const type 3
00E409  FED25B38           const [48]: (945541886)
00E40D  01                 const type 3
00E40E  025A115A           const [49]: (1511086594)
00E412  01                 const type 3
00E413  BBD06CA5           const [50]: (-1519595333)
00E417  01                 const type 3
00E418  D35EA1A1           const [51]: (-1583259949)
00E41C  01                 const type 3
00E41D  3810018B           const [52]: (-1962864584)
00E421  01                 const type 3
00E422  EF29C276           const [53]: (1992436207)
00E426  04                 const type 4
00E427  0B                 string size (11)
00E428  49726F6E536B696E+  "IronSkin"
00E430  444D00             "DM\0"
                           const [54]: "IronSkinDM"
00E433  03                 const type 3
00E434  0000A041           const [55]: (0)
00E438  01                 const type 3
00E439  FFDF42A3           const [56]: (-1555898369)
00E43D  01                 const type 3
00E43E  05AC8F32           const [57]: (848276485)
00E442  01                 const type 3
00E443  1FD0B58D           const [58]: (-1917464545)
00E447  01                 const type 3
00E448  59AC7869           const [59]: (1769516121)
00E44C  01                 const type 3
00E44D  C9B13889           const [60]: (-1992773175)
00E451  01                 const type 3
00E452  855DDF93           const [61]: (-1814078075)
00E456  04                 const type 4
00E457  17                 string size (23)
00E458  757365496E666573+  "useInfes"
00E460  746564466F674772+  "tedFogGr"
00E468  616469656E7400     "adient\0"
                           const [62]: "useInfestedFogGradient"
00E46F  04                 const type 4
00E470  08                 string size (8)
00E471  66616374696F6E00   "faction\0"
                           const [63]: "faction"
00E479  04                 const type 4
00E47A  0C                 string size (12)
00E47B  496E666573746174+  "Infestat"
00E483  696F6E00           "ion\0"
                           const [64]: "Infestation"
00E487  01                 const type 3
00E488  3E56E9A9           const [65]: (-1444325826)
00E48C  04                 const type 4
00E48D  48                 string size (72)
00E48E  537572766976616C+  "Survival"
00E496  3A2035206D696E75+  ": 5 minu"
00E49E  74657320656C6170+  "tes elap"
00E4A6  7365642061667465+  "sed afte"
00E4AE  72206C6966652073+  "r life s"
00E4B6  7570706F72742072+  "upport r"
00E4BE  616E206F75742C20+  "an out, "
00E4C6  6D697373696F6E20+  "mission "
00E4CE  6661696C65642E00   "failed.\0"
                           const [66]: "Survival: 5 minutes elapsed after life support ran out, mission failed."
00E4D6  01                 const type 3
00E4D7  6EDD1417           const [67]: (387243374)
00E4DB  01                 const type 3
00E4DC  E11356BF           const [68]: (-1084877855)
00E4E0  04                 const type 4
00E4E1  12                 string size (18)
00E4E2  494E49544941544F+  "INITIATO"
00E4EA  525F4641494C5552+  "R_FAILUR"
00E4F2  4500               "E\0"
                           const [69]: "INITIATOR_FAILURE"
00E4F4  01                 const type 3
00E4F5  ACF5F2FD           const [70]: (-34409044)
00E4F9  04                 const type 4
00E4FA  07                 string size (7)
00E4FB  456E67696E6500     "Engine\0"
                           const [71]: "Engine"
00E502  04                 const type 4
00E503  15                 string size (21)
00E504  47616D6552756C65+  "GameRule"
00E50C  735F47535F464149+  "s_GS_FAI"
00E514  4C55524500         "LURE\0"
                           const [72]: "GameRules_GS_FAILURE"
00E519  04                 const type 4
00E51A  4C                 string size (76)
00E51B  537572766976616C+  "Survival"
00E523  3A204C6966652073+  ": Life s"
00E52B  7570706F72742072+  "upport r"
00E533  616E206F75742062+  "an out b"
00E53B  65666F7265206669+  "efore fi"
00E543  7273742072657761+  "rst rewa"
00E54B  7264207265616368+  "rd reach"
00E553  65642C206D697373+  "ed, miss"
00E55B  696F6E206661696C+  "ion fail"
00E563  65642E00           "ed.\0"
                           const [73]: "Survival: Life support ran out before first reward reached, mission failed."
00E567  01                 const type 3
00E568  EA911120           const [74]: (538022378)
                           * functions:
00E56C  00                 sizep (0)
                           * lines:
00E56E  02                 sizelineinfo (367)
                           [pc] (line)
00E56F  21                 [001] (33)
00E570  09                 [002] (33)
00E571  00                 [003] (33)
00E572  00                 [004] (33)
00E573  21                 [005] (33)
00E574  09                 [006] (34)
00E575  00                 [007] (34)
00E576  00                 [008] (34)
00E577  21                 [009] (34)
00E578  09                 [010] (34)
00E579  00                 [011] (37)
00E57A  00                 [012] (39)
00E57B  21                 [013] (39)
00E57C  09                 [014] (39)
00E57D  00                 [015] (39)
00E57E  00                 [016] (40)
00E57F  21                 [017] (40)
00E580  09                 [018] (40)
00E581  00                 [019] (40)
00E582  00                 [020] (40)
00E583  22                 [021] (41)
00E584  09                 [022] (41)
00E585  00                 [023] (44)
00E586  00                 [024] (44)
00E587  22                 [025] (44)
00E588  09                 [026] (45)
00E589  00                 [027] (46)
00E58A  00                 [028] (46)
00E58B  22                 [029] (46)
00E58C  09                 [030] (46)
00E58D  00                 [031] (46)
00E58E  00                 [032] (48)
00E58F  22                 [033] (48)
00E590  09                 [034] (48)
00E591  00                 [035] (48)
00E592  00                 [036] (48)
00E593  22                 [037] (48)
00E594  09                 [038] (48)
00E595  00                 [039] (48)
00E596  00                 [040] (49)
00E597  25                 [041] (49)
00E598  09                 [042] (51)
00E599  00                 [043] (51)
00E59A  00                 [044] (51)
00E59B  27                 [045] (52)
00E59C  09                 [046] (52)
00E59D  00                 [047] (52)
00E59E  00                 [048] (53)
00E59F  27                 [049] (53)
00E5A0  09                 [050] (53)
00E5A1  00                 [051] (53)
00E5A2  00                 [052] (55)
00E5A3  27                 [053] (55)
00E5A4  09                 [054] (55)
00E5A5  00                 [055] (55)
00E5A6  00                 [056] (55)
00E5A7  27                 [057] (56)
00E5A8  09                 [058] (56)
00E5A9  00                 [059] (56)
00E5AA  00                 [060] (56)
00E5AB  28                 [061] (59)
00E5AC  09                 [062] (59)
00E5AD  00                 [063] (59)
00E5AE  00                 [064] (59)
00E5AF  28                 [065] (60)
00E5B0  09                 [066] (60)
00E5B1  00                 [067] (60)
00E5B2  00                 [068] (60)
00E5B3  28                 [069] (61)
00E5B4  09                 [070] (61)
00E5B5  00                 [071] (61)
00E5B6  00                 [072] (61)
00E5B7  28                 [073] (60)
00E5B8  09                 [074] (63)
00E5B9  00                 [075] (63)
00E5BA  00                 [076] (63)
00E5BB  28                 [077] (63)
00E5BC  09                 [078] (63)
00E5BD  00                 [079] (63)
00E5BE  00                 [080] (64)
00E5BF  29                 [081] (64)
00E5C0  09                 [082] (64)
00E5C1  00                 [083] (64)
00E5C2  00                 [084] (65)
00E5C3  29                 [085] (65)
00E5C4  09                 [086] (65)
00E5C5  00                 [087] (65)
00E5C6  00                 [088] (64)
00E5C7  2C                 [089] (68)
00E5C8  09                 [090] (68)
00E5C9  00                 [091] (68)
00E5CA  00                 [092] (68)
00E5CB  2C                 [093] (69)
00E5CC  09                 [094] (69)
00E5CD  00                 [095] (69)
00E5CE  00                 [096] (69)
00E5CF  2C                 [097] (70)
00E5D0  09                 [098] (70)
00E5D1  00                 [099] (70)
00E5D2  00                 [100] (69)
00E5D3  2D                 [101] (72)
00E5D4  09                 [102] (72)
00E5D5  00                 [103] (72)
00E5D6  00                 [104] (72)
00E5D7  2E                 [105] (72)
00E5D8  09                 [106] (72)
00E5D9  00                 [107] (73)
00E5DA  00                 [108] (73)
00E5DB  2E                 [109] (73)
00E5DC  09                 [110] (73)
00E5DD  00                 [111] (74)
00E5DE  00                 [112] (74)
00E5DF  2E                 [113] (74)
00E5E0  09                 [114] (74)
00E5E1  00                 [115] (73)
00E5E2  00                 [116] (76)
00E5E3  2E                 [117] (76)
00E5E4  09                 [118] (76)
00E5E5  00                 [119] (76)
00E5E6  00                 [120] (77)
00E5E7  2E                 [121] (77)
00E5E8  09                 [122] (77)
00E5E9  00                 [123] (77)
00E5EA  00                 [124] (78)
00E5EB  30                 [125] (78)
00E5EC  09                 [126] (78)
00E5ED  00                 [127] (77)
00E5EE  00                 [128] (82)
00E5EF  30                 [129] (82)
00E5F0  09                 [130] (82)
00E5F1  00                 [131] (82)
00E5F2  00                 [132] (82)
00E5F3  30                 [133] (82)
00E5F4  09                 [134] (82)
00E5F5  00                 [135] (86)
00E5F6  00                 [136] (86)
00E5F7  30                 [137] (90)
00E5F8  09                 [138] (90)
00E5F9  00                 [139] (90)
00E5FA  00                 [140] (92)
00E5FB  30                 [141] (92)
00E5FC  09                 [142] (92)
00E5FD  00                 [143] (92)
00E5FE  00                 [144] (93)
00E5FF  30                 [145] (96)
00E600  09                 [146] (96)
00E601  00                 [147] (96)
00E602  00                 [148] (96)
00E603  30                 [149] (97)
00E604  09                 [150] (97)
00E605  00                 [151] (97)
00E606  00                 [152] (97)
00E607  30                 [153] (100)
00E608  09                 [154] (101)
00E609  00                 [155] (101)
00E60A  00                 [156] (102)
00E60B  31                 [157] (102)
00E60C  09                 [158] (102)
00E60D  00                 [159] (103)
00E60E  00                 [160] (103)
00E60F  31                 [161] (103)
00E610  09                 [162] (103)
00E611  00                 [163] (105)
00E612  00                 [164] (105)
00E613  33                 [165] (105)
00E614  09                 [166] (107)
00E615  00                 [167] (107)
00E616  00                 [168] (107)
00E617  33                 [169] (107)
00E618  09                 [170] (110)
00E619  00                 [171] (110)
00E61A  00                 [172] (110)
00E61B  33                 [173] (110)
00E61C  09                 [174] (111)
00E61D  00                 [175] (111)
00E61E  00                 [176] (111)
00E61F  34                 [177] (113)
00E620  09                 [178] (113)
00E621  00                 [179] (113)
00E622  00                 [180] (113)
00E623  34                 [181] (113)
00E624  09                 [182] (113)
00E625  00                 [183] (113)
00E626  00                 [184] (113)
00E627  34                 [185] (113)
00E628  09                 [186] (113)
00E629  00                 [187] (114)
00E62A  00                 [188] (114)
00E62B  35                 [189] (114)
00E62C  09                 [190] (114)
00E62D  00                 [191] (115)
00E62E  00                 [192] (115)
00E62F  35                 [193] (115)
00E630  09                 [194] (115)
00E631  00                 [195] (115)
00E632  00                 [196] (117)
00E633  35                 [197] (117)
00E634  09                 [198] (117)
00E635  00                 [199] (118)
00E636  00                 [200] (118)
00E637  35                 [201] (118)
00E638  09                 [202] (119)
00E639  00                 [203] (120)
00E63A  00                 [204] (120)
00E63B  37                 [205] (120)
00E63C  09                 [206] (120)
00E63D  00                 [207] (120)
00E63E  00                 [208] (121)
00E63F  37                 [209] (121)
00E640  09                 [210] (121)
00E641  00                 [211] (121)
00E642  00                 [212] (121)
00E643  37                 [213] (121)
00E644  09                 [214] (121)
00E645  00                 [215] (121)
00E646  00                 [216] (123)
00E647  37                 [217] (123)
00E648  09                 [218] (123)
00E649  00                 [219] (123)
00E64A  00                 [220] (123)
00E64B  37                 [221] (123)
00E64C  09                 [222] (123)
00E64D  00                 [223] (123)
00E64E  00                 [224] (123)
00E64F  38                 [225] (123)
00E650  09                 [226] (123)
00E651  00                 [227] (123)
00E652  00                 [228] (123)
00E653  38                 [229] (123)
00E654  09                 [230] (123)
00E655  00                 [231] (123)
00E656  00                 [232] (124)
00E657  38                 [233] (124)
00E658  09                 [234] (124)
00E659  00                 [235] (124)
00E65A  00                 [236] (125)
00E65B  38                 [237] (125)
00E65C  09                 [238] (125)
00E65D  00                 [239] (125)
00E65E  00                 [240] (125)
00E65F  3B                 [241] (126)
00E660  09                 [242] (126)
00E661  00                 [243] (126)
00E662  00                 [244] (126)
00E663  3B                 [245] (-127)
00E664  09                 [246] (-127)
00E665  00                 [247] (-127)
00E666  00                 [248] (-126)
00E667  3B                 [249] (-126)
00E668  09                 [250] (-126)
00E669  00                 [251] (-124)
00E66A  00                 [252] (-124)
00E66B  3B                 [253] (-124)
00E66C  09                 [254] (-124)
00E66D  00                 [255] (-124)
00E66E  00                 [256] (-124)
00E66F  3C                 [257] (-124)
00E670  09                 [258] (-124)
00E671  00                 [259] (-124)
00E672  00                 [260] (-124)
00E673  3C                 [261] (-124)
00E674  09                 [262] (-124)
00E675  00                 [263] (-124)
00E676  00                 [264] (-124)
00E677  3C                 [265] (-124)
00E678  09                 [266] (-123)
00E679  00                 [267] (-123)
00E67A  00                 [268] (-123)
00E67B  3C                 [269] (-119)
00E67C  09                 [270] (-119)
00E67D  00                 [271] (-119)
00E67E  00                 [272] (-119)
00E67F  3D                 [273] (-119)
00E680  09                 [274] (-118)
00E681  00                 [275] (-118)
00E682  00                 [276] (-117)
00E683  3D                 [277] (-117)
00E684  09                 [278] (-117)
00E685  00                 [279] (-117)
00E686  00                 [280] (-117)
00E687  3D                 [281] (-116)
00E688  09                 [282] (-116)
00E689  00                 [283] (-116)
00E68A  00                 [284] (-115)
00E68B  3D                 [285] (-115)
00E68C  09                 [286] (-114)
00E68D  00                 [287] (-114)
00E68E  00                 [288] (-114)
00E68F  3C                 [289] (-110)
00E690  09                 [290] (-110)
00E691  00                 [291] (-110)
00E692  00                 [292] (-110)
00E693  3F                 [293] (-110)
00E694  09                 [294] (-110)
00E695  00                 [295] (-110)
00E696  00                 [296] (-110)
00E697  3F                 [297] (-110)
00E698  09                 [298] (-110)
00E699  00                 [299] (-109)
00E69A  00                 [300] (-109)
00E69B  3F                 [301] (-109)
00E69C  09                 [302] (-109)
00E69D  00                 [303] (114)
00E69E  00                 [304] (-102)
00E69F  3F                 [305] (-102)
00E6A0  09                 [306] (-102)
00E6A1  00                 [307] (-102)
00E6A2  00                 [308] (-102)
00E6A3  3F                 [309] (-101)
00E6A4  09                 [310] (-101)
00E6A5  00                 [311] (-101)
00E6A6  00                 [312] (-100)
00E6A7  3F                 [313] (-100)
00E6A8  09                 [314] (-100)
00E6A9  00                 [315] (-99)
00E6AA  00                 [316] (-99)
00E6AB  40                 [317] (-99)
00E6AC  09                 [318] (-99)
00E6AD  00                 [319] (-99)
00E6AE  00                 [320] (-98)
00E6AF  40                 [321] (-98)
00E6B0  09                 [322] (-98)
00E6B1  00                 [323] (-98)
00E6B2  00                 [324] (-97)
00E6B3  40                 [325] (-97)
00E6B4  09                 [326] (-97)
00E6B5  00                 [327] (-97)
00E6B6  00                 [328] (-96)
00E6B7  40                 [329] (-93)
00E6B8  09                 [330] (-93)
00E6B9  00                 [331] (-93)
00E6BA  00                 [332] (-93)
00E6BB  41                 [333] (-92)
00E6BC  09                 [334] (-92)
00E6BD  00                 [335] (-92)
00E6BE  00                 [336] (-90)
00E6BF  41                 [337] (-90)
00E6C0  09                 [338] (-90)
00E6C1  00                 [339] (-90)
00E6C2  00                 [340] (-90)
00E6C3  41                 [341] (-89)
00E6C4  09                 [342] (-89)
00E6C5  00                 [343] (-89)
00E6C6  00                 [344] (-88)
00E6C7  41                 [345] (-88)
00E6C8  09                 [346] (-88)
00E6C9  00                 [347] (-87)
00E6CA  00                 [348] (-87)
00E6CB  40                 [349] (-87)
00E6CC  09                 [350] (-87)
00E6CD  00                 [351] (-87)
00E6CE  00                 [352] (-86)
00E6CF  44                 [353] (-86)
00E6D0  09                 [354] (-86)
00E6D1  00                 [355] (-86)
00E6D2  00                 [356] (-85)
00E6D3  44                 [357] (-85)
00E6D4  09                 [358] (-85)
00E6D5  00                 [359] (-85)
00E6D6  00                 [360] (-84)
00E6D7  44                 [361] (-81)
00E6D8  09                 [362] (-81)
00E6D9  00                 [363] (-80)
00E6DA  00                 [364] (-80)
00E6DB  44                 [365] (-80)
00E6DC  09                 [366] (-80)
00E6DD  00                 [367] (-77)
                           * locals:
00EB2B  00                 sizelocvars (0)
                           * upvalues:
00EB2C  00                 sizeupvalues (0)
                           ** end of function **

                           
00EB2D                     ** function [52] definition (level 2)
                           ** start of function **
00EB2D  00                 string size (0)
                           source name: (none)
00EB2F  13                 line defined (2487)
00EB30  DD                 last line defined (2653)
00EB31  14                 nups (21)
00EB32  15                 numparams (1)
00EB33  01                 is_vararg (0)
00EB34  00                 maxstacksize (46)
                           * code:
00EB37  03                 sizecode (392)
00EB38  5D000000           [001] getglobal  1   0        ; gGameRules
00EB3C  A440C000           [002] self       2   1   257  ; -502414055
00EB40  A2800001           [003] call       2   2   2  
00EB44  DD800000           [004] getglobal  3   2        ; Lotus_Game
00EB48  CEC0C001           [005] gettable   3   3   259  ; "MT_SURVIVAL"
fail op	35
00EB4C  63C00001           [006] close      1  
00EB50  1A000080           [007] jmp        1            ; to [9]
00EB54  1E008000           [008] return     0   1      
00EB58  A4004100           [009] self       2   0   260  ; 1927666530
00EB5C  A2800001           [010] call       2   2   2  
00EB60  A4404101           [011] self       2   2   261  ; -830264577
00EB64  A2800001           [012] call       2   2   2  
00EB68  DD800100           [013] getglobal  3   6        ; -332969190
00EB6C  19C10100           [014] loadk      4   7        ; "Objective"
00EB70  E2800001           [015] call       3   2   2  
fail op	35
00EB74  63C00001           [016] close      1  
00EB78  1A400180           [017] jmp        6            ; to [24]
00EB7C  DD800100           [018] getglobal  3   6        ; -332969190
00EB80  19010200           [019] loadk      4   8        ; "Boss"
00EB84  E2800001           [020] call       3   2   2  
fail op	35
00EB88  63C00001           [021] close      1  
00EB8C  1A000080           [022] jmp        1            ; to [24]
00EB90  1E008000           [023] return     0   1      
00EB94  DD400200           [024] getglobal  3   9        ; gRegion
00EB98  E480C201           [025] self       3   3   266  ; -774964848
00EB9C  E2800001           [026] call       3   2   2  
00EBA0  24C1C201           [027] self       4   3   267  ; 537471347
00EBA4  22810001           [028] call       4   2   2  
00EBA8  5D010000           [029] getglobal  5   0        ; gGameRules
00EBAC  6401C302           [030] self       5   5   268  ; -317790213
00EBB0  D3010000           [031] getupval   7   0      
00EBB4  62818001           [032] call       5   3   2  
00EBB8  9D410300           [033] getglobal  6   13       ; _T
00EBBC  8CC14387           [034] settable   6   270 271  ; "AllowWrinkles" 0
00EBC0  9D410300           [035] getglobal  6   13       ; _T
00EBC4  8C414488           [036] settable   6   272 273  ; "gSkipExtractionTimer" 1
00EBC8  9D410300           [037] getglobal  6   13       ; _T
00EBCC  E4C1C400           [038] self       7   1   275  ; -559213774
00EBD0  E2810001           [039] call       7   2   2  
00EBD4  8CC10189           [040] settable   6   274 7    ; "gSurvivalRewardSeed"
00EBD8  9D010000           [041] getglobal  6   0        ; gGameRules
00EBDC  A4014303           [042] self       6   6   268  ; -317790213
00EBE0  13028000           [043] getupval   8   1      
00EBE4  A2818001           [044] call       6   3   2  
00EBE8  DD010500           [045] getglobal  7   20       ; 2012104780
00EBEC  E2818000           [046] call       7   1   2  
00EBF0  1D420500           [047] getglobal  8   21       ; 188739178
00EBF4  5D420300           [048] getglobal  9   13       ; _T
00EBF8  4E82C404           [049] gettable   9   9   274  ; "gSurvivalRewardSeed"
00EBFC  92020003           [050] move       10  6      
00EC00  22428001           [051] call       8   3   1  
00EC04  1D420300           [052] getglobal  8   13       ; _T
00EC08  5D020500           [053] getglobal  9   20       ; 2012104780
00EC0C  62828000           [054] call       9   1   2  
00EC10  0C420289           [055] settable   8   274 9    ; "gSurvivalRewardSeed"
00EC14  1D820500           [056] getglobal  8   22       ; -1692306532
00EC18  52028003           [057] move       9   7      
00EC1C  22420001           [058] call       8   2   1  
00EC20  1DC20500           [059] getglobal  8   23       ; -1817107093
00EC24  59020600           [060] loadk      9   24       ; "Survival: Host migration init mission state: "
00EC28  9D420600           [061] getglobal  10  25       ; -1615931716
00EC2C  D2028002           [062] move       11  5      
00EC30  A2820001           [063] call       10  2   2  
00EC34  42828204           [064] concat     9   9   10 
00EC38  22420001           [065] call       8   2   1  
00EC3C  13020001           [066] getupval   8   2      
00EC40  0E824604           [067] gettable   8   8   282  ; 1381354263
00EC44  5DC20600           [068] getglobal  9   27       ; transmissionSet
00EC48  22420001           [069] call       8   2   1  
fail op	21
00EC4C  1500C702           [070] concat     0   5   284
00EC50  1AC00A80           [071] jmp        44           ; to [116]
00EC54  06020004           [072] loadnil    8   8      
00EC58  5D420200           [073] getglobal  9   9        ; gRegion
00EC5C  6442C704           [074] self       9   9   285  ; -1485896174
00EC60  DD820100           [075] getglobal  11  6        ; -332969190
00EC64  19830700           [076] loadk      12  30       ; "AlarmObjMarker"
00EC68  E2020001           [077] call       11  2   0  
00EC6C  62820000           [078] call       9   0   2  
00EC70  99C20700           [079] loadk      10  31       ; 0
00EC74  CA028004           [080] len        11  9      
00EC78  19C30700           [081] loadk      12  31       ; 0
00EC7C  90C20280           [082] forprep    10  12       ; to [95]
00EC80  8E438304           [083] gettable   14  9   13 
00EC84  A4034107           [084] self       14  14  260  ; 1927666530
00EC88  A2830001           [085] call       14  2   2  
00EC8C  E4434107           [086] self       15  14  261  ; -830264577
00EC90  E2830001           [087] call       15  2   2  
00EC94  1D840100           [088] getglobal  16  6        ; -332969190
00EC98  59040800           [089] loadk      17  32       ; "Spawn"
00EC9C  22840001           [090] call       16  2   2  
fail op	35
00ECA0  23008407           [091] close      0  
00ECA4  1A400080           [092] jmp        2            ; to [95]
00ECA8  0E428304           [093] gettable   8   9   13 
00ECAC  1A000080           [094] jmp        1            ; to [96]
00ECB0  9482FC7F           [095] forloop    10  -13      ; to [83] if loop
00ECB4  1D440800           [096] getglobal  16  33       ; 1074689893
00ECB8  52040004           [097] move       17  8      
00ECBC  22840001           [098] call       16  2   2  
00ECC0  18040000           [099] test       16      0    ; to [101] if true
00ECC4  1A800080           [100] jmp        3            ; to [104]
00ECC8  1DC40500           [101] getglobal  16  23       ; -1817107093
00ECCC  59840800           [102] loadk      17  34       ; "Survival: Can't find alarm panel to set objective after host migration."
00ECD0  22440001           [103] call       16  2   1  
fail op	35
00ECD4  23C0C802           [104] close      0  
00ECD8  1AC00080           [105] jmp        4            ; to [110]
00ECDC  24044902           [106] self       16  4   292  ; -906150570
00ECE0  92040004           [107] move       18  8      
00ECE4  22448001           [108] call       16  3   1  
00ECE8  1E008000           [109] return     0   1      
fail op	35
00ECEC  23C0C702           [110] close      0  
00ECF0  1A400C80           [111] jmp        50           ; to [162]
00ECF4  24044902           [112] self       16  4   292  ; -906150570
00ECF8  92040004           [113] move       18  8      
00ECFC  22448001           [114] call       16  3   1  
00ED00  1A400B80           [115] jmp        46           ; to [162]
00ED04  0B040002           [116] newtable   16  4   0    ; array=4, hash=0
00ED08  59C40700           [117] loadk      17  31       ; 0
00ED0C  99440900           [118] loadk      18  37       ; 0
00ED10  D9040700           [119] loadk      19  28       ; 0
00ED14  19850900           [120] loadk      20  38       ; 0
00ED18  1B440002           [121] setlist    16  4   1    ; index 1 to 4
00ED1C  46040009           [122] loadnil    17  18     
00ED20  D9C40700           [123] loadk      19  31       ; 0
00ED24  0A050008           [124] len        20  16     
00ED28  59C50700           [125] loadk      21  31       ; 0
00ED2C  D0C40180           [126] forprep    19  8        ; to [135]
00ED30  D3058001           [127] getupval   23  3      
00ED34  0E860508           [128] gettable   24  16  22 
00ED38  E2850001           [129] call       23  2   2  
00ED3C  5204800B           [130] move       17  23     
00ED40  CA058008           [131] len        23  17     
fail op	21
00ED44  15C08591           [132] concat     0   291 23 
00ED48  1A000080           [133] jmp        1            ; to [135]
00ED4C  1A000080           [134] jmp        1            ; to [136]
00ED50  D484FD7F           [135] forloop    19  -9       ; to [127] if loop
00ED54  DD450800           [136] getglobal  23  33       ; 1074689893
00ED58  0EC6C708           [137] gettable   24  17  287  ; 0
00ED5C  E2850001           [138] call       23  2   2  
00ED60  D8450000           [139] test       23      1    ; to [141] if false
00ED64  1A000080           [140] jmp        1            ; to [142]
00ED68  8EC4C708           [141] gettable   18  17  287  ; 0
00ED6C  D3050002           [142] getupval   23  4      
00ED70  CEC5C90B           [143] gettable   23  23  295  ; 1534343691
00ED74  1D860100           [144] getglobal  24  6        ; -332969190
00ED78  59060A00           [145] loadk      25  40       ; "SurvivalFog"
00ED7C  22860001           [146] call       24  2   2  
00ED80  57060000           [147] loadbool   25  0   0    ; false
00ED84  97068000           [148] loadbool   26  1   0    ; true
00ED88  E2450002           [149] call       23  4   1  
00ED8C  DD450800           [150] getglobal  23  33       ; 1074689893
00ED90  12060009           [151] move       24  18     
00ED94  E2850001           [152] call       23  2   2  
00ED98  D8450000           [153] test       23      1    ; to [155] if false
00ED9C  1AC00080           [154] jmp        4            ; to [159]
00EDA0  E4054902           [155] self       23  4   292  ; -906150570
00EDA4  52060009           [156] move       25  18     
00EDA8  E2458001           [157] call       23  3   1  
00EDAC  1A800080           [158] jmp        3            ; to [162]
00EDB0  DDC50500           [159] getglobal  23  23       ; -1817107093
00EDB4  19460A00           [160] loadk      24  41       ; "Survival: Error restarting objective after host migration!"
00EDB8  E2450001           [161] call       23  2   1  
00EDBC  D3058002           [162] getupval   23  5      
00EDC0  E2858000           [163] call       23  1   2  
00EDC4  1D460200           [164] getglobal  24  9        ; gRegion
00EDC8  24864A0C           [165] self       24  24  298  ; -1520831144
00EDCC  22860001           [166] call       24  2   2  
00EDD0  18060000           [167] test       24      0    ; to [169] if true
00EDD4  1A800980           [168] jmp        39           ; to [208]
00EDD8  D8050000           [169] test       23      0    ; to [171] if true
00EDDC  1A000980           [170] jmp        37           ; to [208]
00EDE0  1D460300           [171] getglobal  24  13       ; _T
00EDE4  4B068001           [172] newtable   25  3   0    ; array=3, hash=0
00EDE8  99C60800           [173] loadk      26  35       ; 0
00EDEC  D9C60800           [174] loadk      27  35       ; 0
00EDF0  19C70800           [175] loadk      28  35       ; 0
00EDF4  5B468001           [176] setlist    25  3   1    ; index 1 to 3
00EDF8  0C468695           [177] settable   24  299 25   ; "kuvaExtractorList"
00EDFC  1D460200           [178] getglobal  24  9        ; gRegion
00EE00  24064B0C           [179] self       24  24  300  ; 152279552
00EE04  93060003           [180] getupval   26  6      
00EE08  22868001           [181] call       24  3   2  
00EE0C  5D460800           [182] getglobal  25  33       ; 1074689893
00EE10  9206000C           [183] move       26  24     
00EE14  62860001           [184] call       25  2   2  
00EE18  58460000           [185] test       25      1    ; to [187] if false
00EE1C  1A000580           [186] jmp        21           ; to [208]
00EE20  59C60700           [187] loadk      25  31       ; 0
00EE24  93068003           [188] getupval   26  7      
00EE28  D9C60700           [189] loadk      27  31       ; 0
00EE2C  50C60380           [190] forprep    25  16       ; to [207]
00EE30  5D470800           [191] getglobal  29  33       ; 1074689893
00EE34  8E07070C           [192] gettable   30  24  28 
00EE38  62870001           [193] call       29  2   2  
00EE3C  58470000           [194] test       29      1    ; to [196] if false
00EE40  1A800280           [195] jmp        11           ; to [207]
00EE44  5D470800           [196] getglobal  29  33       ; 1074689893
00EE48  8E07070C           [197] gettable   30  24  28 
00EE4C  A4474B0F           [198] self       30  30  301  ; -2135866365
00EE50  A2070001           [199] call       30  2   0  
00EE54  62870000           [200] call       29  0   2  
00EE58  58470000           [201] test       29      1    ; to [203] if false
00EE5C  1AC00080           [202] jmp        4            ; to [207]
00EE60  5D470300           [203] getglobal  29  13       ; _T
00EE64  4EC7CA0E           [204] gettable   29  29  299  ; "kuvaExtractorList"
00EE68  8E07070C           [205] gettable   30  24  28 
00EE6C  4C87070E           [206] settable   29  28  30 
00EE70  5486FB7F           [207] forloop    25  -17      ; to [191] if loop
00EE74  5D470200           [208] getglobal  29  9        ; gRegion
00EE78  6487CA0E           [209] self       29  29  298  ; -1520831144
00EE7C  62870001           [210] call       29  2   2  
00EE80  58070000           [211] test       29      0    ; to [213] if true
00EE84  1AC00180           [212] jmp        8            ; to [221]
00EE88  53070002           [213] getupval   29  4      
00EE8C  4EC7C90E           [214] gettable   29  29  295  ; 1534343691
00EE90  9D870100           [215] getglobal  30  6        ; -332969190
00EE94  D9870B00           [216] loadk      31  46       ; "SurvivalHudScript"
00EE98  A2870001           [217] call       30  2   2  
00EE9C  D7070000           [218] loadbool   31  0   0    ; false
00EEA0  17088000           [219] loadbool   32  1   0    ; true
00EEA4  62470002           [220] call       29  4   1  
00EEA8  6407C300           [221] self       29  1   268  ; -317790213
00EEAC  D3070004           [222] getupval   31  8      
00EEB0  62878001           [223] call       29  3   2  
00EEB4  93078004           [224] getupval   30  9      
00EEB8  9C87870E           [225] div        30  29  30 
00EEBC  DD470800           [226] getglobal  31  33       ; 1074689893
00EEC0  1D480300           [227] getglobal  32  13       ; _T
00EEC4  0EC84B10           [228] gettable   32  32  303  ; "LifeSupportBar"
00EEC8  E2870001           [229] call       31  2   2  
00EECC  D8070000           [230] test       31      0    ; to [232] if true
00EED0  1A800280           [231] jmp        11           ; to [243]
00EED4  D3070005           [232] getupval   31  10     
00EED8  CE07CC0F           [233] gettable   31  31  304  ; -1079095470
00EEDC  13088005           [234] getupval   32  11     
00EEE0  5D480C00           [235] getglobal  33  49       ; math
00EEE4  4E88CC10           [236] gettable   33  33  306  ; -150971781
00EEE8  84C84C0F           [237] mul        34  30  307  ; 0
00EEEC  62880001           [238] call       33  2   2  
00EEF0  99C80C00           [239] loadk      34  51       ; 0
00EEF4  DD080D00           [240] getglobal  35  52       ; survivalBroadcastObjectiveIcon
00EEF8  17098000           [241] loadbool   36  1   0    ; true
00EEFC  E2470003           [242] call       31  6   1  
00EF00  DDC70500           [243] getglobal  31  23       ; -1817107093
00EF04  19480D00           [244] loadk      32  53       ; "Survival: Host migration init progress bar initialized: "
00EF08  5208800E           [245] move       33  29     
00EF0C  99880D00           [246] loadk      34  54       ; " seconds left."
00EF10  02880810           [247] concat     32  32  34 
00EF14  E2470001           [248] call       31  2   1  
00EF18  DDC70D00           [249] getglobal  31  55       ; 538022378
00EF1C  19C80700           [250] loadk      32  31       ; 0
00EF20  E2470001           [251] call       31  2   1  
00EF24  DD070000           [252] getglobal  31  0        ; gGameRules
00EF28  E407CE0F           [253] self       31  31  312  ; -163852551
00EF2C  E2870001           [254] call       31  2   2  
00EF30  D8470000           [255] test       31      1    ; to [257] if false
00EF34  1AC00080           [256] jmp        4            ; to [261]
00EF38  DDC70D00           [257] getglobal  31  55       ; 538022378
00EF3C  19480E00           [258] loadk      32  57       ; -51
00EF40  E2470001           [259] call       31  2   1  
00EF44  1A80FD7F           [260] jmp        -9           ; to [252]
00EF48  E4874E02           [261] self       31  4   314  ; -974578778
00EF4C  57088000           [262] loadbool   33  1   0    ; true
00EF50  E2478001           [263] call       31  3   1  
00EF54  E4C74E02           [264] self       31  4   315  ; -110386376
00EF58  57080000           [265] loadbool   33  0   0    ; false
00EF5C  E2478001           [266] call       31  3   1  
00EF60  E4074F02           [267] self       31  4   316  ; 447196028
00EF64  57088000           [268] loadbool   33  1   0    ; true
00EF68  E2478001           [269] call       31  3   1  
00EF6C  D3070002           [270] getupval   31  4      
00EF70  CEC7C90F           [271] gettable   31  31  295  ; 1534343691
00EF74  1D880100           [272] getglobal  32  6        ; -332969190
00EF78  59480F00           [273] loadk      33  61       ; "RandomArtifactScript"
00EF7C  22880001           [274] call       32  2   2  
00EF80  57080000           [275] loadbool   33  0   0    ; false
00EF84  97088000           [276] loadbool   34  1   0    ; true
00EF88  E2470002           [277] call       31  4   1  
00EF8C  DDC70D00           [278] getglobal  31  55       ; 538022378
00EF90  19880F00           [279] loadk      32  62       ; 0
00EF94  E2470001           [280] call       31  2   1  
00EF98  E407C300           [281] self       31  1   268  ; -317790213
00EF9C  53080006           [282] getupval   33  12     
00EFA0  E2878001           [283] call       31  3   2  
00EFA4  13088006           [284] getupval   32  13     
00EFA8  22888000           [285] call       32  1   2  
00EFAC  18080000           [286] test       32      0    ; to [288] if true
00EFB0  1AC00480           [287] jmp        20           ; to [308]
00EFB4  1D480C00           [288] getglobal  32  49       ; math
00EFB8  0EC84F10           [289] gettable   32  32  319  ; -1962864584
00EFBC  59C80800           [290] loadk      33  35       ; 0
00EFC0  93080007           [291] getupval   34  14     
00EFC4  A2888000           [292] call       34  1   2  
00EFC8  8DC80711           [293] sub        34  34  31 
00EFCC  22888001           [294] call       32  3   2  
00EFD0  6408D000           [295] self       33  1   320  ; -249861443
00EFD4  D3088007           [296] getupval   35  15     
00EFD8  13090008           [297] getupval   36  16     
00EFDC  52090010           [298] move       37  32     
00EFE0  97090000           [299] loadbool   38  0   0    ; false
00EFE4  D7098000           [300] loadbool   39  1   0    ; true
00EFE8  170A0000           [301] loadbool   40  0   0    ; false
00EFEC  62480004           [302] call       33  8   1  
00EFF0  6448D000           [303] self       33  1   321  ; -248211328
00EFF4  D3088007           [304] getupval   35  15     
00EFF8  12090010           [305] move       36  32     
00EFFC  62480002           [306] call       33  4   1  
00F000  1AC00280           [307] jmp        12           ; to [320]
00F004  6408D000           [308] self       33  1   320  ; -249861443
00F008  D3088007           [309] getupval   35  15     
00F00C  13090008           [310] getupval   36  16     
00F010  59C90800           [311] loadk      37  35       ; 0
00F014  97090000           [312] loadbool   38  0   0    ; false
00F018  D7098000           [313] loadbool   39  1   0    ; true
00F01C  170A8000           [314] loadbool   40  1   0    ; true
00F020  62480004           [315] call       33  8   1  
00F024  6448D000           [316] self       33  1   321  ; -248211328
00F028  D3088007           [317] getupval   35  15     
00F02C  1209800F           [318] move       36  31     
00F030  62480002           [319] call       33  4   1  
00F034  5DC80500           [320] getglobal  33  23       ; -1817107093
00F038  99881000           [321] loadk      34  66       ; "Survival: Host migration init timer restarted: "
00F03C  D208800F           [322] move       35  31     
00F040  19C91000           [323] loadk      36  67       ; " seconds elapsed."
00F044  82080911           [324] concat     34  34  36 
00F048  62480001           [325] call       33  2   1  
00F04C  6408C300           [326] self       33  1   268  ; -317790213
00F050  D3088008           [327] getupval   35  17     
00F054  13090009           [328] getupval   36  18     
00F058  62880002           [329] call       33  4   2  
00F05C  93080009           [330] getupval   34  18     
fail op	35
00F060  63808810           [331] close      1  
00F064  1A000480           [332] jmp        17           ; to [350]
00F068  9D081100           [333] getglobal  34  68       ; gFlashMgr
00F06C  A4485111           [334] self       34  34  325  ; 1634586770
00F070  1D891100           [335] getglobal  36  70       ; loadingScreen
00F074  A2888001           [336] call       34  3   2  
00F078  DD480800           [337] getglobal  35  33       ; 1074689893
00F07C  12090011           [338] move       36  34     
00F080  E2880001           [339] call       35  2   2  
00F084  D8480000           [340] test       35      1    ; to [342] if false
00F088  1AC00080           [341] jmp        4            ; to [346]
00F08C  DDC80D00           [342] getglobal  35  55       ; 538022378
00F090  19C90800           [343] loadk      36  35       ; 0
00F094  E2480001           [344] call       35  2   1  
00F098  1A80FD7F           [345] jmp        -9           ; to [337]
00F09C  D3088009           [346] getupval   35  19     
00F0A0  12090003           [347] move       36  6      
00F0A4  52098010           [348] move       37  33     
00F0A8  E2488001           [349] call       35  3   1  
00F0AC  DD480200           [350] getglobal  35  9        ; gRegion
00F0B0  E488CA11           [351] self       35  35  298  ; -1520831144
00F0B4  E2880001           [352] call       35  2   2  
00F0B8  D8080000           [353] test       35      0    ; to [355] if true
00F0BC  1A800880           [354] jmp        35           ; to [390]
00F0C0  D8050000           [355] test       23      0    ; to [357] if true
00F0C4  1A000880           [356] jmp        33           ; to [390]
00F0C8  DD480200           [357] getglobal  35  9        ; gRegion
00F0CC  E4C8D111           [358] self       35  35  327  ; 19448449
00F0D0  E2880001           [359] call       35  2   2  
00F0D4  1D490800           [360] getglobal  36  33       ; 1074689893
00F0D8  52098011           [361] move       37  35     
00F0DC  22890001           [362] call       36  2   2  
00F0E0  18090000           [363] test       36      0    ; to [365] if true
00F0E4  1AC00180           [364] jmp        8            ; to [373]
00F0E8  1D490200           [365] getglobal  36  9        ; gRegion
00F0EC  24C95112           [366] self       36  36  327  ; 19448449
00F0F0  22890001           [367] call       36  2   2  
00F0F4  D2080012           [368] move       35  36     
00F0F8  1DC90D00           [369] getglobal  36  55       ; 538022378
00F0FC  59C90800           [370] loadk      37  35       ; 0
00F100  22490001           [371] call       36  2   1  
00F104  1A80FC7F           [372] jmp        -13          ; to [360]
00F108  1D091200           [373] getglobal  36  72       ; 1672515847
00F10C  52098011           [374] move       37  35     
00F110  22090101           [375] call       36  2   4  
00F114  1A800280           [376] jmp        11           ; to [388]
00F118  644A5214           [377] self       41  40  329  ; 1743777602
00F11C  628A0001           [378] call       41  2   2  
00F120  9D8A1200           [379] getglobal  42  74       ; kuvaConvertorDropTable
fail op	35
00F124  23808A14           [380] close      0  
00F128  1A400180           [381] jmp        6            ; to [388]
00F12C  64CA5214           [382] self       41  40  331  ; -1421644046
00F130  DD0A1300           [383] getglobal  43  76       ; killMarkerType
00F134  1D8B0100           [384] getglobal  44  6        ; -332969190
00F138  594B1300           [385] loadk      45  77       ; "GAME_C1_SPINE3"
00F13C  220B0001           [386] call       44  2   0  
00F140  624A0000           [387] call       41  0   1  
00F144  16890000           [388] tforloop   36      2    ; to [390] if exit
00F148  1A80FC7F           [389] jmp        -13          ; to [377]
00F14C  530A000A           [390] getupval   41  20     
00F150  624A8000           [391] call       41  1   1  
00F154  1E008000           [392] return     0   1      
                           * constants:
00F158  4E                 sizek (78)
00F159  04                 const type 4
00F15A  0B                 string size (11)
00F15B  6747616D6552756C+  "gGameRul"
00F163  657300             "es\0"
                           const [0]: "gGameRules"
00F166  01                 const type 3
00F167  19C50DE2           const [1]: (-502414055)
00F16B  04                 const type 4
00F16C  0B                 string size (11)
00F16D  4C6F7475735F4761+  "Lotus_Ga"
00F175  6D6500             "me\0"
                           const [2]: "Lotus_Game"
00F178  04                 const type 4
00F179  0C                 string size (12)
00F17A  4D545F5355525649+  "MT_SURVI"
00F182  56414C00           "VAL\0"
                           const [3]: "MT_SURVIVAL"
00F186  01                 const type 3
00F187  62DBE572           const [4]: (1927666530)
00F18B  01                 const type 3
00F18C  FF2A83CE           const [5]: (-830264577)
00F190  01                 const type 3
00F191  1A4B27EC           const [6]: (-332969190)
00F195  04                 const type 4
00F196  0A                 string size (10)
00F197  4F626A6563746976+  "Objectiv"
00F19F  6500               "e\0"
                           const [7]: "Objective"
00F1A1  04                 const type 4
00F1A2  05                 string size (5)
00F1A3  426F737300         "Boss\0"
                           const [8]: "Boss"
00F1A8  04                 const type 4
00F1A9  08                 string size (8)
00F1AA  67526567696F6E00   "gRegion\0"
                           const [9]: "gRegion"
00F1B2  01                 const type 3
00F1B3  90F9CED1           const [10]: (-774964848)
00F1B7  01                 const type 3
00F1B8  73290920           const [11]: (537471347)
00F1BC  01                 const type 3
00F1BD  FBE70EED           const [12]: (-317790213)
00F1C1  04                 const type 4
00F1C2  03                 string size (3)
00F1C3  5F5400             "_T\0"
                           const [13]: "_T"
00F1C6  04                 const type 4
00F1C7  0E                 string size (14)
00F1C8  416C6C6F77577269+  "AllowWri"
00F1D0  6E6B6C657300       "nkles\0"
                           const [14]: "AllowWrinkles"
00F1D6  01                 const type 3
00F1D7  00000000           const [15]: (0)
00F1DB  04                 const type 4
00F1DC  15                 string size (21)
00F1DD  67536B6970457874+  "gSkipExt"
00F1E5  72616374696F6E54+  "ractionT"
00F1ED  696D657200         "imer\0"
                           const [16]: "gSkipExtractionTimer"
00F1F2  01                 const type 3
00F1F3  01000000           const [17]: (1)
00F1F7  04                 const type 4
00F1F8  14                 string size (20)
00F1F9  6753757276697661+  "gSurviva"
00F201  6C52657761726453+  "lRewardS"
00F209  65656400           "eed\0"
                           const [18]: "gSurvivalRewardSeed"
00F20D  01                 const type 3
00F20E  3213ABDE           const [19]: (-559213774)
00F212  01                 const type 3
00F213  4C48EE77           const [20]: (2012104780)
00F217  01                 const type 3
00F218  6AEE3F0B           const [21]: (188739178)
00F21C  01                 const type 3
00F21D  9C73219B           const [22]: (-1692306532)
00F221  01                 const type 3
00F222  6B25B193           const [23]: (-1817107093)
00F226  04                 const type 4
00F227  2E                 string size (46)
00F228  537572766976616C+  "Survival"
00F230  3A20486F7374206D+  ": Host m"
00F238  6967726174696F6E+  "igration"
00F240  20696E6974206D69+  " init mi"
00F248  7373696F6E207374+  "ssion st"
00F250  6174653A2000       "ate: \0"
                           const [24]: "Survival: Host migration init mission state: "
00F256  01                 const type 3
00F257  BCD6AE9F           const [25]: (-1615931716)
00F25B  01                 const type 3
00F25C  17CB5552           const [26]: (1381354263)
00F260  04                 const type 4
00F261  10                 string size (16)
00F262  7472616E736D6973+  "transmis"
00F26A  73696F6E53657400   "sionSet\0"
                           const [27]: "transmissionSet"
00F272  03                 const type 3
00F273  00000040           const [28]: (0)
00F277  01                 const type 3
00F278  12066FA7           const [29]: (-1485896174)
00F27C  04                 const type 4
00F27D  0F                 string size (15)
00F27E  416C61726D4F626A+  "AlarmObj"
00F286  4D61726B657200     "Marker\0"
                           const [30]: "AlarmObjMarker"
00F28D  03                 const type 3
00F28E  0000803F           const [31]: (0)
00F292  04                 const type 4
00F293  06                 string size (6)
00F294  537061776E00       "Spawn\0"
                           const [32]: "Spawn"
00F29A  01                 const type 3
00F29B  65770E40           const [33]: (1074689893)
00F29F  04                 const type 4
00F2A0  48                 string size (72)
00F2A1  537572766976616C+  "Survival"
00F2A9  3A2043616E277420+  ": Can't "
00F2B1  66696E6420616C61+  "find ala"
00F2B9  726D2070616E656C+  "rm panel"
00F2C1  20746F2073657420+  " to set "
00F2C9  6F626A6563746976+  "objectiv"
00F2D1  6520616674657220+  "e after "
00F2D9  686F7374206D6967+  "host mig"
00F2E1  726174696F6E2E00   "ration.\0"
                           const [34]: "Survival: Can't find alarm panel to set objective after host migration."
00F2E9  03                 const type 3
00F2EA  00000000           const [35]: (0)
00F2EE  01                 const type 3
00F2EF  563DFDC9           const [36]: (-906150570)
00F2F3  03                 const type 3
00F2F4  00004040           const [37]: (0)
00F2F8  03                 const type 3
00F2F9  00008040           const [38]: (0)
00F2FD  01                 const type 3
00F2FE  0B3A745B           const [39]: (1534343691)
00F302  04                 const type 4
00F303  0C                 string size (12)
00F304  537572766976616C+  "Survival"
00F30C  466F6700           "Fog\0"
                           const [40]: "SurvivalFog"
00F310  04                 const type 4
00F311  3B                 string size (59)
00F312  537572766976616C+  "Survival"
00F31A  3A204572726F7220+  ": Error "
00F322  7265737461727469+  "restarti"
00F32A  6E67206F626A6563+  "ng objec"
00F332  7469766520616674+  "tive aft"
00F33A  657220686F737420+  "er host "
00F342  6D6967726174696F+  "migratio"
00F34A  6E2100             "n!\0"
                           const [41]: "Survival: Error restarting objective after host migration!"
00F34D  01                 const type 3
00F34E  58F559A5           const [42]: (-1520831144)
00F352  04                 const type 4
00F353  12                 string size (18)
00F354  6B75766145787472+  "kuvaExtr"
00F35C  6163746F724C6973+  "actorLis"
00F364  7400               "t\0"
                           const [43]: "kuvaExtractorList"
00F366  01                 const type 3
00F367  009A1309           const [44]: (152279552)
00F36B  01                 const type 3
00F36C  0344B180           const [45]: (-2135866365)
00F370  04                 const type 4
00F371  12                 string size (18)
00F372  537572766976616C+  "Survival"
00F37A  4875645363726970+  "HudScrip"
00F382  7400               "t\0"
                           const [46]: "SurvivalHudScript"
00F384  04                 const type 4
00F385  0F                 string size (15)
00F386  4C69666553757070+  "LifeSupp"
00F38E  6F727442617200     "ortBar\0"
                           const [47]: "LifeSupportBar"
00F395  01                 const type 3
00F396  524FAEBF           const [48]: (-1079095470)
00F39A  04                 const type 4
00F39B  05                 string size (5)
00F39C  6D61746800         "math\0"
                           const [49]: "math"
00F3A1  01                 const type 3
00F3A2  7B5A00F7           const [50]: (-150971781)
00F3A6  03                 const type 3
00F3A7  0000C842           const [51]: (0)
00F3AB  04                 const type 4
00F3AC  1F                 string size (31)
00F3AD  737572766976616C+  "survival"
00F3B5  42726F6164636173+  "Broadcas"
00F3BD  744F626A65637469+  "tObjecti"
00F3C5  766549636F6E00     "veIcon\0"
                           const [52]: "survivalBroadcastObjectiveIcon"
00F3CC  04                 const type 4
00F3CD  39                 string size (57)
00F3CE  537572766976616C+  "Survival"
00F3D6  3A20486F7374206D+  ": Host m"
00F3DE  6967726174696F6E+  "igration"
00F3E6  20696E6974207072+  " init pr"
00F3EE  6F67726573732062+  "ogress b"
00F3F6  617220696E697469+  "ar initi"
00F3FE  616C697A65643A20+  "alized: "
00F406  00                 "\0"
                           const [53]: "Survival: Host migration init progress bar initialized: "
00F407  04                 const type 4
00F408  0F                 string size (15)
00F409  207365636F6E6473+  " seconds"
00F411  206C6566742E00     " left.\0"
                           const [54]: " seconds left."
00F418  01                 const type 3
00F419  EA911120           const [55]: (538022378)
00F41D  01                 const type 3
00F41E  F9CE3BF6           const [56]: (-163852551)
00F422  03                 const type 3
00F423  CDCCCC3D           const [57]: (-51)
00F427  01                 const type 3
00F428  A61BE9C5           const [58]: (-974578778)
00F42C  01                 const type 3
00F42D  38A36BF9           const [59]: (-110386376)
00F431  01                 const type 3
00F432  7CABA71A           const [60]: (447196028)
00F436  04                 const type 4
00F437  15                 string size (21)
00F438  52616E646F6D4172+  "RandomAr"
00F440  7469666163745363+  "tifactSc"
00F448  7269707400         "ript\0"
                           const [61]: "RandomArtifactScript"
00F44D  03                 const type 3
00F44E  0000003F           const [62]: (0)
00F452  01                 const type 3
00F453  3810018B           const [63]: (-1962864584)
00F457  01                 const type 3
00F458  BD6A1BF1           const [64]: (-249861443)
00F45C  01                 const type 3
00F45D  809834F1           const [65]: (-248211328)
00F461  04                 const type 4
00F462  30                 string size (48)
00F463  537572766976616C+  "Survival"
00F46B  3A20486F7374206D+  ": Host m"
00F473  6967726174696F6E+  "igration"
00F47B  20696E6974207469+  " init ti"
00F483  6D65722072657374+  "mer rest"
00F48B  61727465643A2000   "arted: \0"
                           const [66]: "Survival: Host migration init timer restarted: "
00F493  04                 const type 4
00F494  12                 string size (18)
00F495  207365636F6E6473+  " seconds"
00F49D  20656C6170736564+  " elapsed"
00F4A5  2E00               ".\0"
                           const [67]: " seconds elapsed."
00F4A7  04                 const type 4
00F4A8  0A                 string size (10)
00F4A9  67466C6173684D67+  "gFlashMg"
00F4B1  7200               "r\0"
                           const [68]: "gFlashMgr"
00F4B3  01                 const type 3
00F4B4  92D06D61           const [69]: (1634586770)
00F4B8  04                 const type 4
00F4B9  0E                 string size (14)
00F4BA  6C6F6164696E6753+  "loadingS"
00F4C2  637265656E00       "creen\0"
                           const [70]: "loadingScreen"
00F4C8  01                 const type 3
00F4C9  81C22801           const [71]: (19448449)
00F4CD  01                 const type 3
00F4CE  0791B063           const [72]: (1672515847)
00F4D2  01                 const type 3
00F4D3  42EFEF67           const [73]: (1743777602)
00F4D7  04                 const type 4
00F4D8  17                 string size (23)
00F4D9  6B757661436F6E76+  "kuvaConv"
00F4E1  6572746F7244726F+  "ertorDro"
00F4E9  705461626C6500     "pTable\0"
                           const [74]: "kuvaConvertorDropTable"
00F4F0  01                 const type 3
00F4F1  F26E43AB           const [75]: (-1421644046)
00F4F5  04                 const type 4
00F4F6  0F                 string size (15)
00F4F7  6B696C6C4D61726B+  "killMark"
00F4FF  65725479706500     "erType\0"
                           const [76]: "killMarkerType"
00F506  04                 const type 4
00F507  0F                 string size (15)
00F508  47414D455F43315F+  "GAME_C1_"
00F510  5350494E453300     "SPINE3\0"
                           const [77]: "GAME_C1_SPINE3"
                           * functions:
00F517  00                 sizep (0)
                           * lines:
00F519  03                 sizelineinfo (392)
                           [pc] (line)
00F51A  BA                 [001] (-70)
00F51B  09                 [002] (-68)
00F51C  00                 [003] (-68)
00F51D  00                 [004] (-68)
00F51E  BC                 [005] (-68)
00F51F  09                 [006] (-68)
00F520  00                 [007] (-68)
00F521  00                 [008] (-67)
00F522  BC                 [009] (-64)
00F523  09                 [010] (-64)
00F524  00                 [011] (-64)
00F525  00                 [012] (-64)
00F526  BC                 [013] (-63)
00F527  09                 [014] (-63)
00F528  00                 [015] (-63)
00F529  00                 [016] (-63)
00F52A  BC                 [017] (-63)
00F52B  09                 [018] (-63)
00F52C  00                 [019] (-63)
00F52D  00                 [020] (-63)
00F52E  BC                 [021] (-63)
00F52F  09                 [022] (-63)
00F530  00                 [023] (-62)
00F531  00                 [024] (-59)
00F532  BC                 [025] (-59)
00F533  09                 [026] (-59)
00F534  00                 [027] (-58)
00F535  00                 [028] (-58)
00F536  BD                 [029] (-57)
00F537  09                 [030] (-57)
00F538  00                 [031] (-57)
00F539  00                 [032] (-57)
00F53A  C0                 [033] (-56)
00F53B  09                 [034] (-56)
00F53C  00                 [035] (-55)
00F53D  00                 [036] (-55)
00F53E  C0                 [037] (-52)
00F53F  09                 [038] (-52)
00F540  00                 [039] (-52)
00F541  00                 [040] (-52)
00F542  C0                 [041] (-50)
00F543  09                 [042] (-50)
00F544  00                 [043] (-50)
00F545  00                 [044] (-50)
00F546  C0                 [045] (-48)
00F547  09                 [046] (-48)
00F548  00                 [047] (-47)
00F549  00                 [048] (-47)
00F54A  C1                 [049] (-47)
00F54B  09                 [050] (-47)
00F54C  00                 [051] (-47)
00F54D  00                 [052] (-46)
00F54E  C1                 [053] (-46)
00F54F  09                 [054] (-46)
00F550  00                 [055] (-46)
00F551  00                 [056] (-44)
00F552  C1                 [057] (-44)
00F553  09                 [058] (-44)
00F554  00                 [059] (-42)
00F555  00                 [060] (-42)
00F556  C1                 [061] (-42)
00F557  09                 [062] (-42)
00F558  00                 [063] (-42)
00F559  00                 [064] (-42)
00F55A  C1                 [065] (-42)
00F55B  09                 [066] (-39)
00F55C  00                 [067] (-39)
00F55D  00                 [068] (-39)
00F55E  C1                 [069] (-39)
00F55F  09                 [070] (-36)
00F560  00                 [071] (-36)
00F561  00                 [072] (-35)
00F562  C1                 [073] (-34)
00F563  09                 [074] (-34)
00F564  00                 [075] (-34)
00F565  00                 [076] (-34)
00F566  C1                 [077] (-34)
00F567  09                 [078] (-34)
00F568  00                 [079] (-33)
00F569  00                 [080] (-33)
00F56A  C1                 [081] (-33)
00F56B  09                 [082] (-33)
00F56C  00                 [083] (-32)
00F56D  00                 [084] (-32)
00F56E  C1                 [085] (-32)
00F56F  09                 [086] (-31)
00F570  00                 [087] (-31)
00F571  00                 [088] (-30)
00F572  C2                 [089] (-30)
00F573  09                 [090] (-30)
00F574  00                 [091] (-30)
00F575  00                 [092] (-30)
00F576  C5                 [093] (-29)
00F577  09                 [094] (-28)
00F578  00                 [095] (-33)
00F579  00                 [096] (-24)
00F57A  C5                 [097] (-24)
00F57B  09                 [098] (-24)
00F57C  00                 [099] (-24)
00F57D  00                 [100] (-24)
00F57E  C5                 [101] (-23)
00F57F  09                 [102] (-23)
00F580  00                 [103] (-23)
00F581  00                 [104] (-20)
00F582  C6                 [105] (-20)
00F583  09                 [106] (-19)
00F584  00                 [107] (-19)
00F585  00                 [108] (-19)
00F586  C6                 [109] (-18)
00F587  09                 [110] (-15)
00F588  00                 [111] (-15)
00F589  00                 [112] (-14)
00F58A  C7                 [113] (-14)
00F58B  09                 [114] (-14)
00F58C  00                 [115] (-12)
00F58D  00                 [116] (-10)
00F58E  C7                 [117] (-10)
00F58F  09                 [118] (-10)
00F590  00                 [119] (-10)
00F591  00                 [120] (-10)
00F592  C7                 [121] (-10)
00F593  09                 [122] (-9)
00F594  00                 [123] (-7)
00F595  00                 [124] (-7)
00F596  C7                 [125] (-7)
00F597  09                 [126] (-7)
00F598  00                 [127] (-6)
00F599  00                 [128] (-6)
00F59A  C8                 [129] (-6)
00F59B  09                 [130] (-6)
00F59C  00                 [131] (-5)
00F59D  00                 [132] (-5)
00F59E  C8                 [133] (-5)
00F59F  09                 [134] (-4)
00F5A0  00                 [135] (-7)
00F5A1  00                 [136] (-1)
00F5A2  C9                 [137] (-1)
00F5A3  09                 [138] (-1)
00F5A4  00                 [139] (-1)
00F5A5  00                 [140] (-1)
00F5A6  C9                 [141] (0)
00F5A7  09                 [142] (3)
00F5A8  00                 [143] (3)
00F5A9  00                 [144] (3)
00F5AA  CC                 [145] (3)
00F5AB  09                 [146] (3)
00F5AC  00                 [147] (3)
00F5AD  00                 [148] (3)
00F5AE  CC                 [149] (3)
00F5AF  09                 [150] (5)
00F5B0  00                 [151] (5)
00F5B1  00                 [152] (5)
00F5B2  CC                 [153] (5)
00F5B3  09                 [154] (5)
00F5B4  00                 [155] (6)
00F5B5  00                 [156] (6)
00F5B6  CC                 [157] (6)
00F5B7  09                 [158] (6)
00F5B8  00                 [159] (8)
00F5B9  00                 [160] (8)
00F5BA  CE                 [161] (8)
00F5BB  09                 [162] (13)
00F5BC  00                 [163] (13)
00F5BD  00                 [164] (14)
00F5BE  CE                 [165] (14)
00F5BF  09                 [166] (14)
00F5C0  00                 [167] (14)
00F5C1  00                 [168] (14)
00F5C2  CE                 [169] (14)
00F5C3  09                 [170] (14)
00F5C4  00                 [171] (15)
00F5C5  00                 [172] (15)
00F5C6  CE                 [173] (15)
00F5C7  09                 [174] (15)
00F5C8  00                 [175] (15)
00F5C9  00                 [176] (15)
00F5CA  D0                 [177] (15)
00F5CB  09                 [178] (16)
00F5CC  00                 [179] (16)
00F5CD  00                 [180] (16)
00F5CE  D0                 [181] (16)
00F5CF  09                 [182] (17)
00F5D0  00                 [183] (17)
00F5D1  00                 [184] (17)
00F5D2  D1                 [185] (17)
00F5D3  09                 [186] (17)
00F5D4  00                 [187] (18)
00F5D5  00                 [188] (18)
00F5D6  D1                 [189] (18)
00F5D7  09                 [190] (18)
00F5D8  00                 [191] (19)
00F5D9  00                 [192] (19)
00F5DA  D1                 [193] (19)
00F5DB  09                 [194] (19)
00F5DC  00                 [195] (19)
00F5DD  00                 [196] (19)
00F5DE  D1                 [197] (19)
00F5DF  09                 [198] (19)
00F5E0  00                 [199] (19)
00F5E1  00                 [200] (19)
00F5E2  D1                 [201] (19)
00F5E3  09                 [202] (19)
00F5E4  00                 [203] (20)
00F5E5  00                 [204] (20)
00F5E6  D2                 [205] (20)
00F5E7  09                 [206] (20)
00F5E8  00                 [207] (18)
00F5E9  00                 [208] (27)
00F5EA  D2                 [209] (27)
00F5EB  09                 [210] (27)
00F5EC  00                 [211] (27)
00F5ED  00                 [212] (27)
00F5EE  D2                 [213] (28)
00F5EF  09                 [214] (28)
00F5F0  00                 [215] (28)
00F5F1  00                 [216] (28)
00F5F2  D2                 [217] (28)
00F5F3  09                 [218] (28)
00F5F4  00                 [219] (28)
00F5F5  00                 [220] (28)
00F5F6  D4                 [221] (30)
00F5F7  09                 [222] (30)
00F5F8  00                 [223] (30)
00F5F9  00                 [224] (31)
00F5FA  D4                 [225] (31)
00F5FB  09                 [226] (33)
00F5FC  00                 [227] (33)
00F5FD  00                 [228] (33)
00F5FE  D4                 [229] (33)
00F5FF  09                 [230] (33)
00F600  00                 [231] (33)
00F601  00                 [232] (34)
00F602  D6                 [233] (34)
00F603  09                 [234] (34)
00F604  00                 [235] (34)
00F605  00                 [236] (34)
00F606  D6                 [237] (34)
00F607  09                 [238] (34)
00F608  00                 [239] (34)
00F609  00                 [240] (34)
00F60A  D6                 [241] (34)
00F60B  09                 [242] (34)
00F60C  00                 [243] (38)
00F60D  00                 [244] (38)
00F60E  D6                 [245] (38)
00F60F  09                 [246] (38)
00F610  00                 [247] (38)
00F611  00                 [248] (38)
00F612  D6                 [249] (39)
00F613  09                 [250] (39)
00F614  00                 [251] (39)
00F615  00                 [252] (42)
00F616  D6                 [253] (42)
00F617  09                 [254] (42)
00F618  00                 [255] (42)
00F619  00                 [256] (42)
00F61A  D6                 [257] (43)
00F61B  09                 [258] (43)
00F61C  00                 [259] (43)
00F61D  00                 [260] (43)
00F61E  D9                 [261] (47)
00F61F  09                 [262] (47)
00F620  00                 [263] (47)
00F621  00                 [264] (48)
00F622  D9                 [265] (48)
00F623  09                 [266] (48)
00F624  00                 [267] (49)
00F625  00                 [268] (49)
00F626  D9                 [269] (49)
00F627  09                 [270] (51)
00F628  00                 [271] (51)
00F629  00                 [272] (51)
00F62A  D9                 [273] (51)
00F62B  09                 [274] (51)
00F62C  00                 [275] (51)
00F62D  00                 [276] (51)
00F62E  DC                 [277] (51)
00F62F  09                 [278] (54)
00F630  00                 [279] (54)
00F631  00                 [280] (54)
00F632  DC                 [281] (57)
00F633  09                 [282] (57)
00F634  00                 [283] (57)
00F635  00                 [284] (58)
00F636  DD                 [285] (58)
00F637  09                 [286] (58)
00F638  00                 [287] (58)
00F639  00                 [288] (59)
00F63A  DE                 [289] (59)
00F63B  09                 [290] (59)
00F63C  00                 [291] (59)
00F63D  00                 [292] (59)
00F63E  DE                 [293] (59)
00F63F  09                 [294] (59)
00F640  00                 [295] (60)
00F641  00                 [296] (60)
00F642  DE                 [297] (60)
00F643  09                 [298] (60)
00F644  00                 [299] (60)
00F645  00                 [300] (60)
00F646  DE                 [301] (60)
00F647  09                 [302] (60)
00F648  00                 [303] (61)
00F649  00                 [304] (61)
00F64A  DE                 [305] (61)
00F64B  09                 [306] (61)
00F64C  00                 [307] (61)
00F64D  00                 [308] (63)
00F64E  DE                 [309] (63)
00F64F  09                 [310] (63)
00F650  00                 [311] (63)
00F651  00                 [312] (63)
00F652  DF                 [313] (63)
00F653  09                 [314] (63)
00F654  00                 [315] (63)
00F655  00                 [316] (64)
00F656  DF                 [317] (64)
00F657  09                 [318] (64)
00F658  00                 [319] (64)
00F659  00                 [320] (66)
00F65A  DF                 [321] (66)
00F65B  09                 [322] (66)
00F65C  00                 [323] (66)
00F65D  00                 [324] (66)
00F65E  DF                 [325] (66)
00F65F  09                 [326] (68)
00F660  00                 [327] (68)
00F661  00                 [328] (68)
00F662  E0                 [329] (68)
00F663  09                 [330] (69)
00F664  00                 [331] (69)
00F665  00                 [332] (69)
00F666  E0                 [333] (71)
00F667  09                 [334] (71)
00F668  00                 [335] (71)
00F669  00                 [336] (71)
00F66A  E0                 [337] (72)
00F66B  09                 [338] (72)
00F66C  00                 [339] (72)
00F66D  00                 [340] (72)
00F66E  E1                 [341] (72)
00F66F  09                 [342] (73)
00F670  00                 [343] (73)
00F671  00                 [344] (73)
00F672  E1                 [345] (73)
00F673  09                 [346] (76)
00F674  00                 [347] (76)
00F675  00                 [348] (76)
00F676  E2                 [349] (76)
00F677  09                 [350] (79)
00F678  00                 [351] (79)
00F679  00                 [352] (79)
00F67A  E2                 [353] (79)
00F67B  09                 [354] (79)
00F67C  00                 [355] (79)
00F67D  00                 [356] (79)
00F67E  E2                 [357] (80)
00F67F  09                 [358] (80)
00F680  00                 [359] (80)
00F681  00                 [360] (81)
00F682  E2                 [361] (81)
00F683  09                 [362] (81)
00F684  00                 [363] (81)
00F685  00                 [364] (81)
00F686  E2                 [365] (82)
00F687  09                 [366] (82)
00F688  00                 [367] (82)
00F689  00                 [368] (82)
00F68A  E3                 [369] (83)
00F68B  09                 [370] (83)
00F68C  00                 [371] (83)
00F68D  00                 [372] (83)
00F68E  E4                 [373] (85)
00F68F  09                 [374] (85)
00F690  00                 [375] (85)
00F691  00                 [376] (85)
00F692  DF                 [377] (86)
00F693  09                 [378] (86)
00F694  00                 [379] (86)
00F695  00                 [380] (86)
00F696  E8                 [381] (86)
00F697  09                 [382] (87)
00F698  00                 [383] (87)
00F699  00                 [384] (87)
00F69A  E8                 [385] (87)
00F69B  09                 [386] (87)
00F69C  00                 [387] (87)
00F69D  00                 [388] (85)
00F69E  E8                 [389] (88)
00F69F  09                 [390] (92)
00F6A0  00                 [391] (92)
00F6A1  00                 [392] (93)
                           * locals:
00FB3A  00                 sizelocvars (0)
                           * upvalues:
00FB3B  00                 sizeupvalues (0)
                           ** end of function **

                           * lines:
00FB3D  04                 sizelineinfo (557)
                           [pc] (line)
00FB3E  06                 [001] (6)
00FB3F  00                 [002] (6)
00FB40  00                 [003] (6)
00FB41  00                 [004] (6)
00FB42  06                 [005] (6)
00FB43  00                 [006] (16)
00FB44  00                 [007] (39)
00FB45  00                 [008] (40)
00FB46  06                 [009] (41)
00FB47  00                 [010] (42)
00FB48  00                 [011] (43)
00FB49  00                 [012] (47)
00FB4A  06                 [013] (48)
00FB4B  00                 [014] (49)
00FB4C  00                 [015] (50)
00FB4D  00                 [016] (51)
00FB4E  06                 [017] (54)
00FB4F  00                 [018] (55)
00FB50  00                 [019] (56)
00FB51  00                 [020] (57)
00FB52  10                 [021] (58)
00FB53  00                 [022] (59)
00FB54  00                 [023] (62)
00FB55  00                 [024] (63)
00FB56  27                 [025] (66)
00FB57  00                 [026] (67)
00FB58  00                 [027] (68)
00FB59  00                 [028] (69)
00FB5A  28                 [029] (70)
00FB5B  00                 [030] (71)
00FB5C  00                 [031] (74)
00FB5D  00                 [032] (78)
00FB5E  29                 [033] (81)
00FB5F  00                 [034] (85)
00FB60  00                 [035] (85)
00FB61  00                 [036] (85)
00FB62  2A                 [037] (85)
00FB63  00                 [038] (85)
00FB64  00                 [039] (85)
00FB65  00                 [040] (86)
00FB66  2B                 [041] (86)
00FB67  00                 [042] (86)
00FB68  00                 [043] (86)
00FB69  00                 [044] (86)
00FB6A  2F                 [045] (86)
00FB6B  00                 [046] (87)
00FB6C  00                 [047] (87)
00FB6D  00                 [048] (87)
00FB6E  30                 [049] (87)
00FB6F  00                 [050] (87)
00FB70  00                 [051] (87)
00FB71  00                 [052] (88)
00FB72  31                 [053] (88)
00FB73  00                 [054] (88)
00FB74  00                 [055] (88)
00FB75  00                 [056] (88)
00FB76  32                 [057] (88)
00FB77  00                 [058] (91)
00FB78  00                 [059] (92)
00FB79  00                 [060] (93)
00FB7A  33                 [061] (96)
00FB7B  00                 [062] (97)
00FB7C  00                 [063] (98)
00FB7D  00                 [064] (99)
00FB7E  36                 [065] (102)
00FB7F  00                 [066] (103)
00FB80  00                 [067] (104)
00FB81  00                 [068] (105)
00FB82  37                 [069] (106)
00FB83  00                 [070] (109)
00FB84  00                 [071] (110)
00FB85  00                 [072] (111)
00FB86  38                 [073] (112)
00FB87  00                 [074] (113)
00FB88  00                 [075] (116)
00FB89  00                 [076] (117)
00FB8A  39                 [077] (118)
00FB8B  00                 [078] (119)
00FB8C  00                 [079] (120)
00FB8D  00                 [080] (121)
00FB8E  3A                 [081] (124)
00FB8F  00                 [082] (124)
00FB90  00                 [083] (124)
00FB91  00                 [084] (125)
00FB92  3B                 [085] (125)
00FB93  00                 [086] (125)
00FB94  00                 [087] (-127)
00FB95  00                 [088] (-126)
00FB96  3E                 [089] (-125)
00FB97  00                 [090] (-124)
00FB98  00                 [091] (-124)
00FB99  00                 [092] (-124)
00FB9A  3F                 [093] (-123)
00FB9B  00                 [094] (-122)
00FB9C  00                 [095] (-121)
00FB9D  00                 [096] (-120)
00FB9E  42                 [097] (-120)
00FB9F  00                 [098] (-120)
00FBA0  00                 [099] (-104)
00FBA1  00                 [100] (-104)
00FBA2  43                 [101] (-104)
00FBA3  00                 [102] (-102)
00FBA4  00                 [103] (-101)
00FBA5  00                 [104] (-100)
00FBA6  44                 [105] (-97)
00FBA7  00                 [106] (-97)
00FBA8  00                 [107] (-97)
00FBA9  00                 [108] (-96)
00FBAA  45                 [109] (-96)
00FBAB  00                 [110] (-96)
00FBAC  00                 [111] (-95)
00FBAD  00                 [112] (-95)
00FBAE  46                 [113] (-95)
00FBAF  00                 [114] (-94)
00FBB0  00                 [115] (-94)
00FBB1  00                 [116] (-94)
00FBB2  47                 [117] (-93)
00FBB3  00                 [118] (-93)
00FBB4  00                 [119] (-93)
00FBB5  00                 [120] (-92)
00FBB6  4A                 [121] (-92)
00FBB7  00                 [122] (-92)
00FBB8  00                 [123] (-91)
00FBB9  00                 [124] (-91)
00FBBA  4E                 [125] (-91)
00FBBB  00                 [126] (-90)
00FBBC  00                 [127] (-90)
00FBBD  00                 [128] (-90)
00FBBE  51                 [129] (-89)
00FBBF  00                 [130] (-89)
00FBC0  00                 [131] (-89)
00FBC1  00                 [132] (-88)
00FBC2  55                 [133] (-88)
00FBC3  00                 [134] (-88)
00FBC4  00                 [135] (-87)
00FBC5  00                 [136] (-87)
00FBC6  55                 [137] (-87)
00FBC7  00                 [138] (-86)
00FBC8  00                 [139] (-86)
00FBC9  00                 [140] (-86)
00FBCA  55                 [141] (-83)
00FBCB  00                 [142] (-83)
00FBCC  00                 [143] (-83)
00FBCD  00                 [144] (-82)
00FBCE  55                 [145] (-82)
00FBCF  00                 [146] (-82)
00FBD0  00                 [147] (-81)
00FBD1  00                 [148] (-81)
00FBD2  55                 [149] (-81)
00FBD3  00                 [150] (-80)
00FBD4  00                 [151] (-80)
00FBD5  00                 [152] (-80)
00FBD6  55                 [153] (-78)
00FBD7  00                 [154] (-78)
00FBD8  00                 [155] (-78)
00FBD9  00                 [156] (-77)
00FBDA  56                 [157] (-77)
00FBDB  00                 [158] (-77)
00FBDC  00                 [159] (-76)
00FBDD  00                 [160] (-76)
00FBDE  56                 [161] (-76)
00FBDF  00                 [162] (-75)
00FBE0  00                 [163] (-75)
00FBE1  00                 [164] (-75)
00FBE2  56                 [165] (-73)
00FBE3  00                 [166] (-73)
00FBE4  00                 [167] (-73)
00FBE5  00                 [168] (-70)
00FBE6  56                 [169] (-69)
00FBE7  00                 [170] (-68)
00FBE8  00                 [171] (-66)
00FBE9  00                 [172] (-63)
00FBEA  56                 [173] (-63)
00FBEB  00                 [174] (-63)
00FBEC  00                 [175] (-63)
00FBED  00                 [176] (-63)
00FBEE  56                 [177] (-63)
00FBEF  00                 [178] (-63)
00FBF0  00                 [179] (-48)
00FBF1  00                 [180] (-48)
00FBF2  57                 [181] (-38)
00FBF3  00                 [182] (-38)
00FBF4  00                 [183] (-21)
00FBF5  00                 [184] (-21)
00FBF6  57                 [185] (4)
00FBF7  00                 [186] (73)
00FBF8  00                 [187] (73)
00FBF9  00                 [188] (73)
00FBFA  57                 [189] (73)
00FBFB  00                 [190] (78)
00FBFC  00                 [191] (83)
00FBFD  00                 [192] (83)
00FBFE  57                 [193] (83)
00FBFF  00                 [194] (93)
00FC00  00                 [195] (102)
00FC01  00                 [196] (106)
00FC02  57                 [197] (106)
00FC03  00                 [198] (-45)
00FC04  00                 [199] (-45)
00FC05  00                 [200] (-45)
00FC06  57                 [201] (-45)
00FC07  00                 [202] (-45)
00FC08  00                 [203] (110)
00FC09  00                 [204] (-17)
00FC0A  58                 [205] (-13)
00FC0B  00                 [206] (-13)
00FC0C  00                 [207] (-7)
00FC0D  00                 [208] (-7)
00FC0E  58                 [209] (-7)
00FC0F  00                 [210] (-11)
00FC10  00                 [211] (-1)
00FC11  00                 [212] (-1)
00FC12  58                 [213] (-5)
00FC13  00                 [214] (14)
00FC14  00                 [215] (21)
00FC15  00                 [216] (38)
00FC16  58                 [217] (47)
00FC17  00                 [218] (79)
00FC18  00                 [219] (79)
00FC19  00                 [220] (79)
00FC1A  58                 [221] (14)
00FC1B  00                 [222] (14)
00FC1C  00                 [223] (14)
00FC1D  00                 [224] (14)
00FC1E  58                 [225] (14)
00FC1F  00                 [226] (14)
00FC20  00                 [227] (14)
00FC21  00                 [228] (14)
00FC22  5B                 [229] (14)
00FC23  00                 [230] (14)
00FC24  00                 [231] (14)
00FC25  00                 [232] (14)
00FC26  5C                 [233] (14)
00FC27  00                 [234] (14)
00FC28  00                 [235] (14)
00FC29  00                 [236] (14)
00FC2A  5D                 [237] (14)
00FC2B  00                 [238] (14)
00FC2C  00                 [239] (14)
00FC2D  00                 [240] (81)
00FC2E  60                 [241] (46)
00FC2F  00                 [242] (46)
00FC30  00                 [243] (46)
00FC31  00                 [244] (46)
00FC32  61                 [245] (46)
00FC33  00                 [246] (46)
00FC34  00                 [247] (46)
00FC35  00                 [248] (46)
00FC36  62                 [249] (46)
00FC37  00                 [250] (60)
00FC38  00                 [251] (60)
00FC39  00                 [252] (60)
00FC3A  63                 [253] (75)
00FC3B  00                 [254] (75)
00FC3C  00                 [255] (75)
00FC3D  00                 [256] (75)
00FC3E  66                 [257] (75)
00FC3F  00                 [258] (75)
00FC40  00                 [259] (75)
00FC41  00                 [260] (62)
00FC42  67                 [261] (79)
00FC43  00                 [262] (79)
00FC44  00                 [263] (79)
00FC45  00                 [264] (77)
00FC46  68                 [265] (90)
00FC47  00                 [266] (-100)
00FC48  00                 [267] (-65)
00FC49  00                 [268] (-65)
00FC4A  69                 [269] (-65)
00FC4B  00                 [270] (-65)
00FC4C  00                 [271] (-65)
00FC4D  00                 [272] (-65)
00FC4E  6A                 [273] (-65)
00FC4F  00                 [274] (-55)
00FC50  00                 [275] (-55)
00FC51  00                 [276] (-55)
00FC52  6D                 [277] (-14)
00FC53  00                 [278] (-14)
00FC54  00                 [279] (-14)
00FC55  00                 [280] (-14)
00FC56  6E                 [281] (-14)
00FC57  00                 [282] (-14)
00FC58  00                 [283] (-14)
00FC59  00                 [284] (-14)
00FC5A  6F                 [285] (-14)
00FC5B  00                 [286] (-14)
00FC5C  00                 [287] (-14)
00FC5D  00                 [288] (-14)
00FC5E  70                 [289] (-14)
00FC5F  00                 [290] (-3)
00FC60  00                 [291] (-3)
00FC61  00                 [292] (-3)
00FC62  71                 [293] (-3)
00FC63  00                 [294] (-3)
00FC64  00                 [295] (-3)
00FC65  00                 [296] (-127)
00FC66  74                 [297] (-127)
00FC67  00                 [298] (-127)
00FC68  00                 [299] (-127)
00FC69  00                 [300] (-127)
00FC6A  75                 [301] (-127)
00FC6B  00                 [302] (-127)
00FC6C  00                 [303] (-127)
00FC6D  00                 [304] (-127)
00FC6E  76                 [305] (-127)
00FC6F  00                 [306] (-127)
00FC70  00                 [307] (-127)
00FC71  00                 [308] (-127)
00FC72  77                 [309] (-127)
00FC73  00                 [310] (-127)
00FC74  00                 [311] (-127)
00FC75  00                 [312] (-127)
00FC76  78                 [313] (-127)
00FC77  00                 [314] (-127)
00FC78  00                 [315] (-127)
00FC79  00                 [316] (-127)
00FC7A  79                 [317] (-127)
00FC7B  00                 [318] (-127)
00FC7C  00                 [319] (-127)
00FC7D  00                 [320] (-127)
00FC7E  7C                 [321] (-127)
00FC7F  00                 [322] (-127)
00FC80  00                 [323] (-127)
00FC81  00                 [324] (-127)
00FC82  7C                 [325] (-127)
00FC83  00                 [326] (-127)
00FC84  00                 [327] (-102)
00FC85  00                 [328] (-102)
00FC86  7C                 [329] (-102)
00FC87  00                 [330] (-102)
00FC88  00                 [331] (-102)
00FC89  00                 [332] (-102)
00FC8A  7D                 [333] (-94)
00FC8B  00                 [334] (-94)
00FC8C  00                 [335] (-94)
00FC8D  00                 [336] (-98)
00FC8E  7D                 [337] (-90)
00FC8F  00                 [338] (-90)
00FC90  00                 [339] (-92)
00FC91  00                 [340] (11)
00FC92  7D                 [341] (11)
00FC93  00                 [342] (11)
00FC94  00                 [343] (11)
00FC95  00                 [344] (11)
00FC96  81                 [345] (11)
00FC97  00                 [346] (11)
00FC98  00                 [347] (11)
00FC99  00                 [348] (11)
00FC9A  82                 [349] (11)
00FC9B  00                 [350] (11)
00FC9C  00                 [351] (11)
00FC9D  00                 [352] (11)
00FC9E  83                 [353] (11)
00FC9F  00                 [354] (11)
00FCA0  00                 [355] (11)
00FCA1  00                 [356] (15)
00FCA2  84                 [357] (15)
00FCA3  00                 [358] (15)
00FCA4  00                 [359] (13)
00FCA5  00                 [360] (68)
00FCA6  84                 [361] (68)
00FCA7  00                 [362] (68)
00FCA8  00                 [363] (68)
00FCA9  00                 [364] (68)
00FCAA  84                 [365] (68)
00FCAB  00                 [366] (68)
00FCAC  00                 [367] (68)
00FCAD  00                 [368] (68)
00FCAE  85                 [369] (68)
00FCAF  00                 [370] (17)
00FCB0  00                 [371] (-127)
00FCB1  00                 [372] (-127)
00FCB2  86                 [373] (-127)
00FCB3  00                 [374] (-127)
00FCB4  00                 [375] (-127)
00FCB5  00                 [376] (-127)
00FCB6  87                 [377] (-127)
00FCB7  00                 [378] (-127)
00FCB8  00                 [379] (-127)
00FCB9  00                 [380] (-127)
00FCBA  88                 [381] (-127)
00FCBB  00                 [382] (70)
00FCBC  00                 [383] (-43)
00FCBD  00                 [384] (-43)
00FCBE  88                 [385] (-43)
00FCBF  00                 [386] (-43)
00FCC0  00                 [387] (-43)
00FCC1  00                 [388] (-43)
00FCC2  88                 [389] (-43)
00FCC3  00                 [390] (-125)
00FCC4  00                 [391] (104)
00FCC5  00                 [392] (104)
00FCC6  98                 [393] (104)
00FCC7  00                 [394] (104)
00FCC8  00                 [395] (104)
00FCC9  00                 [396] (104)
00FCCA  98                 [397] (104)
00FCCB  00                 [398] (104)
00FCCC  00                 [399] (104)
00FCCD  00                 [400] (104)
00FCCE  98                 [401] (104)
00FCCF  00                 [402] (104)
00FCD0  00                 [403] (104)
00FCD1  00                 [404] (104)
00FCD2  9A                 [405] (104)
00FCD3  00                 [406] (104)
00FCD4  00                 [407] (104)
00FCD5  00                 [408] (104)
00FCD6  9B                 [409] (104)
00FCD7  00                 [410] (-41)
00FCD8  00                 [411] (111)
00FCD9  00                 [412] (111)
00FCDA  9C                 [413] (111)
00FCDB  00                 [414] (106)
00FCDC  00                 [415] (115)
00FCDD  00                 [416] (-92)
00FCDE  9F                 [417] (-92)
00FCDF  00                 [418] (-92)
00FCE0  00                 [419] (-92)
00FCE1  00                 [420] (-92)
00FCE2  9F                 [421] (-78)
00FCE3  00                 [422] (-78)
00FCE4  00                 [423] (-78)
00FCE5  00                 [424] (-45)
00FCE6  9F                 [425] (-45)
00FCE7  00                 [426] (-45)
00FCE8  00                 [427] (-45)
00FCE9  00                 [428] (-45)
00FCEA  A0                 [429] (-45)
00FCEB  00                 [430] (-45)
00FCEC  00                 [431] (-45)
00FCED  00                 [432] (-45)
00FCEE  A0                 [433] (-45)
00FCEF  00                 [434] (10)
00FCF0  00                 [435] (10)
00FCF1  00                 [436] (10)
00FCF2  A0                 [437] (10)
00FCF3  00                 [438] (10)
00FCF4  00                 [439] (10)
00FCF5  00                 [440] (10)
00FCF6  A1                 [441] (-38)
00FCF7  00                 [442] (-38)
00FCF8  00                 [443] (-38)
00FCF9  00                 [444] (-38)
00FCFA  A1                 [445] (-38)
00FCFB  00                 [446] (-38)
00FCFC  00                 [447] (-38)
00FCFD  00                 [448] (-38)
00FCFE  A1                 [449] (-38)
00FCFF  00                 [450] (-38)
00FD00  00                 [451] (-38)
00FD01  00                 [452] (-38)
00FD02  A2                 [453] (-38)
00FD03  00                 [454] (-38)
00FD04  00                 [455] (-38)
00FD05  00                 [456] (-38)
00FD06  A2                 [457] (-38)
00FD07  00                 [458] (-38)
00FD08  00                 [459] (-38)
00FD09  00                 [460] (-38)
00FD0A  A2                 [461] (-38)
00FD0B  00                 [462] (-38)
00FD0C  00                 [463] (-38)
00FD0D  00                 [464] (-38)
00FD0E  A3                 [465] (-38)
00FD0F  00                 [466] (49)
00FD10  00                 [467] (49)
00FD11  00                 [468] (49)
00FD12  A3                 [469] (49)
00FD13  00                 [470] (49)
00FD14  00                 [471] (49)
00FD15  00                 [472] (49)
00FD16  A3                 [473] (49)
00FD17  00                 [474] (49)
00FD18  00                 [475] (49)
00FD19  00                 [476] (49)
00FD1A  A4                 [477] (49)
00FD1B  00                 [478] (49)
00FD1C  00                 [479] (49)
00FD1D  00                 [480] (49)
00FD1E  A4                 [481] (49)
00FD1F  00                 [482] (49)
00FD20  00                 [483] (49)
00FD21  00                 [484] (49)
00FD22  A4                 [485] (49)
00FD23  00                 [486] (-36)
00FD24  00                 [487] (96)
00FD25  00                 [488] (96)
00FD26  A5                 [489] (96)
00FD27  00                 [490] (51)
00FD28  00                 [491] (126)
00FD29  00                 [492] (30)
00FD2A  A5                 [493] (30)
00FD2B  00                 [494] (30)
00FD2C  00                 [495] (30)
00FD2D  00                 [496] (30)
00FD2E  A5                 [497] (30)
00FD2F  00                 [498] (30)
00FD30  00                 [499] (30)
00FD31  00                 [500] (30)
00FD32  A6                 [501] (30)
00FD33  00                 [502] (30)
00FD34  00                 [503] (30)
00FD35  00                 [504] (30)
00FD36  A6                 [505] (30)
00FD37  00                 [506] (30)
00FD38  00                 [507] (30)
00FD39  00                 [508] (30)
00FD3A  A6                 [509] (30)
00FD3B  00                 [510] (-128)
00FD3C  00                 [511] (-77)
00FD3D  00                 [512] (-77)
00FD3E  A7                 [513] (-77)
00FD3F  00                 [514] (-77)
00FD40  00                 [515] (-77)
00FD41  00                 [516] (-77)
00FD42  A7                 [517] (-77)
00FD43  00                 [518] (-77)
00FD44  00                 [519] (-77)
00FD45  00                 [520] (-77)
00FD46  A7                 [521] (-77)
00FD47  00                 [522] (-77)
00FD48  00                 [523] (-77)
00FD49  00                 [524] (-77)
00FD4A  A8                 [525] (-77)
00FD4B  00                 [526] (-77)
00FD4C  00                 [527] (-77)
00FD4D  00                 [528] (-77)
00FD4E  A8                 [529] (-77)
00FD4F  00                 [530] (-77)
00FD50  00                 [531] (-77)
00FD51  00                 [532] (32)
00FD52  A8                 [533] (93)
00FD53  00                 [534] (93)
00FD54  00                 [535] (93)
00FD55  00                 [536] (93)
00FD56  A9                 [537] (93)
00FD57  00                 [538] (93)
00FD58  00                 [539] (93)
00FD59  00                 [540] (93)
00FD5A  A9                 [541] (93)
00FD5B  00                 [542] (93)
00FD5C  00                 [543] (93)
00FD5D  00                 [544] (93)
00FD5E  A9                 [545] (93)
00FD5F  00                 [546] (93)
00FD60  00                 [547] (93)
00FD61  00                 [548] (93)
00FD62  AA                 [549] (93)
00FD63  00                 [550] (93)
00FD64  00                 [551] (93)
00FD65  00                 [552] (93)
00FD66  AA                 [553] (93)
00FD67  00                 [554] (93)
00FD68  00                 [555] (93)
00FD69  00                 [556] (-73)
00FD6A  AA                 [557] (93)
                           * locals:
0103F2  00                 sizelocvars (0)
                           * upvalues:
0103F3  00                 sizeupvalues (0)
                           ** end of function **

0103F4                     ** end of chunk **
