1	C:\wlua_dump\path\Lotus\ScriptsQuestMissionSetup.lua
Pos   Hex Data           Description or Code
------------------------------------------------------------------------
0000                     ** source chunk: C:\wlua_dump\path\Lotus\ScriptsQuestMissionSetup.lua
                         ** global header start **
0000  7F                 header signature: ""
0001  00                 version (major:minor hex digits)
0002  00                 format (0=official)
0003  00                 endianness (1=little endian)
0004  00                 size of int (bytes)
0005  00                 size of size_t (bytes)
0006  02                 size of Instruction (bytes)
0007  1A                 size of number (bytes)
0008  8C                 integral (1=integral)
4140
                         * number type: single
                         * x86 standard (32-bit, little endian, doubles)
                         ** global header end **
Lotus.Interface.LotusUtilities
/Lotus/Interface/EndOfMatch.swf
OnSyncInbox
QuestCompleteCallback
OnQuestsReset
InboxCb
GiveTransmissions
GiveOneRandomTransmission
GiveTransmissionsIfEggsFound
GiveTransmissionsIfKubrowAlive
GiveTransmissionsIfItemConstructionStarted
GiveTransmissionsIfItemOwned
GiveTransmissionIfItemNotOwned
itemGate
itemGateMultiple
SendInbox
inboxOrdis
itemGateProgressReset
itemGateProgressNext
itemGateProgressNextMulti
itemGateProgressResetMultiple
shipFeatureGate
KubrowEggCheck
KubrowCheck
KubrowStillValidCheck
KubrowEggPhaseBypassCheck
AddCustomItemDrop
OnMessageTriggered
TriggerMessage
OnItemsTriggered
TriggerItems
TriggerItemsForCurrentQuestStage
PlayArchwingBlueprintTransmission
NagTransmissions
PlayTransmission
AdvanceQuestToNextStage
CheckLibraryScanStatusAdvance
CompleteQuestStageOnMissionPlayed
CompleteQuestStageIfItemOwned
PopUpCodexEntry
PlayOperatorConversation
ShowDiorama
_T
questInfo
difficulty
_T
TransmissionConvoDone
PauseNotifications
delays
waitForTransmissions
curTransmission
QuestCompleteCallback
blockUntilSuccess
_T
BackgroundMovie
ShowBlockingMessage
1
math
0
_T
NotificationTransmissionThrottle
gPlayerProfileMgr
gLastHighPriorityMessageCount
gQueueMailbox
gPlayerProfileMgr
OnSyncInbox
gRecipeItemType
gPlayerProfileMgr
checkItemType
checkSuitType
checkArchwingType
bypassItemGateOnQuestReplay
gPlayerProfileMgr
checkSuitType
checkArchwingType
transmissions
gFlashMgr
gPlayerProfileMgr
playOnQuestReplayOnly
playTransmissionsOnlyOncePerLogin
_G
LastQuestTransmission
quest
stage
waitForCinematicEnd
gBackgroundRegion
waitForMenuClose
_T
AnyMenuOpen
gFlashMgr
waitForInboxClose
/Lotus/Interface/Inbox.swf
waitForTransmissions
TransmissionConvoDone
advanceQuestAfterTransmissions
questProgress
QuestCompleteCallback
enableArchwing
advanceQuestToNextStageAfterTransmissions
gPlayerProfileMgr
math
chanceForOneRandom
checkItemType
transmissions
gPlayerProfileMgr
gPlayerProfileMgr
mDetails
mStatus
Lotus_Game
KubrowPetInfoDetails_STATUS_STASIS
mItemType
gPlayerProfileMgr
recipe
mItemType
mItemCount
gPlayerProfileMgr
checkItemType
checkOnce
gPlayerProfileMgr
checkItemType
gPlayerProfileMgr
questProgress
QuestCompleteCallback
checkItemMultipleType
gPlayerProfileMgr
questProgress
QuestCompleteCallback
inboxDelay
gPlayerProfileMgr
inboxTitle
inboxBody
sender
senderIcon
highPriority
InboxCb
inboxTransmission
questProgress
QuestCompleteCallback
/Lotus/Interface/Inbox.swf
gFlashMgr
transmissions
gPlayerProfileMgr
checkItemType
questProgress
QuestCompleteCallback
key
resetQuestStep
OnQuestsReset
transmissions
gPlayerProfileMgr
checkItemType
bypassItemGateOnQuestReplay
QuestCompleteCallback
gPlayerProfileMgr
requireAllItems
checkItemMultipleType
bypassItemGateOnQuestReplay
QuestCompleteCallback
gPlayerProfileMgr
checkArchwingType
checkItemMultipleType
questProgress
QuestCompleteCallback
key
resetQuestStep
OnQuestsReset
transmissions
gPlayerProfileMgr
ShipFeature
questProgress
QuestCompleteCallback
gPlayerProfileMgr
checkItemType
questProgress
QuestCompleteCallback
gPlayerProfileMgr
math
chanceForOneRandom
mDetails
mStatus
Lotus_Game
KubrowPetInfoDetails_STATUS_STASIS
KubrowPetInfoDetails_STATUS_AVAILABLE
mIsPuppy
mDominantTraits
mPersonality
checkSuitType
KubrowPetInfoDetails_STATUS_INCUBATING
Engine
mHatchDate
transmissions
reminderTrans
questProgress
QuestCompleteCallback
gPlayerProfileMgr
mDetails
mStatus
Lotus_Game
KubrowPetInfoDetails_STATUS_AVAILABLE
mIsPuppy
mDominantTraits
mPersonality
checkSuitType
key
noKubrowsResetQuestStep
OnQuestsReset
resetQuestStep
gPlayerProfileMgr
questProgress
resetQuestStep
QuestCompleteCallback
gGameRules
itemDropChance
itemDrop
Success
Body
lotusChallengeMgr
Conditional challenge not completed, skipping stage
gPlayerProfileMgr
lotusChallengeMgr
conditionalChallenge
_T
QuestOperationsInProgress
Trigger message: 
key
unknown key
gPlayerProfileMgr
useCurrentStage
messageTriggerStage
chinaBuildMessageTriggerStage
Engine
/Lotus/Interface/Codex.swf
gFlashMgr
OnMessageTriggered
Success
OnSyncInbox
/Lotus/Interface/Inbox.swf
math
advanceQuest
advanceQuestAfterTransmissions
questProgress
QuestCompleteCallback
Success
Body
gPlayerProfileMgr
_T
QuestOperationsInProgress
keyRes
itemTriggerStage
OnItemsTriggered
Success
gPlayerProfileMgr
_T
QuestOperationsInProgress
OnItemsTriggered
Success
gPlayerProfileMgr
archwingBlueprintTypes
mItemType
mItemCount
math
nagChance
transmissions
key
gGameData
AdvanceToNextStage called with wrong quest active
gPlayerProfileMgr
libraryScanTarget
mCompleted
_G
MissionPlayed
gPlayerProfileMgr
gPlayerProfileMgr
checkOnce
checkItemType
gRegion
gFlashMgr
blockingInputFilter
_T
QuickSelectObjectType
codexEntryObject
Intel
waitForMenuClose
codexDeco
ZERO_VECTOR
ZERO_ROTATION
advanceQuestToNextStageAfterTransmissions
delay
gPlayerProfileMgr
gPlayerProfileMgr
waitForCinematicEnd
gBackgroundRegion
waitForMenuClose
_T
AnyMenuOpen
gFlashMgr
mOperatorCustomization
Lotus_Game
TOSS_VOICE
mItemType
/Lotus/Upgrades/Skins/Voices/OperatorVoiceCTransmissionSet
transmissionTags
otherTransmissionSet
advanceQuestToNextStageAfterTransmissions
lotusChallengeMgr
conditionalChallenge
_T
gAboutToForceShowDiorama
gFlashMgr
AnyMenuOpen
dioramaMovie
LoadDiorama
diorama
duringDioramaTrans
closeDelay
CloseDiorama

gPlayerProfileMgr
                         
0001                     ** function [0] definition (level 1)
                         ** start of function **
0001  00                 string size (0)
                         source name: (none)
0002  00                 line defined (0)
0003  00                 last line defined (0)
0004  00                 nups (0)
0005  00                 numparams (0)
0006  02                 is_vararg (2)
0007  1A                 maxstacksize (26)
                         * code:
0009  02                 sizecode (268)
000A  1D000000           [001] getglobal  0   0        ; 849075268
000E  59400000           [002] loadk      1   1        ; "Lotus.Interface.LotusUtilities"
0012  22800001           [003] call       0   2   2  
0016  57000000           [004] loadbool   1   0   0    ; false
001A  97000000           [005] loadbool   2   0   0    ; false
001E  D7000000           [006] loadbool   3   0   0    ; false
0022  17010000           [007] loadbool   4   0   0    ; false
0026  57010000           [008] loadbool   5   0   0    ; false
002A  97010000           [009] loadbool   6   0   0    ; false
002E  D7010000           [010] loadbool   7   0   0    ; false
0032  17020000           [011] loadbool   8   0   0    ; false
0036  59820000           [012] loadk      9   2        ; 0
003A  86028005           [013] loadnil    10  11     
003E  1DC30000           [014] getglobal  12  3        ; 738251817
0042  59030100           [015] loadk      13  4        ; "/Lotus/Interface/EndOfMatch.swf"
0046  22830001           [016] call       12  2   2  
004A  4B030001           [017] newtable   13  2   0    ; array=2, hash=0
004E  99430100           [018] loadk      14  5        ; 0
0052  D9830100           [019] loadk      15  6        ; 0
0056  5B430001           [020] setlist    13  2   1    ; index 1 to 2
005A  A5030000           [021] closure    14  0      
005E  E5430000           [022] closure    15  1      
0062  12000000           [023] move       0   0      
0066  25840000           [024] closure    16  2      
006A  12000000           [025] move       0   0      
006E  12008002           [026] move       0   5      
0072  12000002           [027] move       0   4      
0076  65C40000           [028] closure    17  3      
007A  12000000           [029] move       0   0      
007E  A5040100           [030] closure    18  4      
0082  12000003           [031] move       0   6      
0086  12008003           [032] move       0   7      
008A  12000004           [033] move       0   8      
008E  A0C40100           [034] setglobal  18  7        ; OnSyncInbox
0092  A0040200           [035] setglobal  18  8        ; -762033404
0096  A5440100           [036] closure    18  5      
009A  12008002           [037] move       0   5      
009E  12000002           [038] move       0   4      
00A2  A0440200           [039] setglobal  18  9        ; QuestCompleteCallback
00A6  A0840200           [040] setglobal  18  10       ; 1491697653
00AA  A5840100           [041] closure    18  6      
00AE  12000001           [042] move       0   2      
00B2  12008001           [043] move       0   3      
00B6  A0C40200           [044] setglobal  18  11       ; OnQuestsReset
00BA  A0040300           [045] setglobal  18  12       ; -1553981057
00BE  A5C40100           [046] closure    18  7      
00C2  12008000           [047] move       0   1      
00C6  12000003           [048] move       0   6      
00CA  A0440300           [049] setglobal  18  13       ; InboxCb
00CE  A0840300           [050] setglobal  18  14       ; 1158678216
00D2  A5040200           [051] closure    18  8      
00D6  E5440200           [052] closure    19  9      
00DA  12000009           [053] move       0   18     
00DE  12000000           [054] move       0   0      
00E2  25850200           [055] closure    20  10     
00E6  12000009           [056] move       0   18     
00EA  65C50200           [057] closure    21  11     
00EE  12008007           [058] move       0   15     
00F2  A5050300           [059] closure    22  12     
00F6  E5450300           [060] closure    23  13     
00FA  12000000           [061] move       0   0      
00FE  12000007           [062] move       0   14     
0102  12000006           [063] move       0   12     
0106  1200000B           [064] move       0   22     
010A  1200800A           [065] move       0   21     
010E  12000002           [066] move       0   4      
0112  12008002           [067] move       0   5      
0116  E0C50300           [068] setglobal  23  15       ; GiveTransmissions
011A  E0050400           [069] setglobal  23  16       ; -158434193
011E  E5850300           [070] closure    23  14     
0122  12000009           [071] move       0   18     
0126  12000000           [072] move       0   0      
012A  E0450400           [073] setglobal  23  17       ; GiveOneRandomTransmission
012E  E0850400           [074] setglobal  23  18       ; 1480898070
0132  E5C50300           [075] closure    23  15     
0136  1200800A           [076] move       0   21     
013A  E0C50400           [077] setglobal  23  19       ; GiveTransmissionsIfEggsFound
013E  E0050500           [078] setglobal  23  20       ; -719761537
0142  E5050400           [079] closure    23  16     
0146  1200800A           [080] move       0   21     
014A  E0450500           [081] setglobal  23  21       ; GiveTransmissionsIfKubrowAlive
014E  E0850500           [082] setglobal  23  22       ; -39877087
0152  E5450400           [083] closure    23  17     
0156  25860400           [084] closure    24  18     
015A  1200800B           [085] move       0   23     
015E  1200800A           [086] move       0   21     
0162  20C60500           [087] setglobal  24  23       ; GiveTransmissionsIfItemConstructionStarted
0166  20060600           [088] setglobal  24  24       ; 971929019
016A  25C60400           [089] closure    24  19     
016E  12000009           [090] move       0   18     
0172  1200800A           [091] move       0   21     
0176  20460600           [092] setglobal  24  25       ; GiveTransmissionsIfItemOwned
017A  20860600           [093] setglobal  24  26       ; 1431519018
017E  25060500           [094] closure    24  20     
0182  12000009           [095] move       0   18     
0186  1200800A           [096] move       0   21     
018A  20C60600           [097] setglobal  24  27       ; GiveTransmissionIfItemNotOwned
018E  20060700           [098] setglobal  24  28       ; 1438844685
0192  25460500           [099] closure    24  21     
0196  12008009           [100] move       0   19     
019A  12000002           [101] move       0   4      
019E  12008002           [102] move       0   5      
01A2  12000000           [103] move       0   0      
01A6  12008004           [104] move       0   9      
01AA  20460700           [105] setglobal  24  29       ; itemGate
01AE  20860700           [106] setglobal  24  30       ; -495256184
01B2  25860500           [107] closure    24  22     
01B6  12008009           [108] move       0   19     
01BA  12000002           [109] move       0   4      
01BE  1200800A           [110] move       0   21     
01C2  12000000           [111] move       0   0      
01C6  20C60700           [112] setglobal  24  31       ; itemGateMultiple
01CA  20060800           [113] setglobal  24  32       ; -663409454
01CE  25C60500           [114] closure    24  23     
01D2  12008000           [115] move       0   1      
01D6  12000002           [116] move       0   4      
01DA  12000000           [117] move       0   0      
01DE  20460800           [118] setglobal  24  33       ; SendInbox
01E2  20860800           [119] setglobal  24  34       ; 1742052261
01E6  25060600           [120] closure    24  24     
01EA  12008007           [121] move       0   15     
01EE  20C60800           [122] setglobal  24  35       ; inboxOrdis
01F2  20060900           [123] setglobal  24  36       ; -1697387849
01F6  25460600           [124] closure    24  25     
01FA  1200000A           [125] move       0   20     
01FE  12000002           [126] move       0   4      
0202  12000000           [127] move       0   0      
0206  12000001           [128] move       0   2      
020A  12008007           [129] move       0   15     
020E  20460900           [130] setglobal  24  37       ; itemGateProgressReset
0212  20860900           [131] setglobal  24  38       ; -1919818180
0216  25860600           [132] closure    24  26     
021A  1200000A           [133] move       0   20     
021E  12000000           [134] move       0   0      
0222  12000002           [135] move       0   4      
0226  20C60900           [136] setglobal  24  39       ; itemGateProgressNext
022A  20060A00           [137] setglobal  24  40       ; 2083515117
022E  25C60600           [138] closure    24  27     
0232  1200000A           [139] move       0   20     
0236  12000000           [140] move       0   0      
023A  12000002           [141] move       0   4      
023E  20460A00           [142] setglobal  24  41       ; itemGateProgressNextMulti
0242  20860A00           [143] setglobal  24  42       ; -888583433
0246  25060700           [144] closure    24  28     
024A  12000009           [145] move       0   18     
024E  12000002           [146] move       0   4      
0252  12008002           [147] move       0   5      
0256  12000000           [148] move       0   0      
025A  12008004           [149] move       0   9      
025E  12000001           [150] move       0   2      
0262  12008001           [151] move       0   3      
0266  12008007           [152] move       0   15     
026A  20C60A00           [153] setglobal  24  43       ; itemGateProgressResetMultiple
026E  20060B00           [154] setglobal  24  44       ; 1914875241
0272  25460700           [155] closure    24  29     
0276  12000002           [156] move       0   4      
027A  12000000           [157] move       0   0      
027E  20460B00           [158] setglobal  24  45       ; shipFeatureGate
0282  20860B00           [159] setglobal  24  46       ; 1136325717
0286  25860700           [160] closure    24  30     
028A  1200000A           [161] move       0   20     
028E  12000002           [162] move       0   4      
0292  12000000           [163] move       0   0      
0296  20C60B00           [164] setglobal  24  47       ; KubrowEggCheck
029A  20060C00           [165] setglobal  24  48       ; 120650239
029E  25C60700           [166] closure    24  31     
02A2  12008006           [167] move       0   13     
02A6  12000000           [168] move       0   0      
02AA  12000002           [169] move       0   4      
02AE  20460C00           [170] setglobal  24  49       ; KubrowCheck
02B2  20860C00           [171] setglobal  24  50       ; 416621929
02B6  25060800           [172] closure    24  32     
02BA  12000001           [173] move       0   2      
02BE  12000000           [174] move       0   0      
02C2  20C60C00           [175] setglobal  24  51       ; KubrowStillValidCheck
02C6  20060D00           [176] setglobal  24  52       ; -1623399364
02CA  25460800           [177] closure    24  33     
02CE  12000002           [178] move       0   4      
02D2  12008002           [179] move       0   5      
02D6  12000000           [180] move       0   0      
02DA  20460D00           [181] setglobal  24  53       ; KubrowEggPhaseBypassCheck
02DE  20860D00           [182] setglobal  24  54       ; -425370283
02E2  25860800           [183] closure    24  34     
02E6  20C60D00           [184] setglobal  24  55       ; AddCustomItemDrop
02EA  20060E00           [185] setglobal  24  56       ; 139637693
02EE  25C60800           [186] closure    24  35     
02F2  12000005           [187] move       0   10     
02F6  20460E00           [188] setglobal  24  57       ; OnMessageTriggered
02FA  20860E00           [189] setglobal  24  58       ; -1140869158
02FE  25060900           [190] closure    24  36     
0302  12000008           [191] move       0   16     
0306  65460900           [192] closure    25  37     
030A  1200000C           [193] move       0   24     
030E  12008008           [194] move       0   17     
0312  12000005           [195] move       0   10     
0316  12000003           [196] move       0   6      
031A  12008003           [197] move       0   7      
031E  12000004           [198] move       0   8      
0322  12008004           [199] move       0   9      
0326  12000008           [200] move       0   16     
032A  12000002           [201] move       0   4      
032E  12008002           [202] move       0   5      
0332  12000000           [203] move       0   0      
0336  60C60E00           [204] setglobal  25  59       ; TriggerMessage
033A  60060F00           [205] setglobal  25  60       ; -1320800680
033E  65860900           [206] closure    25  38     
0342  12008005           [207] move       0   11     
0346  60460F00           [208] setglobal  25  61       ; OnItemsTriggered
034A  60860F00           [209] setglobal  25  62       ; -1449620531
034E  65C60900           [210] closure    25  39     
0352  12008005           [211] move       0   11     
0356  12008004           [212] move       0   9      
035A  60C60F00           [213] setglobal  25  63       ; TriggerItems
035E  60061000           [214] setglobal  25  64       ; 2097177218
0362  65060A00           [215] closure    25  40     
0366  12000000           [216] move       0   0      
036A  12008005           [217] move       0   11     
036E  12008004           [218] move       0   9      
0372  60461000           [219] setglobal  25  65       ; TriggerItemsForCurrentQuestStage
0376  60861000           [220] setglobal  25  66       ; -2069178566
037A  65460A00           [221] closure    25  41     
037E  1200800A           [222] move       0   21     
0382  60C61000           [223] setglobal  25  67       ; PlayArchwingBlueprintTransmission
0386  60061100           [224] setglobal  25  68       ; 1421327140
038A  65860A00           [225] closure    25  42     
038E  12000000           [226] move       0   0      
0392  60461100           [227] setglobal  25  69       ; NagTransmissions
0396  60861100           [228] setglobal  25  70       ; -337999034
039A  65C60A00           [229] closure    25  43     
039E  12000000           [230] move       0   0      
03A2  60C61100           [231] setglobal  25  71       ; PlayTransmission
03A6  60061200           [232] setglobal  25  72       ; 99549206
03AA  65060B00           [233] closure    25  44     
03AE  12000008           [234] move       0   16     
03B2  60461200           [235] setglobal  25  73       ; AdvanceQuestToNextStage
03B6  60861200           [236] setglobal  25  74       ; -701401813
03BA  65460B00           [237] closure    25  45     
03BE  12000008           [238] move       0   16     
03C2  60C61200           [239] setglobal  25  75       ; CheckLibraryScanStatusAdvance
03C6  60061300           [240] setglobal  25  76       ; 1203196381
03CA  65860B00           [241] closure    25  46     
03CE  1200800A           [242] move       0   21     
03D2  12000008           [243] move       0   16     
03D6  60461300           [244] setglobal  25  77       ; CompleteQuestStageOnMissionPlayed
03DA  60861300           [245] setglobal  25  78       ; 1418186863
03DE  65C60B00           [246] closure    25  47     
03E2  12000009           [247] move       0   18     
03E6  12000008           [248] move       0   16     
03EA  60C61300           [249] setglobal  25  79       ; CompleteQuestStageIfItemOwned
03EE  60061400           [250] setglobal  25  80       ; 1599476701
03F2  65060C00           [251] closure    25  48     
03F6  12000008           [252] move       0   16     
03FA  60461400           [253] setglobal  25  81       ; PopUpCodexEntry
03FE  60861400           [254] setglobal  25  82       ; 757941867
0402  65460C00           [255] closure    25  49     
0406  12000006           [256] move       0   12     
040A  12000000           [257] move       0   0      
040E  12000008           [258] move       0   16     
0412  60C61400           [259] setglobal  25  83       ; PlayOperatorConversation
0416  60061500           [260] setglobal  25  84       ; 1983957062
041A  65860C00           [261] closure    25  50     
041E  1200000C           [262] move       0   24     
0422  12000006           [263] move       0   12     
0426  12000000           [264] move       0   0      
042A  12000008           [265] move       0   16     
042E  60461500           [266] setglobal  25  85       ; ShowDiorama
0432  60861500           [267] setglobal  25  86       ; -483672822
0436  1E008000           [268] return     0   1      
                         * constants:
043A  57                 sizek (87)
043B  01                 const type 3
043C  44DC9B32           const [0]: (849075268)
0440  04                 const type 4
0441  1F                 string size (31)
0442  4C6F7475732E496E+  "Lotus.In"
044A  746572666163652E+  "terface."
0452  4C6F747573557469+  "LotusUti"
045A  6C697469657300     "lities\0"
                         const [1]: "Lotus.Interface.LotusUtilities"
0461  03                 const type 3
0462  00000000           const [2]: (0)
0466  01                 const type 3
0467  29D4002C           const [3]: (738251817)
046B  04                 const type 4
046C  20                 string size (32)
046D  2F4C6F7475732F49+  "/Lotus/I"
0475  6E74657266616365+  "nterface"
047D  2F456E644F664D61+  "/EndOfMa"
0485  7463682E73776600   "tch.swf\0"
                         const [4]: "/Lotus/Interface/EndOfMatch.swf"
048D  03                 const type 3
048E  0000A041           const [5]: (0)
0492  03                 const type 3
0493  00004842           const [6]: (0)
0497  04                 const type 4
0498  0C                 string size (12)
0499  4F6E53796E63496E+  "OnSyncIn"
04A1  626F7800           "box\0"
                         const [7]: "OnSyncInbox"
04A5  01                 const type 3
04A6  044B94D2           const [8]: (-762033404)
04AA  04                 const type 4
04AB  16                 string size (22)
04AC  5175657374436F6D+  "QuestCom"
04B4  706C65746543616C+  "pleteCal"
04BC  6C6261636B00       "lback\0"
                         const [9]: "QuestCompleteCallback"
04C2  01                 const type 3
04C3  F57FE958           const [10]: (1491697653)
04C7  04                 const type 4
04C8  0E                 string size (14)
04C9  4F6E517565737473+  "OnQuests"
04D1  526573657400       "Reset\0"
                         const [11]: "OnQuestsReset"
04D7  01                 const type 3
04D8  7F2160A3           const [12]: (-1553981057)
04DC  04                 const type 4
04DD  08                 string size (8)
04DE  496E626F78436200   "InboxCb\0"
                         const [13]: "InboxCb"
04E6  01                 const type 3
04E7  C8061045           const [14]: (1158678216)
04EB  04                 const type 4
04EC  12                 string size (18)
04ED  476976655472616E+  "GiveTran"
04F5  736D697373696F6E+  "smission"
04FD  7300               "s\0"
                         const [15]: "GiveTransmissions"
04FF  01                 const type 3
0500  6F7C8EF6           const [16]: (-158434193)
0504  04                 const type 4
0505  1A                 string size (26)
0506  476976654F6E6552+  "GiveOneR"
050E  616E646F6D547261+  "andomTra"
0516  6E736D697373696F+  "nsmissio"
051E  6E00               "n\0"
                         const [17]: "GiveOneRandomTransmission"
0520  01                 const type 3
0521  16B64458           const [18]: (1480898070)
0525  04                 const type 4
0526  1D                 string size (29)
0527  476976655472616E+  "GiveTran"
052F  736D697373696F6E+  "smission"
0537  7349664567677346+  "sIfEggsF"
053F  6F756E6400         "ound\0"
                         const [19]: "GiveTransmissionsIfEggsFound"
0544  01                 const type 3
0545  7F4F19D5           const [20]: (-719761537)
0549  04                 const type 4
054A  1F                 string size (31)
054B  476976655472616E+  "GiveTran"
0553  736D697373696F6E+  "smission"
055B  7349664B7562726F+  "sIfKubro"
0563  77416C69766500     "wAlive\0"
                         const [21]: "GiveTransmissionsIfKubrowAlive"
056A  01                 const type 3
056B  21869FFD           const [22]: (-39877087)
056F  04                 const type 4
0570  2B                 string size (43)
0571  476976655472616E+  "GiveTran"
0579  736D697373696F6E+  "smission"
0581  7349664974656D43+  "sIfItemC"
0589  6F6E737472756374+  "onstruct"
0591  696F6E5374617274+  "ionStart"
0599  656400             "ed\0"
                         const [23]: "GiveTransmissionsIfItemConstructionStarted"
059C  01                 const type 3
059D  BB75EE39           const [24]: (971929019)
05A1  04                 const type 4
05A2  1D                 string size (29)
05A3  476976655472616E+  "GiveTran"
05AB  736D697373696F6E+  "smission"
05B3  7349664974656D4F+  "sIfItemO"
05BB  776E656400         "wned\0"
                         const [25]: "GiveTransmissionsIfItemOwned"
05C0  01                 const type 3
05C1  2A3F5355           const [26]: (1431519018)
05C5  04                 const type 4
05C6  1F                 string size (31)
05C7  476976655472616E+  "GiveTran"
05CF  736D697373696F6E+  "smission"
05D7  49664974656D4E6F+  "IfItemNo"
05DF  744F776E656400     "tOwned\0"
                         const [27]: "GiveTransmissionIfItemNotOwned"
05E6  01                 const type 3
05E7  0D07C355           const [28]: (1438844685)
05EB  04                 const type 4
05EC  09                 string size (9)
05ED  6974656D47617465+  "itemGate"
05F5  00                 "\0"
                         const [29]: "itemGate"
05F6  01                 const type 3
05F7  88FD7AE2           const [30]: (-495256184)
05FB  04                 const type 4
05FC  11                 string size (17)
05FD  6974656D47617465+  "itemGate"
0605  4D756C7469706C65+  "Multiple"
060D  00                 "\0"
                         const [31]: "itemGateMultiple"
060E  01                 const type 3
060F  D22C75D8           const [32]: (-663409454)
0613  04                 const type 4
0614  0A                 string size (10)
0615  53656E64496E626F+  "SendInbo"
061D  7800               "x\0"
                         const [33]: "SendInbox"
061F  01                 const type 3
0620  A59BD567           const [34]: (1742052261)
0624  04                 const type 4
0625  0B                 string size (11)
0626  696E626F784F7264+  "inboxOrd"
062E  697300             "is\0"
                         const [35]: "inboxOrdis"
0631  01                 const type 3
0632  B7EAD39A           const [36]: (-1697387849)
0636  04                 const type 4
0637  16                 string size (22)
0638  6974656D47617465+  "itemGate"
0640  50726F6772657373+  "Progress"
0648  526573657400       "Reset\0"
                         const [37]: "itemGateProgressReset"
064E  01                 const type 3
064F  3CE6918D           const [38]: (-1919818180)
0653  04                 const type 4
0654  15                 string size (21)
0655  6974656D47617465+  "itemGate"
065D  50726F6772657373+  "Progress"
0665  4E65787400         "Next\0"
                         const [39]: "itemGateProgressNext"
066A  01                 const type 3
066B  EDEA2F7C           const [40]: (2083515117)
066F  04                 const type 4
0670  1A                 string size (26)
0671  6974656D47617465+  "itemGate"
0679  50726F6772657373+  "Progress"
0681  4E6578744D756C74+  "NextMult"
0689  6900               "i\0"
                         const [41]: "itemGateProgressNextMulti"
068B  01                 const type 3
068C  F74A09CB           const [42]: (-888583433)
0690  04                 const type 4
0691  1E                 string size (30)
0692  6974656D47617465+  "itemGate"
069A  50726F6772657373+  "Progress"
06A2  52657365744D756C+  "ResetMul"
06AA  7469706C6500       "tiple\0"
                         const [43]: "itemGateProgressResetMultiple"
06B0  01                 const type 3
06B1  69AD2272           const [44]: (1914875241)
06B5  04                 const type 4
06B6  10                 string size (16)
06B7  7368697046656174+  "shipFeat"
06BF  7572654761746500   "ureGate\0"
                         const [45]: "shipFeatureGate"
06C7  01                 const type 3
06C8  55F4BA43           const [46]: (1136325717)
06CC  04                 const type 4
06CD  0F                 string size (15)
06CE  4B7562726F774567+  "KubrowEg"
06D6  67436865636B00     "gCheck\0"
                         const [47]: "KubrowEggCheck"
06DD  01                 const type 3
06DE  FFF93007           const [48]: (120650239)
06E2  04                 const type 4
06E3  0C                 string size (12)
06E4  4B7562726F774368+  "KubrowCh"
06EC  65636B00           "eck\0"
                         const [49]: "KubrowCheck"
06F0  01                 const type 3
06F1  6925D518           const [50]: (416621929)
06F5  04                 const type 4
06F6  16                 string size (22)
06F7  4B7562726F775374+  "KubrowSt"
06FF  696C6C56616C6964+  "illValid"
0707  436865636B00       "Check\0"
                         const [51]: "KubrowStillValidCheck"
070D  01                 const type 3
070E  3CE43C9F           const [52]: (-1623399364)
0712  04                 const type 4
0713  1A                 string size (26)
0714  4B7562726F774567+  "KubrowEg"
071C  6750686173654279+  "gPhaseBy"
0724  7061737343686563+  "passChec"
072C  6B00               "k\0"
                         const [53]: "KubrowEggPhaseBypassCheck"
072E  01                 const type 3
072F  555DA5E6           const [54]: (-425370283)
0733  04                 const type 4
0734  12                 string size (18)
0735  416464437573746F+  "AddCusto"
073D  6D4974656D44726F+  "mItemDro"
0745  7000               "p\0"
                         const [55]: "AddCustomItemDrop"
0747  01                 const type 3
0748  BDB35208           const [56]: (139637693)
074C  04                 const type 4
074D  13                 string size (19)
074E  4F6E4D6573736167+  "OnMessag"
0756  6554726967676572+  "eTrigger"
075E  656400             "ed\0"
                         const [57]: "OnMessageTriggered"
0761  01                 const type 3
0762  DAB7FFBB           const [58]: (-1140869158)
0766  04                 const type 4
0767  0F                 string size (15)
0768  547269676765724D+  "TriggerM"
0770  65737361676500     "essage\0"
                         const [59]: "TriggerMessage"
0777  01                 const type 3
0778  582E46B1           const [60]: (-1320800680)
077C  04                 const type 4
077D  11                 string size (17)
077E  4F6E4974656D7354+  "OnItemsT"
0786  7269676765726564+  "riggered"
078E  00                 "\0"
                         const [61]: "OnItemsTriggered"
078F  01                 const type 3
0790  CD8B98A9           const [62]: (-1449620531)
0794  04                 const type 4
0795  0D                 string size (13)
0796  5472696767657249+  "TriggerI"
079E  74656D7300         "tems\0"
                         const [63]: "TriggerItems"
07A3  01                 const type 3
07A4  8262007D           const [64]: (2097177218)
07A8  04                 const type 4
07A9  21                 string size (33)
07AA  5472696767657249+  "TriggerI"
07B2  74656D73466F7243+  "temsForC"
07BA  757272656E745175+  "urrentQu"
07C2  6573745374616765+  "estStage"
07CA  00                 "\0"
                         const [65]: "TriggerItemsForCurrentQuestStage"
07CB  01                 const type 3
07CC  3AD7AA84           const [66]: (-2069178566)
07D0  04                 const type 4
07D1  22                 string size (34)
07D2  506C617941726368+  "PlayArch"
07DA  77696E67426C7565+  "wingBlue"
07E2  7072696E74547261+  "printTra"
07EA  6E736D697373696F+  "nsmissio"
07F2  6E00               "n\0"
                         const [67]: "PlayArchwingBlueprintTransmission"
07F4  01                 const type 3
07F5  24BBB754           const [68]: (1421327140)
07F9  04                 const type 4
07FA  11                 string size (17)
07FB  4E61675472616E73+  "NagTrans"
0803  6D697373696F6E73+  "missions"
080B  00                 "\0"
                         const [69]: "NagTransmissions"
080C  01                 const type 3
080D  468BDAEB           const [70]: (-337999034)
0811  04                 const type 4
0812  11                 string size (17)
0813  506C61795472616E+  "PlayTran"
081B  736D697373696F6E+  "smission"
0823  00                 "\0"
                         const [71]: "PlayTransmission"
0824  01                 const type 3
0825  1600EF05           const [72]: (99549206)
0829  04                 const type 4
082A  18                 string size (24)
082B  416476616E636551+  "AdvanceQ"
0833  75657374546F4E65+  "uestToNe"
083B  7874537461676500   "xtStage\0"
                         const [73]: "AdvanceQuestToNextStage"
0843  01                 const type 3
0844  2B7531D6           const [74]: (-701401813)
0848  04                 const type 4
0849  1E                 string size (30)
084A  436865636B4C6962+  "CheckLib"
0852  726172795363616E+  "raryScan"
085A  5374617475734164+  "StatusAd"
0862  76616E636500       "vance\0"
                         const [75]: "CheckLibraryScanStatusAdvance"
0868  01                 const type 3
0869  DD51B747           const [76]: (1203196381)
086D  04                 const type 4
086E  22                 string size (34)
086F  436F6D706C657465+  "Complete"
0877  5175657374537461+  "QuestSta"
087F  67654F6E4D697373+  "geOnMiss"
0887  696F6E506C617965+  "ionPlaye"
088F  6400               "d\0"
                         const [77]: "CompleteQuestStageOnMissionPlayed"
0891  01                 const type 3
0892  6FD08754           const [78]: (1418186863)
0896  04                 const type 4
0897  1E                 string size (30)
0898  436F6D706C657465+  "Complete"
08A0  5175657374537461+  "QuestSta"
08A8  676549664974656D+  "geIfItem"
08B0  4F776E656400       "Owned\0"
                         const [79]: "CompleteQuestStageIfItemOwned"
08B6  01                 const type 3
08B7  DD13565F           const [80]: (1599476701)
08BB  04                 const type 4
08BC  10                 string size (16)
08BD  506F705570436F64+  "PopUpCod"
08C5  6578456E74727900   "exEntry\0"
                         const [81]: "PopUpCodexEntry"
08CD  01                 const type 3
08CE  6B462D2D           const [82]: (757941867)
08D2  04                 const type 4
08D3  19                 string size (25)
08D4  506C61794F706572+  "PlayOper"
08DC  61746F72436F6E76+  "atorConv"
08E4  6572736174696F6E+  "ersation"
08EC  00                 "\0"
                         const [83]: "PlayOperatorConversation"
08ED  01                 const type 3
08EE  46C84076           const [84]: (1983957062)
08F2  04                 const type 4
08F3  0C                 string size (12)
08F4  53686F7744696F72+  "ShowDior"
08FC  616D6100           "ama\0"
                         const [85]: "ShowDiorama"
0900  01                 const type 3
0901  0ABD2BE3           const [86]: (-483672822)
                         * functions:
0905  33                 sizep (51)
                         
0906                     ** function [0] definition (level 2)
                         ** start of function **
0906  00                 string size (0)
                         source name: (none)
0907  53                 line defined (83)
0908  56                 last line defined (86)
0909  00                 nups (0)
090A  00                 numparams (0)
090B  00                 is_vararg (0)
090C  02                 maxstacksize (2)
                         * code:
090D  12                 sizecode (18)
090E  1D000000           [01] getglobal  0   0        ; _T
0912  0E404000           [02] gettable   0   0   257  ; "questInfo"
0916  18000000           [03] test       0       0    ; to [5] if true
091A  1AC00280           [04] jmp        12           ; to [17]
091E  1D000000           [05] getglobal  0   0        ; _T
0922  0E404000           [06] gettable   0   0   257  ; "questInfo"
0926  0E804000           [07] gettable   0   0   258  ; "difficulty"
092A  18000000           [08] test       0       0    ; to [10] if true
092E  1A800180           [09] jmp        7            ; to [17]
0932  1D000000           [10] getglobal  0   0        ; _T
0936  0E404000           [11] gettable   0   0   257  ; "questInfo"
093A  0E804000           [12] gettable   0   0   258  ; "difficulty"
fail op	21
093E  55008081           [13] concat     1   259 0  
0942  1A000080           [14] jmp        1            ; to [16]
0946  17400000           [15] loadbool   0   0   1    ; false, to [17]
094A  17008000           [16] loadbool   0   1   0    ; true
094E  1E000001           [17] return     0   2      
0952  1E008000           [18] return     0   1      
                         * constants:
0956  04                 sizek (4)
0957  04                 const type 4
0958  03                 string size (3)
0959  5F5400             "_T\0"
                         const [0]: "_T"
095C  04                 const type 4
095D  0A                 string size (10)
095E  7175657374496E66+  "questInf"
0966  6F00               "o\0"
                         const [1]: "questInfo"
0968  04                 const type 4
0969  0B                 string size (11)
096A  646966666963756C+  "difficul"
0972  747900             "ty\0"
                         const [2]: "difficulty"
0975  03                 const type 3
0976  00000000           const [3]: (0)
                         * functions:
097A  00                 sizep (0)
                         * lines:
097B  12                 sizelineinfo (18)
                         [pc] (line)
097C  54                 [01] (84)
097D  00                 [02] (84)
097E  00                 [03] (84)
097F  00                 [04] (84)
0980  54                 [05] (84)
0981  00                 [06] (84)
0982  00                 [07] (84)
0983  00                 [08] (84)
0984  54                 [09] (84)
0985  00                 [10] (84)
0986  00                 [11] (84)
0987  00                 [12] (84)
0988  54                 [13] (84)
0989  00                 [14] (84)
098A  00                 [15] (84)
098B  00                 [16] (84)
098C  54                 [17] (85)
098D  00                 [18] (86)
                         * locals:
09C4  00                 sizelocvars (0)
                         * upvalues:
09C5  00                 sizeupvalues (0)
                         ** end of function **

                         
09C6                     ** function [1] definition (level 2)
                         ** start of function **
09C6  00                 string size (0)
                         source name: (none)
09C7  58                 line defined (88)
09C8  71                 last line defined (113)
09C9  01                 nups (1)
09CA  02                 numparams (2)
09CB  00                 is_vararg (0)
09CC  08                 maxstacksize (8)
                         * code:
09CD  42                 sizecode (66)
09CE  9D000000           [01] getglobal  2   0        ; _T
09D2  8C80C080           [02] settable   2   257 258  ; "TransmissionConvoDone" 0
09D6  9D000000           [03] getglobal  2   0        ; _T
09DA  8EC04001           [04] gettable   2   2   259  ; "PauseNotifications"
09DE  98000000           [05] test       2       0    ; to [7] if true
09E2  1AC00080           [06] jmp        4            ; to [11]
09E6  9D000100           [07] getglobal  2   4        ; 538022378
09EA  D9400100           [08] loadk      3   5        ; 0
09EE  A2400001           [09] call       2   2   1  
09F2  1AC0FD7F           [10] jmp        -8           ; to [3]
09F6  99400100           [11] loadk      2   5        ; 0
09FA  CA008000           [12] len        3   1      
09FE  19810100           [13] loadk      4   6        ; 0
0A02  90000B80           [14] forprep    2   45       ; to [60]
0A06  9DC10100           [15] getglobal  6   7        ; 1074689893
0A0A  CE418100           [16] gettable   7   1   5  
0A0E  A2810001           [17] call       6   2   2  
0A12  98410000           [18] test       6       1    ; to [20] if false
0A16  1AC00980           [19] jmp        40           ; to [60]
0A1A  9DC10100           [20] getglobal  6   7        ; 1074689893
0A1E  DD010200           [21] getglobal  7   8        ; delays
0A22  A2810001           [22] call       6   2   2  
0A26  98410000           [23] test       6       1    ; to [25] if false
0A2A  1AC00180           [24] jmp        8            ; to [33]
0A2E  9D010200           [25] getglobal  6   8        ; delays
0A32  8A010003           [26] len        6   6      
fail op	33
0A36  21808102           [27] tforloop   0       6    ; to [29] if exit
0A3A  1AC00080           [28] jmp        4            ; to [33]
0A3E  9D010100           [29] getglobal  6   4        ; 538022378
0A42  DD010200           [30] getglobal  7   8        ; delays
0A46  CE418103           [31] gettable   7   7   5  
0A4A  A2410001           [32] call       6   2   1  
0A4E  93010000           [33] getupval   6   0      
0A52  8E414203           [34] gettable   6   6   265  ; 910246418
0A56  CE418100           [35] gettable   7   1   5  
0A5A  A2410001           [36] call       6   2   1  
0A5E  9D810200           [37] getglobal  6   10       ; waitForTransmissions
0A62  98010000           [38] test       6       0    ; to [40] if true
0A66  1AC00480           [39] jmp        20           ; to [60]
0A6A  9DC10100           [40] getglobal  6   7        ; 1074689893
0A6E  DD010000           [41] getglobal  7   0        ; _T
0A72  CEC1C203           [42] gettable   7   7   267  ; "curTransmission"
0A76  A2810001           [43] call       6   2   2  
0A7A  98010000           [44] test       6       0    ; to [46] if true
0A7E  1AC00080           [45] jmp        4            ; to [50]
0A82  9D010100           [46] getglobal  6   4        ; 538022378
0A86  D9410100           [47] loadk      7   5        ; 0
0A8A  A2410001           [48] call       6   2   1  
0A8E  1A40FD7F           [49] jmp        -10          ; to [40]
0A92  9DC10100           [50] getglobal  6   7        ; 1074689893
0A96  DD010000           [51] getglobal  7   0        ; _T
0A9A  CEC1C203           [52] gettable   7   7   267  ; "curTransmission"
0A9E  A2810001           [53] call       6   2   2  
0AA2  98410000           [54] test       6       1    ; to [56] if false
0AA6  1AC00080           [55] jmp        4            ; to [60]
0AAA  9D010100           [56] getglobal  6   4        ; 538022378
0AAE  D9410100           [57] loadk      7   5        ; 0
0AB2  A2410001           [58] call       6   2   1  
0AB6  1A40FD7F           [59] jmp        -10          ; to [50]
0ABA  9440F47F           [60] forloop    2   -46      ; to [15] if loop
0ABE  9D010100           [61] getglobal  6   4        ; 538022378
0AC2  D9410100           [62] loadk      7   5        ; 0
0AC6  A2410001           [63] call       6   2   1  
0ACA  9D010000           [64] getglobal  6   0        ; _T
0ACE  8C01C380           [65] settable   6   257 268  ; "TransmissionConvoDone" 1
0AD2  1E008000           [66] return     0   1      
                         * constants:
0AD6  0D                 sizek (13)
0AD7  04                 const type 4
0AD8  03                 string size (3)
0AD9  5F5400             "_T\0"
                         const [0]: "_T"
0ADC  04                 const type 4
0ADD  16                 string size (22)
0ADE  5472616E736D6973+  "Transmis"
0AE6  73696F6E436F6E76+  "sionConv"
0AEE  6F446F6E6500       "oDone\0"
                         const [1]: "TransmissionConvoDone"
0AF4  01                 const type 3
0AF5  00000000           const [2]: (0)
0AF9  04                 const type 4
0AFA  13                 string size (19)
0AFB  50617573654E6F74+  "PauseNot"
0B03  696669636174696F+  "ificatio"
0B0B  6E7300             "ns\0"
                         const [3]: "PauseNotifications"
0B0E  01                 const type 3
0B0F  EA911120           const [4]: (538022378)
0B13  03                 const type 3
0B14  00000000           const [5]: (0)
0B18  03                 const type 3
0B19  0000803F           const [6]: (0)
0B1D  01                 const type 3
0B1E  65770E40           const [7]: (1074689893)
0B22  04                 const type 4
0B23  07                 string size (7)
0B24  64656C61797300     "delays\0"
                         const [8]: "delays"
0B2B  01                 const type 3
0B2C  12424136           const [9]: (910246418)
0B30  04                 const type 4
0B31  15                 string size (21)
0B32  77616974466F7254+  "waitForT"
0B3A  72616E736D697373+  "ransmiss"
0B42  696F6E7300         "ions\0"
                         const [10]: "waitForTransmissions"
0B47  04                 const type 4
0B48  10                 string size (16)
0B49  6375725472616E73+  "curTrans"
0B51  6D697373696F6E00   "mission\0"
                         const [11]: "curTransmission"
0B59  01                 const type 3
0B5A  01000000           const [12]: (1)
                         * functions:
0B5E  00                 sizep (0)
                         * lines:
0B5F  42                 sizelineinfo (66)
                         [pc] (line)
0B60  59                 [01] (89)
0B61  00                 [02] (89)
0B62  00                 [03] (91)
0B63  00                 [04] (91)
0B64  59                 [05] (91)
0B65  00                 [06] (91)
0B66  00                 [07] (92)
0B67  00                 [08] (92)
0B68  5B                 [09] (92)
0B69  00                 [10] (92)
0B6A  00                 [11] (95)
0B6B  00                 [12] (95)
0B6C  5B                 [13] (95)
0B6D  00                 [14] (95)
0B6E  00                 [15] (96)
0B6F  00                 [16] (96)
0B70  5B                 [17] (96)
0B71  00                 [18] (96)
0B72  00                 [19] (96)
0B73  00                 [20] (97)
0B74  5B                 [21] (97)
0B75  00                 [22] (97)
0B76  00                 [23] (97)
0B77  00                 [24] (97)
0B78  5C                 [25] (97)
0B79  00                 [26] (97)
0B7A  00                 [27] (97)
0B7B  00                 [28] (97)
0B7C  5C                 [29] (98)
0B7D  00                 [30] (98)
0B7E  00                 [31] (98)
0B7F  00                 [32] (98)
0B80  5C                 [33] (100)
0B81  00                 [34] (100)
0B82  00                 [35] (100)
0B83  00                 [36] (100)
0B84  5C                 [37] (101)
0B85  00                 [38] (101)
0B86  00                 [39] (101)
0B87  00                 [40] (102)
0B88  5F                 [41] (102)
0B89  00                 [42] (102)
0B8A  00                 [43] (102)
0B8B  00                 [44] (102)
0B8C  5F                 [45] (102)
0B8D  00                 [46] (103)
0B8E  00                 [47] (103)
0B8F  00                 [48] (103)
0B90  5F                 [49] (103)
0B91  00                 [50] (105)
0B92  00                 [51] (105)
0B93  00                 [52] (105)
0B94  5F                 [53] (105)
0B95  00                 [54] (105)
0B96  00                 [55] (105)
0B97  00                 [56] (106)
0B98  60                 [57] (106)
0B99  00                 [58] (106)
0B9A  00                 [59] (106)
0B9B  00                 [60] (95)
0B9C  60                 [61] (111)
0B9D  00                 [62] (111)
0B9E  00                 [63] (111)
0B9F  00                 [64] (112)
0BA0  60                 [65] (112)
0BA1  00                 [66] (113)
                         * locals:
0C68  00                 sizelocvars (0)
                         * upvalues:
0C69  00                 sizeupvalues (0)
                         ** end of function **

                         
0C6A                     ** function [2] definition (level 2)
                         ** start of function **
0C6A  00                 string size (0)
                         source name: (none)
0C6B  73                 line defined (115)
0C6C  A6                 last line defined (166)
0C6D  01                 nups (3)
0C6E  03                 numparams (1)
0C6F  01                 is_vararg (0)
0C70  00                 maxstacksize (14)
                         * code:
0C72  57                 sizecode (87)
0C73  53000000           [01] getupval   1   0      
0C77  4E00C000           [02] gettable   1   1   256  ; 1388869707
0C7B  92000000           [03] move       2   0      
0C7F  62000101           [04] call       1   2   4  
0C83  1D410000           [05] getglobal  4   1        ; 1074689893
0C87  52018000           [06] move       5   1      
0C8B  22810001           [07] call       4   2   2  
0C8F  18410000           [08] test       4       1    ; to [10] if false
0C93  1A001380           [09] jmp        77           ; to [87]
0C97  1D410000           [10] getglobal  4   1        ; 1074689893
0C9B  52010001           [11] move       5   2      
0C9F  22810001           [12] call       4   2   2  
0CA3  18410000           [13] test       4       1    ; to [15] if false
0CA7  1AC01180           [14] jmp        72           ; to [87]
0CAB  0D814001           [15] sub        4   2   258  ; 0
0CAF  57010000           [16] loadbool   5   0   0    ; false
fail op	8
0CB3  48018000           [17] setupval   5   1      
0CB7  57010000           [18] loadbool   5   0   0    ; false
fail op	8
0CBB  48010001           [19] setupval   5   2      
0CBF  64C14000           [20] self       5   0   259  ; 1139718821
0CC3  D2010002           [21] move       7   4      
0CC7  19020100           [22] loadk      8   4        ; "QuestCompleteCallback"
0CCB  62410002           [23] call       5   4   1  
0CCF  59410100           [24] loadk      5   5        ; 0
0CD3  99810100           [25] loadk      6   6        ; 0
0CD7  D9C10100           [26] loadk      7   7        ; 0
0CDB  17020000           [27] loadbool   8   0   0    ; false
0CDF  5D020200           [28] getglobal  9   8        ; blockUntilSuccess
0CE3  58420000           [29] test       9       1    ; to [31] if false
0CE7  1A000080           [30] jmp        1            ; to [32]
0CEB  D9810100           [31] loadk      7   6        ; 0
0CEF  53028000           [32] getupval   9   1      
0CF3  58420000           [33] test       9       1    ; to [35] if false
0CF7  1A000A80           [34] jmp        41           ; to [76]
0CFB  5D420200           [35] getglobal  9   9        ; 1661359502
0CFF  62828000           [36] call       9   1   2  
fail op	33
0D03  21C08183           [37] tforloop   0       7    ; to [39] if exit
0D07  1A000080           [38] jmp        1            ; to [40]
0D0B  C3418203           [39] add        7   7   9  
fail op	21
0D0F  15C00185           [40] concat     0   266 7  
0D13  1AC00180           [41] jmp        8            ; to [50]
0D17  9DC20200           [42] getglobal  10  11       ; _T
0D1B  8E024305           [43] gettable   10  10  268  ; "BackgroundMovie"
0D1F  A4424305           [44] self       10  10  269  ; 1167009705
0D23  19830300           [45] loadk      12  14       ; "ShowBlockingMessage"
0D27  59C30300           [46] loadk      13  15       ; "1"
0D2B  A2420002           [47] call       10  4   1  
0D2F  17028000           [48] loadbool   8   1   0    ; true
0D33  D9810100           [49] loadk      7   6        ; 0
0D37  93020001           [50] getupval   10  2      
0D3B  98020000           [51] test       10      0    ; to [53] if true
0D3F  1A000080           [52] jmp        1            ; to [54]
0D43  99C10100           [53] loadk      6   7        ; 0
fail op	33
0D47  21808183           [54] tforloop   0       6    ; to [56] if exit
0D4B  1A000080           [55] jmp        1            ; to [57]
0D4F  83410203           [56] add        6   6   9  
fail op	21
0D53  15808102           [57] concat     0   5   6  
0D57  1A000380           [58] jmp        13           ; to [72]
0D5B  99810100           [59] loadk      6   6        ; 0
0D5F  9D020400           [60] getglobal  10  16       ; math
0D63  8E424405           [61] gettable   10  10  273  ; 1710846250
0D67  C482C202           [62] mul        11  5   266  ; 0
0D6B  19830400           [63] loadk      12  18       ; 0
0D6F  A2828001           [64] call       10  3   2  
0D73  52010005           [65] move       5   10     
0D77  97020000           [66] loadbool   10  0   0    ; false
fail op	8
0D7B  88020001           [67] setupval   10  2      
0D7F  A4C24000           [68] self       10  0   259  ; 1139718821
0D83  12030002           [69] move       12  4      
0D87  59030100           [70] loadk      13  4        ; "QuestCompleteCallback"
0D8B  A2420002           [71] call       10  4   1  
0D8F  9DC20400           [72] getglobal  10  19       ; 538022378
0D93  D9C20100           [73] loadk      11  7        ; 0
0D97  A2420001           [74] call       10  2   1  
0D9B  1AC0F47F           [75] jmp        -44          ; to [32]
0D9F  18020000           [76] test       8       0    ; to [78] if true
0DA3  1A400180           [77] jmp        6            ; to [84]
0DA7  9DC20200           [78] getglobal  10  11       ; _T
0DAB  8E024305           [79] gettable   10  10  268  ; "BackgroundMovie"
0DAF  A4424305           [80] self       10  10  269  ; 1167009705
0DB3  19830300           [81] loadk      12  14       ; "ShowBlockingMessage"
0DB7  59030500           [82] loadk      13  20       ; "0"
0DBB  A2420002           [83] call       10  4   1  
0DBF  93020000           [84] getupval   10  0      
0DC3  8E424505           [85] gettable   10  10  277  ; -1405662448
0DC7  A2428000           [86] call       10  1   1  
0DCB  1E008000           [87] return     0   1      
                         * constants:
0DCF  16                 sizek (22)
0DD0  01                 const type 3
0DD1  4B78C852           const [0]: (1388869707)
0DD5  01                 const type 3
0DD6  65770E40           const [1]: (1074689893)
0DDA  03                 const type 3
0DDB  0000803F           const [2]: (0)
0DDF  01                 const type 3
0DE0  A5BAEE43           const [3]: (1139718821)
0DE4  04                 const type 4
0DE5  16                 string size (22)
0DE6  5175657374436F6D+  "QuestCom"
0DEE  706C65746543616C+  "pleteCal"
0DF6  6C6261636B00       "lback\0"
                         const [4]: "QuestCompleteCallback"
0DFC  03                 const type 3
0DFD  00004040           const [5]: (0)
0E01  03                 const type 3
0E02  000080BF           const [6]: (0)
0E06  03                 const type 3
0E07  00000000           const [7]: (0)
0E0B  04                 const type 4
0E0C  12                 string size (18)
0E0D  626C6F636B556E74+  "blockUnt"
0E15  696C537563636573+  "ilSucces"
0E1D  7300               "s\0"
                         const [8]: "blockUntilSuccess"
0E1F  01                 const type 3
0E20  8E550663           const [9]: (1661359502)
0E24  03                 const type 3
0E25  00000040           const [10]: (0)
0E29  04                 const type 4
0E2A  03                 string size (3)
0E2B  5F5400             "_T\0"
                         const [11]: "_T"
0E2E  04                 const type 4
0E2F  10                 string size (16)
0E30  4261636B67726F75+  "Backgrou"
0E38  6E644D6F76696500   "ndMovie\0"
                         const [12]: "BackgroundMovie"
0E40  01                 const type 3
0E41  A9278F45           const [13]: (1167009705)
0E45  04                 const type 4
0E46  14                 string size (20)
0E47  53686F77426C6F63+  "ShowBloc"
0E4F  6B696E674D657373+  "kingMess"
0E57  61676500           "age\0"
                         const [14]: "ShowBlockingMessage"
0E5B  04                 const type 4
0E5C  02                 string size (2)
0E5D  3100               "1\0"
                         const [15]: "1"
0E5F  04                 const type 4
0E60  05                 string size (5)
0E61  6D61746800         "math\0"
                         const [16]: "math"
0E66  01                 const type 3
0E67  2A71F965           const [17]: (1710846250)
0E6B  03                 const type 3
0E6C  00007042           const [18]: (0)
0E70  01                 const type 3
0E71  EA911120           const [19]: (538022378)
0E75  04                 const type 4
0E76  02                 string size (2)
0E77  3000               "0\0"
                         const [20]: "0"
0E79  01                 const type 3
0E7A  104B37AC           const [21]: (-1405662448)
                         * functions:
0E7E  00                 sizep (0)
                         * lines:
0E7F  57                 sizelineinfo (87)
                         [pc] (line)
0E80  74                 [01] (116)
0E81  00                 [02] (116)
0E82  00                 [03] (116)
0E83  00                 [04] (116)
0E84  74                 [05] (117)
0E85  00                 [06] (117)
0E86  00                 [07] (117)
0E87  00                 [08] (117)
0E88  74                 [09] (117)
0E89  00                 [10] (117)
0E8A  00                 [11] (117)
0E8B  00                 [12] (117)
0E8C  74                 [13] (117)
0E8D  00                 [14] (117)
0E8E  00                 [15] (118)
0E8F  00                 [16] (120)
0E90  75                 [17] (120)
0E91  00                 [18] (121)
0E92  00                 [19] (121)
0E93  00                 [20] (122)
0E94  75                 [21] (122)
0E95  00                 [22] (122)
0E96  00                 [23] (122)
0E97  00                 [24] (124)
0E98  75                 [25] (125)
0E99  00                 [26] (126)
0E9A  00                 [27] (127)
0E9B  00                 [28] (-128)
0E9C  75                 [29] (-128)
0E9D  00                 [30] (-128)
0E9E  00                 [31] (-127)
0E9F  00                 [32] (-124)
0EA0  75                 [33] (-124)
0EA1  00                 [34] (-124)
0EA2  00                 [35] (-123)
0EA3  00                 [36] (-123)
0EA4  75                 [37] (-121)
0EA5  00                 [38] (-121)
0EA6  00                 [39] (-120)
0EA7  00                 [40] (-118)
0EA8  75                 [41] (-118)
0EA9  00                 [42] (-117)
0EAA  00                 [43] (-117)
0EAB  00                 [44] (-117)
0EAC  75                 [45] (-117)
0EAD  00                 [46] (-117)
0EAE  00                 [47] (-117)
0EAF  00                 [48] (-116)
0EB0  75                 [49] (-115)
0EB1  00                 [50] (-112)
0EB2  00                 [51] (-112)
0EB3  00                 [52] (-112)
0EB4  75                 [53] (-111)
0EB5  00                 [54] (-108)
0EB6  00                 [55] (-108)
0EB7  00                 [56] (-107)
0EB8  76                 [57] (-105)
0EB9  00                 [58] (-105)
0EBA  00                 [59] (-104)
0EBB  00                 [60] (-103)
0EBC  78                 [61] (-103)
0EBD  00                 [62] (-103)
0EBE  00                 [63] (-103)
0EBF  00                 [64] (-103)
0EC0  78                 [65] (-103)
0EC1  00                 [66] (-102)
0EC2  00                 [67] (-102)
0EC3  00                 [68] (-101)
0EC4  79                 [69] (-101)
0EC5  00                 [70] (-101)
0EC6  00                 [71] (-101)
0EC7  00                 [72] (-99)
0EC8  79                 [73] (-99)
0EC9  00                 [74] (-99)
0ECA  00                 [75] (-99)
0ECB  00                 [76] (-96)
0ECC  7A                 [77] (-96)
0ECD  00                 [78] (-95)
0ECE  00                 [79] (-95)
0ECF  00                 [80] (-95)
0ED0  7A                 [81] (-95)
0ED1  00                 [82] (-95)
0ED2  00                 [83] (-95)
0ED3  00                 [84] (-92)
0ED4  7A                 [85] (-92)
0ED5  00                 [86] (-92)
0ED6  00                 [87] (-90)
                         * locals:
0FDC  00                 sizelocvars (0)
                         * upvalues:
0FDD  00                 sizeupvalues (0)
                         ** end of function **

                         
0FDE                     ** function [3] definition (level 2)
                         ** start of function **
0FDE  00                 string size (0)
                         source name: (none)
0FE0  01                 line defined (168)
0FE1  B1                 last line defined (177)
0FE2  01                 nups (1)
0FE3  01                 numparams (2)
0FE4  02                 is_vararg (0)
0FE5  00                 maxstacksize (7)
                         * code:
0FE7  15                 sizecode (21)
0FE8  93000000           [01] getupval   2   0      
0FEC  8E004001           [02] gettable   2   2   256  ; 1388869707
0FF0  D2000000           [03] move       3   0      
0FF4  A2000101           [04] call       2   2   4  
0FF8  5D410000           [05] getglobal  5   1        ; 1074689893
0FFC  92010001           [06] move       6   2      
1000  62810001           [07] call       5   2   2  
1004  58410000           [08] test       5       1    ; to [10] if false
1008  1A800280           [09] jmp        11           ; to [21]
100C  5D410000           [10] getglobal  5   1        ; 1074689893
1010  92018001           [11] move       6   3      
1014  62810001           [12] call       5   2   2  
1018  58410000           [13] test       5       1    ; to [15] if false
101C  1A400180           [14] jmp        6            ; to [21]
1020  58000000           [15] test       1       0    ; to [17] if true
1024  1A400080           [16] jmp        2            ; to [19]
1028  DE000001           [17] return     3   2      
102C  1A400080           [18] jmp        2            ; to [21]
1030  4D81C001           [19] sub        5   3   258  ; 0
1034  5E010001           [20] return     5   2      
1038  1E008000           [21] return     0   1      
                         * constants:
103C  03                 sizek (3)
103D  01                 const type 3
103E  4B78C852           const [0]: (1388869707)
1042  01                 const type 3
1043  65770E40           const [1]: (1074689893)
1047  03                 const type 3
1048  0000803F           const [2]: (0)
                         * functions:
104C  00                 sizep (0)
                         * lines:
104D  15                 sizelineinfo (21)
                         [pc] (line)
104E  A9                 [01] (-87)
104F  00                 [02] (-87)
1050  00                 [03] (-87)
1051  00                 [04] (-87)
1052  A9                 [05] (-86)
1053  00                 [06] (-86)
1054  00                 [07] (-86)
1055  00                 [08] (-86)
1056  A9                 [09] (-86)
1057  00                 [10] (-86)
1058  00                 [11] (-86)
1059  00                 [12] (-86)
105A  A9                 [13] (-86)
105B  00                 [14] (-86)
105C  00                 [15] (-85)
105D  00                 [16] (-85)
105E  AA                 [17] (-84)
105F  00                 [18] (-84)
1060  00                 [19] (-82)
1061  00                 [20] (-82)
1062  AA                 [21] (-79)
                         * locals:
10A2  00                 sizelocvars (0)
                         * upvalues:
10A3  00                 sizeupvalues (0)
                         ** end of function **

                         
10A4                     ** function [4] definition (level 2)
                         ** start of function **
10A4  00                 string size (0)
                         source name: (none)
10A6  01                 line defined (179)
10A7  CA                 last line defined (202)
10A8  01                 nups (3)
10A9  03                 numparams (2)
10AA  02                 is_vararg (0)
10AB  00                 maxstacksize (6)
                         * code:
10AD  29                 sizecode (41)
10AE  97008000           [01] loadbool   2   1   0    ; true
fail op	8
10B2  88000000           [02] setupval   2   0      
fail op	8
10B6  08008000           [03] setupval   0   1      
10BA  9D000000           [04] getglobal  2   0        ; _T
10BE  8C80C080           [05] settable   2   257 258  ; "NotificationTransmissionThrottle" 0
10C2  9DC00000           [06] getglobal  2   3        ; gPlayerProfileMgr
10C6  A4004101           [07] self       2   2   260  ; 569342746
10CA  19810000           [08] loadk      4   2        ; 0
10CE  A2808001           [09] call       2   3   2  
10D2  DD400100           [10] getglobal  3   5        ; 1074689893
10D6  12010001           [11] move       4   2      
10DA  E2800001           [12] call       3   2   2  
10DE  D8000000           [13] test       3       0    ; to [15] if true
10E2  1A000080           [14] jmp        1            ; to [16]
10E6  1E008000           [15] return     0   1      
10EA  E4804101           [16] self       3   2   262  ; 1699680402
10EE  E2800001           [17] call       3   2   2  
10F2  1D410100           [18] getglobal  4   5        ; 1074689893
10F6  52018001           [19] move       5   3      
10FA  22810001           [20] call       4   2   2  
10FE  18010000           [21] test       4       0    ; to [23] if true
1102  1A000080           [22] jmp        1            ; to [24]
1106  1E008000           [23] return     0   1      
110A  24C1C101           [24] self       4   3   263  ; 1903156542
110E  22810001           [25] call       4   2   2  
fail op	21
1112  15000181           [26] concat     0   258 4  
1116  1A800280           [27] jmp        11           ; to [39]
111A  5D010000           [28] getglobal  5   0        ; _T
111E  4E01C202           [29] gettable   5   5   264  ; "gLastHighPriorityMessageCount"
fail op	35
1122  63008102           [30] close      1  
1126  1A800180           [31] jmp        7            ; to [39]
112A  5D010000           [32] getglobal  5   0        ; _T
112E  4C81C284           [33] settable   5   265 266  ; "gQueueMailbox" 1
1132  5D010000           [34] getglobal  5   0        ; _T
1136  4C010184           [35] settable   5   264 4    ; "gLastHighPriorityMessageCount"
113A  57018000           [36] loadbool   5   1   0    ; true
fail op	8
113E  48010001           [37] setupval   5   2      
1142  1A400080           [38] jmp        2            ; to [41]
1146  57010000           [39] loadbool   5   0   0    ; false
fail op	8
114A  48010001           [40] setupval   5   2      
114E  1E008000           [41] return     0   1      
                         * constants:
1152  0B                 sizek (11)
1153  04                 const type 4
1154  03                 string size (3)
1155  5F5400             "_T\0"
                         const [0]: "_T"
1158  04                 const type 4
1159  21                 string size (33)
115A  4E6F746966696361+  "Notifica"
1162  74696F6E5472616E+  "tionTran"
116A  736D697373696F6E+  "smission"
1172  5468726F74746C65+  "Throttle"
117A  00                 "\0"
                         const [1]: "NotificationTransmissionThrottle"
117B  03                 const type 3
117C  00000000           const [2]: (0)
1180  04                 const type 4
1181  12                 string size (18)
1182  67506C6179657250+  "gPlayerP"
118A  726F66696C654D67+  "rofileMg"
1192  7200               "r\0"
                         const [3]: "gPlayerProfileMgr"
1194  01                 const type 3
1195  1A7BEF21           const [4]: (569342746)
1199  01                 const type 3
119A  65770E40           const [5]: (1074689893)
119E  01                 const type 3
119F  92104F65           const [6]: (1699680402)
11A3  01                 const type 3
11A4  3EDD6F71           const [7]: (1903156542)
11A8  04                 const type 4
11A9  1E                 string size (30)
11AA  674C617374486967+  "gLastHig"
11B2  685072696F726974+  "hPriorit"
11BA  794D657373616765+  "yMessage"
11C2  436F756E7400       "Count\0"
                         const [8]: "gLastHighPriorityMessageCount"
11C8  04                 const type 4
11C9  0E                 string size (14)
11CA  6751756575654D61+  "gQueueMa"
11D2  696C626F7800       "ilbox\0"
                         const [9]: "gQueueMailbox"
11D8  01                 const type 3
11D9  01000000           const [10]: (1)
                         * functions:
11DD  00                 sizep (0)
                         * lines:
11DE  29                 sizelineinfo (41)
                         [pc] (line)
11DF  B4                 [01] (-76)
11E0  00                 [02] (-76)
11E1  00                 [03] (-75)
11E2  00                 [04] (-73)
11E3  B4                 [05] (-73)
11E4  00                 [06] (-71)
11E5  00                 [07] (-71)
11E6  00                 [08] (-71)
11E7  B5                 [09] (-71)
11E8  00                 [10] (-70)
11E9  00                 [11] (-70)
11EA  00                 [12] (-70)
11EB  B7                 [13] (-70)
11EC  00                 [14] (-70)
11ED  00                 [15] (-69)
11EE  00                 [16] (-67)
11EF  B7                 [17] (-67)
11F0  00                 [18] (-66)
11F1  00                 [19] (-66)
11F2  00                 [20] (-66)
11F3  B9                 [21] (-66)
11F4  00                 [22] (-66)
11F5  00                 [23] (-65)
11F6  00                 [24] (-62)
11F7  B9                 [25] (-62)
11F8  00                 [26] (-61)
11F9  00                 [27] (-61)
11FA  00                 [28] (-61)
11FB  B9                 [29] (-61)
11FC  00                 [30] (-61)
11FD  00                 [31] (-61)
11FE  00                 [32] (-60)
11FF  B9                 [33] (-60)
1200  00                 [34] (-59)
1201  00                 [35] (-59)
1202  00                 [36] (-58)
1203  BA                 [37] (-58)
1204  00                 [38] (-58)
1205  00                 [39] (-56)
1206  00                 [40] (-56)
1207  BA                 [41] (-54)
                         * locals:
1283  00                 sizelocvars (0)
                         * upvalues:
1284  00                 sizeupvalues (0)
                         ** end of function **

                         
1285                     ** function [5] definition (level 2)
                         ** start of function **
1285  00                 string size (0)
                         source name: (none)
1287  01                 line defined (204)
1288  CF                 last line defined (207)
1289  01                 nups (2)
128A  02                 numparams (2)
128B  02                 is_vararg (0)
128C  00                 maxstacksize (3)
                         * code:
128E  04                 sizecode (4)
fail op	8
128F  08000000           [1] setupval   0   0      
1293  97008000           [2] loadbool   2   1   0    ; true
fail op	8
1297  88008000           [3] setupval   2   1      
129B  1E008000           [4] return     0   1      
                         * constants:
129F  00                 sizek (0)
                         * functions:
12A0  00                 sizep (0)
                         * lines:
12A1  04                 sizelineinfo (4)
                         [pc] (line)
12A2  CD                 [1] (-51)
12A3  00                 [2] (-50)
12A4  00                 [3] (-50)
12A5  00                 [4] (-49)
                         * locals:
12B2  00                 sizelocvars (0)
                         * upvalues:
12B3  00                 sizeupvalues (0)
                         ** end of function **

                         
12B4                     ** function [6] definition (level 2)
                         ** start of function **
12B4  00                 string size (0)
                         source name: (none)
12B6  01                 line defined (209)
12B7  D4                 last line defined (212)
12B8  01                 nups (2)
12B9  02                 numparams (2)
12BA  02                 is_vararg (0)
12BB  00                 maxstacksize (3)
                         * code:
12BD  04                 sizecode (4)
12BE  97008000           [1] loadbool   2   1   0    ; true
fail op	8
12C2  88000000           [2] setupval   2   0      
fail op	8
12C6  08008000           [3] setupval   0   1      
12CA  1E008000           [4] return     0   1      
                         * constants:
12CE  00                 sizek (0)
                         * functions:
12CF  00                 sizep (0)
                         * lines:
12D0  04                 sizelineinfo (4)
                         [pc] (line)
12D1  D2                 [1] (-46)
12D2  00                 [2] (-46)
12D3  00                 [3] (-45)
12D4  00                 [4] (-44)
                         * locals:
12E1  00                 sizelocvars (0)
                         * upvalues:
12E2  00                 sizeupvalues (0)
                         ** end of function **

                         
12E3                     ** function [7] definition (level 2)
                         ** start of function **
12E3  00                 string size (0)
                         source name: (none)
12E5  01                 line defined (214)
12E6  E6                 last line defined (230)
12E7  01                 nups (2)
12E8  02                 numparams (2)
12E9  02                 is_vararg (0)
12EA  00                 maxstacksize (7)
                         * code:
12EC  1F                 sizecode (31)
12ED  97008000           [01] loadbool   2   1   0    ; true
fail op	8
12F1  88000000           [02] setupval   2   0      
12F5  9D000000           [03] getglobal  2   0        ; gPlayerProfileMgr
12F9  A4404001           [04] self       2   2   257  ; 569342746
12FD  19810000           [05] loadk      4   2        ; 0
1301  A2808001           [06] call       2   3   2  
1305  DDC00000           [07] getglobal  3   3        ; 1074689893
1309  12010001           [08] move       4   2      
130D  E2800001           [09] call       3   2   2  
1311  D8000000           [10] test       3       0    ; to [12] if true
1315  1A000080           [11] jmp        1            ; to [13]
1319  1E008000           [12] return     0   1      
131D  E4004101           [13] self       3   2   260  ; 1699680402
1321  E2800001           [14] call       3   2   2  
1325  1DC10000           [15] getglobal  4   3        ; 1074689893
1329  52018001           [16] move       5   3      
132D  22810001           [17] call       4   2   2  
1331  18010000           [18] test       4       0    ; to [20] if true
1335  1A000080           [19] jmp        1            ; to [21]
1339  1E008000           [20] return     0   1      
133D  2441C101           [21] self       4   3   261  ; -242546120
1341  99810100           [22] loadk      6   6        ; "OnSyncInbox"
1345  22418001           [23] call       4   3   1  
1349  13018000           [24] getupval   4   1      
134D  18410000           [25] test       4       1    ; to [27] if false
1351  1AC00080           [26] jmp        4            ; to [31]
1355  1DC10100           [27] getglobal  4   7        ; 538022378
1359  59810000           [28] loadk      5   2        ; 0
135D  22410001           [29] call       4   2   1  
1361  1A00FE7F           [30] jmp        -7           ; to [24]
1365  1E008000           [31] return     0   1      
                         * constants:
1369  08                 sizek (8)
136A  04                 const type 4
136B  12                 string size (18)
136C  67506C6179657250+  "gPlayerP"
1374  726F66696C654D67+  "rofileMg"
137C  7200               "r\0"
                         const [0]: "gPlayerProfileMgr"
137E  01                 const type 3
137F  1A7BEF21           const [1]: (569342746)
1383  03                 const type 3
1384  00000000           const [2]: (0)
1388  01                 const type 3
1389  65770E40           const [3]: (1074689893)
138D  01                 const type 3
138E  92104F65           const [4]: (1699680402)
1392  01                 const type 3
1393  380A8BF1           const [5]: (-242546120)
1397  04                 const type 4
1398  0C                 string size (12)
1399  4F6E53796E63496E+  "OnSyncIn"
13A1  626F7800           "box\0"
                         const [6]: "OnSyncInbox"
13A5  01                 const type 3
13A6  EA911120           const [7]: (538022378)
                         * functions:
13AA  00                 sizep (0)
                         * lines:
13AB  1F                 sizelineinfo (31)
                         [pc] (line)
13AC  D7                 [01] (-41)
13AD  00                 [02] (-41)
13AE  00                 [03] (-39)
13AF  00                 [04] (-39)
13B0  D7                 [05] (-39)
13B1  00                 [06] (-39)
13B2  00                 [07] (-38)
13B3  00                 [08] (-38)
13B4  D9                 [09] (-38)
13B5  00                 [10] (-38)
13B6  00                 [11] (-38)
13B7  00                 [12] (-37)
13B8  D9                 [13] (-35)
13B9  00                 [14] (-35)
13BA  00                 [15] (-34)
13BB  00                 [16] (-34)
13BC  D9                 [17] (-34)
13BD  00                 [18] (-34)
13BE  00                 [19] (-34)
13BF  00                 [20] (-33)
13C0  D9                 [21] (-31)
13C1  00                 [22] (-31)
13C2  00                 [23] (-31)
13C3  00                 [24] (-30)
13C4  DA                 [25] (-30)
13C5  00                 [26] (-30)
13C6  00                 [27] (-29)
13C7  00                 [28] (-29)
13C8  DA                 [29] (-29)
13C9  00                 [30] (-29)
13CA  00                 [31] (-26)
                         * locals:
1428  00                 sizelocvars (0)
                         * upvalues:
1429  00                 sizeupvalues (0)
                         ** end of function **

                         
142A                     ** function [8] definition (level 2)
                         ** start of function **
142A  00                 string size (0)
                         source name: (none)
142C  01                 line defined (232)
142D  A1                 last line defined (289)
142E  02                 nups (0)
142F  00                 numparams (4)
1430  04                 is_vararg (0)
1431  00                 maxstacksize (10)
                         * code:
1433  74                 sizecode (116)
1434  1D010000           [001] getglobal  4   0        ; 1074689893
1438  52010000           [002] move       5   0      
143C  22810001           [003] call       4   2   2  
1440  18010000           [004] test       4       0    ; to [6] if true
1444  1A400080           [005] jmp        2            ; to [8]
1448  17010000           [006] loadbool   4   0   0    ; false
144C  1E010001           [007] return     4   2      
1450  17010000           [008] loadbool   4   0   0    ; false
1454  18410000           [009] test       4       1    ; to [11] if false
1458  1A800280           [010] jmp        11           ; to [22]
145C  5D010000           [011] getglobal  5   0        ; 1074689893
1460  92010001           [012] move       6   2      
1464  62810001           [013] call       5   2   2  
1468  58410000           [014] test       5       1    ; to [16] if false
146C  1A400180           [015] jmp        6            ; to [22]
1470  64414000           [016] self       5   0   257  ; 1865287165
1474  62810001           [017] call       5   2   2  
1478  6481C002           [018] self       5   5   258  ; -406843879
147C  D2010001           [019] move       7   2      
1480  62818001           [020] call       5   3   2  
1484  12018002           [021] move       4   5      
1488  18410000           [022] test       4       1    ; to [24] if false
148C  1A800280           [023] jmp        11           ; to [35]
1490  5D010000           [024] getglobal  5   0        ; 1074689893
1494  92018001           [025] move       6   3      
1498  62810001           [026] call       5   2   2  
149C  58410000           [027] test       5       1    ; to [29] if false
14A0  1A400180           [028] jmp        6            ; to [35]
14A4  64414000           [029] self       5   0   257  ; 1865287165
14A8  62810001           [030] call       5   2   2  
14AC  64C1C002           [031] self       5   5   259  ; -734924239
14B0  D2018001           [032] move       7   3      
14B4  62818001           [033] call       5   3   2  
14B8  12018002           [034] move       4   5      
14BC  5D010000           [035] getglobal  5   0        ; 1074689893
14C0  92018000           [036] move       6   1      
14C4  62810001           [037] call       5   2   2  
14C8  58410000           [038] test       5       1    ; to [40] if false
14CC  1A801280           [039] jmp        75           ; to [115]
14D0  18410000           [040] test       4       1    ; to [42] if false
14D4  1A000680           [041] jmp        25           ; to [67]
14D8  6401C100           [042] self       5   1   260  ; -1957065004
14DC  DD410100           [043] getglobal  7   5        ; gRecipeItemType
14E0  62818001           [044] call       5   3   2  
14E4  58010000           [045] test       5       0    ; to [47] if true
14E8  1AC00480           [046] jmp        20           ; to [67]
14EC  64414000           [047] self       5   0   257  ; 1865287165
14F0  62810001           [048] call       5   2   2  
14F4  6481C102           [049] self       5   5   262  ; -1726622026
14F8  D2018000           [050] move       7   1      
14FC  62818001           [051] call       5   3   2  
1500  12018002           [052] move       4   5      
1504  18410000           [053] test       4       1    ; to [55] if false
1508  1A800280           [054] jmp        11           ; to [66]
150C  5DC10100           [055] getglobal  5   7        ; 2083004503
1510  92018000           [056] move       6   1      
1514  62810001           [057] call       5   2   2  
1518  A401C202           [058] self       6   5   264  ; -1722328121
151C  A2810001           [059] call       6   2   2  
1520  E4414000           [060] self       7   0   257  ; 1865287165
1524  E2810001           [061] call       7   2   2  
1528  E441C203           [062] self       7   7   265  ; 1152082367
152C  52020003           [063] move       9   6      
1530  E2818001           [064] call       7   3   2  
1534  12018003           [065] move       4   7      
1538  1E010001           [066] return     4   2      
153C  18410000           [067] test       4       1    ; to [69] if false
1540  1A400180           [068] jmp        6            ; to [75]
1544  E4414000           [069] self       7   0   257  ; 1865287165
1548  E2810001           [070] call       7   2   2  
154C  E441C203           [071] self       7   7   265  ; 1152082367
1550  52028000           [072] move       9   1      
1554  E2818001           [073] call       7   3   2  
1558  12018003           [074] move       4   7      
155C  18410000           [075] test       4       1    ; to [77] if false
1560  1A400180           [076] jmp        6            ; to [83]
1564  E4414000           [077] self       7   0   257  ; 1865287165
1568  E2810001           [078] call       7   2   2  
156C  E481C203           [079] self       7   7   266  ; -1630371871
1570  52028000           [080] move       9   1      
1574  E2818001           [081] call       7   3   2  
1578  12018003           [082] move       4   7      
157C  18410000           [083] test       4       1    ; to [85] if false
1580  1A400180           [084] jmp        6            ; to [91]
1584  E4414000           [085] self       7   0   257  ; 1865287165
1588  E2810001           [086] call       7   2   2  
158C  E4C1C203           [087] self       7   7   267  ; -1033696243
1590  52028000           [088] move       9   1      
1594  E2818001           [089] call       7   3   2  
1598  12018003           [090] move       4   7      
159C  18410000           [091] test       4       1    ; to [93] if false
15A0  1A400180           [092] jmp        6            ; to [99]
15A4  E4414000           [093] self       7   0   257  ; 1865287165
15A8  E2810001           [094] call       7   2   2  
15AC  E401C303           [095] self       7   7   268  ; -1010119232
15B0  52028000           [096] move       9   1      
15B4  E2818001           [097] call       7   3   2  
15B8  12018003           [098] move       4   7      
15BC  18410000           [099] test       4       1    ; to [101] if false
15C0  1A400180           [100] jmp        6            ; to [107]
15C4  E4414000           [101] self       7   0   257  ; 1865287165
15C8  E2810001           [102] call       7   2   2  
15CC  E441C303           [103] self       7   7   269  ; 1637880132
15D0  52028000           [104] move       9   1      
15D4  E2818001           [105] call       7   3   2  
15D8  12018003           [106] move       4   7      
15DC  18410000           [107] test       4       1    ; to [109] if false
15E0  1A400180           [108] jmp        6            ; to [115]
15E4  E4414000           [109] self       7   0   257  ; 1865287165
15E8  E2810001           [110] call       7   2   2  
15EC  E481C303           [111] self       7   7   270  ; 785297042
15F0  52028000           [112] move       9   1      
15F4  E2818001           [113] call       7   3   2  
15F8  12018003           [114] move       4   7      
15FC  1E010001           [115] return     4   2      
1600  1E008000           [116] return     0   1      
                         * constants:
1604  0F                 sizek (15)
1605  01                 const type 3
1606  65770E40           const [0]: (1074689893)
160A  01                 const type 3
160B  FD052E6F           const [1]: (1865287165)
160F  01                 const type 3
1610  190EC0E7           const [2]: (-406843879)
1614  01                 const type 3
1615  31F231D4           const [3]: (-734924239)
1619  01                 const type 3
161A  D48E598B           const [4]: (-1957065004)
161E  04                 const type 4
161F  10                 string size (16)
1620  6752656369706549+  "gRecipeI"
1628  74656D5479706500   "temType\0"
                         const [5]: "gRecipeItemType"
1630  01                 const type 3
1631  B6D61599           const [6]: (-1726622026)
1635  01                 const type 3
1636  5720287C           const [7]: (2083004503)
163A  01                 const type 3
163B  C75B5799           const [8]: (-1722328121)
163F  01                 const type 3
1640  BF61AB44           const [9]: (1152082367)
1644  01                 const type 3
1645  E17FD29E           const [10]: (-1630371871)
1649  01                 const type 3
164A  0D0C63C2           const [11]: (-1033696243)
164E  01                 const type 3
164F  C0CDCAC3           const [12]: (-1010119232)
1653  01                 const type 3
1654  4411A061           const [13]: (1637880132)
1658  01                 const type 3
1659  92AECE2E           const [14]: (785297042)
                         * functions:
165D  00                 sizep (0)
                         * lines:
165E  74                 sizelineinfo (116)
                         [pc] (line)
165F  E9                 [001] (-23)
1660  00                 [002] (-23)
1661  00                 [003] (-23)
1662  00                 [004] (-23)
1663  E9                 [005] (-23)
1664  00                 [006] (-22)
1665  00                 [007] (-22)
1666  00                 [008] (-19)
1667  E9                 [009] (-17)
1668  00                 [010] (-17)
1669  00                 [011] (-17)
166A  00                 [012] (-17)
166B  E9                 [013] (-17)
166C  00                 [014] (-17)
166D  00                 [015] (-17)
166E  00                 [016] (-16)
166F  E9                 [017] (-16)
1670  00                 [018] (-16)
1671  00                 [019] (-16)
1672  00                 [020] (-16)
1673  EA                 [021] (-16)
1674  00                 [022] (-13)
1675  00                 [023] (-13)
1676  00                 [024] (-13)
1677  EA                 [025] (-13)
1678  00                 [026] (-13)
1679  00                 [027] (-13)
167A  00                 [028] (-13)
167B  ED                 [029] (-12)
167C  00                 [030] (-12)
167D  00                 [031] (-12)
167E  00                 [032] (-12)
167F  EF                 [033] (-12)
1680  00                 [034] (-12)
1681  00                 [035] (-9)
1682  00                 [036] (-9)
1683  EF                 [037] (-9)
1684  00                 [038] (-9)
1685  00                 [039] (-9)
1686  00                 [040] (-7)
1687  EF                 [041] (-7)
1688  00                 [042] (-7)
1689  00                 [043] (-7)
168A  00                 [044] (-7)
168B  EF                 [045] (-7)
168C  00                 [046] (-7)
168D  00                 [047] (-6)
168E  00                 [048] (-6)
168F  EF                 [049] (-6)
1690  00                 [050] (-6)
1691  00                 [051] (-6)
1692  00                 [052] (-6)
1693  EF                 [053] (-4)
1694  00                 [054] (-4)
1695  00                 [055] (-2)
1696  00                 [056] (-2)
1697  EF                 [057] (-2)
1698  00                 [058] (-1)
1699  00                 [059] (-1)
169A  00                 [060] (1)
169B  F0                 [061] (1)
169C  00                 [062] (1)
169D  00                 [063] (1)
169E  00                 [064] (1)
169F  F0                 [065] (1)
16A0  00                 [066] (4)
16A1  00                 [067] (7)
16A2  00                 [068] (7)
16A3  F0                 [069] (8)
16A4  00                 [070] (8)
16A5  00                 [071] (8)
16A6  00                 [072] (8)
16A7  F0                 [073] (8)
16A8  00                 [074] (8)
16A9  00                 [075] (11)
16AA  00                 [076] (11)
16AB  F0                 [077] (12)
16AC  00                 [078] (12)
16AD  00                 [079] (12)
16AE  00                 [080] (12)
16AF  F0                 [081] (12)
16B0  00                 [082] (12)
16B1  00                 [083] (15)
16B2  00                 [084] (15)
16B3  F3                 [085] (16)
16B4  00                 [086] (16)
16B5  00                 [087] (16)
16B6  00                 [088] (16)
16B7  F3                 [089] (16)
16B8  00                 [090] (16)
16B9  00                 [091] (19)
16BA  00                 [092] (19)
16BB  F3                 [093] (20)
16BC  00                 [094] (20)
16BD  00                 [095] (20)
16BE  00                 [096] (20)
16BF  F3                 [097] (20)
16C0  00                 [098] (20)
16C1  00                 [099] (23)
16C2  00                 [100] (23)
16C3  F3                 [101] (24)
16C4  00                 [102] (24)
16C5  00                 [103] (24)
16C6  00                 [104] (24)
16C7  F3                 [105] (24)
16C8  00                 [106] (24)
16C9  00                 [107] (27)
16CA  00                 [108] (27)
16CB  F3                 [109] (28)
16CC  00                 [110] (28)
16CD  00                 [111] (28)
16CE  00                 [112] (28)
16CF  F4                 [113] (28)
16D0  00                 [114] (28)
16D1  00                 [115] (32)
16D2  00                 [116] (33)
                         * locals:
182F  00                 sizelocvars (0)
                         * upvalues:
1830  00                 sizeupvalues (0)
                         ** end of function **

                         
1831                     ** function [9] definition (level 2)
                         ** start of function **
1831  00                 string size (0)
                         source name: (none)
1833  02                 line defined (291)
1834  BD                 last line defined (317)
1835  02                 nups (2)
1836  02                 numparams (2)
1837  02                 is_vararg (0)
1838  00                 maxstacksize (9)
                         * code:
183A  2E                 sizecode (46)
183B  9D000000           [01] getglobal  2   0        ; gPlayerProfileMgr
183F  A4404001           [02] self       2   2   257  ; 569342746
1843  19810000           [03] loadk      4   2        ; 0
1847  A2808001           [04] call       2   3   2  
184B  A4C04001           [05] self       2   2   259  ; 1699680402
184F  A2800001           [06] call       2   2   2  
1853  D7000000           [07] loadbool   3   0   0    ; false
1857  1D010100           [08] getglobal  4   4        ; 1074689893
185B  52018000           [09] move       5   1      
185F  22810001           [10] call       4   2   2  
1863  18410000           [11] test       4       1    ; to [13] if false
1867  1A000080           [12] jmp        1            ; to [14]
186B  60400100           [13] setglobal  1   5        ; checkItemType
186F  D8400000           [14] test       3       1    ; to [16] if false
1873  1A400780           [15] jmp        30           ; to [46]
1877  1D010100           [16] getglobal  4   4        ; 1074689893
187B  52010001           [17] move       5   2      
187F  22810001           [18] call       4   2   2  
1883  18010000           [19] test       4       0    ; to [21] if true
1887  1AC00080           [20] jmp        4            ; to [25]
188B  1D810100           [21] getglobal  4   6        ; 538022378
188F  59C10100           [22] loadk      5   7        ; 0
1893  22410001           [23] call       4   2   1  
1897  1AC0FE7F           [24] jmp        -4           ; to [21]
189B  13010000           [25] getupval   4   0      
189F  52010001           [26] move       5   2      
18A3  9D410100           [27] getglobal  6   5        ; checkItemType
18A7  DD010200           [28] getglobal  7   8        ; checkSuitType
18AB  1D420200           [29] getglobal  8   9        ; checkArchwingType
18AF  22818002           [30] call       4   5   2  
18B3  D2000002           [31] move       3   4      
18B7  13018000           [32] getupval   4   1      
18BB  0E814202           [33] gettable   4   4   266  ; 1388869707
18BF  52010001           [34] move       5   2      
18C3  22010101           [35] call       4   2   4  
18C7  DDC10200           [36] getglobal  7   11       ; bypassItemGateOnQuestReplay
18CB  D8010000           [37] test       7       0    ; to [39] if true
18CF  1A800080           [38] jmp        3            ; to [42]
fail op	21
18D3  15800181           [39] concat     0   258 6  
18D7  1A000080           [40] jmp        1            ; to [42]
18DB  D7008000           [41] loadbool   3   1   0    ; true
18DF  DD810100           [42] getglobal  7   6        ; 538022378
18E3  19820000           [43] loadk      8   2        ; 0
18E7  E2410001           [44] call       7   2   1  
18EB  1AC0F77F           [45] jmp        -32          ; to [14]
18EF  1E008000           [46] return     0   1      
                         * constants:
18F3  0C                 sizek (12)
18F4  04                 const type 4
18F5  12                 string size (18)
18F6  67506C6179657250+  "gPlayerP"
18FE  726F66696C654D67+  "rofileMg"
1906  7200               "r\0"
                         const [0]: "gPlayerProfileMgr"
1908  01                 const type 3
1909  1A7BEF21           const [1]: (569342746)
190D  03                 const type 3
190E  00000000           const [2]: (0)
1912  01                 const type 3
1913  92104F65           const [3]: (1699680402)
1917  01                 const type 3
1918  65770E40           const [4]: (1074689893)
191C  04                 const type 4
191D  0E                 string size (14)
191E  636865636B497465+  "checkIte"
1926  6D5479706500       "mType\0"
                         const [5]: "checkItemType"
192C  01                 const type 3
192D  EA911120           const [6]: (538022378)
1931  03                 const type 3
1932  00007A44           const [7]: (0)
1936  04                 const type 4
1937  0E                 string size (14)
1938  636865636B537569+  "checkSui"
1940  745479706500       "tType\0"
                         const [8]: "checkSuitType"
1946  04                 const type 4
1947  12                 string size (18)
1948  636865636B417263+  "checkArc"
1950  6877696E67547970+  "hwingTyp"
1958  6500               "e\0"
                         const [9]: "checkArchwingType"
195A  01                 const type 3
195B  4B78C852           const [10]: (1388869707)
195F  04                 const type 4
1960  1C                 string size (28)
1961  6279706173734974+  "bypassIt"
1969  656D476174654F6E+  "emGateOn"
1971  5175657374526570+  "QuestRep"
1979  6C617900           "lay\0"
                         const [11]: "bypassItemGateOnQuestReplay"
                         * functions:
197D  00                 sizep (0)
                         * lines:
197E  2E                 sizelineinfo (46)
                         [pc] (line)
197F  24                 [01] (36)
1980  01                 [02] (36)
1981  00                 [03] (36)
1982  00                 [04] (36)
1983  24                 [05] (36)
1984  01                 [06] (36)
1985  00                 [07] (37)
1986  00                 [08] (39)
1987  24                 [09] (39)
1988  01                 [10] (39)
1989  00                 [11] (39)
198A  00                 [12] (39)
198B  24                 [13] (40)
198C  01                 [14] (43)
198D  00                 [15] (43)
198E  00                 [16] (44)
198F  24                 [17] (44)
1990  01                 [18] (44)
1991  00                 [19] (44)
1992  00                 [20] (44)
1993  24                 [21] (46)
1994  01                 [22] (46)
1995  00                 [23] (46)
1996  00                 [24] (46)
1997  25                 [25] (50)
1998  01                 [26] (50)
1999  00                 [27] (50)
199A  00                 [28] (50)
199B  27                 [29] (50)
199C  01                 [30] (50)
199D  00                 [31] (50)
199E  00                 [32] (52)
199F  27                 [33] (52)
19A0  01                 [34] (52)
19A1  00                 [35] (52)
19A2  00                 [36] (53)
19A3  27                 [37] (53)
19A4  01                 [38] (53)
19A5  00                 [39] (53)
19A6  00                 [40] (53)
19A7  27                 [41] (54)
19A8  01                 [42] (58)
19A9  00                 [43] (58)
19AA  00                 [44] (58)
19AB  27                 [45] (58)
19AC  01                 [46] (61)
                         * locals:
1A37  00                 sizelocvars (0)
                         * upvalues:
1A38  00                 sizeupvalues (0)
                         ** end of function **

                         
1A39                     ** function [10] definition (level 2)
                         ** start of function **
1A39  00                 string size (0)
                         source name: (none)
1A3B  02                 line defined (319)
1A3C  C3                 last line defined (323)
1A3D  02                 nups (1)
1A3E  01                 numparams (2)
1A3F  02                 is_vararg (0)
1A40  00                 maxstacksize (8)
                         * code:
1A42  0E                 sizecode (14)
1A43  9D000000           [01] getglobal  2   0        ; gPlayerProfileMgr
1A47  A4404001           [02] self       2   2   257  ; 569342746
1A4B  19810000           [03] loadk      4   2        ; 0
1A4F  A2808001           [04] call       2   3   2  
1A53  A4C04001           [05] self       2   2   259  ; 1699680402
1A57  A2800001           [06] call       2   2   2  
1A5B  D3000000           [07] getupval   3   0      
1A5F  12010001           [08] move       4   2      
1A63  52018000           [09] move       5   1      
1A67  9D010100           [10] getglobal  6   4        ; checkSuitType
1A6B  DD410100           [11] getglobal  7   5        ; checkArchwingType
1A6F  E2808002           [12] call       3   5   2  
1A73  DE000001           [13] return     3   2      
1A77  1E008000           [14] return     0   1      
                         * constants:
1A7B  06                 sizek (6)
1A7C  04                 const type 4
1A7D  12                 string size (18)
1A7E  67506C6179657250+  "gPlayerP"
1A86  726F66696C654D67+  "rofileMg"
1A8E  7200               "r\0"
                         const [0]: "gPlayerProfileMgr"
1A90  01                 const type 3
1A91  1A7BEF21           const [1]: (569342746)
1A95  03                 const type 3
1A96  00000000           const [2]: (0)
1A9A  01                 const type 3
1A9B  92104F65           const [3]: (1699680402)
1A9F  04                 const type 4
1AA0  0E                 string size (14)
1AA1  636865636B537569+  "checkSui"
1AA9  745479706500       "tType\0"
                         const [4]: "checkSuitType"
1AAF  04                 const type 4
1AB0  12                 string size (18)
1AB1  636865636B417263+  "checkArc"
1AB9  6877696E67547970+  "hwingTyp"
1AC1  6500               "e\0"
                         const [5]: "checkArchwingType"
                         * functions:
1AC3  00                 sizep (0)
                         * lines:
1AC4  0E                 sizelineinfo (14)
                         [pc] (line)
1AC5  40                 [01] (64)
1AC6  01                 [02] (64)
1AC7  00                 [03] (64)
1AC8  00                 [04] (64)
1AC9  40                 [05] (64)
1ACA  01                 [06] (64)
1ACB  00                 [07] (66)
1ACC  00                 [08] (66)
1ACD  40                 [09] (66)
1ACE  01                 [10] (66)
1ACF  00                 [11] (66)
1AD0  00                 [12] (66)
1AD1  40                 [13] (66)
1AD2  01                 [14] (67)
                         * locals:
1AFD  00                 sizelocvars (0)
                         * upvalues:
1AFE  00                 sizeupvalues (0)
                         ** end of function **

                         
1AFF                     ** function [11] definition (level 2)
                         ** start of function **
1AFF  00                 string size (0)
                         source name: (none)
1B01  02                 line defined (325)
1B02  D0                 last line defined (336)
1B03  02                 nups (1)
1B04  01                 numparams (2)
1B05  02                 is_vararg (0)
1B06  00                 maxstacksize (6)
                         * code:
1B08  16                 sizecode (22)
1B09  DD000000           [01] getglobal  3   0        ; 1074689893
1B0D  12010001           [02] move       4   2      
1B11  E2800001           [03] call       3   2   2  
1B15  D8000000           [04] test       3       0    ; to [6] if true
1B19  1A800180           [05] jmp        7            ; to [13]
1B1D  E440C000           [06] self       3   1   257  ; -2135866365
1B21  E2800001           [07] call       3   2   2  
1B25  92008001           [08] move       2   3      
1B29  DD800000           [09] getglobal  3   2        ; 538022378
1B2D  19C10000           [10] loadk      4   3        ; 0
1B31  E2400001           [11] call       3   2   1  
1B35  1AC0FC7F           [12] jmp        -12          ; to [1]
1B39  DD000000           [13] getglobal  3   0        ; 1074689893
1B3D  1D010100           [14] getglobal  4   4        ; transmissions
1B41  E2800001           [15] call       3   2   2  
1B45  D8400000           [16] test       3       1    ; to [18] if false
1B49  1AC00080           [17] jmp        4            ; to [22]
1B4D  D3000000           [18] getupval   3   0      
1B51  12010001           [19] move       4   2      
1B55  5D010100           [20] getglobal  5   4        ; transmissions
1B59  E2408001           [21] call       3   3   1  
1B5D  1E008000           [22] return     0   1      
                         * constants:
1B61  05                 sizek (5)
1B62  01                 const type 3
1B63  65770E40           const [0]: (1074689893)
1B67  01                 const type 3
1B68  0344B180           const [1]: (-2135866365)
1B6C  01                 const type 3
1B6D  EA911120           const [2]: (538022378)
1B71  03                 const type 3
1B72  00000000           const [3]: (0)
1B76  04                 const type 4
1B77  0E                 string size (14)
1B78  7472616E736D6973+  "transmis"
1B80  73696F6E7300       "sions\0"
                         const [4]: "transmissions"
                         * functions:
1B86  00                 sizep (0)
                         * lines:
1B87  16                 sizelineinfo (22)
                         [pc] (line)
1B88  48                 [01] (72)
1B89  01                 [02] (72)
1B8A  00                 [03] (72)
1B8B  00                 [04] (72)
1B8C  48                 [05] (72)
1B8D  01                 [06] (73)
1B8E  00                 [07] (73)
1B8F  00                 [08] (73)
1B90  48                 [09] (74)
1B91  01                 [10] (74)
1B92  00                 [11] (74)
1B93  00                 [12] (74)
1B94  48                 [13] (77)
1B95  01                 [14] (77)
1B96  00                 [15] (77)
1B97  00                 [16] (77)
1B98  48                 [17] (77)
1B99  01                 [18] (78)
1B9A  00                 [19] (78)
1B9B  00                 [20] (78)
1B9C  49                 [21] (78)
1B9D  01                 [22] (80)
                         * locals:
1BE0  00                 sizelocvars (0)
                         * upvalues:
1BE1  00                 sizeupvalues (0)
                         ** end of function **

                         
1BE2                     ** function [12] definition (level 2)
                         ** start of function **
1BE2  00                 string size (0)
                         source name: (none)
1BE4  02                 line defined (338)
1BE5  D8                 last line defined (344)
1BE6  02                 nups (0)
1BE7  00                 numparams (2)
1BE8  02                 is_vararg (0)
1BE9  00                 maxstacksize (6)
                         * code:
1BEB  1C                 sizecode (28)
1BEC  9D000000           [01] getglobal  2   0        ; gFlashMgr
1BF0  A4404001           [02] self       2   2   257  ; 1634586770
1BF4  12010000           [03] move       4   0      
1BF8  A2808001           [04] call       2   3   2  
1BFC  DD800000           [05] getglobal  3   2        ; 1074689893
1C00  12010001           [06] move       4   2      
1C04  E2800001           [07] call       3   2   2  
1C08  D8000000           [08] test       3       0    ; to [10] if true
1C0C  1A400080           [09] jmp        2            ; to [12]
1C10  58400000           [10] test       1       1    ; to [12] if false
1C14  1A800180           [11] jmp        7            ; to [19]
1C18  DD800000           [12] getglobal  3   2        ; 1074689893
1C1C  12010001           [13] move       4   2      
1C20  E2800001           [14] call       3   2   2  
1C24  D8400000           [15] test       3       1    ; to [17] if false
1C28  1A800280           [16] jmp        11           ; to [28]
1C2C  58400000           [17] test       1       1    ; to [19] if false
1C30  1A000280           [18] jmp        9            ; to [28]
1C34  DDC00000           [19] getglobal  3   3        ; 538022378
1C38  19010100           [20] loadk      4   4        ; 0
1C3C  E2400001           [21] call       3   2   1  
1C40  DD000000           [22] getglobal  3   0        ; gFlashMgr
1C44  E440C001           [23] self       3   3   257  ; 1634586770
1C48  52010000           [24] move       5   0      
1C4C  E2808001           [25] call       3   3   2  
1C50  92008001           [26] move       2   3      
1C54  1A00FA7F           [27] jmp        -23          ; to [5]
1C58  1E008000           [28] return     0   1      
                         * constants:
1C5C  05                 sizek (5)
1C5D  04                 const type 4
1C5E  0A                 string size (10)
1C5F  67466C6173684D67+  "gFlashMg"
1C67  7200               "r\0"
                         const [0]: "gFlashMgr"
1C69  01                 const type 3
1C6A  92D06D61           const [1]: (1634586770)
1C6E  01                 const type 3
1C6F  65770E40           const [2]: (1074689893)
1C73  01                 const type 3
1C74  EA911120           const [3]: (538022378)
1C78  03                 const type 3
1C79  00000000           const [4]: (0)
                         * functions:
1C7D  00                 sizep (0)
                         * lines:
1C7E  1C                 sizelineinfo (28)
                         [pc] (line)
1C7F  53                 [01] (83)
1C80  01                 [02] (83)
1C81  00                 [03] (83)
1C82  00                 [04] (83)
1C83  53                 [05] (84)
1C84  01                 [06] (84)
1C85  00                 [07] (84)
1C86  00                 [08] (84)
1C87  53                 [09] (84)
1C88  01                 [10] (84)
1C89  00                 [11] (84)
1C8A  00                 [12] (84)
1C8B  53                 [13] (84)
1C8C  01                 [14] (84)
1C8D  00                 [15] (84)
1C8E  00                 [16] (84)
1C8F  54                 [17] (84)
1C90  01                 [18] (84)
1C91  00                 [19] (85)
1C92  00                 [20] (85)
1C93  54                 [21] (85)
1C94  01                 [22] (86)
1C95  00                 [23] (86)
1C96  00                 [24] (86)
1C97  54                 [25] (86)
1C98  01                 [26] (86)
1C99  00                 [27] (86)
1C9A  00                 [28] (88)
                         * locals:
1CEF  00                 sizelocvars (0)
                         * upvalues:
1CF0  00                 sizeupvalues (0)
                         ** end of function **

                         
1CF1                     ** function [13] definition (level 2)
                         ** start of function **
1CF1  00                 string size (0)
                         source name: (none)
1CF3  02                 line defined (346)
1CF4  C1                 last line defined (449)
1CF5  03                 nups (7)
1CF6  07                 numparams (2)
1CF7  02                 is_vararg (0)
1CF8  00                 maxstacksize (17)
                         * code:
1CFB  02                 sizecode (259)
1CFC  9D000000           [001] getglobal  2   0        ; gPlayerProfileMgr
1D00  A4404001           [002] self       2   2   257  ; 569342746
1D04  19810000           [003] loadk      4   2        ; 0
1D08  A2808001           [004] call       2   3   2  
1D0C  DDC00000           [005] getglobal  3   3        ; 1074689893
1D10  12010001           [006] move       4   2      
1D14  E2800001           [007] call       3   2   2  
1D18  D8000000           [008] test       3       0    ; to [10] if true
1D1C  1A000080           [009] jmp        1            ; to [11]
1D20  1E008000           [010] return     0   1      
1D24  E4004101           [011] self       3   2   260  ; 1699680402
1D28  E2800001           [012] call       3   2   2  
1D2C  1DC10000           [013] getglobal  4   3        ; 1074689893
1D30  52018001           [014] move       5   3      
1D34  22810001           [015] call       4   2   2  
1D38  18010000           [016] test       4       0    ; to [18] if true
1D3C  1A000080           [017] jmp        1            ; to [19]
1D40  1E008000           [018] return     0   1      
1D44  13010000           [019] getupval   4   0      
1D48  0E414102           [020] gettable   4   4   261  ; 1388869707
1D4C  52018001           [021] move       5   3      
1D50  22010101           [022] call       4   2   4  
1D54  DD810100           [023] getglobal  7   6        ; playOnQuestReplayOnly
1D58  D8010000           [024] test       7       0    ; to [26] if true
1D5C  1A000180           [025] jmp        5            ; to [31]
1D60  D3018000           [026] getupval   7   1      
1D64  E2818000           [027] call       7   1   2  
1D68  D8410000           [028] test       7       1    ; to [30] if false
1D6C  1A000080           [029] jmp        1            ; to [31]
1D70  1E008000           [030] return     0   1      
1D74  DDC10100           [031] getglobal  7   7        ; playTransmissionsOnlyOncePerLogin
1D78  D8010000           [032] test       7       0    ; to [34] if true
1D7C  1AC00380           [033] jmp        16           ; to [50]
1D80  C301C202           [034] add        7   5   264  ; 0
1D84  1D420200           [035] getglobal  8   9        ; _G
1D88  0E824204           [036] gettable   8   8   266  ; "LastQuestTransmission"
fail op	35
1D8C  63C04204           [037] close      1  
1D90  1A800280           [038] jmp        11           ; to [50]
1D94  1D420200           [039] getglobal  8   9        ; _G
1D98  0E824204           [040] gettable   8   8   266  ; "LastQuestTransmission"
1D9C  0E024304           [041] gettable   8   8   268  ; "quest"
fail op	35
1DA0  23000104           [042] close      0  
1DA4  1A400180           [043] jmp        6            ; to [50]
1DA8  1D420200           [044] getglobal  8   9        ; _G
1DAC  0E824204           [045] gettable   8   8   266  ; "LastQuestTransmission"
1DB0  0E424304           [046] gettable   8   8   269  ; "stage"
fail op	35
1DB4  23C00104           [047] close      0  
1DB8  1A000080           [048] jmp        1            ; to [50]
1DBC  1E008000           [049] return     0   1      
1DC0  1D820300           [050] getglobal  8   14       ; waitForCinematicEnd
1DC4  18020000           [051] test       8       0    ; to [53] if true
1DC8  1A800C80           [052] jmp        51           ; to [104]
1DCC  19820000           [053] loadk      8   2        ; 0
1DD0  5DC20000           [054] getglobal  9   3        ; 1074689893
1DD4  9DC20300           [055] getglobal  10  15       ; gBackgroundRegion
1DD8  62820001           [056] call       9   2   2  
1DDC  58420000           [057] test       9       1    ; to [59] if false
1DE0  1A800180           [058] jmp        7            ; to [66]
1DE4  5DC20000           [059] getglobal  9   3        ; 1074689893
1DE8  9DC20300           [060] getglobal  10  15       ; gBackgroundRegion
1DEC  A4024405           [061] self       10  10  272  ; 2066713391
1DF0  A2020001           [062] call       10  2   0  
1DF4  62820000           [063] call       9   0   2  
1DF8  58020000           [064] test       9       0    ; to [66] if true
1DFC  1A400580           [065] jmp        22           ; to [88]
1E00  5D420400           [066] getglobal  9   17       ; 538022378
1E04  99820000           [067] loadk      10  2        ; 0
1E08  62420001           [068] call       9   2   1  
1E0C  5D820400           [069] getglobal  9   18       ; 1289681407
1E10  62828000           [070] call       9   1   2  
1E14  03420204           [071] add        8   8   9  
fail op	21
1E18  15008289           [072] concat     0   275 8  
1E1C  1AC0FA7F           [073] jmp        -20          ; to [54]
1E20  5DC20000           [074] getglobal  9   3        ; 1074689893
1E24  9DC20300           [075] getglobal  10  15       ; gBackgroundRegion
1E28  62820001           [076] call       9   2   2  
1E2C  58420000           [077] test       9       1    ; to [79] if false
1E30  1A000280           [078] jmp        9            ; to [88]
1E34  5DC20000           [079] getglobal  9   3        ; 1074689893
1E38  9DC20300           [080] getglobal  10  15       ; gBackgroundRegion
1E3C  A4024405           [081] self       10  10  272  ; 2066713391
1E40  A2020001           [082] call       10  2   0  
1E44  62820000           [083] call       9   0   2  
1E48  58020000           [084] test       9       0    ; to [86] if true
1E4C  1AC0F77F           [085] jmp        -32          ; to [54]
1E50  1A000080           [086] jmp        1            ; to [88]
1E54  1A40F77F           [087] jmp        -34          ; to [54]
1E58  5DC20000           [088] getglobal  9   3        ; 1074689893
1E5C  9DC20300           [089] getglobal  10  15       ; gBackgroundRegion
1E60  62820001           [090] call       9   2   2  
1E64  58420000           [091] test       9       1    ; to [93] if false
1E68  1A800280           [092] jmp        11           ; to [104]
1E6C  5DC20000           [093] getglobal  9   3        ; 1074689893
1E70  9DC20300           [094] getglobal  10  15       ; gBackgroundRegion
1E74  A4024405           [095] self       10  10  272  ; 2066713391
1E78  A2020001           [096] call       10  2   0  
1E7C  62820000           [097] call       9   0   2  
1E80  58420000           [098] test       9       1    ; to [100] if false
1E84  1AC00080           [099] jmp        4            ; to [104]
1E88  5D420400           [100] getglobal  9   17       ; 538022378
1E8C  99820000           [101] loadk      10  2        ; 0
1E90  62420001           [102] call       9   2   1  
1E94  1AC0FB7F           [103] jmp        -16          ; to [88]
1E98  5D020500           [104] getglobal  9   20       ; waitForMenuClose
1E9C  58020000           [105] test       9       0    ; to [107] if true
1EA0  1A000680           [106] jmp        25           ; to [132]
1EA4  5DC20000           [107] getglobal  9   3        ; 1074689893
1EA8  9D420500           [108] getglobal  10  21       ; _T
1EAC  8E824505           [109] gettable   10  10  278  ; "AnyMenuOpen"
1EB0  62820001           [110] call       9   2   2  
1EB4  58420000           [111] test       9       1    ; to [113] if false
1EB8  1A000280           [112] jmp        9            ; to [122]
1EBC  5D420500           [113] getglobal  9   21       ; _T
1EC0  4EC2C504           [114] gettable   9   9   279  ; 1802978667
1EC4  62828000           [115] call       9   1   2  
1EC8  58020000           [116] test       9       0    ; to [118] if true
1ECC  1AC00080           [117] jmp        4            ; to [122]
1ED0  5D420400           [118] getglobal  9   17       ; 538022378
1ED4  99020200           [119] loadk      10  8        ; 0
1ED8  62420001           [120] call       9   2   1  
1EDC  1A00FC7F           [121] jmp        -15          ; to [107]
1EE0  5D020600           [122] getglobal  9   24       ; gFlashMgr
1EE4  6442C604           [123] self       9   9   281  ; -872305030
1EE8  D3020001           [124] getupval   11  2      
1EEC  62828001           [125] call       9   3   2  
1EF0  58020000           [126] test       9       0    ; to [128] if true
1EF4  1AC00080           [127] jmp        4            ; to [132]
1EF8  5D420400           [128] getglobal  9   17       ; 538022378
1EFC  99020200           [129] loadk      10  8        ; 0
1F00  62420001           [130] call       9   2   1  
1F04  1A40FD7F           [131] jmp        -10          ; to [122]
1F08  5D820600           [132] getglobal  9   26       ; waitForInboxClose
1F0C  58020000           [133] test       9       0    ; to [135] if true
1F10  1A800280           [134] jmp        11           ; to [146]
1F14  5DC20600           [135] getglobal  9   27       ; 738251817
1F18  99020700           [136] loadk      10  28       ; "/Lotus/Interface/Inbox.swf"
1F1C  62820001           [137] call       9   2   2  
1F20  93028001           [138] getupval   10  3      
1F24  D2028004           [139] move       11  9      
1F28  17038000           [140] loadbool   12  1   0    ; true
1F2C  A2428001           [141] call       10  3   1  
1F30  93028001           [142] getupval   10  3      
1F34  D2028004           [143] move       11  9      
1F38  17030000           [144] loadbool   12  0   0    ; false
1F3C  A2428001           [145] call       10  3   1  
1F40  93020002           [146] getupval   10  4      
1F44  D2020000           [147] move       11  0      
1F48  12038000           [148] move       12  1      
1F4C  A2428001           [149] call       10  3   1  
1F50  9D420700           [150] getglobal  10  29       ; waitForTransmissions
1F54  98020000           [151] test       10      0    ; to [153] if true
1F58  1AC00180           [152] jmp        8            ; to [161]
1F5C  9D420500           [153] getglobal  10  21       ; _T
1F60  8E824705           [154] gettable   10  10  286  ; "TransmissionConvoDone"
1F64  98420000           [155] test       10      1    ; to [157] if false
1F68  1AC00080           [156] jmp        4            ; to [161]
1F6C  9D420400           [157] getglobal  10  17       ; 538022378
1F70  D9C20700           [158] loadk      11  31       ; 0
1F74  A2420001           [159] call       10  2   1  
1F78  1AC0FD7F           [160] jmp        -8           ; to [153]
1F7C  9D020800           [161] getglobal  10  32       ; advanceQuestAfterTransmissions
1F80  98020000           [162] test       10      0    ; to [164] if true
1F84  1AC00580           [163] jmp        24           ; to [188]
1F88  A442C801           [164] self       10  3   289  ; 1139718821
1F8C  1D830800           [165] getglobal  12  34       ; questProgress
1F90  59C30800           [166] loadk      13  35       ; "QuestCompleteCallback"
1F94  A2420002           [167] call       10  4   1  
1F98  93028002           [168] getupval   10  5      
1F9C  98420000           [169] test       10      1    ; to [171] if false
1FA0  1AC00080           [170] jmp        4            ; to [175]
1FA4  9D420400           [171] getglobal  10  17       ; 538022378
1FA8  D9020200           [172] loadk      11  8        ; 0
1FAC  A2420001           [173] call       10  2   1  
1FB0  1A00FE7F           [174] jmp        -7           ; to [168]
1FB4  93020003           [175] getupval   10  6      
1FB8  98020000           [176] test       10      0    ; to [178] if true
1FBC  1A400180           [177] jmp        6            ; to [184]
1FC0  9D020900           [178] getglobal  10  36       ; enableArchwing
1FC4  98020000           [179] test       10      0    ; to [181] if true
1FC8  1A800080           [180] jmp        3            ; to [184]
1FCC  A442C901           [181] self       10  3   293  ; 872117946
1FD0  17038000           [182] loadbool   12  1   0    ; true
1FD4  A2428001           [183] call       10  3   1  
1FD8  93020000           [184] getupval   10  0      
1FDC  8E824905           [185] gettable   10  10  294  ; -1405662448
1FE0  A2428000           [186] call       10  1   1  
1FE4  1A400C80           [187] jmp        50           ; to [238]
1FE8  9DC20900           [188] getglobal  10  39       ; advanceQuestToNextStageAfterTransmissions
1FEC  98020000           [189] test       10      0    ; to [191] if true
1FF0  1A800B80           [190] jmp        47           ; to [238]
1FF4  9D020000           [191] getglobal  10  0        ; gPlayerProfileMgr
1FF8  A4424005           [192] self       10  10  257  ; 569342746
1FFC  19830000           [193] loadk      12  2        ; 0
2000  A2828001           [194] call       10  3   2  
2004  DDC20000           [195] getglobal  11  3        ; 1074689893
2008  12030005           [196] move       12  10     
200C  E2820001           [197] call       11  2   2  
2010  D8420000           [198] test       11      1    ; to [200] if false
2014  1A400980           [199] jmp        38           ; to [238]
2018  E4024105           [200] self       11  10  260  ; 1699680402
201C  E2820001           [201] call       11  2   2  
2020  1DC30000           [202] getglobal  12  3        ; 1074689893
2024  52038005           [203] move       13  11     
2028  22830001           [204] call       12  2   2  
202C  18430000           [205] test       12      1    ; to [207] if false
2030  1A800780           [206] jmp        31           ; to [238]
2034  13030000           [207] getupval   12  0      
2038  0E434106           [208] gettable   12  12  261  ; 1388869707
203C  52038005           [209] move       13  11     
2040  22030101           [210] call       12  2   4  
2044  92010007           [211] move       6   14     
2048  52018006           [212] move       5   13     
204C  12010006           [213] move       4   12     
2050  0D03C202           [214] sub        12  5   264  ; 0
2054  6443C805           [215] self       13  11  289  ; 1139718821
2058  D2030006           [216] move       15  12     
205C  19C40800           [217] loadk      16  35       ; "QuestCompleteCallback"
2060  62430002           [218] call       13  4   1  
2064  53038002           [219] getupval   13  5      
2068  58430000           [220] test       13      1    ; to [222] if false
206C  1AC00080           [221] jmp        4            ; to [226]
2070  5D430400           [222] getglobal  13  17       ; 538022378
2074  99030200           [223] loadk      14  8        ; 0
2078  62430001           [224] call       13  2   1  
207C  1A00FE7F           [225] jmp        -7           ; to [219]
2080  53030003           [226] getupval   13  6      
2084  58030000           [227] test       13      0    ; to [229] if true
2088  1A400180           [228] jmp        6            ; to [235]
208C  5D030900           [229] getglobal  13  36       ; enableArchwing
2090  58030000           [230] test       13      0    ; to [232] if true
2094  1A800080           [231] jmp        3            ; to [235]
2098  6443C905           [232] self       13  11  293  ; 872117946
209C  D7038000           [233] loadbool   15  1   0    ; true
20A0  62438001           [234] call       13  3   1  
20A4  53030000           [235] getupval   13  0      
20A8  4E83C906           [236] gettable   13  13  294  ; -1405662448
20AC  62438000           [237] call       13  1   1  
20B0  53030000           [238] getupval   13  0      
20B4  4E43C106           [239] gettable   13  13  261  ; 1388869707
20B8  92038001           [240] move       14  3      
20BC  62030101           [241] call       13  2   4  
20C0  92018007           [242] move       6   15     
20C4  52010007           [243] move       5   14     
20C8  12018006           [244] move       4   13     
20CC  5DC30000           [245] getglobal  13  3        ; 1074689893
20D0  92038002           [246] move       14  5      
20D4  62830001           [247] call       13  2   2  
20D8  58430000           [248] test       13      1    ; to [250] if false
20DC  1A000280           [249] jmp        9            ; to [259]
20E0  5DC30100           [250] getglobal  13  7        ; playTransmissionsOnlyOncePerLogin
20E4  58030000           [251] test       13      0    ; to [253] if true
20E8  1A400180           [252] jmp        6            ; to [259]
20EC  5D430200           [253] getglobal  13  9        ; _G
20F0  8B830000           [254] newtable   14  0   2    ; array=0, hash=2
20F4  8C030186           [255] settable   14  268 4    ; "quest"
20F8  C303C202           [256] add        15  5   264  ; 0
20FC  8CC38386           [257] settable   14  269 15   ; "stage"
2100  4C830385           [258] settable   13  266 14   ; "LastQuestTransmission"
2104  1E008000           [259] return     0   1      
                         * constants:
2108  28                 sizek (40)
2109  04                 const type 4
210A  12                 string size (18)
210B  67506C6179657250+  "gPlayerP"
2113  726F66696C654D67+  "rofileMg"
211B  7200               "r\0"
                         const [0]: "gPlayerProfileMgr"
211D  01                 const type 3
211E  1A7BEF21           const [1]: (569342746)
2122  03                 const type 3
2123  00000000           const [2]: (0)
2127  01                 const type 3
2128  65770E40           const [3]: (1074689893)
212C  01                 const type 3
212D  92104F65           const [4]: (1699680402)
2131  01                 const type 3
2132  4B78C852           const [5]: (1388869707)
2136  04                 const type 4
2137  16                 string size (22)
2138  706C61794F6E5175+  "playOnQu"
2140  6573745265706C61+  "estRepla"
2148  794F6E6C7900       "yOnly\0"
                         const [6]: "playOnQuestReplayOnly"
214E  04                 const type 4
214F  22                 string size (34)
2150  706C61795472616E+  "playTran"
2158  736D697373696F6E+  "smission"
2160  734F6E6C794F6E63+  "sOnlyOnc"
2168  655065724C6F6769+  "ePerLogi"
2170  6E00               "n\0"
                         const [7]: "playTransmissionsOnlyOncePerLogin"
2172  03                 const type 3
2173  0000803F           const [8]: (0)
2177  04                 const type 4
2178  03                 string size (3)
2179  5F4700             "_G\0"
                         const [9]: "_G"
217C  04                 const type 4
217D  16                 string size (22)
217E  4C61737451756573+  "LastQues"
2186  745472616E736D69+  "tTransmi"
218E  7373696F6E00       "ssion\0"
                         const [10]: "LastQuestTransmission"
2194  00                 const type 0
                         const [11]: nil
2195  04                 const type 4
2196  06                 string size (6)
2197  717565737400       "quest\0"
                         const [12]: "quest"
219D  04                 const type 4
219E  06                 string size (6)
219F  737461676500       "stage\0"
                         const [13]: "stage"
21A5  04                 const type 4
21A6  14                 string size (20)
21A7  77616974466F7243+  "waitForC"
21AF  696E656D61746963+  "inematic"
21B7  456E6400           "End\0"
                         const [14]: "waitForCinematicEnd"
21BB  04                 const type 4
21BC  12                 string size (18)
21BD  674261636B67726F+  "gBackgro"
21C5  756E64526567696F+  "undRegio"
21CD  6E00               "n\0"
                         const [15]: "gBackgroundRegion"
21CF  01                 const type 3
21D0  2F8B2F7B           const [16]: (2066713391)
21D4  01                 const type 3
21D5  EA911120           const [17]: (538022378)
21D9  01                 const type 3
21DA  FFF9DE4C           const [18]: (1289681407)
21DE  03                 const type 3
21DF  00000040           const [19]: (0)
21E3  04                 const type 4
21E4  11                 string size (17)
21E5  77616974466F724D+  "waitForM"
21ED  656E75436C6F7365+  "enuClose"
21F5  00                 "\0"
                         const [20]: "waitForMenuClose"
21F6  04                 const type 4
21F7  03                 string size (3)
21F8  5F5400             "_T\0"
                         const [21]: "_T"
21FB  04                 const type 4
21FC  0C                 string size (12)
21FD  416E794D656E754F+  "AnyMenuO"
2205  70656E00           "pen\0"
                         const [22]: "AnyMenuOpen"
2209  01                 const type 3
220A  6B45776B           const [23]: (1802978667)
220E  04                 const type 4
220F  0A                 string size (10)
2210  67466C6173684D67+  "gFlashMg"
2218  7200               "r\0"
                         const [24]: "gFlashMgr"
221A  01                 const type 3
221B  7AAE01CC           const [25]: (-872305030)
221F  04                 const type 4
2220  12                 string size (18)
2221  77616974466F7249+  "waitForI"
2229  6E626F78436C6F73+  "nboxClos"
2231  6500               "e\0"
                         const [26]: "waitForInboxClose"
2233  01                 const type 3
2234  29D4002C           const [27]: (738251817)
2238  04                 const type 4
2239  1B                 string size (27)
223A  2F4C6F7475732F49+  "/Lotus/I"
2242  6E74657266616365+  "nterface"
224A  2F496E626F782E73+  "/Inbox.s"
2252  776600             "wf\0"
                         const [28]: "/Lotus/Interface/Inbox.swf"
2255  04                 const type 4
2256  15                 string size (21)
2257  77616974466F7254+  "waitForT"
225F  72616E736D697373+  "ransmiss"
2267  696F6E7300         "ions\0"
                         const [29]: "waitForTransmissions"
226C  04                 const type 4
226D  16                 string size (22)
226E  5472616E736D6973+  "Transmis"
2276  73696F6E436F6E76+  "sionConv"
227E  6F446F6E6500       "oDone\0"
                         const [30]: "TransmissionConvoDone"
2284  03                 const type 3
2285  0000003F           const [31]: (0)
2289  04                 const type 4
228A  1F                 string size (31)
228B  616476616E636551+  "advanceQ"
2293  7565737441667465+  "uestAfte"
229B  725472616E736D69+  "rTransmi"
22A3  7373696F6E7300     "ssions\0"
                         const [32]: "advanceQuestAfterTransmissions"
22AA  01                 const type 3
22AB  A5BAEE43           const [33]: (1139718821)
22AF  04                 const type 4
22B0  0E                 string size (14)
22B1  717565737450726F+  "questPro"
22B9  677265737300       "gress\0"
                         const [34]: "questProgress"
22BF  04                 const type 4
22C0  16                 string size (22)
22C1  5175657374436F6D+  "QuestCom"
22C9  706C65746543616C+  "pleteCal"
22D1  6C6261636B00       "lback\0"
                         const [35]: "QuestCompleteCallback"
22D7  04                 const type 4
22D8  0F                 string size (15)
22D9  656E61626C654172+  "enableAr"
22E1  636877696E6700     "chwing\0"
                         const [36]: "enableArchwing"
22E8  01                 const type 3
22E9  BA76FB33           const [37]: (872117946)
22ED  01                 const type 3
22EE  104B37AC           const [38]: (-1405662448)
22F2  04                 const type 4
22F3  2A                 string size (42)
22F4  616476616E636551+  "advanceQ"
22FC  75657374546F4E65+  "uestToNe"
2304  7874537461676541+  "xtStageA"
230C  667465725472616E+  "fterTran"
2314  736D697373696F6E+  "smission"
231C  7300               "s\0"
                         const [39]: "advanceQuestToNextStageAfterTransmissions"
                         * functions:
231E  00                 sizep (0)
                         * lines:
2320  02                 sizelineinfo (259)
                         [pc] (line)
2321  5C                 [001] (92)
2322  01                 [002] (92)
2323  00                 [003] (92)
2324  00                 [004] (92)
2325  5C                 [005] (93)
2326  01                 [006] (93)
2327  00                 [007] (93)
2328  00                 [008] (93)
2329  5C                 [009] (93)
232A  01                 [010] (94)
232B  00                 [011] (96)
232C  00                 [012] (96)
232D  5C                 [013] (97)
232E  01                 [014] (97)
232F  00                 [015] (97)
2330  00                 [016] (97)
2331  5D                 [017] (97)
2332  01                 [018] (98)
2333  00                 [019] (100)
2334  00                 [020] (100)
2335  5D                 [021] (100)
2336  01                 [022] (100)
2337  00                 [023] (102)
2338  00                 [024] (102)
2339  5D                 [025] (102)
233A  01                 [026] (102)
233B  00                 [027] (102)
233C  00                 [028] (102)
233D  5D                 [029] (102)
233E  01                 [030] (103)
233F  00                 [031] (106)
2340  00                 [032] (106)
2341  5D                 [033] (106)
2342  01                 [034] (107)
2343  00                 [035] (108)
2344  00                 [036] (108)
2345  5E                 [037] (108)
2346  01                 [038] (108)
2347  00                 [039] (108)
2348  00                 [040] (108)
2349  60                 [041] (108)
234A  01                 [042] (108)
234B  00                 [043] (108)
234C  00                 [044] (108)
234D  60                 [045] (108)
234E  01                 [046] (108)
234F  00                 [047] (108)
2350  00                 [048] (108)
2351  61                 [049] (109)
2352  01                 [050] (113)
2353  00                 [051] (113)
2354  00                 [052] (113)
2355  61                 [053] (114)
2356  01                 [054] (115)
2357  00                 [055] (115)
2358  00                 [056] (115)
2359  61                 [057] (115)
235A  01                 [058] (115)
235B  00                 [059] (115)
235C  00                 [060] (115)
235D  61                 [061] (115)
235E  01                 [062] (115)
235F  00                 [063] (115)
2360  00                 [064] (115)
2361  61                 [065] (115)
2362  01                 [066] (116)
2363  00                 [067] (116)
2364  00                 [068] (116)
2365  62                 [069] (117)
2366  01                 [070] (117)
2367  00                 [071] (117)
2368  00                 [072] (118)
2369  64                 [073] (118)
236A  01                 [074] (118)
236B  00                 [075] (118)
236C  00                 [076] (118)
236D  64                 [077] (118)
236E  01                 [078] (118)
236F  00                 [079] (118)
2370  00                 [080] (118)
2371  64                 [081] (118)
2372  01                 [082] (118)
2373  00                 [083] (118)
2374  00                 [084] (118)
2375  64                 [085] (118)
2376  01                 [086] (119)
2377  00                 [087] (120)
2378  00                 [088] (123)
2379  66                 [089] (123)
237A  01                 [090] (123)
237B  00                 [091] (123)
237C  00                 [092] (123)
237D  66                 [093] (123)
237E  01                 [094] (123)
237F  00                 [095] (123)
2380  00                 [096] (123)
2381  66                 [097] (123)
2382  01                 [098] (123)
2383  00                 [099] (123)
2384  00                 [100] (124)
2385  66                 [101] (124)
2386  01                 [102] (124)
2387  00                 [103] (124)
2388  00                 [104] (-128)
2389  66                 [105] (-128)
238A  01                 [106] (-128)
238B  00                 [107] (-127)
238C  00                 [108] (-127)
238D  66                 [109] (-127)
238E  01                 [110] (-127)
238F  00                 [111] (-127)
2390  00                 [112] (-127)
2391  66                 [113] (-127)
2392  01                 [114] (-127)
2393  00                 [115] (-127)
2394  00                 [116] (-127)
2395  67                 [117] (-127)
2396  01                 [118] (-126)
2397  00                 [119] (-126)
2398  00                 [120] (-126)
2399  6A                 [121] (-126)
239A  01                 [122] (-123)
239B  00                 [123] (-123)
239C  00                 [124] (-123)
239D  6A                 [125] (-123)
239E  01                 [126] (-123)
239F  00                 [127] (-123)
23A0  00                 [128] (-122)
23A1  6A                 [129] (-122)
23A2  01                 [130] (-122)
23A3  00                 [131] (-122)
23A4  00                 [132] (-118)
23A5  6B                 [133] (-118)
23A6  01                 [134] (-118)
23A7  00                 [135] (-117)
23A8  00                 [136] (-117)
23A9  6C                 [137] (-117)
23AA  01                 [138] (-116)
23AB  00                 [139] (-116)
23AC  00                 [140] (-116)
23AD  6C                 [141] (-116)
23AE  01                 [142] (-115)
23AF  00                 [143] (-115)
23B0  00                 [144] (-115)
23B1  6C                 [145] (-115)
23B2  01                 [146] (-112)
23B3  00                 [147] (-112)
23B4  00                 [148] (-112)
23B5  6C                 [149] (-112)
23B6  01                 [150] (-110)
23B7  00                 [151] (-110)
23B8  00                 [152] (-110)
23B9  6C                 [153] (-109)
23BA  01                 [154] (-109)
23BB  00                 [155] (-109)
23BC  00                 [156] (-109)
23BD  6C                 [157] (-108)
23BE  01                 [158] (-108)
23BF  00                 [159] (-108)
23C0  00                 [160] (-108)
23C1  6C                 [161] (-104)
23C2  01                 [162] (-104)
23C3  00                 [163] (-104)
23C4  00                 [164] (-103)
23C5  6C                 [165] (-103)
23C6  01                 [166] (-103)
23C7  00                 [167] (-103)
23C8  00                 [168] (-101)
23C9  6C                 [169] (-101)
23CA  01                 [170] (-101)
23CB  00                 [171] (-100)
23CC  00                 [172] (-100)
23CD  6C                 [173] (-100)
23CE  01                 [174] (-100)
23CF  00                 [175] (-97)
23D0  00                 [176] (-97)
23D1  6C                 [177] (-97)
23D2  01                 [178] (-97)
23D3  00                 [179] (-97)
23D4  00                 [180] (-97)
23D5  6C                 [181] (-96)
23D6  01                 [182] (-96)
23D7  00                 [183] (-96)
23D8  00                 [184] (-93)
23D9  6C                 [185] (-93)
23DA  01                 [186] (-93)
23DB  00                 [187] (-93)
23DC  00                 [188] (-92)
23DD  6C                 [189] (-92)
23DE  01                 [190] (-92)
23DF  00                 [191] (-91)
23E0  00                 [192] (-91)
23E1  6D                 [193] (-91)
23E2  01                 [194] (-91)
23E3  00                 [195] (-90)
23E4  00                 [196] (-90)
23E5  71                 [197] (-90)
23E6  01                 [198] (-90)
23E7  00                 [199] (-90)
23E8  00                 [200] (-89)
23E9  71                 [201] (-89)
23EA  01                 [202] (-88)
23EB  00                 [203] (-88)
23EC  00                 [204] (-88)
23ED  71                 [205] (-88)
23EE  01                 [206] (-88)
23EF  00                 [207] (-87)
23F0  00                 [208] (-87)
23F1  72                 [209] (-87)
23F2  01                 [210] (-87)
23F3  00                 [211] (-87)
23F4  00                 [212] (-87)
23F5  73                 [213] (-87)
23F6  01                 [214] (-86)
23F7  00                 [215] (-85)
23F8  00                 [216] (-85)
23F9  73                 [217] (-85)
23FA  01                 [218] (-85)
23FB  00                 [219] (-83)
23FC  00                 [220] (-83)
23FD  73                 [221] (-83)
23FE  01                 [222] (-82)
23FF  00                 [223] (-82)
2400  00                 [224] (-82)
2401  73                 [225] (-82)
2402  01                 [226] (-79)
2403  00                 [227] (-79)
2404  00                 [228] (-79)
2405  73                 [229] (-79)
2406  01                 [230] (-79)
2407  00                 [231] (-79)
2408  00                 [232] (-78)
2409  73                 [233] (-78)
240A  01                 [234] (-78)
240B  00                 [235] (-75)
240C  00                 [236] (-75)
240D  73                 [237] (-75)
240E  01                 [238] (-68)
240F  00                 [239] (-68)
2410  00                 [240] (-68)
2411  73                 [241] (-68)
2412  01                 [242] (-68)
2413  00                 [243] (-68)
2414  00                 [244] (-68)
2415  73                 [245] (-66)
2416  01                 [246] (-66)
2417  00                 [247] (-66)
2418  00                 [248] (-66)
2419  73                 [249] (-66)
241A  01                 [250] (-66)
241B  00                 [251] (-66)
241C  00                 [252] (-66)
241D  73                 [253] (-65)
241E  01                 [254] (-65)
241F  00                 [255] (-65)
2420  00                 [256] (-65)
2421  73                 [257] (-65)
2422  01                 [258] (-65)
2423  00                 [259] (-63)
                         * locals:
272D  00                 sizelocvars (0)
                         * upvalues:
272E  00                 sizeupvalues (0)
                         ** end of function **

                         
272F                     ** function [14] definition (level 2)
                         ** start of function **
272F  00                 string size (0)
                         source name: (none)
2731  03                 line defined (451)
2732  D4                 last line defined (468)
2733  03                 nups (2)
2734  02                 numparams (2)
2735  02                 is_vararg (0)
2736  00                 maxstacksize (9)
                         * code:
2738  37                 sizecode (55)
2739  9D000000           [01] getglobal  2   0        ; gPlayerProfileMgr
273D  A4404001           [02] self       2   2   257  ; 569342746
2741  19810000           [03] loadk      4   2        ; 0
2745  A2808001           [04] call       2   3   2  
2749  A4C04001           [05] self       2   2   259  ; 1699680402
274D  A2800001           [06] call       2   2   2  
2751  DD000100           [07] getglobal  3   4        ; math
2755  CE40C101           [08] gettable   3   3   261  ; -2040962569
2759  E2808000           [09] call       3   1   2  
275D  1D810100           [10] getglobal  4   6        ; chanceForOneRandom
fail op	21
2761  55C00002           [11] concat     1   4   3  
2765  1A800280           [12] jmp        11           ; to [24]
2769  DDC00100           [13] getglobal  3   7        ; 1074689893
276D  1D010200           [14] getglobal  4   8        ; checkItemType
2771  E2800001           [15] call       3   2   2  
2775  D8400000           [16] test       3       1    ; to [18] if false
2779  1A800180           [17] jmp        7            ; to [25]
277D  D3000000           [18] getupval   3   0      
2781  12010001           [19] move       4   2      
2785  5D010200           [20] getglobal  5   8        ; checkItemType
2789  E2808001           [21] call       3   3   2  
278D  D8000000           [22] test       3       0    ; to [24] if true
2791  1A000080           [23] jmp        1            ; to [25]
2795  1E008000           [24] return     0   1      
2799  C6008001           [25] loadnil    3   3      
279D  1DC10100           [26] getglobal  4   7        ; 1074689893
27A1  52018001           [27] move       5   3      
27A5  22810001           [28] call       4   2   2  
27A9  18010000           [29] test       4       0    ; to [31] if true
27AD  1A800180           [30] jmp        7            ; to [38]
27B1  2441C200           [31] self       4   1   265  ; -2135866365
27B5  22810001           [32] call       4   2   2  
27B9  D2000002           [33] move       3   4      
27BD  1D810200           [34] getglobal  4   10       ; 538022378
27C1  59810000           [35] loadk      5   2        ; 0
27C5  22410001           [36] call       4   2   1  
27C9  1AC0FC7F           [37] jmp        -12          ; to [26]
27CD  1DC10200           [38] getglobal  4   11       ; transmissions
27D1  18010000           [39] test       4       0    ; to [41] if true
27D5  1A400380           [40] jmp        14           ; to [55]
27D9  1DC10200           [41] getglobal  4   11       ; transmissions
27DD  0A010002           [42] len        4   4      
fail op	21
27E1  15000181           [43] concat     0   258 4  
27E5  1A400280           [44] jmp        10           ; to [55]
27E9  13018000           [45] getupval   4   1      
27ED  0E014302           [46] gettable   4   4   268  ; 910246418
27F1  5DC10200           [47] getglobal  5   11       ; transmissions
27F5  9D410300           [48] getglobal  6   13       ; 2144646525
27F9  D9810300           [49] loadk      7   14       ; 0
27FD  1DC20200           [50] getglobal  8   11       ; transmissions
2801  0A020004           [51] len        8   8      
2805  A2818001           [52] call       6   3   2  
2809  4E818102           [53] gettable   5   5   6  
280D  22410001           [54] call       4   2   1  
2811  1E008000           [55] return     0   1      
                         * constants:
2815  0F                 sizek (15)
2816  04                 const type 4
2817  12                 string size (18)
2818  67506C6179657250+  "gPlayerP"
2820  726F66696C654D67+  "rofileMg"
2828  7200               "r\0"
                         const [0]: "gPlayerProfileMgr"
282A  01                 const type 3
282B  1A7BEF21           const [1]: (569342746)
282F  03                 const type 3
2830  00000000           const [2]: (0)
2834  01                 const type 3
2835  92104F65           const [3]: (1699680402)
2839  04                 const type 4
283A  05                 string size (5)
283B  6D61746800         "math\0"
                         const [4]: "math"
2840  01                 const type 3
2841  F7615986           const [5]: (-2040962569)
2845  04                 const type 4
2846  13                 string size (19)
2847  6368616E6365466F+  "chanceFo"
284F  724F6E6552616E64+  "rOneRand"
2857  6F6D00             "om\0"
                         const [6]: "chanceForOneRandom"
285A  01                 const type 3
285B  65770E40           const [7]: (1074689893)
285F  04                 const type 4
2860  0E                 string size (14)
2861  636865636B497465+  "checkIte"
2869  6D5479706500       "mType\0"
                         const [8]: "checkItemType"
286F  01                 const type 3
2870  0344B180           const [9]: (-2135866365)
2874  01                 const type 3
2875  EA911120           const [10]: (538022378)
2879  04                 const type 4
287A  0E                 string size (14)
287B  7472616E736D6973+  "transmis"
2883  73696F6E7300       "sions\0"
                         const [11]: "transmissions"
2889  01                 const type 3
288A  12424136           const [12]: (910246418)
288E  01                 const type 3
288F  7DB5D47F           const [13]: (2144646525)
2893  03                 const type 3
2894  0000803F           const [14]: (0)
                         * functions:
2898  00                 sizep (0)
                         * lines:
2899  37                 sizelineinfo (55)
                         [pc] (line)
289A  C4                 [01] (-60)
289B  01                 [02] (-60)
289C  00                 [03] (-60)
289D  00                 [04] (-60)
289E  C4                 [05] (-60)
289F  01                 [06] (-60)
28A0  00                 [07] (-58)
28A1  00                 [08] (-58)
28A2  C4                 [09] (-58)
28A3  01                 [10] (-58)
28A4  00                 [11] (-58)
28A5  00                 [12] (-58)
28A6  C4                 [13] (-58)
28A7  01                 [14] (-58)
28A8  00                 [15] (-58)
28A9  00                 [16] (-58)
28AA  C4                 [17] (-58)
28AB  01                 [18] (-58)
28AC  00                 [19] (-58)
28AD  00                 [20] (-58)
28AE  C4                 [21] (-58)
28AF  01                 [22] (-58)
28B0  00                 [23] (-58)
28B1  00                 [24] (-57)
28B2  C6                 [25] (-54)
28B3  01                 [26] (-52)
28B4  00                 [27] (-52)
28B5  00                 [28] (-52)
28B6  C6                 [29] (-52)
28B7  01                 [30] (-52)
28B8  00                 [31] (-51)
28B9  00                 [32] (-51)
28BA  C6                 [33] (-51)
28BB  01                 [34] (-50)
28BC  00                 [35] (-50)
28BD  00                 [36] (-50)
28BE  C6                 [37] (-50)
28BF  01                 [38] (-47)
28C0  00                 [39] (-47)
28C1  00                 [40] (-47)
28C2  C6                 [41] (-47)
28C3  01                 [42] (-47)
28C4  00                 [43] (-47)
28C5  00                 [44] (-47)
28C6  C6                 [45] (-46)
28C7  01                 [46] (-46)
28C8  00                 [47] (-46)
28C9  00                 [48] (-46)
28CA  C6                 [49] (-46)
28CB  01                 [50] (-46)
28CC  00                 [51] (-46)
28CD  00                 [52] (-46)
28CE  C6                 [53] (-46)
28CF  01                 [54] (-46)
28D0  00                 [55] (-44)
                         * locals:
2976  00                 sizelocvars (0)
                         * upvalues:
2977  00                 sizeupvalues (0)
                         ** end of function **

                         
2978                     ** function [15] definition (level 2)
                         ** start of function **
2978  00                 string size (0)
                         source name: (none)
297A  03                 line defined (470)
297B  DD                 last line defined (477)
297C  03                 nups (1)
297D  01                 numparams (2)
297E  02                 is_vararg (0)
297F  00                 maxstacksize (7)
                         * code:
2981  18                 sizecode (24)
2982  9D000000           [01] getglobal  2   0        ; gPlayerProfileMgr
2986  A4404001           [02] self       2   2   257  ; 569342746
298A  19810000           [03] loadk      4   2        ; 0
298E  A2808001           [04] call       2   3   2  
2992  A4C04001           [05] self       2   2   259  ; 1699680402
2996  A2800001           [06] call       2   2   2  
299A  E4004101           [07] self       3   2   260  ; 1865287165
299E  E2800001           [08] call       3   2   2  
29A2  E440C101           [09] self       3   3   261  ; 1645278726
29A6  E2800001           [10] call       3   2   2  
29AA  1D810100           [11] getglobal  4   6        ; 1074689893
29AE  52018001           [12] move       5   3      
29B2  22810001           [13] call       4   2   2  
29B6  18410000           [14] test       4       1    ; to [16] if false
29BA  1A800080           [15] jmp        3            ; to [19]
29BE  0A018001           [16] len        4   3      
fail op	35
29C2  23804002           [17] close      0  
29C6  1A000080           [18] jmp        1            ; to [20]
29CA  1E008000           [19] return     0   1      
29CE  13010000           [20] getupval   4   0      
29D2  52010000           [21] move       5   0      
29D6  92018000           [22] move       6   1      
29DA  22418001           [23] call       4   3   1  
29DE  1E008000           [24] return     0   1      
                         * constants:
29E2  07                 sizek (7)
29E3  04                 const type 4
29E4  12                 string size (18)
29E5  67506C6179657250+  "gPlayerP"
29ED  726F66696C654D67+  "rofileMg"
29F5  7200               "r\0"
                         const [0]: "gPlayerProfileMgr"
29F7  01                 const type 3
29F8  1A7BEF21           const [1]: (569342746)
29FC  03                 const type 3
29FD  00000000           const [2]: (0)
2A01  01                 const type 3
2A02  92104F65           const [3]: (1699680402)
2A06  01                 const type 3
2A07  FD052E6F           const [4]: (1865287165)
2A0B  01                 const type 3
2A0C  06F61062           const [5]: (1645278726)
2A10  01                 const type 3
2A11  65770E40           const [6]: (1074689893)
                         * functions:
2A15  00                 sizep (0)
                         * lines:
2A16  18                 sizelineinfo (24)
                         [pc] (line)
2A17  D7                 [01] (-41)
2A18  01                 [02] (-41)
2A19  00                 [03] (-41)
2A1A  00                 [04] (-41)
2A1B  D7                 [05] (-41)
2A1C  01                 [06] (-41)
2A1D  00                 [07] (-40)
2A1E  00                 [08] (-40)
2A1F  D7                 [09] (-40)
2A20  01                 [10] (-40)
2A21  00                 [11] (-39)
2A22  00                 [12] (-39)
2A23  D7                 [13] (-39)
2A24  01                 [14] (-39)
2A25  00                 [15] (-39)
2A26  00                 [16] (-39)
2A27  D7                 [17] (-39)
2A28  01                 [18] (-39)
2A29  00                 [19] (-38)
2A2A  00                 [20] (-36)
2A2B  D7                 [21] (-36)
2A2C  01                 [22] (-36)
2A2D  00                 [23] (-36)
2A2E  00                 [24] (-35)
                         * locals:
2A77  00                 sizelocvars (0)
                         * upvalues:
2A78  00                 sizeupvalues (0)
                         ** end of function **

                         
2A79                     ** function [16] definition (level 2)
                         ** start of function **
2A79  00                 string size (0)
                         source name: (none)
2A7B  03                 line defined (479)
2A7C  F1                 last line defined (497)
2A7D  03                 nups (1)
2A7E  01                 numparams (2)
2A7F  02                 is_vararg (0)
2A80  00                 maxstacksize (14)
                         * code:
2A82  21                 sizecode (33)
2A83  9D000000           [01] getglobal  2   0        ; gPlayerProfileMgr
2A87  A4404001           [02] self       2   2   257  ; 569342746
2A8B  19810000           [03] loadk      4   2        ; 0
2A8F  A2808001           [04] call       2   3   2  
2A93  A4C04001           [05] self       2   2   259  ; 1699680402
2A97  A2800001           [06] call       2   2   2  
2A9B  E4004101           [07] self       3   2   260  ; 1865287165
2A9F  E2800001           [08] call       3   2   2  
2AA3  2441C101           [09] self       4   3   261  ; 892650483
2AA7  22810001           [10] call       4   2   2  
2AAB  57010000           [11] loadbool   5   0   0    ; false
2AAF  9D810100           [12] getglobal  6   6        ; 248503575
2AB3  D2010002           [13] move       7   4      
2AB7  A2010101           [14] call       6   2   4  
2ABB  1AC00180           [15] jmp        8            ; to [24]
2ABF  CEC24105           [16] gettable   11  10  263  ; "mDetails"
2AC3  CE02C205           [17] gettable   11  11  264  ; "mStatus"
2AC7  1D430200           [18] getglobal  12  9        ; Lotus_Game
2ACB  0E834206           [19] gettable   12  12  266  ; "KubrowPetInfoDetails_STATUS_STASIS"
fail op	35
2ACF  63008305           [20] close      1  
2AD3  1A400080           [21] jmp        2            ; to [24]
2AD7  57018000           [22] loadbool   5   1   0    ; true
2ADB  1A400080           [23] jmp        2            ; to [26]
2ADF  96810000           [24] tforloop   6       2    ; to [26] if exit
2AE3  1A40FD7F           [25] jmp        -10          ; to [16]
2AE7  58410000           [26] test       5       1    ; to [28] if false
2AEB  1A000080           [27] jmp        1            ; to [29]
2AEF  1E008000           [28] return     0   1      
2AF3  D3020000           [29] getupval   11  0      
2AF7  12030000           [30] move       12  0      
2AFB  52038000           [31] move       13  1      
2AFF  E2428001           [32] call       11  3   1  
2B03  1E008000           [33] return     0   1      
                         * constants:
2B07  0B                 sizek (11)
2B08  04                 const type 4
2B09  12                 string size (18)
2B0A  67506C6179657250+  "gPlayerP"
2B12  726F66696C654D67+  "rofileMg"
2B1A  7200               "r\0"
                         const [0]: "gPlayerProfileMgr"
2B1C  01                 const type 3
2B1D  1A7BEF21           const [1]: (569342746)
2B21  03                 const type 3
2B22  00000000           const [2]: (0)
2B26  01                 const type 3
2B27  92104F65           const [3]: (1699680402)
2B2B  01                 const type 3
2B2C  FD052E6F           const [4]: (1865287165)
2B30  01                 const type 3
2B31  F3C33435           const [5]: (892650483)
2B35  01                 const type 3
2B36  17DDCF0E           const [6]: (248503575)
2B3A  04                 const type 4
2B3B  09                 string size (9)
2B3C  6D44657461696C73+  "mDetails"
2B44  00                 "\0"
                         const [7]: "mDetails"
2B45  04                 const type 4
2B46  08                 string size (8)
2B47  6D53746174757300   "mStatus\0"
                         const [8]: "mStatus"
2B4F  04                 const type 4
2B50  0B                 string size (11)
2B51  4C6F7475735F4761+  "Lotus_Ga"
2B59  6D6500             "me\0"
                         const [9]: "Lotus_Game"
2B5C  04                 const type 4
2B5D  23                 string size (35)
2B5E  4B7562726F775065+  "KubrowPe"
2B66  74496E666F446574+  "tInfoDet"
2B6E  61696C735F535441+  "ails_STA"
2B76  5455535F53544153+  "TUS_STAS"
2B7E  495300             "IS\0"
                         const [10]: "KubrowPetInfoDetails_STATUS_STASIS"
                         * functions:
2B81  00                 sizep (0)
                         * lines:
2B82  21                 sizelineinfo (33)
                         [pc] (line)
2B83  E0                 [01] (-32)
2B84  01                 [02] (-32)
2B85  00                 [03] (-32)
2B86  00                 [04] (-32)
2B87  E0                 [05] (-32)
2B88  01                 [06] (-32)
2B89  00                 [07] (-31)
2B8A  00                 [08] (-31)
2B8B  E0                 [09] (-30)
2B8C  01                 [10] (-30)
2B8D  00                 [11] (-28)
2B8E  00                 [12] (-27)
2B8F  E0                 [13] (-27)
2B90  01                 [14] (-27)
2B91  00                 [15] (-27)
2B92  00                 [16] (-26)
2B93  E0                 [17] (-26)
2B94  01                 [18] (-26)
2B95  00                 [19] (-26)
2B96  00                 [20] (-26)
2B97  E0                 [21] (-26)
2B98  01                 [22] (-25)
2B99  00                 [23] (-24)
2B9A  00                 [24] (-27)
2B9B  E1                 [25] (-23)
2B9C  01                 [26] (-20)
2B9D  00                 [27] (-20)
2B9E  00                 [28] (-19)
2B9F  E1                 [29] (-16)
2BA0  01                 [30] (-16)
2BA1  00                 [31] (-16)
2BA2  00                 [32] (-16)
2BA3  E2                 [33] (-15)
                         * locals:
2C07  00                 sizelocvars (0)
                         * upvalues:
2C08  00                 sizeupvalues (0)
                         ** end of function **

                         
2C09                     ** function [17] definition (level 2)
                         ** start of function **
2C09  00                 string size (0)
                         source name: (none)
2C0B  03                 line defined (499)
2C0C  FE                 last line defined (510)
2C0D  03                 nups (0)
2C0E  00                 numparams (2)
2C0F  02                 is_vararg (0)
2C10  00                 maxstacksize (10)
                         * code:
2C12  19                 sizecode (25)
2C13  9D000000           [01] getglobal  2   0        ; 1074689893
2C17  D2008000           [02] move       3   1      
2C1B  A2800001           [03] call       2   2   2  
2C1F  98000000           [04] test       2       0    ; to [6] if true
2C23  1A400080           [05] jmp        2            ; to [8]
2C27  97000000           [06] loadbool   2   0   0    ; false
2C2B  9E000001           [07] return     2   2      
2C2F  A440C000           [08] self       2   1   257  ; 1251059402
2C33  A2800001           [09] call       2   2   2  
2C37  D9800000           [10] loadk      3   2        ; 0
2C3B  0A010001           [11] len        4   2      
2C3F  59810000           [12] loadk      5   2        ; 0
2C43  D0C00180           [13] forprep    3   8        ; to [22]
2C47  CE810101           [14] gettable   7   2   6  
2C4B  CEC1C003           [15] gettable   7   7   259  ; "mItemType"
2C4F  24024100           [16] self       8   0   260  ; -491574171
2C53  22820001           [17] call       8   2   2  
fail op	35
2C57  23008203           [18] close      0  
2C5B  1A400080           [19] jmp        2            ; to [22]
2C5F  D7018000           [20] loadbool   7   1   0    ; true
2C63  DE010001           [21] return     7   2      
2C67  D480FD7F           [22] forloop    3   -9       ; to [14] if loop
2C6B  D7010000           [23] loadbool   7   0   0    ; false
2C6F  DE010001           [24] return     7   2      
2C73  1E008000           [25] return     0   1      
                         * constants:
2C77  05                 sizek (5)
2C78  01                 const type 3
2C79  65770E40           const [0]: (1074689893)
2C7D  01                 const type 3
2C7E  CAA6914A           const [1]: (1251059402)
2C82  03                 const type 3
2C83  0000803F           const [2]: (0)
2C87  04                 const type 4
2C88  0A                 string size (10)
2C89  6D4974656D547970+  "mItemTyp"
2C91  6500               "e\0"
                         const [3]: "mItemType"
2C93  01                 const type 3
2C94  652CB3E2           const [4]: (-491574171)
                         * functions:
2C98  00                 sizep (0)
                         * lines:
2C99  19                 sizelineinfo (25)
                         [pc] (line)
2C9A  F4                 [01] (-12)
2C9B  01                 [02] (-12)
2C9C  00                 [03] (-12)
2C9D  00                 [04] (-12)
2C9E  F4                 [05] (-12)
2C9F  01                 [06] (-11)
2CA0  00                 [07] (-11)
2CA1  00                 [08] (-9)
2CA2  F4                 [09] (-9)
2CA3  01                 [10] (-8)
2CA4  00                 [11] (-8)
2CA5  00                 [12] (-8)
2CA6  F4                 [13] (-8)
2CA7  01                 [14] (-7)
2CA8  00                 [15] (-7)
2CA9  00                 [16] (-7)
2CAA  F4                 [17] (-7)
2CAB  01                 [18] (-7)
2CAC  00                 [19] (-7)
2CAD  00                 [20] (-6)
2CAE  F5                 [21] (-6)
2CAF  01                 [22] (-8)
2CB0  00                 [23] (-3)
2CB1  00                 [24] (-3)
2CB2  F5                 [25] (-2)
                         * locals:
2CFE  00                 sizelocvars (0)
                         * upvalues:
2CFF  00                 sizeupvalues (0)
                         ** end of function **

                         
2D00                     ** function [18] definition (level 2)
                         ** start of function **
2D00  00                 string size (0)
                         source name: (none)
2D02  04                 line defined (512)
2D03  97                 last line defined (535)
2D04  04                 nups (2)
2D05  02                 numparams (2)
2D06  02                 is_vararg (0)
2D07  00                 maxstacksize (13)
                         * code:
2D09  39                 sizecode (57)
2D0A  9D000000           [01] getglobal  2   0        ; gPlayerProfileMgr
2D0E  A4404001           [02] self       2   2   257  ; 569342746
2D12  19810000           [03] loadk      4   2        ; 0
2D16  A2808001           [04] call       2   3   2  
2D1A  E4C04001           [05] self       3   2   259  ; 1699680402
2D1E  E2800001           [06] call       3   2   2  
2D22  2401C101           [07] self       4   3   260  ; 1865287165
2D26  22810001           [08] call       4   2   2  
2D2A  24414102           [09] self       4   4   261  ; 858389503
2D2E  22810001           [10] call       4   2   2  
2D32  5D810100           [11] getglobal  5   6        ; recipe
2D36  64C1C102           [12] self       5   5   263  ; -1722328121
2D3A  62810001           [13] call       5   2   2  
2D3E  9D010200           [14] getglobal  6   8        ; 1074689893
2D42  D2010002           [15] move       7   4      
2D46  A2810001           [16] call       6   2   2  
2D4A  98410000           [17] test       6       1    ; to [19] if false
2D4E  1A000480           [18] jmp        17           ; to [36]
2D52  99410200           [19] loadk      6   9        ; 0
2D56  CA010002           [20] len        7   4      
2D5A  19420200           [21] loadk      8   9        ; 0
2D5E  90C10280           [22] forprep    6   12       ; to [35]
2D62  8E420202           [23] gettable   10  4   9  
2D66  8E824205           [24] gettable   10  10  266  ; "mItemType"
2D6A  A4C24205           [25] self       10  10  267  ; -1957065004
2D6E  12038002           [26] move       12  5      
2D72  A2828001           [27] call       10  3   2  
2D76  98020000           [28] test       10      0    ; to [30] if true
2D7A  1A000180           [29] jmp        5            ; to [35]
2D7E  8E420202           [30] gettable   10  4   9  
2D82  8E024305           [31] gettable   10  10  268  ; "mItemCount"
fail op	21
2D86  15800281           [32] concat     0   258 10 
2D8A  1A000080           [33] jmp        1            ; to [35]
2D8E  1E008000           [34] return     0   1      
2D92  9481FC7F           [35] forloop    6   -13      ; to [23] if loop
2D96  93020000           [36] getupval   10  0      
2D9A  DD820100           [37] getglobal  11  6        ; recipe
2D9E  12038001           [38] move       12  3      
2DA2  A2828001           [39] call       10  3   2  
2DA6  98020000           [40] test       10      0    ; to [42] if true
2DAA  1A000080           [41] jmp        1            ; to [43]
2DAE  1E008000           [42] return     0   1      
2DB2  93020000           [43] getupval   10  0      
2DB6  DD820100           [44] getglobal  11  6        ; recipe
2DBA  12038001           [45] move       12  3      
2DBE  A2828001           [46] call       10  3   2  
2DC2  98420000           [47] test       10      1    ; to [49] if false
2DC6  1AC00080           [48] jmp        4            ; to [53]
2DCA  9D420300           [49] getglobal  10  13       ; 538022378
2DCE  D9820000           [50] loadk      11  2        ; 0
2DD2  A2420001           [51] call       10  2   1  
2DD6  1A40FD7F           [52] jmp        -10          ; to [43]
2DDA  93028000           [53] getupval   10  1      
2DDE  D2020000           [54] move       11  0      
2DE2  12038000           [55] move       12  1      
2DE6  A2428001           [56] call       10  3   1  
2DEA  1E008000           [57] return     0   1      
                         * constants:
2DEE  0E                 sizek (14)
2DEF  04                 const type 4
2DF0  12                 string size (18)
2DF1  67506C6179657250+  "gPlayerP"
2DF9  726F66696C654D67+  "rofileMg"
2E01  7200               "r\0"
                         const [0]: "gPlayerProfileMgr"
2E03  01                 const type 3
2E04  1A7BEF21           const [1]: (569342746)
2E08  03                 const type 3
2E09  00000000           const [2]: (0)
2E0D  01                 const type 3
2E0E  92104F65           const [3]: (1699680402)
2E12  01                 const type 3
2E13  FD052E6F           const [4]: (1865287165)
2E17  01                 const type 3
2E18  FFFB2933           const [5]: (858389503)
2E1C  04                 const type 4
2E1D  07                 string size (7)
2E1E  72656369706500     "recipe\0"
                         const [6]: "recipe"
2E25  01                 const type 3
2E26  C75B5799           const [7]: (-1722328121)
2E2A  01                 const type 3
2E2B  65770E40           const [8]: (1074689893)
2E2F  03                 const type 3
2E30  0000803F           const [9]: (0)
2E34  04                 const type 4
2E35  0A                 string size (10)
2E36  6D4974656D547970+  "mItemTyp"
2E3E  6500               "e\0"
                         const [10]: "mItemType"
2E40  01                 const type 3
2E41  D48E598B           const [11]: (-1957065004)
2E45  04                 const type 4
2E46  0B                 string size (11)
2E47  6D4974656D436F75+  "mItemCou"
2E4F  6E7400             "nt\0"
                         const [12]: "mItemCount"
2E52  01                 const type 3
2E53  EA911120           const [13]: (538022378)
                         * functions:
2E57  00                 sizep (0)
                         * lines:
2E58  39                 sizelineinfo (57)
                         [pc] (line)
2E59  01                 [01] (1)
2E5A  02                 [02] (1)
2E5B  00                 [03] (1)
2E5C  00                 [04] (1)
2E5D  01                 [05] (2)
2E5E  02                 [06] (2)
2E5F  00                 [07] (3)
2E60  00                 [08] (3)
2E61  01                 [09] (3)
2E62  02                 [10] (3)
2E63  00                 [11] (5)
2E64  00                 [12] (5)
2E65  01                 [13] (5)
2E66  02                 [14] (6)
2E67  00                 [15] (6)
2E68  00                 [16] (6)
2E69  02                 [17] (6)
2E6A  02                 [18] (6)
2E6B  00                 [19] (7)
2E6C  00                 [20] (7)
2E6D  02                 [21] (7)
2E6E  02                 [22] (7)
2E6F  00                 [23] (8)
2E70  00                 [24] (8)
2E71  03                 [25] (8)
2E72  02                 [26] (8)
2E73  00                 [27] (8)
2E74  00                 [28] (8)
2E75  03                 [29] (8)
2E76  02                 [30] (8)
2E77  00                 [31] (8)
2E78  00                 [32] (8)
2E79  03                 [33] (8)
2E7A  02                 [34] (9)
2E7B  00                 [35] (7)
2E7C  00                 [36] (14)
2E7D  03                 [37] (14)
2E7E  02                 [38] (14)
2E7F  00                 [39] (14)
2E80  00                 [40] (14)
2E81  05                 [41] (14)
2E82  02                 [42] (15)
2E83  00                 [43] (18)
2E84  00                 [44] (18)
2E85  05                 [45] (18)
2E86  02                 [46] (18)
2E87  00                 [47] (18)
2E88  00                 [48] (18)
2E89  05                 [49] (19)
2E8A  02                 [50] (19)
2E8B  00                 [51] (19)
2E8C  00                 [52] (19)
2E8D  06                 [53] (22)
2E8E  02                 [54] (22)
2E8F  00                 [55] (22)
2E90  00                 [56] (22)
2E91  06                 [57] (23)
                         * locals:
2F3D  00                 sizelocvars (0)
                         * upvalues:
2F3E  00                 sizeupvalues (0)
                         ** end of function **

                         
2F3F                     ** function [19] definition (level 2)
                         ** start of function **
2F3F  00                 string size (0)
                         source name: (none)
2F41  04                 line defined (537)
2F42  A8                 last line defined (552)
2F43  04                 nups (2)
2F44  02                 numparams (2)
2F45  02                 is_vararg (0)
2F46  00                 maxstacksize (7)
                         * code:
2F48  1F                 sizecode (31)
2F49  9D000000           [01] getglobal  2   0        ; gPlayerProfileMgr
2F4D  A4404001           [02] self       2   2   257  ; 569342746
2F51  19810000           [03] loadk      4   2        ; 0
2F55  A2808001           [04] call       2   3   2  
2F59  E4C04001           [05] self       3   2   259  ; 1699680402
2F5D  E2800001           [06] call       3   2   2  
2F61  1D010100           [07] getglobal  4   4        ; 1074689893
2F65  52018001           [08] move       5   3      
2F69  22810001           [09] call       4   2   2  
2F6D  18010000           [10] test       4       0    ; to [12] if true
2F71  1A000080           [11] jmp        1            ; to [13]
2F75  1E008000           [12] return     0   1      
2F79  13010000           [13] getupval   4   0      
2F7D  52018001           [14] move       5   3      
2F81  9D410100           [15] getglobal  6   5        ; checkItemType
2F85  22818001           [16] call       4   3   2  
2F89  18410000           [17] test       4       1    ; to [19] if false
2F8D  1AC00180           [18] jmp        8            ; to [27]
2F91  1D810100           [19] getglobal  4   6        ; checkOnce
2F95  18010000           [20] test       4       0    ; to [22] if true
2F99  1A000080           [21] jmp        1            ; to [23]
2F9D  1E008000           [22] return     0   1      
2FA1  1DC10100           [23] getglobal  4   7        ; 538022378
2FA5  59810000           [24] loadk      5   2        ; 0
2FA9  22410001           [25] call       4   2   1  
2FAD  1A40FC7F           [26] jmp        -14          ; to [13]
2FB1  13018000           [27] getupval   4   1      
2FB5  52010000           [28] move       5   0      
2FB9  92018000           [29] move       6   1      
2FBD  22418001           [30] call       4   3   1  
2FC1  1E008000           [31] return     0   1      
                         * constants:
2FC5  08                 sizek (8)
2FC6  04                 const type 4
2FC7  12                 string size (18)
2FC8  67506C6179657250+  "gPlayerP"
2FD0  726F66696C654D67+  "rofileMg"
2FD8  7200               "r\0"
                         const [0]: "gPlayerProfileMgr"
2FDA  01                 const type 3
2FDB  1A7BEF21           const [1]: (569342746)
2FDF  03                 const type 3
2FE0  00000000           const [2]: (0)
2FE4  01                 const type 3
2FE5  92104F65           const [3]: (1699680402)
2FE9  01                 const type 3
2FEA  65770E40           const [4]: (1074689893)
2FEE  04                 const type 4
2FEF  0E                 string size (14)
2FF0  636865636B497465+  "checkIte"
2FF8  6D5479706500       "mType\0"
                         const [5]: "checkItemType"
2FFE  04                 const type 4
2FFF  0A                 string size (10)
3000  636865636B4F6E63+  "checkOnc"
3008  6500               "e\0"
                         const [6]: "checkOnce"
300A  01                 const type 3
300B  EA911120           const [7]: (538022378)
                         * functions:
300F  00                 sizep (0)
                         * lines:
3010  1F                 sizelineinfo (31)
                         [pc] (line)
3011  1A                 [01] (26)
3012  02                 [02] (26)
3013  00                 [03] (26)
3014  00                 [04] (26)
3015  1A                 [05] (27)
3016  02                 [06] (27)
3017  00                 [07] (28)
3018  00                 [08] (28)
3019  1A                 [09] (28)
301A  02                 [10] (28)
301B  00                 [11] (28)
301C  00                 [12] (29)
301D  1A                 [13] (32)
301E  02                 [14] (32)
301F  00                 [15] (32)
3020  00                 [16] (32)
3021  1B                 [17] (32)
3022  02                 [18] (32)
3023  00                 [19] (33)
3024  00                 [20] (33)
3025  1B                 [21] (33)
3026  02                 [22] (34)
3027  00                 [23] (36)
3028  00                 [24] (36)
3029  1C                 [25] (36)
302A  02                 [26] (36)
302B  00                 [27] (39)
302C  00                 [28] (39)
302D  1C                 [29] (39)
302E  02                 [30] (39)
302F  00                 [31] (40)
                         * locals:
308D  00                 sizelocvars (0)
                         * upvalues:
308E  00                 sizeupvalues (0)
                         ** end of function **

                         
308F                     ** function [20] definition (level 2)
                         ** start of function **
308F  00                 string size (0)
                         source name: (none)
3091  04                 line defined (554)
3092  B4                 last line defined (564)
3093  04                 nups (2)
3094  02                 numparams (2)
3095  02                 is_vararg (0)
3096  00                 maxstacksize (7)
                         * code:
3098  17                 sizecode (23)
3099  9D000000           [01] getglobal  2   0        ; gPlayerProfileMgr
309D  A4404001           [02] self       2   2   257  ; 569342746
30A1  19810000           [03] loadk      4   2        ; 0
30A5  A2808001           [04] call       2   3   2  
30A9  E4C04001           [05] self       3   2   259  ; 1699680402
30AD  E2800001           [06] call       3   2   2  
30B1  1D010100           [07] getglobal  4   4        ; 1074689893
30B5  52018001           [08] move       5   3      
30B9  22810001           [09] call       4   2   2  
30BD  18010000           [10] test       4       0    ; to [12] if true
30C1  1A000080           [11] jmp        1            ; to [13]
30C5  1E008000           [12] return     0   1      
30C9  13010000           [13] getupval   4   0      
30CD  52018001           [14] move       5   3      
30D1  9D410100           [15] getglobal  6   5        ; checkItemType
30D5  22818001           [16] call       4   3   2  
30D9  18410000           [17] test       4       1    ; to [19] if false
30DD  1AC00080           [18] jmp        4            ; to [23]
30E1  13018000           [19] getupval   4   1      
30E5  52010000           [20] move       5   0      
30E9  92018000           [21] move       6   1      
30ED  22418001           [22] call       4   3   1  
30F1  1E008000           [23] return     0   1      
                         * constants:
30F5  06                 sizek (6)
30F6  04                 const type 4
30F7  12                 string size (18)
30F8  67506C6179657250+  "gPlayerP"
3100  726F66696C654D67+  "rofileMg"
3108  7200               "r\0"
                         const [0]: "gPlayerProfileMgr"
310A  01                 const type 3
310B  1A7BEF21           const [1]: (569342746)
310F  03                 const type 3
3110  00000000           const [2]: (0)
3114  01                 const type 3
3115  92104F65           const [3]: (1699680402)
3119  01                 const type 3
311A  65770E40           const [4]: (1074689893)
311E  04                 const type 4
311F  0E                 string size (14)
3120  636865636B497465+  "checkIte"
3128  6D5479706500       "mType\0"
                         const [5]: "checkItemType"
                         * functions:
312E  00                 sizep (0)
                         * lines:
312F  17                 sizelineinfo (23)
                         [pc] (line)
3130  2B                 [01] (43)
3131  02                 [02] (43)
3132  00                 [03] (43)
3133  00                 [04] (43)
3134  2B                 [05] (44)
3135  02                 [06] (44)
3136  00                 [07] (45)
3137  00                 [08] (45)
3138  2B                 [09] (45)
3139  02                 [10] (45)
313A  00                 [11] (45)
313B  00                 [12] (46)
313C  2B                 [13] (49)
313D  02                 [14] (49)
313E  00                 [15] (49)
313F  00                 [16] (49)
3140  2C                 [17] (49)
3141  02                 [18] (49)
3142  00                 [19] (50)
3143  00                 [20] (50)
3144  2C                 [21] (50)
3145  02                 [22] (50)
3146  00                 [23] (52)
                         * locals:
318C  00                 sizelocvars (0)
                         * upvalues:
318D  00                 sizeupvalues (0)
                         ** end of function **

                         
318E                     ** function [21] definition (level 2)
                         ** start of function **
318E  00                 string size (0)
                         source name: (none)
3190  04                 line defined (566)
3191  DB                 last line defined (603)
3192  04                 nups (5)
3193  05                 numparams (2)
3194  02                 is_vararg (0)
3195  00                 maxstacksize (9)
                         * code:
3197  43                 sizecode (67)
3198  86000001           [01] loadnil    2   2      
319C  DD000000           [02] getglobal  3   0        ; 1074689893
31A0  12010001           [03] move       4   2      
31A4  E2800001           [04] call       3   2   2  
31A8  D8000000           [05] test       3       0    ; to [7] if true
31AC  1A800180           [06] jmp        7            ; to [14]
31B0  E440C000           [07] self       3   1   257  ; -2135866365
31B4  E2800001           [08] call       3   2   2  
31B8  92008001           [09] move       2   3      
31BC  DD800000           [10] getglobal  3   2        ; 538022378
31C0  19C10000           [11] loadk      4   3        ; 0
31C4  E2400001           [12] call       3   2   1  
31C8  1AC0FC7F           [13] jmp        -12          ; to [2]
31CC  D3000000           [14] getupval   3   0      
31D0  12010001           [15] move       4   2      
31D4  E2400001           [16] call       3   2   1  
31D8  DD000100           [17] getglobal  3   4        ; gPlayerProfileMgr
31DC  E440C101           [18] self       3   3   261  ; 569342746
31E0  59C10000           [19] loadk      5   3        ; 0
31E4  E2808001           [20] call       3   3   2  
31E8  1D010000           [21] getglobal  4   0        ; 1074689893
31EC  52018001           [22] move       5   3      
31F0  22810001           [23] call       4   2   2  
31F4  18410000           [24] test       4       1    ; to [26] if false
31F8  1A800280           [25] jmp        11           ; to [37]
31FC  2481C101           [26] self       4   3   262  ; 1699680402
3200  22810001           [27] call       4   2   2  
3204  5D010000           [28] getglobal  5   0        ; 1074689893
3208  92010002           [29] move       6   4      
320C  62810001           [30] call       5   2   2  
3210  58410000           [31] test       5       1    ; to [33] if false
3214  1AC00080           [32] jmp        4            ; to [37]
3218  64C14102           [33] self       5   4   263  ; 1139718821
321C  DD010200           [34] getglobal  7   8        ; questProgress
3220  19420200           [35] loadk      8   9        ; "QuestCompleteCallback"
3224  62410002           [36] call       5   4   1  
3228  53018000           [37] getupval   5   1      
322C  58410000           [38] test       5       1    ; to [40] if false
3230  1AC00080           [39] jmp        4            ; to [44]
3234  5D810000           [40] getglobal  5   2        ; 538022378
3238  99810200           [41] loadk      6   10       ; 0
323C  62410001           [42] call       5   2   1  
3240  1A00FE7F           [43] jmp        -7           ; to [37]
3244  53010001           [44] getupval   5   2      
3248  58010000           [45] test       5       0    ; to [47] if true
324C  1A000180           [46] jmp        5            ; to [52]
3250  53018001           [47] getupval   5   3      
3254  4EC1C202           [48] gettable   5   5   267  ; -1405662448
3258  62418000           [49] call       5   1   1  
325C  1AC00380           [50] jmp        16           ; to [67]
3260  1A00F37F           [51] jmp        -51          ; to [1]
3264  57010000           [52] loadbool   5   0   0    ; false
fail op	8
3268  48018000           [53] setupval   5   1      
326C  53010002           [54] getupval   5   4      
3270  4381C202           [55] add        5   5   266  ; 0
fail op	8
3274  48010002           [56] setupval   5   4      
3278  53010002           [57] getupval   5   4      
fail op	21
327C  1500C302           [58] concat     0   5   268
3280  1A800180           [59] jmp        7            ; to [67]
3284  5D810000           [60] getglobal  5   2        ; 538022378
3288  93010002           [61] getupval   6   4      
328C  84818186           [62] mul        6   269 6    ; 0
3290  62410001           [63] call       5   2   1  
3294  1AC0EF7F           [64] jmp        -64          ; to [1]
3298  1A000080           [65] jmp        1            ; to [67]
329C  1A40EF7F           [66] jmp        -66          ; to [1]
32A0  1E008000           [67] return     0   1      
                         * constants:
32A4  0E                 sizek (14)
32A5  01                 const type 3
32A6  65770E40           const [0]: (1074689893)
32AA  01                 const type 3
32AB  0344B180           const [1]: (-2135866365)
32AF  01                 const type 3
32B0  EA911120           const [2]: (538022378)
32B4  03                 const type 3
32B5  00000000           const [3]: (0)
32B9  04                 const type 4
32BA  12                 string size (18)
32BB  67506C6179657250+  "gPlayerP"
32C3  726F66696C654D67+  "rofileMg"
32CB  7200               "r\0"
                         const [4]: "gPlayerProfileMgr"
32CD  01                 const type 3
32CE  1A7BEF21           const [5]: (569342746)
32D2  01                 const type 3
32D3  92104F65           const [6]: (1699680402)
32D7  01                 const type 3
32D8  A5BAEE43           const [7]: (1139718821)
32DC  04                 const type 4
32DD  0E                 string size (14)
32DE  717565737450726F+  "questPro"
32E6  677265737300       "gress\0"
                         const [8]: "questProgress"
32EC  04                 const type 4
32ED  16                 string size (22)
32EE  5175657374436F6D+  "QuestCom"
32F6  706C65746543616C+  "pleteCal"
32FE  6C6261636B00       "lback\0"
                         const [9]: "QuestCompleteCallback"
3304  03                 const type 3
3305  0000803F           const [10]: (0)
3309  01                 const type 3
330A  104B37AC           const [11]: (-1405662448)
330E  03                 const type 3
330F  00004040           const [12]: (0)
3313  03                 const type 3
3314  0000A040           const [13]: (0)
                         * functions:
3318  00                 sizep (0)
                         * lines:
3319  43                 sizelineinfo (67)
                         [pc] (line)
331A  38                 [01] (56)
331B  02                 [02] (58)
331C  00                 [03] (58)
331D  00                 [04] (58)
331E  3A                 [05] (58)
331F  02                 [06] (58)
3320  00                 [07] (59)
3321  00                 [08] (59)
3322  3A                 [09] (59)
3323  02                 [10] (60)
3324  00                 [11] (60)
3325  00                 [12] (60)
3326  3A                 [13] (60)
3327  02                 [14] (63)
3328  00                 [15] (63)
3329  00                 [16] (63)
332A  3A                 [17] (65)
332B  02                 [18] (65)
332C  00                 [19] (65)
332D  00                 [20] (65)
332E  3A                 [21] (66)
332F  02                 [22] (66)
3330  00                 [23] (66)
3331  00                 [24] (66)
3332  3B                 [25] (66)
3333  02                 [26] (67)
3334  00                 [27] (67)
3335  00                 [28] (68)
3336  3B                 [29] (68)
3337  02                 [30] (68)
3338  00                 [31] (68)
3339  00                 [32] (68)
333A  3B                 [33] (69)
333B  02                 [34] (69)
333C  00                 [35] (69)
333D  00                 [36] (69)
333E  3C                 [37] (74)
333F  02                 [38] (74)
3340  00                 [39] (74)
3341  00                 [40] (75)
3342  3C                 [41] (75)
3343  02                 [42] (75)
3344  00                 [43] (75)
3345  00                 [44] (78)
3346  3C                 [45] (78)
3347  02                 [46] (78)
3348  00                 [47] (79)
3349  00                 [48] (79)
334A  3C                 [49] (79)
334B  02                 [50] (80)
334C  00                 [51] (80)
334D  00                 [52] (82)
334E  3F                 [53] (82)
334F  02                 [54] (83)
3350  00                 [55] (83)
3351  00                 [56] (83)
3352  3F                 [57] (84)
3353  02                 [58] (84)
3354  00                 [59] (84)
3355  00                 [60] (85)
3356  3F                 [61] (85)
3357  02                 [62] (85)
3358  00                 [63] (85)
3359  00                 [64] (85)
335A  41                 [65] (87)
335B  02                 [66] (89)
335C  00                 [67] (91)
                         * locals:
3426  00                 sizelocvars (0)
                         * upvalues:
3427  00                 sizeupvalues (0)
                         ** end of function **

                         
3428                     ** function [22] definition (level 2)
                         ** start of function **
3428  00                 string size (0)
                         source name: (none)
342A  04                 line defined (605)
342B  F6                 last line defined (630)
342C  04                 nups (4)
342D  04                 numparams (2)
342E  02                 is_vararg (0)
342F  00                 maxstacksize (13)
                         * code:
3431  3A                 sizecode (58)
3432  DD000000           [01] getglobal  3   0        ; 1074689893
3436  12010001           [02] move       4   2      
343A  E2800001           [03] call       3   2   2  
343E  D8000000           [04] test       3       0    ; to [6] if true
3442  1A800180           [05] jmp        7            ; to [13]
3446  E440C000           [06] self       3   1   257  ; -2135866365
344A  E2800001           [07] call       3   2   2  
344E  92008001           [08] move       2   3      
3452  DD800000           [09] getglobal  3   2        ; 538022378
3456  19C10000           [10] loadk      4   3        ; 0
345A  E2400001           [11] call       3   2   1  
345E  1AC0FC7F           [12] jmp        -12          ; to [1]
3462  D9000100           [13] loadk      3   4        ; 0
3466  1D410100           [14] getglobal  4   5        ; checkItemMultipleType
346A  0A010002           [15] len        4   4      
346E  59010100           [16] loadk      5   4        ; 0
3472  D0000180           [17] forprep    3   5        ; to [23]
3476  D3010000           [18] getupval   7   0      
347A  12020001           [19] move       8   2      
347E  5D420100           [20] getglobal  9   5        ; checkItemMultipleType
3482  4E828104           [21] gettable   9   9   6  
3486  E2418001           [22] call       7   3   1  
348A  D440FE7F           [23] forloop    3   -6       ; to [18] if loop
348E  DD810100           [24] getglobal  7   6        ; gPlayerProfileMgr
3492  E4C1C103           [25] self       7   7   263  ; 569342746
3496  59C20000           [26] loadk      9   3        ; 0
349A  E2818001           [27] call       7   3   2  
349E  1D020000           [28] getglobal  8   0        ; 1074689893
34A2  52028003           [29] move       9   7      
34A6  22820001           [30] call       8   2   2  
34AA  18420000           [31] test       8       1    ; to [33] if false
34AE  1A800280           [32] jmp        11           ; to [44]
34B2  2402C203           [33] self       8   7   264  ; 1699680402
34B6  22820001           [34] call       8   2   2  
34BA  5D020000           [35] getglobal  9   0        ; 1074689893
34BE  92020004           [36] move       10  8      
34C2  62820001           [37] call       9   2   2  
34C6  58420000           [38] test       9       1    ; to [40] if false
34CA  1AC00080           [39] jmp        4            ; to [44]
34CE  64424204           [40] self       9   8   265  ; 1139718821
34D2  DD820200           [41] getglobal  11  10       ; questProgress
34D6  19C30200           [42] loadk      12  11       ; "QuestCompleteCallback"
34DA  62420002           [43] call       9   4   1  
34DE  53028000           [44] getupval   9   1      
34E2  58420000           [45] test       9       1    ; to [47] if false
34E6  1AC00080           [46] jmp        4            ; to [51]
34EA  5D820000           [47] getglobal  9   2        ; 538022378
34EE  99020100           [48] loadk      10  4        ; 0
34F2  62420001           [49] call       9   2   1  
34F6  1A00FE7F           [50] jmp        -7           ; to [44]
34FA  53020001           [51] getupval   9   2      
34FE  92020000           [52] move       10  0      
3502  D2028000           [53] move       11  1      
3506  62428001           [54] call       9   3   1  
350A  53028001           [55] getupval   9   3      
350E  4E02C304           [56] gettable   9   9   268  ; -1405662448
3512  62428000           [57] call       9   1   1  
3516  1E008000           [58] return     0   1      
                         * constants:
351A  0D                 sizek (13)
351B  01                 const type 3
351C  65770E40           const [0]: (1074689893)
3520  01                 const type 3
3521  0344B180           const [1]: (-2135866365)
3525  01                 const type 3
3526  EA911120           const [2]: (538022378)
352A  03                 const type 3
352B  00000000           const [3]: (0)
352F  03                 const type 3
3530  0000803F           const [4]: (0)
3534  04                 const type 4
3535  16                 string size (22)
3536  636865636B497465+  "checkIte"
353E  6D4D756C7469706C+  "mMultipl"
3546  655479706500       "eType\0"
                         const [5]: "checkItemMultipleType"
354C  04                 const type 4
354D  12                 string size (18)
354E  67506C6179657250+  "gPlayerP"
3556  726F66696C654D67+  "rofileMg"
355E  7200               "r\0"
                         const [6]: "gPlayerProfileMgr"
3560  01                 const type 3
3561  1A7BEF21           const [7]: (569342746)
3565  01                 const type 3
3566  92104F65           const [8]: (1699680402)
356A  01                 const type 3
356B  A5BAEE43           const [9]: (1139718821)
356F  04                 const type 4
3570  0E                 string size (14)
3571  717565737450726F+  "questPro"
3579  677265737300       "gress\0"
                         const [10]: "questProgress"
357F  04                 const type 4
3580  16                 string size (22)
3581  5175657374436F6D+  "QuestCom"
3589  706C65746543616C+  "pleteCal"
3591  6C6261636B00       "lback\0"
                         const [11]: "QuestCompleteCallback"
3597  01                 const type 3
3598  104B37AC           const [12]: (-1405662448)
                         * functions:
359C  00                 sizep (0)
                         * lines:
359D  3A                 sizelineinfo (58)
                         [pc] (line)
359E  60                 [01] (96)
359F  02                 [02] (96)
35A0  00                 [03] (96)
35A1  00                 [04] (96)
35A2  60                 [05] (96)
35A3  02                 [06] (97)
35A4  00                 [07] (97)
35A5  00                 [08] (97)
35A6  60                 [09] (98)
35A7  02                 [10] (98)
35A8  00                 [11] (98)
35A9  00                 [12] (98)
35AA  60                 [13] (101)
35AB  02                 [14] (101)
35AC  00                 [15] (101)
35AD  00                 [16] (101)
35AE  60                 [17] (101)
35AF  02                 [18] (102)
35B0  00                 [19] (102)
35B1  00                 [20] (102)
35B2  61                 [21] (102)
35B3  02                 [22] (102)
35B4  00                 [23] (101)
35B5  00                 [24] (105)
35B6  61                 [25] (105)
35B7  02                 [26] (105)
35B8  00                 [27] (105)
35B9  00                 [28] (106)
35BA  61                 [29] (106)
35BB  02                 [30] (106)
35BC  00                 [31] (106)
35BD  00                 [32] (106)
35BE  62                 [33] (107)
35BF  02                 [34] (107)
35C0  00                 [35] (108)
35C1  00                 [36] (108)
35C2  62                 [37] (108)
35C3  02                 [38] (108)
35C4  00                 [39] (108)
35C5  00                 [40] (109)
35C6  62                 [41] (109)
35C7  02                 [42] (109)
35C8  00                 [43] (109)
35C9  00                 [44] (113)
35CA  62                 [45] (113)
35CB  02                 [46] (113)
35CC  00                 [47] (114)
35CD  00                 [48] (114)
35CE  65                 [49] (114)
35CF  02                 [50] (114)
35D0  00                 [51] (116)
35D1  00                 [52] (116)
35D2  65                 [53] (116)
35D3  02                 [54] (116)
35D4  00                 [55] (117)
35D5  00                 [56] (117)
35D6  65                 [57] (117)
35D7  02                 [58] (118)
                         * locals:
3686  00                 sizelocvars (0)
                         * upvalues:
3687  00                 sizeupvalues (0)
                         ** end of function **

                         
3688                     ** function [23] definition (level 2)
                         ** start of function **
3688  00                 string size (0)
                         source name: (none)
368A  04                 line defined (632)
368B  8E                 last line defined (654)
368C  05                 nups (3)
368D  03                 numparams (2)
368E  02                 is_vararg (0)
368F  00                 maxstacksize (13)
                         * code:
3691  3D                 sizecode (61)
3692  9D000000           [01] getglobal  2   0        ; 538022378
3696  DD400000           [02] getglobal  3   1        ; inboxDelay
369A  A2400001           [03] call       2   2   1  
369E  86000001           [04] loadnil    2   2      
36A2  DD800000           [05] getglobal  3   2        ; 1074689893
36A6  12010001           [06] move       4   2      
36AA  E2800001           [07] call       3   2   2  
36AE  D8000000           [08] test       3       0    ; to [10] if true
36B2  1A800180           [09] jmp        7            ; to [17]
36B6  E4C0C000           [10] self       3   1   259  ; -2135866365
36BA  E2800001           [11] call       3   2   2  
36BE  92008001           [12] move       2   3      
36C2  DD000000           [13] getglobal  3   0        ; 538022378
36C6  19010100           [14] loadk      4   4        ; 0
36CA  E2400001           [15] call       3   2   1  
36CE  1AC0FC7F           [16] jmp        -12          ; to [5]
36D2  DD400100           [17] getglobal  3   5        ; gPlayerProfileMgr
36D6  E480C101           [18] self       3   3   262  ; 569342746
36DA  59010100           [19] loadk      5   4        ; 0
36DE  E2808001           [20] call       3   3   2  
36E2  E4C0C101           [21] self       3   3   263  ; 1699680402
36E6  E2800001           [22] call       3   2   2  
36EA  2401C201           [23] self       4   3   264  ; -427484221
36EE  9D410200           [24] getglobal  6   9        ; inboxTitle
36F2  DD810200           [25] getglobal  7   10       ; inboxBody
36F6  1DC20200           [26] getglobal  8   11       ; sender
36FA  5D020300           [27] getglobal  9   12       ; senderIcon
36FE  9D420300           [28] getglobal  10  13       ; highPriority
3702  D9820300           [29] loadk      11  14       ; "InboxCb"
3706  1DC30300           [30] getglobal  12  15       ; inboxTransmission
370A  22418004           [31] call       4   9   1  
370E  13010000           [32] getupval   4   0      
3712  18410000           [33] test       4       1    ; to [35] if false
3716  1AC00080           [34] jmp        4            ; to [39]
371A  1D010000           [35] getglobal  4   0        ; 538022378
371E  59010400           [36] loadk      5   16       ; 0
3722  22410001           [37] call       4   2   1  
3726  1A00FE7F           [38] jmp        -7           ; to [32]
372A  1D810000           [39] getglobal  4   2        ; 1074689893
372E  52018001           [40] move       5   3      
3732  22810001           [41] call       4   2   2  
3736  18410000           [42] test       4       1    ; to [44] if false
373A  1A000480           [43] jmp        17           ; to [61]
373E  1D410400           [44] getglobal  4   17       ; questProgress
fail op	33
3742  21000182           [45] tforloop   0       4    ; to [47] if exit
3746  1A400380           [46] jmp        14           ; to [61]
374A  2481C401           [47] self       4   3   274  ; 1139718821
374E  9D410400           [48] getglobal  6   17       ; questProgress
3752  D9C10400           [49] loadk      7   19       ; "QuestCompleteCallback"
3756  22410002           [50] call       4   4   1  
375A  13018000           [51] getupval   4   1      
375E  18410000           [52] test       4       1    ; to [54] if false
3762  1AC00080           [53] jmp        4            ; to [58]
3766  1D010000           [54] getglobal  4   0        ; 538022378
376A  59010500           [55] loadk      5   20       ; 0
376E  22410001           [56] call       4   2   1  
3772  1A00FE7F           [57] jmp        -7           ; to [51]
3776  13010001           [58] getupval   4   2      
377A  0E414502           [59] gettable   4   4   277  ; -1405662448
377E  22418000           [60] call       4   1   1  
3782  1E008000           [61] return     0   1      
                         * constants:
3786  16                 sizek (22)
3787  01                 const type 3
3788  EA911120           const [0]: (538022378)
378C  04                 const type 4
378D  0B                 string size (11)
378E  696E626F7844656C+  "inboxDel"
3796  617900             "ay\0"
                         const [1]: "inboxDelay"
3799  01                 const type 3
379A  65770E40           const [2]: (1074689893)
379E  01                 const type 3
379F  0344B180           const [3]: (-2135866365)
37A3  03                 const type 3
37A4  00000000           const [4]: (0)
37A8  04                 const type 4
37A9  12                 string size (18)
37AA  67506C6179657250+  "gPlayerP"
37B2  726F66696C654D67+  "rofileMg"
37BA  7200               "r\0"
                         const [5]: "gPlayerProfileMgr"
37BC  01                 const type 3
37BD  1A7BEF21           const [6]: (569342746)
37C1  01                 const type 3
37C2  92104F65           const [7]: (1699680402)
37C6  01                 const type 3
37C7  C31B85E6           const [8]: (-427484221)
37CB  04                 const type 4
37CC  0B                 string size (11)
37CD  696E626F78546974+  "inboxTit"
37D5  6C6500             "le\0"
                         const [9]: "inboxTitle"
37D8  04                 const type 4
37D9  0A                 string size (10)
37DA  696E626F78426F64+  "inboxBod"
37E2  7900               "y\0"
                         const [10]: "inboxBody"
37E4  04                 const type 4
37E5  07                 string size (7)
37E6  73656E64657200     "sender\0"
                         const [11]: "sender"
37ED  04                 const type 4
37EE  0B                 string size (11)
37EF  73656E6465724963+  "senderIc"
37F7  6F6E00             "on\0"
                         const [12]: "senderIcon"
37FA  04                 const type 4
37FB  0D                 string size (13)
37FC  686967685072696F+  "highPrio"
3804  7269747900         "rity\0"
                         const [13]: "highPriority"
3809  04                 const type 4
380A  08                 string size (8)
380B  496E626F78436200   "InboxCb\0"
                         const [14]: "InboxCb"
3813  04                 const type 4
3814  12                 string size (18)
3815  696E626F78547261+  "inboxTra"
381D  6E736D697373696F+  "nsmissio"
3825  6E00               "n\0"
                         const [15]: "inboxTransmission"
3827  03                 const type 3
3828  0000803E           const [16]: (0)
382C  04                 const type 4
382D  0E                 string size (14)
382E  717565737450726F+  "questPro"
3836  677265737300       "gress\0"
                         const [17]: "questProgress"
383C  01                 const type 3
383D  A5BAEE43           const [18]: (1139718821)
3841  04                 const type 4
3842  16                 string size (22)
3843  5175657374436F6D+  "QuestCom"
384B  706C65746543616C+  "pleteCal"
3853  6C6261636B00       "lback\0"
                         const [19]: "QuestCompleteCallback"
3859  03                 const type 3
385A  0000803F           const [20]: (0)
385E  01                 const type 3
385F  104B37AC           const [21]: (-1405662448)
                         * functions:
3863  00                 sizep (0)
                         * lines:
3864  3D                 sizelineinfo (61)
                         [pc] (line)
3865  79                 [01] (121)
3866  02                 [02] (121)
3867  00                 [03] (121)
3868  00                 [04] (122)
3869  79                 [05] (124)
386A  02                 [06] (124)
386B  00                 [07] (124)
386C  00                 [08] (124)
386D  79                 [09] (124)
386E  02                 [10] (125)
386F  00                 [11] (125)
3870  00                 [12] (125)
3871  7A                 [13] (126)
3872  02                 [14] (126)
3873  00                 [15] (126)
3874  00                 [16] (126)
3875  7C                 [17] (-127)
3876  02                 [18] (-127)
3877  00                 [19] (-127)
3878  00                 [20] (-127)
3879  7C                 [21] (-127)
387A  02                 [22] (-127)
387B  00                 [23] (-126)
387C  00                 [24] (-126)
387D  7C                 [25] (-126)
387E  02                 [26] (-126)
387F  00                 [27] (-126)
3880  00                 [28] (-126)
3881  7C                 [29] (-126)
3882  02                 [30] (-126)
3883  00                 [31] (-126)
3884  00                 [32] (-125)
3885  7C                 [33] (-125)
3886  02                 [34] (-125)
3887  00                 [35] (-124)
3888  00                 [36] (-124)
3889  7D                 [37] (-124)
388A  02                 [38] (-124)
388B  00                 [39] (-122)
388C  00                 [40] (-122)
388D  7D                 [41] (-122)
388E  02                 [42] (-122)
388F  00                 [43] (-122)
3890  00                 [44] (-122)
3891  7D                 [45] (-122)
3892  02                 [46] (-122)
3893  00                 [47] (-121)
3894  00                 [48] (-121)
3895  7E                 [49] (-121)
3896  02                 [50] (-121)
3897  00                 [51] (-119)
3898  00                 [52] (-119)
3899  7E                 [53] (-119)
389A  02                 [54] (-118)
389B  00                 [55] (-118)
389C  00                 [56] (-118)
389D  7E                 [57] (-118)
389E  02                 [58] (-116)
389F  00                 [59] (-116)
38A0  00                 [60] (-116)
38A1  7E                 [61] (-114)
                         * locals:
3959  00                 sizelocvars (0)
                         * upvalues:
395A  00                 sizeupvalues (0)
                         ** end of function **

                         
395B                     ** function [24] definition (level 2)
                         ** start of function **
395B  00                 string size (0)
                         source name: (none)
395D  05                 line defined (656)
395E  A8                 last line defined (680)
395F  05                 nups (1)
3960  01                 numparams (2)
3961  02                 is_vararg (0)
3962  00                 maxstacksize (8)
                         * code:
3964  3A                 sizecode (58)
3965  9D000000           [01] getglobal  2   0        ; 738251817
3969  D9400000           [02] loadk      3   1        ; "/Lotus/Interface/Inbox.swf"
396D  A2800001           [03] call       2   2   2  
3971  DD800000           [04] getglobal  3   2        ; gFlashMgr
3975  E4C0C001           [05] self       3   3   259  ; 1634586770
3979  52010001           [06] move       5   2      
397D  E2808001           [07] call       3   3   2  
3981  1D010100           [08] getglobal  4   4        ; 1074689893
3985  52018001           [09] move       5   3      
3989  22810001           [10] call       4   2   2  
398D  18010000           [11] test       4       0    ; to [13] if true
3991  1A000280           [12] jmp        9            ; to [22]
3995  1D410100           [13] getglobal  4   5        ; 538022378
3999  59810100           [14] loadk      5   6        ; 0
399D  22410001           [15] call       4   2   1  
39A1  1D810000           [16] getglobal  4   2        ; gFlashMgr
39A5  24C14002           [17] self       4   4   259  ; 1634586770
39A9  92010001           [18] move       6   2      
39AD  22818001           [19] call       4   3   2  
39B1  D2000002           [20] move       3   4      
39B5  1A40FC7F           [21] jmp        -14          ; to [8]
39B9  1D010100           [22] getglobal  4   4        ; 1074689893
39BD  52018001           [23] move       5   3      
39C1  22810001           [24] call       4   2   2  
39C5  18410000           [25] test       4       1    ; to [27] if false
39C9  1A000280           [26] jmp        9            ; to [36]
39CD  1D410100           [27] getglobal  4   5        ; 538022378
39D1  59810100           [28] loadk      5   6        ; 0
39D5  22410001           [29] call       4   2   1  
39D9  1D810000           [30] getglobal  4   2        ; gFlashMgr
39DD  24C14002           [31] self       4   4   259  ; 1634586770
39E1  92010001           [32] move       6   2      
39E5  22818001           [33] call       4   3   2  
39E9  D2000002           [34] move       3   4      
39ED  1A40FC7F           [35] jmp        -14          ; to [22]
39F1  06010002           [36] loadnil    4   4      
39F5  5D010100           [37] getglobal  5   4        ; 1074689893
39F9  92010002           [38] move       6   4      
39FD  62810001           [39] call       5   2   2  
3A01  58010000           [40] test       5       0    ; to [42] if true
3A05  1A800180           [41] jmp        7            ; to [49]
3A09  64C1C100           [42] self       5   1   263  ; -2135866365
3A0D  62810001           [43] call       5   2   2  
3A11  12018002           [44] move       4   5      
3A15  5D410100           [45] getglobal  5   5        ; 538022378
3A19  99810100           [46] loadk      6   6        ; 0
3A1D  62410001           [47] call       5   2   1  
3A21  1AC0FC7F           [48] jmp        -12          ; to [37]
3A25  5D010100           [49] getglobal  5   4        ; 1074689893
3A29  9D010200           [50] getglobal  6   8        ; transmissions
3A2D  62810001           [51] call       5   2   2  
3A31  58410000           [52] test       5       1    ; to [54] if false
3A35  1AC00080           [53] jmp        4            ; to [58]
3A39  53010000           [54] getupval   5   0      
3A3D  92010002           [55] move       6   4      
3A41  DD010200           [56] getglobal  7   8        ; transmissions
3A45  62418001           [57] call       5   3   1  
3A49  1E008000           [58] return     0   1      
                         * constants:
3A4D  09                 sizek (9)
3A4E  01                 const type 3
3A4F  29D4002C           const [0]: (738251817)
3A53  04                 const type 4
3A54  1B                 string size (27)
3A55  2F4C6F7475732F49+  "/Lotus/I"
3A5D  6E74657266616365+  "nterface"
3A65  2F496E626F782E73+  "/Inbox.s"
3A6D  776600             "wf\0"
                         const [1]: "/Lotus/Interface/Inbox.swf"
3A70  04                 const type 4
3A71  0A                 string size (10)
3A72  67466C6173684D67+  "gFlashMg"
3A7A  7200               "r\0"
                         const [2]: "gFlashMgr"
3A7C  01                 const type 3
3A7D  92D06D61           const [3]: (1634586770)
3A81  01                 const type 3
3A82  65770E40           const [4]: (1074689893)
3A86  01                 const type 3
3A87  EA911120           const [5]: (538022378)
3A8B  03                 const type 3
3A8C  00000000           const [6]: (0)
3A90  01                 const type 3
3A91  0344B180           const [7]: (-2135866365)
3A95  04                 const type 4
3A96  0E                 string size (14)
3A97  7472616E736D6973+  "transmis"
3A9F  73696F6E7300       "sions\0"
                         const [8]: "transmissions"
                         * functions:
3AA5  00                 sizep (0)
                         * lines:
3AA6  3A                 sizelineinfo (58)
                         [pc] (line)
3AA7  91                 [01] (-111)
3AA8  02                 [02] (-111)
3AA9  00                 [03] (-111)
3AAA  00                 [04] (-110)
3AAB  91                 [05] (-110)
3AAC  02                 [06] (-110)
3AAD  00                 [07] (-110)
3AAE  00                 [08] (-109)
3AAF  91                 [09] (-109)
3AB0  02                 [10] (-109)
3AB1  00                 [11] (-109)
3AB2  00                 [12] (-109)
3AB3  92                 [13] (-108)
3AB4  02                 [14] (-108)
3AB5  00                 [15] (-108)
3AB6  00                 [16] (-107)
3AB7  92                 [17] (-107)
3AB8  02                 [18] (-107)
3AB9  00                 [19] (-107)
3ABA  00                 [20] (-107)
3ABB  92                 [21] (-107)
3ABC  02                 [22] (-104)
3ABD  00                 [23] (-104)
3ABE  00                 [24] (-104)
3ABF  92                 [25] (-104)
3AC0  02                 [26] (-104)
3AC1  00                 [27] (-103)
3AC2  00                 [28] (-103)
3AC3  93                 [29] (-103)
3AC4  02                 [30] (-102)
3AC5  00                 [31] (-102)
3AC6  00                 [32] (-102)
3AC7  93                 [33] (-102)
3AC8  02                 [34] (-102)
3AC9  00                 [35] (-102)
3ACA  00                 [36] (-99)
3ACB  93                 [37] (-97)
3ACC  02                 [38] (-97)
3ACD  00                 [39] (-97)
3ACE  00                 [40] (-97)
3ACF  93                 [41] (-97)
3AD0  02                 [42] (-96)
3AD1  00                 [43] (-96)
3AD2  00                 [44] (-96)
3AD3  93                 [45] (-95)
3AD4  02                 [46] (-95)
3AD5  00                 [47] (-95)
3AD6  00                 [48] (-95)
3AD7  94                 [49] (-92)
3AD8  02                 [50] (-92)
3AD9  00                 [51] (-92)
3ADA  00                 [52] (-92)
3ADB  94                 [53] (-92)
3ADC  02                 [54] (-91)
3ADD  00                 [55] (-91)
3ADE  00                 [56] (-91)
3ADF  94                 [57] (-91)
3AE0  02                 [58] (-88)
                         * locals:
3B8F  00                 sizelocvars (0)
                         * upvalues:
3B90  00                 sizeupvalues (0)
                         ** end of function **

                         
3B91                     ** function [25] definition (level 2)
                         ** start of function **
3B91  00                 string size (0)
                         source name: (none)
3B93  05                 line defined (683)
3B94  CC                 last line defined (716)
3B95  05                 nups (5)
3B96  05                 numparams (2)
3B97  02                 is_vararg (0)
3B98  00                 maxstacksize (11)
                         * code:
3B9A  4F                 sizecode (79)
3B9B  DD000000           [01] getglobal  3   0        ; 1074689893
3B9F  12010001           [02] move       4   2      
3BA3  E2800001           [03] call       3   2   2  
3BA7  D8000000           [04] test       3       0    ; to [6] if true
3BAB  1A800180           [05] jmp        7            ; to [13]
3BAF  E440C000           [06] self       3   1   257  ; -2135866365
3BB3  E2800001           [07] call       3   2   2  
3BB7  92008001           [08] move       2   3      
3BBB  DD800000           [09] getglobal  3   2        ; 538022378
3BBF  19C10000           [10] loadk      4   3        ; 0
3BC3  E2400001           [11] call       3   2   1  
3BC7  1AC0FC7F           [12] jmp        -12          ; to [1]
3BCB  DD000100           [13] getglobal  3   4        ; gPlayerProfileMgr
3BCF  E440C101           [14] self       3   3   261  ; 569342746
3BD3  59C10000           [15] loadk      5   3        ; 0
3BD7  E2808001           [16] call       3   3   2  
3BDB  2481C101           [17] self       4   3   262  ; 1699680402
3BDF  22810001           [18] call       4   2   2  
3BE3  53010000           [19] getupval   5   0      
3BE7  92010001           [20] move       6   2      
3BEB  DDC10100           [21] getglobal  7   7        ; checkItemType
3BEF  62818001           [22] call       5   3   2  
3BF3  58010000           [23] test       5       0    ; to [25] if true
3BF7  1A000680           [24] jmp        25           ; to [50]
3BFB  9D010000           [25] getglobal  6   0        ; 1074689893
3BFF  D2018001           [26] move       7   3      
3C03  A2810001           [27] call       6   2   2  
3C07  98410000           [28] test       6       1    ; to [30] if false
3C0B  1A000280           [29] jmp        9            ; to [39]
3C0F  9D010000           [30] getglobal  6   0        ; 1074689893
3C13  D2010002           [31] move       7   4      
3C17  A2810001           [32] call       6   2   2  
3C1B  98410000           [33] test       6       1    ; to [35] if false
3C1F  1AC00080           [34] jmp        4            ; to [39]
3C23  A4014202           [35] self       6   4   264  ; 1139718821
3C27  1D420200           [36] getglobal  8   9        ; questProgress
3C2B  59820200           [37] loadk      9   10       ; "QuestCompleteCallback"
3C2F  A2410002           [38] call       6   4   1  
3C33  93018000           [39] getupval   6   1      
3C37  98410000           [40] test       6       1    ; to [42] if false
3C3B  1AC00080           [41] jmp        4            ; to [46]
3C3F  9D810000           [42] getglobal  6   2        ; 538022378
3C43  D9C10200           [43] loadk      7   11       ; 0
3C47  A2410001           [44] call       6   2   1  
3C4B  1A00FE7F           [45] jmp        -7           ; to [39]
3C4F  93010001           [46] getupval   6   2      
3C53  8E014303           [47] gettable   6   6   268  ; -1405662448
3C57  A2418000           [48] call       6   1   1  
3C5B  1A000780           [49] jmp        29           ; to [79]
3C5F  9D010000           [50] getglobal  6   0        ; 1074689893
3C63  D2010002           [51] move       7   4      
3C67  A2810001           [52] call       6   2   2  
3C6B  98410000           [53] test       6       1    ; to [55] if false
3C6F  1A000180           [54] jmp        5            ; to [60]
3C73  A4414302           [55] self       6   4   269  ; 1562059033
3C77  1D820300           [56] getglobal  8   14       ; key
3C7B  5DC20300           [57] getglobal  9   15       ; resetQuestStep
3C7F  99020400           [58] loadk      10  16       ; "OnQuestsReset"
3C83  A2418002           [59] call       6   5   1  
3C87  93018001           [60] getupval   6   3      
3C8B  98410000           [61] test       6       1    ; to [63] if false
3C8F  1AC00080           [62] jmp        4            ; to [67]
3C93  9D810000           [63] getglobal  6   2        ; 538022378
3C97  D9C10200           [64] loadk      7   11       ; 0
3C9B  A2410001           [65] call       6   2   1  
3C9F  1A00FE7F           [66] jmp        -7           ; to [60]
3CA3  9D010000           [67] getglobal  6   0        ; 1074689893
3CA7  DD410400           [68] getglobal  7   17       ; transmissions
3CAB  A2810001           [69] call       6   2   2  
3CAF  98410000           [70] test       6       1    ; to [72] if false
3CB3  1AC00080           [71] jmp        4            ; to [76]
3CB7  93010002           [72] getupval   6   4      
3CBB  D2010001           [73] move       7   2      
3CBF  1D420400           [74] getglobal  8   17       ; transmissions
3CC3  A2418001           [75] call       6   3   1  
3CC7  93010001           [76] getupval   6   2      
3CCB  8E014303           [77] gettable   6   6   268  ; -1405662448
3CCF  A2418000           [78] call       6   1   1  
3CD3  1E008000           [79] return     0   1      
                         * constants:
3CD7  12                 sizek (18)
3CD8  01                 const type 3
3CD9  65770E40           const [0]: (1074689893)
3CDD  01                 const type 3
3CDE  0344B180           const [1]: (-2135866365)
3CE2  01                 const type 3
3CE3  EA911120           const [2]: (538022378)
3CE7  03                 const type 3
3CE8  00000000           const [3]: (0)
3CEC  04                 const type 4
3CED  12                 string size (18)
3CEE  67506C6179657250+  "gPlayerP"
3CF6  726F66696C654D67+  "rofileMg"
3CFE  7200               "r\0"
                         const [4]: "gPlayerProfileMgr"
3D00  01                 const type 3
3D01  1A7BEF21           const [5]: (569342746)
3D05  01                 const type 3
3D06  92104F65           const [6]: (1699680402)
3D0A  04                 const type 4
3D0B  0E                 string size (14)
3D0C  636865636B497465+  "checkIte"
3D14  6D5479706500       "mType\0"
                         const [7]: "checkItemType"
3D1A  01                 const type 3
3D1B  A5BAEE43           const [8]: (1139718821)
3D1F  04                 const type 4
3D20  0E                 string size (14)
3D21  717565737450726F+  "questPro"
3D29  677265737300       "gress\0"
                         const [9]: "questProgress"
3D2F  04                 const type 4
3D30  16                 string size (22)
3D31  5175657374436F6D+  "QuestCom"
3D39  706C65746543616C+  "pleteCal"
3D41  6C6261636B00       "lback\0"
                         const [10]: "QuestCompleteCallback"
3D47  03                 const type 3
3D48  0000803E           const [11]: (0)
3D4C  01                 const type 3
3D4D  104B37AC           const [12]: (-1405662448)
3D51  01                 const type 3
3D52  19211B5D           const [13]: (1562059033)
3D56  04                 const type 4
3D57  04                 string size (4)
3D58  6B657900           "key\0"
                         const [14]: "key"
3D5C  04                 const type 4
3D5D  0F                 string size (15)
3D5E  7265736574517565+  "resetQue"
3D66  73745374657000     "stStep\0"
                         const [15]: "resetQuestStep"
3D6D  04                 const type 4
3D6E  0E                 string size (14)
3D6F  4F6E517565737473+  "OnQuests"
3D77  526573657400       "Reset\0"
                         const [16]: "OnQuestsReset"
3D7D  04                 const type 4
3D7E  0E                 string size (14)
3D7F  7472616E736D6973+  "transmis"
3D87  73696F6E7300       "sions\0"
                         const [17]: "transmissions"
                         * functions:
3D8D  00                 sizep (0)
                         * lines:
3D8E  4F                 sizelineinfo (79)
                         [pc] (line)
3D8F  AE                 [01] (-82)
3D90  02                 [02] (-82)
3D91  00                 [03] (-82)
3D92  00                 [04] (-82)
3D93  AE                 [05] (-82)
3D94  02                 [06] (-81)
3D95  00                 [07] (-81)
3D96  00                 [08] (-81)
3D97  AE                 [09] (-80)
3D98  02                 [10] (-80)
3D99  00                 [11] (-80)
3D9A  00                 [12] (-80)
3D9B  AE                 [13] (-78)
3D9C  02                 [14] (-78)
3D9D  00                 [15] (-78)
3D9E  00                 [16] (-78)
3D9F  AE                 [17] (-77)
3DA0  02                 [18] (-77)
3DA1  00                 [19] (-76)
3DA2  00                 [20] (-76)
3DA3  AF                 [21] (-76)
3DA4  02                 [22] (-76)
3DA5  00                 [23] (-74)
3DA6  00                 [24] (-74)
3DA7  AF                 [25] (-73)
3DA8  02                 [26] (-73)
3DA9  00                 [27] (-73)
3DAA  00                 [28] (-73)
3DAB  AF                 [29] (-73)
3DAC  02                 [30] (-72)
3DAD  00                 [31] (-72)
3DAE  00                 [32] (-72)
3DAF  B0                 [33] (-72)
3DB0  02                 [34] (-72)
3DB1  00                 [35] (-71)
3DB2  00                 [36] (-71)
3DB3  B0                 [37] (-71)
3DB4  02                 [38] (-71)
3DB5  00                 [39] (-68)
3DB6  00                 [40] (-68)
3DB7  B0                 [41] (-68)
3DB8  02                 [42] (-67)
3DB9  00                 [43] (-67)
3DBA  00                 [44] (-67)
3DBB  B0                 [45] (-67)
3DBC  02                 [46] (-65)
3DBD  00                 [47] (-65)
3DBE  00                 [48] (-65)
3DBF  B2                 [49] (-65)
3DC0  02                 [50] (-63)
3DC1  00                 [51] (-63)
3DC2  00                 [52] (-63)
3DC3  B2                 [53] (-63)
3DC4  02                 [54] (-63)
3DC5  00                 [55] (-62)
3DC6  00                 [56] (-62)
3DC7  B2                 [57] (-62)
3DC8  02                 [58] (-62)
3DC9  00                 [59] (-62)
3DCA  00                 [60] (-60)
3DCB  B2                 [61] (-60)
3DCC  02                 [62] (-60)
3DCD  00                 [63] (-59)
3DCE  00                 [64] (-59)
3DCF  B3                 [65] (-59)
3DD0  02                 [66] (-59)
3DD1  00                 [67] (-57)
3DD2  00                 [68] (-57)
3DD3  B3                 [69] (-57)
3DD4  02                 [70] (-57)
3DD5  00                 [71] (-57)
3DD6  00                 [72] (-56)
3DD7  B4                 [73] (-56)
3DD8  02                 [74] (-56)
3DD9  00                 [75] (-56)
3DDA  00                 [76] (-54)
3DDB  B4                 [77] (-54)
3DDC  02                 [78] (-54)
3DDD  00                 [79] (-52)
                         * locals:
3ECB  00                 sizelocvars (0)
                         * upvalues:
3ECC  00                 sizeupvalues (0)
                         ** end of function **

                         
3ECD                     ** function [26] definition (level 2)
                         ** start of function **
3ECD  00                 string size (0)
                         source name: (none)
3ECF  05                 line defined (718)
3ED0  F1                 last line defined (753)
3ED1  05                 nups (3)
3ED2  03                 numparams (2)
3ED3  02                 is_vararg (0)
3ED4  00                 maxstacksize (15)
                         * code:
3ED6  49                 sizecode (73)
3ED7  DD000000           [01] getglobal  3   0        ; 1074689893
3EDB  12010001           [02] move       4   2      
3EDF  E2800001           [03] call       3   2   2  
3EE3  D8000000           [04] test       3       0    ; to [6] if true
3EE7  1A800180           [05] jmp        7            ; to [13]
3EEB  E440C000           [06] self       3   1   257  ; -2135866365
3EEF  E2800001           [07] call       3   2   2  
3EF3  92008001           [08] move       2   3      
3EF7  DD800000           [09] getglobal  3   2        ; 538022378
3EFB  19C10000           [10] loadk      4   3        ; 0
3EFF  E2400001           [11] call       3   2   1  
3F03  1AC0FC7F           [12] jmp        -12          ; to [1]
3F07  DD000000           [13] getglobal  3   0        ; 1074689893
3F0B  12010001           [14] move       4   2      
3F0F  E2800001           [15] call       3   2   2  
3F13  D8400000           [16] test       3       1    ; to [18] if false
3F17  1A800D80           [17] jmp        55           ; to [73]
3F1B  DD000100           [18] getglobal  3   4        ; gPlayerProfileMgr
3F1F  E440C101           [19] self       3   3   261  ; 569342746
3F23  59C10000           [20] loadk      5   3        ; 0
3F27  E2808001           [21] call       3   3   2  
3F2B  2481C101           [22] self       4   3   262  ; 1699680402
3F2F  22810001           [23] call       4   2   2  
3F33  53010000           [24] getupval   5   0      
3F37  92010001           [25] move       6   2      
3F3B  DDC10100           [26] getglobal  7   7        ; checkItemType
3F3F  62818001           [27] call       5   3   2  
3F43  93018000           [28] getupval   6   1      
3F47  8E014203           [29] gettable   6   6   264  ; 1388869707
3F4B  D2010002           [30] move       7   4      
3F4F  A2010101           [31] call       6   2   4  
3F53  4D42C203           [32] sub        9   7   265  ; 0
3F57  97020000           [33] loadbool   10  0   0    ; false
3F5B  DD820200           [34] getglobal  11  10       ; bypassItemGateOnQuestReplay
3F5F  D8020000           [35] test       11      0    ; to [37] if true
3F63  1A800080           [36] jmp        3            ; to [40]
fail op	21
3F67  15008281           [37] concat     0   259 8  
3F6B  1A000080           [38] jmp        1            ; to [40]
3F6F  97028000           [39] loadbool   10  1   0    ; true
3F73  58410000           [40] test       5       1    ; to [42] if false
3F77  1A400080           [41] jmp        2            ; to [44]
3F7B  98020000           [42] test       10      0    ; to [44] if true
3F7F  1A000680           [43] jmp        25           ; to [69]
3F83  DD020000           [44] getglobal  11  0        ; 1074689893
3F87  12038001           [45] move       12  3      
3F8B  E2820001           [46] call       11  2   2  
3F8F  D8420000           [47] test       11      1    ; to [49] if false
3F93  1A000280           [48] jmp        9            ; to [58]
3F97  DD020000           [49] getglobal  11  0        ; 1074689893
3F9B  12030002           [50] move       12  4      
3F9F  E2820001           [51] call       11  2   2  
3FA3  D8420000           [52] test       11      1    ; to [54] if false
3FA7  1AC00080           [53] jmp        4            ; to [58]
3FAB  E4C24202           [54] self       11  4   267  ; 1139718821
3FAF  52038004           [55] move       13  9      
3FB3  99030300           [56] loadk      14  12       ; "QuestCompleteCallback"
3FB7  E2420002           [57] call       11  4   1  
3FBB  D3020001           [58] getupval   11  2      
3FBF  D8420000           [59] test       11      1    ; to [61] if false
3FC3  1AC00080           [60] jmp        4            ; to [65]
3FC7  DD820000           [61] getglobal  11  2        ; 538022378
3FCB  19430300           [62] loadk      12  13       ; 0
3FCF  E2420001           [63] call       11  2   1  
3FD3  1A00FE7F           [64] jmp        -7           ; to [58]
3FD7  D3028000           [65] getupval   11  1      
3FDB  CE82C305           [66] gettable   11  11  270  ; -1405662448
3FDF  E2428000           [67] call       11  1   1  
3FE3  1E008000           [68] return     0   1      
3FE7  DD820000           [69] getglobal  11  2        ; 538022378
3FEB  19C30300           [70] loadk      12  15       ; 0
3FEF  E2420001           [71] call       11  2   1  
3FF3  1AC0F07F           [72] jmp        -60          ; to [13]
3FF7  1E008000           [73] return     0   1      
                         * constants:
3FFB  10                 sizek (16)
3FFC  01                 const type 3
3FFD  65770E40           const [0]: (1074689893)
4001  01                 const type 3
4002  0344B180           const [1]: (-2135866365)
4006  01                 const type 3
4007  EA911120           const [2]: (538022378)
400B  03                 const type 3
400C  00000000           const [3]: (0)
4010  04                 const type 4
4011  12                 string size (18)
4012  67506C6179657250+  "gPlayerP"
401A  726F66696C654D67+  "rofileMg"
4022  7200               "r\0"
                         const [4]: "gPlayerProfileMgr"
4024  01                 const type 3
4025  1A7BEF21           const [5]: (569342746)
4029  01                 const type 3
402A  92104F65           const [6]: (1699680402)
402E  04                 const type 4
402F  0E                 string size (14)
4030  636865636B497465+  "checkIte"
4038  6D5479706500       "mType\0"
                         const [7]: "checkItemType"
403E  01                 const type 3
403F  4B78C852           const [8]: (1388869707)
4043  03                 const type 3
4044  0000803F           const [9]: (0)
4048  04                 const type 4
4049  1C                 string size (28)
404A  6279706173734974+  "bypassIt"
4052  656D476174654F6E+  "emGateOn"
405A  5175657374526570+  "QuestRep"
4062  6C617900           "lay\0"
                         const [10]: "bypassItemGateOnQuestReplay"
4066  01                 const type 3
4067  A5BAEE43           const [11]: (1139718821)
406B  04                 const type 4
406C  16                 string size (22)
406D  5175657374436F6D+  "QuestCom"
4075  706C65746543616C+  "pleteCal"
407D  6C6261636B00       "lback\0"
                         const [12]: "QuestCompleteCallback"
4083  03                 const type 3
4084  0000803E           const [13]: (0)
4088  01                 const type 3
4089  104B37AC           const [14]: (-1405662448)
408D  03                 const type 3
408E  00000040           const [15]: (0)
                         * functions:
4092  00                 sizep (0)
                         * lines:
4093  49                 sizelineinfo (73)
                         [pc] (line)
4094  D1                 [01] (-47)
4095  02                 [02] (-47)
4096  00                 [03] (-47)
4097  00                 [04] (-47)
4098  D1                 [05] (-47)
4099  02                 [06] (-46)
409A  00                 [07] (-46)
409B  00                 [08] (-46)
409C  D1                 [09] (-45)
409D  02                 [10] (-45)
409E  00                 [11] (-45)
409F  00                 [12] (-45)
40A0  D1                 [13] (-42)
40A1  02                 [14] (-42)
40A2  00                 [15] (-42)
40A3  00                 [16] (-42)
40A4  D1                 [17] (-42)
40A5  02                 [18] (-41)
40A6  00                 [19] (-41)
40A7  00                 [20] (-41)
40A8  D2                 [21] (-41)
40A9  02                 [22] (-40)
40AA  00                 [23] (-40)
40AB  00                 [24] (-39)
40AC  D2                 [25] (-39)
40AD  02                 [26] (-39)
40AE  00                 [27] (-39)
40AF  00                 [28] (-37)
40B0  D2                 [29] (-37)
40B1  02                 [30] (-37)
40B2  00                 [31] (-37)
40B3  00                 [32] (-36)
40B4  D3                 [33] (-34)
40B5  02                 [34] (-33)
40B6  00                 [35] (-33)
40B7  00                 [36] (-33)
40B8  D3                 [37] (-33)
40B9  02                 [38] (-33)
40BA  00                 [39] (-32)
40BB  00                 [40] (-29)
40BC  D3                 [41] (-29)
40BD  02                 [42] (-29)
40BE  00                 [43] (-29)
40BF  00                 [44] (-28)
40C0  D3                 [45] (-28)
40C1  02                 [46] (-28)
40C2  00                 [47] (-28)
40C3  00                 [48] (-28)
40C4  D6                 [49] (-27)
40C5  02                 [50] (-27)
40C6  00                 [51] (-27)
40C7  00                 [52] (-27)
40C8  D6                 [53] (-27)
40C9  02                 [54] (-26)
40CA  00                 [55] (-26)
40CB  00                 [56] (-26)
40CC  D6                 [57] (-26)
40CD  02                 [58] (-23)
40CE  00                 [59] (-23)
40CF  00                 [60] (-23)
40D0  D6                 [61] (-22)
40D1  02                 [62] (-22)
40D2  00                 [63] (-22)
40D3  00                 [64] (-22)
40D4  D6                 [65] (-20)
40D5  02                 [66] (-20)
40D6  00                 [67] (-20)
40D7  00                 [68] (-19)
40D8  D7                 [69] (-17)
40D9  02                 [70] (-17)
40DA  00                 [71] (-17)
40DB  00                 [72] (-17)
40DC  D7                 [73] (-15)
                         * locals:
41B8  00                 sizelocvars (0)
                         * upvalues:
41B9  00                 sizeupvalues (0)
                         ** end of function **

                         
41BA                     ** function [27] definition (level 2)
                         ** start of function **
41BA  00                 string size (0)
                         source name: (none)
41BC  05                 line defined (755)
41BD  A8                 last line defined (808)
41BE  06                 nups (3)
41BF  03                 numparams (2)
41C0  02                 is_vararg (0)
41C1  00                 maxstacksize (24)
                         * code:
41C3  69                 sizecode (105)
41C4  DD000000           [001] getglobal  3   0        ; 1074689893
41C8  12010001           [002] move       4   2      
41CC  E2800001           [003] call       3   2   2  
41D0  D8000000           [004] test       3       0    ; to [6] if true
41D4  1A800180           [005] jmp        7            ; to [13]
41D8  E440C000           [006] self       3   1   257  ; -2135866365
41DC  E2800001           [007] call       3   2   2  
41E0  92008001           [008] move       2   3      
41E4  DD800000           [009] getglobal  3   2        ; 538022378
41E8  19C10000           [010] loadk      4   3        ; 0
41EC  E2400001           [011] call       3   2   1  
41F0  1AC0FC7F           [012] jmp        -12          ; to [1]
41F4  DD000000           [013] getglobal  3   0        ; 1074689893
41F8  12010001           [014] move       4   2      
41FC  E2800001           [015] call       3   2   2  
4200  D8400000           [016] test       3       1    ; to [18] if false
4204  1A801580           [017] jmp        87           ; to [105]
4208  DD000100           [018] getglobal  3   4        ; gPlayerProfileMgr
420C  E440C101           [019] self       3   3   261  ; 569342746
4210  59C10000           [020] loadk      5   3        ; 0
4214  E2808001           [021] call       3   3   2  
4218  2481C101           [022] self       4   3   262  ; 1699680402
421C  22810001           [023] call       4   2   2  
4220  57010000           [024] loadbool   5   0   0    ; false
4224  9DC10100           [025] getglobal  6   7        ; requireAllItems
4228  98010000           [026] test       6       0    ; to [28] if true
422C  1A000480           [027] jmp        17           ; to [45]
4230  57018000           [028] loadbool   5   1   0    ; true
4234  99010200           [029] loadk      6   8        ; 0
4238  DD410200           [030] getglobal  7   9        ; checkItemMultipleType
423C  CA018003           [031] len        7   7      
4240  19020200           [032] loadk      8   8        ; 0
4244  90010280           [033] forprep    6   9        ; to [43]
4248  93020000           [034] getupval   10  0      
424C  D2020001           [035] move       11  2      
4250  1D430200           [036] getglobal  12  9        ; checkItemMultipleType
4254  0E430206           [037] gettable   12  12  9  
4258  A2828001           [038] call       10  3   2  
425C  98420000           [039] test       10      1    ; to [41] if false
4260  1A400080           [040] jmp        2            ; to [43]
4264  57010000           [041] loadbool   5   0   0    ; false
4268  1A000480           [042] jmp        17           ; to [60]
426C  9441FD7F           [043] forloop    6   -10      ; to [34] if loop
4270  1A800380           [044] jmp        15           ; to [60]
4274  D9020200           [045] loadk      11  8        ; 0
4278  1D430200           [046] getglobal  12  9        ; checkItemMultipleType
427C  0A030006           [047] len        12  12     
4280  59030200           [048] loadk      13  8        ; 0
4284  D0020280           [049] forprep    11  9        ; to [59]
4288  D3030000           [050] getupval   15  0      
428C  12040001           [051] move       16  2      
4290  5D440200           [052] getglobal  17  9        ; checkItemMultipleType
4294  4E848308           [053] gettable   17  17  14 
4298  E2838001           [054] call       15  3   2  
429C  52018007           [055] move       5   15     
42A0  58010000           [056] test       5       0    ; to [58] if true
42A4  1A000080           [057] jmp        1            ; to [59]
42A8  1A000080           [058] jmp        1            ; to [60]
42AC  D442FD7F           [059] forloop    11  -10      ; to [50] if loop
42B0  D3038000           [060] getupval   15  1      
42B4  CE83C207           [061] gettable   15  15  266  ; 1388869707
42B8  12040002           [062] move       16  4      
42BC  E2030101           [063] call       15  2   4  
42C0  8D044208           [064] sub        18  16  264  ; 0
42C4  D7040000           [065] loadbool   19  0   0    ; false
42C8  1DC50200           [066] getglobal  20  11       ; bypassItemGateOnQuestReplay
42CC  18050000           [067] test       20      0    ; to [69] if true
42D0  1A800080           [068] jmp        3            ; to [72]
fail op	21
42D4  15408481           [069] concat     0   259 17 
42D8  1A000080           [070] jmp        1            ; to [72]
42DC  D7048000           [071] loadbool   19  1   0    ; true
42E0  58410000           [072] test       5       1    ; to [74] if false
42E4  1A400080           [073] jmp        2            ; to [76]
42E8  D8040000           [074] test       19      0    ; to [76] if true
42EC  1A000680           [075] jmp        25           ; to [101]
42F0  1D050000           [076] getglobal  20  0        ; 1074689893
42F4  52058001           [077] move       21  3      
42F8  22850001           [078] call       20  2   2  
42FC  18450000           [079] test       20      1    ; to [81] if false
4300  1A000280           [080] jmp        9            ; to [90]
4304  1D050000           [081] getglobal  20  0        ; 1074689893
4308  52050002           [082] move       21  4      
430C  22850001           [083] call       20  2   2  
4310  18450000           [084] test       20      1    ; to [86] if false
4314  1AC00080           [085] jmp        4            ; to [90]
4318  24054302           [086] self       20  4   268  ; 1139718821
431C  92050009           [087] move       22  18     
4320  D9450300           [088] loadk      23  13       ; "QuestCompleteCallback"
4324  22450002           [089] call       20  4   1  
4328  13050001           [090] getupval   20  2      
432C  18450000           [091] test       20      1    ; to [93] if false
4330  1AC00080           [092] jmp        4            ; to [97]
4334  1D850000           [093] getglobal  20  2        ; 538022378
4338  59850300           [094] loadk      21  14       ; 0
433C  22450001           [095] call       20  2   1  
4340  1A00FE7F           [096] jmp        -7           ; to [90]
4344  13058000           [097] getupval   20  1      
4348  0EC5430A           [098] gettable   20  20  271  ; -1405662448
434C  22458000           [099] call       20  1   1  
4350  1E008000           [100] return     0   1      
4354  1D850000           [101] getglobal  20  2        ; 538022378
4358  59050400           [102] loadk      21  16       ; 0
435C  22450001           [103] call       20  2   1  
4360  1AC0E87F           [104] jmp        -92          ; to [13]
4364  1E008000           [105] return     0   1      
                         * constants:
4368  11                 sizek (17)
4369  01                 const type 3
436A  65770E40           const [0]: (1074689893)
436E  01                 const type 3
436F  0344B180           const [1]: (-2135866365)
4373  01                 const type 3
4374  EA911120           const [2]: (538022378)
4378  03                 const type 3
4379  00000000           const [3]: (0)
437D  04                 const type 4
437E  12                 string size (18)
437F  67506C6179657250+  "gPlayerP"
4387  726F66696C654D67+  "rofileMg"
438F  7200               "r\0"
                         const [4]: "gPlayerProfileMgr"
4391  01                 const type 3
4392  1A7BEF21           const [5]: (569342746)
4396  01                 const type 3
4397  92104F65           const [6]: (1699680402)
439B  04                 const type 4
439C  10                 string size (16)
439D  7265717569726541+  "requireA"
43A5  6C6C4974656D7300   "llItems\0"
                         const [7]: "requireAllItems"
43AD  03                 const type 3
43AE  0000803F           const [8]: (0)
43B2  04                 const type 4
43B3  16                 string size (22)
43B4  636865636B497465+  "checkIte"
43BC  6D4D756C7469706C+  "mMultipl"
43C4  655479706500       "eType\0"
                         const [9]: "checkItemMultipleType"
43CA  01                 const type 3
43CB  4B78C852           const [10]: (1388869707)
43CF  04                 const type 4
43D0  1C                 string size (28)
43D1  6279706173734974+  "bypassIt"
43D9  656D476174654F6E+  "emGateOn"
43E1  5175657374526570+  "QuestRep"
43E9  6C617900           "lay\0"
                         const [11]: "bypassItemGateOnQuestReplay"
43ED  01                 const type 3
43EE  A5BAEE43           const [12]: (1139718821)
43F2  04                 const type 4
43F3  16                 string size (22)
43F4  5175657374436F6D+  "QuestCom"
43FC  706C65746543616C+  "pleteCal"
4404  6C6261636B00       "lback\0"
                         const [13]: "QuestCompleteCallback"
440A  03                 const type 3
440B  0000803E           const [14]: (0)
440F  01                 const type 3
4410  104B37AC           const [15]: (-1405662448)
4414  03                 const type 3
4415  00000040           const [16]: (0)
                         * functions:
4419  00                 sizep (0)
                         * lines:
441A  69                 sizelineinfo (105)
                         [pc] (line)
441B  F6                 [001] (-10)
441C  02                 [002] (-10)
441D  00                 [003] (-10)
441E  00                 [004] (-10)
441F  F6                 [005] (-10)
4420  02                 [006] (-9)
4421  00                 [007] (-9)
4422  00                 [008] (-9)
4423  F6                 [009] (-8)
4424  02                 [010] (-8)
4425  00                 [011] (-8)
4426  00                 [012] (-8)
4427  F6                 [013] (-5)
4428  02                 [014] (-5)
4429  00                 [015] (-5)
442A  00                 [016] (-5)
442B  F6                 [017] (-5)
442C  02                 [018] (-4)
442D  00                 [019] (-4)
442E  00                 [020] (-4)
442F  F7                 [021] (-4)
4430  02                 [022] (-3)
4431  00                 [023] (-3)
4432  00                 [024] (-1)
4433  F7                 [025] (0)
4434  02                 [026] (0)
4435  00                 [027] (0)
4436  00                 [028] (1)
4437  F7                 [029] (2)
4438  02                 [030] (2)
4439  00                 [031] (2)
443A  00                 [032] (2)
443B  F8                 [033] (2)
443C  02                 [034] (3)
443D  00                 [035] (3)
443E  00                 [036] (3)
443F  F8                 [037] (3)
4440  02                 [038] (3)
4441  00                 [039] (4)
4442  00                 [040] (4)
4443  F8                 [041] (5)
4444  02                 [042] (6)
4445  00                 [043] (2)
4446  00                 [044] (8)
4447  F8                 [045] (10)
4448  02                 [046] (10)
4449  00                 [047] (10)
444A  00                 [048] (10)
444B  FB                 [049] (10)
444C  02                 [050] (11)
444D  00                 [051] (11)
444E  00                 [052] (11)
444F  FB                 [053] (11)
4450  02                 [054] (11)
4451  00                 [055] (11)
4452  00                 [056] (12)
4453  FB                 [057] (12)
4454  02                 [058] (13)
4455  00                 [059] (10)
4456  00                 [060] (18)
4457  FB                 [061] (18)
4458  02                 [062] (18)
4459  00                 [063] (18)
445A  00                 [064] (19)
445B  FB                 [065] (21)
445C  02                 [066] (22)
445D  00                 [067] (22)
445E  00                 [068] (22)
445F  FC                 [069] (22)
4460  02                 [070] (22)
4461  00                 [071] (23)
4462  00                 [072] (26)
4463  FC                 [073] (26)
4464  02                 [074] (26)
4465  00                 [075] (26)
4466  00                 [076] (27)
4467  FC                 [077] (27)
4468  02                 [078] (27)
4469  00                 [079] (27)
446A  00                 [080] (27)
446B  FC                 [081] (28)
446C  02                 [082] (28)
446D  00                 [083] (28)
446E  00                 [084] (28)
446F  FD                 [085] (28)
4470  02                 [086] (29)
4471  00                 [087] (29)
4472  00                 [088] (29)
4473  FD                 [089] (29)
4474  02                 [090] (32)
4475  00                 [091] (32)
4476  00                 [092] (32)
4477  FF                 [093] (33)
4478  02                 [094] (33)
4479  00                 [095] (33)
447A  00                 [096] (33)
447B  00                 [097] (35)
447C  03                 [098] (35)
447D  00                 [099] (35)
447E  00                 [100] (36)
447F  00                 [101] (38)
4480  03                 [102] (38)
4481  00                 [103] (38)
4482  00                 [104] (38)
4483  00                 [105] (40)
                         * locals:
45BF  00                 sizelocvars (0)
                         * upvalues:
45C0  00                 sizeupvalues (0)
                         ** end of function **

                         
45C1                     ** function [28] definition (level 2)
                         ** start of function **
45C1  00                 string size (0)
                         source name: (none)
45C3  06                 line defined (810)
45C4  FB                 last line defined (891)
45C5  06                 nups (8)
45C6  08                 numparams (2)
45C7  02                 is_vararg (0)
45C8  00                 maxstacksize (15)
                         * code:
45CB  01                 sizecode (150)
45CC  DD000000           [001] getglobal  3   0        ; 1074689893
45D0  12010001           [002] move       4   2      
45D4  E2800001           [003] call       3   2   2  
45D8  D8000000           [004] test       3       0    ; to [6] if true
45DC  1A800180           [005] jmp        7            ; to [13]
45E0  E440C000           [006] self       3   1   257  ; -2135866365
45E4  E2800001           [007] call       3   2   2  
45E8  92008001           [008] move       2   3      
45EC  DD800000           [009] getglobal  3   2        ; 538022378
45F0  19C10000           [010] loadk      4   3        ; 0
45F4  E2400001           [011] call       3   2   1  
45F8  1AC0FC7F           [012] jmp        -12          ; to [1]
45FC  DD000100           [013] getglobal  3   4        ; gPlayerProfileMgr
4600  E440C101           [014] self       3   3   261  ; 569342746
4604  59C10000           [015] loadk      5   3        ; 0
4608  E2808001           [016] call       3   3   2  
460C  2481C101           [017] self       4   3   262  ; 1699680402
4610  22810001           [018] call       4   2   2  
4614  57018000           [019] loadbool   5   1   0    ; true
4618  9D010000           [020] getglobal  6   0        ; 1074689893
461C  DDC10100           [021] getglobal  7   7        ; checkArchwingType
4620  A2810001           [022] call       6   2   2  
4624  98410000           [023] test       6       1    ; to [25] if false
4628  1AC00180           [024] jmp        8            ; to [33]
462C  93010000           [025] getupval   6   0      
4630  D2010002           [026] move       7   4      
4634  06028004           [027] loadnil    8   9      
4638  9DC20100           [028] getglobal  10  7        ; checkArchwingType
463C  A2818002           [029] call       6   5   2  
4640  98010000           [030] test       6       0    ; to [32] if true
4644  1A000080           [031] jmp        1            ; to [33]
4648  1A800380           [032] jmp        15           ; to [48]
464C  99010200           [033] loadk      6   8        ; 0
4650  DD410200           [034] getglobal  7   9        ; checkItemMultipleType
4654  CA018003           [035] len        7   7      
4658  19020200           [036] loadk      8   8        ; 0
465C  90010280           [037] forprep    6   9        ; to [47]
4660  93020000           [038] getupval   10  0      
4664  D2020002           [039] move       11  4      
4668  1D430200           [040] getglobal  12  9        ; checkItemMultipleType
466C  0E430206           [041] gettable   12  12  9  
4670  A2828001           [042] call       10  3   2  
4674  98420000           [043] test       10      1    ; to [45] if false
4678  1A400080           [044] jmp        2            ; to [47]
467C  57010000           [045] loadbool   5   0   0    ; false
4680  1A000080           [046] jmp        1            ; to [48]
4684  9441FD7F           [047] forloop    6   -10      ; to [38] if loop
4688  58010000           [048] test       5       0    ; to [50] if true
468C  1AC00B80           [049] jmp        48           ; to [98]
4690  9D820000           [050] getglobal  10  2        ; 538022378
4694  D9C20000           [051] loadk      11  3        ; 0
4698  A2420001           [052] call       10  2   1  
469C  9D020000           [053] getglobal  10  0        ; 1074689893
46A0  D2028001           [054] move       11  3      
46A4  A2820001           [055] call       10  2   2  
46A8  98420000           [056] test       10      1    ; to [58] if false
46AC  1A000280           [057] jmp        9            ; to [67]
46B0  9D020000           [058] getglobal  10  0        ; 1074689893
46B4  D2020002           [059] move       11  4      
46B8  A2820001           [060] call       10  2   2  
46BC  98420000           [061] test       10      1    ; to [63] if false
46C0  1AC00080           [062] jmp        4            ; to [67]
46C4  A4824202           [063] self       10  4   266  ; 1139718821
46C8  1DC30200           [064] getglobal  12  11       ; questProgress
46CC  59030300           [065] loadk      13  12       ; "QuestCompleteCallback"
46D0  A2420002           [066] call       10  4   1  
46D4  93028000           [067] getupval   10  1      
46D8  98420000           [068] test       10      1    ; to [70] if false
46DC  1AC00080           [069] jmp        4            ; to [74]
46E0  9D820000           [070] getglobal  10  2        ; 538022378
46E4  D9420300           [071] loadk      11  13       ; 0
46E8  A2420001           [072] call       10  2   1  
46EC  1A00FE7F           [073] jmp        -7           ; to [67]
46F0  93020001           [074] getupval   10  2      
46F4  98020000           [075] test       10      0    ; to [77] if true
46F8  1A000180           [076] jmp        5            ; to [82]
46FC  93028001           [077] getupval   10  3      
4700  8E824305           [078] gettable   10  10  270  ; -1405662448
4704  A2428000           [079] call       10  1   1  
4708  1A001180           [080] jmp        69           ; to [150]
470C  1AC0F77F           [081] jmp        -32          ; to [50]
4710  97020000           [082] loadbool   10  0   0    ; false
fail op	8
4714  88028000           [083] setupval   10  1      
4718  93020002           [084] getupval   10  4      
471C  83024205           [085] add        10  10  264  ; 0
fail op	8
4720  88020002           [086] setupval   10  4      
4724  93020002           [087] getupval   10  4      
fail op	21
4728  15C04305           [088] concat     0   10  271
472C  1AC00E80           [089] jmp        60           ; to [150]
4730  9D820000           [090] getglobal  10  2        ; 538022378
4734  D3020002           [091] getupval   11  4      
4738  C4C20288           [092] mul        11  272 11   ; 0
473C  A2420001           [093] call       10  2   1  
4740  1A80F47F           [094] jmp        -45          ; to [50]
4744  1A400D80           [095] jmp        54           ; to [150]
4748  1A00F47F           [096] jmp        -47          ; to [50]
474C  1AC00C80           [097] jmp        52           ; to [150]
4750  9D820000           [098] getglobal  10  2        ; 538022378
4754  D9C20000           [099] loadk      11  3        ; 0
4758  A2420001           [100] call       10  2   1  
475C  9D020000           [101] getglobal  10  0        ; 1074689893
4760  D2020002           [102] move       11  4      
4764  A2820001           [103] call       10  2   2  
4768  98420000           [104] test       10      1    ; to [106] if false
476C  1A000180           [105] jmp        5            ; to [111]
4770  A4424402           [106] self       10  4   273  ; 1562059033
4774  1D830400           [107] getglobal  12  18       ; key
4778  5DC30400           [108] getglobal  13  19       ; resetQuestStep
477C  99030500           [109] loadk      14  20       ; "OnQuestsReset"
4780  A2428002           [110] call       10  5   1  
4784  93028002           [111] getupval   10  5      
4788  98420000           [112] test       10      1    ; to [114] if false
478C  1AC00080           [113] jmp        4            ; to [118]
4790  9D820000           [114] getglobal  10  2        ; 538022378
4794  D9420300           [115] loadk      11  13       ; 0
4798  A2420001           [116] call       10  2   1  
479C  1A00FE7F           [117] jmp        -7           ; to [111]
47A0  93020003           [118] getupval   10  6      
47A4  98020000           [119] test       10      0    ; to [121] if true
47A8  1A400380           [120] jmp        14           ; to [135]
47AC  9D020000           [121] getglobal  10  0        ; 1074689893
47B0  DD420500           [122] getglobal  11  21       ; transmissions
47B4  A2820001           [123] call       10  2   2  
47B8  98420000           [124] test       10      1    ; to [126] if false
47BC  1AC00080           [125] jmp        4            ; to [130]
47C0  93028003           [126] getupval   10  7      
47C4  D2020001           [127] move       11  2      
47C8  1D430500           [128] getglobal  12  21       ; transmissions
47CC  A2428001           [129] call       10  3   1  
47D0  93028001           [130] getupval   10  3      
47D4  8E824305           [131] gettable   10  10  270  ; -1405662448
47D8  A2428000           [132] call       10  1   1  
47DC  1AC00380           [133] jmp        16           ; to [150]
47E0  1A80F67F           [134] jmp        -37          ; to [98]
47E4  97020000           [135] loadbool   10  0   0    ; false
fail op	8
47E8  88028002           [136] setupval   10  5      
47EC  93020002           [137] getupval   10  4      
47F0  83024205           [138] add        10  10  264  ; 0
fail op	8
47F4  88020002           [139] setupval   10  4      
47F8  93020002           [140] getupval   10  4      
fail op	21
47FC  15C04305           [141] concat     0   10  271
4800  1A800180           [142] jmp        7            ; to [150]
4804  9D820000           [143] getglobal  10  2        ; 538022378
4808  D3020002           [144] getupval   11  4      
480C  C4C20288           [145] mul        11  272 11   ; 0
4810  A2420001           [146] call       10  2   1  
4814  1A40F37F           [147] jmp        -50          ; to [98]
4818  1A000080           [148] jmp        1            ; to [150]
481C  1AC0F27F           [149] jmp        -52          ; to [98]
4820  1E008000           [150] return     0   1      
                         * constants:
4824  16                 sizek (22)
4825  01                 const type 3
4826  65770E40           const [0]: (1074689893)
482A  01                 const type 3
482B  0344B180           const [1]: (-2135866365)
482F  01                 const type 3
4830  EA911120           const [2]: (538022378)
4834  03                 const type 3
4835  00000000           const [3]: (0)
4839  04                 const type 4
483A  12                 string size (18)
483B  67506C6179657250+  "gPlayerP"
4843  726F66696C654D67+  "rofileMg"
484B  7200               "r\0"
                         const [4]: "gPlayerProfileMgr"
484D  01                 const type 3
484E  1A7BEF21           const [5]: (569342746)
4852  01                 const type 3
4853  92104F65           const [6]: (1699680402)
4857  04                 const type 4
4858  12                 string size (18)
4859  636865636B417263+  "checkArc"
4861  6877696E67547970+  "hwingTyp"
4869  6500               "e\0"
                         const [7]: "checkArchwingType"
486B  03                 const type 3
486C  0000803F           const [8]: (0)
4870  04                 const type 4
4871  16                 string size (22)
4872  636865636B497465+  "checkIte"
487A  6D4D756C7469706C+  "mMultipl"
4882  655479706500       "eType\0"
                         const [9]: "checkItemMultipleType"
4888  01                 const type 3
4889  A5BAEE43           const [10]: (1139718821)
488D  04                 const type 4
488E  0E                 string size (14)
488F  717565737450726F+  "questPro"
4897  677265737300       "gress\0"
                         const [11]: "questProgress"
489D  04                 const type 4
489E  16                 string size (22)
489F  5175657374436F6D+  "QuestCom"
48A7  706C65746543616C+  "pleteCal"
48AF  6C6261636B00       "lback\0"
                         const [12]: "QuestCompleteCallback"
48B5  03                 const type 3
48B6  0000803E           const [13]: (0)
48BA  01                 const type 3
48BB  104B37AC           const [14]: (-1405662448)
48BF  03                 const type 3
48C0  00004040           const [15]: (0)
48C4  03                 const type 3
48C5  0000A040           const [16]: (0)
48C9  01                 const type 3
48CA  19211B5D           const [17]: (1562059033)
48CE  04                 const type 4
48CF  04                 string size (4)
48D0  6B657900           "key\0"
                         const [18]: "key"
48D4  04                 const type 4
48D5  0F                 string size (15)
48D6  7265736574517565+  "resetQue"
48DE  73745374657000     "stStep\0"
                         const [19]: "resetQuestStep"
48E5  04                 const type 4
48E6  0E                 string size (14)
48E7  4F6E517565737473+  "OnQuests"
48EF  526573657400       "Reset\0"
                         const [20]: "OnQuestsReset"
48F5  04                 const type 4
48F6  0E                 string size (14)
48F7  7472616E736D6973+  "transmis"
48FF  73696F6E7300       "sions\0"
                         const [21]: "transmissions"
                         * functions:
4905  00                 sizep (0)
                         * lines:
4907  01                 sizelineinfo (150)
                         [pc] (line)
4908  2D                 [001] (45)
4909  03                 [002] (45)
490A  00                 [003] (45)
490B  00                 [004] (45)
490C  2D                 [005] (45)
490D  03                 [006] (46)
490E  00                 [007] (46)
490F  00                 [008] (46)
4910  2D                 [009] (47)
4911  03                 [010] (47)
4912  00                 [011] (47)
4913  00                 [012] (47)
4914  2D                 [013] (50)
4915  03                 [014] (50)
4916  00                 [015] (50)
4917  00                 [016] (50)
4918  2D                 [017] (51)
4919  03                 [018] (51)
491A  00                 [019] (53)
491B  00                 [020] (56)
491C  2E                 [021] (56)
491D  03                 [022] (56)
491E  00                 [023] (56)
491F  00                 [024] (56)
4920  2E                 [025] (56)
4921  03                 [026] (56)
4922  00                 [027] (56)
4923  00                 [028] (56)
4924  2E                 [029] (56)
4925  03                 [030] (56)
4926  00                 [031] (56)
4927  00                 [032] (56)
4928  2F                 [033] (59)
4929  03                 [034] (59)
492A  00                 [035] (59)
492B  00                 [036] (59)
492C  2F                 [037] (59)
492D  03                 [038] (60)
492E  00                 [039] (60)
492F  00                 [040] (60)
4930  2F                 [041] (60)
4931  03                 [042] (60)
4932  00                 [043] (60)
4933  00                 [044] (60)
4934  2F                 [045] (61)
4935  03                 [046] (62)
4936  00                 [047] (59)
4937  00                 [048] (67)
4938  32                 [049] (67)
4939  03                 [050] (69)
493A  00                 [051] (69)
493B  00                 [052] (69)
493C  32                 [053] (70)
493D  03                 [054] (70)
493E  00                 [055] (70)
493F  00                 [056] (70)
4940  32                 [057] (70)
4941  03                 [058] (71)
4942  00                 [059] (71)
4943  00                 [060] (71)
4944  32                 [061] (71)
4945  03                 [062] (71)
4946  00                 [063] (72)
4947  00                 [064] (72)
4948  33                 [065] (72)
4949  03                 [066] (72)
494A  00                 [067] (76)
494B  00                 [068] (76)
494C  33                 [069] (76)
494D  03                 [070] (77)
494E  00                 [071] (77)
494F  00                 [072] (77)
4950  35                 [073] (77)
4951  03                 [074] (80)
4952  00                 [075] (80)
4953  00                 [076] (80)
4954  38                 [077] (81)
4955  03                 [078] (81)
4956  00                 [079] (81)
4957  00                 [080] (82)
4958  38                 [081] (82)
4959  03                 [082] (84)
495A  00                 [083] (84)
495B  00                 [084] (85)
495C  38                 [085] (85)
495D  03                 [086] (85)
495E  00                 [087] (86)
495F  00                 [088] (86)
4960  38                 [089] (86)
4961  03                 [090] (87)
4962  00                 [091] (87)
4963  00                 [092] (87)
4964  38                 [093] (87)
4965  03                 [094] (87)
4966  00                 [095] (89)
4967  00                 [096] (91)
4968  38                 [097] (92)
4969  03                 [098] (95)
496A  00                 [099] (95)
496B  00                 [100] (95)
496C  38                 [101] (97)
496D  03                 [102] (97)
496E  00                 [103] (97)
496F  00                 [104] (97)
4970  38                 [105] (97)
4971  03                 [106] (98)
4972  00                 [107] (98)
4973  00                 [108] (98)
4974  38                 [109] (98)
4975  03                 [110] (98)
4976  00                 [111] (101)
4977  00                 [112] (101)
4978  38                 [113] (101)
4979  03                 [114] (102)
497A  00                 [115] (102)
497B  00                 [116] (102)
497C  38                 [117] (102)
497D  03                 [118] (105)
497E  00                 [119] (105)
497F  00                 [120] (105)
4980  38                 [121] (106)
4981  03                 [122] (106)
4982  00                 [123] (106)
4983  00                 [124] (106)
4984  38                 [125] (106)
4985  03                 [126] (107)
4986  00                 [127] (107)
4987  00                 [128] (107)
4988  3B                 [129] (107)
4989  03                 [130] (110)
498A  00                 [131] (110)
498B  00                 [132] (110)
498C  3B                 [133] (111)
498D  03                 [134] (111)
498E  00                 [135] (113)
498F  00                 [136] (113)
4990  3B                 [137] (114)
4991  03                 [138] (114)
4992  00                 [139] (114)
4993  00                 [140] (115)
4994  3B                 [141] (115)
4995  03                 [142] (115)
4996  00                 [143] (116)
4997  00                 [144] (116)
4998  3B                 [145] (116)
4999  03                 [146] (116)
499A  00                 [147] (116)
499B  00                 [148] (118)
499C  3C                 [149] (120)
499D  03                 [150] (123)
                         * locals:
4B60  00                 sizelocvars (0)
                         * upvalues:
4B61  00                 sizeupvalues (0)
                         ** end of function **

                         
4B62                     ** function [29] definition (level 2)
                         ** start of function **
4B62  00                 string size (0)
                         source name: (none)
4B64  06                 line defined (893)
4B65  95                 last line defined (917)
4B66  07                 nups (2)
4B67  02                 numparams (2)
4B68  02                 is_vararg (0)
4B69  00                 maxstacksize (10)
                         * code:
4B6B  38                 sizecode (56)
4B6C  DD000000           [01] getglobal  3   0        ; 1074689893
4B70  12010001           [02] move       4   2      
4B74  E2800001           [03] call       3   2   2  
4B78  D8000000           [04] test       3       0    ; to [6] if true
4B7C  1A800180           [05] jmp        7            ; to [13]
4B80  E440C000           [06] self       3   1   257  ; -2135866365
4B84  E2800001           [07] call       3   2   2  
4B88  92008001           [08] move       2   3      
4B8C  DD800000           [09] getglobal  3   2        ; 538022378
4B90  19C10000           [10] loadk      4   3        ; 0
4B94  E2400001           [11] call       3   2   1  
4B98  1AC0FC7F           [12] jmp        -12          ; to [1]
4B9C  DD000100           [13] getglobal  3   4        ; gPlayerProfileMgr
4BA0  E440C101           [14] self       3   3   261  ; 569342746
4BA4  59C10000           [15] loadk      5   3        ; 0
4BA8  E2808001           [16] call       3   3   2  
4BAC  2481C101           [17] self       4   3   262  ; 1699680402
4BB0  22810001           [18] call       4   2   2  
4BB4  64C14102           [19] self       5   4   263  ; -1269704954
4BB8  DD010200           [20] getglobal  7   8        ; ShipFeature
4BBC  62818001           [21] call       5   3   2  
4BC0  58410000           [22] test       5       1    ; to [24] if false
4BC4  1AC00180           [23] jmp        8            ; to [32]
4BC8  9D810000           [24] getglobal  6   2        ; 538022378
4BCC  D9410200           [25] loadk      7   9        ; -51
4BD0  A2410001           [26] call       6   2   1  
4BD4  A4C14102           [27] self       6   4   263  ; -1269704954
4BD8  1D020200           [28] getglobal  8   8        ; ShipFeature
4BDC  A2818001           [29] call       6   3   2  
4BE0  52010003           [30] move       5   6      
4BE4  1A40FD7F           [31] jmp        -10          ; to [22]
4BE8  9D010000           [32] getglobal  6   0        ; 1074689893
4BEC  D2018001           [33] move       7   3      
4BF0  A2810001           [34] call       6   2   2  
4BF4  98410000           [35] test       6       1    ; to [37] if false
4BF8  1A000280           [36] jmp        9            ; to [46]
4BFC  9D010000           [37] getglobal  6   0        ; 1074689893
4C00  D2010002           [38] move       7   4      
4C04  A2810001           [39] call       6   2   2  
4C08  98410000           [40] test       6       1    ; to [42] if false
4C0C  1AC00080           [41] jmp        4            ; to [46]
4C10  A4814202           [42] self       6   4   266  ; 1139718821
4C14  1DC20200           [43] getglobal  8   11       ; questProgress
4C18  59020300           [44] loadk      9   12       ; "QuestCompleteCallback"
4C1C  A2410002           [45] call       6   4   1  
4C20  93010000           [46] getupval   6   0      
4C24  98410000           [47] test       6       1    ; to [49] if false
4C28  1AC00080           [48] jmp        4            ; to [53]
4C2C  9D810000           [49] getglobal  6   2        ; 538022378
4C30  D9410300           [50] loadk      7   13       ; 0
4C34  A2410001           [51] call       6   2   1  
4C38  1A00FE7F           [52] jmp        -7           ; to [46]
4C3C  93018000           [53] getupval   6   1      
4C40  8E814303           [54] gettable   6   6   270  ; -1405662448
4C44  A2418000           [55] call       6   1   1  
4C48  1E008000           [56] return     0   1      
                         * constants:
4C4C  0F                 sizek (15)
4C4D  01                 const type 3
4C4E  65770E40           const [0]: (1074689893)
4C52  01                 const type 3
4C53  0344B180           const [1]: (-2135866365)
4C57  01                 const type 3
4C58  EA911120           const [2]: (538022378)
4C5C  03                 const type 3
4C5D  00000000           const [3]: (0)
4C61  04                 const type 4
4C62  12                 string size (18)
4C63  67506C6179657250+  "gPlayerP"
4C6B  726F66696C654D67+  "rofileMg"
4C73  7200               "r\0"
                         const [4]: "gPlayerProfileMgr"
4C75  01                 const type 3
4C76  1A7BEF21           const [5]: (569342746)
4C7A  01                 const type 3
4C7B  92104F65           const [6]: (1699680402)
4C7F  01                 const type 3
4C80  06D751B4           const [7]: (-1269704954)
4C84  04                 const type 4
4C85  0C                 string size (12)
4C86  5368697046656174+  "ShipFeat"
4C8E  75726500           "ure\0"
                         const [8]: "ShipFeature"
4C92  03                 const type 3
4C93  CDCCCC3D           const [9]: (-51)
4C97  01                 const type 3
4C98  A5BAEE43           const [10]: (1139718821)
4C9C  04                 const type 4
4C9D  0E                 string size (14)
4C9E  717565737450726F+  "questPro"
4CA6  677265737300       "gress\0"
                         const [11]: "questProgress"
4CAC  04                 const type 4
4CAD  16                 string size (22)
4CAE  5175657374436F6D+  "QuestCom"
4CB6  706C65746543616C+  "pleteCal"
4CBE  6C6261636B00       "lback\0"
                         const [12]: "QuestCompleteCallback"
4CC4  03                 const type 3
4CC5  0000803E           const [13]: (0)
4CC9  01                 const type 3
4CCA  104B37AC           const [14]: (-1405662448)
                         * functions:
4CCE  00                 sizep (0)
                         * lines:
4CCF  38                 sizelineinfo (56)
                         [pc] (line)
4CD0  80                 [01] (-128)
4CD1  03                 [02] (-128)
4CD2  00                 [03] (-128)
4CD3  00                 [04] (-128)
4CD4  80                 [05] (-128)
4CD5  03                 [06] (-127)
4CD6  00                 [07] (-127)
4CD7  00                 [08] (-127)
4CD8  80                 [09] (-126)
4CD9  03                 [10] (-126)
4CDA  00                 [11] (-126)
4CDB  00                 [12] (-126)
4CDC  80                 [13] (-124)
4CDD  03                 [14] (-124)
4CDE  00                 [15] (-124)
4CDF  00                 [16] (-124)
4CE0  80                 [17] (-123)
4CE1  03                 [18] (-123)
4CE2  00                 [19] (-121)
4CE3  00                 [20] (-121)
4CE4  81                 [21] (-121)
4CE5  03                 [22] (-120)
4CE6  00                 [23] (-120)
4CE7  00                 [24] (-119)
4CE8  81                 [25] (-119)
4CE9  03                 [26] (-119)
4CEA  00                 [27] (-118)
4CEB  00                 [28] (-118)
4CEC  81                 [29] (-118)
4CED  03                 [30] (-118)
4CEE  00                 [31] (-118)
4CEF  00                 [32] (-116)
4CF0  82                 [33] (-116)
4CF1  03                 [34] (-116)
4CF2  00                 [35] (-116)
4CF3  00                 [36] (-116)
4CF4  82                 [37] (-115)
4CF5  03                 [38] (-115)
4CF6  00                 [39] (-115)
4CF7  00                 [40] (-115)
4CF8  82                 [41] (-115)
4CF9  03                 [42] (-114)
4CFA  00                 [43] (-114)
4CFB  00                 [44] (-114)
4CFC  82                 [45] (-114)
4CFD  03                 [46] (-111)
4CFE  00                 [47] (-111)
4CFF  00                 [48] (-111)
4D00  84                 [49] (-110)
4D01  03                 [50] (-110)
4D02  00                 [51] (-110)
4D03  00                 [52] (-110)
4D04  84                 [53] (-108)
4D05  03                 [54] (-108)
4D06  00                 [55] (-108)
4D07  00                 [56] (-107)
                         * locals:
4DB0  00                 sizelocvars (0)
                         * upvalues:
4DB1  00                 sizeupvalues (0)
                         ** end of function **

                         
4DB2                     ** function [30] definition (level 2)
                         ** start of function **
4DB2  00                 string size (0)
                         source name: (none)
4DB4  07                 line defined (919)
4DB5  CE                 last line defined (974)
4DB6  07                 nups (3)
4DB7  03                 numparams (2)
4DB8  02                 is_vararg (0)
4DB9  00                 maxstacksize (10)
                         * code:
4DBB  64                 sizecode (100)
4DBC  DD000000           [001] getglobal  3   0        ; 1074689893
4DC0  12010001           [002] move       4   2      
4DC4  E2800001           [003] call       3   2   2  
4DC8  D8000000           [004] test       3       0    ; to [6] if true
4DCC  1A800180           [005] jmp        7            ; to [13]
4DD0  E440C000           [006] self       3   1   257  ; -2135866365
4DD4  E2800001           [007] call       3   2   2  
4DD8  92008001           [008] move       2   3      
4DDC  DD800000           [009] getglobal  3   2        ; 538022378
4DE0  19C10000           [010] loadk      4   3        ; 0
4DE4  E2400001           [011] call       3   2   1  
4DE8  1AC0FC7F           [012] jmp        -12          ; to [1]
4DEC  DD000100           [013] getglobal  3   4        ; gPlayerProfileMgr
4DF0  E440C101           [014] self       3   3   261  ; 569342746
4DF4  59C10000           [015] loadk      5   3        ; 0
4DF8  E2808001           [016] call       3   3   2  
4DFC  2481C101           [017] self       4   3   262  ; 1699680402
4E00  22810001           [018] call       4   2   2  
4E04  53010000           [019] getupval   5   0      
4E08  92010001           [020] move       6   2      
4E0C  DDC10100           [021] getglobal  7   7        ; checkItemType
4E10  62818001           [022] call       5   3   2  
4E14  58010000           [023] test       5       0    ; to [25] if true
4E18  1A800A80           [024] jmp        43           ; to [68]
4E1C  9D010000           [025] getglobal  6   0        ; 1074689893
4E20  D2018001           [026] move       7   3      
4E24  A2810001           [027] call       6   2   2  
4E28  98410000           [028] test       6       1    ; to [30] if false
4E2C  1A401080           [029] jmp        66           ; to [96]
4E30  9D010000           [030] getglobal  6   0        ; 1074689893
4E34  D2010002           [031] move       7   4      
4E38  A2810001           [032] call       6   2   2  
4E3C  98410000           [033] test       6       1    ; to [35] if false
4E40  1A000F80           [034] jmp        61           ; to [96]
4E44  A4014202           [035] self       6   4   264  ; 1139718821
4E48  1D420200           [036] getglobal  8   9        ; questProgress
4E4C  59820200           [037] loadk      9   10       ; "QuestCompleteCallback"
4E50  A2410002           [038] call       6   4   1  
4E54  93018000           [039] getupval   6   1      
4E58  98410000           [040] test       6       1    ; to [42] if false
4E5C  1AC00080           [041] jmp        4            ; to [46]
4E60  9D810000           [042] getglobal  6   2        ; 538022378
4E64  D9C10200           [043] loadk      7   11       ; 0
4E68  A2410001           [044] call       6   2   1  
4E6C  1A00FE7F           [045] jmp        -7           ; to [39]
4E70  9D410200           [046] getglobal  6   9        ; questProgress
fail op	35
4E74  23004303           [047] close      0  
4E78  1A400380           [048] jmp        14           ; to [63]
4E7C  97010000           [049] loadbool   6   0   0    ; false
fail op	8
4E80  88018000           [050] setupval   6   1      
4E84  A4014202           [051] self       6   4   264  ; 1139718821
4E88  1D420200           [052] getglobal  8   9        ; questProgress
4E8C  03424304           [053] add        8   8   269  ; 0
4E90  59820200           [054] loadk      9   10       ; "QuestCompleteCallback"
4E94  A2410002           [055] call       6   4   1  
4E98  93018000           [056] getupval   6   1      
4E9C  98410000           [057] test       6       1    ; to [59] if false
4EA0  1AC00080           [058] jmp        4            ; to [63]
4EA4  9D810000           [059] getglobal  6   2        ; 538022378
4EA8  D9C10200           [060] loadk      7   11       ; 0
4EAC  A2410001           [061] call       6   2   1  
4EB0  1A00FE7F           [062] jmp        -7           ; to [56]
4EB4  93010001           [063] getupval   6   2      
4EB8  8E814303           [064] gettable   6   6   270  ; -1405662448
4EBC  A2418000           [065] call       6   1   1  
4EC0  1A000880           [066] jmp        33           ; to [100]
4EC4  1AC00680           [067] jmp        28           ; to [96]
4EC8  9D410200           [068] getglobal  6   9        ; questProgress
fail op	35
4ECC  23004303           [069] close      0  
4ED0  1A000680           [070] jmp        25           ; to [96]
4ED4  9D010000           [071] getglobal  6   0        ; 1074689893
4ED8  D2018001           [072] move       7   3      
4EDC  A2810001           [073] call       6   2   2  
4EE0  98410000           [074] test       6       1    ; to [76] if false
4EE4  1A000280           [075] jmp        9            ; to [85]
4EE8  9D010000           [076] getglobal  6   0        ; 1074689893
4EEC  D2010002           [077] move       7   4      
4EF0  A2810001           [078] call       6   2   2  
4EF4  98410000           [079] test       6       1    ; to [81] if false
4EF8  1AC00080           [080] jmp        4            ; to [85]
4EFC  A4014202           [081] self       6   4   264  ; 1139718821
4F00  1D420200           [082] getglobal  8   9        ; questProgress
4F04  59820200           [083] loadk      9   10       ; "QuestCompleteCallback"
4F08  A2410002           [084] call       6   4   1  
4F0C  93018000           [085] getupval   6   1      
4F10  98410000           [086] test       6       1    ; to [88] if false
4F14  1AC00080           [087] jmp        4            ; to [92]
4F18  9D810000           [088] getglobal  6   2        ; 538022378
4F1C  D9C10200           [089] loadk      7   11       ; 0
4F20  A2410001           [090] call       6   2   1  
4F24  1A00FE7F           [091] jmp        -7           ; to [85]
4F28  93010001           [092] getupval   6   2      
4F2C  8E814303           [093] gettable   6   6   270  ; -1405662448
4F30  A2418000           [094] call       6   1   1  
4F34  1AC00080           [095] jmp        4            ; to [100]
4F38  9D810000           [096] getglobal  6   2        ; 538022378
4F3C  D9C10300           [097] loadk      7   15       ; 0
4F40  A2410001           [098] call       6   2   1  
4F44  1A00EA7F           [099] jmp        -87          ; to [13]
4F48  1E008000           [100] return     0   1      
                         * constants:
4F4C  10                 sizek (16)
4F4D  01                 const type 3
4F4E  65770E40           const [0]: (1074689893)
4F52  01                 const type 3
4F53  0344B180           const [1]: (-2135866365)
4F57  01                 const type 3
4F58  EA911120           const [2]: (538022378)
4F5C  03                 const type 3
4F5D  00000000           const [3]: (0)
4F61  04                 const type 4
4F62  12                 string size (18)
4F63  67506C6179657250+  "gPlayerP"
4F6B  726F66696C654D67+  "rofileMg"
4F73  7200               "r\0"
                         const [4]: "gPlayerProfileMgr"
4F75  01                 const type 3
4F76  1A7BEF21           const [5]: (569342746)
4F7A  01                 const type 3
4F7B  92104F65           const [6]: (1699680402)
4F7F  04                 const type 4
4F80  0E                 string size (14)
4F81  636865636B497465+  "checkIte"
4F89  6D5479706500       "mType\0"
                         const [7]: "checkItemType"
4F8F  01                 const type 3
4F90  A5BAEE43           const [8]: (1139718821)
4F94  04                 const type 4
4F95  0E                 string size (14)
4F96  717565737450726F+  "questPro"
4F9E  677265737300       "gress\0"
                         const [9]: "questProgress"
4FA4  04                 const type 4
4FA5  16                 string size (22)
4FA6  5175657374436F6D+  "QuestCom"
4FAE  706C65746543616C+  "pleteCal"
4FB6  6C6261636B00       "lback\0"
                         const [10]: "QuestCompleteCallback"
4FBC  03                 const type 3
4FBD  0000803E           const [11]: (0)
4FC1  03                 const type 3
4FC2  00004040           const [12]: (0)
4FC6  03                 const type 3
4FC7  0000803F           const [13]: (0)
4FCB  01                 const type 3
4FCC  104B37AC           const [14]: (-1405662448)
4FD0  03                 const type 3
4FD1  00000040           const [15]: (0)
                         * functions:
4FD5  00                 sizep (0)
                         * lines:
4FD6  64                 sizelineinfo (100)
                         [pc] (line)
4FD7  9A                 [001] (-102)
4FD8  03                 [002] (-102)
4FD9  00                 [003] (-102)
4FDA  00                 [004] (-102)
4FDB  9A                 [005] (-102)
4FDC  03                 [006] (-101)
4FDD  00                 [007] (-101)
4FDE  00                 [008] (-101)
4FDF  9A                 [009] (-100)
4FE0  03                 [010] (-100)
4FE1  00                 [011] (-100)
4FE2  00                 [012] (-100)
4FE3  9A                 [013] (-96)
4FE4  03                 [014] (-96)
4FE5  00                 [015] (-96)
4FE6  00                 [016] (-96)
4FE7  9A                 [017] (-95)
4FE8  03                 [018] (-95)
4FE9  00                 [019] (-94)
4FEA  00                 [020] (-94)
4FEB  9B                 [021] (-94)
4FEC  03                 [022] (-94)
4FED  00                 [023] (-92)
4FEE  00                 [024] (-92)
4FEF  9B                 [025] (-89)
4FF0  03                 [026] (-89)
4FF1  00                 [027] (-89)
4FF2  00                 [028] (-89)
4FF3  9B                 [029] (-89)
4FF4  03                 [030] (-88)
4FF5  00                 [031] (-88)
4FF6  00                 [032] (-88)
4FF7  9C                 [033] (-88)
4FF8  03                 [034] (-88)
4FF9  00                 [035] (-87)
4FFA  00                 [036] (-87)
4FFB  9C                 [037] (-87)
4FFC  03                 [038] (-87)
4FFD  00                 [039] (-85)
4FFE  00                 [040] (-85)
4FFF  9C                 [041] (-85)
5000  03                 [042] (-84)
5001  00                 [043] (-84)
5002  00                 [044] (-84)
5003  9C                 [045] (-84)
5004  03                 [046] (-81)
5005  00                 [047] (-81)
5006  00                 [048] (-81)
5007  A0                 [049] (-80)
5008  03                 [050] (-80)
5009  00                 [051] (-77)
500A  00                 [052] (-77)
500B  A0                 [053] (-77)
500C  03                 [054] (-77)
500D  00                 [055] (-77)
500E  00                 [056] (-75)
500F  A0                 [057] (-75)
5010  03                 [058] (-75)
5011  00                 [059] (-74)
5012  00                 [060] (-74)
5013  A0                 [061] (-74)
5014  03                 [062] (-74)
5015  00                 [063] (-70)
5016  00                 [064] (-70)
5017  A1                 [065] (-70)
5018  03                 [066] (-69)
5019  00                 [067] (-67)
501A  00                 [068] (-66)
501B  A1                 [069] (-66)
501C  03                 [070] (-66)
501D  00                 [071] (-64)
501E  00                 [072] (-64)
501F  A2                 [073] (-64)
5020  03                 [074] (-64)
5021  00                 [075] (-64)
5022  00                 [076] (-63)
5023  A2                 [077] (-63)
5024  03                 [078] (-63)
5025  00                 [079] (-63)
5026  00                 [080] (-63)
5027  A2                 [081] (-62)
5028  03                 [082] (-62)
5029  00                 [083] (-62)
502A  00                 [084] (-62)
502B  A2                 [085] (-59)
502C  03                 [086] (-59)
502D  00                 [087] (-59)
502E  00                 [088] (-58)
502F  A4                 [089] (-58)
5030  03                 [090] (-58)
5031  00                 [091] (-58)
5032  00                 [092] (-56)
5033  A4                 [093] (-56)
5034  03                 [094] (-56)
5035  00                 [095] (-55)
5036  00                 [096] (-52)
5037  A7                 [097] (-52)
5038  03                 [098] (-52)
5039  00                 [099] (-52)
503A  00                 [100] (-50)
                         * locals:
5167  00                 sizelocvars (0)
                         * upvalues:
5168  00                 sizeupvalues (0)
                         ** end of function **

                         
5169                     ** function [31] definition (level 2)
                         ** start of function **
5169  00                 string size (0)
                         source name: (none)
516B  07                 line defined (976)
516C  96                 last line defined (1046)
516D  08                 nups (3)
516E  03                 numparams (2)
516F  02                 is_vararg (0)
5170  00                 maxstacksize (19)
                         * code:
5173  01                 sizecode (177)
5174  9D000000           [001] getglobal  2   0        ; gPlayerProfileMgr
5178  A4404001           [002] self       2   2   257  ; 569342746
517C  19810000           [003] loadk      4   2        ; 0
5180  A2808001           [004] call       2   3   2  
5184  A4C04001           [005] self       2   2   259  ; 1699680402
5188  A2800001           [006] call       2   2   2  
518C  DD000100           [007] getglobal  3   4        ; 1074689893
5190  12010001           [008] move       4   2      
5194  E2800001           [009] call       3   2   2  
5198  D8400000           [010] test       3       1    ; to [12] if false
519C  1A400180           [011] jmp        6            ; to [18]
51A0  DD000100           [012] getglobal  3   4        ; 1074689893
51A4  24414101           [013] self       4   2   261  ; 1865287165
51A8  22010001           [014] call       4   2   0  
51AC  E2800000           [015] call       3   0   2  
51B0  D8000000           [016] test       3       0    ; to [18] if true
51B4  1A000080           [017] jmp        1            ; to [19]
51B8  1E008000           [018] return     0   1      
51BC  DD800100           [019] getglobal  3   6        ; math
51C0  CEC0C101           [020] gettable   3   3   263  ; -2040962569
51C4  E2808000           [021] call       3   1   2  
51C8  1D010200           [022] getglobal  4   8        ; chanceForOneRandom
fail op	33
51CC  61008101           [023] tforloop   1       4    ; to [25] if exit
51D0  1A000080           [024] jmp        1            ; to [26]
51D4  D7400000           [025] loadbool   3   0   1    ; false, to [27]
51D8  D7008000           [026] loadbool   3   1   0    ; true
51DC  1D810100           [027] getglobal  4   6        ; math
51E0  0EC14102           [028] gettable   4   4   263  ; -2040962569
51E4  22818000           [029] call       4   1   2  
51E8  53010000           [030] getupval   5   0      
51EC  4E41C202           [031] gettable   5   5   265  ; 0
51F0  93010000           [032] getupval   6   0      
51F4  8E814203           [033] gettable   6   6   266  ; 0
51F8  4D818102           [034] sub        5   5   6  
51FC  04410102           [035] mul        4   4   5  
5200  53010000           [036] getupval   5   0      
5204  4E81C202           [037] gettable   5   5   266  ; 0
5208  03410102           [038] add        4   4   5  
520C  64414101           [039] self       5   2   261  ; 1865287165
5210  62810001           [040] call       5   2   2  
5214  64C1C202           [041] self       5   5   267  ; 892650483
5218  62810001           [042] call       5   2   2  
521C  86010003           [043] loadnil    6   6      
5220  DD010300           [044] getglobal  7   12       ; 1672515847
5224  12028002           [045] move       8   5      
5228  E2010101           [046] call       7   2   4  
522C  1AC00180           [047] jmp        8            ; to [56]
5230  0E43C305           [048] gettable   12  11  269  ; "mDetails"
5234  0E834306           [049] gettable   12  12  270  ; "mStatus"
5238  5DC30300           [050] getglobal  13  15       ; Lotus_Game
523C  4E03C406           [051] gettable   13  13  272  ; "KubrowPetInfoDetails_STATUS_STASIS"
fail op	35
5240  63400306           [052] close      1  
5244  1A400080           [053] jmp        2            ; to [56]
5248  92018005           [054] move       6   11     
524C  1A400080           [055] jmp        2            ; to [58]
5250  D6810000           [056] tforloop   7       2    ; to [58] if exit
5254  1A40FD7F           [057] jmp        -10          ; to [48]
5258  98010000           [058] test       6       0    ; to [60] if true
525C  1A801180           [059] jmp        71           ; to [131]
5260  0E434303           [060] gettable   12  6   269  ; "mDetails"
5264  0E834306           [061] gettable   12  12  270  ; "mStatus"
5268  5DC30300           [062] getglobal  13  15       ; Lotus_Game
526C  4E43C406           [063] gettable   13  13  273  ; "KubrowPetInfoDetails_STATUS_AVAILABLE"
fail op	35
5270  23400306           [064] close      0  
5274  1A000380           [065] jmp        13           ; to [79]
5278  0E434303           [066] gettable   12  6   269  ; "mDetails"
527C  0E834406           [067] gettable   12  12  274  ; "mIsPuppy"
5280  18430000           [068] test       12      1    ; to [70] if false
5284  1A000280           [069] jmp        9            ; to [79]
5288  0E434303           [070] gettable   12  6   269  ; "mDetails"
528C  0EC34406           [071] gettable   12  12  275  ; "mDominantTraits"
5290  0E034506           [072] gettable   12  12  276  ; "mPersonality"
5294  24434506           [073] self       12  12  277  ; -1957065004
5298  9D830500           [074] getglobal  14  22       ; checkSuitType
529C  22838001           [075] call       12  3   2  
52A0  18030000           [076] test       12      0    ; to [78] if true
52A4  1A000080           [077] jmp        1            ; to [79]
52A8  1A801380           [078] jmp        79           ; to [158]
52AC  D8000000           [079] test       3       0    ; to [81] if true
52B0  1A400C80           [080] jmp        50           ; to [131]
fail op	33
52B4  21804002           [081] tforloop   0       258  ; to [83] if exit
52B8  1AC00B80           [082] jmp        48           ; to [131]
52BC  D7000000           [083] loadbool   3   0   0    ; false
52C0  06030006           [084] loadnil    12  12     
52C4  4E434303           [085] gettable   13  6   269  ; "mDetails"
52C8  4E83C306           [086] gettable   13  13  270  ; "mStatus"
52CC  9DC30300           [087] getglobal  14  15       ; Lotus_Game
52D0  8EC34507           [088] gettable   14  14  279  ; "KubrowPetInfoDetails_STATUS_INCUBATING"
fail op	35
52D4  23808306           [089] close      0  
52D8  1A000280           [090] jmp        9            ; to [100]
52DC  5D030600           [091] getglobal  13  24       ; Engine
52E0  4E43C606           [092] gettable   13  13  281  ; -794986224
52E4  8E434303           [093] gettable   14  6   269  ; "mDetails"
52E8  8E834607           [094] gettable   14  14  282  ; "mHatchDate"
52EC  62830001           [095] call       13  2   2  
fail op	21
52F0  15400381           [096] concat     0   258 13 
52F4  1A400080           [097] jmp        2            ; to [100]
52F8  1DC30600           [098] getglobal  12  27       ; transmissions
52FC  1A000180           [099] jmp        5            ; to [105]
5300  4E434303           [100] gettable   13  6   269  ; "mDetails"
5304  4E83C406           [101] gettable   13  13  274  ; "mIsPuppy"
5308  58030000           [102] test       13      0    ; to [104] if true
530C  1A000080           [103] jmp        1            ; to [105]
5310  1D030700           [104] getglobal  12  28       ; reminderTrans
5314  18030000           [105] test       12      0    ; to [107] if true
5318  1AC00580           [106] jmp        24           ; to [131]
531C  4A030006           [107] len        13  12     
fail op	21
5320  15400381           [108] concat     0   258 13 
5324  1A000580           [109] jmp        21           ; to [131]
5328  46038006           [110] loadnil    13  13     
532C  9D030100           [111] getglobal  14  4        ; 1074689893
5330  D2038006           [112] move       15  13     
5334  A2830001           [113] call       14  2   2  
5338  98030000           [114] test       14      0    ; to [116] if true
533C  1A800180           [115] jmp        7            ; to [123]
5340  A443C700           [116] self       14  1   285  ; -2135866365
5344  A2830001           [117] call       14  2   2  
5348  52030007           [118] move       13  14     
534C  9D830700           [119] getglobal  14  30       ; 538022378
5350  D9830000           [120] loadk      15  2        ; 0
5354  A2430001           [121] call       14  2   1  
5358  1AC0FC7F           [122] jmp        -12          ; to [111]
535C  93038000           [123] getupval   14  1      
5360  8EC34707           [124] gettable   14  14  287  ; 910246418
5364  DD030800           [125] getglobal  15  32       ; 2144646525
5368  19840200           [126] loadk      16  10       ; 0
536C  4A040006           [127] len        17  12     
5370  E2838001           [128] call       15  3   2  
5374  CEC30306           [129] gettable   15  12  15 
5378  A2430001           [130] call       14  2   1  
537C  99430800           [131] loadk      14  33       ; 0
fail op	21
5380  15800381           [132] concat     0   258 14 
5384  1AC00280           [133] jmp        12           ; to [146]
5388  DD830700           [134] getglobal  15  30       ; 538022378
538C  19840000           [135] loadk      16  2        ; 0
5390  E2430001           [136] call       15  2   1  
fail op	21
5394  15000181           [137] concat     0   258 4  
5398  1A800080           [138] jmp        3            ; to [142]
539C  DD830800           [139] getglobal  15  34       ; 1289681407
53A0  E2838000           [140] call       15  1   2  
53A4  0DC10302           [141] sub        4   4   15 
53A8  DD830800           [142] getglobal  15  34       ; 1289681407
53AC  E2838000           [143] call       15  1   2  
53B0  8DC30307           [144] sub        14  14  15 
53B4  1A40FC7F           [145] jmp        -14          ; to [132]
53B8  DD030100           [146] getglobal  15  4        ; 1074689893
53BC  12040001           [147] move       16  2      
53C0  E2830001           [148] call       15  2   2  
53C4  D8030000           [149] test       15      0    ; to [151] if true
53C8  1A000080           [150] jmp        1            ; to [152]
53CC  1E008000           [151] return     0   1      
53D0  E4434101           [152] self       15  2   261  ; 1865287165
53D4  E2830001           [153] call       15  2   2  
53D8  E4C3C207           [154] self       15  15  267  ; 892650483
53DC  E2830001           [155] call       15  2   2  
53E0  52018007           [156] move       5   15     
53E4  1A00E37F           [157] jmp        -115         ; to [43]
53E8  DD030100           [158] getglobal  15  4        ; 1074689893
53EC  12040001           [159] move       16  2      
53F0  E2830001           [160] call       15  2   2  
53F4  D8430000           [161] test       15      1    ; to [163] if false
53F8  1AC00080           [162] jmp        4            ; to [167]
53FC  E4C34801           [163] self       15  2   291  ; 1139718821
5400  5D040900           [164] getglobal  17  36       ; questProgress
5404  99440900           [165] loadk      18  37       ; "QuestCompleteCallback"
5408  E2430002           [166] call       15  4   1  
540C  D3030001           [167] getupval   15  2      
5410  D8430000           [168] test       15      1    ; to [170] if false
5414  1AC00080           [169] jmp        4            ; to [174]
5418  DD830700           [170] getglobal  15  30       ; 538022378
541C  19440800           [171] loadk      16  33       ; 0
5420  E2430001           [172] call       15  2   1  
5424  1A00FE7F           [173] jmp        -7           ; to [167]
5428  D3038000           [174] getupval   15  1      
542C  CE83C907           [175] gettable   15  15  294  ; -1405662448
5430  E2438000           [176] call       15  1   1  
5434  1E008000           [177] return     0   1      
                         * constants:
5438  27                 sizek (39)
5439  04                 const type 4
543A  12                 string size (18)
543B  67506C6179657250+  "gPlayerP"
5443  726F66696C654D67+  "rofileMg"
544B  7200               "r\0"
                         const [0]: "gPlayerProfileMgr"
544D  01                 const type 3
544E  1A7BEF21           const [1]: (569342746)
5452  03                 const type 3
5453  00000000           const [2]: (0)
5457  01                 const type 3
5458  92104F65           const [3]: (1699680402)
545C  01                 const type 3
545D  65770E40           const [4]: (1074689893)
5461  01                 const type 3
5462  FD052E6F           const [5]: (1865287165)
5466  04                 const type 4
5467  05                 string size (5)
5468  6D61746800         "math\0"
                         const [6]: "math"
546D  01                 const type 3
546E  F7615986           const [7]: (-2040962569)
5472  04                 const type 4
5473  13                 string size (19)
5474  6368616E6365466F+  "chanceFo"
547C  724F6E6552616E64+  "rOneRand"
5484  6F6D00             "om\0"
                         const [8]: "chanceForOneRandom"
5487  03                 const type 3
5488  00000040           const [9]: (0)
548C  03                 const type 3
548D  0000803F           const [10]: (0)
5491  01                 const type 3
5492  F3C33435           const [11]: (892650483)
5496  01                 const type 3
5497  0791B063           const [12]: (1672515847)
549B  04                 const type 4
549C  09                 string size (9)
549D  6D44657461696C73+  "mDetails"
54A5  00                 "\0"
                         const [13]: "mDetails"
54A6  04                 const type 4
54A7  08                 string size (8)
54A8  6D53746174757300   "mStatus\0"
                         const [14]: "mStatus"
54B0  04                 const type 4
54B1  0B                 string size (11)
54B2  4C6F7475735F4761+  "Lotus_Ga"
54BA  6D6500             "me\0"
                         const [15]: "Lotus_Game"
54BD  04                 const type 4
54BE  23                 string size (35)
54BF  4B7562726F775065+  "KubrowPe"
54C7  74496E666F446574+  "tInfoDet"
54CF  61696C735F535441+  "ails_STA"
54D7  5455535F53544153+  "TUS_STAS"
54DF  495300             "IS\0"
                         const [16]: "KubrowPetInfoDetails_STATUS_STASIS"
54E2  04                 const type 4
54E3  26                 string size (38)
54E4  4B7562726F775065+  "KubrowPe"
54EC  74496E666F446574+  "tInfoDet"
54F4  61696C735F535441+  "ails_STA"
54FC  5455535F41564149+  "TUS_AVAI"
5504  4C41424C4500       "LABLE\0"
                         const [17]: "KubrowPetInfoDetails_STATUS_AVAILABLE"
550A  04                 const type 4
550B  09                 string size (9)
550C  6D49735075707079+  "mIsPuppy"
5514  00                 "\0"
                         const [18]: "mIsPuppy"
5515  04                 const type 4
5516  10                 string size (16)
5517  6D446F6D696E616E+  "mDominan"
551F  7454726169747300   "tTraits\0"
                         const [19]: "mDominantTraits"
5527  04                 const type 4
5528  0D                 string size (13)
5529  6D506572736F6E61+  "mPersona"
5531  6C69747900         "lity\0"
                         const [20]: "mPersonality"
5536  01                 const type 3
5537  D48E598B           const [21]: (-1957065004)
553B  04                 const type 4
553C  0E                 string size (14)
553D  636865636B537569+  "checkSui"
5545  745479706500       "tType\0"
                         const [22]: "checkSuitType"
554B  04                 const type 4
554C  27                 string size (39)
554D  4B7562726F775065+  "KubrowPe"
5555  74496E666F446574+  "tInfoDet"
555D  61696C735F535441+  "ails_STA"
5565  5455535F494E4355+  "TUS_INCU"
556D  424154494E4700     "BATING\0"
                         const [23]: "KubrowPetInfoDetails_STATUS_INCUBATING"
5574  04                 const type 4
5575  07                 string size (7)
5576  456E67696E6500     "Engine\0"
                         const [24]: "Engine"
557D  01                 const type 3
557E  10799DD0           const [25]: (-794986224)
5582  04                 const type 4
5583  0B                 string size (11)
5584  6D48617463684461+  "mHatchDa"
558C  746500             "te\0"
                         const [26]: "mHatchDate"
558F  04                 const type 4
5590  0E                 string size (14)
5591  7472616E736D6973+  "transmis"
5599  73696F6E7300       "sions\0"
                         const [27]: "transmissions"
559F  04                 const type 4
55A0  0E                 string size (14)
55A1  72656D696E646572+  "reminder"
55A9  5472616E7300       "Trans\0"
                         const [28]: "reminderTrans"
55AF  01                 const type 3
55B0  0344B180           const [29]: (-2135866365)
55B4  01                 const type 3
55B5  EA911120           const [30]: (538022378)
55B9  01                 const type 3
55BA  12424136           const [31]: (910246418)
55BE  01                 const type 3
55BF  7DB5D47F           const [32]: (2144646525)
55C3  03                 const type 3
55C4  0000803E           const [33]: (0)
55C8  01                 const type 3
55C9  FFF9DE4C           const [34]: (1289681407)
55CD  01                 const type 3
55CE  A5BAEE43           const [35]: (1139718821)
55D2  04                 const type 4
55D3  0E                 string size (14)
55D4  717565737450726F+  "questPro"
55DC  677265737300       "gress\0"
                         const [36]: "questProgress"
55E2  04                 const type 4
55E3  16                 string size (22)
55E4  5175657374436F6D+  "QuestCom"
55EC  706C65746543616C+  "pleteCal"
55F4  6C6261636B00       "lback\0"
                         const [37]: "QuestCompleteCallback"
55FA  01                 const type 3
55FB  104B37AC           const [38]: (-1405662448)
                         * functions:
55FF  00                 sizep (0)
                         * lines:
5601  01                 sizelineinfo (177)
                         [pc] (line)
5602  D1                 [001] (-47)
5603  03                 [002] (-47)
5604  00                 [003] (-47)
5605  00                 [004] (-47)
5606  D1                 [005] (-47)
5607  03                 [006] (-47)
5608  00                 [007] (-46)
5609  00                 [008] (-46)
560A  D1                 [009] (-46)
560B  03                 [010] (-46)
560C  00                 [011] (-46)
560D  00                 [012] (-46)
560E  D1                 [013] (-46)
560F  03                 [014] (-46)
5610  00                 [015] (-46)
5611  00                 [016] (-46)
5612  D1                 [017] (-46)
5613  03                 [018] (-45)
5614  00                 [019] (-43)
5615  00                 [020] (-43)
5616  D1                 [021] (-43)
5617  03                 [022] (-43)
5618  00                 [023] (-43)
5619  00                 [024] (-43)
561A  D2                 [025] (-43)
561B  03                 [026] (-43)
561C  00                 [027] (-42)
561D  00                 [028] (-42)
561E  D2                 [029] (-42)
561F  03                 [030] (-42)
5620  00                 [031] (-42)
5621  00                 [032] (-42)
5622  D2                 [033] (-42)
5623  03                 [034] (-42)
5624  00                 [035] (-42)
5625  00                 [036] (-42)
5626  D2                 [037] (-42)
5627  03                 [038] (-42)
5628  00                 [039] (-40)
5629  00                 [040] (-40)
562A  D2                 [041] (-40)
562B  03                 [042] (-40)
562C  00                 [043] (-37)
562D  00                 [044] (-36)
562E  D2                 [045] (-36)
562F  03                 [046] (-36)
5630  00                 [047] (-36)
5631  00                 [048] (-35)
5632  D2                 [049] (-35)
5633  03                 [050] (-35)
5634  00                 [051] (-35)
5635  00                 [052] (-35)
5636  D2                 [053] (-35)
5637  03                 [054] (-34)
5638  00                 [055] (-33)
5639  00                 [056] (-36)
563A  D2                 [057] (-32)
563B  03                 [058] (-29)
563C  00                 [059] (-29)
563D  00                 [060] (-28)
563E  D2                 [061] (-28)
563F  03                 [062] (-28)
5640  00                 [063] (-28)
5641  00                 [064] (-28)
5642  D2                 [065] (-28)
5643  03                 [066] (-28)
5644  00                 [067] (-28)
5645  00                 [068] (-28)
5646  D3                 [069] (-28)
5647  03                 [070] (-28)
5648  00                 [071] (-28)
5649  00                 [072] (-28)
564A  D5                 [073] (-28)
564B  03                 [074] (-28)
564C  00                 [075] (-28)
564D  00                 [076] (-28)
564E  D5                 [077] (-28)
564F  03                 [078] (-27)
5650  00                 [079] (-24)
5651  00                 [080] (-24)
5652  D5                 [081] (-24)
5653  03                 [082] (-24)
5654  00                 [083] (-23)
5655  00                 [084] (-21)
5656  D5                 [085] (-18)
5657  03                 [086] (-18)
5658  00                 [087] (-18)
5659  00                 [088] (-18)
565A  D5                 [089] (-18)
565B  03                 [090] (-18)
565C  00                 [091] (-18)
565D  00                 [092] (-18)
565E  D5                 [093] (-18)
565F  03                 [094] (-18)
5660  00                 [095] (-18)
5661  00                 [096] (-18)
5662  D5                 [097] (-18)
5663  03                 [098] (-17)
5664  00                 [099] (-17)
5665  00                 [100] (-16)
5666  D5                 [101] (-16)
5667  03                 [102] (-16)
5668  00                 [103] (-16)
5669  00                 [104] (-15)
566A  D6                 [105] (-12)
566B  03                 [106] (-12)
566C  00                 [107] (-12)
566D  00                 [108] (-12)
566E  D6                 [109] (-12)
566F  03                 [110] (-11)
5670  00                 [111] (-10)
5671  00                 [112] (-10)
5672  D6                 [113] (-10)
5673  03                 [114] (-10)
5674  00                 [115] (-10)
5675  00                 [116] (-9)
5676  D6                 [117] (-9)
5677  03                 [118] (-9)
5678  00                 [119] (-8)
5679  00                 [120] (-8)
567A  D6                 [121] (-8)
567B  03                 [122] (-8)
567C  00                 [123] (-5)
567D  00                 [124] (-5)
567E  D6                 [125] (-5)
567F  03                 [126] (-5)
5680  00                 [127] (-5)
5681  00                 [128] (-5)
5682  D6                 [129] (-5)
5683  03                 [130] (-5)
5684  00                 [131] (0)
5685  00                 [132] (1)
5686  D6                 [133] (1)
5687  03                 [134] (2)
5688  00                 [135] (2)
5689  00                 [136] (2)
568A  D6                 [137] (3)
568B  03                 [138] (3)
568C  00                 [139] (4)
568D  00                 [140] (4)
568E  D6                 [141] (4)
568F  03                 [142] (6)
5690  00                 [143] (6)
5691  00                 [144] (6)
5692  D6                 [145] (6)
5693  03                 [146] (8)
5694  00                 [147] (8)
5695  00                 [148] (8)
5696  D6                 [149] (8)
5697  03                 [150] (8)
5698  00                 [151] (9)
5699  00                 [152] (11)
569A  D8                 [153] (11)
569B  03                 [154] (11)
569C  00                 [155] (11)
569D  00                 [156] (11)
569E  D8                 [157] (11)
569F  03                 [158] (14)
56A0  00                 [159] (14)
56A1  00                 [160] (14)
56A2  D8                 [161] (14)
56A3  03                 [162] (14)
56A4  00                 [163] (15)
56A5  00                 [164] (15)
56A6  D8                 [165] (15)
56A7  03                 [166] (15)
56A8  00                 [167] (18)
56A9  00                 [168] (18)
56AA  DB                 [169] (18)
56AB  03                 [170] (19)
56AC  00                 [171] (19)
56AD  00                 [172] (19)
56AE  DC                 [173] (19)
56AF  03                 [174] (21)
56B0  00                 [175] (21)
56B1  00                 [176] (21)
56B2  DC                 [177] (22)
                         * locals:
58C6  00                 sizelocvars (0)
                         * upvalues:
58C7  00                 sizeupvalues (0)
                         ** end of function **

                         
58C8                     ** function [32] definition (level 2)
                         ** start of function **
58C8  00                 string size (0)
                         source name: (none)
58CA  08                 line defined (1048)
58CB  B7                 last line defined (1079)
58CC  08                 nups (2)
58CD  02                 numparams (2)
58CE  02                 is_vararg (0)
58CF  00                 maxstacksize (15)
                         * code:
58D1  54                 sizecode (84)
58D2  9D000000           [01] getglobal  2   0        ; gPlayerProfileMgr
58D6  A4404001           [02] self       2   2   257  ; 569342746
58DA  19810000           [03] loadk      4   2        ; 0
58DE  A2808001           [04] call       2   3   2  
58E2  A4C04001           [05] self       2   2   259  ; 1699680402
58E6  A2800001           [06] call       2   2   2  
58EA  D7008000           [07] loadbool   3   1   0    ; true
58EE  24014101           [08] self       4   2   260  ; 1865287165
58F2  22810001           [09] call       4   2   2  
58F6  24414102           [10] self       4   4   261  ; 892650483
58FA  22810001           [11] call       4   2   2  
58FE  D8000000           [12] test       3       0    ; to [14] if true
5902  1A000A80           [13] jmp        41           ; to [55]
5906  D7000000           [14] loadbool   3   0   0    ; false
590A  5D810100           [15] getglobal  5   6        ; 1672515847
590E  92010002           [16] move       6   4      
5912  62010101           [17] call       5   2   4  
5916  1A800480           [18] jmp        19           ; to [38]
591A  8EC2C104           [19] gettable   10  9   263  ; "mDetails"
591E  8E024205           [20] gettable   10  10  264  ; "mStatus"
5922  DD420200           [21] getglobal  11  9        ; Lotus_Game
5926  CE82C205           [22] gettable   11  11  266  ; "KubrowPetInfoDetails_STATUS_AVAILABLE"
fail op	35
592A  23C00205           [23] close      0  
592E  1A000380           [24] jmp        13           ; to [38]
5932  8EC2C104           [25] gettable   10  9   263  ; "mDetails"
5936  8EC24205           [26] gettable   10  10  267  ; "mIsPuppy"
fail op	35
593A  23004305           [27] close      0  
593E  1A000280           [28] jmp        9            ; to [38]
5942  8EC2C104           [29] gettable   10  9   263  ; "mDetails"
5946  8E424305           [30] gettable   10  10  269  ; "mDominantTraits"
594A  8E824305           [31] gettable   10  10  270  ; "mPersonality"
594E  A4C24305           [32] self       10  10  271  ; -1957065004
5952  1D030400           [33] getglobal  12  16       ; checkSuitType
5956  A2828001           [34] call       10  3   2  
595A  98020000           [35] test       10      0    ; to [37] if true
595E  1A000080           [36] jmp        1            ; to [38]
5962  D7008000           [37] loadbool   3   1   0    ; true
5966  56810000           [38] tforloop   5       2    ; to [40] if exit
596A  1A80FA7F           [39] jmp        -21          ; to [19]
596E  9D420400           [40] getglobal  10  17       ; 538022378
5972  D9820400           [41] loadk      11  18       ; 0
5976  A2420001           [42] call       10  2   1  
597A  9DC20400           [43] getglobal  10  19       ; 1074689893
597E  D2020001           [44] move       11  2      
5982  A2820001           [45] call       10  2   2  
5986  98020000           [46] test       10      0    ; to [48] if true
598A  1A000080           [47] jmp        1            ; to [49]
598E  1A400180           [48] jmp        6            ; to [55]
5992  A4024101           [49] self       10  2   260  ; 1865287165
5996  A2820001           [50] call       10  2   2  
599A  A4424105           [51] self       10  10  261  ; 892650483
599E  A2820001           [52] call       10  2   2  
59A2  12010005           [53] move       4   10     
59A6  1A00F57F           [54] jmp        -43          ; to [12]
59AA  9DC20400           [55] getglobal  10  19       ; 1074689893
59AE  D2020001           [56] move       11  2      
59B2  A2820001           [57] call       10  2   2  
59B6  98420000           [58] test       10      1    ; to [60] if false
59BA  1A400380           [59] jmp        14           ; to [74]
59BE  8A020002           [60] len        10  4      
fail op	21
59C2  15004505           [61] concat     0   10  276
59C6  1A400180           [62] jmp        6            ; to [69]
59CA  A4424501           [63] self       10  2   277  ; 1562059033
59CE  1D830500           [64] getglobal  12  22       ; key
59D2  5DC30500           [65] getglobal  13  23       ; noKubrowsResetQuestStep
59D6  99030600           [66] loadk      14  24       ; "OnQuestsReset"
59DA  A2428002           [67] call       10  5   1  
59DE  1A000180           [68] jmp        5            ; to [74]
59E2  A4424501           [69] self       10  2   277  ; 1562059033
59E6  1D830500           [70] getglobal  12  22       ; key
59EA  5D430600           [71] getglobal  13  25       ; resetQuestStep
59EE  99030600           [72] loadk      14  24       ; "OnQuestsReset"
59F2  A2428002           [73] call       10  5   1  
59F6  93020000           [74] getupval   10  0      
59FA  98420000           [75] test       10      1    ; to [77] if false
59FE  1AC00080           [76] jmp        4            ; to [81]
5A02  9D420400           [77] getglobal  10  17       ; 538022378
5A06  D9820400           [78] loadk      11  18       ; 0
5A0A  A2420001           [79] call       10  2   1  
5A0E  1A00FE7F           [80] jmp        -7           ; to [74]
5A12  93028000           [81] getupval   10  1      
5A16  8E824605           [82] gettable   10  10  282  ; -1405662448
5A1A  A2428000           [83] call       10  1   1  
5A1E  1E008000           [84] return     0   1      
                         * constants:
5A22  1B                 sizek (27)
5A23  04                 const type 4
5A24  12                 string size (18)
5A25  67506C6179657250+  "gPlayerP"
5A2D  726F66696C654D67+  "rofileMg"
5A35  7200               "r\0"
                         const [0]: "gPlayerProfileMgr"
5A37  01                 const type 3
5A38  1A7BEF21           const [1]: (569342746)
5A3C  03                 const type 3
5A3D  00000000           const [2]: (0)
5A41  01                 const type 3
5A42  92104F65           const [3]: (1699680402)
5A46  01                 const type 3
5A47  FD052E6F           const [4]: (1865287165)
5A4B  01                 const type 3
5A4C  F3C33435           const [5]: (892650483)
5A50  01                 const type 3
5A51  0791B063           const [6]: (1672515847)
5A55  04                 const type 4
5A56  09                 string size (9)
5A57  6D44657461696C73+  "mDetails"
5A5F  00                 "\0"
                         const [7]: "mDetails"
5A60  04                 const type 4
5A61  08                 string size (8)
5A62  6D53746174757300   "mStatus\0"
                         const [8]: "mStatus"
5A6A  04                 const type 4
5A6B  0B                 string size (11)
5A6C  4C6F7475735F4761+  "Lotus_Ga"
5A74  6D6500             "me\0"
                         const [9]: "Lotus_Game"
5A77  04                 const type 4
5A78  26                 string size (38)
5A79  4B7562726F775065+  "KubrowPe"
5A81  74496E666F446574+  "tInfoDet"
5A89  61696C735F535441+  "ails_STA"
5A91  5455535F41564149+  "TUS_AVAI"
5A99  4C41424C4500       "LABLE\0"
                         const [10]: "KubrowPetInfoDetails_STATUS_AVAILABLE"
5A9F  04                 const type 4
5AA0  09                 string size (9)
5AA1  6D49735075707079+  "mIsPuppy"
5AA9  00                 "\0"
                         const [11]: "mIsPuppy"
5AAA  01                 const type 3
5AAB  00000000           const [12]: (0)
5AAF  04                 const type 4
5AB0  10                 string size (16)
5AB1  6D446F6D696E616E+  "mDominan"
5AB9  7454726169747300   "tTraits\0"
                         const [13]: "mDominantTraits"
5AC1  04                 const type 4
5AC2  0D                 string size (13)
5AC3  6D506572736F6E61+  "mPersona"
5ACB  6C69747900         "lity\0"
                         const [14]: "mPersonality"
5AD0  01                 const type 3
5AD1  D48E598B           const [15]: (-1957065004)
5AD5  04                 const type 4
5AD6  0E                 string size (14)
5AD7  636865636B537569+  "checkSui"
5ADF  745479706500       "tType\0"
                         const [16]: "checkSuitType"
5AE5  01                 const type 3
5AE6  EA911120           const [17]: (538022378)
5AEA  03                 const type 3
5AEB  0000803E           const [18]: (0)
5AEF  01                 const type 3
5AF0  65770E40           const [19]: (1074689893)
5AF4  03                 const type 3
5AF5  0000803F           const [20]: (0)
5AF9  01                 const type 3
5AFA  19211B5D           const [21]: (1562059033)
5AFE  04                 const type 4
5AFF  04                 string size (4)
5B00  6B657900           "key\0"
                         const [22]: "key"
5B04  04                 const type 4
5B05  18                 string size (24)
5B06  6E6F4B7562726F77+  "noKubrow"
5B0E  7352657365745175+  "sResetQu"
5B16  6573745374657000   "estStep\0"
                         const [23]: "noKubrowsResetQuestStep"
5B1E  04                 const type 4
5B1F  0E                 string size (14)
5B20  4F6E517565737473+  "OnQuests"
5B28  526573657400       "Reset\0"
                         const [24]: "OnQuestsReset"
5B2E  04                 const type 4
5B2F  0F                 string size (15)
5B30  7265736574517565+  "resetQue"
5B38  73745374657000     "stStep\0"
                         const [25]: "resetQuestStep"
5B3F  01                 const type 3
5B40  104B37AC           const [26]: (-1405662448)
                         * functions:
5B44  00                 sizep (0)
                         * lines:
5B45  54                 sizelineinfo (84)
                         [pc] (line)
5B46  19                 [01] (25)
5B47  04                 [02] (25)
5B48  00                 [03] (25)
5B49  00                 [04] (25)
5B4A  19                 [05] (25)
5B4B  04                 [06] (25)
5B4C  00                 [07] (26)
5B4D  00                 [08] (28)
5B4E  19                 [09] (28)
5B4F  04                 [10] (28)
5B50  00                 [11] (28)
5B51  00                 [12] (29)
5B52  19                 [13] (29)
5B53  04                 [14] (30)
5B54  00                 [15] (31)
5B55  00                 [16] (31)
5B56  19                 [17] (31)
5B57  04                 [18] (31)
5B58  00                 [19] (32)
5B59  00                 [20] (32)
5B5A  19                 [21] (32)
5B5B  04                 [22] (32)
5B5C  00                 [23] (32)
5B5D  00                 [24] (32)
5B5E  1A                 [25] (32)
5B5F  04                 [26] (32)
5B60  00                 [27] (32)
5B61  00                 [28] (32)
5B62  1C                 [29] (32)
5B63  04                 [30] (32)
5B64  00                 [31] (32)
5B65  00                 [32] (32)
5B66  1C                 [33] (32)
5B67  04                 [34] (32)
5B68  00                 [35] (32)
5B69  00                 [36] (32)
5B6A  1C                 [37] (33)
5B6B  04                 [38] (31)
5B6C  00                 [39] (34)
5B6D  00                 [40] (36)
5B6E  1C                 [41] (36)
5B6F  04                 [42] (36)
5B70  00                 [43] (37)
5B71  00                 [44] (37)
5B72  1D                 [45] (37)
5B73  04                 [46] (37)
5B74  00                 [47] (37)
5B75  00                 [48] (38)
5B76  1D                 [49] (40)
5B77  04                 [50] (40)
5B78  00                 [51] (40)
5B79  00                 [52] (40)
5B7A  1E                 [53] (40)
5B7B  04                 [54] (40)
5B7C  00                 [55] (43)
5B7D  00                 [56] (43)
5B7E  1F                 [57] (43)
5B7F  04                 [58] (43)
5B80  00                 [59] (43)
5B81  00                 [60] (44)
5B82  1F                 [61] (44)
5B83  04                 [62] (44)
5B84  00                 [63] (45)
5B85  00                 [64] (45)
5B86  1F                 [65] (45)
5B87  04                 [66] (45)
5B88  00                 [67] (45)
5B89  00                 [68] (45)
5B8A  1F                 [69] (47)
5B8B  04                 [70] (47)
5B8C  00                 [71] (47)
5B8D  00                 [72] (47)
5B8E  20                 [73] (47)
5B8F  04                 [74] (51)
5B90  00                 [75] (51)
5B91  00                 [76] (51)
5B92  20                 [77] (52)
5B93  04                 [78] (52)
5B94  00                 [79] (52)
5B95  00                 [80] (52)
5B96  20                 [81] (54)
5B97  04                 [82] (54)
5B98  00                 [83] (54)
5B99  00                 [84] (55)
                         * locals:
5C96  00                 sizelocvars (0)
                         * upvalues:
5C97  00                 sizeupvalues (0)
                         ** end of function **

                         
5C98                     ** function [33] definition (level 2)
                         ** start of function **
5C98  00                 string size (0)
                         source name: (none)
5C9A  08                 line defined (1081)
5C9B  D6                 last line defined (1110)
5C9C  08                 nups (3)
5C9D  03                 numparams (2)
5C9E  02                 is_vararg (0)
5C9F  00                 maxstacksize (9)
                         * code:
5CA1  31                 sizecode (49)
5CA2  9D000000           [01] getglobal  2   0        ; gPlayerProfileMgr
5CA6  A4404001           [02] self       2   2   257  ; 569342746
5CAA  19810000           [03] loadk      4   2        ; 0
5CAE  A2808001           [04] call       2   3   2  
5CB2  E4C04001           [05] self       3   2   259  ; 1699680402
5CB6  E2800001           [06] call       3   2   2  
5CBA  1D010100           [07] getglobal  4   4        ; 1074689893
5CBE  52018001           [08] move       5   3      
5CC2  22810001           [09] call       4   2   2  
5CC6  18010000           [10] test       4       0    ; to [12] if true
5CCA  1A000080           [11] jmp        1            ; to [13]
5CCE  1E008000           [12] return     0   1      
5CD2  2441C101           [13] self       4   3   261  ; 1865287165
5CD6  22810001           [14] call       4   2   2  
5CDA  24814102           [15] self       4   4   262  ; 39075295
5CDE  22810001           [16] call       4   2   2  
5CE2  18010000           [17] test       4       0    ; to [19] if true
5CE6  1A000080           [18] jmp        1            ; to [20]
5CEA  1AC00080           [19] jmp        4            ; to [24]
5CEE  1DC10100           [20] getglobal  4   7        ; 538022378
5CF2  59010200           [21] loadk      5   8        ; 0
5CF6  22410001           [22] call       4   2   1  
5CFA  1A80FB7F           [23] jmp        -17          ; to [7]
5CFE  1D410200           [24] getglobal  4   9        ; questProgress
5D02  5D810200           [25] getglobal  5   10       ; resetQuestStep
fail op	21
5D06  15400102           [26] concat     0   4   5  
5D0A  1A400480           [27] jmp        18           ; to [46]
5D0E  64C1C201           [28] self       5   3   267  ; 1139718821
5D12  D2010002           [29] move       7   4      
5D16  19020300           [30] loadk      8   12       ; "QuestCompleteCallback"
5D1A  62410002           [31] call       5   4   1  
5D1E  53010000           [32] getupval   5   0      
5D22  58410000           [33] test       5       1    ; to [35] if false
5D26  1AC00080           [34] jmp        4            ; to [39]
5D2A  5DC10100           [35] getglobal  5   7        ; 538022378
5D2E  99410300           [36] loadk      6   13       ; 0
5D32  62410001           [37] call       5   2   1  
5D36  1A00FE7F           [38] jmp        -7           ; to [32]
5D3A  57010000           [39] loadbool   5   0   0    ; false
fail op	8
5D3E  48010000           [40] setupval   5   0      
5D42  53018000           [41] getupval   5   1      
5D46  58010000           [42] test       5       0    ; to [44] if true
5D4A  1A00FB7F           [43] jmp        -19          ; to [25]
5D4E  03014202           [44] add        4   4   264  ; 0
5D52  1A80FA7F           [45] jmp        -21          ; to [25]
5D56  53010001           [46] getupval   5   2      
5D5A  4E81C302           [47] gettable   5   5   270  ; -1405662448
5D5E  62418000           [48] call       5   1   1  
5D62  1E008000           [49] return     0   1      
                         * constants:
5D66  0F                 sizek (15)
5D67  04                 const type 4
5D68  12                 string size (18)
5D69  67506C6179657250+  "gPlayerP"
5D71  726F66696C654D67+  "rofileMg"
5D79  7200               "r\0"
                         const [0]: "gPlayerProfileMgr"
5D7B  01                 const type 3
5D7C  1A7BEF21           const [1]: (569342746)
5D80  03                 const type 3
5D81  00000000           const [2]: (0)
5D85  01                 const type 3
5D86  92104F65           const [3]: (1699680402)
5D8A  01                 const type 3
5D8B  65770E40           const [4]: (1074689893)
5D8F  01                 const type 3
5D90  FD052E6F           const [5]: (1865287165)
5D94  01                 const type 3
5D95  DF3D5402           const [6]: (39075295)
5D99  01                 const type 3
5D9A  EA911120           const [7]: (538022378)
5D9E  03                 const type 3
5D9F  0000803F           const [8]: (0)
5DA3  04                 const type 4
5DA4  0E                 string size (14)
5DA5  717565737450726F+  "questPro"
5DAD  677265737300       "gress\0"
                         const [9]: "questProgress"
5DB3  04                 const type 4
5DB4  0F                 string size (15)
5DB5  7265736574517565+  "resetQue"
5DBD  73745374657000     "stStep\0"
                         const [10]: "resetQuestStep"
5DC4  01                 const type 3
5DC5  A5BAEE43           const [11]: (1139718821)
5DC9  04                 const type 4
5DCA  16                 string size (22)
5DCB  5175657374436F6D+  "QuestCom"
5DD3  706C65746543616C+  "pleteCal"
5DDB  6C6261636B00       "lback\0"
                         const [12]: "QuestCompleteCallback"
5DE1  03                 const type 3
5DE2  0000803E           const [13]: (0)
5DE6  01                 const type 3
5DE7  104B37AC           const [14]: (-1405662448)
                         * functions:
5DEB  00                 sizep (0)
                         * lines:
5DEC  31                 sizelineinfo (49)
                         [pc] (line)
5DED  3A                 [01] (58)
5DEE  04                 [02] (58)
5DEF  00                 [03] (58)
5DF0  00                 [04] (58)
5DF1  3A                 [05] (59)
5DF2  04                 [06] (59)
5DF3  00                 [07] (61)
5DF4  00                 [08] (61)
5DF5  3A                 [09] (61)
5DF6  04                 [10] (61)
5DF7  00                 [11] (61)
5DF8  00                 [12] (62)
5DF9  3A                 [13] (64)
5DFA  04                 [14] (64)
5DFB  00                 [15] (64)
5DFC  00                 [16] (64)
5DFD  3B                 [17] (64)
5DFE  04                 [18] (64)
5DFF  00                 [19] (65)
5E00  00                 [20] (68)
5E01  3B                 [21] (68)
5E02  04                 [22] (68)
5E03  00                 [23] (68)
5E04  00                 [24] (71)
5E05  3D                 [25] (72)
5E06  04                 [26] (72)
5E07  00                 [27] (72)
5E08  00                 [28] (73)
5E09  3D                 [29] (73)
5E0A  04                 [30] (73)
5E0B  00                 [31] (73)
5E0C  00                 [32] (75)
5E0D  3D                 [33] (75)
5E0E  04                 [34] (75)
5E0F  00                 [35] (76)
5E10  00                 [36] (76)
5E11  3D                 [37] (76)
5E12  04                 [38] (76)
5E13  00                 [39] (78)
5E14  00                 [40] (78)
5E15  3D                 [41] (80)
5E16  04                 [42] (80)
5E17  00                 [43] (80)
5E18  00                 [44] (81)
5E19  3E                 [45] (82)
5E1A  04                 [46] (85)
5E1B  00                 [47] (85)
5E1C  00                 [48] (85)
5E1D  40                 [49] (86)
                         * locals:
5EB1  00                 sizelocvars (0)
                         * upvalues:
5EB2  00                 sizeupvalues (0)
                         ** end of function **

                         
5EB3                     ** function [34] definition (level 2)
                         ** start of function **
5EB3  00                 string size (0)
                         source name: (none)
5EB5  08                 line defined (1112)
5EB6  E0                 last line defined (1120)
5EB7  08                 nups (0)
5EB8  00                 numparams (0)
5EB9  00                 is_vararg (0)
5EBA  00                 maxstacksize (5)
                         * code:
5EBC  10                 sizecode (16)
5EBD  1D000000           [01] getglobal  0   0        ; gGameRules
5EC1  5D400000           [02] getglobal  1   1        ; 1074689893
5EC5  92000000           [03] move       2   0      
5EC9  62800001           [04] call       1   2   2  
5ECD  58000000           [05] test       1       0    ; to [7] if true
5ED1  1A000180           [06] jmp        5            ; to [12]
5ED5  1D000000           [07] getglobal  0   0        ; gGameRules
5ED9  5D800000           [08] getglobal  1   2        ; 538022378
5EDD  99C00000           [09] loadk      2   3        ; 0
5EE1  62400001           [10] call       1   2   1  
5EE5  1A40FD7F           [11] jmp        -10          ; to [2]
5EE9  64004100           [12] self       1   0   260  ; 1575106704
5EED  DD400100           [13] getglobal  3   5        ; itemDropChance
5EF1  1D810100           [14] getglobal  4   6        ; itemDrop
5EF5  62400002           [15] call       1   4   1  
5EF9  1E008000           [16] return     0   1      
                         * constants:
5EFD  07                 sizek (7)
5EFE  04                 const type 4
5EFF  0B                 string size (11)
5F00  6747616D6552756C+  "gGameRul"
5F08  657300             "es\0"
                         const [0]: "gGameRules"
5F0B  01                 const type 3
5F0C  65770E40           const [1]: (1074689893)
5F10  01                 const type 3
5F11  EA911120           const [2]: (538022378)
5F15  03                 const type 3
5F16  00000000           const [3]: (0)
5F1A  01                 const type 3
5F1B  9038E25D           const [4]: (1575106704)
5F1F  04                 const type 4
5F20  0F                 string size (15)
5F21  6974656D44726F70+  "itemDrop"
5F29  4368616E636500     "Chance\0"
                         const [5]: "itemDropChance"
5F30  04                 const type 4
5F31  09                 string size (9)
5F32  6974656D44726F70+  "itemDrop"
5F3A  00                 "\0"
                         const [6]: "itemDrop"
                         * functions:
5F3B  00                 sizep (0)
                         * lines:
5F3C  10                 sizelineinfo (16)
                         [pc] (line)
5F3D  59                 [01] (89)
5F3E  04                 [02] (90)
5F3F  00                 [03] (90)
5F40  00                 [04] (90)
5F41  5A                 [05] (90)
5F42  04                 [06] (90)
5F43  00                 [07] (91)
5F44  00                 [08] (92)
5F45  5A                 [09] (92)
5F46  04                 [10] (92)
5F47  00                 [11] (92)
5F48  00                 [12] (95)
5F49  5A                 [13] (95)
5F4A  04                 [14] (95)
5F4B  00                 [15] (95)
5F4C  00                 [16] (96)
                         * locals:
5F7D  00                 sizelocvars (0)
                         * upvalues:
5F7E  00                 sizeupvalues (0)
                         ** end of function **

                         
5F7F                     ** function [35] definition (level 2)
                         ** start of function **
5F7F  00                 string size (0)
                         source name: (none)
5F81  08                 line defined (1122)
5F82  E4                 last line defined (1124)
5F83  08                 nups (1)
5F84  01                 numparams (2)
5F85  02                 is_vararg (0)
5F86  00                 maxstacksize (3)
                         * code:
5F88  05                 sizecode (5)
5F89  8B800000           [1] newtable   2   0   2    ; array=0, hash=2
5F8D  8C000080           [2] settable   2   256 0    ; "Success"
5F91  8C408080           [3] settable   2   257 1    ; "Body"
fail op	8
5F95  88000000           [4] setupval   2   0      
5F99  1E008000           [5] return     0   1      
                         * constants:
5F9D  02                 sizek (2)
5F9E  04                 const type 4
5F9F  08                 string size (8)
5FA0  5375636365737300   "Success\0"
                         const [0]: "Success"
5FA8  04                 const type 4
5FA9  05                 string size (5)
5FAA  426F647900         "Body\0"
                         const [1]: "Body"
                         * functions:
5FAF  00                 sizep (0)
                         * lines:
5FB0  05                 sizelineinfo (5)
                         [pc] (line)
5FB1  63                 [1] (99)
5FB2  04                 [2] (99)
5FB3  00                 [3] (99)
5FB4  00                 [4] (99)
5FB5  63                 [5] (100)
                         * locals:
5FC5  00                 sizelocvars (0)
                         * upvalues:
5FC6  00                 sizeupvalues (0)
                         ** end of function **

                         
5FC7                     ** function [36] definition (level 2)
                         ** start of function **
5FC7  00                 string size (0)
                         source name: (none)
5FC9  08                 line defined (1129)
5FCA  85                 last line defined (1157)
5FCB  09                 nups (1)
5FCC  01                 numparams (1)
5FCD  01                 is_vararg (0)
5FCE  00                 maxstacksize (5)
                         * code:
5FD0  33                 sizecode (51)
5FD1  5D000000           [01] getglobal  1   0        ; 1074689893
5FD5  92000000           [02] move       2   0      
5FD9  62800001           [03] call       1   2   2  
5FDD  58000000           [04] test       1       0    ; to [6] if true
5FE1  1A400080           [05] jmp        2            ; to [8]
5FE5  59400000           [06] loadk      1   1        ; 0
5FE9  5E000001           [07] return     1   2      
5FED  5D800000           [08] getglobal  1   2        ; lotusChallengeMgr
5FF1  64C0C000           [09] self       1   1   259  ; 1691264021
5FF5  D2000000           [10] move       3   0      
5FF9  62808001           [11] call       1   3   2  
5FFD  58000000           [12] test       1       0    ; to [14] if true
6001  1A800080           [13] jmp        3            ; to [17]
6005  59000100           [14] loadk      1   4        ; 0
6009  5E000001           [15] return     1   2      
600D  1AC00780           [16] jmp        32           ; to [49]
6011  5D400100           [17] getglobal  1   5        ; -1817107093
6015  99800100           [18] loadk      2   6        ; "Conditional challenge not completed, skipping stage"
6019  62400001           [19] call       1   2   1  
601D  46008000           [20] loadnil    1   1      
6021  9DC00100           [21] getglobal  2   7        ; gPlayerProfileMgr
6025  A4004201           [22] self       2   2   264  ; 569342746
6029  19410200           [23] loadk      4   9        ; 0
602D  A2808001           [24] call       2   3   2  
6031  DD000000           [25] getglobal  3   0        ; 1074689893
6035  12010001           [26] move       4   2      
6039  E2800001           [27] call       3   2   2  
603D  D8400000           [28] test       3       1    ; to [30] if false
6041  1A800080           [29] jmp        3            ; to [33]
6045  E4804201           [30] self       3   2   266  ; 1699680402
6049  E2800001           [31] call       3   2   2  
604D  52008001           [32] move       1   3      
6051  DD000000           [33] getglobal  3   0        ; 1074689893
6055  12018000           [34] move       4   1      
6059  E2800001           [35] call       3   2   2  
605D  D8000000           [36] test       3       0    ; to [38] if true
6061  1A400180           [37] jmp        6            ; to [44]
6065  DDC00200           [38] getglobal  3   11       ; 538022378
6069  19410200           [39] loadk      4   9        ; 0
606D  E2400001           [40] call       3   2   1  
6071  1A80FA7F           [41] jmp        -21          ; to [21]
6075  1A000080           [42] jmp        1            ; to [44]
6079  1A00FA7F           [43] jmp        -23          ; to [21]
607D  D3000000           [44] getupval   3   0      
6081  12018000           [45] move       4   1      
6085  E2400001           [46] call       3   2   1  
6089  D9400200           [47] loadk      3   9        ; 0
608D  DE000001           [48] return     3   2      
6091  D9400200           [49] loadk      3   9        ; 0
6095  DE000001           [50] return     3   2      
6099  1E008000           [51] return     0   1      
                         * constants:
609D  0C                 sizek (12)
609E  01                 const type 3
609F  65770E40           const [0]: (1074689893)
60A3  03                 const type 3
60A4  00000040           const [1]: (0)
60A8  04                 const type 4
60A9  12                 string size (18)
60AA  6C6F747573436861+  "lotusCha"
60B2  6C6C656E67654D67+  "llengeMg"
60BA  7200               "r\0"
                         const [2]: "lotusChallengeMgr"
60BC  01                 const type 3
60BD  15A4CE64           const [3]: (1691264021)
60C1  03                 const type 3
60C2  0000803F           const [4]: (0)
60C6  01                 const type 3
60C7  6B25B193           const [5]: (-1817107093)
60CB  04                 const type 4
60CC  34                 string size (52)
60CD  436F6E646974696F+  "Conditio"
60D5  6E616C206368616C+  "nal chal"
60DD  6C656E6765206E6F+  "lenge no"
60E5  7420636F6D706C65+  "t comple"
60ED  7465642C20736B69+  "ted, ski"
60F5  7070696E67207374+  "pping st"
60FD  61676500           "age\0"
                         const [6]: "Conditional challenge not completed, skipping stage"
6101  04                 const type 4
6102  12                 string size (18)
6103  67506C6179657250+  "gPlayerP"
610B  726F66696C654D67+  "rofileMg"
6113  7200               "r\0"
                         const [7]: "gPlayerProfileMgr"
6115  01                 const type 3
6116  1A7BEF21           const [8]: (569342746)
611A  03                 const type 3
611B  00000000           const [9]: (0)
611F  01                 const type 3
6120  92104F65           const [10]: (1699680402)
6124  01                 const type 3
6125  EA911120           const [11]: (538022378)
                         * functions:
6129  00                 sizep (0)
                         * lines:
612A  33                 sizelineinfo (51)
                         [pc] (line)
612B  6A                 [01] (106)
612C  04                 [02] (106)
612D  00                 [03] (106)
612E  00                 [04] (106)
612F  6A                 [05] (106)
6130  04                 [06] (107)
6131  00                 [07] (107)
6132  00                 [08] (110)
6133  6A                 [09] (110)
6134  04                 [10] (110)
6135  00                 [11] (110)
6136  00                 [12] (110)
6137  6A                 [13] (110)
6138  04                 [14] (111)
6139  00                 [15] (111)
613A  00                 [16] (111)
613B  6A                 [17] (113)
613C  04                 [18] (113)
613D  00                 [19] (113)
613E  00                 [20] (114)
613F  6B                 [21] (116)
6140  04                 [22] (116)
6141  00                 [23] (116)
6142  00                 [24] (116)
6143  6B                 [25] (117)
6144  04                 [26] (117)
6145  00                 [27] (117)
6146  00                 [28] (117)
6147  6E                 [29] (117)
6148  04                 [30] (118)
6149  00                 [31] (118)
614A  00                 [32] (118)
614B  6E                 [33] (121)
614C  04                 [34] (121)
614D  00                 [35] (121)
614E  00                 [36] (121)
614F  6E                 [37] (121)
6150  04                 [38] (122)
6151  00                 [39] (122)
6152  00                 [40] (122)
6153  6E                 [41] (122)
6154  04                 [42] (124)
6155  00                 [43] (125)
6156  00                 [44] (-128)
6157  6E                 [45] (-128)
6158  04                 [46] (-128)
6159  00                 [47] (-127)
615A  00                 [48] (-127)
615B  6E                 [49] (-124)
615C  04                 [50] (-124)
615D  00                 [51] (-123)
                         * locals:
61F7  00                 sizelocvars (0)
                         * upvalues:
61F8  00                 sizeupvalues (0)
                         ** end of function **

                         
61F9                     ** function [37] definition (level 2)
                         ** start of function **
61F9  00                 string size (0)
                         source name: (none)
61FB  09                 line defined (1159)
61FC  9E                 last line defined (1310)
61FD  0A                 nups (11)
61FE  0B                 numparams (0)
61FF  00                 is_vararg (0)
6200  00                 maxstacksize (14)
                         * code:
6203  02                 sizecode (272)
6204  1D000000           [001] getglobal  0   0        ; lotusChallengeMgr
6208  20000000           [002] setglobal  0   0        ; lotusChallengeMgr
620C  13000000           [003] getupval   0   0      
6210  5D400000           [004] getglobal  1   1        ; conditionalChallenge
6214  22800001           [005] call       0   2   2  
fail op	35
6218  23804000           [006] close      0  
621C  1A000080           [007] jmp        1            ; to [9]
6220  1E008000           [008] return     0   1      
6224  5DC00000           [009] getglobal  1   3        ; _T
6228  9DC00000           [010] getglobal  2   3        ; _T
622C  8E004101           [011] gettable   2   2   260  ; "QuestOperationsInProgress"
6230  98400000           [012] test       2       1    ; to [14] if false
6234  1A000080           [013] jmp        1            ; to [15]
6238  99800000           [014] loadk      2   2        ; 0
623C  83404101           [015] add        2   2   261  ; 0
6240  4C800082           [016] settable   1   260 2    ; "QuestOperationsInProgress"
6244  59800100           [017] loadk      1   6        ; "Trigger message: "
6248  9DC00100           [018] getglobal  2   7        ; 1074689893
624C  DD000200           [019] getglobal  3   8        ; key
6250  A2800001           [020] call       2   2   2  
6254  98400000           [021] test       2       1    ; to [23] if false
6258  1AC00180           [022] jmp        8            ; to [31]
625C  92008000           [023] move       2   1      
6260  DD400200           [024] getglobal  3   9        ; -1615931716
6264  1D010200           [025] getglobal  4   8        ; key
6268  24814202           [026] self       4   4   266  ; 455421500
626C  22010001           [027] call       4   2   0  
6270  E2800000           [028] call       3   0   2  
6274  42C00001           [029] concat     1   2   3  
6278  1A800080           [030] jmp        3            ; to [34]
627C  92008000           [031] move       2   1      
6280  D9C00200           [032] loadk      3   11       ; "unknown key"
6284  42C00001           [033] concat     1   2   3  
6288  9D000300           [034] getglobal  2   12       ; -1817107093
628C  D2008000           [035] move       3   1      
6290  A2400001           [036] call       2   2   1  
6294  86000001           [037] loadnil    2   2      
6298  DD400300           [038] getglobal  3   13       ; gPlayerProfileMgr
629C  E480C301           [039] self       3   3   270  ; 569342746
62A0  59810000           [040] loadk      5   2        ; 0
62A4  E2808001           [041] call       3   3   2  
62A8  1DC10100           [042] getglobal  4   7        ; 1074689893
62AC  52018001           [043] move       5   3      
62B0  22810001           [044] call       4   2   2  
62B4  18410000           [045] test       4       1    ; to [47] if false
62B8  1A800080           [046] jmp        3            ; to [50]
62BC  24C1C301           [047] self       4   3   271  ; 1699680402
62C0  22810001           [048] call       4   2   2  
62C4  92000002           [049] move       2   4      
62C8  1DC10100           [050] getglobal  4   7        ; 1074689893
62CC  52010001           [051] move       5   2      
62D0  22810001           [052] call       4   2   2  
62D4  18010000           [053] test       4       0    ; to [55] if true
62D8  1A400180           [054] jmp        6            ; to [61]
62DC  1D010400           [055] getglobal  4   16       ; 538022378
62E0  59810000           [056] loadk      5   2        ; 0
62E4  22410001           [057] call       4   2   1  
62E8  1A80FA7F           [058] jmp        -21          ; to [38]
62EC  1A000080           [059] jmp        1            ; to [61]
62F0  1A00FA7F           [060] jmp        -23          ; to [38]
62F4  06010002           [061] loadnil    4   4      
62F8  5D410400           [062] getglobal  5   17       ; useCurrentStage
62FC  58010000           [063] test       5       0    ; to [65] if true
6300  1A400180           [064] jmp        6            ; to [71]
6304  53018000           [065] getupval   5   1      
6308  92010001           [066] move       6   2      
630C  D7018000           [067] loadbool   7   1   0    ; true
6310  62818001           [068] call       5   3   2  
6314  12018002           [069] move       4   5      
6318  1A000080           [070] jmp        1            ; to [72]
631C  1D810400           [071] getglobal  4   18       ; messageTriggerStage
6320  5DC10400           [072] getglobal  5   19       ; -2042208176
6324  62818000           [073] call       5   1   2  
6328  58010000           [074] test       5       0    ; to [76] if true
632C  1A000280           [075] jmp        9            ; to [85]
6330  5D010500           [076] getglobal  5   20       ; chinaBuildMessageTriggerStage
fail op	33
6334  21400181           [077] tforloop   0       5    ; to [79] if exit
6338  1A400180           [078] jmp        6            ; to [85]
633C  5D410500           [079] getglobal  5   21       ; Engine
6340  4E81C502           [080] gettable   5   5   278  ; 328784635
6344  62818000           [081] call       5   1   2  
6348  58410000           [082] test       5       1    ; to [84] if false
634C  1A000080           [083] jmp        1            ; to [85]
6350  1D010500           [084] getglobal  4   20       ; chinaBuildMessageTriggerStage
6354  5DC10500           [085] getglobal  5   23       ; 738251817
6358  99010600           [086] loadk      6   24       ; "/Lotus/Interface/Codex.swf"
635C  62810001           [087] call       5   2   2  
6360  9D410600           [088] getglobal  6   25       ; gFlashMgr
6364  A4814603           [089] self       6   6   282  ; 1634586770
6368  12028002           [090] move       8   5      
636C  A2818001           [091] call       6   3   2  
6370  DDC10100           [092] getglobal  7   7        ; 1074689893
6374  12020003           [093] move       8   6      
6378  E2810001           [094] call       7   2   2  
637C  D8010000           [095] test       7       0    ; to [97] if true
6380  1A400080           [096] jmp        2            ; to [99]
6384  1A000180           [097] jmp        5            ; to [103]
6388  1A00FD7F           [098] jmp        -11          ; to [88]
638C  DD010400           [099] getglobal  7   16       ; 538022378
6390  19820000           [100] loadk      8   2        ; 0
6394  E2410001           [101] call       7   2   1  
6398  1A00FC7F           [102] jmp        -15          ; to [88]
639C  E4C14601           [103] self       7   2   283  ; -363505475
63A0  5D020200           [104] getglobal  9   8        ; key
63A4  92020002           [105] move       10  4      
63A8  E2810002           [106] call       7   4   2  
63AC  D8410000           [107] test       7       1    ; to [109] if false
63B0  1A001A80           [108] jmp        105          ; to [214]
63B4  DD010400           [109] getglobal  7   16       ; 538022378
63B8  19820000           [110] loadk      8   2        ; 0
63BC  E2410001           [111] call       7   2   1  
63C0  DDC10100           [112] getglobal  7   7        ; 1074689893
63C4  12020001           [113] move       8   2      
63C8  E2810001           [114] call       7   2   2  
63CC  D8010000           [115] test       7       0    ; to [117] if true
63D0  1AC00080           [116] jmp        4            ; to [121]
63D4  DD010400           [117] getglobal  7   16       ; 538022378
63D8  19020700           [118] loadk      8   28       ; 0
63DC  E2410001           [119] call       7   2   1  
63E0  1AC0FE7F           [120] jmp        -4           ; to [117]
63E4  E4414701           [121] self       7   2   285  ; -226738743
63E8  5D020200           [122] getglobal  9   8        ; key
63EC  92020002           [123] move       10  4      
63F0  D9820700           [124] loadk      11  30       ; "OnMessageTriggered"
63F4  E2418002           [125] call       7   5   1  
63F8  DDC10100           [126] getglobal  7   7        ; 1074689893
63FC  13020001           [127] getupval   8   2      
6400  E2810001           [128] call       7   2   2  
6404  D8010000           [129] test       7       0    ; to [131] if true
6408  1AC00080           [130] jmp        4            ; to [135]
640C  DD010400           [131] getglobal  7   16       ; 538022378
6410  19C20700           [132] loadk      8   31       ; 0
6414  E2410001           [133] call       7   2   1  
6418  1A80FD7F           [134] jmp        -9           ; to [126]
641C  D3010001           [135] getupval   7   2      
6420  CE01C803           [136] gettable   7   7   288  ; "Success"
6424  D8010000           [137] test       7       0    ; to [139] if true
6428  1A000F80           [138] jmp        61           ; to [200]
642C  E4414801           [139] self       7   2   289  ; -242546120
6430  59820800           [140] loadk      9   34       ; "OnSyncInbox"
6434  E2418001           [141] call       7   3   1  
6438  D3018001           [142] getupval   7   3      
643C  D8410000           [143] test       7       1    ; to [145] if false
6440  1AC00080           [144] jmp        4            ; to [149]
6444  DD010400           [145] getglobal  7   16       ; 538022378
6448  19C20700           [146] loadk      8   31       ; 0
644C  E2410001           [147] call       7   2   1  
6450  1A00FE7F           [148] jmp        -7           ; to [142]
6454  D3010002           [149] getupval   7   4      
6458  D8010000           [150] test       7       0    ; to [152] if true
645C  1AC00980           [151] jmp        40           ; to [192]
6460  D3018002           [152] getupval   7   5      
6464  D8010000           [153] test       7       0    ; to [155] if true
6468  1A800E80           [154] jmp        59           ; to [214]
646C  D7010000           [155] loadbool   7   0   0    ; false
fail op	8
6470  C8018002           [156] setupval   7   5      
6474  DDC10500           [157] getglobal  7   23       ; 738251817
6478  19C20800           [158] loadk      8   35       ; "/Lotus/Interface/Inbox.swf"
647C  E2810001           [159] call       7   2   2  
6480  1D420600           [160] getglobal  8   25       ; gFlashMgr
6484  24824604           [161] self       8   8   282  ; 1634586770
6488  92028003           [162] move       10  7      
648C  22828001           [163] call       8   3   2  
6490  5DC20100           [164] getglobal  9   7        ; 1074689893
6494  92020004           [165] move       10  8      
6498  62820001           [166] call       9   2   2  
649C  58420000           [167] test       9       1    ; to [169] if false
64A0  1A400080           [168] jmp        2            ; to [171]
64A4  1A000180           [169] jmp        5            ; to [175]
64A8  1A00FD7F           [170] jmp        -11          ; to [160]
64AC  5D020400           [171] getglobal  9   16       ; 538022378
64B0  99820000           [172] loadk      10  2        ; 0
64B4  62420001           [173] call       9   2   1  
64B8  1A00FC7F           [174] jmp        -15          ; to [160]
64BC  5D420600           [175] getglobal  9   25       ; gFlashMgr
64C0  6482C604           [176] self       9   9   282  ; 1634586770
64C4  D2028003           [177] move       11  7      
64C8  62828001           [178] call       9   3   2  
64CC  9DC20100           [179] getglobal  10  7        ; 1074689893
64D0  D2028004           [180] move       11  9      
64D4  A2820001           [181] call       10  2   2  
64D8  98020000           [182] test       10      0    ; to [184] if true
64DC  1A400080           [183] jmp        2            ; to [186]
64E0  1A000780           [184] jmp        29           ; to [214]
64E4  1A00FD7F           [185] jmp        -11          ; to [175]
64E8  9D020400           [186] getglobal  10  16       ; 538022378
64EC  D9820000           [187] loadk      11  2        ; 0
64F0  A2420001           [188] call       10  2   1  
64F4  1A00FC7F           [189] jmp        -15          ; to [175]
64F8  1A800580           [190] jmp        23           ; to [214]
64FC  1A80F27F           [191] jmp        -53          ; to [139]
6500  97020000           [192] loadbool   10  0   0    ; false
fail op	8
6504  88028001           [193] setupval   10  3      
6508  9D020400           [194] getglobal  10  16       ; 538022378
650C  D9020900           [195] loadk      11  36       ; 0
6510  A2420001           [196] call       10  2   1  
6514  1A00F17F           [197] jmp        -59          ; to [139]
6518  1A800380           [198] jmp        15           ; to [214]
651C  1A800280           [199] jmp        11           ; to [211]
6520  93020003           [200] getupval   10  6      
6524  83424105           [201] add        10  10  261  ; 0
fail op	8
6528  88020003           [202] setupval   10  6      
652C  9D020400           [203] getglobal  10  16       ; 538022378
6530  DD420900           [204] getglobal  11  37       ; math
6534  CE82C905           [205] gettable   11  11  294  ; 1710846250
6538  19C30900           [206] loadk      12  39       ; 0
653C  53030003           [207] getupval   13  6      
6540  44430394           [208] mul        13  296 13   ; 0
6544  E2028001           [209] call       11  3   0  
6548  A2420000           [210] call       10  0   1  
654C  86020005           [211] loadnil    10  10     
fail op	8
6550  88020001           [212] setupval   10  2      
6554  1A80E57F           [213] jmp        -105         ; to [109]
6558  9DC20000           [214] getglobal  10  3        ; _T
655C  DDC20000           [215] getglobal  11  3        ; _T
6560  CE02C105           [216] gettable   11  11  260  ; "QuestOperationsInProgress"
6564  CD42C105           [217] sub        11  11  261  ; 0
6568  8CC20282           [218] settable   10  260 11   ; "QuestOperationsInProgress"
656C  9DC20000           [219] getglobal  10  3        ; _T
6570  8E024105           [220] gettable   10  10  260  ; "QuestOperationsInProgress"
fail op	21
6574  15800281           [221] concat     0   258 10 
6578  1AC00080           [222] jmp        4            ; to [227]
657C  9D020400           [223] getglobal  10  16       ; 538022378
6580  D9820000           [224] loadk      11  2        ; 0
6584  A2420001           [225] call       10  2   1  
6588  1AC0FD7F           [226] jmp        -8           ; to [219]
658C  99820000           [227] loadk      10  2        ; 0
fail op	8
6590  88020003           [228] setupval   10  6      
6594  9D420A00           [229] getglobal  10  41       ; advanceQuest
6598  98020000           [230] test       10      0    ; to [232] if true
659C  1AC00080           [231] jmp        4            ; to [236]
65A0  93028003           [232] getupval   10  7      
65A4  D2020001           [233] move       11  2      
65A8  A2420001           [234] call       10  2   1  
65AC  1AC00880           [235] jmp        36           ; to [272]
65B0  9D820A00           [236] getglobal  10  42       ; advanceQuestAfterTransmissions
65B4  98020000           [237] test       10      0    ; to [239] if true
65B8  1A000880           [238] jmp        33           ; to [272]
65BC  A4C24A01           [239] self       10  2   299  ; 1139718821
65C0  1D030B00           [240] getglobal  12  44       ; questProgress
65C4  59430B00           [241] loadk      13  45       ; "QuestCompleteCallback"
65C8  A2420002           [242] call       10  4   1  
65CC  93020004           [243] getupval   10  8      
65D0  98420000           [244] test       10      1    ; to [246] if false
65D4  1AC00080           [245] jmp        4            ; to [250]
65D8  9D020400           [246] getglobal  10  16       ; 538022378
65DC  D9C20700           [247] loadk      11  31       ; 0
65E0  A2420001           [248] call       10  2   1  
65E4  1A00FE7F           [249] jmp        -7           ; to [243]
65E8  93028004           [250] getupval   10  9      
65EC  98020000           [251] test       10      0    ; to [253] if true
65F0  1A000180           [252] jmp        5            ; to [258]
65F4  93020005           [253] getupval   10  10     
65F8  8E824B05           [254] gettable   10  10  302  ; -1405662448
65FC  A2428000           [255] call       10  1   1  
6600  1A800380           [256] jmp        15           ; to [272]
6604  1A800280           [257] jmp        11           ; to [269]
6608  93020003           [258] getupval   10  6      
660C  83424105           [259] add        10  10  261  ; 0
fail op	8
6610  88020003           [260] setupval   10  6      
6614  9D020400           [261] getglobal  10  16       ; 538022378
6618  DD420900           [262] getglobal  11  37       ; math
661C  CE82C905           [263] gettable   11  11  294  ; 1710846250
6620  19C30900           [264] loadk      12  39       ; 0
6624  53030003           [265] getupval   13  6      
6628  44430394           [266] mul        13  296 13   ; 0
662C  E2028001           [267] call       11  3   0  
6630  A2420000           [268] call       10  0   1  
6634  86020005           [269] loadnil    10  10     
fail op	8
6638  88020004           [270] setupval   10  8      
663C  1A80F77F           [271] jmp        -33          ; to [239]
6640  1E008000           [272] return     0   1      
                         * constants:
6644  2F                 sizek (47)
6645  04                 const type 4
6646  12                 string size (18)
6647  6C6F747573436861+  "lotusCha"
664F  6C6C656E67654D67+  "llengeMg"
6657  7200               "r\0"
                         const [0]: "lotusChallengeMgr"
6659  04                 const type 4
665A  15                 string size (21)
665B  636F6E646974696F+  "conditio"
6663  6E616C4368616C6C+  "nalChall"
666B  656E676500         "enge\0"
                         const [1]: "conditionalChallenge"
6670  03                 const type 3
6671  00000000           const [2]: (0)
6675  04                 const type 4
6676  03                 string size (3)
6677  5F5400             "_T\0"
                         const [3]: "_T"
667A  04                 const type 4
667B  1A                 string size (26)
667C  51756573744F7065+  "QuestOpe"
6684  726174696F6E7349+  "rationsI"
668C  6E50726F67726573+  "nProgres"
6694  7300               "s\0"
                         const [4]: "QuestOperationsInProgress"
6696  03                 const type 3
6697  0000803F           const [5]: (0)
669B  04                 const type 4
669C  12                 string size (18)
669D  5472696767657220+  "Trigger "
66A5  6D6573736167653A+  "message:"
66AD  2000               " \0"
                         const [6]: "Trigger message: "
66AF  01                 const type 3
66B0  65770E40           const [7]: (1074689893)
66B4  04                 const type 4
66B5  04                 string size (4)
66B6  6B657900           "key\0"
                         const [8]: "key"
66BA  01                 const type 3
66BB  BCD6AE9F           const [9]: (-1615931716)
66BF  01                 const type 3
66C0  3C2E251B           const [10]: (455421500)
66C4  04                 const type 4
66C5  0C                 string size (12)
66C6  756E6B6E6F776E20+  "unknown "
66CE  6B657900           "key\0"
                         const [11]: "unknown key"
66D2  01                 const type 3
66D3  6B25B193           const [12]: (-1817107093)
66D7  04                 const type 4
66D8  12                 string size (18)
66D9  67506C6179657250+  "gPlayerP"
66E1  726F66696C654D67+  "rofileMg"
66E9  7200               "r\0"
                         const [13]: "gPlayerProfileMgr"
66EB  01                 const type 3
66EC  1A7BEF21           const [14]: (569342746)
66F0  01                 const type 3
66F1  92104F65           const [15]: (1699680402)
66F5  01                 const type 3
66F6  EA911120           const [16]: (538022378)
66FA  04                 const type 4
66FB  10                 string size (16)
66FC  7573654375727265+  "useCurre"
6704  6E74537461676500   "ntStage\0"
                         const [17]: "useCurrentStage"
670C  04                 const type 4
670D  14                 string size (20)
670E  6D65737361676554+  "messageT"
6716  7269676765725374+  "riggerSt"
671E  61676500           "age\0"
                         const [18]: "messageTriggerStage"
6722  01                 const type 3
6723  50604686           const [19]: (-2042208176)
6727  04                 const type 4
6728  1E                 string size (30)
6729  6368696E61427569+  "chinaBui"
6731  6C644D6573736167+  "ldMessag"
6739  6554726967676572+  "eTrigger"
6741  537461676500       "Stage\0"
                         const [20]: "chinaBuildMessageTriggerStage"
6747  04                 const type 4
6748  07                 string size (7)
6749  456E67696E6500     "Engine\0"
                         const [21]: "Engine"
6750  01                 const type 3
6751  FBDA9813           const [22]: (328784635)
6755  01                 const type 3
6756  29D4002C           const [23]: (738251817)
675A  04                 const type 4
675B  1B                 string size (27)
675C  2F4C6F7475732F49+  "/Lotus/I"
6764  6E74657266616365+  "nterface"
676C  2F436F6465782E73+  "/Codex.s"
6774  776600             "wf\0"
                         const [24]: "/Lotus/Interface/Codex.swf"
6777  04                 const type 4
6778  0A                 string size (10)
6779  67466C6173684D67+  "gFlashMg"
6781  7200               "r\0"
                         const [25]: "gFlashMgr"
6783  01                 const type 3
6784  92D06D61           const [26]: (1634586770)
6788  01                 const type 3
6789  BD5855EA           const [27]: (-363505475)
678D  03                 const type 3
678E  00007A44           const [28]: (0)
6792  01                 const type 3
6793  C93D7CF2           const [29]: (-226738743)
6797  04                 const type 4
6798  13                 string size (19)
6799  4F6E4D6573736167+  "OnMessag"
67A1  6554726967676572+  "eTrigger"
67A9  656400             "ed\0"
                         const [30]: "OnMessageTriggered"
67AC  03                 const type 3
67AD  0000803E           const [31]: (0)
67B1  04                 const type 4
67B2  08                 string size (8)
67B3  5375636365737300   "Success\0"
                         const [32]: "Success"
67BB  01                 const type 3
67BC  380A8BF1           const [33]: (-242546120)
67C0  04                 const type 4
67C1  0C                 string size (12)
67C2  4F6E53796E63496E+  "OnSyncIn"
67CA  626F7800           "box\0"
                         const [34]: "OnSyncInbox"
67CE  04                 const type 4
67CF  1B                 string size (27)
67D0  2F4C6F7475732F49+  "/Lotus/I"
67D8  6E74657266616365+  "nterface"
67E0  2F496E626F782E73+  "/Inbox.s"
67E8  776600             "wf\0"
                         const [35]: "/Lotus/Interface/Inbox.swf"
67EB  03                 const type 3
67EC  0000A040           const [36]: (0)
67F0  04                 const type 4
67F1  05                 string size (5)
67F2  6D61746800         "math\0"
                         const [37]: "math"
67F7  01                 const type 3
67F8  2A71F965           const [38]: (1710846250)
67FC  03                 const type 3
67FD  0000F041           const [39]: (0)
6801  03                 const type 3
6802  00004040           const [40]: (0)
6806  04                 const type 4
6807  0D                 string size (13)
6808  616476616E636551+  "advanceQ"
6810  7565737400         "uest\0"
                         const [41]: "advanceQuest"
6815  04                 const type 4
6816  1F                 string size (31)
6817  616476616E636551+  "advanceQ"
681F  7565737441667465+  "uestAfte"
6827  725472616E736D69+  "rTransmi"
682F  7373696F6E7300     "ssions\0"
                         const [42]: "advanceQuestAfterTransmissions"
6836  01                 const type 3
6837  A5BAEE43           const [43]: (1139718821)
683B  04                 const type 4
683C  0E                 string size (14)
683D  717565737450726F+  "questPro"
6845  677265737300       "gress\0"
                         const [44]: "questProgress"
684B  04                 const type 4
684C  16                 string size (22)
684D  5175657374436F6D+  "QuestCom"
6855  706C65746543616C+  "pleteCal"
685D  6C6261636B00       "lback\0"
                         const [45]: "QuestCompleteCallback"
6863  01                 const type 3
6864  104B37AC           const [46]: (-1405662448)
                         * functions:
6868  00                 sizep (0)
                         * lines:
686A  02                 sizelineinfo (272)
                         [pc] (line)
686B  88                 [001] (-120)
686C  04                 [002] (-120)
686D  00                 [003] (-119)
686E  00                 [004] (-119)
686F  88                 [005] (-119)
6870  04                 [006] (-118)
6871  00                 [007] (-118)
6872  00                 [008] (-117)
6873  89                 [009] (-114)
6874  04                 [010] (-114)
6875  00                 [011] (-114)
6876  00                 [012] (-114)
6877  89                 [013] (-114)
6878  04                 [014] (-114)
6879  00                 [015] (-114)
687A  00                 [016] (-114)
687B  89                 [017] (-111)
687C  04                 [018] (-110)
687D  00                 [019] (-110)
687E  00                 [020] (-110)
687F  8A                 [021] (-110)
6880  04                 [022] (-110)
6881  00                 [023] (-109)
6882  00                 [024] (-109)
6883  8A                 [025] (-109)
6884  04                 [026] (-109)
6885  00                 [027] (-109)
6886  00                 [028] (-109)
6887  8B                 [029] (-109)
6888  04                 [030] (-109)
6889  00                 [031] (-107)
688A  00                 [032] (-107)
688B  8E                 [033] (-107)
688C  04                 [034] (-105)
688D  00                 [035] (-105)
688E  00                 [036] (-105)
688F  8E                 [037] (-103)
6890  04                 [038] (-100)
6891  00                 [039] (-100)
6892  00                 [040] (-100)
6893  8E                 [041] (-100)
6894  04                 [042] (-99)
6895  00                 [043] (-99)
6896  00                 [044] (-99)
6897  8E                 [045] (-99)
6898  04                 [046] (-99)
6899  00                 [047] (-98)
689A  00                 [048] (-98)
689B  8E                 [049] (-98)
689C  04                 [050] (-95)
689D  00                 [051] (-95)
689E  00                 [052] (-95)
689F  8E                 [053] (-95)
68A0  04                 [054] (-95)
68A1  00                 [055] (-94)
68A2  00                 [056] (-94)
68A3  8E                 [057] (-94)
68A4  04                 [058] (-94)
68A5  00                 [059] (-92)
68A6  00                 [060] (-91)
68A7  8E                 [061] (-88)
68A8  04                 [062] (-87)
68A9  00                 [063] (-87)
68AA  00                 [064] (-87)
68AB  91                 [065] (-86)
68AC  04                 [066] (-86)
68AD  00                 [067] (-86)
68AE  00                 [068] (-86)
68AF  92                 [069] (-86)
68B0  04                 [070] (-86)
68B1  00                 [071] (-84)
68B2  00                 [072] (-81)
68B3  92                 [073] (-81)
68B4  04                 [074] (-81)
68B5  00                 [075] (-81)
68B6  00                 [076] (-81)
68B7  92                 [077] (-81)
68B8  04                 [078] (-81)
68B9  00                 [079] (-81)
68BA  00                 [080] (-81)
68BB  92                 [081] (-81)
68BC  04                 [082] (-81)
68BD  00                 [083] (-81)
68BE  00                 [084] (-80)
68BF  92                 [085] (-77)
68C0  04                 [086] (-77)
68C1  00                 [087] (-77)
68C2  00                 [088] (-75)
68C3  93                 [089] (-75)
68C4  04                 [090] (-75)
68C5  00                 [091] (-75)
68C6  00                 [092] (-74)
68C7  93                 [093] (-74)
68C8  04                 [094] (-74)
68C9  00                 [095] (-74)
68CA  00                 [096] (-74)
68CB  93                 [097] (-73)
68CC  04                 [098] (-73)
68CD  00                 [099] (-71)
68CE  00                 [100] (-71)
68CF  93                 [101] (-71)
68D0  04                 [102] (-70)
68D1  00                 [103] (-67)
68D2  00                 [104] (-67)
68D3  93                 [105] (-67)
68D4  04                 [106] (-67)
68D5  00                 [107] (-67)
68D6  00                 [108] (-67)
68D7  93                 [109] (-65)
68D8  04                 [110] (-65)
68D9  00                 [111] (-65)
68DA  00                 [112] (-64)
68DB  93                 [113] (-64)
68DC  04                 [114] (-64)
68DD  00                 [115] (-64)
68DE  00                 [116] (-64)
68DF  93                 [117] (-62)
68E0  04                 [118] (-62)
68E1  00                 [119] (-62)
68E2  00                 [120] (-62)
68E3  95                 [121] (-58)
68E4  04                 [122] (-58)
68E5  00                 [123] (-58)
68E6  00                 [124] (-58)
68E7  95                 [125] (-58)
68E8  04                 [126] (-56)
68E9  00                 [127] (-56)
68EA  00                 [128] (-56)
68EB  95                 [129] (-56)
68EC  04                 [130] (-56)
68ED  00                 [131] (-55)
68EE  00                 [132] (-55)
68EF  97                 [133] (-55)
68F0  04                 [134] (-55)
68F1  00                 [135] (-52)
68F2  00                 [136] (-52)
68F3  97                 [137] (-52)
68F4  04                 [138] (-52)
68F5  00                 [139] (-49)
68F6  00                 [140] (-49)
68F7  97                 [141] (-49)
68F8  04                 [142] (-47)
68F9  00                 [143] (-47)
68FA  00                 [144] (-47)
68FB  99                 [145] (-46)
68FC  04                 [146] (-46)
68FD  00                 [147] (-46)
68FE  00                 [148] (-46)
68FF  9C                 [149] (-43)
6900  04                 [150] (-43)
6901  00                 [151] (-43)
6902  00                 [152] (-42)
6903  9C                 [153] (-42)
6904  04                 [154] (-42)
6905  00                 [155] (-41)
6906  00                 [156] (-41)
6907  9C                 [157] (-39)
6908  04                 [158] (-39)
6909  00                 [159] (-39)
690A  00                 [160] (-36)
690B  9C                 [161] (-36)
690C  04                 [162] (-36)
690D  00                 [163] (-36)
690E  00                 [164] (-35)
690F  9D                 [165] (-35)
6910  04                 [166] (-35)
6911  00                 [167] (-35)
6912  00                 [168] (-35)
6913  9D                 [169] (-34)
6914  04                 [170] (-34)
6915  00                 [171] (-32)
6916  00                 [172] (-32)
6917  9D                 [173] (-32)
6918  04                 [174] (-31)
6919  00                 [175] (-27)
691A  00                 [176] (-27)
691B  9D                 [177] (-27)
691C  04                 [178] (-27)
691D  00                 [179] (-26)
691E  00                 [180] (-26)
691F  9D                 [181] (-26)
6920  04                 [182] (-26)
6921  00                 [183] (-26)
6922  00                 [184] (-25)
6923  9E                 [185] (-25)
6924  04                 [186] (-23)
6925  00                 [187] (-23)
6926  00                 [188] (-23)
6927  9E                 [189] (-22)
6928  04                 [190] (-19)
6929  00                 [191] (-19)
692A  00                 [192] (-17)
692B  9E                 [193] (-17)
692C  04                 [194] (-16)
692D  00                 [195] (-16)
692E  00                 [196] (-16)
692F  A1                 [197] (-15)
6930  04                 [198] (-12)
6931  00                 [199] (-12)
6932  00                 [200] (-10)
6933  A1                 [201] (-10)
6934  04                 [202] (-10)
6935  00                 [203] (-7)
6936  00                 [204] (-7)
6937  A1                 [205] (-7)
6938  04                 [206] (-7)
6939  00                 [207] (-7)
693A  00                 [208] (-7)
693B  A1                 [209] (-7)
693C  04                 [210] (-7)
693D  00                 [211] (-4)
693E  00                 [212] (-4)
693F  A1                 [213] (-4)
6940  04                 [214] (0)
6941  00                 [215] (0)
6942  00                 [216] (0)
6943  A2                 [217] (0)
6944  04                 [218] (0)
6945  00                 [219] (1)
6946  00                 [220] (1)
6947  A2                 [221] (1)
6948  04                 [222] (1)
6949  00                 [223] (2)
694A  00                 [224] (2)
694B  A2                 [225] (2)
694C  04                 [226] (2)
694D  00                 [227] (6)
694E  00                 [228] (6)
694F  A2                 [229] (7)
6950  04                 [230] (7)
6951  00                 [231] (7)
6952  00                 [232] (8)
6953  A4                 [233] (8)
6954  04                 [234] (8)
6955  00                 [235] (8)
6956  00                 [236] (9)
6957  A5                 [237] (9)
6958  04                 [238] (9)
6959  00                 [239] (11)
695A  00                 [240] (11)
695B  A8                 [241] (11)
695C  04                 [242] (11)
695D  00                 [243] (13)
695E  00                 [244] (13)
695F  A9                 [245] (13)
6960  04                 [246] (14)
6961  00                 [247] (14)
6962  00                 [248] (14)
6963  A9                 [249] (14)
6964  04                 [250] (17)
6965  00                 [251] (17)
6966  00                 [252] (17)
6967  A9                 [253] (18)
6968  04                 [254] (18)
6969  00                 [255] (18)
696A  00                 [256] (19)
696B  AA                 [257] (19)
696C  04                 [258] (21)
696D  00                 [259] (21)
696E  00                 [260] (21)
696F  AA                 [261] (24)
6970  04                 [262] (24)
6971  00                 [263] (24)
6972  00                 [264] (24)
6973  AA                 [265] (24)
6974  04                 [266] (24)
6975  00                 [267] (24)
6976  00                 [268] (24)
6977  AA                 [269] (27)
6978  04                 [270] (27)
6979  00                 [271] (27)
697A  00                 [272] (30)
                         * locals:
6CAB  00                 sizelocvars (0)
                         * upvalues:
6CAC  00                 sizeupvalues (0)
                         ** end of function **

                         
6CAD                     ** function [38] definition (level 2)
                         ** start of function **
6CAD  00                 string size (0)
                         source name: (none)
6CAF  0A                 line defined (1312)
6CB0  A2                 last line defined (1314)
6CB1  0A                 nups (1)
6CB2  01                 numparams (2)
6CB3  02                 is_vararg (0)
6CB4  00                 maxstacksize (3)
                         * code:
6CB6  05                 sizecode (5)
6CB7  8B800000           [1] newtable   2   0   2    ; array=0, hash=2
6CBB  8C000080           [2] settable   2   256 0    ; "Success"
6CBF  8C408080           [3] settable   2   257 1    ; "Body"
fail op	8
6CC3  88000000           [4] setupval   2   0      
6CC7  1E008000           [5] return     0   1      
                         * constants:
6CCB  02                 sizek (2)
6CCC  04                 const type 4
6CCD  08                 string size (8)
6CCE  5375636365737300   "Success\0"
                         const [0]: "Success"
6CD6  04                 const type 4
6CD7  05                 string size (5)
6CD8  426F647900         "Body\0"
                         const [1]: "Body"
                         * functions:
6CDD  00                 sizep (0)
                         * lines:
6CDE  05                 sizelineinfo (5)
                         [pc] (line)
6CDF  21                 [1] (33)
6CE0  05                 [2] (33)
6CE1  00                 [3] (33)
6CE2  00                 [4] (33)
6CE3  21                 [5] (34)
                         * locals:
6CF3  00                 sizelocvars (0)
                         * upvalues:
6CF4  00                 sizeupvalues (0)
                         ** end of function **

                         
6CF5                     ** function [39] definition (level 2)
                         ** start of function **
6CF5  00                 string size (0)
                         source name: (none)
6CF7  0A                 line defined (1316)
6CF8  CD                 last line defined (1357)
6CF9  0A                 nups (2)
6CFA  02                 numparams (0)
6CFB  00                 is_vararg (0)
6CFC  00                 maxstacksize (7)
                         * code:
6CFE  52                 sizecode (82)
6CFF  1D000000           [01] getglobal  0   0        ; gPlayerProfileMgr
6D03  24404000           [02] self       0   0   257  ; 569342746
6D07  99800000           [03] loadk      2   2        ; 0
6D0B  22808001           [04] call       0   3   2  
6D0F  5DC00000           [05] getglobal  1   3        ; 1074689893
6D13  92000000           [06] move       2   0      
6D17  62800001           [07] call       1   2   2  
6D1B  58000000           [08] test       1       0    ; to [10] if true
6D1F  1A000080           [09] jmp        1            ; to [11]
6D23  1E008000           [10] return     0   1      
6D27  64004100           [11] self       1   0   260  ; 1699680402
6D2B  62800001           [12] call       1   2   2  
6D2F  9DC00000           [13] getglobal  2   3        ; 1074689893
6D33  D2008000           [14] move       3   1      
6D37  A2800001           [15] call       2   2   2  
6D3B  98000000           [16] test       2       0    ; to [18] if true
6D3F  1A000080           [17] jmp        1            ; to [19]
6D43  1E008000           [18] return     0   1      
6D47  9D400100           [19] getglobal  2   5        ; _T
6D4B  DD400100           [20] getglobal  3   5        ; _T
6D4F  CE80C101           [21] gettable   3   3   262  ; "QuestOperationsInProgress"
6D53  D8400000           [22] test       3       1    ; to [24] if false
6D57  1A000080           [23] jmp        1            ; to [25]
6D5B  D9800000           [24] loadk      3   2        ; 0
6D5F  C3C0C101           [25] add        3   3   263  ; 0
6D63  8CC00083           [26] settable   2   262 3    ; "QuestOperationsInProgress"
6D67  A400C200           [27] self       2   1   264  ; -1447572690
6D6B  1D410200           [28] getglobal  4   9        ; keyRes
6D6F  5D810200           [29] getglobal  5   10       ; itemTriggerStage
6D73  A2800002           [30] call       2   4   2  
6D77  98400000           [31] test       2       1    ; to [33] if false
6D7B  1A000C80           [32] jmp        49           ; to [82]
6D7F  9DC00200           [33] getglobal  2   11       ; 538022378
6D83  D9800000           [34] loadk      3   2        ; 0
6D87  A2400001           [35] call       2   2   1  
6D8B  9DC00000           [36] getglobal  2   3        ; 1074689893
6D8F  D2008000           [37] move       3   1      
6D93  A2800001           [38] call       2   2   2  
6D97  98000000           [39] test       2       0    ; to [41] if true
6D9B  1AC00080           [40] jmp        4            ; to [45]
6D9F  9DC00200           [41] getglobal  2   11       ; 538022378
6DA3  D9000300           [42] loadk      3   12       ; 0
6DA7  A2400001           [43] call       2   2   1  
6DAB  1AC0FE7F           [44] jmp        -4           ; to [41]
6DAF  A440C300           [45] self       2   1   269  ; 1084007419
6DB3  1D810300           [46] getglobal  4   14       ; 2083004503
6DB7  5D410200           [47] getglobal  5   9        ; keyRes
6DBB  22810001           [48] call       4   2   2  
6DBF  5D810200           [49] getglobal  5   10       ; itemTriggerStage
6DC3  99C10300           [50] loadk      6   15       ; "OnItemsTriggered"
6DC7  A2408002           [51] call       2   5   1  
6DCB  9DC00000           [52] getglobal  2   3        ; 1074689893
6DCF  D3000000           [53] getupval   3   0      
6DD3  A2800001           [54] call       2   2   2  
6DD7  98000000           [55] test       2       0    ; to [57] if true
6DDB  1AC00080           [56] jmp        4            ; to [61]
6DDF  9DC00200           [57] getglobal  2   11       ; 538022378
6DE3  D9000400           [58] loadk      3   16       ; 0
6DE7  A2400001           [59] call       2   2   1  
6DEB  1A80FD7F           [60] jmp        -9           ; to [52]
6DEF  93000000           [61] getupval   2   0      
6DF3  8E404401           [62] gettable   2   2   273  ; "Success"
6DF7  98000000           [63] test       2       0    ; to [65] if true
6DFB  1A400080           [64] jmp        2            ; to [67]
6DFF  1AC00380           [65] jmp        16           ; to [82]
6E03  1AC00280           [66] jmp        12           ; to [79]
6E07  93008000           [67] getupval   2   1      
6E0B  83C04101           [68] add        2   2   263  ; 0
fail op	8
6E0F  88008000           [69] setupval   2   1      
6E13  93008000           [70] getupval   2   1      
fail op	21
6E17  15804401           [71] concat     0   2   274
6E1B  1A000280           [72] jmp        9            ; to [82]
6E1F  9DC00200           [73] getglobal  2   11       ; 538022378
6E23  D3008000           [74] getupval   3   1      
6E27  C4C08089           [75] mul        3   275 3    ; 0
6E2B  A2400001           [76] call       2   2   1  
6E2F  1A000080           [77] jmp        1            ; to [79]
6E33  1A800080           [78] jmp        3            ; to [82]
6E37  86000001           [79] loadnil    2   2      
fail op	8
6E3B  88000000           [80] setupval   2   0      
6E3F  1A80F37F           [81] jmp        -49          ; to [33]
6E43  1E008000           [82] return     0   1      
                         * constants:
6E47  14                 sizek (20)
6E48  04                 const type 4
6E49  12                 string size (18)
6E4A  67506C6179657250+  "gPlayerP"
6E52  726F66696C654D67+  "rofileMg"
6E5A  7200               "r\0"
                         const [0]: "gPlayerProfileMgr"
6E5C  01                 const type 3
6E5D  1A7BEF21           const [1]: (569342746)
6E61  03                 const type 3
6E62  00000000           const [2]: (0)
6E66  01                 const type 3
6E67  65770E40           const [3]: (1074689893)
6E6B  01                 const type 3
6E6C  92104F65           const [4]: (1699680402)
6E70  04                 const type 4
6E71  03                 string size (3)
6E72  5F5400             "_T\0"
                         const [5]: "_T"
6E75  04                 const type 4
6E76  1A                 string size (26)
6E77  51756573744F7065+  "QuestOpe"
6E7F  726174696F6E7349+  "rationsI"
6E87  6E50726F67726573+  "nProgres"
6E8F  7300               "s\0"
                         const [6]: "QuestOperationsInProgress"
6E91  03                 const type 3
6E92  0000803F           const [7]: (0)
6E96  01                 const type 3
6E97  2ECBB7A9           const [8]: (-1447572690)
6E9B  04                 const type 4
6E9C  07                 string size (7)
6E9D  6B657952657300     "keyRes\0"
                         const [9]: "keyRes"
6EA4  04                 const type 4
6EA5  11                 string size (17)
6EA6  6974656D54726967+  "itemTrig"
6EAE  6765725374616765+  "gerStage"
6EB6  00                 "\0"
                         const [10]: "itemTriggerStage"
6EB7  01                 const type 3
6EB8  EA911120           const [11]: (538022378)
6EBC  03                 const type 3
6EBD  00007A44           const [12]: (0)
6EC1  01                 const type 3
6EC2  FBA39C40           const [13]: (1084007419)
6EC6  01                 const type 3
6EC7  5720287C           const [14]: (2083004503)
6ECB  04                 const type 4
6ECC  11                 string size (17)
6ECD  4F6E4974656D7354+  "OnItemsT"
6ED5  7269676765726564+  "riggered"
6EDD  00                 "\0"
                         const [15]: "OnItemsTriggered"
6EDE  03                 const type 3
6EDF  0000803E           const [16]: (0)
6EE3  04                 const type 4
6EE4  08                 string size (8)
6EE5  5375636365737300   "Success\0"
                         const [17]: "Success"
6EED  03                 const type 3
6EEE  00004040           const [18]: (0)
6EF2  03                 const type 3
6EF3  0000A040           const [19]: (0)
                         * functions:
6EF7  00                 sizep (0)
                         * lines:
6EF8  52                 sizelineinfo (82)
                         [pc] (line)
6EF9  25                 [01] (37)
6EFA  05                 [02] (37)
6EFB  00                 [03] (37)
6EFC  00                 [04] (37)
6EFD  25                 [05] (38)
6EFE  05                 [06] (38)
6EFF  00                 [07] (38)
6F00  00                 [08] (38)
6F01  25                 [09] (38)
6F02  05                 [10] (39)
6F03  00                 [11] (41)
6F04  00                 [12] (41)
6F05  25                 [13] (42)
6F06  05                 [14] (42)
6F07  00                 [15] (42)
6F08  00                 [16] (42)
6F09  26                 [17] (42)
6F0A  05                 [18] (43)
6F0B  00                 [19] (46)
6F0C  00                 [20] (46)
6F0D  26                 [21] (46)
6F0E  05                 [22] (46)
6F0F  00                 [23] (46)
6F10  00                 [24] (46)
6F11  26                 [25] (46)
6F12  05                 [26] (46)
6F13  00                 [27] (48)
6F14  00                 [28] (48)
6F15  26                 [29] (48)
6F16  05                 [30] (48)
6F17  00                 [31] (48)
6F18  00                 [32] (48)
6F19  26                 [33] (50)
6F1A  05                 [34] (50)
6F1B  00                 [35] (50)
6F1C  00                 [36] (51)
6F1D  27                 [37] (51)
6F1E  05                 [38] (51)
6F1F  00                 [39] (51)
6F20  00                 [40] (51)
6F21  29                 [41] (53)
6F22  05                 [42] (53)
6F23  00                 [43] (53)
6F24  00                 [44] (53)
6F25  29                 [45] (57)
6F26  05                 [46] (57)
6F27  00                 [47] (57)
6F28  00                 [48] (57)
6F29  2A                 [49] (57)
6F2A  05                 [50] (57)
6F2B  00                 [51] (57)
6F2C  00                 [52] (59)
6F2D  2A                 [53] (59)
6F2E  05                 [54] (59)
6F2F  00                 [55] (59)
6F30  00                 [56] (59)
6F31  2A                 [57] (60)
6F32  05                 [58] (60)
6F33  00                 [59] (60)
6F34  00                 [60] (60)
6F35  2A                 [61] (63)
6F36  05                 [62] (63)
6F37  00                 [63] (63)
6F38  00                 [64] (63)
6F39  2A                 [65] (64)
6F3A  05                 [66] (64)
6F3B  00                 [67] (66)
6F3C  00                 [68] (66)
6F3D  2B                 [69] (66)
6F3E  05                 [70] (67)
6F3F  00                 [71] (67)
6F40  00                 [72] (67)
6F41  2E                 [73] (68)
6F42  05                 [74] (68)
6F43  00                 [75] (68)
6F44  00                 [76] (68)
6F45  2E                 [77] (68)
6F46  05                 [78] (70)
6F47  00                 [79] (74)
6F48  00                 [80] (74)
6F49  2E                 [81] (74)
6F4A  05                 [82] (77)
                         * locals:
7041  00                 sizelocvars (0)
                         * upvalues:
7042  00                 sizeupvalues (0)
                         ** end of function **

                         
7043                     ** function [40] definition (level 2)
                         ** start of function **
7043  00                 string size (0)
                         source name: (none)
7045  0A                 line defined (1359)
7046  FB                 last line defined (1403)
7047  0A                 nups (3)
7048  03                 numparams (0)
7049  00                 is_vararg (0)
704A  00                 maxstacksize (10)
                         * code:
704C  59                 sizecode (89)
704D  1D000000           [01] getglobal  0   0        ; gPlayerProfileMgr
7051  24404000           [02] self       0   0   257  ; 569342746
7055  99800000           [03] loadk      2   2        ; 0
7059  22808001           [04] call       0   3   2  
705D  5DC00000           [05] getglobal  1   3        ; 1074689893
7061  92000000           [06] move       2   0      
7065  62800001           [07] call       1   2   2  
7069  58000000           [08] test       1       0    ; to [10] if true
706D  1A000080           [09] jmp        1            ; to [11]
7071  1E008000           [10] return     0   1      
7075  64004100           [11] self       1   0   260  ; 1699680402
7079  62800001           [12] call       1   2   2  
707D  9DC00000           [13] getglobal  2   3        ; 1074689893
7081  D2008000           [14] move       3   1      
7085  A2800001           [15] call       2   2   2  
7089  98000000           [16] test       2       0    ; to [18] if true
708D  1A000080           [17] jmp        1            ; to [19]
7091  1E008000           [18] return     0   1      
7095  9D400100           [19] getglobal  2   5        ; _T
7099  DD400100           [20] getglobal  3   5        ; _T
709D  CE80C101           [21] gettable   3   3   262  ; "QuestOperationsInProgress"
70A1  D8400000           [22] test       3       1    ; to [24] if false
70A5  1A000080           [23] jmp        1            ; to [25]
70A9  D9800000           [24] loadk      3   2        ; 0
70AD  C3C0C101           [25] add        3   3   263  ; 0
70B1  8CC00083           [26] settable   2   262 3    ; "QuestOperationsInProgress"
70B5  93000000           [27] getupval   2   0      
70B9  8E004201           [28] gettable   2   2   264  ; 1388869707
70BD  D2008000           [29] move       3   1      
70C1  A2000101           [30] call       2   2   4  
70C5  6441C200           [31] self       5   1   265  ; -1447572690
70C9  D2010001           [32] move       7   2      
70CD  12028001           [33] move       8   3      
70D1  62810002           [34] call       5   4   2  
70D5  58410000           [35] test       5       1    ; to [37] if false
70D9  1AC00C80           [36] jmp        52           ; to [89]
70DD  5D810200           [37] getglobal  5   10       ; 538022378
70E1  99810000           [38] loadk      6   2        ; 0
70E5  62410001           [39] call       5   2   1  
70E9  5DC10000           [40] getglobal  5   3        ; 1074689893
70ED  92018000           [41] move       6   1      
70F1  62810001           [42] call       5   2   2  
70F5  58010000           [43] test       5       0    ; to [45] if true
70F9  1AC00080           [44] jmp        4            ; to [49]
70FD  5D810200           [45] getglobal  5   10       ; 538022378
7101  99C10200           [46] loadk      6   11       ; 0
7105  62410001           [47] call       5   2   1  
7109  1AC0FE7F           [48] jmp        -4           ; to [45]
710D  6401C300           [49] self       5   1   268  ; 1084007419
7111  DD410300           [50] getglobal  7   13       ; 2083004503
7115  12020001           [51] move       8   2      
7119  E2810001           [52] call       7   2   2  
711D  12028001           [53] move       8   3      
7121  59820300           [54] loadk      9   14       ; "OnItemsTriggered"
7125  62418002           [55] call       5   5   1  
7129  5DC10000           [56] getglobal  5   3        ; 1074689893
712D  93018000           [57] getupval   6   1      
7131  62810001           [58] call       5   2   2  
7135  58010000           [59] test       5       0    ; to [61] if true
7139  1AC00080           [60] jmp        4            ; to [65]
713D  5D810200           [61] getglobal  5   10       ; 538022378
7141  99C10300           [62] loadk      6   15       ; 0
7145  62410001           [63] call       5   2   1  
7149  1A80FD7F           [64] jmp        -9           ; to [56]
714D  53018000           [65] getupval   5   1      
7151  4E01C402           [66] gettable   5   5   272  ; "Success"
7155  58010000           [67] test       5       0    ; to [69] if true
7159  1A400080           [68] jmp        2            ; to [71]
715D  1A800480           [69] jmp        19           ; to [89]
7161  1AC00280           [70] jmp        12           ; to [83]
7165  53010001           [71] getupval   5   2      
7169  43C1C102           [72] add        5   5   263  ; 0
fail op	8
716D  48010001           [73] setupval   5   2      
7171  53010001           [74] getupval   5   2      
fail op	21
7175  1540C402           [75] concat     0   5   273
7179  1AC00280           [76] jmp        12           ; to [89]
717D  5D810200           [77] getglobal  5   10       ; 538022378
7181  93010001           [78] getupval   6   2      
7185  84810189           [79] mul        6   274 6    ; 0
7189  62410001           [80] call       5   2   1  
718D  1A000080           [81] jmp        1            ; to [83]
7191  1A400180           [82] jmp        6            ; to [89]
7195  46018002           [83] loadnil    5   5      
fail op	8
7199  48018000           [84] setupval   5   1      
719D  5D810200           [85] getglobal  5   10       ; 538022378
71A1  99810400           [86] loadk      6   18       ; 0
71A5  62410001           [87] call       5   2   1  
71A9  1AC0F27F           [88] jmp        -52          ; to [37]
71AD  1E008000           [89] return     0   1      
                         * constants:
71B1  13                 sizek (19)
71B2  04                 const type 4
71B3  12                 string size (18)
71B4  67506C6179657250+  "gPlayerP"
71BC  726F66696C654D67+  "rofileMg"
71C4  7200               "r\0"
                         const [0]: "gPlayerProfileMgr"
71C6  01                 const type 3
71C7  1A7BEF21           const [1]: (569342746)
71CB  03                 const type 3
71CC  00000000           const [2]: (0)
71D0  01                 const type 3
71D1  65770E40           const [3]: (1074689893)
71D5  01                 const type 3
71D6  92104F65           const [4]: (1699680402)
71DA  04                 const type 4
71DB  03                 string size (3)
71DC  5F5400             "_T\0"
                         const [5]: "_T"
71DF  04                 const type 4
71E0  1A                 string size (26)
71E1  51756573744F7065+  "QuestOpe"
71E9  726174696F6E7349+  "rationsI"
71F1  6E50726F67726573+  "nProgres"
71F9  7300               "s\0"
                         const [6]: "QuestOperationsInProgress"
71FB  03                 const type 3
71FC  0000803F           const [7]: (0)
7200  01                 const type 3
7201  4B78C852           const [8]: (1388869707)
7205  01                 const type 3
7206  2ECBB7A9           const [9]: (-1447572690)
720A  01                 const type 3
720B  EA911120           const [10]: (538022378)
720F  03                 const type 3
7210  00007A44           const [11]: (0)
7214  01                 const type 3
7215  FBA39C40           const [12]: (1084007419)
7219  01                 const type 3
721A  5720287C           const [13]: (2083004503)
721E  04                 const type 4
721F  11                 string size (17)
7220  4F6E4974656D7354+  "OnItemsT"
7228  7269676765726564+  "riggered"
7230  00                 "\0"
                         const [14]: "OnItemsTriggered"
7231  03                 const type 3
7232  0000803E           const [15]: (0)
7236  04                 const type 4
7237  08                 string size (8)
7238  5375636365737300   "Success\0"
                         const [16]: "Success"
7240  03                 const type 3
7241  00004040           const [17]: (0)
7245  03                 const type 3
7246  0000A040           const [18]: (0)
                         * functions:
724A  00                 sizep (0)
                         * lines:
724B  59                 sizelineinfo (89)
                         [pc] (line)
724C  50                 [01] (80)
724D  05                 [02] (80)
724E  00                 [03] (80)
724F  00                 [04] (80)
7250  50                 [05] (81)
7251  05                 [06] (81)
7252  00                 [07] (81)
7253  00                 [08] (81)
7254  50                 [09] (81)
7255  05                 [10] (82)
7256  00                 [11] (84)
7257  00                 [12] (84)
7258  50                 [13] (85)
7259  05                 [14] (85)
725A  00                 [15] (85)
725B  00                 [16] (85)
725C  51                 [17] (85)
725D  05                 [18] (86)
725E  00                 [19] (89)
725F  00                 [20] (89)
7260  51                 [21] (89)
7261  05                 [22] (89)
7262  00                 [23] (89)
7263  00                 [24] (89)
7264  51                 [25] (89)
7265  05                 [26] (89)
7266  00                 [27] (91)
7267  00                 [28] (91)
7268  51                 [29] (91)
7269  05                 [30] (91)
726A  00                 [31] (93)
726B  00                 [32] (93)
726C  51                 [33] (93)
726D  05                 [34] (93)
726E  00                 [35] (93)
726F  00                 [36] (93)
7270  52                 [37] (95)
7271  05                 [38] (95)
7272  00                 [39] (95)
7273  00                 [40] (96)
7274  54                 [41] (96)
7275  05                 [42] (96)
7276  00                 [43] (96)
7277  00                 [44] (96)
7278  54                 [45] (98)
7279  05                 [46] (98)
727A  00                 [47] (98)
727B  00                 [48] (98)
727C  55                 [49] (102)
727D  05                 [50] (102)
727E  00                 [51] (102)
727F  00                 [52] (102)
7280  55                 [53] (102)
7281  05                 [54] (102)
7282  00                 [55] (102)
7283  00                 [56] (104)
7284  55                 [57] (104)
7285  05                 [58] (104)
7286  00                 [59] (104)
7287  00                 [60] (104)
7288  55                 [61] (105)
7289  05                 [62] (105)
728A  00                 [63] (105)
728B  00                 [64] (105)
728C  55                 [65] (108)
728D  05                 [66] (108)
728E  00                 [67] (108)
728F  00                 [68] (108)
7290  56                 [69] (109)
7291  05                 [70] (109)
7292  00                 [71] (111)
7293  00                 [72] (111)
7294  59                 [73] (111)
7295  05                 [74] (112)
7296  00                 [75] (112)
7297  00                 [76] (112)
7298  59                 [77] (113)
7299  05                 [78] (113)
729A  00                 [79] (113)
729B  00                 [80] (113)
729C  59                 [81] (113)
729D  05                 [82] (115)
729E  00                 [83] (119)
729F  00                 [84] (119)
72A0  59                 [85] (120)
72A1  05                 [86] (120)
72A2  00                 [87] (120)
72A3  00                 [88] (120)
72A4  59                 [89] (123)
                         * locals:
73B0  00                 sizelocvars (0)
                         * upvalues:
73B1  00                 sizeupvalues (0)
                         ** end of function **

                         
73B2                     ** function [41] definition (level 2)
                         ** start of function **
73B2  00                 string size (0)
                         source name: (none)
73B4  0A                 line defined (1405)
73B5  B1                 last line defined (1457)
73B6  0B                 nups (1)
73B7  01                 numparams (2)
73B8  02                 is_vararg (0)
73B9  00                 maxstacksize (31)
                         * code:
73BB  67                 sizecode (103)
73BC  9D000000           [001] getglobal  2   0        ; gPlayerProfileMgr
73C0  A4404001           [002] self       2   2   257  ; 569342746
73C4  19810000           [003] loadk      4   2        ; 0
73C8  A2808001           [004] call       2   3   2  
73CC  A4C04001           [005] self       2   2   259  ; 1699680402
73D0  A2800001           [006] call       2   2   2  
73D4  E4004101           [007] self       3   2   260  ; 1865287165
73D8  E2800001           [008] call       3   2   2  
73DC  E440C101           [009] self       3   3   261  ; 858389503
73E0  E2800001           [010] call       3   2   2  
73E4  24014101           [011] self       4   2   260  ; 1865287165
73E8  22810001           [012] call       4   2   2  
73EC  24814102           [013] self       4   4   262  ; 1847590093
73F0  22810001           [014] call       4   2   2  
73F4  64C14101           [015] self       5   2   263  ; 1251059402
73F8  62810001           [016] call       5   2   2  
73FC  97010000           [017] loadbool   6   0   0    ; false
7400  D9010200           [018] loadk      7   8        ; 0
7404  1D420200           [019] getglobal  8   9        ; archwingBlueprintTypes
7408  0A020004           [020] len        8   8      
740C  59020200           [021] loadk      9   8        ; 0
7410  D0011280           [022] forprep    7   73       ; to [96]
7414  DD420200           [023] getglobal  11  9        ; archwingBlueprintTypes
7418  CE828205           [024] gettable   11  11  10 
741C  2483C205           [025] self       12  11  266  ; -1722328121
7420  22830001           [026] call       12  2   2  
7424  57030000           [027] loadbool   13  0   0    ; false
7428  9DC30200           [028] getglobal  14  11       ; 1074689893
742C  D2038001           [029] move       15  3      
7430  A2830001           [030] call       14  2   2  
7434  98430000           [031] test       14      1    ; to [33] if false
7438  1A400480           [032] jmp        18           ; to [51]
743C  99030200           [033] loadk      14  8        ; 0
7440  CA038001           [034] len        15  3      
7444  19040200           [035] loadk      16  8        ; 0
7448  90030380           [036] forprep    14  13       ; to [50]
744C  8E448401           [037] gettable   18  3   17 
7450  8E044309           [038] gettable   18  18  268  ; "mItemType"
7454  A4444309           [039] self       18  18  269  ; -1957065004
7458  12050006           [040] move       20  12     
745C  A2848001           [041] call       18  3   2  
7460  98040000           [042] test       18      0    ; to [44] if true
7464  1A400180           [043] jmp        6            ; to [50]
7468  8E448401           [044] gettable   18  3   17 
746C  8E844309           [045] gettable   18  18  270  ; "mItemCount"
fail op	21
7470  15800481           [046] concat     0   258 18 
7474  1A400080           [047] jmp        2            ; to [50]
7478  57038000           [048] loadbool   13  1   0    ; true
747C  1A000080           [049] jmp        1            ; to [51]
7480  9443FC7F           [050] forloop    14  -14      ; to [37] if loop
7484  58430000           [051] test       13      1    ; to [53] if false
7488  1AC00980           [052] jmp        40           ; to [93]
748C  97040000           [053] loadbool   18  0   0    ; false
7490  D9040200           [054] loadk      19  8        ; 0
7494  0A058002           [055] len        20  5      
7498  59050200           [056] loadk      21  8        ; 0
749C  D0C40180           [057] forprep    19  8        ; to [66]
74A0  CE858502           [058] gettable   23  5   22 
74A4  CE05C30B           [059] gettable   23  23  268  ; "mItemType"
74A8  24C6C305           [060] self       24  11  271  ; -491574171
74AC  22860001           [061] call       24  2   2  
fail op	35
74B0  2300860B           [062] close      0  
74B4  1A400080           [063] jmp        2            ; to [66]
74B8  97048000           [064] loadbool   18  1   0    ; true
74BC  1A000080           [065] jmp        1            ; to [67]
74C0  D484FD7F           [066] forloop    19  -9       ; to [58] if loop
74C4  98440000           [067] test       18      1    ; to [69] if false
74C8  1AC00580           [068] jmp        24           ; to [93]
74CC  DDC50200           [069] getglobal  23  11       ; 1074689893
74D0  12060002           [070] move       24  4      
74D4  E2850001           [071] call       23  2   2  
74D8  D8450000           [072] test       23      1    ; to [74] if false
74DC  1A800480           [073] jmp        19           ; to [93]
74E0  D9050200           [074] loadk      23  8        ; 0
74E4  0A060002           [075] len        24  4      
74E8  59060200           [076] loadk      25  8        ; 0
74EC  D0450380           [077] forprep    23  14       ; to [92]
74F0  CE860602           [078] gettable   27  4   26 
74F4  CE06C30D           [079] gettable   27  27  268  ; "mItemType"
74F8  E446C30D           [080] self       27  27  269  ; -1957065004
74FC  64C7C305           [081] self       29  11  271  ; -491574171
7500  62070001           [082] call       29  2   0  
7504  E2860000           [083] call       27  0   2  
7508  D8060000           [084] test       27      0    ; to [86] if true
750C  1A400180           [085] jmp        6            ; to [92]
7510  CE860602           [086] gettable   27  4   26 
7514  CE86C30D           [087] gettable   27  27  270  ; "mItemCount"
fail op	21
7518  15C00681           [088] concat     0   258 27 
751C  1A400080           [089] jmp        2            ; to [92]
7520  97018000           [090] loadbool   6   1   0    ; true
7524  1A000080           [091] jmp        1            ; to [93]
7528  D405FC7F           [092] forloop    23  -15      ; to [78] if loop
752C  98010000           [093] test       6       0    ; to [95] if true
7530  1A000080           [094] jmp        1            ; to [96]
7534  1A000080           [095] jmp        1            ; to [97]
7538  D441ED7F           [096] forloop    7   -74      ; to [23] if loop
753C  98010000           [097] test       6       0    ; to [99] if true
7540  1AC00080           [098] jmp        4            ; to [103]
7544  D3060000           [099] getupval   27  0      
7548  12070000           [100] move       28  0      
754C  52078000           [101] move       29  1      
7550  E2468001           [102] call       27  3   1  
7554  1E008000           [103] return     0   1      
                         * constants:
7558  10                 sizek (16)
7559  04                 const type 4
755A  12                 string size (18)
755B  67506C6179657250+  "gPlayerP"
7563  726F66696C654D67+  "rofileMg"
756B  7200               "r\0"
                         const [0]: "gPlayerProfileMgr"
756D  01                 const type 3
756E  1A7BEF21           const [1]: (569342746)
7572  03                 const type 3
7573  00000000           const [2]: (0)
7577  01                 const type 3
7578  92104F65           const [3]: (1699680402)
757C  01                 const type 3
757D  FD052E6F           const [4]: (1865287165)
7581  01                 const type 3
7582  FFFB2933           const [5]: (858389503)
7586  01                 const type 3
7587  CDFC1F6E           const [6]: (1847590093)
758B  01                 const type 3
758C  CAA6914A           const [7]: (1251059402)
7590  03                 const type 3
7591  0000803F           const [8]: (0)
7595  04                 const type 4
7596  17                 string size (23)
7597  6172636877696E67+  "archwing"
759F  426C75657072696E+  "Blueprin"
75A7  74547970657300     "tTypes\0"
                         const [9]: "archwingBlueprintTypes"
75AE  01                 const type 3
75AF  C75B5799           const [10]: (-1722328121)
75B3  01                 const type 3
75B4  65770E40           const [11]: (1074689893)
75B8  04                 const type 4
75B9  0A                 string size (10)
75BA  6D4974656D547970+  "mItemTyp"
75C2  6500               "e\0"
                         const [12]: "mItemType"
75C4  01                 const type 3
75C5  D48E598B           const [13]: (-1957065004)
75C9  04                 const type 4
75CA  0B                 string size (11)
75CB  6D4974656D436F75+  "mItemCou"
75D3  6E7400             "nt\0"
                         const [14]: "mItemCount"
75D6  01                 const type 3
75D7  652CB3E2           const [15]: (-491574171)
                         * functions:
75DB  00                 sizep (0)
                         * lines:
75DC  67                 sizelineinfo (103)
                         [pc] (line)
75DD  7E                 [001] (126)
75DE  05                 [002] (126)
75DF  00                 [003] (126)
75E0  00                 [004] (126)
75E1  7E                 [005] (126)
75E2  05                 [006] (126)
75E3  00                 [007] (-128)
75E4  00                 [008] (-128)
75E5  7E                 [009] (-128)
75E6  05                 [010] (-128)
75E7  00                 [011] (-127)
75E8  00                 [012] (-127)
75E9  7E                 [013] (-127)
75EA  05                 [014] (-127)
75EB  00                 [015] (-126)
75EC  00                 [016] (-126)
75ED  7E                 [017] (-124)
75EE  05                 [018] (-123)
75EF  00                 [019] (-123)
75F0  00                 [020] (-123)
75F1  7E                 [021] (-123)
75F2  05                 [022] (-123)
75F3  00                 [023] (-122)
75F4  00                 [024] (-122)
75F5  80                 [025] (-121)
75F6  05                 [026] (-121)
75F7  00                 [027] (-119)
75F8  00                 [028] (-118)
75F9  80                 [029] (-118)
75FA  05                 [030] (-118)
75FB  00                 [031] (-118)
75FC  00                 [032] (-118)
75FD  80                 [033] (-117)
75FE  05                 [034] (-117)
75FF  00                 [035] (-117)
7600  00                 [036] (-117)
7601  80                 [037] (-116)
7602  05                 [038] (-116)
7603  00                 [039] (-116)
7604  00                 [040] (-116)
7605  81                 [041] (-116)
7606  05                 [042] (-116)
7607  00                 [043] (-116)
7608  00                 [044] (-116)
7609  81                 [045] (-116)
760A  05                 [046] (-116)
760B  00                 [047] (-116)
760C  00                 [048] (-115)
760D  81                 [049] (-114)
760E  05                 [050] (-117)
760F  00                 [051] (-109)
7610  00                 [052] (-109)
7611  81                 [053] (-107)
7612  05                 [054] (-106)
7613  00                 [055] (-106)
7614  00                 [056] (-106)
7615  82                 [057] (-106)
7616  05                 [058] (-105)
7617  00                 [059] (-105)
7618  00                 [060] (-105)
7619  82                 [061] (-105)
761A  05                 [062] (-105)
761B  00                 [063] (-105)
761C  00                 [064] (-104)
761D  84                 [065] (-103)
761E  05                 [066] (-106)
761F  00                 [067] (-99)
7620  00                 [068] (-99)
7621  85                 [069] (-98)
7622  05                 [070] (-98)
7623  00                 [071] (-98)
7624  00                 [072] (-98)
7625  85                 [073] (-98)
7626  05                 [074] (-97)
7627  00                 [075] (-97)
7628  00                 [076] (-97)
7629  85                 [077] (-97)
762A  05                 [078] (-96)
762B  00                 [079] (-96)
762C  00                 [080] (-96)
762D  85                 [081] (-96)
762E  05                 [082] (-96)
762F  00                 [083] (-96)
7630  00                 [084] (-96)
7631  85                 [085] (-96)
7632  05                 [086] (-96)
7633  00                 [087] (-96)
7634  00                 [088] (-96)
7635  86                 [089] (-96)
7636  05                 [090] (-95)
7637  00                 [091] (-94)
7638  00                 [092] (-97)
7639  86                 [093] (-87)
763A  05                 [094] (-87)
763B  00                 [095] (-86)
763C  00                 [096] (-123)
763D  87                 [097] (-82)
763E  05                 [098] (-82)
763F  00                 [099] (-81)
7640  00                 [100] (-81)
7641  87                 [101] (-81)
7642  05                 [102] (-81)
7643  00                 [103] (-79)
                         * locals:
7779  00                 sizelocvars (0)
                         * upvalues:
777A  00                 sizeupvalues (0)
                         ** end of function **

                         
777B                     ** function [42] definition (level 2)
                         ** start of function **
777B  00                 string size (0)
                         source name: (none)
777D  0B                 line defined (1459)
777E  C5                 last line defined (1477)
777F  0B                 nups (1)
7780  01                 numparams (2)
7781  02                 is_vararg (0)
7782  00                 maxstacksize (6)
                         * code:
7784  28                 sizecode (40)
7785  9D000000           [01] getglobal  2   0        ; math
7789  8E404001           [02] gettable   2   2   257  ; -2040962569
778D  A2808000           [03] call       2   1   2  
7791  DD800000           [04] getglobal  3   2        ; nagChance
fail op	21
7795  15808001           [05] concat     0   3   2  
7799  1A000080           [06] jmp        1            ; to [8]
779D  1E008000           [07] return     0   1      
77A1  9DC00000           [08] getglobal  2   3        ; 538022378
77A5  D9000100           [09] loadk      3   4        ; 0
77A9  A2400001           [10] call       2   2   1  
77AD  86000001           [11] loadnil    2   2      
77B1  DD400100           [12] getglobal  3   5        ; 1074689893
77B5  12010001           [13] move       4   2      
77B9  E2800001           [14] call       3   2   2  
77BD  D8000000           [15] test       3       0    ; to [17] if true
77C1  1A800180           [16] jmp        7            ; to [24]
77C5  E480C100           [17] self       3   1   262  ; -2135866365
77C9  E2800001           [18] call       3   2   2  
77CD  92008001           [19] move       2   3      
77D1  DDC00000           [20] getglobal  3   3        ; 538022378
77D5  19C10100           [21] loadk      4   7        ; 0
77D9  E2400001           [22] call       3   2   1  
77DD  1AC0FC7F           [23] jmp        -12          ; to [12]
77E1  DD400100           [24] getglobal  3   5        ; 1074689893
77E5  1D010200           [25] getglobal  4   8        ; transmissions
77E9  E2800001           [26] call       3   2   2  
77ED  D8400000           [27] test       3       1    ; to [29] if false
77F1  1A800280           [28] jmp        11           ; to [40]
77F5  DD000000           [29] getglobal  3   0        ; math
77F9  CE40C001           [30] gettable   3   3   257  ; -2040962569
77FD  19010100           [31] loadk      4   4        ; 0
7801  5D010200           [32] getglobal  5   8        ; transmissions
7805  4A018002           [33] len        5   5      
7809  E2808001           [34] call       3   3   2  
780D  13010000           [35] getupval   4   0      
7811  0E414202           [36] gettable   4   4   265  ; 910246418
7815  5D010200           [37] getglobal  5   8        ; transmissions
7819  4EC18002           [38] gettable   5   5   3  
781D  22410001           [39] call       4   2   1  
7821  1E008000           [40] return     0   1      
                         * constants:
7825  0A                 sizek (10)
7826  04                 const type 4
7827  05                 string size (5)
7828  6D61746800         "math\0"
                         const [0]: "math"
782D  01                 const type 3
782E  F7615986           const [1]: (-2040962569)
7832  04                 const type 4
7833  0A                 string size (10)
7834  6E61674368616E63+  "nagChanc"
783C  6500               "e\0"
                         const [2]: "nagChance"
783E  01                 const type 3
783F  EA911120           const [3]: (538022378)
7843  03                 const type 3
7844  0000803F           const [4]: (0)
7848  01                 const type 3
7849  65770E40           const [5]: (1074689893)
784D  01                 const type 3
784E  0344B180           const [6]: (-2135866365)
7852  03                 const type 3
7853  00000000           const [7]: (0)
7857  04                 const type 4
7858  0E                 string size (14)
7859  7472616E736D6973+  "transmis"
7861  73696F6E7300       "sions\0"
                         const [8]: "transmissions"
7867  01                 const type 3
7868  12424136           const [9]: (910246418)
                         * functions:
786C  00                 sizep (0)
                         * lines:
786D  28                 sizelineinfo (40)
                         [pc] (line)
786E  B4                 [01] (-76)
786F  05                 [02] (-76)
7870  00                 [03] (-76)
7871  00                 [04] (-76)
7872  B4                 [05] (-76)
7873  05                 [06] (-76)
7874  00                 [07] (-75)
7875  00                 [08] (-72)
7876  B4                 [09] (-72)
7877  05                 [10] (-72)
7878  00                 [11] (-70)
7879  00                 [12] (-68)
787A  B4                 [13] (-68)
787B  05                 [14] (-68)
787C  00                 [15] (-68)
787D  00                 [16] (-68)
787E  B4                 [17] (-67)
787F  05                 [18] (-67)
7880  00                 [19] (-67)
7881  00                 [20] (-66)
7882  B4                 [21] (-66)
7883  05                 [22] (-66)
7884  00                 [23] (-66)
7885  00                 [24] (-63)
7886  B5                 [25] (-63)
7887  05                 [26] (-63)
7888  00                 [27] (-63)
7889  00                 [28] (-63)
788A  B8                 [29] (-62)
788B  05                 [30] (-62)
788C  00                 [31] (-62)
788D  00                 [32] (-62)
788E  B8                 [33] (-62)
788F  05                 [34] (-62)
7890  00                 [35] (-61)
7891  00                 [36] (-61)
7892  B8                 [37] (-61)
7893  05                 [38] (-61)
7894  00                 [39] (-61)
7895  00                 [40] (-59)
                         * locals:
790E  00                 sizelocvars (0)
                         * upvalues:
790F  00                 sizeupvalues (0)
                         ** end of function **

                         
7910                     ** function [43] definition (level 2)
                         ** start of function **
7910  00                 string size (0)
                         source name: (none)
7912  0B                 line defined (1479)
7913  CD                 last line defined (1485)
7914  0B                 nups (1)
7915  01                 numparams (1)
7916  01                 is_vararg (0)
7917  00                 maxstacksize (3)
                         * code:
7919  0F                 sizecode (15)
791A  53000000           [01] getupval   1   0      
791E  4E00C000           [02] gettable   1   1   256  ; 910246418
7922  92000000           [03] move       2   0      
7926  62400001           [04] call       1   2   1  
792A  53000000           [05] getupval   1   0      
792E  4E40C000           [06] gettable   1   1   257  ; 1776858983
7932  92000000           [07] move       2   0      
7936  62800001           [08] call       1   2   2  
793A  58000000           [09] test       1       0    ; to [11] if true
793E  1AC00080           [10] jmp        4            ; to [15]
7942  5D800000           [11] getglobal  1   2        ; 538022378
7946  99C00000           [12] loadk      2   3        ; 0
794A  62400001           [13] call       1   2   1  
794E  1A40FD7F           [14] jmp        -10          ; to [5]
7952  1E008000           [15] return     0   1      
                         * constants:
7956  04                 sizek (4)
7957  01                 const type 3
7958  12424136           const [0]: (910246418)
795C  01                 const type 3
795D  67B7E869           const [1]: (1776858983)
7961  01                 const type 3
7962  EA911120           const [2]: (538022378)
7966  03                 const type 3
7967  00000000           const [3]: (0)
                         * functions:
796B  00                 sizep (0)
                         * lines:
796C  0F                 sizelineinfo (15)
                         [pc] (line)
796D  C8                 [01] (-56)
796E  05                 [02] (-56)
796F  00                 [03] (-56)
7970  00                 [04] (-56)
7971  C8                 [05] (-54)
7972  05                 [06] (-54)
7973  00                 [07] (-54)
7974  00                 [08] (-54)
7975  C8                 [09] (-54)
7976  05                 [10] (-54)
7977  00                 [11] (-53)
7978  00                 [12] (-53)
7979  C8                 [13] (-53)
797A  05                 [14] (-53)
797B  00                 [15] (-51)
                         * locals:
79A9  00                 sizelocvars (0)
                         * upvalues:
79AA  00                 sizeupvalues (0)
                         ** end of function **

                         
79AB                     ** function [44] definition (level 2)
                         ** start of function **
79AB  00                 string size (0)
                         source name: (none)
79AD  0B                 line defined (1487)
79AE  D5                 last line defined (1493)
79AF  0B                 nups (1)
79B0  01                 numparams (0)
79B1  00                 is_vararg (0)
79B2  00                 maxstacksize (3)
                         * code:
79B4  15                 sizecode (21)
79B5  1D000000           [01] getglobal  0   0        ; 1074689893
79B9  5D400000           [02] getglobal  1   1        ; key
79BD  22800001           [03] call       0   2   2  
79C1  18400000           [04] test       0       1    ; to [6] if false
79C5  1AC00280           [05] jmp        12           ; to [18]
79C9  1D400000           [06] getglobal  0   1        ; key
79CD  5D800000           [07] getglobal  1   2        ; gGameData
79D1  64C0C000           [08] self       1   1   259  ; 1865287165
79D5  62800001           [09] call       1   2   2  
79D9  6400C100           [10] self       1   1   260  ; 1388869707
79DD  62800001           [11] call       1   2   2  
fail op	35
79E1  63400000           [12] close      1  
79E5  1AC00080           [13] jmp        4            ; to [18]
79E9  1D400100           [14] getglobal  0   5        ; -1100462061
79ED  59800100           [15] loadk      1   6        ; "AdvanceToNextStage called with wrong quest active"
79F1  22400001           [16] call       0   2   1  
79F5  1E008000           [17] return     0   1      
79F9  13000000           [18] getupval   0   0      
79FD  5D800000           [19] getglobal  1   2        ; gGameData
7A01  22400001           [20] call       0   2   1  
7A05  1E008000           [21] return     0   1      
                         * constants:
7A09  07                 sizek (7)
7A0A  01                 const type 3
7A0B  65770E40           const [0]: (1074689893)
7A0F  04                 const type 4
7A10  04                 string size (4)
7A11  6B657900           "key\0"
                         const [1]: "key"
7A15  04                 const type 4
7A16  0A                 string size (10)
7A17  6747616D65446174+  "gGameDat"
7A1F  6100               "a\0"
                         const [2]: "gGameData"
7A21  01                 const type 3
7A22  FD052E6F           const [3]: (1865287165)
7A26  01                 const type 3
7A27  4B78C852           const [4]: (1388869707)
7A2B  01                 const type 3
7A2C  134868BE           const [5]: (-1100462061)
7A30  04                 const type 4
7A31  32                 string size (50)
7A32  416476616E636554+  "AdvanceT"
7A3A  6F4E657874537461+  "oNextSta"
7A42  67652063616C6C65+  "ge calle"
7A4A  6420776974682077+  "d with w"
7A52  726F6E6720717565+  "rong que"
7A5A  7374206163746976+  "st activ"
7A62  6500               "e\0"
                         const [6]: "AdvanceToNextStage called with wrong quest active"
                         * functions:
7A64  00                 sizep (0)
                         * lines:
7A65  15                 sizelineinfo (21)
                         [pc] (line)
7A66  D0                 [01] (-48)
7A67  05                 [02] (-48)
7A68  00                 [03] (-48)
7A69  00                 [04] (-48)
7A6A  D0                 [05] (-48)
7A6B  05                 [06] (-48)
7A6C  00                 [07] (-48)
7A6D  00                 [08] (-48)
7A6E  D0                 [09] (-48)
7A6F  05                 [10] (-48)
7A70  00                 [11] (-48)
7A71  00                 [12] (-48)
7A72  D0                 [13] (-48)
7A73  05                 [14] (-47)
7A74  00                 [15] (-47)
7A75  00                 [16] (-47)
7A76  D0                 [17] (-46)
7A77  05                 [18] (-44)
7A78  00                 [19] (-44)
7A79  00                 [20] (-44)
7A7A  D0                 [21] (-43)
                         * locals:
7ABA  00                 sizelocvars (0)
                         * upvalues:
7ABB  00                 sizeupvalues (0)
                         ** end of function **

                         
7ABC                     ** function [45] definition (level 2)
                         ** start of function **
7ABC  00                 string size (0)
                         source name: (none)
7ABE  0B                 line defined (1495)
7ABF  E4                 last line defined (1508)
7AC0  0B                 nups (1)
7AC1  01                 numparams (0)
7AC2  00                 is_vararg (0)
7AC3  00                 maxstacksize (5)
                         * code:
7AC5  1F                 sizecode (31)
7AC6  5D000000           [01] getglobal  1   0        ; 1074689893
7ACA  92000000           [02] move       2   0      
7ACE  62800001           [03] call       1   2   2  
7AD2  58000000           [04] test       1       0    ; to [6] if true
7AD6  1A000280           [05] jmp        9            ; to [15]
7ADA  5D400000           [06] getglobal  1   1        ; 538022378
7ADE  99800000           [07] loadk      2   2        ; 0
7AE2  62400001           [08] call       1   2   1  
7AE6  5DC00000           [09] getglobal  1   3        ; gPlayerProfileMgr
7AEA  6400C100           [10] self       1   1   260  ; 569342746
7AEE  D9800000           [11] loadk      3   2        ; 0
7AF2  62808001           [12] call       1   3   2  
7AF6  12008000           [13] move       0   1      
7AFA  1A40FC7F           [14] jmp        -14          ; to [1]
7AFE  64404100           [15] self       1   0   261  ; 1699680402
7B02  62800001           [16] call       1   2   2  
7B06  9D000000           [17] getglobal  2   0        ; 1074689893
7B0A  D2008000           [18] move       3   1      
7B0E  A2800001           [19] call       2   2   2  
7B12  98400000           [20] test       2       1    ; to [22] if false
7B16  1A000280           [21] jmp        9            ; to [31]
7B1A  A480C100           [22] self       2   1   262  ; -629413750
7B1E  1DC10100           [23] getglobal  4   7        ; libraryScanTarget
7B22  A2808001           [24] call       2   3   2  
7B26  8E004201           [25] gettable   2   2   264  ; "mCompleted"
7B2A  98000000           [26] test       2       0    ; to [28] if true
7B2E  1A800080           [27] jmp        3            ; to [31]
7B32  D3000000           [28] getupval   3   0      
7B36  12018000           [29] move       4   1      
7B3A  E2400001           [30] call       3   2   1  
7B3E  1E008000           [31] return     0   1      
                         * constants:
7B42  09                 sizek (9)
7B43  01                 const type 3
7B44  65770E40           const [0]: (1074689893)
7B48  01                 const type 3
7B49  EA911120           const [1]: (538022378)
7B4D  03                 const type 3
7B4E  00000000           const [2]: (0)
7B52  04                 const type 4
7B53  12                 string size (18)
7B54  67506C6179657250+  "gPlayerP"
7B5C  726F66696C654D67+  "rofileMg"
7B64  7200               "r\0"
                         const [3]: "gPlayerProfileMgr"
7B66  01                 const type 3
7B67  1A7BEF21           const [4]: (569342746)
7B6B  01                 const type 3
7B6C  92104F65           const [5]: (1699680402)
7B70  01                 const type 3
7B71  8AE87BDA           const [6]: (-629413750)
7B75  04                 const type 4
7B76  12                 string size (18)
7B77  6C69627261727953+  "libraryS"
7B7F  63616E5461726765+  "canTarge"
7B87  7400               "t\0"
                         const [7]: "libraryScanTarget"
7B89  04                 const type 4
7B8A  0B                 string size (11)
7B8B  6D436F6D706C6574+  "mComplet"
7B93  656400             "ed\0"
                         const [8]: "mCompleted"
                         * functions:
7B96  00                 sizep (0)
                         * lines:
7B97  1F                 sizelineinfo (31)
                         [pc] (line)
7B98  D9                 [01] (-39)
7B99  05                 [02] (-39)
7B9A  00                 [03] (-39)
7B9B  00                 [04] (-39)
7B9C  D9                 [05] (-39)
7B9D  05                 [06] (-38)
7B9E  00                 [07] (-38)
7B9F  00                 [08] (-38)
7BA0  D9                 [09] (-37)
7BA1  05                 [10] (-37)
7BA2  00                 [11] (-37)
7BA3  00                 [12] (-37)
7BA4  D9                 [13] (-37)
7BA5  05                 [14] (-37)
7BA6  00                 [15] (-35)
7BA7  00                 [16] (-35)
7BA8  D9                 [17] (-34)
7BA9  05                 [18] (-34)
7BAA  00                 [19] (-34)
7BAB  00                 [20] (-34)
7BAC  DA                 [21] (-34)
7BAD  05                 [22] (-33)
7BAE  00                 [23] (-33)
7BAF  00                 [24] (-33)
7BB0  DA                 [25] (-33)
7BB1  05                 [26] (-32)
7BB2  00                 [27] (-32)
7BB3  00                 [28] (-31)
7BB4  DA                 [29] (-31)
7BB5  05                 [30] (-31)
7BB6  00                 [31] (-28)
                         * locals:
7C14  00                 sizelocvars (0)
                         * upvalues:
7C15  00                 sizeupvalues (0)
                         ** end of function **

                         
7C16                     ** function [46] definition (level 2)
                         ** start of function **
7C16  00                 string size (0)
                         source name: (none)
7C18  0B                 line defined (1512)
7C19  F4                 last line defined (1524)
7C1A  0B                 nups (2)
7C1B  02                 numparams (2)
7C1C  02                 is_vararg (0)
7C1D  00                 maxstacksize (7)
                         * code:
7C1F  22                 sizecode (34)
7C20  9D000000           [01] getglobal  2   0        ; 1074689893
7C24  DD400000           [02] getglobal  3   1        ; _G
7C28  CE80C001           [03] gettable   3   3   258  ; "MissionPlayed"
7C2C  A2800001           [04] call       2   2   2  
7C30  98400000           [05] test       2       1    ; to [7] if false
7C34  1AC00080           [06] jmp        4            ; to [11]
7C38  9D400000           [07] getglobal  2   1        ; _G
7C3C  8E804001           [08] gettable   2   2   258  ; "MissionPlayed"
7C40  98400000           [09] test       2       1    ; to [11] if false
7C44  1A800080           [10] jmp        3            ; to [14]
7C48  9D400000           [11] getglobal  2   1        ; _G
7C4C  8CC04081           [12] settable   2   258 259  ; "MissionPlayed" 1
7C50  1AC00480           [13] jmp        20           ; to [34]
7C54  9D000100           [14] getglobal  2   4        ; gPlayerProfileMgr
7C58  A4404101           [15] self       2   2   261  ; 569342746
7C5C  19810100           [16] loadk      4   6        ; 0
7C60  A2808001           [17] call       2   3   2  
7C64  DD000000           [18] getglobal  3   0        ; 1074689893
7C68  12010001           [19] move       4   2      
7C6C  E2800001           [20] call       3   2   2  
7C70  D8400000           [21] test       3       1    ; to [23] if false
7C74  1A800280           [22] jmp        11           ; to [34]
7C78  E4C04101           [23] self       3   2   263  ; 1699680402
7C7C  E2800001           [24] call       3   2   2  
7C80  1D410000           [25] getglobal  4   1        ; _G
7C84  0C014281           [26] settable   4   258 264  ; "MissionPlayed" 0
7C88  13010000           [27] getupval   4   0      
7C8C  52010000           [28] move       5   0      
7C90  92018000           [29] move       6   1      
7C94  22418001           [30] call       4   3   1  
7C98  13018000           [31] getupval   4   1      
7C9C  52018001           [32] move       5   3      
7CA0  22410001           [33] call       4   2   1  
7CA4  1E008000           [34] return     0   1      
                         * constants:
7CA8  09                 sizek (9)
7CA9  01                 const type 3
7CAA  65770E40           const [0]: (1074689893)
7CAE  04                 const type 4
7CAF  03                 string size (3)
7CB0  5F4700             "_G\0"
                         const [1]: "_G"
7CB3  04                 const type 4
7CB4  0E                 string size (14)
7CB5  4D697373696F6E50+  "MissionP"
7CBD  6C6179656400       "layed\0"
                         const [2]: "MissionPlayed"
7CC3  01                 const type 3
7CC4  01000000           const [3]: (1)
7CC8  04                 const type 4
7CC9  12                 string size (18)
7CCA  67506C6179657250+  "gPlayerP"
7CD2  726F66696C654D67+  "rofileMg"
7CDA  7200               "r\0"
                         const [4]: "gPlayerProfileMgr"
7CDC  01                 const type 3
7CDD  1A7BEF21           const [5]: (569342746)
7CE1  03                 const type 3
7CE2  00000000           const [6]: (0)
7CE6  01                 const type 3
7CE7  92104F65           const [7]: (1699680402)
7CEB  01                 const type 3
7CEC  00000000           const [8]: (0)
                         * functions:
7CF0  00                 sizep (0)
                         * lines:
7CF1  22                 sizelineinfo (34)
                         [pc] (line)
7CF2  E9                 [01] (-23)
7CF3  05                 [02] (-23)
7CF4  00                 [03] (-23)
7CF5  00                 [04] (-23)
7CF6  E9                 [05] (-23)
7CF7  05                 [06] (-23)
7CF8  00                 [07] (-23)
7CF9  00                 [08] (-23)
7CFA  E9                 [09] (-23)
7CFB  05                 [10] (-23)
7CFC  00                 [11] (-22)
7CFD  00                 [12] (-22)
7CFE  E9                 [13] (-22)
7CFF  05                 [14] (-20)
7D00  00                 [15] (-20)
7D01  00                 [16] (-20)
7D02  E9                 [17] (-20)
7D03  05                 [18] (-19)
7D04  00                 [19] (-19)
7D05  00                 [20] (-19)
7D06  E9                 [21] (-19)
7D07  05                 [22] (-19)
7D08  00                 [23] (-18)
7D09  00                 [24] (-18)
7D0A  E9                 [25] (-17)
7D0B  05                 [26] (-17)
7D0C  00                 [27] (-16)
7D0D  00                 [28] (-16)
7D0E  E9                 [29] (-16)
7D0F  05                 [30] (-16)
7D10  00                 [31] (-15)
7D11  00                 [32] (-15)
7D12  E9                 [33] (-15)
7D13  05                 [34] (-12)
                         * locals:
7D7A  00                 sizelocvars (0)
                         * upvalues:
7D7B  00                 sizeupvalues (0)
                         ** end of function **

                         
7D7C                     ** function [47] definition (level 2)
                         ** start of function **
7D7C  00                 string size (0)
                         source name: (none)
7D7E  0B                 line defined (1526)
7D7F  87                 last line defined (1543)
7D80  0C                 nups (2)
7D81  02                 numparams (2)
7D82  02                 is_vararg (0)
7D83  00                 maxstacksize (7)
                         * code:
7D85  27                 sizecode (39)
7D86  9D000000           [01] getglobal  2   0        ; gPlayerProfileMgr
7D8A  A4404001           [02] self       2   2   257  ; 569342746
7D8E  19810000           [03] loadk      4   2        ; 0
7D92  A2808001           [04] call       2   3   2  
7D96  E4C04001           [05] self       3   2   259  ; 1699680402
7D9A  E2800001           [06] call       3   2   2  
7D9E  1D010100           [07] getglobal  4   4        ; 1074689893
7DA2  52018001           [08] move       5   3      
7DA6  22810001           [09] call       4   2   2  
7DAA  18010000           [10] test       4       0    ; to [12] if true
7DAE  1A000080           [11] jmp        1            ; to [13]
7DB2  1E008000           [12] return     0   1      
7DB6  1D410100           [13] getglobal  4   5        ; checkOnce
7DBA  18010000           [14] test       4       0    ; to [16] if true
7DBE  1A400280           [15] jmp        10           ; to [26]
7DC2  13010000           [16] getupval   4   0      
7DC6  52018001           [17] move       5   3      
7DCA  9D810100           [18] getglobal  6   6        ; checkItemType
7DCE  22818001           [19] call       4   3   2  
7DD2  18010000           [20] test       4       0    ; to [22] if true
7DD6  1A000480           [21] jmp        17           ; to [39]
7DDA  13018000           [22] getupval   4   1      
7DDE  52018001           [23] move       5   3      
7DE2  22410001           [24] call       4   2   1  
7DE6  1A000380           [25] jmp        13           ; to [39]
7DEA  13010000           [26] getupval   4   0      
7DEE  52018001           [27] move       5   3      
7DF2  9D810100           [28] getglobal  6   6        ; checkItemType
7DF6  22818001           [29] call       4   3   2  
7DFA  18410000           [30] test       4       1    ; to [32] if false
7DFE  1AC00080           [31] jmp        4            ; to [36]
7E02  1DC10100           [32] getglobal  4   7        ; 538022378
7E06  59810000           [33] loadk      5   2        ; 0
7E0A  22410001           [34] call       4   2   1  
7E0E  1A40FD7F           [35] jmp        -10          ; to [26]
7E12  13018000           [36] getupval   4   1      
7E16  52018001           [37] move       5   3      
7E1A  22410001           [38] call       4   2   1  
7E1E  1E008000           [39] return     0   1      
                         * constants:
7E22  08                 sizek (8)
7E23  04                 const type 4
7E24  12                 string size (18)
7E25  67506C6179657250+  "gPlayerP"
7E2D  726F66696C654D67+  "rofileMg"
7E35  7200               "r\0"
                         const [0]: "gPlayerProfileMgr"
7E37  01                 const type 3
7E38  1A7BEF21           const [1]: (569342746)
7E3C  03                 const type 3
7E3D  00000000           const [2]: (0)
7E41  01                 const type 3
7E42  92104F65           const [3]: (1699680402)
7E46  01                 const type 3
7E47  65770E40           const [4]: (1074689893)
7E4B  04                 const type 4
7E4C  0A                 string size (10)
7E4D  636865636B4F6E63+  "checkOnc"
7E55  6500               "e\0"
                         const [5]: "checkOnce"
7E57  04                 const type 4
7E58  0E                 string size (14)
7E59  636865636B497465+  "checkIte"
7E61  6D5479706500       "mType\0"
                         const [6]: "checkItemType"
7E67  01                 const type 3
7E68  EA911120           const [7]: (538022378)
                         * functions:
7E6C  00                 sizep (0)
                         * lines:
7E6D  27                 sizelineinfo (39)
                         [pc] (line)
7E6E  F7                 [01] (-9)
7E6F  05                 [02] (-9)
7E70  00                 [03] (-9)
7E71  00                 [04] (-9)
7E72  F7                 [05] (-8)
7E73  05                 [06] (-8)
7E74  00                 [07] (-7)
7E75  00                 [08] (-7)
7E76  F7                 [09] (-7)
7E77  05                 [10] (-7)
7E78  00                 [11] (-7)
7E79  00                 [12] (-6)
7E7A  F7                 [13] (-3)
7E7B  05                 [14] (-3)
7E7C  00                 [15] (-3)
7E7D  00                 [16] (-2)
7E7E  F8                 [17] (-2)
7E7F  05                 [18] (-2)
7E80  00                 [19] (-2)
7E81  00                 [20] (-2)
7E82  F8                 [21] (-2)
7E83  05                 [22] (-1)
7E84  00                 [23] (-1)
7E85  00                 [24] (-1)
7E86  F9                 [25] (0)
7E87  05                 [26] (2)
7E88  00                 [27] (2)
7E89  00                 [28] (2)
7E8A  F9                 [29] (2)
7E8B  05                 [30] (2)
7E8C  00                 [31] (2)
7E8D  00                 [32] (3)
7E8E  F9                 [33] (3)
7E8F  05                 [34] (3)
7E90  00                 [35] (3)
7E91  00                 [36] (5)
7E92  F9                 [37] (5)
7E93  05                 [38] (5)
7E94  00                 [39] (7)
                         * locals:
7F0A  00                 sizelocvars (0)
                         * upvalues:
7F0B  00                 sizeupvalues (0)
                         ** end of function **

                         
7F0C                     ** function [48] definition (level 2)
                         ** start of function **
7F0C  00                 string size (0)
                         source name: (none)
7F0E  0C                 line defined (1545)
7F0F  B5                 last line defined (1589)
7F10  0C                 nups (1)
7F11  01                 numparams (0)
7F12  00                 is_vararg (0)
7F13  00                 maxstacksize (8)
                         * code:
7F15  6B                 sizecode (107)
7F16  5D000000           [001] getglobal  1   0        ; gRegion
7F1A  6440C000           [002] self       1   1   257  ; 65205951
7F1E  62800001           [003] call       1   2   2  
7F22  12008000           [004] move       0   1      
7F26  5D800000           [005] getglobal  1   2        ; 1074689893
7F2A  92000000           [006] move       2   0      
7F2E  62800001           [007] call       1   2   2  
7F32  58400000           [008] test       1       1    ; to [10] if false
7F36  1A80FD7F           [009] jmp        -9           ; to [1]
7F3A  5D800000           [010] getglobal  1   2        ; 1074689893
7F3E  9DC00000           [011] getglobal  2   3        ; gFlashMgr
7F42  A4004101           [012] self       2   2   260  ; -1113309802
7F46  A2000001           [013] call       2   2   0  
7F4A  62800000           [014] call       1   0   2  
7F4E  58400000           [015] test       1       1    ; to [17] if false
7F52  1AC00080           [016] jmp        4            ; to [21]
7F56  5D400100           [017] getglobal  1   5        ; 538022378
7F5A  99800100           [018] loadk      2   6        ; 0
7F5E  62400001           [019] call       1   2   1  
7F62  1A00FD7F           [020] jmp        -11          ; to [10]
7F66  5D800000           [021] getglobal  1   2        ; 1074689893
7F6A  9DC00100           [022] getglobal  2   7        ; blockingInputFilter
7F6E  62800001           [023] call       1   2   2  
7F72  58400000           [024] test       1       1    ; to [26] if false
7F76  1A800080           [025] jmp        3            ; to [29]
7F7A  64004200           [026] self       1   0   264  ; 1129512439
7F7E  DDC00100           [027] getglobal  3   7        ; blockingInputFilter
7F82  62408001           [028] call       1   3   1  
7F86  5D400200           [029] getglobal  1   9        ; _T
7F8A  9DC00200           [030] getglobal  2   11       ; codexEntryObject
7F8E  4C800085           [031] settable   1   266 2    ; "QuickSelectObjectType"
7F92  5D400200           [032] getglobal  1   9        ; _T
7F96  4E00C300           [033] gettable   1   1   268  ; 284681872
7F9A  99400300           [034] loadk      2   13       ; "Intel"
7F9E  62400001           [035] call       1   2   1  
7FA2  5D800000           [036] getglobal  1   2        ; 1074689893
7FA6  9DC00100           [037] getglobal  2   7        ; blockingInputFilter
7FAA  62800001           [038] call       1   2   2  
7FAE  58400000           [039] test       1       1    ; to [41] if false
7FB2  1A800080           [040] jmp        3            ; to [44]
7FB6  64804300           [041] self       1   0   270  ; 1265388858
7FBA  DDC00100           [042] getglobal  3   7        ; blockingInputFilter
7FBE  62408001           [043] call       1   3   1  
7FC2  5D400100           [044] getglobal  1   5        ; 538022378
7FC6  99C00300           [045] loadk      2   15       ; 0
7FCA  62400001           [046] call       1   2   1  
7FCE  5D000400           [047] getglobal  1   16       ; waitForMenuClose
7FD2  58000000           [048] test       1       0    ; to [50] if true
7FD6  1A800280           [049] jmp        11           ; to [61]
7FDA  5D800000           [050] getglobal  1   2        ; 1074689893
7FDE  9DC00000           [051] getglobal  2   3        ; gFlashMgr
7FE2  A4004101           [052] self       2   2   260  ; -1113309802
7FE6  A2000001           [053] call       2   2   0  
7FEA  62800000           [054] call       1   0   2  
7FEE  58400000           [055] test       1       1    ; to [57] if false
7FF2  1AC00080           [056] jmp        4            ; to [61]
7FF6  5D400100           [057] getglobal  1   5        ; 538022378
7FFA  99800100           [058] loadk      2   6        ; 0
7FFE  62400001           [059] call       1   2   1  
8002  1A00FD7F           [060] jmp        -11          ; to [50]
8006  5D000000           [061] getglobal  1   0        ; gRegion
800A  6440C400           [062] self       1   1   273  ; -1110225722
800E  DD800400           [063] getglobal  3   18       ; codexDeco
8012  1DC10400           [064] getglobal  4   19       ; ZERO_VECTOR
8016  5D010500           [065] getglobal  5   20       ; ZERO_ROTATION
801A  62808002           [066] call       1   5   2  
801E  9D800000           [067] getglobal  2   2        ; 1074689893
8022  D2008000           [068] move       3   1      
8026  A2800001           [069] call       2   2   2  
802A  98400000           [070] test       2       1    ; to [72] if false
802E  1AC00180           [071] jmp        8            ; to [80]
8032  A4404500           [072] self       2   0   277  ; -1917464545
8036  A2800001           [073] call       2   2   2  
803A  A4804501           [074] self       2   2   278  ; -1404219229
803E  12018000           [075] move       4   1      
8042  57010000           [076] loadbool   5   0   0    ; false
8046  97010000           [077] loadbool   6   0   0    ; false
804A  D7018000           [078] loadbool   7   1   0    ; true
804E  A2400003           [079] call       2   6   1  
8052  A4C0C500           [080] self       2   1   279  ; -725453761
8056  A2400001           [081] call       2   2   1  
805A  9D000600           [082] getglobal  2   24       ; advanceQuestToNextStageAfterTransmissions
805E  98000000           [083] test       2       0    ; to [85] if true
8062  1A400580           [084] jmp        22           ; to [107]
8066  9D400100           [085] getglobal  2   5        ; 538022378
806A  DD400600           [086] getglobal  3   25       ; delay
806E  A2400001           [087] call       2   2   1  
8072  9D800600           [088] getglobal  2   26       ; gPlayerProfileMgr
8076  A4C04601           [089] self       2   2   283  ; 569342746
807A  19010700           [090] loadk      4   28       ; 0
807E  A2808001           [091] call       2   3   2  
8082  DD800000           [092] getglobal  3   2        ; 1074689893
8086  12010001           [093] move       4   2      
808A  E2800001           [094] call       3   2   2  
808E  D8400000           [095] test       3       1    ; to [97] if false
8092  1A400280           [096] jmp        10           ; to [107]
8096  E4404701           [097] self       3   2   285  ; 1699680402
809A  E2800001           [098] call       3   2   2  
809E  1D810000           [099] getglobal  4   2        ; 1074689893
80A2  52018001           [100] move       5   3      
80A6  22810001           [101] call       4   2   2  
80AA  18410000           [102] test       4       1    ; to [104] if false
80AE  1A800080           [103] jmp        3            ; to [107]
80B2  13010000           [104] getupval   4   0      
80B6  52018001           [105] move       5   3      
80BA  22410001           [106] call       4   2   1  
80BE  1E008000           [107] return     0   1      
                         * constants:
80C2  1E                 sizek (30)
80C3  04                 const type 4
80C4  08                 string size (8)
80C5  67526567696F6E00   "gRegion\0"
                         const [0]: "gRegion"
80CD  01                 const type 3
80CE  BFF6E203           const [1]: (65205951)
80D2  01                 const type 3
80D3  65770E40           const [2]: (1074689893)
80D7  04                 const type 4
80D8  0A                 string size (10)
80D9  67466C6173684D67+  "gFlashMg"
80E1  7200               "r\0"
                         const [3]: "gFlashMgr"
80E3  01                 const type 3
80E4  963DA4BD           const [4]: (-1113309802)
80E8  01                 const type 3
80E9  EA911120           const [5]: (538022378)
80ED  03                 const type 3
80EE  0000803F           const [6]: (0)
80F2  04                 const type 4
80F3  14                 string size (20)
80F4  626C6F636B696E67+  "blocking"
80FC  496E70757446696C+  "InputFil"
8104  74657200           "ter\0"
                         const [7]: "blockingInputFilter"
8108  01                 const type 3
8109  F7FD5243           const [8]: (1129512439)
810D  04                 const type 4
810E  03                 string size (3)
810F  5F5400             "_T\0"
                         const [9]: "_T"
8112  04                 const type 4
8113  16                 string size (22)
8114  517569636B53656C+  "QuickSel"
811C  6563744F626A6563+  "ectObjec"
8124  745479706500       "tType\0"
                         const [10]: "QuickSelectObjectType"
812A  04                 const type 4
812B  11                 string size (17)
812C  636F646578456E74+  "codexEnt"
8134  72794F626A656374+  "ryObject"
813C  00                 "\0"
                         const [11]: "codexEntryObject"
813D  01                 const type 3
813E  90E6F710           const [12]: (284681872)
8142  04                 const type 4
8143  06                 string size (6)
8144  496E74656C00       "Intel\0"
                         const [13]: "Intel"
814A  01                 const type 3
814B  3A4D6C4B           const [14]: (1265388858)
814F  03                 const type 3
8150  0000A040           const [15]: (0)
8154  04                 const type 4
8155  11                 string size (17)
8156  77616974466F724D+  "waitForM"
815E  656E75436C6F7365+  "enuClose"
8166  00                 "\0"
                         const [16]: "waitForMenuClose"
8167  01                 const type 3
8168  C64CD3BD           const [17]: (-1110225722)
816C  04                 const type 4
816D  0A                 string size (10)
816E  636F646578446563+  "codexDec"
8176  6F00               "o\0"
                         const [18]: "codexDeco"
8178  04                 const type 4
8179  0C                 string size (12)
817A  5A45524F5F564543+  "ZERO_VEC"
8182  544F5200           "TOR\0"
                         const [19]: "ZERO_VECTOR"
8186  04                 const type 4
8187  0E                 string size (14)
8188  5A45524F5F524F54+  "ZERO_ROT"
8190  4154494F4E00       "ATION\0"
                         const [20]: "ZERO_ROTATION"
8196  01                 const type 3
8197  1FD0B58D           const [21]: (-1917464545)
819B  01                 const type 3
819C  A3504DAC           const [22]: (-1404219229)
81A0  01                 const type 3
81A1  3F74C2D4           const [23]: (-725453761)
81A5  04                 const type 4
81A6  2A                 string size (42)
81A7  616476616E636551+  "advanceQ"
81AF  75657374546F4E65+  "uestToNe"
81B7  7874537461676541+  "xtStageA"
81BF  667465725472616E+  "fterTran"
81C7  736D697373696F6E+  "smission"
81CF  7300               "s\0"
                         const [24]: "advanceQuestToNextStageAfterTransmissions"
81D1  04                 const type 4
81D2  06                 string size (6)
81D3  64656C617900       "delay\0"
                         const [25]: "delay"
81D9  04                 const type 4
81DA  12                 string size (18)
81DB  67506C6179657250+  "gPlayerP"
81E3  726F66696C654D67+  "rofileMg"
81EB  7200               "r\0"
                         const [26]: "gPlayerProfileMgr"
81ED  01                 const type 3
81EE  1A7BEF21           const [27]: (569342746)
81F2  03                 const type 3
81F3  00000000           const [28]: (0)
81F7  01                 const type 3
81F8  92104F65           const [29]: (1699680402)
                         * functions:
81FC  00                 sizep (0)
                         * lines:
81FD  6B                 sizelineinfo (107)
                         [pc] (line)
81FE  0B                 [001] (11)
81FF  06                 [002] (11)
8200  00                 [003] (11)
8201  00                 [004] (11)
8202  0B                 [005] (12)
8203  06                 [006] (12)
8204  00                 [007] (12)
8205  00                 [008] (12)
8206  0B                 [009] (12)
8207  06                 [010] (14)
8208  00                 [011] (14)
8209  00                 [012] (14)
820A  0B                 [013] (14)
820B  06                 [014] (14)
820C  00                 [015] (14)
820D  00                 [016] (14)
820E  0C                 [017] (15)
820F  06                 [018] (15)
8210  00                 [019] (15)
8211  00                 [020] (15)
8212  0C                 [021] (18)
8213  06                 [022] (18)
8214  00                 [023] (18)
8215  00                 [024] (18)
8216  0C                 [025] (18)
8217  06                 [026] (19)
8218  00                 [027] (19)
8219  00                 [028] (19)
821A  0C                 [029] (22)
821B  06                 [030] (22)
821C  00                 [031] (22)
821D  00                 [032] (23)
821E  0C                 [033] (23)
821F  06                 [034] (23)
8220  00                 [035] (23)
8221  00                 [036] (25)
8222  0E                 [037] (25)
8223  06                 [038] (25)
8224  00                 [039] (25)
8225  00                 [040] (25)
8226  0E                 [041] (26)
8227  06                 [042] (26)
8228  00                 [043] (26)
8229  00                 [044] (29)
822A  0E                 [045] (29)
822B  06                 [046] (29)
822C  00                 [047] (31)
822D  00                 [048] (31)
822E  0E                 [049] (31)
822F  06                 [050] (32)
8230  00                 [051] (32)
8231  00                 [052] (32)
8232  0E                 [053] (32)
8233  06                 [054] (32)
8234  00                 [055] (32)
8235  00                 [056] (32)
8236  0E                 [057] (33)
8237  06                 [058] (33)
8238  00                 [059] (33)
8239  00                 [060] (33)
823A  0E                 [061] (37)
823B  06                 [062] (37)
823C  00                 [063] (37)
823D  00                 [064] (37)
823E  0F                 [065] (37)
823F  06                 [066] (37)
8240  00                 [067] (38)
8241  00                 [068] (38)
8242  0F                 [069] (38)
8243  06                 [070] (38)
8244  00                 [071] (38)
8245  00                 [072] (39)
8246  0F                 [073] (39)
8247  06                 [074] (39)
8248  00                 [075] (39)
8249  00                 [076] (39)
824A  0F                 [077] (39)
824B  06                 [078] (39)
824C  00                 [079] (39)
824D  00                 [080] (41)
824E  12                 [081] (41)
824F  06                 [082] (43)
8250  00                 [083] (43)
8251  00                 [084] (43)
8252  12                 [085] (44)
8253  06                 [086] (44)
8254  00                 [087] (44)
8255  00                 [088] (45)
8256  12                 [089] (45)
8257  06                 [090] (45)
8258  00                 [091] (45)
8259  00                 [092] (46)
825A  12                 [093] (46)
825B  06                 [094] (46)
825C  00                 [095] (46)
825D  00                 [096] (46)
825E  12                 [097] (47)
825F  06                 [098] (47)
8260  00                 [099] (48)
8261  00                 [100] (48)
8262  13                 [101] (48)
8263  06                 [102] (48)
8264  00                 [103] (48)
8265  00                 [104] (49)
8266  13                 [105] (49)
8267  06                 [106] (49)
8268  00                 [107] (53)
                         * locals:
83AA  00                 sizelocvars (0)
                         * upvalues:
83AB  00                 sizeupvalues (0)
                         ** end of function **

                         
83AC                     ** function [49] definition (level 2)
                         ** start of function **
83AC  00                 string size (0)
                         source name: (none)
83AE  0C                 line defined (1591)
83AF  F3                 last line defined (1651)
83B0  0C                 nups (3)
83B1  03                 numparams (0)
83B2  00                 is_vararg (0)
83B3  00                 maxstacksize (16)
                         * code:
83B6  01                 sizecode (157)
83B7  1D000000           [001] getglobal  0   0        ; 1074689893
83BB  5D400000           [002] getglobal  1   1        ; gPlayerProfileMgr
83BF  6480C000           [003] self       1   1   258  ; 569342746
83C3  D9C00000           [004] loadk      3   3        ; 0
83C7  62008001           [005] call       1   3   0  
83CB  22800000           [006] call       0   0   2  
83CF  18000000           [007] test       0       0    ; to [9] if true
83D3  1A000080           [008] jmp        1            ; to [10]
83D7  1E008000           [009] return     0   1      
83DB  1D000100           [010] getglobal  0   4        ; waitForCinematicEnd
83DF  18000000           [011] test       0       0    ; to [13] if true
83E3  1AC00780           [012] jmp        32           ; to [45]
83E7  1D000000           [013] getglobal  0   0        ; 1074689893
83EB  5D400100           [014] getglobal  1   5        ; gBackgroundRegion
83EF  22800001           [015] call       0   2   2  
83F3  18400000           [016] test       0       1    ; to [18] if false
83F7  1A800180           [017] jmp        7            ; to [25]
83FB  1D000000           [018] getglobal  0   0        ; 1074689893
83FF  5D400100           [019] getglobal  1   5        ; gBackgroundRegion
8403  6480C100           [020] self       1   1   262  ; 2066713391
8407  62000001           [021] call       1   2   0  
840B  22800000           [022] call       0   0   2  
840F  18000000           [023] test       0       0    ; to [25] if true
8413  1AC00080           [024] jmp        4            ; to [29]
8417  1DC00100           [025] getglobal  0   7        ; 538022378
841B  59C00000           [026] loadk      1   3        ; 0
841F  22400001           [027] call       0   2   1  
8423  1AC0FB7F           [028] jmp        -16          ; to [13]
8427  1D000000           [029] getglobal  0   0        ; 1074689893
842B  5D400100           [030] getglobal  1   5        ; gBackgroundRegion
842F  22800001           [031] call       0   2   2  
8433  18400000           [032] test       0       1    ; to [34] if false
8437  1A800280           [033] jmp        11           ; to [45]
843B  1D000000           [034] getglobal  0   0        ; 1074689893
843F  5D400100           [035] getglobal  1   5        ; gBackgroundRegion
8443  6480C100           [036] self       1   1   262  ; 2066713391
8447  62000001           [037] call       1   2   0  
844B  22800000           [038] call       0   0   2  
844F  18400000           [039] test       0       1    ; to [41] if false
8453  1AC00080           [040] jmp        4            ; to [45]
8457  1DC00100           [041] getglobal  0   7        ; 538022378
845B  59C00000           [042] loadk      1   3        ; 0
845F  22400001           [043] call       0   2   1  
8463  1AC0FB7F           [044] jmp        -16          ; to [29]
8467  1D000200           [045] getglobal  0   8        ; waitForMenuClose
846B  18000000           [046] test       0       0    ; to [48] if true
846F  1A000680           [047] jmp        25           ; to [73]
8473  1D000000           [048] getglobal  0   0        ; 1074689893
8477  5D400200           [049] getglobal  1   9        ; _T
847B  4E80C200           [050] gettable   1   1   266  ; "AnyMenuOpen"
847F  22800001           [051] call       0   2   2  
8483  18400000           [052] test       0       1    ; to [54] if false
8487  1A000280           [053] jmp        9            ; to [63]
848B  1D400200           [054] getglobal  0   9        ; _T
848F  0EC04200           [055] gettable   0   0   267  ; 1802978667
8493  22808000           [056] call       0   1   2  
8497  18000000           [057] test       0       0    ; to [59] if true
849B  1AC00080           [058] jmp        4            ; to [63]
849F  1DC00100           [059] getglobal  0   7        ; 538022378
84A3  59000300           [060] loadk      1   12       ; 0
84A7  22400001           [061] call       0   2   1  
84AB  1A00FC7F           [062] jmp        -15          ; to [48]
84AF  1D400300           [063] getglobal  0   13       ; gFlashMgr
84B3  24804300           [064] self       0   0   270  ; -872305030
84B7  93000000           [065] getupval   2   0      
84BB  22808001           [066] call       0   3   2  
84BF  18000000           [067] test       0       0    ; to [69] if true
84C3  1AC00080           [068] jmp        4            ; to [73]
84C7  1DC00100           [069] getglobal  0   7        ; 538022378
84CB  59000300           [070] loadk      1   12       ; 0
84CF  22400001           [071] call       0   2   1  
84D3  1A40FD7F           [072] jmp        -10          ; to [63]
84D7  06000000           [073] loadnil    0   0      
84DB  5D400000           [074] getglobal  1   1        ; gPlayerProfileMgr
84DF  6480C000           [075] self       1   1   258  ; 569342746
84E3  D9C00000           [076] loadk      3   3        ; 0
84E7  62808001           [077] call       1   3   2  
84EB  64C0C300           [078] self       1   1   271  ; 1699680402
84EF  62800001           [079] call       1   2   2  
84F3  A400C400           [080] self       2   1   272  ; 51109503
84F7  A2800001           [081] call       2   2   2  
84FB  CE404401           [082] gettable   3   2   273  ; "mOperatorCustomization"
84FF  2481C401           [083] self       4   3   274  ; -1871371820
8503  9DC10400           [084] getglobal  6   19       ; Lotus_Game
8507  8E014503           [085] gettable   6   6   276  ; "TOSS_VOICE"
850B  22818001           [086] call       4   3   2  
850F  5D010000           [087] getglobal  5   0        ; 1074689893
8513  8E414502           [088] gettable   6   4   277  ; "mItemType"
8517  62810001           [089] call       5   2   2  
851B  58410000           [090] test       5       1    ; to [92] if false
851F  1A800280           [091] jmp        11           ; to [103]
8523  5D810500           [092] getglobal  5   22       ; 2083004503
8527  8E414502           [093] gettable   6   4   277  ; "mItemType"
852B  62810001           [094] call       5   2   2  
852F  9D010000           [095] getglobal  6   0        ; 1074689893
8533  D2018002           [096] move       7   5      
8537  A2810001           [097] call       6   2   2  
853B  98410000           [098] test       6       1    ; to [100] if false
853F  1A800080           [099] jmp        3            ; to [103]
8543  A4C1C502           [100] self       6   5   279  ; -1585739952
8547  A2810001           [101] call       6   2   2  
854B  12000003           [102] move       0   6      
854F  9D010000           [103] getglobal  6   0        ; 1074689893
8553  D2010000           [104] move       7   0      
8557  A2810001           [105] call       6   2   2  
855B  98010000           [106] test       6       0    ; to [108] if true
855F  1AC00080           [107] jmp        4            ; to [112]
8563  9D810500           [108] getglobal  6   22       ; 2083004503
8567  D9010600           [109] loadk      7   24       ; "/Lotus/Upgrades/Skins/Voices/OperatorVoiceCTransmissionSet"
856B  A2810001           [110] call       6   2   2  
856F  12000003           [111] move       0   6      
8573  9D410600           [112] getglobal  6   25       ; 1672515847
8577  DD810600           [113] getglobal  7   26       ; transmissionTags
857B  A2010101           [114] call       6   2   4  
857F  1A000480           [115] jmp        17           ; to [133]
8583  E4C24600           [116] self       11  0   283  ; -781703361
8587  52030005           [117] move       13  10     
858B  E2828001           [118] call       11  3   2  
858F  1D030000           [119] getglobal  12  0        ; 1074689893
8593  52038005           [120] move       13  11     
8597  22830001           [121] call       12  2   2  
859B  18030000           [122] test       12      0    ; to [124] if true
859F  1A000180           [123] jmp        5            ; to [129]
85A3  1D030700           [124] getglobal  12  28       ; otherTransmissionSet
85A7  24C34606           [125] self       12  12  283  ; -781703361
85AB  92030005           [126] move       14  10     
85AF  22838001           [127] call       12  3   2  
85B3  D2020006           [128] move       11  12     
85B7  13038000           [129] getupval   12  1      
85BB  0E434706           [130] gettable   12  12  285  ; 910246418
85BF  52038005           [131] move       13  11     
85C3  22430001           [132] call       12  2   1  
85C7  96810000           [133] tforloop   6       2    ; to [135] if exit
85CB  1A00FB7F           [134] jmp        -19          ; to [116]
85CF  1D830700           [135] getglobal  12  30       ; advanceQuestToNextStageAfterTransmissions
85D3  18030000           [136] test       12      0    ; to [138] if true
85D7  1A800480           [137] jmp        19           ; to [157]
85DB  1D430000           [138] getglobal  12  1        ; gPlayerProfileMgr
85DF  24834006           [139] self       12  12  258  ; 569342746
85E3  99C30000           [140] loadk      14  3        ; 0
85E7  22838001           [141] call       12  3   2  
85EB  5D030000           [142] getglobal  13  0        ; 1074689893
85EF  92030006           [143] move       14  12     
85F3  62830001           [144] call       13  2   2  
85F7  58430000           [145] test       13      1    ; to [147] if false
85FB  1A400280           [146] jmp        10           ; to [157]
85FF  64C34306           [147] self       13  12  271  ; 1699680402
8603  62830001           [148] call       13  2   2  
8607  9D030000           [149] getglobal  14  0        ; 1074689893
860B  D2038006           [150] move       15  13     
860F  A2830001           [151] call       14  2   2  
8613  98430000           [152] test       14      1    ; to [154] if false
8617  1A800080           [153] jmp        3            ; to [157]
861B  93030001           [154] getupval   14  2      
861F  D2038006           [155] move       15  13     
8623  A2430001           [156] call       14  2   1  
8627  1E008000           [157] return     0   1      
                         * constants:
862B  1F                 sizek (31)
862C  01                 const type 3
862D  65770E40           const [0]: (1074689893)
8631  04                 const type 4
8632  12                 string size (18)
8633  67506C6179657250+  "gPlayerP"
863B  726F66696C654D67+  "rofileMg"
8643  7200               "r\0"
                         const [1]: "gPlayerProfileMgr"
8645  01                 const type 3
8646  1A7BEF21           const [2]: (569342746)
864A  03                 const type 3
864B  00000000           const [3]: (0)
864F  04                 const type 4
8650  14                 string size (20)
8651  77616974466F7243+  "waitForC"
8659  696E656D61746963+  "inematic"
8661  456E6400           "End\0"
                         const [4]: "waitForCinematicEnd"
8665  04                 const type 4
8666  12                 string size (18)
8667  674261636B67726F+  "gBackgro"
866F  756E64526567696F+  "undRegio"
8677  6E00               "n\0"
                         const [5]: "gBackgroundRegion"
8679  01                 const type 3
867A  2F8B2F7B           const [6]: (2066713391)
867E  01                 const type 3
867F  EA911120           const [7]: (538022378)
8683  04                 const type 4
8684  11                 string size (17)
8685  77616974466F724D+  "waitForM"
868D  656E75436C6F7365+  "enuClose"
8695  00                 "\0"
                         const [8]: "waitForMenuClose"
8696  04                 const type 4
8697  03                 string size (3)
8698  5F5400             "_T\0"
                         const [9]: "_T"
869B  04                 const type 4
869C  0C                 string size (12)
869D  416E794D656E754F+  "AnyMenuO"
86A5  70656E00           "pen\0"
                         const [10]: "AnyMenuOpen"
86A9  01                 const type 3
86AA  6B45776B           const [11]: (1802978667)
86AE  03                 const type 3
86AF  0000803F           const [12]: (0)
86B3  04                 const type 4
86B4  0A                 string size (10)
86B5  67466C6173684D67+  "gFlashMg"
86BD  7200               "r\0"
                         const [13]: "gFlashMgr"
86BF  01                 const type 3
86C0  7AAE01CC           const [14]: (-872305030)
86C4  01                 const type 3
86C5  92104F65           const [15]: (1699680402)
86C9  01                 const type 3
86CA  7FDE0B03           const [16]: (51109503)
86CE  04                 const type 4
86CF  17                 string size (23)
86D0  6D4F70657261746F+  "mOperato"
86D8  72437573746F6D69+  "rCustomi"
86E0  7A6174696F6E00     "zation\0"
                         const [17]: "mOperatorCustomization"
86E7  01                 const type 3
86E8  D4217590           const [18]: (-1871371820)
86EC  04                 const type 4
86ED  0B                 string size (11)
86EE  4C6F7475735F4761+  "Lotus_Ga"
86F6  6D6500             "me\0"
                         const [19]: "Lotus_Game"
86F9  04                 const type 4
86FA  0B                 string size (11)
86FB  544F53535F564F49+  "TOSS_VOI"
8703  434500             "CE\0"
                         const [20]: "TOSS_VOICE"
8706  04                 const type 4
8707  0A                 string size (10)
8708  6D4974656D547970+  "mItemTyp"
8710  6500               "e\0"
                         const [21]: "mItemType"
8712  01                 const type 3
8713  5720287C           const [22]: (2083004503)
8717  01                 const type 3
8718  50877BA1           const [23]: (-1585739952)
871C  04                 const type 4
871D  3B                 string size (59)
871E  2F4C6F7475732F55+  "/Lotus/U"
8726  706772616465732F+  "pgrades/"
872E  536B696E732F566F+  "Skins/Vo"
8736  696365732F4F7065+  "ices/Ope"
873E  7261746F72566F69+  "ratorVoi"
8746  6365435472616E73+  "ceCTrans"
874E  6D697373696F6E53+  "missionS"
8756  657400             "et\0"
                         const [24]: "/Lotus/Upgrades/Skins/Voices/OperatorVoiceCTransmissionSet"
8759  01                 const type 3
875A  0791B063           const [25]: (1672515847)
875E  04                 const type 4
875F  11                 string size (17)
8760  7472616E736D6973+  "transmis"
8768  73696F6E54616773+  "sionTags"
8770  00                 "\0"
                         const [26]: "transmissionTags"
8771  01                 const type 3
8772  3F2768D1           const [27]: (-781703361)
8776  04                 const type 4
8777  15                 string size (21)
8778  6F74686572547261+  "otherTra"
8780  6E736D697373696F+  "nsmissio"
8788  6E53657400         "nSet\0"
                         const [28]: "otherTransmissionSet"
878D  01                 const type 3
878E  12424136           const [29]: (910246418)
8792  04                 const type 4
8793  2A                 string size (42)
8794  616476616E636551+  "advanceQ"
879C  75657374546F4E65+  "uestToNe"
87A4  7874537461676541+  "xtStageA"
87AC  667465725472616E+  "fterTran"
87B4  736D697373696F6E+  "smission"
87BC  7300               "s\0"
                         const [30]: "advanceQuestToNextStageAfterTransmissions"
                         * functions:
87BE  00                 sizep (0)
                         * lines:
87C0  01                 sizelineinfo (157)
                         [pc] (line)
87C1  38                 [001] (56)
87C2  06                 [002] (56)
87C3  00                 [003] (56)
87C4  00                 [004] (56)
87C5  38                 [005] (56)
87C6  06                 [006] (56)
87C7  00                 [007] (56)
87C8  00                 [008] (56)
87C9  38                 [009] (57)
87CA  06                 [010] (60)
87CB  00                 [011] (60)
87CC  00                 [012] (60)
87CD  38                 [013] (61)
87CE  06                 [014] (61)
87CF  00                 [015] (61)
87D0  00                 [016] (61)
87D1  38                 [017] (61)
87D2  06                 [018] (61)
87D3  00                 [019] (61)
87D4  00                 [020] (61)
87D5  38                 [021] (61)
87D6  06                 [022] (61)
87D7  00                 [023] (61)
87D8  00                 [024] (61)
87D9  38                 [025] (62)
87DA  06                 [026] (62)
87DB  00                 [027] (62)
87DC  00                 [028] (62)
87DD  38                 [029] (65)
87DE  06                 [030] (65)
87DF  00                 [031] (65)
87E0  00                 [032] (65)
87E1  39                 [033] (65)
87E2  06                 [034] (65)
87E3  00                 [035] (65)
87E4  00                 [036] (65)
87E5  3C                 [037] (65)
87E6  06                 [038] (65)
87E7  00                 [039] (65)
87E8  00                 [040] (65)
87E9  3C                 [041] (66)
87EA  06                 [042] (66)
87EB  00                 [043] (66)
87EC  00                 [044] (66)
87ED  3C                 [045] (70)
87EE  06                 [046] (70)
87EF  00                 [047] (70)
87F0  00                 [048] (71)
87F1  3D                 [049] (71)
87F2  06                 [050] (71)
87F3  00                 [051] (71)
87F4  00                 [052] (71)
87F5  3D                 [053] (71)
87F6  06                 [054] (71)
87F7  00                 [055] (71)
87F8  00                 [056] (71)
87F9  3D                 [057] (71)
87FA  06                 [058] (71)
87FB  00                 [059] (72)
87FC  00                 [060] (72)
87FD  3D                 [061] (72)
87FE  06                 [062] (72)
87FF  00                 [063] (75)
8800  00                 [064] (75)
8801  3D                 [065] (75)
8802  06                 [066] (75)
8803  00                 [067] (75)
8804  00                 [068] (75)
8805  3D                 [069] (76)
8806  06                 [070] (76)
8807  00                 [071] (76)
8808  00                 [072] (76)
8809  3D                 [073] (80)
880A  06                 [074] (81)
880B  00                 [075] (81)
880C  00                 [076] (81)
880D  3D                 [077] (81)
880E  06                 [078] (81)
880F  00                 [079] (81)
8810  00                 [080] (82)
8811  3D                 [081] (82)
8812  06                 [082] (83)
8813  00                 [083] (84)
8814  00                 [084] (84)
8815  3D                 [085] (84)
8816  06                 [086] (84)
8817  00                 [087] (85)
8818  00                 [088] (85)
8819  3D                 [089] (85)
881A  06                 [090] (85)
881B  00                 [091] (85)
881C  00                 [092] (86)
881D  3D                 [093] (86)
881E  06                 [094] (86)
881F  00                 [095] (87)
8820  00                 [096] (87)
8821  3E                 [097] (87)
8822  06                 [098] (87)
8823  00                 [099] (87)
8824  00                 [100] (88)
8825  3E                 [101] (88)
8826  06                 [102] (88)
8827  00                 [103] (93)
8828  00                 [104] (93)
8829  3E                 [105] (93)
882A  06                 [106] (93)
882B  00                 [107] (93)
882C  00                 [108] (94)
882D  3E                 [109] (94)
882E  06                 [110] (94)
882F  00                 [111] (94)
8830  00                 [112] (97)
8831  41                 [113] (97)
8832  06                 [114] (97)
8833  00                 [115] (97)
8834  00                 [116] (98)
8835  41                 [117] (98)
8836  06                 [118] (98)
8837  00                 [119] (99)
8838  00                 [120] (99)
8839  41                 [121] (99)
883A  06                 [122] (99)
883B  00                 [123] (99)
883C  00                 [124] (100)
883D  41                 [125] (100)
883E  06                 [126] (100)
883F  00                 [127] (100)
8840  00                 [128] (100)
8841  41                 [129] (103)
8842  06                 [130] (103)
8843  00                 [131] (103)
8844  00                 [132] (103)
8845  41                 [133] (97)
8846  06                 [134] (103)
8847  00                 [135] (106)
8848  00                 [136] (106)
8849  41                 [137] (106)
884A  06                 [138] (107)
884B  00                 [139] (107)
884C  00                 [140] (107)
884D  41                 [141] (107)
884E  06                 [142] (108)
884F  00                 [143] (108)
8850  00                 [144] (108)
8851  41                 [145] (108)
8852  06                 [146] (108)
8853  00                 [147] (109)
8854  00                 [148] (109)
8855  41                 [149] (110)
8856  06                 [150] (110)
8857  00                 [151] (110)
8858  00                 [152] (110)
8859  41                 [153] (110)
885A  06                 [154] (111)
885B  00                 [155] (111)
885C  00                 [156] (111)
885D  41                 [157] (115)
                         * locals:
8A35  00                 sizelocvars (0)
                         * upvalues:
8A36  00                 sizeupvalues (0)
                         ** end of function **

                         
8A37                     ** function [50] definition (level 2)
                         ** start of function **
8A37  00                 string size (0)
                         source name: (none)
8A39  0C                 line defined (1653)
8A3A  9B                 last line defined (1691)
8A3B  0D                 nups (4)
8A3C  04                 numparams (0)
8A3D  00                 is_vararg (0)
8A3E  00                 maxstacksize (8)
                         * code:
8A40  55                 sizecode (85)
8A41  1D000000           [01] getglobal  0   0        ; lotusChallengeMgr
8A45  20000000           [02] setglobal  0   0        ; lotusChallengeMgr
8A49  13000000           [03] getupval   0   0      
8A4D  5D400000           [04] getglobal  1   1        ; conditionalChallenge
8A51  22800001           [05] call       0   2   2  
fail op	35
8A55  23804000           [06] close      0  
8A59  1A000080           [07] jmp        1            ; to [9]
8A5D  1E008000           [08] return     0   1      
8A61  5DC00000           [09] getglobal  1   3        ; _T
8A65  4C404182           [10] settable   1   260 261  ; "gAboutToForceShowDiorama" 1
8A69  5D800100           [11] getglobal  1   6        ; 538022378
8A6D  99C00100           [12] loadk      2   7        ; 0
8A71  62400001           [13] call       1   2   1  
8A75  5D000200           [14] getglobal  1   8        ; gFlashMgr
8A79  6440C200           [15] self       1   1   265  ; -872305030
8A7D  D3008000           [16] getupval   3   1      
8A81  62808001           [17] call       1   3   2  
8A85  58000000           [18] test       1       0    ; to [20] if true
8A89  1AC00080           [19] jmp        4            ; to [24]
8A8D  5D800100           [20] getglobal  1   6        ; 538022378
8A91  99800200           [21] loadk      2   10       ; 0
8A95  62400001           [22] call       1   2   1  
8A99  1A40FD7F           [23] jmp        -10          ; to [14]
8A9D  5DC00200           [24] getglobal  1   11       ; 1074689893
8AA1  9DC00000           [25] getglobal  2   3        ; _T
8AA5  8E004301           [26] gettable   2   2   268  ; "AnyMenuOpen"
8AA9  62800001           [27] call       1   2   2  
8AAD  58400000           [28] test       1       1    ; to [30] if false
8AB1  1A000280           [29] jmp        9            ; to [39]
8AB5  5DC00000           [30] getglobal  1   3        ; _T
8AB9  4E40C300           [31] gettable   1   1   269  ; 1802978667
8ABD  62808000           [32] call       1   1   2  
8AC1  58000000           [33] test       1       0    ; to [35] if true
8AC5  1AC00080           [34] jmp        4            ; to [39]
8AC9  5D800100           [35] getglobal  1   6        ; 538022378
8ACD  99800300           [36] loadk      2   14       ; -51
8AD1  62400001           [37] call       1   2   1  
8AD5  1A00FC7F           [38] jmp        -15          ; to [24]
8AD9  5D000200           [39] getglobal  1   8        ; gFlashMgr
8ADD  64C0C300           [40] self       1   1   271  ; 1967690300
8AE1  DD000400           [41] getglobal  3   16       ; dioramaMovie
8AE5  62808001           [42] call       1   3   2  
8AE9  A440C400           [43] self       2   1   273  ; 1167009705
8AED  19810400           [44] loadk      4   18       ; "LoadDiorama"
8AF1  5DC10400           [45] getglobal  5   19       ; -1615931716
8AF5  9D010500           [46] getglobal  6   20       ; diorama
8AF9  A4414503           [47] self       6   6   277  ; 455421500
8AFD  A2010001           [48] call       6   2   0  
8B01  62010000           [49] call       5   0   0  
8B05  A2400000           [50] call       2   0   1  
8B09  93000001           [51] getupval   2   2      
8B0D  8E804501           [52] gettable   2   2   278  ; 910246418
8B11  DDC00500           [53] getglobal  3   23       ; duringDioramaTrans
8B15  A2400001           [54] call       2   2   1  
8B19  9D800100           [55] getglobal  2   6        ; 538022378
8B1D  DD000600           [56] getglobal  3   24       ; closeDelay
8B21  A2400001           [57] call       2   2   1  
8B25  A440C400           [58] self       2   1   273  ; 1167009705
8B29  19410600           [59] loadk      4   25       ; "CloseDiorama"
8B2D  59810600           [60] loadk      5   26       ; ""
8B31  A2400002           [61] call       2   4   1  
8B35  9DC00000           [62] getglobal  2   3        ; _T
8B39  8CC04682           [63] settable   2   260 283  ; "gAboutToForceShowDiorama" 0
8B3D  9D000700           [64] getglobal  2   28       ; gPlayerProfileMgr
8B41  A4404701           [65] self       2   2   285  ; 569342746
8B45  19810000           [66] loadk      4   2        ; 0
8B49  A2808001           [67] call       2   3   2  
8B4D  DDC00200           [68] getglobal  3   11       ; 1074689893
8B51  12010001           [69] move       4   2      
8B55  E2800001           [70] call       3   2   2  
8B59  D8000000           [71] test       3       0    ; to [73] if true
8B5D  1A000080           [72] jmp        1            ; to [74]
8B61  1E008000           [73] return     0   1      
8B65  E4804701           [74] self       3   2   286  ; 1699680402
8B69  E2800001           [75] call       3   2   2  
8B6D  1DC10200           [76] getglobal  4   11       ; 1074689893
8B71  52018001           [77] move       5   3      
8B75  22810001           [78] call       4   2   2  
8B79  18010000           [79] test       4       0    ; to [81] if true
8B7D  1A000080           [80] jmp        1            ; to [82]
8B81  1E008000           [81] return     0   1      
8B85  13018001           [82] getupval   4   3      
8B89  52018001           [83] move       5   3      
8B8D  22410001           [84] call       4   2   1  
8B91  1E008000           [85] return     0   1      
                         * constants:
8B95  1F                 sizek (31)
8B96  04                 const type 4
8B97  12                 string size (18)
8B98  6C6F747573436861+  "lotusCha"
8BA0  6C6C656E67654D67+  "llengeMg"
8BA8  7200               "r\0"
                         const [0]: "lotusChallengeMgr"
8BAA  04                 const type 4
8BAB  15                 string size (21)
8BAC  636F6E646974696F+  "conditio"
8BB4  6E616C4368616C6C+  "nalChall"
8BBC  656E676500         "enge\0"
                         const [1]: "conditionalChallenge"
8BC1  03                 const type 3
8BC2  00000000           const [2]: (0)
8BC6  04                 const type 4
8BC7  03                 string size (3)
8BC8  5F5400             "_T\0"
                         const [3]: "_T"
8BCB  04                 const type 4
8BCC  19                 string size (25)
8BCD  6741626F7574546F+  "gAboutTo"
8BD5  466F72636553686F+  "ForceSho"
8BDD  7744696F72616D61+  "wDiorama"
8BE5  00                 "\0"
                         const [4]: "gAboutToForceShowDiorama"
8BE6  01                 const type 3
8BE7  01000000           const [5]: (1)
8BEB  01                 const type 3
8BEC  EA911120           const [6]: (538022378)
8BF0  03                 const type 3
8BF1  00000040           const [7]: (0)
8BF5  04                 const type 4
8BF6  0A                 string size (10)
8BF7  67466C6173684D67+  "gFlashMg"
8BFF  7200               "r\0"
                         const [8]: "gFlashMgr"
8C01  01                 const type 3
8C02  7AAE01CC           const [9]: (-872305030)
8C06  03                 const type 3
8C07  0000803F           const [10]: (0)
8C0B  01                 const type 3
8C0C  65770E40           const [11]: (1074689893)
8C10  04                 const type 4
8C11  0C                 string size (12)
8C12  416E794D656E754F+  "AnyMenuO"
8C1A  70656E00           "pen\0"
                         const [12]: "AnyMenuOpen"
8C1E  01                 const type 3
8C1F  6B45776B           const [13]: (1802978667)
8C23  03                 const type 3
8C24  CDCCCC3D           const [14]: (-51)
8C28  01                 const type 3
8C29  3C924875           const [15]: (1967690300)
8C2D  04                 const type 4
8C2E  0D                 string size (13)
8C2F  64696F72616D614D+  "dioramaM"
8C37  6F76696500         "ovie\0"
                         const [16]: "dioramaMovie"
8C3C  01                 const type 3
8C3D  A9278F45           const [17]: (1167009705)
8C41  04                 const type 4
8C42  0C                 string size (12)
8C43  4C6F616444696F72+  "LoadDior"
8C4B  616D6100           "ama\0"
                         const [18]: "LoadDiorama"
8C4F  01                 const type 3
8C50  BCD6AE9F           const [19]: (-1615931716)
8C54  04                 const type 4
8C55  08                 string size (8)
8C56  64696F72616D6100   "diorama\0"
                         const [20]: "diorama"
8C5E  01                 const type 3
8C5F  3C2E251B           const [21]: (455421500)
8C63  01                 const type 3
8C64  12424136           const [22]: (910246418)
8C68  04                 const type 4
8C69  13                 string size (19)
8C6A  647572696E674469+  "duringDi"
8C72  6F72616D61547261+  "oramaTra"
8C7A  6E7300             "ns\0"
                         const [23]: "duringDioramaTrans"
8C7D  04                 const type 4
8C7E  0B                 string size (11)
8C7F  636C6F736544656C+  "closeDel"
8C87  617900             "ay\0"
                         const [24]: "closeDelay"
8C8A  04                 const type 4
8C8B  0D                 string size (13)
8C8C  436C6F736544696F+  "CloseDio"
8C94  72616D6100         "rama\0"
                         const [25]: "CloseDiorama"
8C99  04                 const type 4
8C9A  01                 string size (0)
                         const [26]: ""
8C9C  01                 const type 3
8C9D  00000000           const [27]: (0)
8CA1  04                 const type 4
8CA2  12                 string size (18)
8CA3  67506C6179657250+  "gPlayerP"
8CAB  726F66696C654D67+  "rofileMg"
8CB3  7200               "r\0"
                         const [28]: "gPlayerProfileMgr"
8CB5  01                 const type 3
8CB6  1A7BEF21           const [29]: (569342746)
8CBA  01                 const type 3
8CBB  92104F65           const [30]: (1699680402)
                         * functions:
8CBF  00                 sizep (0)
                         * lines:
8CC0  55                 sizelineinfo (85)
                         [pc] (line)
8CC1  76                 [01] (118)
8CC2  06                 [02] (118)
8CC3  00                 [03] (119)
8CC4  00                 [04] (119)
8CC5  76                 [05] (119)
8CC6  06                 [06] (120)
8CC7  00                 [07] (120)
8CC8  00                 [08] (121)
8CC9  77                 [09] (124)
8CCA  06                 [10] (124)
8CCB  00                 [11] (125)
8CCC  00                 [12] (125)
8CCD  77                 [13] (125)
8CCE  06                 [14] (126)
8CCF  00                 [15] (126)
8CD0  00                 [16] (126)
8CD1  77                 [17] (126)
8CD2  06                 [18] (126)
8CD3  00                 [19] (126)
8CD4  00                 [20] (127)
8CD5  78                 [21] (127)
8CD6  06                 [22] (127)
8CD7  00                 [23] (127)
8CD8  00                 [24] (-125)
8CD9  78                 [25] (-125)
8CDA  06                 [26] (-125)
8CDB  00                 [27] (-125)
8CDC  00                 [28] (-125)
8CDD  79                 [29] (-125)
8CDE  06                 [30] (-125)
8CDF  00                 [31] (-125)
8CE0  00                 [32] (-125)
8CE1  7C                 [33] (-125)
8CE2  06                 [34] (-125)
8CE3  00                 [35] (-124)
8CE4  00                 [36] (-124)
8CE5  7C                 [37] (-124)
8CE6  06                 [38] (-124)
8CE7  00                 [39] (-120)
8CE8  00                 [40] (-120)
8CE9  7D                 [41] (-120)
8CEA  06                 [42] (-120)
8CEB  00                 [43] (-119)
8CEC  00                 [44] (-119)
8CED  7D                 [45] (-119)
8CEE  06                 [46] (-119)
8CEF  00                 [47] (-119)
8CF0  00                 [48] (-119)
8CF1  7D                 [49] (-119)
8CF2  06                 [50] (-119)
8CF3  00                 [51] (-117)
8CF4  00                 [52] (-117)
8CF5  7E                 [53] (-117)
8CF6  06                 [54] (-117)
8CF7  00                 [55] (-115)
8CF8  00                 [56] (-115)
8CF9  7E                 [57] (-115)
8CFA  06                 [58] (-114)
8CFB  00                 [59] (-114)
8CFC  00                 [60] (-114)
8CFD  7E                 [61] (-114)
8CFE  06                 [62] (-112)
8CFF  00                 [63] (-112)
8D00  00                 [64] (-110)
8D01  7E                 [65] (-110)
8D02  06                 [66] (-110)
8D03  00                 [67] (-110)
8D04  00                 [68] (-109)
8D05  7E                 [69] (-109)
8D06  06                 [70] (-109)
8D07  00                 [71] (-109)
8D08  00                 [72] (-109)
8D09  7E                 [73] (-108)
8D0A  06                 [74] (-106)
8D0B  00                 [75] (-106)
8D0C  00                 [76] (-105)
8D0D  7F                 [77] (-105)
8D0E  06                 [78] (-105)
8D0F  00                 [79] (-105)
8D10  00                 [80] (-105)
8D11  7F                 [81] (-104)
8D12  06                 [82] (-102)
8D13  00                 [83] (-102)
8D14  00                 [84] (-102)
8D15  7F                 [85] (-101)
                         * locals:
8E15  00                 sizelocvars (0)
                         * upvalues:
8E16  00                 sizeupvalues (0)
                         ** end of function **

                         * lines:
8E18  02                 sizelineinfo (268)
                         [pc] (line)
8E19  41                 [001] (65)
8E1A  00                 [002] (65)
8E1B  00                 [003] (65)
8E1C  00                 [004] (66)
8E1D  41                 [005] (67)
8E1E  00                 [006] (68)
8E1F  00                 [007] (69)
8E20  00                 [008] (70)
8E21  41                 [009] (71)
8E22  00                 [010] (72)
8E23  00                 [011] (73)
8E24  00                 [012] (74)
8E25  42                 [013] (76)
8E26  00                 [014] (79)
8E27  00                 [015] (79)
8E28  00                 [016] (79)
8E29  43                 [017] (81)
8E2A  00                 [018] (81)
8E2B  00                 [019] (81)
8E2C  00                 [020] (81)
8E2D  44                 [021] (86)
8E2E  00                 [022] (113)
8E2F  00                 [023] (113)
8E30  00                 [024] (-90)
8E31  45                 [025] (-90)
8E32  00                 [026] (-90)
8E33  00                 [027] (-90)
8E34  00                 [028] (-79)
8E35  46                 [029] (-79)
8E36  00                 [030] (-54)
8E37  00                 [031] (-54)
8E38  00                 [032] (-54)
8E39  47                 [033] (-54)
8E3A  00                 [034] (-54)
8E3B  00                 [035] (-77)
8E3C  00                 [036] (-49)
8E3D  48                 [037] (-49)
8E3E  00                 [038] (-49)
8E3F  00                 [039] (-49)
8E40  00                 [040] (-52)
8E41  49                 [041] (-44)
8E42  00                 [042] (-44)
8E43  00                 [043] (-44)
8E44  00                 [044] (-44)
8E45  4A                 [045] (-47)
8E46  00                 [046] (-26)
8E47  00                 [047] (-26)
8E48  00                 [048] (-26)
8E49  4C                 [049] (-26)
8E4A  00                 [050] (-42)
8E4B  00                 [051] (33)
8E4C  00                 [052] (61)
8E4D  4F                 [053] (61)
8E4E  00                 [054] (61)
8E4F  00                 [055] (67)
8E50  00                 [056] (67)
8E51  4F                 [057] (80)
8E52  00                 [058] (80)
8E53  00                 [059] (88)
8E54  00                 [060] (-63)
8E55  4F                 [061] (-63)
8E56  00                 [062] (-63)
8E57  00                 [063] (-63)
8E58  00                 [064] (-63)
8E59  51                 [065] (-63)
8E5A  00                 [066] (-63)
8E5B  00                 [067] (-63)
8E5C  00                 [068] (-63)
8E5D  51                 [069] (90)
8E5E  00                 [070] (-44)
8E5F  00                 [071] (-44)
8E60  00                 [072] (-44)
8E61  51                 [073] (-44)
8E62  00                 [074] (-61)
8E63  00                 [075] (-35)
8E64  00                 [076] (-35)
8E65  51                 [077] (-35)
8E66  00                 [078] (-42)
8E67  00                 [079] (-15)
8E68  00                 [080] (-15)
8E69  56                 [081] (-15)
8E6A  00                 [082] (-33)
8E6B  00                 [083] (-2)
8E6C  00                 [084] (23)
8E6D  71                 [085] (23)
8E6E  00                 [086] (23)
8E6F  00                 [087] (23)
8E70  00                 [088] (0)
8E71  71                 [089] (40)
8E72  00                 [090] (40)
8E73  00                 [091] (40)
8E74  00                 [092] (40)
8E75  A6                 [093] (25)
8E76  00                 [094] (52)
8E77  00                 [095] (52)
8E78  00                 [096] (52)
8E79  A6                 [097] (52)
8E7A  00                 [098] (42)
8E7B  00                 [099] (91)
8E7C  00                 [100] (91)
8E7D  A6                 [101] (91)
8E7E  00                 [102] (91)
8E7F  00                 [103] (91)
8E80  00                 [104] (91)
8E81  A6                 [105] (91)
8E82  00                 [106] (54)
8E83  00                 [107] (118)
8E84  00                 [108] (118)
8E85  B1                 [109] (118)
8E86  00                 [110] (118)
8E87  00                 [111] (118)
8E88  00                 [112] (118)
8E89  B1                 [113] (93)
8E8A  00                 [114] (-114)
8E8B  00                 [115] (-114)
8E8C  00                 [116] (-114)
8E8D  CA                 [117] (-114)
8E8E  00                 [118] (-114)
8E8F  00                 [119] (120)
8E90  00                 [120] (-88)
8E91  CA                 [121] (-88)
8E92  00                 [122] (-88)
8E93  00                 [123] (-112)
8E94  00                 [124] (-52)
8E95  CA                 [125] (-52)
8E96  00                 [126] (-52)
8E97  00                 [127] (-52)
8E98  00                 [128] (-52)
8E99  CA                 [129] (-52)
8E9A  00                 [130] (-52)
8E9B  00                 [131] (-85)
8E9C  00                 [132] (-15)
8E9D  CA                 [133] (-15)
8E9E  00                 [134] (-15)
8E9F  00                 [135] (-15)
8EA0  00                 [136] (-15)
8EA1  B3                 [137] (-50)
8EA2  00                 [138] (40)
8EA3  00                 [139] (40)
8EA4  00                 [140] (40)
8EA5  CF                 [141] (40)
8EA6  00                 [142] (40)
8EA7  00                 [143] (-13)
8EA8  00                 [144] (123)
8EA9  CF                 [145] (123)
8EAA  00                 [146] (123)
8EAB  00                 [147] (123)
8EAC  00                 [148] (123)
8EAD  CF                 [149] (123)
8EAE  00                 [150] (123)
8EAF  00                 [151] (123)
8EB0  00                 [152] (123)
8EB1  CF                 [153] (123)
8EB2  00                 [154] (42)
8EB3  00                 [155] (-107)
8EB4  00                 [156] (-107)
8EB5  CC                 [157] (-107)
8EB6  00                 [158] (-107)
8EB7  00                 [159] (125)
8EB8  00                 [160] (-50)
8EB9  D4                 [161] (-50)
8EBA  00                 [162] (-50)
8EBB  00                 [163] (-50)
8EBC  00                 [164] (-50)
8EBD  D4                 [165] (-105)
8EBE  00                 [166] (22)
8EBF  00                 [167] (22)
8EC0  00                 [168] (22)
8EC1  D4                 [169] (22)
8EC2  00                 [170] (22)
8EC3  00                 [171] (-48)
8EC4  00                 [172] (55)
8EC5  D4                 [173] (55)
8EC6  00                 [174] (55)
8EC7  00                 [175] (55)
8EC8  00                 [176] (24)
8EC9  D1                 [177] (86)
8ECA  00                 [178] (86)
8ECB  00                 [179] (86)
8ECC  00                 [180] (86)
8ECD  E6                 [181] (86)
8ECE  00                 [182] (57)
8ECF  00                 [183] (96)
8ED0  00                 [184] (96)
8ED1  E6                 [185] (88)
8ED2  00                 [186] (100)
8ED3  00                 [187] (100)
8ED4  00                 [188] (100)
8ED5  E6                 [189] (98)
8ED6  00                 [190] (-123)
8ED7  00                 [191] (-123)
8ED8  00                 [192] (30)
8ED9  E6                 [193] (30)
8EDA  00                 [194] (30)
8EDB  00                 [195] (30)
8EDC  00                 [196] (30)
8EDD  D6                 [197] (30)
8EDE  00                 [198] (30)
8EDF  00                 [199] (30)
8EE0  00                 [200] (30)
8EE1  21                 [201] (30)
8EE2  01                 [202] (30)
8EE3  00                 [203] (30)
8EE4  00                 [204] (30)
8EE5  3D                 [205] (-121)
8EE6  01                 [206] (34)
8EE7  00                 [207] (34)
8EE8  00                 [208] (34)
8EE9  3D                 [209] (32)
8EEA  01                 [210] (77)
8EEB  00                 [211] (77)
8EEC  00                 [212] (77)
8EED  3D                 [213] (77)
8EEE  01                 [214] (36)
8EEF  00                 [215] (123)
8EF0  00                 [216] (123)
8EF1  43                 [217] (123)
8EF2  01                 [218] (123)
8EF3  00                 [219] (123)
8EF4  00                 [220] (79)
8EF5  43                 [221] (-79)
8EF6  01                 [222] (-79)
8EF7  00                 [223] (-79)
8EF8  00                 [224] (125)
8EF9  50                 [225] (-59)
8EFA  01                 [226] (-59)
8EFB  00                 [227] (-59)
8EFC  00                 [228] (-77)
8EFD  50                 [229] (-51)
8EFE  01                 [230] (-51)
8EFF  00                 [231] (-51)
8F00  00                 [232] (-57)
8F01  58                 [233] (-43)
8F02  01                 [234] (-43)
8F03  00                 [235] (-43)
8F04  00                 [236] (-49)
8F05  C1                 [237] (-28)
8F06  01                 [238] (-28)
8F07  00                 [239] (-28)
8F08  00                 [240] (-41)
8F09  C1                 [241] (-12)
8F0A  01                 [242] (-12)
8F0B  00                 [243] (-12)
8F0C  00                 [244] (-12)
8F0D  C1                 [245] (-24)
8F0E  01                 [246] (7)
8F0F  00                 [247] (7)
8F10  00                 [248] (7)
8F11  C1                 [249] (7)
8F12  01                 [250] (-10)
8F13  00                 [251] (53)
8F14  00                 [252] (53)
8F15  C1                 [253] (53)
8F16  01                 [254] (9)
8F17  00                 [255] (115)
8F18  00                 [256] (115)
8F19  C1                 [257] (115)
8F1A  01                 [258] (115)
8F1B  00                 [259] (115)
8F1C  00                 [260] (55)
8F1D  C1                 [261] (-101)
8F1E  01                 [262] (-101)
8F1F  00                 [263] (-101)
8F20  00                 [264] (-101)
8F21  C1                 [265] (-101)
8F22  01                 [266] (-101)
8F23  00                 [267] (117)
8F24  00                 [268] (-101)
                         * locals:
9249  00                 sizelocvars (0)
                         * upvalues:
924A  00                 sizeupvalues (0)
                         ** end of function **

924B                     ** end of chunk **
