1	C:\wlua_dump\path\Lotus\Scripts\CmdsCmdCompleteEncounter.lua
Pos   Hex Data           Description or Code
------------------------------------------------------------------------
0000                     ** source chunk: C:\wlua_dump\path\Lotus\Scripts\CmdsCmdCompleteEncounter.lua
                         ** global header start **
0000  7F                 header signature: ""
0001  00                 version (major:minor hex digits)
0002  00                 format (0=official)
0003  00                 endianness (1=little endian)
0004  00                 size of int (bytes)
0005  00                 size of size_t (bytes)
0006  02                 size of Instruction (bytes)
0007  02                 size of number (bytes)
0008  04                 integral (1=integral)
44
                         * number type: single
                         * x86 standard (32-bit, little endian, doubles)
                         ** global header end **
EndEncounter
gRegion
gEncounterHintType
success
_T
QualifiedForBountyBonus
Npc
ES_SUCCEEDED
ES_FAILED
                         
0001                     ** function [0] definition (level 1)
                         ** start of function **
0001  00                 string size (0)
                         source name: (none)
0002  00                 line defined (0)
0003  00                 last line defined (0)
0004  00                 nups (0)
0005  00                 numparams (0)
0006  02                 is_vararg (2)
0007  02                 maxstacksize (2)
                         * code:
0008  04                 sizecode (4)
0009  25000000           [1] closure    0   0      
000D  20000000           [2] setglobal  0   0        ; EndEncounter
0011  20400000           [3] setglobal  0   1        ; 1887410873
0015  1E008000           [4] return     0   1      
                         * constants:
0019  02                 sizek (2)
001A  04                 const type 4
001B  0D                 string size (13)
001C  456E64456E636F75+  "EndEncou"
0024  6E74657200         "nter\0"
                         const [0]: "EndEncounter"
0029  01                 const type 3
002A  B99A7F70           const [1]: (1887410873)
                         * functions:
002E  01                 sizep (1)
                         
002F                     ** function [0] definition (level 2)
                         ** start of function **
002F  00                 string size (0)
                         source name: (none)
0030  03                 line defined (3)
0031  23                 last line defined (35)
0032  00                 nups (0)
0033  01                 numparams (1)
0034  00                 is_vararg (0)
0035  12                 maxstacksize (18)
                         * code:
0036  51                 sizecode (81)
0037  5D000000           [01] getglobal  1   0        ; gRegion
003B  6440C000           [02] self       1   1   257  ; 152279552
003F  DD800000           [03] getglobal  3   2        ; gEncounterHintType
0043  62808001           [04] call       1   3   2  
0047  9DC00000           [05] getglobal  2   3        ; 1672515847
004B  D2008000           [06] move       3   1      
004F  A2000101           [07] call       2   2   4  
0053  1A401180           [08] jmp        70           ; to [79]
0057  E4014103           [09] self       7   6   260  ; 696500727
005B  E2810001           [10] call       7   2   2  
005F  D8010000           [11] test       7       0    ; to [13] if true
0063  1A800880           [12] jmp        35           ; to [48]
0067  E4414103           [13] self       7   6   261  ; 188678183
006B  E2810001           [14] call       7   2   2  
006F  D8010000           [15] test       7       0    ; to [17] if true
0073  1A800780           [16] jmp        31           ; to [48]
0077  E4814103           [17] self       7   6   262  ; -222268914
007B  E2810001           [18] call       7   2   2  
007F  1DC20000           [19] getglobal  8   3        ; 1672515847
0083  52028003           [20] move       9   7      
0087  22020101           [21] call       8   2   4  
008B  1A400580           [22] jmp        22           ; to [45]
008F  64C34106           [23] self       13  12  263  ; -313745078
0093  62830001           [24] call       13  2   2  
0097  A403C206           [25] self       14  13  264  ; 23514818
009B  A2830001           [26] call       14  2   2  
009F  98030000           [27] test       14      0    ; to [29] if true
00A3  1AC00380           [28] jmp        16           ; to [45]
00A7  9D430200           [29] getglobal  14  9        ; success
00AB  98030000           [30] test       14      0    ; to [32] if true
00AF  1A000280           [31] jmp        9            ; to [41]
00B3  18000000           [32] test       0       0    ; to [34] if true
00B7  1A400080           [33] jmp        2            ; to [36]
00BB  9D830200           [34] getglobal  14  10       ; _T
00BF  8C03C385           [35] settable   14  267 268  ; "QualifiedForBountyBonus" 1
00C3  A4434306           [36] self       14  12  269  ; -1217849432
00C7  1D840300           [37] getglobal  16  14       ; Npc
00CB  0EC44308           [38] gettable   16  16  271  ; "ES_SUCCEEDED"
00CF  A2438001           [39] call       14  3   1  
00D3  1AC00080           [40] jmp        4            ; to [45]
00D7  A4434306           [41] self       14  12  269  ; -1217849432
00DB  1D840300           [42] getglobal  16  14       ; Npc
00DF  0E044408           [43] gettable   16  16  272  ; "ES_FAILED"
00E3  A2438001           [44] call       14  3   1  
00E7  16820000           [45] tforloop   8       2    ; to [47] if exit
00EB  1AC0F97F           [46] jmp        -24          ; to [23]
00EF  1A800780           [47] jmp        31           ; to [79]
00F3  A4C34103           [48] self       14  6   263  ; -313745078
00F7  A2830001           [49] call       14  2   2  
00FB  DD430400           [50] getglobal  15  17       ; 1074689893
00FF  12040007           [51] move       16  14     
0103  E2830001           [52] call       15  2   2  
0107  D8430000           [53] test       15      1    ; to [55] if false
010B  1AC00580           [54] jmp        24           ; to [79]
010F  E4834407           [55] self       15  14  274  ; 1585527909
0113  E2830001           [56] call       15  2   2  
0117  D8030000           [57] test       15      0    ; to [59] if true
011B  1AC00480           [58] jmp        20           ; to [79]
011F  E4434103           [59] self       15  6   261  ; 188678183
0123  E2830001           [60] call       15  2   2  
0127  D8030000           [61] test       15      0    ; to [63] if true
012B  1AC00380           [62] jmp        16           ; to [79]
012F  DD430200           [63] getglobal  15  9        ; success
0133  D8030000           [64] test       15      0    ; to [66] if true
0137  1A000280           [65] jmp        9            ; to [75]
013B  18000000           [66] test       0       0    ; to [68] if true
013F  1A400080           [67] jmp        2            ; to [70]
0143  DD830200           [68] getglobal  15  10       ; _T
0147  CC03C385           [69] settable   15  267 268  ; "QualifiedForBountyBonus" 1
014B  E4434303           [70] self       15  6   269  ; -1217849432
014F  5D840300           [71] getglobal  17  14       ; Npc
0153  4EC4C308           [72] gettable   17  17  271  ; "ES_SUCCEEDED"
0157  E2438001           [73] call       15  3   1  
015B  1AC00080           [74] jmp        4            ; to [79]
015F  E4434303           [75] self       15  6   269  ; -1217849432
0163  5D840300           [76] getglobal  17  14       ; Npc
0167  4E04C408           [77] gettable   17  17  272  ; "ES_FAILED"
016B  E2438001           [78] call       15  3   1  
016F  96800000           [79] tforloop   2       2    ; to [81] if exit
0173  1AC0ED7F           [80] jmp        -72          ; to [9]
0177  1E008000           [81] return     0   1      
                         * constants:
017B  13                 sizek (19)
017C  04                 const type 4
017D  08                 string size (8)
017E  67526567696F6E00   "gRegion\0"
                         const [0]: "gRegion"
0186  01                 const type 3
0187  009A1309           const [1]: (152279552)
018B  04                 const type 4
018C  13                 string size (19)
018D  67456E636F756E74+  "gEncount"
0195  657248696E745479+  "erHintTy"
019D  706500             "pe\0"
                         const [2]: "gEncounterHintType"
01A0  01                 const type 3
01A1  0791B063           const [3]: (1672515847)
01A5  01                 const type 3
01A6  F7C18329           const [4]: (696500727)
01AA  01                 const type 3
01AB  27003F0B           const [5]: (188678183)
01AF  01                 const type 3
01B0  0E72C0F2           const [6]: (-222268914)
01B4  01                 const type 3
01B5  4AA14CED           const [7]: (-313745078)
01B9  01                 const type 3
01BA  C2CE6601           const [8]: (23514818)
01BE  04                 const type 4
01BF  08                 string size (8)
01C0  7375636365737300   "success\0"
                         const [9]: "success"
01C8  04                 const type 4
01C9  03                 string size (3)
01CA  5F5400             "_T\0"
                         const [10]: "_T"
01CD  04                 const type 4
01CE  18                 string size (24)
01CF  5175616C69666965+  "Qualifie"
01D7  64466F72426F756E+  "dForBoun"
01DF  7479426F6E757300   "tyBonus\0"
                         const [11]: "QualifiedForBountyBonus"
01E7  01                 const type 3
01E8  01000000           const [12]: (1)
01EC  01                 const type 3
01ED  A81769B7           const [13]: (-1217849432)
01F1  04                 const type 4
01F2  04                 string size (4)
01F3  4E706300           "Npc\0"
                         const [14]: "Npc"
01F7  04                 const type 4
01F8  0D                 string size (13)
01F9  45535F5355434345+  "ES_SUCCE"
0201  4544454400         "EDED\0"
                         const [15]: "ES_SUCCEEDED"
0206  04                 const type 4
0207  0A                 string size (10)
0208  45535F4641494C45+  "ES_FAILE"
0210  4400               "D\0"
                         const [16]: "ES_FAILED"
0212  01                 const type 3
0213  65770E40           const [17]: (1074689893)
0217  01                 const type 3
0218  653C815E           const [18]: (1585527909)
                         * functions:
021C  00                 sizep (0)
                         * lines:
021D  51                 sizelineinfo (81)
                         [pc] (line)
021E  04                 [01] (4)
021F  00                 [02] (4)
0220  00                 [03] (4)
0221  00                 [04] (4)
0222  04                 [05] (5)
0223  00                 [06] (5)
0224  00                 [07] (5)
0225  00                 [08] (5)
0226  04                 [09] (6)
0227  00                 [10] (6)
0228  00                 [11] (6)
0229  00                 [12] (6)
022A  04                 [13] (6)
022B  00                 [14] (6)
022C  00                 [15] (6)
022D  00                 [16] (6)
022E  05                 [17] (7)
022F  00                 [18] (7)
0230  00                 [19] (8)
0231  00                 [20] (8)
0232  05                 [21] (8)
0233  00                 [22] (8)
0234  00                 [23] (9)
0235  00                 [24] (9)
0236  05                 [25] (10)
0237  00                 [26] (10)
0238  00                 [27] (10)
0239  00                 [28] (10)
023A  05                 [29] (11)
023B  00                 [30] (11)
023C  00                 [31] (11)
023D  00                 [32] (12)
023E  06                 [33] (12)
023F  00                 [34] (13)
0240  00                 [35] (13)
0241  00                 [36] (15)
0242  06                 [37] (15)
0243  00                 [38] (15)
0244  00                 [39] (15)
0245  00                 [40] (15)
0246  06                 [41] (17)
0247  00                 [42] (17)
0248  00                 [43] (17)
0249  00                 [44] (17)
024A  06                 [45] (8)
024B  00                 [46] (19)
024C  00                 [47] (20)
024D  00                 [48] (22)
024E  06                 [49] (22)
024F  00                 [50] (23)
0250  00                 [51] (23)
0251  00                 [52] (23)
0252  06                 [53] (23)
0253  00                 [54] (23)
0254  00                 [55] (23)
0255  00                 [56] (23)
0256  06                 [57] (23)
0257  00                 [58] (23)
0258  00                 [59] (23)
0259  00                 [60] (23)
025A  06                 [61] (23)
025B  00                 [62] (23)
025C  00                 [63] (24)
025D  00                 [64] (24)
025E  07                 [65] (24)
025F  00                 [66] (25)
0260  00                 [67] (25)
0261  00                 [68] (26)
0262  07                 [69] (26)
0263  00                 [70] (28)
0264  00                 [71] (28)
0265  00                 [72] (28)
0266  08                 [73] (28)
0267  00                 [74] (28)
0268  00                 [75] (30)
0269  00                 [76] (30)
026A  08                 [77] (30)
026B  00                 [78] (30)
026C  00                 [79] (5)
026D  00                 [80] (33)
026E  08                 [81] (35)
                         * locals:
0362  00                 sizelocvars (0)
                         * upvalues:
0363  00                 sizeupvalues (0)
                         ** end of function **

                         * lines:
0364  04                 sizelineinfo (4)
                         [pc] (line)
0365  23                 [1] (35)
0366  00                 [2] (35)
0367  00                 [3] (3)
0368  00                 [4] (35)
                         * locals:
0375  00                 sizelocvars (0)
                         * upvalues:
0376  00                 sizeupvalues (0)
                         ** end of function **

0377                     ** end of chunk **
