1	C:\wlua_dump\path\Lotus\Scripts\EffectsSpeedballEffects.lua
Pos   Hex Data           Description or Code
------------------------------------------------------------------------
0000                     ** source chunk: C:\wlua_dump\path\Lotus\Scripts\EffectsSpeedballEffects.lua
                         ** global header start **
0000  7F                 header signature: ""
0001  00                 version (major:minor hex digits)
0002  00                 format (0=official)
0003  00                 endianness (1=little endian)
0004  00                 size of int (bytes)
0005  00                 size of size_t (bytes)
0006  02                 size of Instruction (bytes)
0007  0C                 size of number (bytes)
0008  3E                 integral (1=integral)
462
                         * number type: single
                         * x86 standard (32-bit, little endian, doubles)
                         ** global header end **
UnlitAtten
TintColor
EmissiveTintColorHi
impactPoint
EmissiveMapAtten
ShadowUpdates
BallHeldShadowUpdates
ShieldUpdate
GoalLightShow
SpawnGhost
Gong
AngryBall
Update
markerType
gRegion
y
pitch
bank
gBaseAvatarType
ballHeldType
markerType
y
pitch
bank
gGameRules
gLotusSpeedballGameRulesType
heldBeamType
EMPTY_SYMBOL
attachFx
ballHeldTimerFx
attachLocalFx
timerInitialDelay
timerInitialPitch
ballHeldTimerSound
Engine
SP_NO_SUBTITLE
timerDelay
timerDelayDecreaseMultiplier
lowerTimerLimit
timerPitchIncrease
upperPitchLimit
gRegion
projectileType
x
y
z
z
math
gRegion
lightShowBeam
ghostOffset
gRegion
ghostDeco
z
x
gRegion
gongEffect
ZERO_ROTATION
gongDeco
y
heldBeamType
EMPTY_SYMBOL
cloakEffects
stateBehavior
hasCaughtBall
Engine
PM_CLOAK
isCloaked
isProjVisible
minScale
smallScale
_T
meshScale
id
index
scaleDuration
minScale
_T
meshScale
id
index
isCloaked
minScale
scaleDuration
smallScale
_T
meshScale
id
smallScale
isCloaked
isProjVisible
minScale
hasCaughtBall
stateBehavior
Engine
MAIN_HAND
ArsenalOpen
WS_DORMANT
PM_PARRY
WS_EQUIP
                         
0001                     ** function [0] definition (level 1)
                         ** start of function **
0001  00                 string size (0)
                         source name: (none)
0002  00                 line defined (0)
0003  00                 last line defined (0)
0004  00                 nups (0)
0005  00                 numparams (0)
0006  02                 is_vararg (2)
0007  0C                 maxstacksize (12)
                         * code:
0008  3E                 sizecode (62)
0009  19000000           [01] loadk      0   0        ; 0
000D  5D400000           [02] getglobal  1   1        ; -332969190
0011  99800000           [03] loadk      2   2        ; "UnlitAtten"
0015  62800001           [04] call       1   2   2  
0019  9D400000           [05] getglobal  2   1        ; -332969190
001D  D9C00000           [06] loadk      3   3        ; "TintColor"
0021  A2800001           [07] call       2   2   2  
0025  DD400000           [08] getglobal  3   1        ; -332969190
0029  19010100           [09] loadk      4   4        ; "EmissiveTintColorHi"
002D  E2800001           [10] call       3   2   2  
0031  1D410000           [11] getglobal  4   1        ; -332969190
0035  59410100           [12] loadk      5   5        ; "impactPoint"
0039  22810001           [13] call       4   2   2  
003D  5D410000           [14] getglobal  5   1        ; -332969190
0041  99810100           [15] loadk      6   6        ; "EmissiveMapAtten"
0045  62810001           [16] call       5   2   2  
0049  A5010000           [17] closure    6   0      
004D  12008000           [18] move       0   1      
0051  A0C10100           [19] setglobal  6   7        ; ShadowUpdates
0055  A0010200           [20] setglobal  6   8        ; 201077750
0059  A5410000           [21] closure    6   1      
005D  12008000           [22] move       0   1      
0061  A0410200           [23] setglobal  6   9        ; BallHeldShadowUpdates
0065  A0810200           [24] setglobal  6   10       ; 1051891348
0069  A5810000           [25] closure    6   2      
006D  12008001           [26] move       0   3      
0071  12000002           [27] move       0   4      
0075  12000001           [28] move       0   2      
0079  A0C10200           [29] setglobal  6   11       ; ShieldUpdate
007D  A0010300           [30] setglobal  6   12       ; 917463434
0081  A5C10000           [31] closure    6   3      
0085  A0410300           [32] setglobal  6   13       ; GoalLightShow
0089  A0810300           [33] setglobal  6   14       ; -1336168850
008D  A5010100           [34] closure    6   4      
0091  A0C10300           [35] setglobal  6   15       ; SpawnGhost
0095  A0010400           [36] setglobal  6   16       ; 147895888
0099  A5410100           [37] closure    6   5      
009D  12008002           [38] move       0   5      
00A1  A0410400           [39] setglobal  6   17       ; Gong
00A5  A0810400           [40] setglobal  6   18       ; -1534569303
00A9  A5810100           [41] closure    6   6      
00AD  A0C10400           [42] setglobal  6   19       ; AngryBall
00B1  A0010500           [43] setglobal  6   20       ; -1747003974
00B5  A5C10100           [44] closure    6   7      
00B9  E5010200           [45] closure    7   8      
00BD  25420200           [46] closure    8   9      
00C1  12008003           [47] move       0   7      
00C5  65820200           [48] closure    9   10     
00C9  12000004           [49] move       0   8      
00CD  12000000           [50] move       0   0      
00D1  A5C20200           [51] closure    10  11     
00D5  12000000           [52] move       0   0      
00D9  12000004           [53] move       0   8      
00DD  E5020300           [54] closure    11  12     
00E1  12000000           [55] move       0   0      
00E5  12000003           [56] move       0   6      
00E9  12008004           [57] move       0   9      
00ED  12000005           [58] move       0   10     
00F1  12000004           [59] move       0   8      
00F5  E0420500           [60] setglobal  11  21       ; Update
00F9  E0820500           [61] setglobal  11  22       ; -1938777623
00FD  1E008000           [62] return     0   1      
                         * constants:
0101  17                 sizek (23)
0102  03                 const type 3
0103  0000803F           const [0]: (0)
0107  01                 const type 3
0108  1A4B27EC           const [1]: (-332969190)
010C  04                 const type 4
010D  0B                 string size (11)
010E  556E6C6974417474+  "UnlitAtt"
0116  656E00             "en\0"
                         const [2]: "UnlitAtten"
0119  04                 const type 4
011A  0A                 string size (10)
011B  54696E74436F6C6F+  "TintColo"
0123  7200               "r\0"
                         const [3]: "TintColor"
0125  04                 const type 4
0126  14                 string size (20)
0127  456D697373697665+  "Emissive"
012F  54696E74436F6C6F+  "TintColo"
0137  72486900           "rHi\0"
                         const [4]: "EmissiveTintColorHi"
013B  04                 const type 4
013C  0C                 string size (12)
013D  696D70616374506F+  "impactPo"
0145  696E7400           "int\0"
                         const [5]: "impactPoint"
0149  04                 const type 4
014A  11                 string size (17)
014B  456D697373697665+  "Emissive"
0153  4D6170417474656E+  "MapAtten"
015B  00                 "\0"
                         const [6]: "EmissiveMapAtten"
015C  04                 const type 4
015D  0E                 string size (14)
015E  536861646F775570+  "ShadowUp"
0166  646174657300       "dates\0"
                         const [7]: "ShadowUpdates"
016C  01                 const type 3
016D  F633FC0B           const [8]: (201077750)
0171  04                 const type 4
0172  16                 string size (22)
0173  42616C6C48656C64+  "BallHeld"
017B  536861646F775570+  "ShadowUp"
0183  646174657300       "dates\0"
                         const [9]: "BallHeldShadowUpdates"
0189  01                 const type 3
018A  9496B23E           const [10]: (1051891348)
018E  04                 const type 4
018F  0D                 string size (13)
0190  536869656C645570+  "ShieldUp"
0198  6461746500         "date\0"
                         const [11]: "ShieldUpdate"
019D  01                 const type 3
019E  8A61AF36           const [12]: (917463434)
01A2  04                 const type 4
01A3  0E                 string size (14)
01A4  476F616C4C696768+  "GoalLigh"
01AC  7453686F7700       "tShow\0"
                         const [13]: "GoalLightShow"
01B2  01                 const type 3
01B3  6EAE5BB0           const [14]: (-1336168850)
01B7  04                 const type 4
01B8  0B                 string size (11)
01B9  537061776E47686F+  "SpawnGho"
01C1  737400             "st\0"
                         const [15]: "SpawnGhost"
01C4  01                 const type 3
01C5  50B6D008           const [16]: (147895888)
01C9  04                 const type 4
01CA  05                 string size (5)
01CB  476F6E6700         "Gong\0"
                         const [17]: "Gong"
01D0  01                 const type 3
01D1  A95488A4           const [18]: (-1534569303)
01D5  04                 const type 4
01D6  0A                 string size (10)
01D7  416E67727942616C+  "AngryBal"
01DF  6C00               "l\0"
                         const [19]: "AngryBall"
01E1  01                 const type 3
01E2  BAD5DE97           const [20]: (-1747003974)
01E6  04                 const type 4
01E7  07                 string size (7)
01E8  55706461746500     "Update\0"
                         const [21]: "Update"
01EF  01                 const type 3
01F0  E999708C           const [22]: (-1938777623)
                         * functions:
01F4  0D                 sizep (13)
                         
01F5                     ** function [0] definition (level 2)
                         ** start of function **
01F5  00                 string size (0)
                         source name: (none)
01F6  28                 line defined (40)
01F7  4E                 last line defined (78)
01F8  01                 nups (1)
01F9  01                 numparams (1)
01FA  00                 is_vararg (0)
01FB  0F                 maxstacksize (15)
                         * code:
01FC  66                 sizecode (102)
01FD  64004000           [001] self       1   0   256  ; -1870903749
0201  62800001           [002] call       1   2   2  
0205  A4404000           [003] self       2   0   257  ; -1990411311
0209  A2400001           [004] call       2   2   1  
020D  A4804000           [005] self       2   0   258  ; -1625438872
0211  1DC10000           [006] getglobal  4   3        ; markerType
0215  A2808001           [007] call       2   3   2  
0219  DD000100           [008] getglobal  3   4        ; gRegion
021D  E440C101           [009] self       3   3   261  ; 65205951
0221  E2800001           [010] call       3   2   2  
0225  1D810100           [011] getglobal  4   6        ; 572299008
0229  22818000           [012] call       4   1   2  
022D  5D810100           [013] getglobal  5   6        ; 572299008
0231  62818000           [014] call       5   1   2  
0235  9DC10100           [015] getglobal  6   7        ; 508519041
0239  A2818000           [016] call       6   1   2  
023D  D9010200           [017] loadk      7   8        ; 0
0241  19020200           [018] loadk      8   8        ; 0
0245  5D420200           [019] getglobal  9   9        ; 1074689893
0249  92020000           [020] move       10  0      
024D  62820001           [021] call       9   2   2  
0251  58420000           [022] test       9       1    ; to [24] if false
0255  1A801180           [023] jmp        71           ; to [95]
0259  5D420200           [024] getglobal  9   9        ; 1074689893
025D  92028000           [025] move       10  1      
0261  62820001           [026] call       9   2   2  
0265  58420000           [027] test       9       1    ; to [29] if false
0269  1A401080           [028] jmp        66           ; to [95]
026D  5D420200           [029] getglobal  9   9        ; 1074689893
0271  92028001           [030] move       10  3      
0275  62820001           [031] call       9   2   2  
0279  58420000           [032] test       9       1    ; to [34] if false
027D  1A000F80           [033] jmp        61           ; to [95]
0281  6482C200           [034] self       9   1   266  ; 1839670529
0285  62820001           [035] call       9   2   2  
0289  12018004           [036] move       4   9      
028D  5DC20200           [037] getglobal  9   11       ; 1668611480
0291  8E024302           [038] gettable   10  4   268  ; "y"
0295  9C424305           [039] div        10  10  269  ; 0
0299  D9020200           [040] loadk      11  8        ; 0
029D  19830300           [041] loadk      12  14       ; 0
02A1  62820002           [042] call       9   4   2  
02A5  D2018004           [043] move       7   9      
02A9  64C24300           [044] self       9   0   271  ; -786111647
02AD  D3020000           [045] getupval   11  0      
02B1  04C30188           [046] mul        12  272 7    ; 0
02B5  03034406           [047] add        12  12  272  ; 0
02B9  62420002           [048] call       9   4   1  
02BD  64424400           [049] self       9   0   273  ; 1786666898
02C1  DD820400           [050] getglobal  11  18       ; -1828500651
02C5  19C30400           [051] loadk      12  19       ; 41
02C9  59030500           [052] loadk      13  20       ; -51
02CD  92038003           [053] move       14  7      
02D1  E2020002           [054] call       11  4   0  
02D5  62420000           [055] call       9   0   1  
02D9  5D420500           [056] getglobal  9   21       ; -304944129
02DD  92028002           [057] move       10  5      
02E1  D2020002           [058] move       11  4      
02E5  62828001           [059] call       9   3   2  
02E9  92018004           [060] move       6   9      
02ED  8C01428B           [061] settable   6   278 264  ; "pitch" 0
02F1  8C01C28B           [062] settable   6   279 264  ; "bank" 0
02F5  52010002           [063] move       5   4      
02F9  0C014686           [064] settable   4   268 280  ; "y" -102
02FD  64424600           [065] self       9   0   281  ; -333955620
0301  D2020002           [066] move       11  4      
0305  62428001           [067] call       9   3   1  
0309  64824600           [068] self       9   0   282  ; 1352138124
030D  D2020003           [069] move       11  6      
0311  62428001           [070] call       9   3   1  
0315  5DC20600           [071] getglobal  9   27       ; 562846818
0319  A402C701           [072] self       10  3   284  ; 196800914
031D  A2820001           [073] call       10  2   2  
0321  8D020105           [074] sub        10  10  4  
0325  62820001           [075] call       9   2   2  
0329  12028004           [076] move       8   9      
032D  5D420200           [077] getglobal  9   9        ; 1074689893
0331  92020001           [078] move       10  2      
0335  62820001           [079] call       9   2   2  
0339  58420000           [080] test       9       1    ; to [82] if false
033D  1A000180           [081] jmp        5            ; to [87]
0341  64424401           [082] self       9   2   273  ; 1786666898
0345  DC424704           [083] div        11  8   285  ; 0
0349  C3C2028F           [084] add        11  286 11   ; -102
034D  62428001           [085] call       9   3   1  
0351  1AC00080           [086] jmp        4            ; to [91]
0355  64824000           [087] self       9   0   258  ; -1625438872
0359  DDC20000           [088] getglobal  11  3        ; markerType
035D  62828001           [089] call       9   3   2  
0361  92008004           [090] move       2   9      
0365  5DC20700           [091] getglobal  9   31       ; 538022378
0369  99020200           [092] loadk      10  8        ; 0
036D  62420001           [093] call       9   2   1  
0371  1AC0EC7F           [094] jmp        -76          ; to [19]
0375  5D420200           [095] getglobal  9   9        ; 1074689893
0379  92020000           [096] move       10  0      
037D  62820001           [097] call       9   2   2  
0381  58420000           [098] test       9       1    ; to [100] if false
0385  1A400080           [099] jmp        2            ; to [102]
0389  64024800           [100] self       9   0   288  ; -725453761
038D  62420001           [101] call       9   2   1  
0391  1E008000           [102] return     0   1      
                         * constants:
0395  21                 sizek (33)
0396  01                 const type 3
0397  3B467C90           const [0]: (-1870903749)
039B  01                 const type 3
039C  D1BB5C89           const [1]: (-1990411311)
03A0  01                 const type 3
03A1  68C51D9F           const [2]: (-1625438872)
03A5  04                 const type 4
03A6  0B                 string size (11)
03A7  6D61726B65725479+  "markerTy"
03AF  706500             "pe\0"
                         const [3]: "markerType"
03B2  04                 const type 4
03B3  08                 string size (8)
03B4  67526567696F6E00   "gRegion\0"
                         const [4]: "gRegion"
03BC  01                 const type 3
03BD  BFF6E203           const [5]: (65205951)
03C1  01                 const type 3
03C2  00971C22           const [6]: (572299008)
03C6  01                 const type 3
03C7  81624F1E           const [7]: (508519041)
03CB  03                 const type 3
03CC  00000000           const [8]: (0)
03D0  01                 const type 3
03D1  65770E40           const [9]: (1074689893)
03D5  01                 const type 3
03D6  0125A76D           const [10]: (1839670529)
03DA  01                 const type 3
03DB  98FD7463           const [11]: (1668611480)
03DF  04                 const type 4
03E0  02                 string size (2)
03E1  7900               "y\0"
                         const [12]: "y"
03E3  03                 const type 3
03E4  00002041           const [13]: (0)
03E8  03                 const type 3
03E9  0000803F           const [14]: (0)
03ED  01                 const type 3
03EE  61E324D1           const [15]: (-786111647)
03F2  03                 const type 3
03F3  0000003F           const [16]: (0)
03F7  01                 const type 3
03F8  925F7E6A           const [17]: (1786666898)
03FC  01                 const type 3
03FD  554B0393           const [18]: (-1828500651)
0401  03                 const type 3
0402  295C0F3E           const [19]: (41)
0406  03                 const type 3
0407  CDCC4C3E           const [20]: (-51)
040B  01                 const type 3
040C  FFEBD2ED           const [21]: (-304944129)
0410  04                 const type 4
0411  06                 string size (6)
0412  706974636800       "pitch\0"
                         const [22]: "pitch"
0418  04                 const type 4
0419  05                 string size (5)
041A  62616E6B00         "bank\0"
                         const [23]: "bank"
041F  03                 const type 3
0420  9A9959BF           const [24]: (-102)
0424  01                 const type 3
0425  DC3D18EC           const [25]: (-333955620)
0429  01                 const type 3
042A  8CFD9750           const [26]: (1352138124)
042E  01                 const type 3
042F  625C8C21           const [27]: (562846818)
0433  01                 const type 3
0434  92F1BA0B           const [28]: (196800914)
0438  03                 const type 3
0439  00004842           const [29]: (0)
043D  03                 const type 3
043E  9A99993E           const [30]: (-102)
0442  01                 const type 3
0443  EA911120           const [31]: (538022378)
0447  01                 const type 3
0448  3F74C2D4           const [32]: (-725453761)
                         * functions:
044C  00                 sizep (0)
                         * lines:
044D  66                 sizelineinfo (102)
                         [pc] (line)
044E  29                 [001] (41)
044F  00                 [002] (41)
0450  00                 [003] (42)
0451  00                 [004] (42)
0452  29                 [005] (44)
0453  00                 [006] (44)
0454  00                 [007] (44)
0455  00                 [008] (45)
0456  2A                 [009] (45)
0457  00                 [010] (45)
0458  00                 [011] (46)
0459  00                 [012] (46)
045A  2A                 [013] (47)
045B  00                 [014] (47)
045C  00                 [015] (48)
045D  00                 [016] (48)
045E  2C                 [017] (49)
045F  00                 [018] (50)
0460  00                 [019] (51)
0461  00                 [020] (51)
0462  2C                 [021] (51)
0463  00                 [022] (51)
0464  00                 [023] (51)
0465  00                 [024] (51)
0466  2C                 [025] (51)
0467  00                 [026] (51)
0468  00                 [027] (51)
0469  00                 [028] (51)
046A  2D                 [029] (51)
046B  00                 [030] (51)
046C  00                 [031] (51)
046D  00                 [032] (51)
046E  2D                 [033] (51)
046F  00                 [034] (52)
0470  00                 [035] (52)
0471  00                 [036] (52)
0472  2D                 [037] (53)
0473  00                 [038] (53)
0474  00                 [039] (53)
0475  00                 [040] (53)
0476  2E                 [041] (53)
0477  00                 [042] (53)
0478  00                 [043] (53)
0479  00                 [044] (54)
047A  2E                 [045] (54)
047B  00                 [046] (54)
047C  00                 [047] (54)
047D  00                 [048] (54)
047E  2F                 [049] (55)
047F  00                 [050] (55)
0480  00                 [051] (55)
0481  00                 [052] (55)
0482  2F                 [053] (55)
0483  00                 [054] (55)
0484  00                 [055] (55)
0485  00                 [056] (56)
0486  30                 [057] (56)
0487  00                 [058] (56)
0488  00                 [059] (56)
0489  00                 [060] (56)
048A  30                 [061] (57)
048B  00                 [062] (58)
048C  00                 [063] (59)
048D  00                 [064] (60)
048E  31                 [065] (61)
048F  00                 [066] (61)
0490  00                 [067] (61)
0491  00                 [068] (62)
0492  32                 [069] (62)
0493  00                 [070] (62)
0494  00                 [071] (64)
0495  00                 [072] (64)
0496  33                 [073] (64)
0497  00                 [074] (64)
0498  00                 [075] (64)
0499  00                 [076] (64)
049A  33                 [077] (66)
049B  00                 [078] (66)
049C  00                 [079] (66)
049D  00                 [080] (66)
049E  33                 [081] (66)
049F  00                 [082] (67)
04A0  00                 [083] (67)
04A1  00                 [084] (67)
04A2  33                 [085] (67)
04A3  00                 [086] (67)
04A4  00                 [087] (69)
04A5  00                 [088] (69)
04A6  33                 [089] (69)
04A7  00                 [090] (69)
04A8  00                 [091] (72)
04A9  00                 [092] (72)
04AA  33                 [093] (72)
04AB  00                 [094] (72)
04AC  00                 [095] (75)
04AD  00                 [096] (75)
04AE  33                 [097] (75)
04AF  00                 [098] (75)
04B0  00                 [099] (75)
04B1  00                 [100] (76)
04B2  33                 [101] (76)
04B3  00                 [102] (78)
                         * locals:
05E6  00                 sizelocvars (0)
                         * upvalues:
05E7  00                 sizeupvalues (0)
                         ** end of function **

                         
05E8                     ** function [1] definition (level 2)
                         ** start of function **
05E8  00                 string size (0)
                         source name: (none)
05E9  50                 line defined (80)
05EA  DC                 last line defined (220)
05EB  01                 nups (1)
05EC  01                 numparams (1)
05ED  01                 is_vararg (0)
05EE  00                 maxstacksize (30)
                         * code:
05F1  02                 sizecode (336)
05F2  5D000000           [001] getglobal  1   0        ; 538022378
05F6  99400000           [002] loadk      2   1        ; 0
05FA  62400001           [003] call       1   2   1  
05FE  64804000           [004] self       1   0   258  ; -704974830
0602  62800001           [005] call       1   2   2  
0606  A4C04000           [006] self       2   0   259  ; -1870903749
060A  A2800001           [007] call       2   2   2  
060E  DD000100           [008] getglobal  3   4        ; 1074689893
0612  12018000           [009] move       4   1      
0616  E2800001           [010] call       3   2   2  
061A  D8400000           [011] test       3       1    ; to [13] if false
061E  1A400280           [012] jmp        10           ; to [23]
0622  E440C100           [013] self       3   1   261  ; -1957065004
0626  5D810100           [014] getglobal  5   6        ; gBaseAvatarType
062A  E2808001           [015] call       3   3   2  
062E  D8000000           [016] test       3       0    ; to [18] if true
0632  1A000180           [017] jmp        5            ; to [23]
0636  DD000100           [018] getglobal  3   4        ; 1074689893
063A  12010001           [019] move       4   2      
063E  E2800001           [020] call       3   2   2  
0642  D8000000           [021] test       3       0    ; to [23] if true
0646  1A000080           [022] jmp        1            ; to [24]
064A  1E008000           [023] return     0   1      
064E  E4C0C100           [024] self       3   1   263  ; -1625438872
0652  5D010200           [025] getglobal  5   8        ; ballHeldType
0656  E2808001           [026] call       3   3   2  
065A  24414200           [027] self       4   0   265  ; -1990411311
065E  22410001           [028] call       4   2   1  
0662  24C14100           [029] self       4   0   263  ; -1625438872
0666  9D810200           [030] getglobal  6   10       ; markerType
066A  22818001           [031] call       4   3   2  
066E  5DC10200           [032] getglobal  5   11       ; 572299008
0672  62818000           [033] call       5   1   2  
0676  9DC10200           [034] getglobal  6   11       ; 572299008
067A  A2818000           [035] call       6   1   2  
067E  DD010300           [036] getglobal  7   12       ; 508519041
0682  E2818000           [037] call       7   1   2  
0686  19420000           [038] loadk      8   1        ; 0
068A  59420000           [039] loadk      9   1        ; 0
068E  97020000           [040] loadbool   10  0   0    ; false
0692  D7028000           [041] loadbool   11  1   0    ; true
0696  19430300           [042] loadk      12  13       ; 0
069A  46038006           [043] loadnil    13  13     
069E  97030000           [044] loadbool   14  0   0    ; false
06A2  D9430000           [045] loadk      15  1        ; 0
06A6  06048008           [046] loadnil    16  17     
06AA  97048000           [047] loadbool   18  1   0    ; true
06AE  E4844300           [048] self       19  0   270  ; 2109594123
06B2  57050000           [049] loadbool   21  0   0    ; false
06B6  97050000           [050] loadbool   22  0   0    ; false
06BA  E2440002           [051] call       19  4   1  
06BE  DD040100           [052] getglobal  19  4        ; 1074689893
06C2  12050000           [053] move       20  0      
06C6  E2840001           [054] call       19  2   2  
06CA  D8440000           [055] test       19      1    ; to [57] if false
06CE  1AC04380           [056] jmp        272          ; to [329]
06D2  DD040100           [057] getglobal  19  4        ; 1074689893
06D6  12058001           [058] move       20  3      
06DA  E2840001           [059] call       19  2   2  
06DE  D8440000           [060] test       19      1    ; to [62] if false
06E2  1A804280           [061] jmp        267          ; to [329]
06E6  DD040100           [062] getglobal  19  4        ; 1074689893
06EA  12058000           [063] move       20  1      
06EE  E2840001           [064] call       19  2   2  
06F2  D8440000           [065] test       19      1    ; to [67] if false
06F6  1A404180           [066] jmp        262          ; to [329]
06FA  E4C4C300           [067] self       19  1   271  ; 1839670529
06FE  E2840001           [068] call       19  2   2  
0702  52018009           [069] move       5   19     
0706  DD040400           [070] getglobal  19  16       ; 1668611480
070A  0E45C402           [071] gettable   20  5   273  ; "y"
070E  1C85440A           [072] div        20  20  274  ; 0
0712  59450000           [073] loadk      21  1        ; 0
0716  99C50400           [074] loadk      22  19       ; 0
071A  E2840002           [075] call       19  4   2  
071E  12028009           [076] move       8   19     
0722  E4044500           [077] self       19  0   276  ; -786111647
0726  53050000           [078] getupval   21  0      
072A  8405828A           [079] mul        22  277 8    ; 0
072E  8345450B           [080] add        22  22  277  ; 0
0732  E2440002           [081] call       19  4   1  
0736  E4844500           [082] self       19  0   278  ; 1786666898
073A  5DC50500           [083] getglobal  21  23       ; -1828500651
073E  99050600           [084] loadk      22  24       ; 41
0742  D9450600           [085] loadk      23  25       ; -51
0746  12060004           [086] move       24  8      
074A  62050002           [087] call       21  4   0  
074E  E2440000           [088] call       19  0   1  
0752  DD840600           [089] getglobal  19  26       ; -304944129
0756  12050003           [090] move       20  6      
075A  52058002           [091] move       21  5      
075E  E2848001           [092] call       19  3   2  
0762  D2018009           [093] move       7   19     
0766  CC41C08D           [094] settable   7   283 257  ; "pitch" 0
076A  CC41408E           [095] settable   7   284 257  ; "bank" 0
076E  92018002           [096] move       6   5      
0772  4C41C788           [097] settable   5   273 285  ; "y" -102
0776  E4844700           [098] self       19  0   286  ; -333955620
077A  52058002           [099] move       21  5      
077E  E2448001           [100] call       19  3   1  
0782  E4C44700           [101] self       19  0   287  ; 1352138124
0786  52058003           [102] move       21  7      
078A  E2448001           [103] call       19  3   1  
078E  E404C801           [104] self       19  3   288  ; -1944400657
0792  E2840001           [105] call       19  2   2  
0796  92028009           [106] move       10  19     
079A  DD440800           [107] getglobal  19  33       ; 562846818
079E  2485C800           [108] self       20  1   290  ; 196800914
07A2  22850001           [109] call       20  2   2  
07A6  0D45010A           [110] sub        20  20  5  
07AA  E2840001           [111] call       19  2   2  
07AE  52028009           [112] move       9   19     
07B2  DD040100           [113] getglobal  19  4        ; 1074689893
07B6  12050002           [114] move       20  4      
07BA  E2840001           [115] call       19  2   2  
07BE  D8440000           [116] test       19      1    ; to [118] if false
07C2  1A000180           [117] jmp        5            ; to [123]
07C6  E4844502           [118] self       19  4   278  ; 1786666898
07CA  5CC5C804           [119] div        21  9   291  ; 0
07CE  43450592           [120] add        21  292 21   ; -102
07D2  E2448001           [121] call       19  3   1  
07D6  1AC00080           [122] jmp        4            ; to [127]
07DA  E4C44100           [123] self       19  0   263  ; -1625438872
07DE  5D850200           [124] getglobal  21  10       ; markerType
07E2  E2848001           [125] call       19  3   2  
07E6  12018009           [126] move       4   19     
07EA  DD040100           [127] getglobal  19  4        ; 1074689893
07EE  1D450900           [128] getglobal  20  37       ; gGameRules
07F2  E2840001           [129] call       19  2   2  
07F6  D8440000           [130] test       19      1    ; to [132] if false
07FA  1A800A80           [131] jmp        43           ; to [175]
07FE  DD440900           [132] getglobal  19  37       ; gGameRules
0802  E444C109           [133] self       19  19  261  ; -1957065004
0806  5D850900           [134] getglobal  21  38       ; gLotusSpeedballGameRulesType
080A  E2848001           [135] call       19  3   2  
080E  D8040000           [136] test       19      0    ; to [138] if true
0812  1A000980           [137] jmp        37           ; to [175]
0816  DD440900           [138] getglobal  19  37       ; gGameRules
081A  E4C4C909           [139] self       19  19  295  ; 753113685
081E  E2840001           [140] call       19  2   2  
0822  D8440000           [141] test       19      1    ; to [143] if false
0826  1AC00780           [142] jmp        32           ; to [175]
082A  98020000           [143] test       10      0    ; to [145] if true
082E  1A400780           [144] jmp        30           ; to [175]
fail op	21
0832  15404006           [145] concat     0   12  257
0836  1AC00680           [146] jmp        28           ; to [175]
083A  E404CA01           [147] self       19  3   296  ; -1421644046
083E  5D450A00           [148] getglobal  21  41       ; heldBeamType
0842  9D850A00           [149] getglobal  22  42       ; EMPTY_SYMBOL
0846  E2840002           [150] call       19  4   2  
084A  1D050100           [151] getglobal  20  4        ; 1074689893
084E  52058009           [152] move       21  19     
0852  22850001           [153] call       20  2   2  
0856  18450000           [154] test       20      1    ; to [156] if false
085A  1A400380           [155] jmp        14           ; to [170]
085E  24C5CA09           [156] self       20  19  299  ; 1311555023
0862  9DC50200           [157] getglobal  22  11       ; 572299008
0866  DD050B00           [158] getglobal  23  44       ; -1941280958
086A  19460300           [159] loadk      24  13       ; 0
086E  59C60400           [160] loadk      25  19       ; 0
0872  E2858001           [161] call       23  3   2  
0876  19460000           [162] loadk      24  1        ; 0
087A  5D060B00           [163] getglobal  25  44       ; -1941280958
087E  99460300           [164] loadk      26  13       ; 0
0882  D9C60400           [165] loadk      27  19       ; 0
0886  62068001           [166] call       25  3   0  
088A  A2850000           [167] call       22  0   2  
088E  83858502           [168] add        22  5   22 
0892  22458001           [169] call       20  3   1  
0896  1D050B00           [170] getglobal  20  44       ; -1941280958
089A  59450B00           [171] loadk      21  45       ; 0
089E  99850B00           [172] loadk      22  46       ; 102
08A2  22858001           [173] call       20  3   2  
08A6  1203000A           [174] move       12  20     
08AA  98020000           [175] test       10      0    ; to [177] if true
08AE  1A000F80           [176] jmp        61           ; to [238]
08B2  D8420000           [177] test       11      1    ; to [179] if false
08B6  1A800E80           [178] jmp        59           ; to [238]
08BA  1D050100           [179] getglobal  20  4        ; 1074689893
08BE  5D450900           [180] getglobal  21  37       ; gGameRules
08C2  22850001           [181] call       20  2   2  
08C6  18450000           [182] test       20      1    ; to [184] if false
08CA  1AC00780           [183] jmp        32           ; to [216]
08CE  1D450900           [184] getglobal  20  37       ; gGameRules
08D2  2445410A           [185] self       20  20  261  ; -1957065004
08D6  9D850900           [186] getglobal  22  38       ; gLotusSpeedballGameRulesType
08DA  22858001           [187] call       20  3   2  
08DE  18050000           [188] test       20      0    ; to [190] if true
08E2  1A400680           [189] jmp        26           ; to [216]
08E6  1D450900           [190] getglobal  20  37       ; gGameRules
08EA  24C5490A           [191] self       20  20  295  ; 753113685
08EE  22850001           [192] call       20  2   2  
08F2  18050000           [193] test       20      0    ; to [195] if true
08F6  1A000580           [194] jmp        21           ; to [216]
08FA  24C5C100           [195] self       20  1   263  ; -1625438872
08FE  9DC50B00           [196] getglobal  22  47       ; attachFx
0902  22858001           [197] call       20  3   2  
0906  5D050100           [198] getglobal  21  4        ; 1074689893
090A  9205000A           [199] move       22  20     
090E  62850001           [200] call       21  2   2  
0912  58450000           [201] test       21      1    ; to [203] if false
0916  1A400080           [202] jmp        2            ; to [205]
091A  64054C0A           [203] self       21  20  304  ; -725453761
091E  62450001           [204] call       21  2   1  
0922  64C5C101           [205] self       21  3   263  ; -1625438872
0926  DD450C00           [206] getglobal  23  49       ; ballHeldTimerFx
092A  62858001           [207] call       21  3   2  
092E  9D050100           [208] getglobal  22  4        ; 1074689893
0932  D205800A           [209] move       23  21     
0936  A2850001           [210] call       22  2   2  
093A  98450000           [211] test       22      1    ; to [213] if false
093E  1A000680           [212] jmp        25           ; to [238]
0942  A405CC0A           [213] self       22  21  304  ; -725453761
0946  A2450001           [214] call       22  2   1  
094A  1A400580           [215] jmp        22           ; to [238]
094E  A485CC00           [216] self       22  1   306  ; -1201586349
0952  A2850001           [217] call       22  2   2  
0956  98050000           [218] test       22      0    ; to [220] if true
095A  1A400280           [219] jmp        10           ; to [230]
095E  A405CA00           [220] self       22  1   296  ; -1421644046
0962  1DC60C00           [221] getglobal  24  51       ; attachLocalFx
0966  5D860A00           [222] getglobal  25  42       ; EMPTY_SYMBOL
096A  A2450002           [223] call       22  4   1  
096E  97038000           [224] loadbool   14  1   0    ; true
0972  97048000           [225] loadbool   18  1   0    ; true
0976  D9430000           [226] loadk      15  1        ; 0
097A  1D040D00           [227] getglobal  16  52       ; timerInitialDelay
097E  5D440D00           [228] getglobal  17  53       ; timerInitialPitch
0982  1AC00080           [229] jmp        4            ; to [234]
0986  A405CA00           [230] self       22  1   296  ; -1421644046
098A  1DC60B00           [231] getglobal  24  47       ; attachFx
098E  5D860A00           [232] getglobal  25  42       ; EMPTY_SYMBOL
0992  A2450002           [233] call       22  4   1  
0996  A405CA01           [234] self       22  3   296  ; -1421644046
099A  1D460C00           [235] getglobal  24  49       ; ballHeldTimerFx
099E  5D860A00           [236] getglobal  25  42       ; EMPTY_SYMBOL
09A2  A2450002           [237] call       22  4   1  
09A6  98420000           [238] test       10      1    ; to [240] if false
09AA  1AC00980           [239] jmp        40           ; to [280]
09AE  D8020000           [240] test       11      0    ; to [242] if true
09B2  1A400980           [241] jmp        38           ; to [280]
09B6  A4C5C100           [242] self       22  1   263  ; -1625438872
09BA  1DC60B00           [243] getglobal  24  47       ; attachFx
09BE  A2858001           [244] call       22  3   2  
09C2  DD050100           [245] getglobal  23  4        ; 1074689893
09C6  1206000B           [246] move       24  22     
09CA  E2850001           [247] call       23  2   2  
09CE  D8450000           [248] test       23      1    ; to [250] if false
09D2  1A400080           [249] jmp        2            ; to [252]
09D6  E4054C0B           [250] self       23  22  304  ; -725453761
09DA  E2450001           [251] call       23  2   1  
09DE  E4C5C101           [252] self       23  3   263  ; -1625438872
09E2  5D460C00           [253] getglobal  25  49       ; ballHeldTimerFx
09E6  E2858001           [254] call       23  3   2  
09EA  1D060100           [255] getglobal  24  4        ; 1074689893
09EE  5206800B           [256] move       25  23     
09F2  22860001           [257] call       24  2   2  
09F6  18460000           [258] test       24      1    ; to [260] if false
09FA  1A400080           [259] jmp        2            ; to [262]
09FE  2406CC0B           [260] self       24  23  304  ; -725453761
0A02  22460001           [261] call       24  2   1  
0A06  1D060100           [262] getglobal  24  4        ; 1074689893
0A0A  52060002           [263] move       25  4      
0A0E  22860001           [264] call       24  2   2  
0A12  18460000           [265] test       24      1    ; to [267] if false
0A16  1AC00080           [266] jmp        4            ; to [271]
0A1A  24864302           [267] self       24  4   270  ; 2109594123
0A1E  97060000           [268] loadbool   26  0   0    ; false
0A22  D7060000           [269] loadbool   27  0   0    ; false
0A26  22460002           [270] call       24  4   1  
0A2A  1D060100           [271] getglobal  24  4        ; 1074689893
0A2E  52068006           [272] move       25  13     
0A32  22860001           [273] call       24  2   2  
0A36  18460000           [274] test       24      1    ; to [276] if false
0A3A  1A800080           [275] jmp        3            ; to [279]
0A3E  2486CD06           [276] self       24  13  310  ; 675444810
0A42  97068000           [277] loadbool   26  1   0    ; true
0A46  22468001           [278] call       24  3   1  
0A4A  97030000           [279] loadbool   14  0   0    ; false
0A4E  D2020005           [280] move       11  10     
0A52  1DC60D00           [281] getglobal  24  55       ; 1289681407
0A56  22868000           [282] call       24  1   2  
0A5A  0D030606           [283] sub        12  12  24 
0A5E  98030000           [284] test       14      0    ; to [286] if true
0A62  1A800980           [285] jmp        39           ; to [325]
0A66  1DC60D00           [286] getglobal  24  55       ; 1289681407
0A6A  22868000           [287] call       24  1   2  
0A6E  C3038607           [288] add        15  15  24 
fail op	33
0A72  21C00308           [289] tforloop   0       15   ; to [291] if exit
0A76  1A400880           [290] jmp        34           ; to [325]
0A7A  2406CE00           [291] self       24  1   312  ; 630793108
0A7E  9D460E00           [292] getglobal  26  57       ; ballHeldTimerSound
0A82  D7060000           [293] loadbool   27  0   0    ; false
0A86  1D870E00           [294] getglobal  28  58       ; Engine
0A8A  0EC74E0E           [295] gettable   28  28  315  ; "SP_NO_SUBTITLE"
0A8E  57070000           [296] loadbool   29  0   0    ; false
0A92  22860003           [297] call       24  6   2  
0A96  5203000C           [298] move       13  24     
0A9A  1D060100           [299] getglobal  24  4        ; 1074689893
0A9E  52068006           [300] move       25  13     
0AA2  22860001           [301] call       24  2   2  
0AA6  18460000           [302] test       24      1    ; to [304] if false
0AAA  1A800080           [303] jmp        3            ; to [307]
0AAE  2406CF06           [304] self       24  13  316  ; 1748762930
0AB2  92068008           [305] move       26  17     
0AB6  22468001           [306] call       24  3   1  
0ABA  98040000           [307] test       18      0    ; to [309] if true
0ABE  1A400080           [308] jmp        2            ; to [311]
0AC2  1D440F00           [309] getglobal  16  61       ; timerDelay
0AC6  1A400080           [310] jmp        2            ; to [313]
0ACA  1D860F00           [311] getglobal  24  62       ; timerDelayDecreaseMultiplier
0ACE  04040608           [312] mul        16  16  24 
0AD2  1DC60F00           [313] getglobal  24  63       ; lowerTimerLimit
fail op	21
0AD6  15000608           [314] concat     0   16  24 
0ADA  1A000080           [315] jmp        1            ; to [317]
0ADE  1DC40F00           [316] getglobal  16  63       ; lowerTimerLimit
0AE2  1D061000           [317] getglobal  24  64       ; timerPitchIncrease
0AE6  43048608           [318] add        17  17  24 
0AEA  1D461000           [319] getglobal  24  65       ; upperPitchLimit
fail op	21
0AEE  1540040C           [320] concat     0   24  17 
0AF2  1A000080           [321] jmp        1            ; to [323]
0AF6  5D441000           [322] getglobal  17  65       ; upperPitchLimit
0AFA  97040000           [323] loadbool   18  0   0    ; false
0AFE  D9430000           [324] loadk      15  1        ; 0
0B02  1D060000           [325] getglobal  24  0        ; 538022378
0B06  59460000           [326] loadk      25  1        ; 0
0B0A  22460001           [327] call       24  2   1  
0B0E  1A80BA7F           [328] jmp        -277         ; to [52]
0B12  1D060100           [329] getglobal  24  4        ; 1074689893
0B16  52060000           [330] move       25  0      
0B1A  22860001           [331] call       24  2   2  
0B1E  18460000           [332] test       24      1    ; to [334] if false
0B22  1A400080           [333] jmp        2            ; to [336]
0B26  24064C00           [334] self       24  0   304  ; -725453761
0B2A  22460001           [335] call       24  2   1  
0B2E  1E008000           [336] return     0   1      
                         * constants:
0B32  42                 sizek (66)
0B33  01                 const type 3
0B34  EA911120           const [0]: (538022378)
0B38  03                 const type 3
0B39  00000000           const [1]: (0)
0B3D  01                 const type 3
0B3E  12F0FAD5           const [2]: (-704974830)
0B42  01                 const type 3
0B43  3B467C90           const [3]: (-1870903749)
0B47  01                 const type 3
0B48  65770E40           const [4]: (1074689893)
0B4C  01                 const type 3
0B4D  D48E598B           const [5]: (-1957065004)
0B51  04                 const type 4
0B52  10                 string size (16)
0B53  6742617365417661+  "gBaseAva"
0B5B  7461725479706500   "tarType\0"
                         const [6]: "gBaseAvatarType"
0B63  01                 const type 3
0B64  68C51D9F           const [7]: (-1625438872)
0B68  04                 const type 4
0B69  0D                 string size (13)
0B6A  62616C6C48656C64+  "ballHeld"
0B72  5479706500         "Type\0"
                         const [8]: "ballHeldType"
0B77  01                 const type 3
0B78  D1BB5C89           const [9]: (-1990411311)
0B7C  04                 const type 4
0B7D  0B                 string size (11)
0B7E  6D61726B65725479+  "markerTy"
0B86  706500             "pe\0"
                         const [10]: "markerType"
0B89  01                 const type 3
0B8A  00971C22           const [11]: (572299008)
0B8E  01                 const type 3
0B8F  81624F1E           const [12]: (508519041)
0B93  03                 const type 3
0B94  000080BF           const [13]: (0)
0B98  01                 const type 3
0B99  0BDABD7D           const [14]: (2109594123)
0B9D  01                 const type 3
0B9E  0125A76D           const [15]: (1839670529)
0BA2  01                 const type 3
0BA3  98FD7463           const [16]: (1668611480)
0BA7  04                 const type 4
0BA8  02                 string size (2)
0BA9  7900               "y\0"
                         const [17]: "y"
0BAB  03                 const type 3
0BAC  00002041           const [18]: (0)
0BB0  03                 const type 3
0BB1  0000803F           const [19]: (0)
0BB5  01                 const type 3
0BB6  61E324D1           const [20]: (-786111647)
0BBA  03                 const type 3
0BBB  0000003F           const [21]: (0)
0BBF  01                 const type 3
0BC0  925F7E6A           const [22]: (1786666898)
0BC4  01                 const type 3
0BC5  554B0393           const [23]: (-1828500651)
0BC9  03                 const type 3
0BCA  295C0F3E           const [24]: (41)
0BCE  03                 const type 3
0BCF  CDCC4C3E           const [25]: (-51)
0BD3  01                 const type 3
0BD4  FFEBD2ED           const [26]: (-304944129)
0BD8  04                 const type 4
0BD9  06                 string size (6)
0BDA  706974636800       "pitch\0"
                         const [27]: "pitch"
0BE0  04                 const type 4
0BE1  05                 string size (5)
0BE2  62616E6B00         "bank\0"
                         const [28]: "bank"
0BE7  03                 const type 3
0BE8  9A9959BF           const [29]: (-102)
0BEC  01                 const type 3
0BED  DC3D18EC           const [30]: (-333955620)
0BF1  01                 const type 3
0BF2  8CFD9750           const [31]: (1352138124)
0BF6  01                 const type 3
0BF7  EFCC1A8C           const [32]: (-1944400657)
0BFB  01                 const type 3
0BFC  625C8C21           const [33]: (562846818)
0C00  01                 const type 3
0C01  92F1BA0B           const [34]: (196800914)
0C05  03                 const type 3
0C06  00004842           const [35]: (0)
0C0A  03                 const type 3
0C0B  9A99993E           const [36]: (-102)
0C0F  04                 const type 4
0C10  0B                 string size (11)
0C11  6747616D6552756C+  "gGameRul"
0C19  657300             "es\0"
                         const [37]: "gGameRules"
0C1C  04                 const type 4
0C1D  1D                 string size (29)
0C1E  674C6F7475735370+  "gLotusSp"
0C26  65656462616C6C47+  "eedballG"
0C2E  616D6552756C6573+  "ameRules"
0C36  5479706500         "Type\0"
                         const [38]: "gLotusSpeedballGameRulesType"
0C3B  01                 const type 3
0C3C  559AE32C           const [39]: (753113685)
0C40  01                 const type 3
0C41  F26E43AB           const [40]: (-1421644046)
0C45  04                 const type 4
0C46  0D                 string size (13)
0C47  68656C644265616D+  "heldBeam"
0C4F  5479706500         "Type\0"
                         const [41]: "heldBeamType"
0C54  04                 const type 4
0C55  0D                 string size (13)
0C56  454D5054595F5359+  "EMPTY_SY"
0C5E  4D424F4C00         "MBOL\0"
                         const [42]: "EMPTY_SYMBOL"
0C63  01                 const type 3
0C64  CFBD2C4E           const [43]: (1311555023)
0C68  01                 const type 3
0C69  42674A8C           const [44]: (-1941280958)
0C6D  03                 const type 3
0C6E  0000C03F           const [45]: (0)
0C72  03                 const type 3
0C73  6666E63F           const [46]: (102)
0C77  04                 const type 4
0C78  09                 string size (9)
0C79  6174746163684678+  "attachFx"
0C81  00                 "\0"
                         const [47]: "attachFx"
0C82  01                 const type 3
0C83  3F74C2D4           const [48]: (-725453761)
0C87  04                 const type 4
0C88  10                 string size (16)
0C89  62616C6C48656C64+  "ballHeld"
0C91  54696D6572467800   "TimerFx\0"
                         const [49]: "ballHeldTimerFx"
0C99  01                 const type 3
0C9A  533F61B8           const [50]: (-1201586349)
0C9E  04                 const type 4
0C9F  0E                 string size (14)
0CA0  6174746163684C6F+  "attachLo"
0CA8  63616C467800       "calFx\0"
                         const [51]: "attachLocalFx"
0CAE  04                 const type 4
0CAF  12                 string size (18)
0CB0  74696D6572496E69+  "timerIni"
0CB8  7469616C44656C61+  "tialDela"
0CC0  7900               "y\0"
                         const [52]: "timerInitialDelay"
0CC2  04                 const type 4
0CC3  12                 string size (18)
0CC4  74696D6572496E69+  "timerIni"
0CCC  7469616C50697463+  "tialPitc"
0CD4  6800               "h\0"
                         const [53]: "timerInitialPitch"
0CD6  01                 const type 3
0CD7  4A784228           const [54]: (675444810)
0CDB  01                 const type 3
0CDC  FFF9DE4C           const [55]: (1289681407)
0CE0  01                 const type 3
0CE1  94239925           const [56]: (630793108)
0CE5  04                 const type 4
0CE6  13                 string size (19)
0CE7  62616C6C48656C64+  "ballHeld"
0CEF  54696D6572536F75+  "TimerSou"
0CF7  6E6400             "nd\0"
                         const [57]: "ballHeldTimerSound"
0CFA  04                 const type 4
0CFB  07                 string size (7)
0CFC  456E67696E6500     "Engine\0"
                         const [58]: "Engine"
0D03  04                 const type 4
0D04  0F                 string size (15)
0D05  53505F4E4F5F5355+  "SP_NO_SU"
0D0D  425449544C4500     "BTITLE\0"
                         const [59]: "SP_NO_SUBTITLE"
0D14  01                 const type 3
0D15  32013C68           const [60]: (1748762930)
0D19  04                 const type 4
0D1A  0B                 string size (11)
0D1B  74696D657244656C+  "timerDel"
0D23  617900             "ay\0"
                         const [61]: "timerDelay"
0D26  04                 const type 4
0D27  1D                 string size (29)
0D28  74696D657244656C+  "timerDel"
0D30  6179446563726561+  "ayDecrea"
0D38  73654D756C746970+  "seMultip"
0D40  6C69657200         "lier\0"
                         const [62]: "timerDelayDecreaseMultiplier"
0D45  04                 const type 4
0D46  10                 string size (16)
0D47  6C6F77657254696D+  "lowerTim"
0D4F  65724C696D697400   "erLimit\0"
                         const [63]: "lowerTimerLimit"
0D57  04                 const type 4
0D58  13                 string size (19)
0D59  74696D6572506974+  "timerPit"
0D61  6368496E63726561+  "chIncrea"
0D69  736500             "se\0"
                         const [64]: "timerPitchIncrease"
0D6C  04                 const type 4
0D6D  10                 string size (16)
0D6E  7570706572506974+  "upperPit"
0D76  63684C696D697400   "chLimit\0"
                         const [65]: "upperPitchLimit"
                         * functions:
0D7E  00                 sizep (0)
                         * lines:
0D80  02                 sizelineinfo (336)
                         [pc] (line)
0D81  51                 [001] (81)
0D82  00                 [002] (81)
0D83  00                 [003] (81)
0D84  00                 [004] (82)
0D85  51                 [005] (82)
0D86  00                 [006] (83)
0D87  00                 [007] (83)
0D88  00                 [008] (84)
0D89  51                 [009] (84)
0D8A  00                 [010] (84)
0D8B  00                 [011] (84)
0D8C  00                 [012] (84)
0D8D  52                 [013] (84)
0D8E  00                 [014] (84)
0D8F  00                 [015] (84)
0D90  00                 [016] (84)
0D91  52                 [017] (84)
0D92  00                 [018] (84)
0D93  00                 [019] (84)
0D94  00                 [020] (84)
0D95  53                 [021] (84)
0D96  00                 [022] (84)
0D97  00                 [023] (85)
0D98  00                 [024] (88)
0D99  53                 [025] (88)
0D9A  00                 [026] (88)
0D9B  00                 [027] (89)
0D9C  00                 [028] (89)
0D9D  54                 [029] (91)
0D9E  00                 [030] (91)
0D9F  00                 [031] (91)
0DA0  00                 [032] (93)
0DA1  54                 [033] (93)
0DA2  00                 [034] (94)
0DA3  00                 [035] (94)
0DA4  00                 [036] (95)
0DA5  54                 [037] (95)
0DA6  00                 [038] (96)
0DA7  00                 [039] (97)
0DA8  00                 [040] (98)
0DA9  54                 [041] (99)
0DAA  00                 [042] (100)
0DAB  00                 [043] (101)
0DAC  00                 [044] (102)
0DAD  54                 [045] (103)
0DAE  00                 [046] (104)
0DAF  00                 [047] (106)
0DB0  00                 [048] (108)
0DB1  54                 [049] (108)
0DB2  00                 [050] (108)
0DB3  00                 [051] (108)
0DB4  00                 [052] (109)
0DB5  54                 [053] (109)
0DB6  00                 [054] (109)
0DB7  00                 [055] (109)
0DB8  00                 [056] (109)
0DB9  54                 [057] (109)
0DBA  00                 [058] (109)
0DBB  00                 [059] (109)
0DBC  00                 [060] (109)
0DBD  54                 [061] (109)
0DBE  00                 [062] (109)
0DBF  00                 [063] (109)
0DC0  00                 [064] (109)
0DC1  54                 [065] (109)
0DC2  00                 [066] (109)
0DC3  00                 [067] (110)
0DC4  00                 [068] (110)
0DC5  54                 [069] (110)
0DC6  00                 [070] (112)
0DC7  00                 [071] (112)
0DC8  00                 [072] (112)
0DC9  54                 [073] (112)
0DCA  00                 [074] (112)
0DCB  00                 [075] (112)
0DCC  00                 [076] (112)
0DCD  54                 [077] (113)
0DCE  00                 [078] (113)
0DCF  00                 [079] (113)
0DD0  00                 [080] (113)
0DD1  54                 [081] (113)
0DD2  00                 [082] (114)
0DD3  00                 [083] (114)
0DD4  00                 [084] (114)
0DD5  54                 [085] (114)
0DD6  00                 [086] (114)
0DD7  00                 [087] (114)
0DD8  00                 [088] (114)
0DD9  55                 [089] (115)
0DDA  00                 [090] (115)
0DDB  00                 [091] (115)
0DDC  00                 [092] (115)
0DDD  58                 [093] (115)
0DDE  00                 [094] (116)
0DDF  00                 [095] (117)
0DE0  00                 [096] (118)
0DE1  58                 [097] (119)
0DE2  00                 [098] (120)
0DE3  00                 [099] (120)
0DE4  00                 [100] (120)
0DE5  58                 [101] (121)
0DE6  00                 [102] (121)
0DE7  00                 [103] (121)
0DE8  00                 [104] (122)
0DE9  59                 [105] (122)
0DEA  00                 [106] (122)
0DEB  00                 [107] (123)
0DEC  00                 [108] (123)
0DED  59                 [109] (123)
0DEE  00                 [110] (123)
0DEF  00                 [111] (123)
0DF0  00                 [112] (123)
0DF1  5B                 [113] (125)
0DF2  00                 [114] (125)
0DF3  00                 [115] (125)
0DF4  00                 [116] (125)
0DF5  5B                 [117] (125)
0DF6  00                 [118] (126)
0DF7  00                 [119] (126)
0DF8  00                 [120] (126)
0DF9  5B                 [121] (126)
0DFA  00                 [122] (126)
0DFB  00                 [123] (-128)
0DFC  00                 [124] (-128)
0DFD  5D                 [125] (-128)
0DFE  00                 [126] (-128)
0DFF  00                 [127] (-125)
0E00  00                 [128] (-125)
0E01  5D                 [129] (-125)
0E02  00                 [130] (-125)
0E03  00                 [131] (-125)
0E04  00                 [132] (-125)
0E05  5E                 [133] (-125)
0E06  00                 [134] (-125)
0E07  00                 [135] (-125)
0E08  00                 [136] (-125)
0E09  5E                 [137] (-125)
0E0A  00                 [138] (-125)
0E0B  00                 [139] (-125)
0E0C  00                 [140] (-125)
0E0D  5F                 [141] (-125)
0E0E  00                 [142] (-125)
0E0F  00                 [143] (-124)
0E10  00                 [144] (-124)
0E11  5F                 [145] (-124)
0E12  00                 [146] (-124)
0E13  00                 [147] (-123)
0E14  00                 [148] (-123)
0E15  60                 [149] (-123)
0E16  00                 [150] (-123)
0E17  00                 [151] (-122)
0E18  00                 [152] (-122)
0E19  61                 [153] (-122)
0E1A  00                 [154] (-122)
0E1B  00                 [155] (-122)
0E1C  00                 [156] (-121)
0E1D  62                 [157] (-121)
0E1E  00                 [158] (-121)
0E1F  00                 [159] (-121)
0E20  00                 [160] (-121)
0E21  63                 [161] (-121)
0E22  00                 [162] (-121)
0E23  00                 [163] (-121)
0E24  00                 [164] (-121)
0E25  64                 [165] (-121)
0E26  00                 [166] (-121)
0E27  00                 [167] (-121)
0E28  00                 [168] (-121)
0E29  65                 [169] (-121)
0E2A  00                 [170] (-119)
0E2B  00                 [171] (-119)
0E2C  00                 [172] (-119)
0E2D  66                 [173] (-119)
0E2E  00                 [174] (-119)
0E2F  00                 [175] (-115)
0E30  00                 [176] (-115)
0E31  67                 [177] (-115)
0E32  00                 [178] (-115)
0E33  00                 [179] (-114)
0E34  00                 [180] (-114)
0E35  68                 [181] (-114)
0E36  00                 [182] (-114)
0E37  00                 [183] (-114)
0E38  00                 [184] (-114)
0E39  6A                 [185] (-114)
0E3A  00                 [186] (-114)
0E3B  00                 [187] (-114)
0E3C  00                 [188] (-114)
0E3D  6C                 [189] (-114)
0E3E  00                 [190] (-114)
0E3F  00                 [191] (-114)
0E40  00                 [192] (-114)
0E41  6C                 [193] (-114)
0E42  00                 [194] (-114)
0E43  00                 [195] (-113)
0E44  00                 [196] (-113)
0E45  6C                 [197] (-113)
0E46  00                 [198] (-112)
0E47  00                 [199] (-112)
0E48  00                 [200] (-112)
0E49  6C                 [201] (-112)
0E4A  00                 [202] (-112)
0E4B  00                 [203] (-111)
0E4C  00                 [204] (-111)
0E4D  6D                 [205] (-109)
0E4E  00                 [206] (-109)
0E4F  00                 [207] (-109)
0E50  00                 [208] (-108)
0E51  6D                 [209] (-108)
0E52  00                 [210] (-108)
0E53  00                 [211] (-108)
0E54  00                 [212] (-108)
0E55  6D                 [213] (-107)
0E56  00                 [214] (-107)
0E57  00                 [215] (-106)
0E58  00                 [216] (-103)
0E59  6D                 [217] (-103)
0E5A  00                 [218] (-103)
0E5B  00                 [219] (-103)
0E5C  00                 [220] (-102)
0E5D  6D                 [221] (-102)
0E5E  00                 [222] (-102)
0E5F  00                 [223] (-102)
0E60  00                 [224] (-101)
0E61  6D                 [225] (-100)
0E62  00                 [226] (-99)
0E63  00                 [227] (-98)
0E64  00                 [228] (-97)
0E65  6D                 [229] (-97)
0E66  00                 [230] (-95)
0E67  00                 [231] (-95)
0E68  00                 [232] (-95)
0E69  6D                 [233] (-95)
0E6A  00                 [234] (-93)
0E6B  00                 [235] (-93)
0E6C  00                 [236] (-93)
0E6D  6D                 [237] (-93)
0E6E  00                 [238] (-90)
0E6F  00                 [239] (-90)
0E70  00                 [240] (-90)
0E71  6D                 [241] (-90)
0E72  00                 [242] (-88)
0E73  00                 [243] (-88)
0E74  00                 [244] (-88)
0E75  6D                 [245] (-87)
0E76  00                 [246] (-87)
0E77  00                 [247] (-87)
0E78  00                 [248] (-87)
0E79  6D                 [249] (-87)
0E7A  00                 [250] (-86)
0E7B  00                 [251] (-86)
0E7C  00                 [252] (-84)
0E7D  6D                 [253] (-84)
0E7E  00                 [254] (-84)
0E7F  00                 [255] (-83)
0E80  00                 [256] (-83)
0E81  6D                 [257] (-83)
0E82  00                 [258] (-83)
0E83  00                 [259] (-83)
0E84  00                 [260] (-82)
0E85  6D                 [261] (-82)
0E86  00                 [262] (-80)
0E87  00                 [263] (-80)
0E88  00                 [264] (-80)
0E89  6E                 [265] (-80)
0E8A  00                 [266] (-80)
0E8B  00                 [267] (-79)
0E8C  00                 [268] (-79)
0E8D  6E                 [269] (-79)
0E8E  00                 [270] (-79)
0E8F  00                 [271] (-77)
0E90  00                 [272] (-77)
0E91  6E                 [273] (-77)
0E92  00                 [274] (-77)
0E93  00                 [275] (-77)
0E94  00                 [276] (-76)
0E95  70                 [277] (-76)
0E96  00                 [278] (-76)
0E97  00                 [279] (-74)
0E98  00                 [280] (-72)
0E99  70                 [281] (-71)
0E9A  00                 [282] (-71)
0E9B  00                 [283] (-71)
0E9C  00                 [284] (-69)
0E9D  70                 [285] (-69)
0E9E  00                 [286] (-68)
0E9F  00                 [287] (-68)
0EA0  00                 [288] (-68)
0EA1  70                 [289] (-67)
0EA2  00                 [290] (-67)
0EA3  00                 [291] (-66)
0EA4  00                 [292] (-66)
0EA5  70                 [293] (-66)
0EA6  00                 [294] (-66)
0EA7  00                 [295] (-66)
0EA8  00                 [296] (-66)
0EA9  70                 [297] (-66)
0EAA  00                 [298] (-66)
0EAB  00                 [299] (-65)
0EAC  00                 [300] (-65)
0EAD  70                 [301] (-65)
0EAE  00                 [302] (-65)
0EAF  00                 [303] (-65)
0EB0  00                 [304] (-64)
0EB1  71                 [305] (-64)
0EB2  00                 [306] (-64)
0EB3  00                 [307] (-62)
0EB4  00                 [308] (-62)
0EB5  71                 [309] (-61)
0EB6  00                 [310] (-61)
0EB7  00                 [311] (-59)
0EB8  00                 [312] (-59)
0EB9  71                 [313] (-56)
0EBA  00                 [314] (-56)
0EBB  00                 [315] (-56)
0EBC  00                 [316] (-55)
0EBD  71                 [317] (-52)
0EBE  00                 [318] (-52)
0EBF  00                 [319] (-51)
0EC0  00                 [320] (-51)
0EC1  71                 [321] (-51)
0EC2  00                 [322] (-50)
0EC3  00                 [323] (-47)
0EC4  00                 [324] (-46)
0EC5  72                 [325] (-42)
0EC6  00                 [326] (-42)
0EC7  00                 [327] (-42)
0EC8  00                 [328] (-42)
0EC9  72                 [329] (-39)
0ECA  00                 [330] (-39)
0ECB  00                 [331] (-39)
0ECC  00                 [332] (-39)
0ECD  72                 [333] (-39)
0ECE  00                 [334] (-38)
0ECF  00                 [335] (-38)
0ED0  00                 [336] (-36)
                         * locals:
12C1  00                 sizelocvars (0)
                         * upvalues:
12C2  00                 sizeupvalues (0)
                         ** end of function **

                         
12C3                     ** function [2] definition (level 2)
                         ** start of function **
12C3  00                 string size (0)
                         source name: (none)
12C5  01                 line defined (222)
12C6  F7                 last line defined (247)
12C7  01                 nups (3)
12C8  03                 numparams (1)
12C9  01                 is_vararg (0)
12CA  00                 maxstacksize (11)
                         * code:
12CC  48                 sizecode (72)
12CD  5D000000           [01] getglobal  1   0        ; 538022378
12D1  99400000           [02] loadk      2   1        ; 0
12D5  62400001           [03] call       1   2   1  
12D9  46008000           [04] loadnil    1   1      
12DD  9D800000           [05] getglobal  2   2        ; 572299008
12E1  A2808000           [06] call       2   1   2  
12E5  DD800000           [07] getglobal  3   2        ; 572299008
12E9  E2808000           [08] call       3   1   2  
12ED  1DC10000           [09] getglobal  4   3        ; 1074689893
12F1  52018000           [10] move       5   1      
12F5  22810001           [11] call       4   2   2  
12F9  18010000           [12] test       4       0    ; to [14] if true
12FD  1AC00180           [13] jmp        8            ; to [22]
1301  1D010100           [14] getglobal  4   4        ; gRegion
1305  24414102           [15] self       4   4   261  ; -1084394954
1309  9D810100           [16] getglobal  6   6        ; projectileType
130D  DD810000           [17] getglobal  7   2        ; 572299008
1311  E2818000           [18] call       7   1   2  
1315  19C20100           [19] loadk      8   7        ; 0
1319  22818002           [20] call       4   5   2  
131D  52000002           [21] move       1   4      
1321  1DC10000           [22] getglobal  4   3        ; 1074689893
1325  52018000           [23] move       5   1      
1329  22810001           [24] call       4   2   2  
132D  18010000           [25] test       4       0    ; to [27] if true
1331  1A400280           [26] jmp        10           ; to [37]
1335  1D810000           [27] getglobal  4   2        ; 572299008
1339  22818000           [28] call       4   1   2  
133D  92000002           [29] move       2   4      
1341  1D810000           [30] getglobal  4   2        ; 572299008
1345  59010200           [31] loadk      5   8        ; 0
1349  99010200           [32] loadk      6   8        ; 0
134D  D9010200           [33] loadk      7   8        ; 0
1351  22810002           [34] call       4   4   2  
1355  D2000002           [35] move       3   4      
1359  1A400480           [36] jmp        18           ; to [55]
135D  2441C200           [37] self       4   1   265  ; 196800914
1361  22810001           [38] call       4   2   2  
1365  92000002           [39] move       2   4      
1369  24C1C200           [40] self       4   1   267  ; -1411936111
136D  93010000           [41] getupval   6   0      
1371  D9010200           [42] loadk      7   8        ; 0
1375  22810002           [43] call       4   4   2  
1379  CC000185           [44] settable   3   266 4    ; "x"
137D  24C1C200           [45] self       4   1   267  ; -1411936111
1381  93010000           [46] getupval   6   0      
1385  D9410300           [47] loadk      7   13       ; 0
1389  22810002           [48] call       4   4   2  
138D  CC000186           [49] settable   3   268 4    ; "y"
1391  24C1C200           [50] self       4   1   267  ; -1411936111
1395  93010000           [51] getupval   6   0      
1399  D9C10300           [52] loadk      7   15       ; 0
139D  22810002           [53] call       4   4   2  
13A1  CC000187           [54] settable   3   270 4    ; "z"
13A5  24014400           [55] self       4   0   272  ; -786111647
13A9  93018000           [56] getupval   6   1      
13AD  CE814201           [57] gettable   7   2   266  ; "x"
13B1  0E024301           [58] gettable   8   2   268  ; "y"
13B5  4E824301           [59] gettable   9   2   270  ; "z"
13B9  22410003           [60] call       4   6   1  
13BD  24014400           [61] self       4   0   272  ; -786111647
13C1  93010001           [62] getupval   6   2      
13C5  CE81C201           [63] gettable   7   3   266  ; "x"
13C9  0E02C301           [64] gettable   8   3   268  ; "y"
13CD  4E82C301           [65] gettable   9   3   270  ; "z"
13D1  99020200           [66] loadk      10  8        ; 0
13D5  22418003           [67] call       4   7   1  
13D9  1D010000           [68] getglobal  4   0        ; 538022378
13DD  59410000           [69] loadk      5   1        ; 0
13E1  22410001           [70] call       4   2   1  
13E5  1A00F07F           [71] jmp        -63          ; to [9]
13E9  1E008000           [72] return     0   1      
                         * constants:
13ED  11                 sizek (17)
13EE  01                 const type 3
13EF  EA911120           const [0]: (538022378)
13F3  03                 const type 3
13F4  00000000           const [1]: (0)
13F8  01                 const type 3
13F9  00971C22           const [2]: (572299008)
13FD  01                 const type 3
13FE  65770E40           const [3]: (1074689893)
1402  04                 const type 4
1403  08                 string size (8)
1404  67526567696F6E00   "gRegion\0"
                         const [4]: "gRegion"
140C  01                 const type 3
140D  36725DBF           const [5]: (-1084394954)
1411  04                 const type 4
1412  0F                 string size (15)
1413  70726F6A65637469+  "projecti"
141B  6C655479706500     "leType\0"
                         const [6]: "projectileType"
1422  03                 const type 3
1423  00004843           const [7]: (0)
1427  03                 const type 3
1428  0000803F           const [8]: (0)
142C  01                 const type 3
142D  92F1BA0B           const [9]: (196800914)
1431  04                 const type 4
1432  02                 string size (2)
1433  7800               "x\0"
                         const [10]: "x"
1435  01                 const type 3
1436  9190D7AB           const [11]: (-1411936111)
143A  04                 const type 4
143B  02                 string size (2)
143C  7900               "y\0"
                         const [12]: "y"
143E  03                 const type 3
143F  00000040           const [13]: (0)
1443  04                 const type 4
1444  02                 string size (2)
1445  7A00               "z\0"
                         const [14]: "z"
1447  03                 const type 3
1448  00004040           const [15]: (0)
144C  01                 const type 3
144D  61E324D1           const [16]: (-786111647)
                         * functions:
1451  00                 sizep (0)
                         * lines:
1452  48                 sizelineinfo (72)
                         [pc] (line)
1453  DF                 [01] (-33)
1454  00                 [02] (-33)
1455  00                 [03] (-33)
1456  00                 [04] (-31)
1457  DF                 [05] (-30)
1458  00                 [06] (-30)
1459  00                 [07] (-29)
145A  00                 [08] (-29)
145B  DF                 [09] (-25)
145C  00                 [10] (-25)
145D  00                 [11] (-25)
145E  00                 [12] (-25)
145F  E1                 [13] (-25)
1460  00                 [14] (-24)
1461  00                 [15] (-24)
1462  00                 [16] (-24)
1463  E2                 [17] (-24)
1464  00                 [18] (-24)
1465  00                 [19] (-24)
1466  00                 [20] (-24)
1467  E2                 [21] (-24)
1468  00                 [22] (-22)
1469  00                 [23] (-22)
146A  00                 [24] (-22)
146B  E3                 [25] (-22)
146C  00                 [26] (-22)
146D  00                 [27] (-21)
146E  00                 [28] (-21)
146F  E3                 [29] (-21)
1470  00                 [30] (-20)
1471  00                 [31] (-20)
1472  00                 [32] (-20)
1473  E7                 [33] (-20)
1474  00                 [34] (-20)
1475  00                 [35] (-20)
1476  00                 [36] (-20)
1477  E7                 [37] (-18)
1478  00                 [38] (-18)
1479  00                 [39] (-18)
147A  00                 [40] (-17)
147B  E7                 [41] (-17)
147C  00                 [42] (-17)
147D  00                 [43] (-17)
147E  00                 [44] (-17)
147F  E7                 [45] (-16)
1480  00                 [46] (-16)
1481  00                 [47] (-16)
1482  00                 [48] (-16)
1483  E7                 [49] (-16)
1484  00                 [50] (-15)
1485  00                 [51] (-15)
1486  00                 [52] (-15)
1487  E8                 [53] (-15)
1488  00                 [54] (-15)
1489  00                 [55] (-13)
148A  00                 [56] (-13)
148B  E8                 [57] (-13)
148C  00                 [58] (-13)
148D  00                 [59] (-13)
148E  00                 [60] (-13)
148F  E8                 [61] (-12)
1490  00                 [62] (-12)
1491  00                 [63] (-12)
1492  00                 [64] (-12)
1493  E8                 [65] (-12)
1494  00                 [66] (-12)
1495  00                 [67] (-12)
1496  00                 [68] (-11)
1497  E8                 [69] (-11)
1498  00                 [70] (-11)
1499  00                 [71] (-11)
149A  00                 [72] (-9)
                         * locals:
1573  00                 sizelocvars (0)
                         * upvalues:
1574  00                 sizeupvalues (0)
                         ** end of function **

                         
1575                     ** function [3] definition (level 2)
                         ** start of function **
1575  00                 string size (0)
                         source name: (none)
1577  01                 line defined (249)
1578  91                 last line defined (273)
1579  02                 nups (0)
157A  00                 numparams (1)
157B  01                 is_vararg (0)
157C  00                 maxstacksize (16)
                         * code:
157E  4E                 sizecode (78)
157F  64004000           [01] self       1   0   256  ; 196800914
1583  62800001           [02] call       1   2   2  
1587  A4004000           [03] self       2   0   256  ; 196800914
158B  A2800001           [04] call       2   2   2  
158F  CE40C000           [05] gettable   3   1   257  ; "z"
fail op	21
1593  1580C001           [06] concat     0   3   258
1597  1AC00080           [07] jmp        4            ; to [12]
159B  CE404001           [08] gettable   3   2   257  ; "z"
159F  C3C0C001           [09] add        3   3   259  ; 0
15A3  8CC08080           [10] settable   2   257 3    ; "z"
15A7  1A800080           [11] jmp        3            ; to [15]
15AB  CE404001           [12] gettable   3   2   257  ; "z"
15AF  CDC0C001           [13] sub        3   3   259  ; 0
15B3  8CC08080           [14] settable   2   257 3    ; "z"
15B7  D9000100           [15] loadk      3   4        ; 0
15BB  19410100           [16] loadk      4   5        ; 0
15BF  59010100           [17] loadk      5   4        ; 0
15C3  D0400E80           [18] forprep    3   58       ; to [77]
15C7  DD810100           [19] getglobal  7   6        ; math
15CB  CEC1C103           [20] gettable   7   7   263  ; -1153493898
15CF  04024203           [21] mul        8   6   264  ; -51
15D3  E2810001           [22] call       7   2   2  
15D7  1D420200           [23] getglobal  8   9        ; gRegion
15DB  24824204           [24] self       8   8   266  ; -1110225722
15DF  9DC20200           [25] getglobal  10  11       ; lightShowBeam
15E3  DD020300           [26] getglobal  11  12       ; 572299008
15E7  19430300           [27] loadk      12  13       ; 0
15EB  4483C303           [28] mul        13  7   270  ; -51
15EF  99830000           [29] loadk      14  2        ; 0
15F3  E2820002           [30] call       11  4   2  
15F7  C3C28200           [31] add        11  1   11 
15FB  1DC30300           [32] getglobal  12  15       ; 508519041
15FF  22038000           [33] call       12  1   0  
1603  22820000           [34] call       8   0   2  
1607  5D020400           [35] getglobal  9   16       ; 1074689893
160B  92020004           [36] move       10  8      
160F  62820001           [37] call       9   2   2  
1613  58420000           [38] test       9       1    ; to [40] if false
1617  1A000280           [39] jmp        9            ; to [49]
161B  64424404           [40] self       9   8   273  ; 1311555023
161F  DD020300           [41] getglobal  11  12       ; 572299008
1623  19830400           [42] loadk      12  18       ; 0
1627  44C3C003           [43] mul        13  7   259  ; 0
162B  43438389           [44] add        13  275 13   ; 0
162F  99830000           [45] loadk      14  2        ; 0
1633  E2820002           [46] call       11  4   2  
1637  C3C20201           [47] add        11  2   11 
163B  62428001           [48] call       9   3   1  
163F  5D420200           [49] getglobal  9   9        ; gRegion
1643  6482C204           [50] self       9   9   266  ; -1110225722
1647  DDC20200           [51] getglobal  11  11       ; lightShowBeam
164B  1D030300           [52] getglobal  12  12       ; 572299008
164F  59030500           [53] loadk      13  20       ; 0
1653  8483C303           [54] mul        14  7   270  ; -51
1657  D9830000           [55] loadk      15  2        ; 0
165B  22830002           [56] call       12  4   2  
165F  03038300           [57] add        12  1   12 
1663  5DC30300           [58] getglobal  13  15       ; 508519041
1667  62038000           [59] call       13  1   0  
166B  62820000           [60] call       9   0   2  
166F  9D020400           [61] getglobal  10  16       ; 1074689893
1673  D2028004           [62] move       11  9      
1677  A2820001           [63] call       10  2   2  
167B  98420000           [64] test       10      1    ; to [66] if false
167F  1AC00180           [65] jmp        8            ; to [74]
1683  A442C404           [66] self       10  9   273  ; 1311555023
1687  1D030300           [67] getglobal  12  12       ; 572299008
168B  59430500           [68] loadk      13  21       ; 0
168F  8483C503           [69] mul        14  7   278  ; 0
1693  D9830000           [70] loadk      15  2        ; 0
1697  22830002           [71] call       12  4   2  
169B  03030301           [72] add        12  2   12 
169F  A2428001           [73] call       10  3   1  
16A3  9DC20500           [74] getglobal  10  23       ; 538022378
16A7  D9020600           [75] loadk      11  24       ; -51
16AB  A2420001           [76] call       10  2   1  
16AF  D400F17F           [77] forloop    3   -59      ; to [19] if loop
16B3  1E008000           [78] return     0   1      
                         * constants:
16B7  19                 sizek (25)
16B8  01                 const type 3
16B9  92F1BA0B           const [0]: (196800914)
16BD  04                 const type 4
16BE  02                 string size (2)
16BF  7A00               "z\0"
                         const [1]: "z"
16C1  03                 const type 3
16C2  00000000           const [2]: (0)
16C6  03                 const type 3
16C7  00000041           const [3]: (0)
16CB  03                 const type 3
16CC  0000803F           const [4]: (0)
16D0  03                 const type 3
16D1  0000F042           const [5]: (0)
16D5  04                 const type 4
16D6  05                 string size (5)
16D7  6D61746800         "math\0"
                         const [6]: "math"
16DC  01                 const type 3
16DD  76143FBB           const [7]: (-1153493898)
16E1  03                 const type 3
16E2  CDCC4C3E           const [8]: (-51)
16E6  04                 const type 4
16E7  08                 string size (8)
16E8  67526567696F6E00   "gRegion\0"
                         const [9]: "gRegion"
16F0  01                 const type 3
16F1  C64CD3BD           const [10]: (-1110225722)
16F5  04                 const type 4
16F6  0E                 string size (14)
16F7  6C6967687453686F+  "lightSho"
16FF  774265616D00       "wBeam\0"
                         const [11]: "lightShowBeam"
1705  01                 const type 3
1706  00971C22           const [12]: (572299008)
170A  03                 const type 3
170B  0000F040           const [13]: (0)
170F  03                 const type 3
1710  CDCCCC3D           const [14]: (-51)
1714  01                 const type 3
1715  81624F1E           const [15]: (508519041)
1719  01                 const type 3
171A  65770E40           const [16]: (1074689893)
171E  01                 const type 3
171F  CFBD2C4E           const [17]: (1311555023)
1723  03                 const type 3
1724  00006041           const [18]: (0)
1728  03                 const type 3
1729  00008040           const [19]: (0)
172D  03                 const type 3
172E  0000F0C0           const [20]: (0)
1732  03                 const type 3
1733  000060C1           const [21]: (0)
1737  03                 const type 3
1738  00004041           const [22]: (0)
173C  01                 const type 3
173D  EA911120           const [23]: (538022378)
1741  03                 const type 3
1742  CDCC4C3D           const [24]: (-51)
                         * functions:
1746  00                 sizep (0)
                         * lines:
1747  4E                 sizelineinfo (78)
                         [pc] (line)
1748  FA                 [01] (-6)
1749  00                 [02] (-6)
174A  00                 [03] (-5)
174B  00                 [04] (-5)
174C  FA                 [05] (-4)
174D  00                 [06] (-4)
174E  00                 [07] (-4)
174F  00                 [08] (-3)
1750  FB                 [09] (-3)
1751  00                 [10] (-3)
1752  00                 [11] (-3)
1753  00                 [12] (-1)
1754  FB                 [13] (-1)
1755  00                 [14] (-1)
1756  00                 [15] (2)
1757  00                 [16] (2)
1758  FC                 [17] (2)
1759  00                 [18] (2)
175A  00                 [19] (3)
175B  00                 [20] (3)
175C  FC                 [21] (3)
175D  00                 [22] (3)
175E  00                 [23] (4)
175F  00                 [24] (4)
1760  FC                 [25] (4)
1761  00                 [26] (4)
1762  00                 [27] (4)
1763  00                 [28] (4)
1764  FD                 [29] (4)
1765  00                 [30] (4)
1766  00                 [31] (4)
1767  00                 [32] (4)
1768  FD                 [33] (4)
1769  00                 [34] (4)
176A  00                 [35] (5)
176B  00                 [36] (5)
176C  FD                 [37] (5)
176D  00                 [38] (5)
176E  00                 [39] (5)
176F  00                 [40] (6)
1770  FD                 [41] (6)
1771  00                 [42] (6)
1772  00                 [43] (6)
1773  00                 [44] (6)
1774  FF                 [45] (6)
1775  00                 [46] (6)
1776  00                 [47] (6)
1777  00                 [48] (6)
1778  FF                 [49] (9)
1779  00                 [50] (9)
177A  00                 [51] (9)
177B  00                 [52] (9)
177C  FF                 [53] (9)
177D  00                 [54] (9)
177E  00                 [55] (9)
177F  00                 [56] (9)
1780  02                 [57] (9)
1781  01                 [58] (9)
1782  00                 [59] (9)
1783  00                 [60] (9)
1784  02                 [61] (10)
1785  01                 [62] (10)
1786  00                 [63] (10)
1787  00                 [64] (10)
1788  02                 [65] (10)
1789  01                 [66] (11)
178A  00                 [67] (11)
178B  00                 [68] (11)
178C  02                 [69] (11)
178D  01                 [70] (11)
178E  00                 [71] (11)
178F  00                 [72] (11)
1790  03                 [73] (11)
1791  01                 [74] (14)
1792  00                 [75] (14)
1793  00                 [76] (14)
1794  03                 [77] (2)
1795  01                 [78] (17)
                         * locals:
1880  00                 sizelocvars (0)
                         * upvalues:
1881  00                 sizeupvalues (0)
                         ** end of function **

                         
1882                     ** function [4] definition (level 2)
                         ** start of function **
1882  00                 string size (0)
                         source name: (none)
1884  02                 line defined (275)
1885  A1                 last line defined (289)
1886  02                 nups (0)
1887  00                 numparams (2)
1888  02                 is_vararg (0)
1889  00                 maxstacksize (19)
                         * code:
188B  49                 sizecode (73)
188C  9D000000           [01] getglobal  2   0        ; 1074689893
1890  D2008000           [02] move       3   1      
1894  A2800001           [03] call       2   2   2  
1898  98000000           [04] test       2       0    ; to [6] if true
189C  1A000080           [05] jmp        1            ; to [7]
18A0  1E008000           [06] return     0   1      
18A4  99400000           [07] loadk      2   1        ; -51
18A8  E480C000           [08] self       3   1   258  ; 196800914
18AC  E2800001           [09] call       3   2   2  
18B0  1DC10000           [10] getglobal  4   3        ; ghostOffset
18B4  03018101           [11] add        4   3   4  
18B8  5D010100           [12] getglobal  5   4        ; 572299008
18BC  99410100           [13] loadk      6   5        ; 0
18C0  D9810100           [14] loadk      7   6        ; 0
18C4  19420100           [15] loadk      8   5        ; 0
18C8  62810002           [16] call       5   4   2  
18CC  0D410102           [17] sub        4   4   5  
18D0  5DC10100           [18] getglobal  5   7        ; -304944129
18D4  92010002           [19] move       6   4      
18D8  D2018001           [20] move       7   3      
18DC  62818001           [21] call       5   3   2  
18E0  9D010200           [22] getglobal  6   8        ; gRegion
18E4  A4414203           [23] self       6   6   265  ; -1110225722
18E8  1D820200           [24] getglobal  8   10       ; ghostDeco
18EC  52020002           [25] move       9   4      
18F0  92028002           [26] move       10  5      
18F4  A2418002           [27] call       6   5   1  
18F8  99810100           [28] loadk      6   6        ; 0
18FC  D9C10200           [29] loadk      7   11       ; 0
1900  19820100           [30] loadk      8   6        ; 0
1904  90C10980           [31] forprep    6   40       ; to [72]
1908  9D020300           [32] getglobal  10  12       ; -1941280958
190C  D9420100           [33] loadk      11  5        ; 0
1910  19830100           [34] loadk      12  6        ; 0
1914  A2828001           [35] call       10  3   2  
fail op	21
1918  15808286           [36] concat     0   269 10 
191C  1A400880           [37] jmp        34           ; to [72]
1920  9D020200           [38] getglobal  10  8        ; gRegion
1924  A4424205           [39] self       10  10  265  ; -1110225722
1928  1D830200           [40] getglobal  12  10       ; ghostDeco
192C  5D030100           [41] getglobal  13  4        ; 572299008
1930  9D030300           [42] getglobal  14  12       ; -1941280958
1934  DDC30000           [43] getglobal  15  3        ; ghostOffset
1938  CE83C307           [44] gettable   15  15  270  ; "z"
fail op	0
193C  C0038007           [45] move       15  15     
1940  C4838007           [46] mul        15  15  2  
1944  CD83C107           [47] sub        15  15  262  ; 0
1948  1DC40000           [48] getglobal  16  3        ; ghostOffset
194C  0E844308           [49] gettable   16  16  270  ; "z"
1950  04840008           [50] mul        16  16  2  
1954  03844108           [51] add        16  16  262  ; 0
1958  A2838001           [52] call       14  3   2  
195C  DD030300           [53] getglobal  15  12       ; -1941280958
1960  19C40300           [54] loadk      16  15       ; 0
1964  59C40200           [55] loadk      17  11       ; 0
1968  E2838001           [56] call       15  3   2  
196C  1D040300           [57] getglobal  16  12       ; -1941280958
1970  5DC40000           [58] getglobal  17  3        ; ghostOffset
1974  4E04C408           [59] gettable   17  17  272  ; "x"
fail op	0
1978  40048008           [60] move       17  17     
197C  44848008           [61] mul        17  17  2  
1980  4D84C108           [62] sub        17  17  262  ; 0
1984  9DC40000           [63] getglobal  18  3        ; ghostOffset
1988  8E044409           [64] gettable   18  18  272  ; "x"
198C  84840009           [65] mul        18  18  2  
1990  83844109           [66] add        18  18  262  ; 0
1994  22048001           [67] call       16  3   0  
1998  62830000           [68] call       13  0   2  
199C  43430302           [69] add        13  4   13 
19A0  92038002           [70] move       14  5      
19A4  A2428002           [71] call       10  5   1  
19A8  9481F57F           [72] forloop    6   -41      ; to [32] if loop
19AC  1E008000           [73] return     0   1      
                         * constants:
19B0  11                 sizek (17)
19B1  01                 const type 3
19B2  65770E40           const [0]: (1074689893)
19B6  03                 const type 3
19B7  CDCCCC3E           const [1]: (-51)
19BB  01                 const type 3
19BC  92F1BA0B           const [2]: (196800914)
19C0  04                 const type 4
19C1  0C                 string size (12)
19C2  67686F73744F6666+  "ghostOff"
19CA  73657400           "set\0"
                         const [3]: "ghostOffset"
19CE  01                 const type 3
19CF  00971C22           const [4]: (572299008)
19D3  03                 const type 3
19D4  00000000           const [5]: (0)
19D8  03                 const type 3
19D9  0000803F           const [6]: (0)
19DD  01                 const type 3
19DE  FFEBD2ED           const [7]: (-304944129)
19E2  04                 const type 4
19E3  08                 string size (8)
19E4  67526567696F6E00   "gRegion\0"
                         const [8]: "gRegion"
19EC  01                 const type 3
19ED  C64CD3BD           const [9]: (-1110225722)
19F1  04                 const type 4
19F2  0A                 string size (10)
19F3  67686F7374446563+  "ghostDec"
19FB  6F00               "o\0"
                         const [10]: "ghostDeco"
19FD  03                 const type 3
19FE  00000040           const [11]: (0)
1A02  01                 const type 3
1A03  42674A8C           const [12]: (-1941280958)
1A07  03                 const type 3
1A08  0000003F           const [13]: (0)
1A0C  04                 const type 4
1A0D  02                 string size (2)
1A0E  7A00               "z\0"
                         const [14]: "z"
1A10  03                 const type 3
1A11  000000C0           const [15]: (0)
1A15  04                 const type 4
1A16  02                 string size (2)
1A17  7800               "x\0"
                         const [16]: "x"
                         * functions:
1A19  00                 sizep (0)
                         * lines:
1A1A  49                 sizelineinfo (73)
                         [pc] (line)
1A1B  14                 [01] (20)
1A1C  01                 [02] (20)
1A1D  00                 [03] (20)
1A1E  00                 [04] (20)
1A1F  14                 [05] (20)
1A20  01                 [06] (21)
1A21  00                 [07] (23)
1A22  00                 [08] (24)
1A23  14                 [09] (24)
1A24  01                 [10] (25)
1A25  00                 [11] (25)
1A26  00                 [12] (25)
1A27  14                 [13] (25)
1A28  01                 [14] (25)
1A29  00                 [15] (25)
1A2A  00                 [16] (25)
1A2B  14                 [17] (25)
1A2C  01                 [18] (26)
1A2D  00                 [19] (26)
1A2E  00                 [20] (26)
1A2F  15                 [21] (26)
1A30  01                 [22] (27)
1A31  00                 [23] (27)
1A32  00                 [24] (27)
1A33  17                 [25] (27)
1A34  01                 [26] (27)
1A35  00                 [27] (27)
1A36  00                 [28] (28)
1A37  18                 [29] (28)
1A38  01                 [30] (28)
1A39  00                 [31] (28)
1A3A  00                 [32] (29)
1A3B  18                 [33] (29)
1A3C  01                 [34] (29)
1A3D  00                 [35] (29)
1A3E  00                 [36] (29)
1A3F  19                 [37] (29)
1A40  01                 [38] (30)
1A41  00                 [39] (30)
1A42  00                 [40] (30)
1A43  19                 [41] (30)
1A44  01                 [42] (30)
1A45  00                 [43] (30)
1A46  00                 [44] (30)
1A47  19                 [45] (30)
1A48  01                 [46] (30)
1A49  00                 [47] (30)
1A4A  00                 [48] (30)
1A4B  19                 [49] (30)
1A4C  01                 [50] (30)
1A4D  00                 [51] (30)
1A4E  00                 [52] (30)
1A4F  19                 [53] (30)
1A50  01                 [54] (30)
1A51  00                 [55] (30)
1A52  00                 [56] (30)
1A53  19                 [57] (30)
1A54  01                 [58] (30)
1A55  00                 [59] (30)
1A56  00                 [60] (30)
1A57  19                 [61] (30)
1A58  01                 [62] (30)
1A59  00                 [63] (30)
1A5A  00                 [64] (30)
1A5B  19                 [65] (30)
1A5C  01                 [66] (30)
1A5D  00                 [67] (30)
1A5E  00                 [68] (30)
1A5F  1A                 [69] (30)
1A60  01                 [70] (30)
1A61  00                 [71] (30)
1A62  00                 [72] (28)
1A63  1A                 [73] (33)
                         * locals:
1B3F  00                 sizelocvars (0)
                         * upvalues:
1B40  00                 sizeupvalues (0)
                         ** end of function **

                         
1B41                     ** function [5] definition (level 2)
                         ** start of function **
1B41  00                 string size (0)
                         source name: (none)
1B43  02                 line defined (291)
1B44  AD                 last line defined (301)
1B45  02                 nups (1)
1B46  01                 numparams (1)
1B47  01                 is_vararg (0)
1B48  00                 maxstacksize (7)
                         * code:
1B4A  1E                 sizecode (30)
1B4B  64004000           [01] self       1   0   256  ; 196800914
1B4F  62800001           [02] call       1   2   2  
1B53  9D400000           [03] getglobal  2   1        ; gRegion
1B57  A4804001           [04] self       2   2   258  ; -1110225722
1B5B  1DC10000           [05] getglobal  4   3        ; gongEffect
1B5F  52018000           [06] move       5   1      
1B63  9D010100           [07] getglobal  6   4        ; ZERO_ROTATION
1B67  A2408002           [08] call       2   5   1  
1B6B  99400100           [09] loadk      2   5        ; 0
fail op	21
1B6F  15800083           [10] concat     0   262 2  
1B73  1A400480           [11] jmp        18           ; to [30]
1B77  DDC00100           [12] getglobal  3   7        ; 1074689893
1B7B  1D010200           [13] getglobal  4   8        ; gongDeco
1B7F  E2800001           [14] call       3   2   2  
1B83  D8400000           [15] test       3       1    ; to [17] if false
1B87  1A000380           [16] jmp        13           ; to [30]
1B8B  DD000200           [17] getglobal  3   8        ; gongDeco
1B8F  E440C201           [18] self       3   3   265  ; -786111647
1B93  53010000           [19] getupval   5   0      
1B97  92010001           [20] move       6   2      
1B9B  E2400002           [21] call       3   4   1  
1B9F  DD800200           [22] getglobal  3   10       ; 538022378
1BA3  19C10200           [23] loadk      4   11       ; 0
1BA7  E2400001           [24] call       3   2   1  
1BAB  DD000300           [25] getglobal  3   12       ; 1289681407
1BAF  E2808000           [26] call       3   1   2  
1BB3  C440C301           [27] mul        3   3   269  ; 0
1BB7  8DC00001           [28] sub        2   2   3  
1BBB  1AC0FA7F           [29] jmp        -20          ; to [10]
1BBF  1E008000           [30] return     0   1      
                         * constants:
1BC3  0E                 sizek (14)
1BC4  01                 const type 3
1BC5  92F1BA0B           const [0]: (196800914)
1BC9  04                 const type 4
1BCA  08                 string size (8)
1BCB  67526567696F6E00   "gRegion\0"
                         const [1]: "gRegion"
1BD3  01                 const type 3
1BD4  C64CD3BD           const [2]: (-1110225722)
1BD8  04                 const type 4
1BD9  0B                 string size (11)
1BDA  676F6E6745666665+  "gongEffe"
1BE2  637400             "ct\0"
                         const [3]: "gongEffect"
1BE5  04                 const type 4
1BE6  0E                 string size (14)
1BE7  5A45524F5F524F54+  "ZERO_ROT"
1BEF  4154494F4E00       "ATION\0"
                         const [4]: "ZERO_ROTATION"
1BF5  03                 const type 3
1BF6  00008040           const [5]: (0)
1BFA  03                 const type 3
1BFB  0000803F           const [6]: (0)
1BFF  01                 const type 3
1C00  65770E40           const [7]: (1074689893)
1C04  04                 const type 4
1C05  09                 string size (9)
1C06  676F6E674465636F+  "gongDeco"
1C0E  00                 "\0"
                         const [8]: "gongDeco"
1C0F  01                 const type 3
1C10  61E324D1           const [9]: (-786111647)
1C14  01                 const type 3
1C15  EA911120           const [10]: (538022378)
1C19  03                 const type 3
1C1A  00000000           const [11]: (0)
1C1E  01                 const type 3
1C1F  FFF9DE4C           const [12]: (1289681407)
1C23  03                 const type 3
1C24  00000040           const [13]: (0)
                         * functions:
1C28  00                 sizep (0)
                         * lines:
1C29  1E                 sizelineinfo (30)
                         [pc] (line)
1C2A  24                 [01] (36)
1C2B  01                 [02] (36)
1C2C  00                 [03] (37)
1C2D  00                 [04] (37)
1C2E  24                 [05] (37)
1C2F  01                 [06] (37)
1C30  00                 [07] (37)
1C31  00                 [08] (37)
1C32  25                 [09] (39)
1C33  01                 [10] (40)
1C34  00                 [11] (40)
1C35  00                 [12] (40)
1C36  25                 [13] (40)
1C37  01                 [14] (40)
1C38  00                 [15] (40)
1C39  00                 [16] (40)
1C3A  25                 [17] (41)
1C3B  01                 [18] (41)
1C3C  00                 [19] (41)
1C3D  00                 [20] (41)
1C3E  25                 [21] (41)
1C3F  01                 [22] (42)
1C40  00                 [23] (42)
1C41  00                 [24] (42)
1C42  25                 [25] (43)
1C43  01                 [26] (43)
1C44  00                 [27] (43)
1C45  00                 [28] (43)
1C46  25                 [29] (43)
1C47  01                 [30] (45)
                         * locals:
1CA2  00                 sizelocvars (0)
                         * upvalues:
1CA3  00                 sizeupvalues (0)
                         ** end of function **

                         
1CA4                     ** function [6] definition (level 2)
                         ** start of function **
1CA4  00                 string size (0)
                         source name: (none)
1CA6  02                 line defined (303)
1CA7  C7                 last line defined (327)
1CA8  02                 nups (0)
1CA9  00                 numparams (1)
1CAA  01                 is_vararg (0)
1CAB  00                 maxstacksize (14)
                         * code:
1CAD  48                 sizecode (72)
1CAE  64004000           [01] self       1   0   256  ; -1870903749
1CB2  62800001           [02] call       1   2   2  
1CB6  99400000           [03] loadk      2   1        ; 0
1CBA  D9800000           [04] loadk      3   2        ; -51
1CBE  1DC10000           [05] getglobal  4   3        ; 572299008
1CC2  22818000           [06] call       4   1   2  
fail op	21
1CC6  15004101           [07] concat     0   2   260
1CCA  1AC00D80           [08] jmp        56           ; to [65]
1CCE  5D410100           [09] getglobal  5   5        ; 1074689893
1CD2  92018000           [10] move       6   1      
1CD6  62810001           [11] call       5   2   2  
1CDA  58410000           [12] test       5       1    ; to [14] if false
1CDE  1A800C80           [13] jmp        51           ; to [65]
1CE2  6481C100           [14] self       5   1   262  ; 1972440376
1CE6  62810001           [15] call       5   2   2  
1CEA  58010000           [16] test       5       0    ; to [18] if true
1CEE  1A800B80           [17] jmp        47           ; to [65]
fail op	21
1CF2  1540C001           [18] concat     0   3   257
1CF6  1A800880           [19] jmp        35           ; to [55]
1CFA  64C1C100           [20] self       5   1   263  ; 196800914
1CFE  62810001           [21] call       5   2   2  
1D02  12018002           [22] move       4   5      
1D06  4E014202           [23] gettable   5   4   264  ; "y"
fail op	21
1D0A  1540C202           [24] concat     0   5   265
1D0E  1AC00580           [25] jmp        24           ; to [50]
1D12  6481C200           [26] self       5   1   266  ; -1421644046
1D16  DDC10200           [27] getglobal  7   11       ; heldBeamType
1D1A  1D020300           [28] getglobal  8   12       ; EMPTY_SYMBOL
1D1E  62810002           [29] call       5   4   2  
1D22  0C414384           [30] settable   4   264 269  ; "y" 0
1D26  9D410100           [31] getglobal  6   5        ; 1074689893
1D2A  D2018002           [32] move       7   5      
1D2E  A2810001           [33] call       6   2   2  
1D32  98410000           [34] test       6       1    ; to [36] if false
1D36  1A400380           [35] jmp        14           ; to [50]
1D3A  A481C302           [36] self       6   5   270  ; 1311555023
1D3E  1DC20000           [37] getglobal  8   3        ; 572299008
1D42  5DC20300           [38] getglobal  9   15       ; -1941280958
1D46  99420300           [39] loadk      10  13       ; 0
1D4A  D9020400           [40] loadk      11  16       ; 0
1D4E  62828001           [41] call       9   3   2  
1D52  99420000           [42] loadk      10  1        ; 0
1D56  DDC20300           [43] getglobal  11  15       ; -1941280958
1D5A  19430300           [44] loadk      12  13       ; 0
1D5E  59030400           [45] loadk      13  16       ; 0
1D62  E2028001           [46] call       11  3   0  
1D66  22820000           [47] call       8   0   2  
1D6A  03020202           [48] add        8   4   8  
1D6E  A2418001           [49] call       6   3   1  
1D72  9DC10300           [50] getglobal  6   15       ; -1941280958
1D76  D9410400           [51] loadk      7   17       ; -51
1D7A  19820400           [52] loadk      8   18       ; -51
1D7E  A2818001           [53] call       6   3   2  
1D82  D2000003           [54] move       3   6      
1D86  9DC10400           [55] getglobal  6   19       ; 538022378
1D8A  D9410000           [56] loadk      7   1        ; 0
1D8E  A2410001           [57] call       6   2   1  
1D92  9D010500           [58] getglobal  6   20       ; 1289681407
1D96  A2818000           [59] call       6   1   2  
1D9A  83800101           [60] add        2   2   6  
1D9E  9D010500           [61] getglobal  6   20       ; 1289681407
1DA2  A2818000           [62] call       6   1   2  
1DA6  CD808101           [63] sub        3   3   6  
1DAA  1A40F17F           [64] jmp        -58          ; to [7]
1DAE  9D410100           [65] getglobal  6   5        ; 1074689893
1DB2  D2010000           [66] move       7   0      
1DB6  A2810001           [67] call       6   2   2  
1DBA  98410000           [68] test       6       1    ; to [70] if false
1DBE  1A400080           [69] jmp        2            ; to [72]
1DC2  A4414500           [70] self       6   0   277  ; -725453761
1DC6  A2410001           [71] call       6   2   1  
1DCA  1E008000           [72] return     0   1      
                         * constants:
1DCE  16                 sizek (22)
1DCF  01                 const type 3
1DD0  3B467C90           const [0]: (-1870903749)
1DD4  03                 const type 3
1DD5  00000000           const [1]: (0)
1DD9  03                 const type 3
1DDA  CDCC4C3D           const [2]: (-51)
1DDE  01                 const type 3
1DDF  00971C22           const [3]: (572299008)
1DE3  03                 const type 3
1DE4  00000040           const [4]: (0)
1DE8  01                 const type 3
1DE9  65770E40           const [5]: (1074689893)
1DED  01                 const type 3
1DEE  380D9175           const [6]: (1972440376)
1DF2  01                 const type 3
1DF3  92F1BA0B           const [7]: (196800914)
1DF7  04                 const type 4
1DF8  02                 string size (2)
1DF9  7900               "y\0"
                         const [8]: "y"
1DFB  03                 const type 3
1DFC  0000A040           const [9]: (0)
1E00  01                 const type 3
1E01  F26E43AB           const [10]: (-1421644046)
1E05  04                 const type 4
1E06  0D                 string size (13)
1E07  68656C644265616D+  "heldBeam"
1E0F  5479706500         "Type\0"
                         const [11]: "heldBeamType"
1E14  04                 const type 4
1E15  0D                 string size (13)
1E16  454D5054595F5359+  "EMPTY_SY"
1E1E  4D424F4C00         "MBOL\0"
                         const [12]: "EMPTY_SYMBOL"
1E23  03                 const type 3
1E24  000080BF           const [13]: (0)
1E28  01                 const type 3
1E29  CFBD2C4E           const [14]: (1311555023)
1E2D  01                 const type 3
1E2E  42674A8C           const [15]: (-1941280958)
1E32  03                 const type 3
1E33  0000803F           const [16]: (0)
1E37  03                 const type 3
1E38  CDCCCC3D           const [17]: (-51)
1E3C  03                 const type 3
1E3D  CDCC4C3E           const [18]: (-51)
1E41  01                 const type 3
1E42  EA911120           const [19]: (538022378)
1E46  01                 const type 3
1E47  FFF9DE4C           const [20]: (1289681407)
1E4B  01                 const type 3
1E4C  3F74C2D4           const [21]: (-725453761)
                         * functions:
1E50  00                 sizep (0)
                         * lines:
1E51  48                 sizelineinfo (72)
                         [pc] (line)
1E52  30                 [01] (48)
1E53  01                 [02] (48)
1E54  00                 [03] (49)
1E55  00                 [04] (50)
1E56  30                 [05] (51)
1E57  01                 [06] (51)
1E58  00                 [07] (52)
1E59  00                 [08] (52)
1E5A  31                 [09] (52)
1E5B  01                 [10] (52)
1E5C  00                 [11] (52)
1E5D  00                 [12] (52)
1E5E  32                 [13] (52)
1E5F  01                 [14] (52)
1E60  00                 [15] (52)
1E61  00                 [16] (52)
1E62  33                 [17] (52)
1E63  01                 [18] (53)
1E64  00                 [19] (53)
1E65  00                 [20] (54)
1E66  33                 [21] (54)
1E67  01                 [22] (54)
1E68  00                 [23] (55)
1E69  00                 [24] (55)
1E6A  34                 [25] (55)
1E6B  01                 [26] (56)
1E6C  00                 [27] (56)
1E6D  00                 [28] (56)
1E6E  34                 [29] (56)
1E6F  01                 [30] (57)
1E70  00                 [31] (58)
1E71  00                 [32] (58)
1E72  34                 [33] (58)
1E73  01                 [34] (58)
1E74  00                 [35] (58)
1E75  00                 [36] (59)
1E76  34                 [37] (59)
1E77  01                 [38] (59)
1E78  00                 [39] (59)
1E79  00                 [40] (59)
1E7A  34                 [41] (59)
1E7B  01                 [42] (59)
1E7C  00                 [43] (59)
1E7D  00                 [44] (59)
1E7E  34                 [45] (59)
1E7F  01                 [46] (59)
1E80  00                 [47] (59)
1E81  00                 [48] (59)
1E82  34                 [49] (59)
1E83  01                 [50] (62)
1E84  00                 [51] (62)
1E85  00                 [52] (62)
1E86  34                 [53] (62)
1E87  01                 [54] (62)
1E88  00                 [55] (64)
1E89  00                 [56] (64)
1E8A  34                 [57] (64)
1E8B  01                 [58] (65)
1E8C  00                 [59] (65)
1E8D  00                 [60] (65)
1E8E  34                 [61] (66)
1E8F  01                 [62] (66)
1E90  00                 [63] (66)
1E91  00                 [64] (66)
1E92  34                 [65] (68)
1E93  01                 [66] (68)
1E94  00                 [67] (68)
1E95  00                 [68] (68)
1E96  35                 [69] (68)
1E97  01                 [70] (69)
1E98  00                 [71] (69)
1E99  00                 [72] (71)
                         * locals:
1F72  00                 sizelocvars (0)
                         * upvalues:
1F73  00                 sizeupvalues (0)
                         ** end of function **

                         
1F74                     ** function [7] definition (level 2)
                         ** start of function **
1F74  00                 string size (0)
                         source name: (none)
1F76  02                 line defined (329)
1F77  CF                 last line defined (335)
1F78  02                 nups (0)
1F79  00                 numparams (1)
1F7A  01                 is_vararg (0)
1F7B  00                 maxstacksize (6)
                         * code:
1F7D  0D                 sizecode (13)
1F7E  64004000           [01] self       1   0   256  ; 129677183
1F82  62800001           [02] call       1   2   2  
1F86  9D400000           [03] getglobal  2   1        ; 1074689893
1F8A  D2008000           [04] move       3   1      
1F8E  A2800001           [05] call       2   2   2  
1F92  98400000           [06] test       2       1    ; to [8] if false
1F96  1A000180           [07] jmp        5            ; to [13]
1F9A  A480C000           [08] self       2   1   258  ; -1348043987
1F9E  A2800001           [09] call       2   2   2  
1FA2  E4C04001           [10] self       3   2   259  ; -1216321311
1FA6  52010000           [11] move       5   0      
1FAA  E2408001           [12] call       3   3   1  
1FAE  1E008000           [13] return     0   1      
                         * constants:
1FB2  04                 sizek (4)
1FB3  01                 const type 3
1FB4  7FB7BA07           const [0]: (129677183)
1FB8  01                 const type 3
1FB9  65770E40           const [1]: (1074689893)
1FBD  01                 const type 3
1FBE  2D7BA6AF           const [2]: (-1348043987)
1FC2  01                 const type 3
1FC3  E16880B7           const [3]: (-1216321311)
                         * functions:
1FC7  00                 sizep (0)
                         * lines:
1FC8  0D                 sizelineinfo (13)
                         [pc] (line)
1FC9  4A                 [01] (74)
1FCA  01                 [02] (74)
1FCB  00                 [03] (75)
1FCC  00                 [04] (75)
1FCD  4A                 [05] (75)
1FCE  01                 [06] (75)
1FCF  00                 [07] (75)
1FD0  00                 [08] (76)
1FD1  4B                 [09] (76)
1FD2  01                 [10] (77)
1FD3  00                 [11] (77)
1FD4  00                 [12] (77)
1FD5  4B                 [13] (79)
                         * locals:
1FFD  00                 sizelocvars (0)
                         * upvalues:
1FFE  00                 sizeupvalues (0)
                         ** end of function **

                         
1FFF                     ** function [8] definition (level 2)
                         ** start of function **
1FFF  00                 string size (0)
                         source name: (none)
2001  02                 line defined (337)
2002  D8                 last line defined (344)
2003  02                 nups (0)
2004  00                 numparams (2)
2005  02                 is_vararg (0)
2006  00                 maxstacksize (11)
                         * code:
2008  14                 sizecode (20)
2009  99000000           [01] loadk      2   0        ; 0
200D  DD400000           [02] getglobal  3   1        ; cloakEffects
2011  CA008001           [03] len        3   3      
2015  19010000           [04] loadk      4   0        ; 0
2019  90000380           [05] forprep    2   13       ; to [19]
201D  A481C000           [06] self       6   1   258  ; -1625438872
2021  1D420000           [07] getglobal  8   1        ; cloakEffects
2025  0E420104           [08] gettable   8   8   5  
2029  A2818001           [09] call       6   3   2  
202D  DDC10000           [10] getglobal  7   3        ; 1074689893
2031  12020003           [11] move       8   6      
2035  E2810001           [12] call       7   2   2  
2039  D8410000           [13] test       7       1    ; to [15] if false
203D  1AC00080           [14] jmp        4            ; to [19]
2041  E4014103           [15] self       7   6   260  ; 2109594123
2045  52020000           [16] move       9   0      
2049  97028000           [17] loadbool   10  1   0    ; true
204D  E2410002           [18] call       7   4   1  
2051  9440FC7F           [19] forloop    2   -14      ; to [6] if loop
2055  1E008000           [20] return     0   1      
                         * constants:
2059  05                 sizek (5)
205A  03                 const type 3
205B  0000803F           const [0]: (0)
205F  04                 const type 4
2060  0D                 string size (13)
2061  636C6F616B456666+  "cloakEff"
2069  6563747300         "ects\0"
                         const [1]: "cloakEffects"
206E  01                 const type 3
206F  68C51D9F           const [2]: (-1625438872)
2073  01                 const type 3
2074  65770E40           const [3]: (1074689893)
2078  01                 const type 3
2079  0BDABD7D           const [4]: (2109594123)
                         * functions:
207D  00                 sizep (0)
                         * lines:
207E  14                 sizelineinfo (20)
                         [pc] (line)
207F  52                 [01] (82)
2080  01                 [02] (82)
2081  00                 [03] (82)
2082  00                 [04] (82)
2083  52                 [05] (82)
2084  01                 [06] (83)
2085  00                 [07] (83)
2086  00                 [08] (83)
2087  52                 [09] (83)
2088  01                 [10] (84)
2089  00                 [11] (84)
208A  00                 [12] (84)
208B  52                 [13] (84)
208C  01                 [14] (84)
208D  00                 [15] (85)
208E  00                 [16] (85)
208F  52                 [17] (85)
2090  01                 [18] (85)
2091  00                 [19] (82)
2092  00                 [20] (88)
                         * locals:
20CF  00                 sizelocvars (0)
                         * upvalues:
20D0  00                 sizeupvalues (0)
                         ** end of function **

                         
20D1                     ** function [9] definition (level 2)
                         ** start of function **
20D1  00                 string size (0)
                         source name: (none)
20D3  02                 line defined (346)
20D4  89                 last line defined (393)
20D5  03                 nups (1)
20D6  01                 numparams (3)
20D7  03                 is_vararg (0)
20D8  00                 maxstacksize (10)
                         * code:
20DA  59                 sizecode (89)
20DB  CE004001           [01] gettable   3   2   256  ; "stateBehavior"
20DF  E440C001           [02] self       3   3   257  ; 24631625
20E3  E2800001           [03] call       3   2   2  
20E7  0E814001           [04] gettable   4   2   258  ; "hasCaughtBall"
fail op	35
20EB  23008101           [05] close      0  
20EF  1A000080           [06] jmp        1            ; to [8]
20F3  17410000           [07] loadbool   4   0   1    ; false, to [9]
20F7  17018000           [08] loadbool   4   1   0    ; true
20FB  8CC00081           [09] settable   2   258 3    ; "hasCaughtBall"
20FF  64C14000           [10] self       5   0   259  ; -214694299
2103  DD010100           [11] getglobal  7   4        ; Engine
2107  CE41C103           [12] gettable   7   7   261  ; "PM_CLOAK"
210B  62818001           [13] call       5   3   2  
210F  8E814101           [14] gettable   6   2   262  ; "isCloaked"
fail op	35
2113  63808102           [15] close      1  
2117  1AC00280           [16] jmp        12           ; to [29]
211B  58410000           [17] test       5       1    ; to [19] if false
211F  1A400080           [18] jmp        2            ; to [21]
2123  8C00C283           [19] settable   2   263 264  ; "isProjVisible" nil
2127  1A800180           [20] jmp        7            ; to [28]
212B  8C40C283           [21] settable   2   263 265  ; "isProjVisible" 1
212F  D8000000           [22] test       3       0    ; to [24] if true
2133  1AC00080           [23] jmp        4            ; to [28]
2137  A481C200           [24] self       6   1   266  ; 2109594123
213B  17020000           [25] loadbool   8   0   0    ; false
213F  57028000           [26] loadbool   9   1   0    ; true
2143  A2410002           [27] call       6   4   1  
2147  8C400183           [28] settable   2   262 5    ; "isCloaked"
214B  8EC14201           [29] gettable   6   2   267  ; "minScale"
214F  98010000           [30] test       6       0    ; to [32] if true
2153  1A000280           [31] jmp        9            ; to [41]
2157  8EC14101           [32] gettable   6   2   263  ; "isProjVisible"
215B  98010000           [33] test       6       0    ; to [35] if true
215F  1A400180           [34] jmp        6            ; to [41]
2163  93010000           [35] getupval   6   0      
2167  D7010000           [36] loadbool   7   0   0    ; false
216B  12028000           [37] move       8   1      
216F  A2418001           [38] call       6   3   1  
2173  8C00C383           [39] settable   2   263 268  ; "isProjVisible" 0
2177  1A800280           [40] jmp        11           ; to [52]
217B  8EC14201           [41] gettable   6   2   267  ; "minScale"
217F  98410000           [42] test       6       1    ; to [44] if false
2183  1AC00180           [43] jmp        8            ; to [52]
2187  8EC14101           [44] gettable   6   2   263  ; "isProjVisible"
218B  98410000           [45] test       6       1    ; to [47] if false
218F  1A000180           [46] jmp        5            ; to [52]
2193  93010000           [47] getupval   6   0      
2197  D7018000           [48] loadbool   7   1   0    ; true
219B  12028000           [49] move       8   1      
219F  A2418001           [50] call       6   3   1  
21A3  8C40C283           [51] settable   2   263 265  ; "isProjVisible" 1
21A7  18010000           [52] test       4       0    ; to [54] if true
21AB  1A800880           [53] jmp        35           ; to [89]
21AF  8E814001           [54] gettable   6   2   258  ; "hasCaughtBall"
21B3  98010000           [55] test       6       0    ; to [57] if true
21B7  1A000580           [56] jmp        21           ; to [78]
21BB  8E814101           [57] gettable   6   2   262  ; "isCloaked"
21BF  98010000           [58] test       6       0    ; to [60] if true
21C3  1A000380           [59] jmp        13           ; to [73]
21C7  8EC14101           [60] gettable   6   2   263  ; "isProjVisible"
21CB  98010000           [61] test       6       0    ; to [63] if true
21CF  1A000180           [62] jmp        5            ; to [68]
21D3  93010000           [63] getupval   6   0      
21D7  D7018000           [64] loadbool   7   1   0    ; true
21DB  12028000           [65] move       8   1      
21DF  A2418001           [66] call       6   3   1  
21E3  1A000580           [67] jmp        21           ; to [89]
21E7  93010000           [68] getupval   6   0      
21EB  D7010000           [69] loadbool   7   0   0    ; false
21EF  12028000           [70] move       8   1      
21F3  A2418001           [71] call       6   3   1  
21F7  1AC00380           [72] jmp        16           ; to [89]
21FB  A481C200           [73] self       6   1   266  ; 2109594123
21FF  17028000           [74] loadbool   8   1   0    ; true
2203  57028000           [75] loadbool   9   1   0    ; true
2207  A2410002           [76] call       6   4   1  
220B  1A800280           [77] jmp        11           ; to [89]
220F  A481C200           [78] self       6   1   266  ; 2109594123
2213  17020000           [79] loadbool   8   0   0    ; false
2217  57028000           [80] loadbool   9   1   0    ; true
221B  A2410002           [81] call       6   4   1  
221F  8E814101           [82] gettable   6   2   262  ; "isCloaked"
2223  98010000           [83] test       6       0    ; to [85] if true
2227  1AC00080           [84] jmp        4            ; to [89]
222B  93010000           [85] getupval   6   0      
222F  D7010000           [86] loadbool   7   0   0    ; false
2233  12028000           [87] move       8   1      
2237  A2418001           [88] call       6   3   1  
223B  1E008000           [89] return     0   1      
                         * constants:
223F  0D                 sizek (13)
2240  04                 const type 4
2241  0E                 string size (14)
2242  7374617465426568+  "stateBeh"
224A  6176696F7200       "avior\0"
                         const [0]: "stateBehavior"
2250  01                 const type 3
2251  49D97701           const [1]: (24631625)
2255  04                 const type 4
2256  0E                 string size (14)
2257  6861734361756768+  "hasCaugh"
225F  7442616C6C00       "tBall\0"
                         const [2]: "hasCaughtBall"
2265  01                 const type 3
2266  650634F3           const [3]: (-214694299)
226A  04                 const type 4
226B  07                 string size (7)
226C  456E67696E6500     "Engine\0"
                         const [4]: "Engine"
2273  04                 const type 4
2274  09                 string size (9)
2275  504D5F434C4F414B+  "PM_CLOAK"
227D  00                 "\0"
                         const [5]: "PM_CLOAK"
227E  04                 const type 4
227F  0A                 string size (10)
2280  6973436C6F616B65+  "isCloake"
2288  6400               "d\0"
                         const [6]: "isCloaked"
228A  04                 const type 4
228B  0E                 string size (14)
228C  697350726F6A5669+  "isProjVi"
2294  7369626C6500       "sible\0"
                         const [7]: "isProjVisible"
229A  00                 const type 0
                         const [8]: nil
229B  01                 const type 3
229C  01000000           const [9]: (1)
22A0  01                 const type 3
22A1  0BDABD7D           const [10]: (2109594123)
22A5  04                 const type 4
22A6  09                 string size (9)
22A7  6D696E5363616C65+  "minScale"
22AF  00                 "\0"
                         const [11]: "minScale"
22B0  01                 const type 3
22B1  00000000           const [12]: (0)
                         * functions:
22B5  00                 sizep (0)
                         * lines:
22B6  59                 sizelineinfo (89)
                         [pc] (line)
22B7  5C                 [01] (92)
22B8  01                 [02] (92)
22B9  00                 [03] (92)
22BA  00                 [04] (93)
22BB  5C                 [05] (93)
22BC  01                 [06] (93)
22BD  00                 [07] (93)
22BE  00                 [08] (93)
22BF  5C                 [09] (94)
22C0  01                 [10] (96)
22C1  00                 [11] (96)
22C2  00                 [12] (96)
22C3  5D                 [13] (96)
22C4  01                 [14] (97)
22C5  00                 [15] (97)
22C6  00                 [16] (97)
22C7  5D                 [17] (99)
22C8  01                 [18] (99)
22C9  00                 [19] (100)
22CA  00                 [20] (100)
22CB  5D                 [21] (102)
22CC  01                 [22] (103)
22CD  00                 [23] (103)
22CE  00                 [24] (104)
22CF  5D                 [25] (104)
22D0  01                 [26] (104)
22D1  00                 [27] (104)
22D2  00                 [28] (107)
22D3  5D                 [29] (110)
22D4  01                 [30] (110)
22D5  00                 [31] (110)
22D6  00                 [32] (110)
22D7  5E                 [33] (110)
22D8  01                 [34] (110)
22D9  00                 [35] (111)
22DA  00                 [36] (111)
22DB  60                 [37] (111)
22DC  01                 [38] (111)
22DD  00                 [39] (112)
22DE  00                 [40] (112)
22DF  60                 [41] (113)
22E0  01                 [42] (113)
22E1  00                 [43] (113)
22E2  00                 [44] (113)
22E3  60                 [45] (113)
22E4  01                 [46] (113)
22E5  00                 [47] (114)
22E6  00                 [48] (114)
22E7  60                 [49] (114)
22E8  01                 [50] (114)
22E9  00                 [51] (115)
22EA  00                 [52] (118)
22EB  61                 [53] (118)
22EC  01                 [54] (119)
22ED  00                 [55] (119)
22EE  00                 [56] (119)
22EF  61                 [57] (120)
22F0  01                 [58] (120)
22F1  00                 [59] (120)
22F2  00                 [60] (121)
22F3  61                 [61] (121)
22F4  01                 [62] (121)
22F5  00                 [63] (122)
22F6  00                 [64] (122)
22F7  63                 [65] (122)
22F8  01                 [66] (122)
22F9  00                 [67] (122)
22FA  00                 [68] (124)
22FB  63                 [69] (124)
22FC  01                 [70] (124)
22FD  00                 [71] (124)
22FE  00                 [72] (125)
22FF  64                 [73] (127)
2300  01                 [74] (127)
2301  00                 [75] (127)
2302  00                 [76] (127)
2303  64                 [77] (-128)
2304  01                 [78] (-126)
2305  00                 [79] (-126)
2306  00                 [80] (-126)
2307  66                 [81] (-126)
2308  01                 [82] (-125)
2309  00                 [83] (-125)
230A  00                 [84] (-125)
230B  67                 [85] (-124)
230C  01                 [86] (-124)
230D  00                 [87] (-124)
230E  00                 [88] (-124)
230F  67                 [89] (-119)
                         * locals:
241B  00                 sizelocvars (0)
                         * upvalues:
241C  00                 sizeupvalues (0)
                         ** end of function **

                         
241D                     ** function [10] definition (level 2)
                         ** start of function **
241D  00                 string size (0)
                         source name: (none)
241F  03                 line defined (395)
2420  A5                 last line defined (421)
2421  03                 nups (2)
2422  02                 numparams (4)
2423  04                 is_vararg (0)
2424  00                 maxstacksize (11)
                         * code:
2426  52                 sizecode (82)
2427  24014001           [01] self       4   2   256  ; -323635054
242B  22810001           [02] call       4   2   2  
242F  5D410000           [03] getglobal  5   1        ; smallScale
fail op	33
2433  21400102           [04] tforloop   0       5    ; to [6] if exit
2437  1A400380           [05] jmp        14           ; to [20]
243B  24814001           [06] self       4   2   258  ; -1944400657
243F  22810001           [07] call       4   2   2  
2443  18010000           [08] test       4       0    ; to [10] if true
2447  1AC00080           [09] jmp        4            ; to [14]
244B  24C14001           [10] self       4   2   259  ; 2109594123
244F  97010000           [11] loadbool   6   0   0    ; false
2453  D7018000           [12] loadbool   7   1   0    ; true
2457  22410002           [13] call       4   4   1  
245B  13010000           [14] getupval   4   0      
245F  52018000           [15] move       5   1      
2463  92010001           [16] move       6   2      
2467  D2018001           [17] move       7   3      
246B  22410002           [18] call       4   4   1  
246F  1E008000           [19] return     0   1      
2473  1D010100           [20] getglobal  4   4        ; _T
2477  0E414102           [21] gettable   4   4   261  ; "meshScale"
247B  0E814102           [22] gettable   4   4   262  ; "id"
247F  0EC14102           [23] gettable   4   4   263  ; "index"
fail op	35
2483  23004202           [24] close      0  
2487  1AC00080           [25] jmp        4            ; to [30]
248B  1D010100           [26] getglobal  4   4        ; _T
248F  0E414102           [27] gettable   4   4   261  ; "meshScale"
2493  0E814102           [28] gettable   4   4   262  ; "id"
2497  0C41C283           [29] settable   4   263 265  ; "index" 0
249B  1D010100           [30] getglobal  4   4        ; _T
249F  0E414102           [31] gettable   4   4   261  ; "meshScale"
24A3  0E814102           [32] gettable   4   4   262  ; "id"
24A7  0EC14102           [33] gettable   4   4   263  ; "index"
24AB  5D810200           [34] getglobal  5   10       ; 1074689893
24AF  92010000           [35] move       6   0      
24B3  62810001           [36] call       5   2   2  
24B7  58410000           [37] test       5       1    ; to [39] if false
24BB  1A800A80           [38] jmp        43           ; to [82]
24BF  5D810200           [39] getglobal  5   10       ; 1074689893
24C3  92018000           [40] move       6   1      
24C7  62810001           [41] call       5   2   2  
24CB  58410000           [42] test       5       1    ; to [44] if false
24CF  1A400980           [43] jmp        38           ; to [82]
24D3  5DC10200           [44] getglobal  5   11       ; 1668611480
24D7  9D010300           [45] getglobal  6   12       ; 1289681407
24DB  A2818000           [46] call       6   1   2  
24DF  DD410300           [47] getglobal  7   13       ; scaleDuration
24E3  9CC10103           [48] div        6   6   7  
24E7  8D810102           [49] sub        6   4   6  
24EB  D9810300           [50] loadk      7   14       ; 0
24EF  19420200           [51] loadk      8   9        ; 0
24F3  62810002           [52] call       5   4   2  
24F7  12018002           [53] move       4   5      
24FB  64C14301           [54] self       5   2   271  ; 1786666898
24FF  DD010400           [55] getglobal  7   16       ; -1828500651
2503  1D420000           [56] getglobal  8   1        ; smallScale
2507  53028000           [57] getupval   9   1      
250B  92020002           [58] move       10  4      
250F  E2010002           [59] call       7   4   0  
2513  62410000           [60] call       5   0   1  
2517  5D010100           [61] getglobal  5   4        ; _T
251B  4E41C102           [62] gettable   5   5   261  ; "meshScale"
251F  4E81C102           [63] gettable   5   5   262  ; "id"
2523  4C018183           [64] settable   5   263 4    ; "index"
fail op	33
2527  21804302           [65] tforloop   0       270  ; to [67] if exit
252B  1A400180           [66] jmp        6            ; to [73]
252F  64C14001           [67] self       5   2   259  ; 2109594123
2533  D7010000           [68] loadbool   7   0   0    ; false
2537  17028000           [69] loadbool   8   1   0    ; true
253B  62410002           [70] call       5   4   1  
253F  CC80C488           [71] settable   3   273 274  ; "minScale" 1
2543  1A000280           [72] jmp        9            ; to [82]
2547  53010000           [73] getupval   5   0      
254B  92018000           [74] move       6   1      
254F  D2010001           [75] move       7   2      
2553  12028001           [76] move       8   3      
2557  62410002           [77] call       5   4   1  
255B  5DC10400           [78] getglobal  5   19       ; 538022378
255F  99810300           [79] loadk      6   14       ; 0
2563  62410001           [80] call       5   2   1  
2567  1AC0F37F           [81] jmp        -48          ; to [34]
256B  1E008000           [82] return     0   1      
                         * constants:
256F  14                 sizek (20)
2570  01                 const type 3
2571  92B8B5EC           const [0]: (-323635054)
2575  04                 const type 4
2576  0B                 string size (11)
2577  736D616C6C536361+  "smallSca"
257F  6C6500             "le\0"
                         const [1]: "smallScale"
2582  01                 const type 3
2583  EFCC1A8C           const [2]: (-1944400657)
2587  01                 const type 3
2588  0BDABD7D           const [3]: (2109594123)
258C  04                 const type 4
258D  03                 string size (3)
258E  5F5400             "_T\0"
                         const [4]: "_T"
2591  04                 const type 4
2592  0A                 string size (10)
2593  6D6573685363616C+  "meshScal"
259B  6500               "e\0"
                         const [5]: "meshScale"
259D  04                 const type 4
259E  03                 string size (3)
259F  696400             "id\0"
                         const [6]: "id"
25A2  04                 const type 4
25A3  06                 string size (6)
25A4  696E64657800       "index\0"
                         const [7]: "index"
25AA  00                 const type 0
                         const [8]: nil
25AB  03                 const type 3
25AC  0000803F           const [9]: (0)
25B0  01                 const type 3
25B1  65770E40           const [10]: (1074689893)
25B5  01                 const type 3
25B6  98FD7463           const [11]: (1668611480)
25BA  01                 const type 3
25BB  FFF9DE4C           const [12]: (1289681407)
25BF  04                 const type 4
25C0  0E                 string size (14)
25C1  7363616C65447572+  "scaleDur"
25C9  6174696F6E00       "ation\0"
                         const [13]: "scaleDuration"
25CF  03                 const type 3
25D0  00000000           const [14]: (0)
25D4  01                 const type 3
25D5  925F7E6A           const [15]: (1786666898)
25D9  01                 const type 3
25DA  554B0393           const [16]: (-1828500651)
25DE  04                 const type 4
25DF  09                 string size (9)
25E0  6D696E5363616C65+  "minScale"
25E8  00                 "\0"
                         const [17]: "minScale"
25E9  01                 const type 3
25EA  01000000           const [18]: (1)
25EE  01                 const type 3
25EF  EA911120           const [19]: (538022378)
                         * functions:
25F3  00                 sizep (0)
                         * lines:
25F4  52                 sizelineinfo (82)
                         [pc] (line)
25F5  8C                 [01] (-116)
25F6  01                 [02] (-116)
25F7  00                 [03] (-116)
25F8  00                 [04] (-116)
25F9  8C                 [05] (-116)
25FA  01                 [06] (-115)
25FB  00                 [07] (-115)
25FC  00                 [08] (-115)
25FD  8C                 [09] (-115)
25FE  01                 [10] (-114)
25FF  00                 [11] (-114)
2600  00                 [12] (-114)
2601  8C                 [13] (-114)
2602  01                 [14] (-112)
2603  00                 [15] (-112)
2604  00                 [16] (-112)
2605  8C                 [17] (-112)
2606  01                 [18] (-112)
2607  00                 [19] (-111)
2608  00                 [20] (-109)
2609  8D                 [21] (-109)
260A  01                 [22] (-109)
260B  00                 [23] (-109)
260C  00                 [24] (-109)
260D  8D                 [25] (-109)
260E  01                 [26] (-108)
260F  00                 [27] (-108)
2610  00                 [28] (-108)
2611  8D                 [29] (-108)
2612  01                 [30] (-106)
2613  00                 [31] (-106)
2614  00                 [32] (-106)
2615  8D                 [33] (-106)
2616  01                 [34] (-104)
2617  00                 [35] (-104)
2618  00                 [36] (-104)
2619  8E                 [37] (-104)
261A  01                 [38] (-104)
261B  00                 [39] (-104)
261C  00                 [40] (-104)
261D  8E                 [41] (-104)
261E  01                 [42] (-104)
261F  00                 [43] (-104)
2620  00                 [44] (-103)
2621  8E                 [45] (-103)
2622  01                 [46] (-103)
2623  00                 [47] (-103)
2624  00                 [48] (-103)
2625  8E                 [49] (-103)
2626  01                 [50] (-103)
2627  00                 [51] (-103)
2628  00                 [52] (-103)
2629  90                 [53] (-103)
262A  01                 [54] (-102)
262B  00                 [55] (-102)
262C  00                 [56] (-102)
262D  90                 [57] (-102)
262E  01                 [58] (-102)
262F  00                 [59] (-102)
2630  00                 [60] (-102)
2631  90                 [61] (-101)
2632  01                 [62] (-101)
2633  00                 [63] (-101)
2634  00                 [64] (-101)
2635  90                 [65] (-99)
2636  01                 [66] (-99)
2637  00                 [67] (-98)
2638  00                 [68] (-98)
2639  90                 [69] (-98)
263A  01                 [70] (-98)
263B  00                 [71] (-97)
263C  00                 [72] (-96)
263D  91                 [73] (-94)
263E  01                 [74] (-94)
263F  00                 [75] (-94)
2640  00                 [76] (-94)
2641  93                 [77] (-94)
2642  01                 [78] (-93)
2643  00                 [79] (-93)
2644  00                 [80] (-93)
2645  93                 [81] (-93)
2646  01                 [82] (-91)
                         * locals:
273D  00                 sizelocvars (0)
                         * upvalues:
273E  00                 sizeupvalues (0)
                         ** end of function **

                         
273F                     ** function [11] definition (level 2)
                         ** start of function **
273F  00                 string size (0)
                         source name: (none)
2741  03                 line defined (423)
2742  BF                 last line defined (447)
2743  03                 nups (2)
2744  02                 numparams (4)
2745  04                 is_vararg (0)
2746  00                 maxstacksize (11)
                         * code:
2748  4D                 sizecode (77)
2749  24014001           [01] self       4   2   256  ; -323635054
274D  22810001           [02] call       4   2   2  
2751  53010000           [03] getupval   5   0      
fail op	33
2755  21008102           [04] tforloop   0       4    ; to [6] if exit
2759  1A400180           [05] jmp        6            ; to [12]
275D  13018000           [06] getupval   4   1      
2761  52018000           [07] move       5   1      
2765  92010001           [08] move       6   2      
2769  D2018001           [09] move       7   3      
276D  22410002           [10] call       4   4   1  
2771  1E008000           [11] return     0   1      
2775  1D410000           [12] getglobal  4   1        ; _T
2779  0E814002           [13] gettable   4   4   258  ; "meshScale"
277D  0EC14002           [14] gettable   4   4   259  ; "id"
2781  0E014102           [15] gettable   4   4   260  ; "index"
fail op	35
2785  23404102           [16] close      0  
2789  1AC00080           [17] jmp        4            ; to [22]
278D  1D410000           [18] getglobal  4   1        ; _T
2791  0E814002           [19] gettable   4   4   258  ; "meshScale"
2795  0EC14002           [20] gettable   4   4   259  ; "id"
2799  0C814182           [21] settable   4   260 262  ; "index" 0
279D  1D410000           [22] getglobal  4   1        ; _T
27A1  0E814002           [23] gettable   4   4   258  ; "meshScale"
27A5  0EC14002           [24] gettable   4   4   259  ; "id"
27A9  0E014102           [25] gettable   4   4   260  ; "index"
27AD  4EC1C101           [26] gettable   5   3   263  ; "isCloaked"
27B1  58410000           [27] test       5       1    ; to [29] if false
27B5  1AC00080           [28] jmp        4            ; to [33]
27B9  64014201           [29] self       5   2   264  ; 2109594123
27BD  D7018000           [30] loadbool   7   1   0    ; true
27C1  17028000           [31] loadbool   8   1   0    ; true
27C5  62410002           [32] call       5   4   1  
27C9  CC80C284           [33] settable   3   265 266  ; "minScale" 0
27CD  5DC10200           [34] getglobal  5   11       ; 1074689893
27D1  92010000           [35] move       6   0      
27D5  62810001           [36] call       5   2   2  
27D9  58410000           [37] test       5       1    ; to [39] if false
27DD  1A400980           [38] jmp        38           ; to [77]
27E1  5DC10200           [39] getglobal  5   11       ; 1074689893
27E5  92018000           [40] move       6   1      
27E9  62810001           [41] call       5   2   2  
27ED  58410000           [42] test       5       1    ; to [44] if false
27F1  1A000880           [43] jmp        33           ; to [77]
27F5  5D010300           [44] getglobal  5   12       ; 1668611480
27F9  9D410300           [45] getglobal  6   13       ; 1289681407
27FD  A2818000           [46] call       6   1   2  
2801  DD810300           [47] getglobal  7   14       ; scaleDuration
2805  9CC10103           [48] div        6   6   7  
2809  83810102           [49] add        6   4   6  
280D  D9810100           [50] loadk      7   6        ; 0
2811  19C20300           [51] loadk      8   15       ; 0
2815  62810002           [52] call       5   4   2  
2819  12018002           [53] move       4   5      
281D  64014401           [54] self       5   2   272  ; 1786666898
2821  DD410400           [55] getglobal  7   17       ; -1828500651
2825  1D820400           [56] getglobal  8   18       ; smallScale
2829  53020000           [57] getupval   9   0      
282D  92020002           [58] move       10  4      
2831  E2010002           [59] call       7   4   0  
2835  62410000           [60] call       5   0   1  
2839  5D410000           [61] getglobal  5   1        ; _T
283D  4E81C002           [62] gettable   5   5   258  ; "meshScale"
2841  4EC1C002           [63] gettable   5   5   259  ; "id"
2845  4C010182           [64] settable   5   260 4    ; "index"
fail op	33
2849  21008187           [65] tforloop   0       4    ; to [67] if exit
284D  1A000080           [66] jmp        1            ; to [68]
2851  1A000280           [67] jmp        9            ; to [77]
2855  53018000           [68] getupval   5   1      
2859  92018000           [69] move       6   1      
285D  D2010001           [70] move       7   2      
2861  12028001           [71] move       8   3      
2865  62410002           [72] call       5   4   1  
2869  5DC10400           [73] getglobal  5   19       ; 538022378
286D  99810100           [74] loadk      6   6        ; 0
2871  62410001           [75] call       5   2   1  
2875  1A00F57F           [76] jmp        -43          ; to [34]
2879  1E008000           [77] return     0   1      
                         * constants:
287D  14                 sizek (20)
287E  01                 const type 3
287F  92B8B5EC           const [0]: (-323635054)
2883  04                 const type 4
2884  03                 string size (3)
2885  5F5400             "_T\0"
                         const [1]: "_T"
2888  04                 const type 4
2889  0A                 string size (10)
288A  6D6573685363616C+  "meshScal"
2892  6500               "e\0"
                         const [2]: "meshScale"
2894  04                 const type 4
2895  03                 string size (3)
2896  696400             "id\0"
                         const [3]: "id"
2899  04                 const type 4
289A  06                 string size (6)
289B  696E64657800       "index\0"
                         const [4]: "index"
28A1  00                 const type 0
                         const [5]: nil
28A2  03                 const type 3
28A3  00000000           const [6]: (0)
28A7  04                 const type 4
28A8  0A                 string size (10)
28A9  6973436C6F616B65+  "isCloake"
28B1  6400               "d\0"
                         const [7]: "isCloaked"
28B3  01                 const type 3
28B4  0BDABD7D           const [8]: (2109594123)
28B8  04                 const type 4
28B9  09                 string size (9)
28BA  6D696E5363616C65+  "minScale"
28C2  00                 "\0"
                         const [9]: "minScale"
28C3  01                 const type 3
28C4  00000000           const [10]: (0)
28C8  01                 const type 3
28C9  65770E40           const [11]: (1074689893)
28CD  01                 const type 3
28CE  98FD7463           const [12]: (1668611480)
28D2  01                 const type 3
28D3  FFF9DE4C           const [13]: (1289681407)
28D7  04                 const type 4
28D8  0E                 string size (14)
28D9  7363616C65447572+  "scaleDur"
28E1  6174696F6E00       "ation\0"
                         const [14]: "scaleDuration"
28E7  03                 const type 3
28E8  0000803F           const [15]: (0)
28EC  01                 const type 3
28ED  925F7E6A           const [16]: (1786666898)
28F1  01                 const type 3
28F2  554B0393           const [17]: (-1828500651)
28F6  04                 const type 4
28F7  0B                 string size (11)
28F8  736D616C6C536361+  "smallSca"
2900  6C6500             "le\0"
                         const [18]: "smallScale"
2903  01                 const type 3
2904  EA911120           const [19]: (538022378)
                         * functions:
2908  00                 sizep (0)
                         * lines:
2909  4D                 sizelineinfo (77)
                         [pc] (line)
290A  A8                 [01] (-88)
290B  01                 [02] (-88)
290C  00                 [03] (-88)
290D  00                 [04] (-88)
290E  A8                 [05] (-88)
290F  01                 [06] (-87)
2910  00                 [07] (-87)
2911  00                 [08] (-87)
2912  A8                 [09] (-87)
2913  01                 [10] (-87)
2914  00                 [11] (-86)
2915  00                 [12] (-84)
2916  A8                 [13] (-84)
2917  01                 [14] (-84)
2918  00                 [15] (-84)
2919  00                 [16] (-84)
291A  A8                 [17] (-84)
291B  01                 [18] (-83)
291C  00                 [19] (-83)
291D  00                 [20] (-83)
291E  A9                 [21] (-83)
291F  01                 [22] (-81)
2920  00                 [23] (-81)
2921  00                 [24] (-81)
2922  A9                 [25] (-81)
2923  01                 [26] (-79)
2924  00                 [27] (-79)
2925  00                 [28] (-79)
2926  A9                 [29] (-78)
2927  01                 [30] (-78)
2928  00                 [31] (-78)
2929  00                 [32] (-78)
292A  A9                 [33] (-76)
292B  01                 [34] (-75)
292C  00                 [35] (-75)
292D  00                 [36] (-75)
292E  A9                 [37] (-75)
292F  01                 [38] (-75)
2930  00                 [39] (-75)
2931  00                 [40] (-75)
2932  AA                 [41] (-75)
2933  01                 [42] (-75)
2934  00                 [43] (-75)
2935  00                 [44] (-74)
2936  AC                 [45] (-74)
2937  01                 [46] (-74)
2938  00                 [47] (-74)
2939  00                 [48] (-74)
293A  AC                 [49] (-74)
293B  01                 [50] (-74)
293C  00                 [51] (-74)
293D  00                 [52] (-74)
293E  AC                 [53] (-74)
293F  01                 [54] (-73)
2940  00                 [55] (-73)
2941  00                 [56] (-73)
2942  AC                 [57] (-73)
2943  01                 [58] (-73)
2944  00                 [59] (-73)
2945  00                 [60] (-73)
2946  AC                 [61] (-72)
2947  01                 [62] (-72)
2948  00                 [63] (-72)
2949  00                 [64] (-72)
294A  AC                 [65] (-71)
294B  01                 [66] (-71)
294C  00                 [67] (-70)
294D  00                 [68] (-68)
294E  AD                 [69] (-68)
294F  01                 [70] (-68)
2950  00                 [71] (-68)
2951  00                 [72] (-68)
2952  AD                 [73] (-67)
2953  01                 [74] (-67)
2954  00                 [75] (-67)
2955  00                 [76] (-67)
2956  AD                 [77] (-65)
                         * locals:
2A3E  00                 sizelocvars (0)
                         * upvalues:
2A3F  00                 sizeupvalues (0)
                         ** end of function **

                         
2A40                     ** function [12] definition (level 2)
                         ** start of function **
2A40  00                 string size (0)
                         source name: (none)
2A42  03                 line defined (449)
2A43  F9                 last line defined (505)
2A44  03                 nups (5)
2A45  05                 numparams (1)
2A46  01                 is_vararg (0)
2A47  00                 maxstacksize (14)
                         * code:
2A4A  01                 sizecode (160)
2A4B  19010000           [001] loadk      4   0        ; 0
fail op	21
2A4F  15008180           [002] concat     0   257 4  
2A53  1A000480           [003] jmp        17           ; to [21]
2A57  5D810000           [004] getglobal  5   2        ; 538022378
2A5B  99410000           [005] loadk      6   1        ; 0
2A5F  62410001           [006] call       5   2   1  
2A63  64C14000           [007] self       5   0   259  ; -1870903749
2A67  62810001           [008] call       5   2   2  
2A6B  D2008002           [009] move       3   5      
2A6F  5D010100           [010] getglobal  5   4        ; 1074689893
2A73  92018001           [011] move       6   3      
2A77  62810001           [012] call       5   2   2  
2A7B  58410000           [013] test       5       1    ; to [15] if false
2A7F  1AC00080           [014] jmp        4            ; to [19]
2A83  6441C101           [015] self       5   3   261  ; 421792552
2A87  62810001           [016] call       5   2   2  
2A8B  52008002           [017] move       1   5      
2A8F  1A400080           [018] jmp        2            ; to [21]
2A93  0D814102           [019] sub        4   4   262  ; 0
2A97  1A00FB7F           [020] jmp        -19          ; to [2]
2A9B  5D010100           [021] getglobal  5   4        ; 1074689893
2A9F  92018000           [022] move       6   1      
2AA3  62810001           [023] call       5   2   2  
2AA7  58010000           [024] test       5       0    ; to [26] if true
2AAB  1A000080           [025] jmp        1            ; to [27]
2AAF  1E008000           [026] return     0   1      
2AB3  64C1C100           [027] self       5   1   263  ; -1538682285
2AB7  62810001           [028] call       5   2   2  
2ABB  92008002           [029] move       2   5      
2ABF  5D010100           [030] getglobal  5   4        ; 1074689893
2AC3  92010001           [031] move       6   2      
2AC7  62810001           [032] call       5   2   2  
2ACB  58010000           [033] test       5       0    ; to [35] if true
2ACF  1A000080           [034] jmp        1            ; to [36]
2AD3  1E008000           [035] return     0   1      
2AD7  5D010200           [036] getglobal  5   8        ; _T
2ADB  4E41C202           [037] gettable   5   5   265  ; "meshScale"
fail op	35
2ADF  2380C202           [038] close      0  
2AE3  1A800080           [039] jmp        3            ; to [43]
2AE7  5D010200           [040] getglobal  5   8        ; _T
2AEB  8B010000           [041] newtable   6   0   0    ; array=0, hash=0
2AEF  4C818184           [042] settable   5   265 6    ; "meshScale"
2AF3  5D010200           [043] getglobal  5   8        ; _T
2AF7  4E41C202           [044] gettable   5   5   265  ; "meshScale"
2AFB  4EC1C202           [045] gettable   5   5   267  ; "id"
fail op	35
2AFF  2380C202           [046] close      0  
2B03  1AC00080           [047] jmp        4            ; to [52]
2B07  5D010200           [048] getglobal  5   8        ; _T
2B0B  4E41C202           [049] gettable   5   5   265  ; "meshScale"
2B0F  8B010000           [050] newtable   6   0   0    ; array=0, hash=0
2B13  4C818185           [051] settable   5   267 6    ; "id"
2B17  64014300           [052] self       5   0   268  ; -323635054
2B1B  62810001           [053] call       5   2   2  
fail op	8
2B1F  48010000           [054] setupval   5   0      
2B23  5D410300           [055] getglobal  5   13       ; smallScale
2B27  93010000           [056] getupval   6   0      
2B2B  44818102           [057] mul        5   5   6  
2B2F  60410300           [058] setglobal  5   13       ; smallScale
2B33  4B010100           [059] newtable   5   0   4    ; array=0, hash=4
2B37  4CC14387           [060] settable   5   270 271  ; "isCloaked" 0
2B3B  4C814288           [061] settable   5   272 266  ; "isProjVisible" nil
2B3F  4CC1C388           [062] settable   5   273 271  ; "minScale" 0
2B43  4CC14489           [063] settable   5   274 275  ; "hasCaughtBall" 1
2B47  A401C500           [064] self       6   1   276  ; 1474710840
2B4B  19820100           [065] loadk      8   6        ; 0
2B4F  A2818001           [066] call       6   3   2  
2B53  4C81818A           [067] settable   5   277 6    ; "stateBehavior"
2B57  D3018000           [068] getupval   7   1      
2B5B  12020000           [069] move       8   0      
2B5F  E2410001           [070] call       7   2   1  
2B63  D9410000           [071] loadk      7   1        ; 0
2B67  1D020100           [072] getglobal  8   4        ; 1074689893
2B6B  52028000           [073] move       9   1      
2B6F  22820001           [074] call       8   2   2  
2B73  18420000           [075] test       8       1    ; to [77] if false
2B77  1A801480           [076] jmp        83           ; to [160]
2B7B  1D020100           [077] getglobal  8   4        ; 1074689893
2B7F  52020001           [078] move       9   2      
2B83  22820001           [079] call       8   2   2  
2B87  18420000           [080] test       8       1    ; to [82] if false
2B8B  1A401380           [081] jmp        78           ; to [160]
2B8F  2482C500           [082] self       8   1   278  ; -803264084
2B93  22820001           [083] call       8   2   2  
2B97  D2010004           [084] move       7   8      
2B9B  24C24501           [085] self       8   2   279  ; -1917464545
2B9F  22820001           [086] call       8   2   2  
2BA3  24024604           [087] self       8   8   280  ; 1856017039
2BA7  9D420600           [088] getglobal  10  25       ; Engine
2BAB  8E824605           [089] gettable   10  10  282  ; "MAIN_HAND"
2BAF  22828001           [090] call       8   3   2  
2BB3  5D020200           [091] getglobal  9   8        ; _T
2BB7  4EC2C604           [092] gettable   9   9   283  ; "ArsenalOpen"
fail op	35
2BBB  23C0C404           [093] close      0  
2BBF  1AC00680           [094] jmp        28           ; to [123]
2BC3  5D420600           [095] getglobal  9   25       ; Engine
2BC7  4E02C704           [096] gettable   9   9   284  ; "WS_DORMANT"
fail op	35
2BCB  63408203           [097] close      1  
2BCF  1A400080           [098] jmp        2            ; to [101]
fail op	35
2BD3  63400004           [099] close      1  
2BD7  1A000180           [100] jmp        5            ; to [106]
2BDB  64424700           [101] self       9   0   285  ; 2109594123
2BDF  D7020000           [102] loadbool   11  0   0    ; false
2BE3  17038000           [103] loadbool   12  1   0    ; true
2BE7  62420002           [104] call       9   4   1  
2BEB  1A400C80           [105] jmp        50           ; to [156]
2BEF  64824701           [106] self       9   2   286  ; -214694299
2BF3  DD420600           [107] getglobal  11  25       ; Engine
2BF7  CEC2C705           [108] gettable   11  11  287  ; "PM_PARRY"
2BFB  62828001           [109] call       9   3   2  
2BFF  58020000           [110] test       9       0    ; to [112] if true
2C03  1AC00A80           [111] jmp        44           ; to [156]
2C07  64024803           [112] self       9   6   288  ; 24631625
2C0B  62820001           [113] call       9   2   2  
2C0F  58020000           [114] test       9       0    ; to [116] if true
2C13  1AC00980           [115] jmp        40           ; to [156]
fail op	35
2C17  23400004           [116] close      0  
2C1B  1A400980           [117] jmp        38           ; to [156]
2C1F  64424700           [118] self       9   0   285  ; 2109594123
2C23  D7028000           [119] loadbool   11  1   0    ; true
2C27  17038000           [120] loadbool   12  1   0    ; true
2C2B  62420002           [121] call       9   4   1  
2C2F  1A000880           [122] jmp        33           ; to [156]
2C33  5D420600           [123] getglobal  9   25       ; Engine
2C37  4E02C704           [124] gettable   9   9   284  ; "WS_DORMANT"
fail op	35
2C3B  63408203           [125] close      1  
2C3F  1A400080           [126] jmp        2            ; to [129]
fail op	35
2C43  63400004           [127] close      1  
2C47  1A800180           [128] jmp        7            ; to [136]
2C4B  53020001           [129] getupval   9   2      
2C4F  92028000           [130] move       10  1      
2C53  D2020001           [131] move       11  2      
2C57  12030000           [132] move       12  0      
2C5B  52038002           [133] move       13  5      
2C5F  62428002           [134] call       9   5   1  
2C63  1AC00480           [135] jmp        20           ; to [156]
2C67  5D420600           [136] getglobal  9   25       ; Engine
2C6B  4E42C804           [137] gettable   9   9   289  ; "WS_EQUIP"
fail op	35
2C6F  23408203           [138] close      0  
2C73  1A800280           [139] jmp        11           ; to [151]
2C77  64024803           [140] self       9   6   288  ; 24631625
2C7B  62820001           [141] call       9   2   2  
2C7F  58020000           [142] test       9       0    ; to [144] if true
2C83  1A800180           [143] jmp        7            ; to [151]
2C87  53028001           [144] getupval   9   3      
2C8B  92028000           [145] move       10  1      
2C8F  D2020001           [146] move       11  2      
2C93  12030000           [147] move       12  0      
2C97  52038002           [148] move       13  5      
2C9B  62428002           [149] call       9   5   1  
2C9F  1A000180           [150] jmp        5            ; to [156]
2CA3  53020002           [151] getupval   9   4      
2CA7  92020001           [152] move       10  2      
2CAB  D2020000           [153] move       11  0      
2CAF  12038002           [154] move       12  5      
2CB3  62420002           [155] call       9   4   1  
2CB7  5D820000           [156] getglobal  9   2        ; 538022378
2CBB  99420000           [157] loadk      10  1        ; 0
2CBF  62420001           [158] call       9   2   1  
2CC3  1AC0E97F           [159] jmp        -88          ; to [72]
2CC7  1E008000           [160] return     0   1      
                         * constants:
2CCB  22                 sizek (34)
2CCC  03                 const type 3
2CCD  00002041           const [0]: (0)
2CD1  03                 const type 3
2CD2  00000000           const [1]: (0)
2CD6  01                 const type 3
2CD7  EA911120           const [2]: (538022378)
2CDB  01                 const type 3
2CDC  3B467C90           const [3]: (-1870903749)
2CE0  01                 const type 3
2CE1  65770E40           const [4]: (1074689893)
2CE5  01                 const type 3
2CE6  280B2419           const [5]: (421792552)
2CEA  03                 const type 3
2CEB  0000803F           const [6]: (0)
2CEF  01                 const type 3
2CF0  539249A4           const [7]: (-1538682285)
2CF4  04                 const type 4
2CF5  03                 string size (3)
2CF6  5F5400             "_T\0"
                         const [8]: "_T"
2CF9  04                 const type 4
2CFA  0A                 string size (10)
2CFB  6D6573685363616C+  "meshScal"
2D03  6500               "e\0"
                         const [9]: "meshScale"
2D05  00                 const type 0
                         const [10]: nil
2D06  04                 const type 4
2D07  03                 string size (3)
2D08  696400             "id\0"
                         const [11]: "id"
2D0B  01                 const type 3
2D0C  92B8B5EC           const [12]: (-323635054)
2D10  04                 const type 4
2D11  0B                 string size (11)
2D12  736D616C6C536361+  "smallSca"
2D1A  6C6500             "le\0"
                         const [13]: "smallScale"
2D1D  04                 const type 4
2D1E  0A                 string size (10)
2D1F  6973436C6F616B65+  "isCloake"
2D27  6400               "d\0"
                         const [14]: "isCloaked"
2D29  01                 const type 3
2D2A  00000000           const [15]: (0)
2D2E  04                 const type 4
2D2F  0E                 string size (14)
2D30  697350726F6A5669+  "isProjVi"
2D38  7369626C6500       "sible\0"
                         const [16]: "isProjVisible"
2D3E  04                 const type 4
2D3F  09                 string size (9)
2D40  6D696E5363616C65+  "minScale"
2D48  00                 "\0"
                         const [17]: "minScale"
2D49  04                 const type 4
2D4A  0E                 string size (14)
2D4B  6861734361756768+  "hasCaugh"
2D53  7442616C6C00       "tBall\0"
                         const [18]: "hasCaughtBall"
2D59  01                 const type 3
2D5A  01000000           const [19]: (1)
2D5E  01                 const type 3
2D5F  384DE657           const [20]: (1474710840)
2D63  04                 const type 4
2D64  0E                 string size (14)
2D65  7374617465426568+  "stateBeh"
2D6D  6176696F7200       "avior\0"
                         const [21]: "stateBehavior"
2D73  01                 const type 3
2D74  AC291FD0           const [22]: (-803264084)
2D78  01                 const type 3
2D79  1FD0B58D           const [23]: (-1917464545)
2D7D  01                 const type 3
2D7E  8F92A06E           const [24]: (1856017039)
2D82  04                 const type 4
2D83  07                 string size (7)
2D84  456E67696E6500     "Engine\0"
                         const [25]: "Engine"
2D8B  04                 const type 4
2D8C  0A                 string size (10)
2D8D  4D41494E5F48414E+  "MAIN_HAN"
2D95  4400               "D\0"
                         const [26]: "MAIN_HAND"
2D97  04                 const type 4
2D98  0C                 string size (12)
2D99  417273656E616C4F+  "ArsenalO"
2DA1  70656E00           "pen\0"
                         const [27]: "ArsenalOpen"
2DA5  04                 const type 4
2DA6  0B                 string size (11)
2DA7  57535F444F524D41+  "WS_DORMA"
2DAF  4E5400             "NT\0"
                         const [28]: "WS_DORMANT"
2DB2  01                 const type 3
2DB3  0BDABD7D           const [29]: (2109594123)
2DB7  01                 const type 3
2DB8  650634F3           const [30]: (-214694299)
2DBC  04                 const type 4
2DBD  09                 string size (9)
2DBE  504D5F5041525259+  "PM_PARRY"
2DC6  00                 "\0"
                         const [31]: "PM_PARRY"
2DC7  01                 const type 3
2DC8  49D97701           const [32]: (24631625)
2DCC  04                 const type 4
2DCD  09                 string size (9)
2DCE  57535F4551554950+  "WS_EQUIP"
2DD6  00                 "\0"
                         const [33]: "WS_EQUIP"
                         * functions:
2DD7  00                 sizep (0)
                         * lines:
2DD9  01                 sizelineinfo (160)
                         [pc] (line)
2DDA  C3                 [001] (-61)
2DDB  01                 [002] (-60)
2DDC  00                 [003] (-60)
2DDD  00                 [004] (-59)
2DDE  C4                 [005] (-59)
2DDF  01                 [006] (-59)
2DE0  00                 [007] (-58)
2DE1  00                 [008] (-58)
2DE2  C4                 [009] (-58)
2DE3  01                 [010] (-57)
2DE4  00                 [011] (-57)
2DE5  00                 [012] (-57)
2DE6  C5                 [013] (-57)
2DE7  01                 [014] (-57)
2DE8  00                 [015] (-56)
2DE9  00                 [016] (-56)
2DEA  C5                 [017] (-56)
2DEB  01                 [018] (-55)
2DEC  00                 [019] (-53)
2DED  00                 [020] (-53)
2DEE  C5                 [021] (-51)
2DEF  01                 [022] (-51)
2DF0  00                 [023] (-51)
2DF1  00                 [024] (-51)
2DF2  C6                 [025] (-51)
2DF3  01                 [026] (-50)
2DF4  00                 [027] (-48)
2DF5  00                 [028] (-48)
2DF6  C6                 [029] (-48)
2DF7  01                 [030] (-47)
2DF8  00                 [031] (-47)
2DF9  00                 [032] (-47)
2DFA  C6                 [033] (-47)
2DFB  01                 [034] (-47)
2DFC  00                 [035] (-46)
2DFD  00                 [036] (-43)
2DFE  C7                 [037] (-43)
2DFF  01                 [038] (-43)
2E00  00                 [039] (-43)
2E01  00                 [040] (-42)
2E02  C7                 [041] (-42)
2E03  01                 [042] (-42)
2E04  00                 [043] (-40)
2E05  00                 [044] (-40)
2E06  C7                 [045] (-40)
2E07  01                 [046] (-40)
2E08  00                 [047] (-40)
2E09  00                 [048] (-39)
2E0A  C7                 [049] (-39)
2E0B  01                 [050] (-39)
2E0C  00                 [051] (-39)
2E0D  00                 [052] (-35)
2E0E  C7                 [053] (-35)
2E0F  01                 [054] (-35)
2E10  00                 [055] (-34)
2E11  00                 [056] (-34)
2E12  C8                 [057] (-34)
2E13  01                 [058] (-34)
2E14  00                 [059] (-33)
2E15  00                 [060] (-33)
2E16  C8                 [061] (-33)
2E17  01                 [062] (-33)
2E18  00                 [063] (-33)
2E19  00                 [064] (-32)
2E1A  C8                 [065] (-32)
2E1B  01                 [066] (-32)
2E1C  00                 [067] (-31)
2E1D  00                 [068] (-30)
2E1E  C9                 [069] (-30)
2E1F  01                 [070] (-30)
2E20  00                 [071] (-29)
2E21  00                 [072] (-28)
2E22  CB                 [073] (-28)
2E23  01                 [074] (-28)
2E24  00                 [075] (-28)
2E25  00                 [076] (-28)
2E26  CB                 [077] (-28)
2E27  01                 [078] (-28)
2E28  00                 [079] (-28)
2E29  00                 [080] (-28)
2E2A  CD                 [081] (-28)
2E2B  01                 [082] (-27)
2E2C  00                 [083] (-27)
2E2D  00                 [084] (-27)
2E2E  CD                 [085] (-26)
2E2F  01                 [086] (-26)
2E30  00                 [087] (-26)
2E31  00                 [088] (-26)
2E32  CD                 [089] (-26)
2E33  01                 [090] (-26)
2E34  00                 [091] (-25)
2E35  00                 [092] (-25)
2E36  CD                 [093] (-25)
2E37  01                 [094] (-25)
2E38  00                 [095] (-24)
2E39  00                 [096] (-24)
2E3A  CD                 [097] (-24)
2E3B  01                 [098] (-24)
2E3C  00                 [099] (-24)
2E3D  00                 [100] (-24)
2E3E  CE                 [101] (-23)
2E3F  01                 [102] (-23)
2E40  00                 [103] (-23)
2E41  00                 [104] (-23)
2E42  D0                 [105] (-23)
2E43  01                 [106] (-22)
2E44  00                 [107] (-22)
2E45  00                 [108] (-22)
2E46  D0                 [109] (-22)
2E47  01                 [110] (-22)
2E48  00                 [111] (-22)
2E49  00                 [112] (-22)
2E4A  D0                 [113] (-22)
2E4B  01                 [114] (-22)
2E4C  00                 [115] (-22)
2E4D  00                 [116] (-22)
2E4E  D1                 [117] (-22)
2E4F  01                 [118] (-21)
2E50  00                 [119] (-21)
2E51  00                 [120] (-21)
2E52  D1                 [121] (-21)
2E53  01                 [122] (-20)
2E54  00                 [123] (-18)
2E55  00                 [124] (-18)
2E56  D1                 [125] (-18)
2E57  01                 [126] (-18)
2E58  00                 [127] (-18)
2E59  00                 [128] (-18)
2E5A  D1                 [129] (-17)
2E5B  01                 [130] (-17)
2E5C  00                 [131] (-17)
2E5D  00                 [132] (-17)
2E5E  D1                 [133] (-17)
2E5F  01                 [134] (-17)
2E60  00                 [135] (-17)
2E61  00                 [136] (-16)
2E62  D2                 [137] (-16)
2E63  01                 [138] (-16)
2E64  00                 [139] (-16)
2E65  00                 [140] (-16)
2E66  D5                 [141] (-16)
2E67  01                 [142] (-16)
2E68  00                 [143] (-16)
2E69  00                 [144] (-15)
2E6A  D5                 [145] (-15)
2E6B  01                 [146] (-15)
2E6C  00                 [147] (-15)
2E6D  00                 [148] (-15)
2E6E  D5                 [149] (-15)
2E6F  01                 [150] (-15)
2E70  00                 [151] (-13)
2E71  00                 [152] (-13)
2E72  D5                 [153] (-13)
2E73  01                 [154] (-13)
2E74  00                 [155] (-13)
2E75  00                 [156] (-10)
2E76  D6                 [157] (-10)
2E77  01                 [158] (-10)
2E78  00                 [159] (-10)
2E79  00                 [160] (-7)
                         * locals:
305A  00                 sizelocvars (0)
                         * upvalues:
305B  00                 sizeupvalues (0)
                         ** end of function **

                         * lines:
305C  3E                 sizelineinfo (62)
                         [pc] (line)
305D  20                 [01] (32)
305E  00                 [02] (34)
305F  00                 [03] (34)
3060  00                 [04] (34)
3061  22                 [05] (35)
3062  00                 [06] (35)
3063  00                 [07] (35)
3064  00                 [08] (36)
3065  22                 [09] (36)
3066  00                 [10] (36)
3067  00                 [11] (37)
3068  00                 [12] (37)
3069  22                 [13] (37)
306A  00                 [14] (38)
306B  00                 [15] (38)
306C  00                 [16] (38)
306D  23                 [17] (78)
306E  00                 [18] (78)
306F  00                 [19] (78)
3070  00                 [20] (40)
3071  23                 [21] (-36)
3072  00                 [22] (-36)
3073  00                 [23] (-36)
3074  00                 [24] (80)
3075  23                 [25] (-9)
3076  00                 [26] (-9)
3077  00                 [27] (-9)
3078  00                 [28] (-9)
3079  24                 [29] (-9)
307A  00                 [30] (-34)
307B  00                 [31] (17)
307C  00                 [32] (17)
307D  24                 [33] (-7)
307E  00                 [34] (33)
307F  00                 [35] (33)
3080  00                 [36] (19)
3081  24                 [37] (45)
3082  00                 [38] (45)
3083  00                 [39] (45)
3084  00                 [40] (35)
3085  25                 [41] (71)
3086  00                 [42] (71)
3087  00                 [43] (47)
3088  00                 [44] (79)
3089  25                 [45] (88)
308A  00                 [46] (-119)
308B  00                 [47] (-119)
308C  00                 [48] (-91)
308D  25                 [49] (-91)
308E  00                 [50] (-91)
308F  00                 [51] (-65)
3090  00                 [52] (-65)
3091  26                 [53] (-65)
3092  00                 [54] (-7)
3093  00                 [55] (-7)
3094  00                 [56] (-7)
3095  26                 [57] (-7)
3096  00                 [58] (-7)
3097  00                 [59] (-7)
3098  00                 [60] (-7)
3099  26                 [61] (-63)
309A  00                 [62] (-7)
                         * locals:
3155  00                 sizelocvars (0)
                         * upvalues:
3156  00                 sizeupvalues (0)
                         ** end of function **

3157                     ** end of chunk **
