1	C:\wlua_dump\path\Lotus\Scripts\EffectsMaterialFade.lua
Pos   Hex Data           Description or Code
------------------------------------------------------------------------
0000                     ** source chunk: C:\wlua_dump\path\Lotus\Scripts\EffectsMaterialFade.lua
                         ** global header start **
0000  7F                 header signature: ""
0001  00                 version (major:minor hex digits)
0002  00                 format (0=official)
0003  00                 endianness (1=little endian)
0004  00                 size of int (bytes)
0005  00                 size of size_t (bytes)
0006  02                 size of Instruction (bytes)
0007  03                 size of number (bytes)
0008  45                 integral (1=integral)
469
                         * number type: single
                         * x86 standard (32-bit, little endian, doubles)
                         ** global header end **
Lotus.Scripts.Effects.EffectsColorUtilities
MaterialFade
MaterialFadeMeshScale
MaterialFadePeak
MaterialFadeFlatPeak
MaterialFadeTargetted
MaterialFadePeakTargetted
DissolveFadeTargetted
DissolveFade
DissolveFadeMeshScale
SetValueTargetted
SetDissolveTargetted
DissolveFadeParent
MaterialFadeTwoParams
DissolveFadeFlatPeak
DissolveFadeFlatPeakMeshScale
DissolveFadeFlatPeakRandomMeshScale
MaterialFadeWithAttractorParent
MaterialCurveFadePeakTargetted
/Lotus/Types/Enemies/TennoReplicants/TennoReplicantAvatar
alphaMult
gLotusAvatarType
gPowerSuitType
isWeapon
/Lotus/Types/Game/LotusWeapon
applyLowHigh
isArchwing
isMeleeWeapon
scaleForExplosionMod
gLotusWeaponType
Game
WEAPON_EXPLOSION_RADIUS
Lotus_Game
PrimaryColors
EnergyColor
mEnergyColor
red
green
blue
alpha
Delay
applyToParent
applyEnergyColor
energyColorParam
getParentFirst
getCastingSpeed
gcsGetCreator
Game
AVATAR_CASTING_SPEED
showAtStart
TimeLength
OriginalValue
NewValue
Param
applyToChildren
destroyAtEnd
hideAtEnd
Delay
applyEnergyColor
energyColorParam
getParentFirst
TimeLength
OriginalValue
NewValue
Param
OriginalScale
NewScale
destroyAtEnd
Delay
applyEnergyColor
energyColorParam
getParentFirst
showAtStart
TimeLength
Peak
ValleyValue
PeakValue
Param
destroyAtEnd
hideAtEnd
Delay
applyToParent
applyEnergyColor
energyColorParam
getParentFirst
ValleyValue
checkInstigator
instigatorPower
instigatorDuration
TimeLength
PeakEnd
Game
AVATAR_ABILITY_DURATION
Peak
ValleyEndValue
PeakValue
Param
destroyAtEnd
Delay
showAtStart
TargetDeco
TimeLength
OriginalValue
NewValue
Param
applyToChildren
gDecorationType
destroyAtEnd
hideAtEnd
Delay
showAtStart
TargetDeco
TimeLength
Peak
ValleyValue
PeakValue
Param
destroyAtEnd
hideAtEnd
Delay
TimeLength
OriginalValue
NewValue
TargetDeco
checkKilled
gRagdollType
Delay
applyEnergyColor
energyColorParam
getParentFirst
TimeLength
OriginalValue
NewValue
destroyAtEnd
isRandomMeshScale
OriginalScale
NewScale
Delay
applyEnergyColor
energyColorParam
getParentFirst
TimeLength
OriginalValue
NewValue
destroyAtEnd
Delay
TargetDeco
Param
NewValue
Delay
TargetDeco
NewValue
Delay
TimeLength
OriginalValue
NewValue
destroyAtEnd
Param
OriginalValue
ParamTwo
OriginalValueTwo
applyEnergyColor
energyColorParam
getParentFirst
Delay
getCastingSpeed
gcsGetCreator
Game
AVATAR_CASTING_SPEED
TimeLength
powScale
invertPowScale
math
powerAmount
NewValue
NewValueTwo
destroyAtEnd
Delay
ValleyValue
TimeLength
Peak
PeakEnd
ValleyEndValue
PeakValue
destroyAtEnd
Delay
ValleyValue
meshScaleValley
TimeLength
Peak
PeakEnd
ValleyEndValue
PeakValue
meshScalePeak
destroyAtEnd
Delay
ValleyValue
applyEnergyColor
energyColorParam
getParentFirst
meshScaleValley
meshScalePeak
TimeLength
Peak
PeakEnd
ValleyEndValue
PeakValue
destroyAtEnd
Delay
applyEnergyColor
energyColorParam
getParentFirst
TimeLength
OriginalValue
NewValue
Param
Delay
showAtStart
TargetDeco
TimeLength
Peak
ValleyValue
PeakValue
Param
destroyAtEnd
hideAtEnd
                         
0001                     ** function [0] definition (level 1)
                         ** start of function **
0001  00                 string size (0)
                         source name: (none)
0002  00                 line defined (0)
0003  00                 last line defined (0)
0004  00                 nups (0)
0005  00                 numparams (0)
0006  02                 is_vararg (2)
0007  03                 maxstacksize (3)
                         * code:
0008  45                 sizecode (69)
0009  1D000000           [01] getglobal  0   0        ; 849075268
000D  59400000           [02] loadk      1   1        ; "Lotus.Scripts.Effects.EffectsColorUtilities"
0011  22800001           [03] call       0   2   2  
0015  65000000           [04] closure    1   0      
0019  12000000           [05] move       0   0      
001D  A5400000           [06] closure    2   1      
0021  12008000           [07] move       0   1      
0025  A0800000           [08] setglobal  2   2        ; MaterialFade
0029  A0C00000           [09] setglobal  2   3        ; -846924325
002D  A5800000           [10] closure    2   2      
0031  12008000           [11] move       0   1      
0035  A0000100           [12] setglobal  2   4        ; MaterialFadeMeshScale
0039  A0400100           [13] setglobal  2   5        ; 798729578
003D  A5C00000           [14] closure    2   3      
0041  12008000           [15] move       0   1      
0045  A0800100           [16] setglobal  2   6        ; MaterialFadePeak
0049  A0C00100           [17] setglobal  2   7        ; -2084168057
004D  A5000100           [18] closure    2   4      
0051  12008000           [19] move       0   1      
0055  A0000200           [20] setglobal  2   8        ; MaterialFadeFlatPeak
0059  A0400200           [21] setglobal  2   9        ; -1258702537
005D  A5400100           [22] closure    2   5      
0061  A0800200           [23] setglobal  2   10       ; MaterialFadeTargetted
0065  A0C00200           [24] setglobal  2   11       ; 1798459615
0069  A5800100           [25] closure    2   6      
006D  A0000300           [26] setglobal  2   12       ; MaterialFadePeakTargetted
0071  A0400300           [27] setglobal  2   13       ; -1332092409
0075  A5C00100           [28] closure    2   7      
0079  A0800300           [29] setglobal  2   14       ; DissolveFadeTargetted
007D  A0C00300           [30] setglobal  2   15       ; 254775761
0081  A5000200           [31] closure    2   8      
0085  12008000           [32] move       0   1      
0089  A0000400           [33] setglobal  2   16       ; DissolveFade
008D  A0400400           [34] setglobal  2   17       ; -156320420
0091  A5400200           [35] closure    2   9      
0095  12008000           [36] move       0   1      
0099  A0800400           [37] setglobal  2   18       ; DissolveFadeMeshScale
009D  A0C00400           [38] setglobal  2   19       ; 1708935316
00A1  A5800200           [39] closure    2   10     
00A5  A0000500           [40] setglobal  2   20       ; SetValueTargetted
00A9  A0400500           [41] setglobal  2   21       ; 1348471187
00AD  A5C00200           [42] closure    2   11     
00B1  A0800500           [43] setglobal  2   22       ; SetDissolveTargetted
00B5  A0C00500           [44] setglobal  2   23       ; 1405499098
00B9  A5000300           [45] closure    2   12     
00BD  A0000600           [46] setglobal  2   24       ; DissolveFadeParent
00C1  A0400600           [47] setglobal  2   25       ; 1020972817
00C5  A5400300           [48] closure    2   13     
00C9  12008000           [49] move       0   1      
00CD  A0800600           [50] setglobal  2   26       ; MaterialFadeTwoParams
00D1  A0C00600           [51] setglobal  2   27       ; 1315028849
00D5  A5800300           [52] closure    2   14     
00D9  A0000700           [53] setglobal  2   28       ; DissolveFadeFlatPeak
00DD  A0400700           [54] setglobal  2   29       ; 340283933
00E1  A5C00300           [55] closure    2   15     
00E5  A0800700           [56] setglobal  2   30       ; DissolveFadeFlatPeakMeshScale
00E9  A0C00700           [57] setglobal  2   31       ; 962425789
00ED  A5000400           [58] closure    2   16     
00F1  12008000           [59] move       0   1      
00F5  A0000800           [60] setglobal  2   32       ; DissolveFadeFlatPeakRandomMeshScale
00F9  A0400800           [61] setglobal  2   33       ; -891776011
00FD  A5400400           [62] closure    2   17     
0101  12008000           [63] move       0   1      
0105  A0800800           [64] setglobal  2   34       ; MaterialFadeWithAttractorParent
0109  A0C00800           [65] setglobal  2   35       ; -18683219
010D  A5800400           [66] closure    2   18     
0111  A0000900           [67] setglobal  2   36       ; MaterialCurveFadePeakTargetted
0115  A0400900           [68] setglobal  2   37       ; -938442004
0119  1E008000           [69] return     0   1      
                         * constants:
011D  26                 sizek (38)
011E  01                 const type 3
011F  44DC9B32           const [0]: (849075268)
0123  04                 const type 4
0124  2C                 string size (44)
0125  4C6F7475732E5363+  "Lotus.Sc"
012D  72697074732E4566+  "ripts.Ef"
0135  66656374732E4566+  "fects.Ef"
013D  6665637473436F6C+  "fectsCol"
0145  6F725574696C6974+  "orUtilit"
014D  69657300           "ies\0"
                         const [1]: "Lotus.Scripts.Effects.EffectsColorUtilities"
0151  04                 const type 4
0152  0D                 string size (13)
0153  4D6174657269616C+  "Material"
015B  4661646500         "Fade\0"
                         const [2]: "MaterialFade"
0160  01                 const type 3
0161  DBF584CD           const [3]: (-846924325)
0165  04                 const type 4
0166  16                 string size (22)
0167  4D6174657269616C+  "Material"
016F  466164654D657368+  "FadeMesh"
0177  5363616C6500       "Scale\0"
                         const [4]: "MaterialFadeMeshScale"
017D  01                 const type 3
017E  6AA59B2F           const [5]: (798729578)
0182  04                 const type 4
0183  11                 string size (17)
0184  4D6174657269616C+  "Material"
018C  466164655065616B+  "FadePeak"
0194  00                 "\0"
                         const [6]: "MaterialFadePeak"
0195  01                 const type 3
0196  871EC683           const [7]: (-2084168057)
019A  04                 const type 4
019B  15                 string size (21)
019C  4D6174657269616C+  "Material"
01A4  46616465466C6174+  "FadeFlat"
01AC  5065616B00         "Peak\0"
                         const [8]: "MaterialFadeFlatPeak"
01B1  01                 const type 3
01B2  37B9F9B4           const [9]: (-1258702537)
01B6  04                 const type 4
01B7  16                 string size (22)
01B8  4D6174657269616C+  "Material"
01C0  4661646554617267+  "FadeTarg"
01C8  657474656400       "etted\0"
                         const [10]: "MaterialFadeTargetted"
01CE  01                 const type 3
01CF  DF50326B           const [11]: (1798459615)
01D3  04                 const type 4
01D4  1A                 string size (26)
01D5  4D6174657269616C+  "Material"
01DD  466164655065616B+  "FadePeak"
01E5  5461726765747465+  "Targette"
01ED  6400               "d\0"
                         const [12]: "MaterialFadePeakTargetted"
01EF  01                 const type 3
01F0  07E299B0           const [13]: (-1332092409)
01F4  04                 const type 4
01F5  16                 string size (22)
01F6  446973736F6C7665+  "Dissolve"
01FE  4661646554617267+  "FadeTarg"
0206  657474656400       "etted\0"
                         const [14]: "DissolveFadeTargetted"
020C  01                 const type 3
020D  D1912F0F           const [15]: (254775761)
0211  04                 const type 4
0212  0D                 string size (13)
0213  446973736F6C7665+  "Dissolve"
021B  4661646500         "Fade\0"
                         const [16]: "DissolveFade"
0220  01                 const type 3
0221  5CBDAEF6           const [17]: (-156320420)
0225  04                 const type 4
0226  16                 string size (22)
0227  446973736F6C7665+  "Dissolve"
022F  466164654D657368+  "FadeMesh"
0237  5363616C6500       "Scale\0"
                         const [18]: "DissolveFadeMeshScale"
023D  01                 const type 3
023E  9448DC65           const [19]: (1708935316)
0242  04                 const type 4
0243  12                 string size (18)
0244  53657456616C7565+  "SetValue"
024C  5461726765747465+  "Targette"
0254  6400               "d\0"
                         const [20]: "SetValueTargetted"
0256  01                 const type 3
0257  93096050           const [21]: (1348471187)
025B  04                 const type 4
025C  15                 string size (21)
025D  536574446973736F+  "SetDisso"
0265  6C76655461726765+  "lveTarge"
026D  7474656400         "tted\0"
                         const [22]: "SetDissolveTargetted"
0272  01                 const type 3
0273  DA36C653           const [23]: (1405499098)
0277  04                 const type 4
0278  13                 string size (19)
0279  446973736F6C7665+  "Dissolve"
0281  4661646550617265+  "FadePare"
0289  6E7400             "nt\0"
                         const [24]: "DissolveFadeParent"
028C  01                 const type 3
028D  11CFDA3C           const [25]: (1020972817)
0291  04                 const type 4
0292  16                 string size (22)
0293  4D6174657269616C+  "Material"
029B  4661646554776F50+  "FadeTwoP"
02A3  6172616D7300       "arams\0"
                         const [26]: "MaterialFadeTwoParams"
02A9  01                 const type 3
02AA  71BF614E           const [27]: (1315028849)
02AE  04                 const type 4
02AF  15                 string size (21)
02B0  446973736F6C7665+  "Dissolve"
02B8  46616465466C6174+  "FadeFlat"
02C0  5065616B00         "Peak\0"
                         const [28]: "DissolveFadeFlatPeak"
02C5  01                 const type 3
02C6  1D524814           const [29]: (340283933)
02CA  04                 const type 4
02CB  1E                 string size (30)
02CC  446973736F6C7665+  "Dissolve"
02D4  46616465466C6174+  "FadeFlat"
02DC  5065616B4D657368+  "PeakMesh"
02E4  5363616C6500       "Scale\0"
                         const [30]: "DissolveFadeFlatPeakMeshScale"
02EA  01                 const type 3
02EB  BD735D39           const [31]: (962425789)
02EF  04                 const type 4
02F0  24                 string size (36)
02F1  446973736F6C7665+  "Dissolve"
02F9  46616465466C6174+  "FadeFlat"
0301  5065616B52616E64+  "PeakRand"
0309  6F6D4D6573685363+  "omMeshSc"
0311  616C6500           "ale\0"
                         const [32]: "DissolveFadeFlatPeakRandomMeshScale"
0315  01                 const type 3
0316  F593D8CA           const [33]: (-891776011)
031A  04                 const type 4
031B  20                 string size (32)
031C  4D6174657269616C+  "Material"
0324  4661646557697468+  "FadeWith"
032C  417474726163746F+  "Attracto"
0334  72506172656E7400   "rParent\0"
                         const [34]: "MaterialFadeWithAttractorParent"
033C  01                 const type 3
033D  ADEAE2FE           const [35]: (-18683219)
0341  04                 const type 4
0342  1F                 string size (31)
0343  4D6174657269616C+  "Material"
034B  4375727665466164+  "CurveFad"
0353  655065616B546172+  "ePeakTar"
035B  67657474656400     "getted\0"
                         const [36]: "MaterialCurveFadePeakTargetted"
0362  01                 const type 3
0363  EC8210C8           const [37]: (-938442004)
                         * functions:
0367  13                 sizep (19)
                         
0368                     ** function [0] definition (level 2)
                         ** start of function **
0368  00                 string size (0)
                         source name: (none)
0369  30                 line defined (48)
036A  83                 last line defined (131)
036B  01                 nups (1)
036C  01                 numparams (3)
036D  03                 is_vararg (0)
036E  00                 maxstacksize (23)
                         * code:
0371  01                 sizecode (233)
0372  98000000           [001] test       2       0    ; to [3] if true
0376  1AC00080           [002] jmp        4            ; to [7]
037A  64014000           [003] self       5   0   256  ; -704974830
037E  62810001           [004] call       5   2   2  
0382  12018002           [005] move       4   5      
0386  1A800080           [006] jmp        3            ; to [10]
038A  64414000           [007] self       5   0   257  ; 129677183
038E  62810001           [008] call       5   2   2  
0392  12018002           [009] move       4   5      
0396  5D810000           [010] getglobal  5   2        ; 1074689893
039A  92010002           [011] move       6   4      
039E  62810001           [012] call       5   2   2  
03A2  58010000           [013] test       5       0    ; to [15] if true
03A6  1A000080           [014] jmp        1            ; to [16]
03AA  1E008000           [015] return     0   1      
03AE  5DC10000           [016] getglobal  5   3        ; 738251817
03B2  99010100           [017] loadk      6   4        ; "/Lotus/Types/Enemies/TennoReplicants/TennoReplicantAvatar"
03B6  62810001           [018] call       5   2   2  
03BA  A4414102           [019] self       6   4   261  ; -1957065004
03BE  12028002           [020] move       8   5      
03C2  A2818001           [021] call       6   3   2  
03C6  98010000           [022] test       6       0    ; to [24] if true
03CA  1A000280           [023] jmp        9            ; to [33]
03CE  A4814100           [024] self       6   0   262  ; -786111647
03D2  12028000           [025] move       8   1      
03D6  59C20100           [026] loadk      9   7        ; -95
03DA  99020200           [027] loadk      10  8        ; -110
03DE  D9420200           [028] loadk      11  9        ; -80
03E2  1D830200           [029] getglobal  12  10       ; alphaMult
03E6  04C34206           [030] mul        12  12  267  ; 0
03EA  A2418003           [031] call       6   7   1  
03EE  1E008000           [032] return     0   1      
03F2  A4414102           [033] self       6   4   261  ; -1957065004
03F6  1D020300           [034] getglobal  8   12       ; gLotusAvatarType
03FA  A2818001           [035] call       6   3   2  
03FE  98010000           [036] test       6       0    ; to [38] if true
0402  1A400080           [037] jmp        2            ; to [40]
0406  D2000002           [038] move       3   4      
040A  1AC01380           [039] jmp        80           ; to [120]
040E  86010003           [040] loadnil    6   6      
0412  E4414102           [041] self       7   4   261  ; -1957065004
0416  5D420300           [042] getglobal  9   13       ; gPowerSuitType
041A  E2818001           [043] call       7   3   2  
041E  D8010000           [044] test       7       0    ; to [46] if true
0422  1A400080           [045] jmp        2            ; to [48]
0426  92010002           [046] move       6   4      
042A  1A800080           [047] jmp        3            ; to [51]
042E  E4414002           [048] self       7   4   257  ; 129677183
0432  E2810001           [049] call       7   2   2  
0436  92018003           [050] move       6   7      
043A  DD810300           [051] getglobal  7   14       ; isWeapon
043E  D8010000           [052] test       7       0    ; to [54] if true
0442  1AC00280           [053] jmp        12           ; to [66]
0446  DDC10000           [054] getglobal  7   3        ; 738251817
044A  19C20300           [055] loadk      8   15       ; "/Lotus/Types/Game/LotusWeapon"
044E  E2810001           [056] call       7   2   2  
0452  24424103           [057] self       8   6   261  ; -1957065004
0456  92028003           [058] move       10  7      
045A  22828001           [059] call       8   3   2  
045E  18420000           [060] test       8       1    ; to [62] if false
0462  1A400080           [061] jmp        2            ; to [64]
0466  06020004           [062] loadnil    8   8      
046A  1E020001           [063] return     8   2      
046E  D2000003           [064] move       3   6      
0472  1A400680           [065] jmp        26           ; to [92]
0476  1D820000           [066] getglobal  8   2        ; 1074689893
047A  52020003           [067] move       9   6      
047E  22820001           [068] call       8   2   2  
0482  18420000           [069] test       8       1    ; to [71] if false
0486  1A000280           [070] jmp        9            ; to [80]
048A  24424103           [071] self       8   6   261  ; -1957065004
048E  9D420300           [072] getglobal  10  13       ; gPowerSuitType
0492  22828001           [073] call       8   3   2  
0496  18020000           [074] test       8       0    ; to [76] if true
049A  1AC00080           [075] jmp        4            ; to [80]
049E  24024403           [076] self       8   6   272  ; -1316189862
04A2  22820001           [077] call       8   2   2  
04A6  D2000004           [078] move       3   8      
04AA  1AC00280           [079] jmp        12           ; to [92]
04AE  1D820000           [080] getglobal  8   2        ; 1074689893
04B2  52020003           [081] move       9   6      
04B6  22820001           [082] call       8   2   2  
04BA  18420000           [083] test       8       1    ; to [85] if false
04BE  1AC00080           [084] jmp        4            ; to [89]
04C2  24024003           [085] self       8   6   256  ; -704974830
04C6  22820001           [086] call       8   2   2  
04CA  D2000004           [087] move       3   8      
04CE  1A800080           [088] jmp        3            ; to [92]
04D2  24024002           [089] self       8   4   256  ; -704974830
04D6  22820001           [090] call       8   2   2  
04DA  D2000004           [091] move       3   8      
04DE  2442C101           [092] self       8   3   261  ; -1957065004
04E2  92028002           [093] move       10  5      
04E6  22828001           [094] call       8   3   2  
04EA  18020000           [095] test       8       0    ; to [97] if true
04EE  1A800580           [096] jmp        23           ; to [120]
04F2  24824100           [097] self       8   0   262  ; -786111647
04F6  92028000           [098] move       10  1      
04FA  D9C20100           [099] loadk      11  7        ; -95
04FE  19030200           [100] loadk      12  8        ; -110
0502  59430200           [101] loadk      13  9        ; -80
0506  9D830200           [102] getglobal  14  10       ; alphaMult
050A  84C34207           [103] mul        14  14  267  ; 0
050E  22428003           [104] call       8   7   1  
0512  1D420400           [105] getglobal  8   17       ; applyLowHigh
0516  18020000           [106] test       8       0    ; to [108] if true
051A  1A800280           [107] jmp        11           ; to [119]
051E  13020000           [108] getupval   8   0      
0522  0E824404           [109] gettable   8   8   274  ; -1130533444
0526  52020000           [110] move       9   0      
052A  9DC20400           [111] getglobal  10  19       ; -1247440829
052E  D9020500           [112] loadk      11  20       ; 0
0532  19430500           [113] loadk      12  21       ; 0
0536  59830500           [114] loadk      13  22       ; 0
053A  9D830200           [115] getglobal  14  10       ; alphaMult
053E  84C34207           [116] mul        14  14  267  ; 0
0542  A2028002           [117] call       10  5   0  
0546  22420000           [118] call       8   0   1  
054A  1E008000           [119] return     0   1      
054E  2442C101           [120] self       8   3   261  ; -1957065004
0552  9D020300           [121] getglobal  10  12       ; gLotusAvatarType
0556  22828001           [122] call       8   3   2  
055A  18420000           [123] test       8       1    ; to [125] if false
055E  1A000180           [124] jmp        5            ; to [130]
0562  1D820300           [125] getglobal  8   14       ; isWeapon
0566  18420000           [126] test       8       1    ; to [128] if false
056A  1A400080           [127] jmp        2            ; to [130]
056E  06020004           [128] loadnil    8   8      
0572  1E020001           [129] return     8   2      
0576  1D820000           [130] getglobal  8   2        ; 1074689893
057A  52028001           [131] move       9   3      
057E  22820001           [132] call       8   2   2  
0582  18420000           [133] test       8       1    ; to [135] if false
0586  1A401880           [134] jmp        98           ; to [233]
058A  06020004           [135] loadnil    8   8      
058E  5D820300           [136] getglobal  9   14       ; isWeapon
0592  58020000           [137] test       9       0    ; to [139] if true
0596  1A400080           [138] jmp        2            ; to [141]
059A  12028001           [139] move       8   3      
059E  1A400380           [140] jmp        14           ; to [155]
05A2  5DC20500           [141] getglobal  9   23       ; isArchwing
05A6  58020000           [142] test       9       0    ; to [144] if true
05AA  1A400180           [143] jmp        6            ; to [150]
05AE  6402C601           [144] self       9   3   280  ; -1917464545
05B2  62820001           [145] call       9   2   2  
05B6  6442C604           [146] self       9   9   281  ; -400899663
05BA  62820001           [147] call       9   2   2  
05BE  12028004           [148] move       8   9      
05C2  1A000180           [149] jmp        5            ; to [155]
05C6  6402C601           [150] self       9   3   280  ; -1917464545
05CA  62820001           [151] call       9   2   2  
05CE  6482C604           [152] self       9   9   282  ; 1769516121
05D2  62820001           [153] call       9   2   2  
05D6  12028004           [154] move       8   9      
05DA  5DC20600           [155] getglobal  9   27       ; isMeleeWeapon
05DE  58020000           [156] test       9       0    ; to [158] if true
05E2  1A000180           [157] jmp        5            ; to [163]
05E6  6402C601           [158] self       9   3   280  ; -1917464545
05EA  62820001           [159] call       9   2   2  
05EE  6402C704           [160] self       9   9   284  ; 1885503231
05F2  62820001           [161] call       9   2   2  
05F6  12028004           [162] move       8   9      
05FA  5D420700           [163] getglobal  9   29       ; scaleForExplosionMod
05FE  58020000           [164] test       9       0    ; to [166] if true
0602  1A400580           [165] jmp        22           ; to [188]
0606  6442C101           [166] self       9   3   261  ; -1957065004
060A  DD820700           [167] getglobal  11  30       ; gLotusWeaponType
060E  62828001           [168] call       9   3   2  
0612  58020000           [169] test       9       0    ; to [171] if true
0616  1A000480           [170] jmp        17           ; to [188]
061A  64C24700           [171] self       9   0   287  ; -323635054
061E  62820001           [172] call       9   2   2  
0622  A402C401           [173] self       10  3   272  ; -1316189862
0626  A2820001           [174] call       10  2   2  
062A  E4024605           [175] self       11  10  280  ; -1917464545
062E  E2820001           [176] call       11  2   2  
0632  E402C805           [177] self       11  11  288  ; -940929887
0636  52038004           [178] move       13  9      
063A  9D430800           [179] getglobal  14  33       ; Game
063E  8E834807           [180] gettable   14  14  290  ; "WEAPON_EXPLOSION_RADIUS"
0642  E4C3C801           [181] self       15  3   291  ; -491574171
0646  E2830001           [182] call       15  2   2  
064A  12048001           [183] move       16  3      
064E  E2820003           [184] call       11  6   2  
0652  24034900           [185] self       12  0   292  ; 1786666898
0656  92038005           [186] move       14  11     
065A  22438001           [187] call       12  3   1  
065E  1D830000           [188] getglobal  12  2        ; 1074689893
0662  52030004           [189] move       13  8      
0666  22830001           [190] call       12  2   2  
066A  18430000           [191] test       12      1    ; to [193] if false
066E  1AC00980           [192] jmp        40           ; to [233]
0672  24434904           [193] self       12  8   293  ; -1348043987
0676  22830001           [194] call       12  2   2  
067A  64834906           [195] self       13  12  294  ; -479391803
067E  DDC30900           [196] getglobal  15  39       ; Lotus_Game
0682  CE03CA07           [197] gettable   15  15  296  ; "PrimaryColors"
0686  62838001           [198] call       13  3   2  
068A  A443CA06           [199] self       14  13  297  ; 979293742
068E  1DC40900           [200] getglobal  16  39       ; Lotus_Game
0692  0E844A08           [201] gettable   16  16  298  ; "EnergyColor"
0696  A2838001           [202] call       14  3   2  
069A  98030000           [203] test       14      0    ; to [205] if true
069E  1AC00680           [204] jmp        28           ; to [233]
06A2  8EC3CA06           [205] gettable   14  13  299  ; "mEnergyColor"
06A6  E4834100           [206] self       15  0   262  ; -786111647
06AA  52048000           [207] move       17  1      
06AE  93040000           [208] getupval   18  0      
06B2  8E044B09           [209] gettable   18  18  300  ; 1988048406
06B6  CE444B07           [210] gettable   19  14  301  ; "red"
06BA  A2840001           [211] call       18  2   2  
06BE  D3040000           [212] getupval   19  0      
06C2  CE04CB09           [213] gettable   19  19  300  ; 1988048406
06C6  0E854B07           [214] gettable   20  14  302  ; "green"
06CA  E2840001           [215] call       19  2   2  
06CE  13050000           [216] getupval   20  0      
06D2  0E054B0A           [217] gettable   20  20  300  ; 1988048406
06D6  4EC54B07           [218] gettable   21  14  303  ; "blue"
06DA  22850001           [219] call       20  2   2  
06DE  5D850200           [220] getglobal  21  10       ; alphaMult
06E2  8E054C07           [221] gettable   22  14  304  ; "alpha"
06E6  4485850A           [222] mul        21  21  22 
06EA  5C45CC0A           [223] div        21  21  305  ; 0
06EE  E2438003           [224] call       15  7   1  
06F2  DD430400           [225] getglobal  15  17       ; applyLowHigh
06F6  D8030000           [226] test       15      0    ; to [228] if true
06FA  1A000180           [227] jmp        5            ; to [233]
06FE  D3030000           [228] getupval   15  0      
0702  CE83C407           [229] gettable   15  15  274  ; -1130533444
0706  12040000           [230] move       16  0      
070A  52040007           [231] move       17  14     
070E  E2438001           [232] call       15  3   1  
0712  1E008000           [233] return     0   1      
                         * constants:
0716  32                 sizek (50)
0717  01                 const type 3
0718  12F0FAD5           const [0]: (-704974830)
071C  01                 const type 3
071D  7FB7BA07           const [1]: (129677183)
0721  01                 const type 3
0722  65770E40           const [2]: (1074689893)
0726  01                 const type 3
0727  29D4002C           const [3]: (738251817)
072B  04                 const type 4
072C  3A                 string size (58)
072D  2F4C6F7475732F54+  "/Lotus/T"
0735  797065732F456E65+  "ypes/Ene"
073D  6D6965732F54656E+  "mies/Ten"
0745  6E6F5265706C6963+  "noReplic"
074D  616E74732F54656E+  "ants/Ten"
0755  6E6F5265706C6963+  "noReplic"
075D  616E744176617461+  "antAvata"
0765  7200               "r\0"
                         const [4]: "/Lotus/Types/Enemies/TennoReplicants/TennoReplicantAvatar"
0767  01                 const type 3
0768  D48E598B           const [5]: (-1957065004)
076C  01                 const type 3
076D  61E324D1           const [6]: (-786111647)
0771  03                 const type 3
0772  A1A0A03C           const [7]: (-95)
0776  03                 const type 3
0777  9291113F           const [8]: (-110)
077B  03                 const type 3
077C  B0AF2F3F           const [9]: (-80)
0780  04                 const type 4
0781  0A                 string size (10)
0782  616C7068614D756C+  "alphaMul"
078A  7400               "t\0"
                         const [10]: "alphaMult"
078C  03                 const type 3
078D  0000803F           const [11]: (0)
0791  04                 const type 4
0792  11                 string size (17)
0793  674C6F7475734176+  "gLotusAv"
079B  6174617254797065+  "atarType"
07A3  00                 "\0"
                         const [12]: "gLotusAvatarType"
07A4  04                 const type 4
07A5  0F                 string size (15)
07A6  67506F7765725375+  "gPowerSu"
07AE  69745479706500     "itType\0"
                         const [13]: "gPowerSuitType"
07B5  04                 const type 4
07B6  09                 string size (9)
07B7  6973576561706F6E+  "isWeapon"
07BF  00                 "\0"
                         const [14]: "isWeapon"
07C0  04                 const type 4
07C1  1E                 string size (30)
07C2  2F4C6F7475732F54+  "/Lotus/T"
07CA  797065732F47616D+  "ypes/Gam"
07D2  652F4C6F74757357+  "e/LotusW"
07DA  6561706F6E00       "eapon\0"
                         const [15]: "/Lotus/Types/Game/LotusWeapon"
07E0  01                 const type 3
07E1  5A898CB1           const [16]: (-1316189862)
07E5  04                 const type 4
07E6  0D                 string size (13)
07E7  6170706C794C6F77+  "applyLow"
07EF  4869676800         "High\0"
                         const [17]: "applyLowHigh"
07F4  01                 const type 3
07F5  BC6D9DBC           const [18]: (-1130533444)
07F9  01                 const type 3
07FA  4390A5B5           const [19]: (-1247440829)
07FE  03                 const type 3
07FF  0000A040           const [20]: (0)
0803  03                 const type 3
0804  00001143           const [21]: (0)
0808  03                 const type 3
0809  00002F43           const [22]: (0)
080D  04                 const type 4
080E  0B                 string size (11)
080F  6973417263687769+  "isArchwi"
0817  6E6700             "ng\0"
                         const [23]: "isArchwing"
081A  01                 const type 3
081B  1FD0B58D           const [24]: (-1917464545)
081F  01                 const type 3
0820  B1C11AE8           const [25]: (-400899663)
0824  01                 const type 3
0825  59AC7869           const [26]: (1769516121)
0829  04                 const type 4
082A  0E                 string size (14)
082B  69734D656C656557+  "isMeleeW"
0833  6561706F6E00       "eapon\0"
                         const [27]: "isMeleeWeapon"
0839  01                 const type 3
083A  FF7E6270           const [28]: (1885503231)
083E  04                 const type 4
083F  15                 string size (21)
0840  7363616C65466F72+  "scaleFor"
0848  4578706C6F73696F+  "Explosio"
0850  6E4D6F6400         "nMod\0"
                         const [29]: "scaleForExplosionMod"
0855  04                 const type 4
0856  11                 string size (17)
0857  674C6F7475735765+  "gLotusWe"
085F  61706F6E54797065+  "aponType"
0867  00                 "\0"
                         const [30]: "gLotusWeaponType"
0868  01                 const type 3
0869  92B8B5EC           const [31]: (-323635054)
086D  01                 const type 3
086E  A18CEAC7           const [32]: (-940929887)
0872  04                 const type 4
0873  05                 string size (5)
0874  47616D6500         "Game\0"
                         const [33]: "Game"
0879  04                 const type 4
087A  18                 string size (24)
087B  574541504F4E5F45+  "WEAPON_E"
0883  58504C4F53494F4E+  "XPLOSION"
088B  5F52414449555300   "_RADIUS\0"
                         const [34]: "WEAPON_EXPLOSION_RADIUS"
0893  01                 const type 3
0894  652CB3E2           const [35]: (-491574171)
0898  01                 const type 3
0899  925F7E6A           const [36]: (1786666898)
089D  01                 const type 3
089E  2D7BA6AF           const [37]: (-1348043987)
08A2  01                 const type 3
08A3  C50F6DE3           const [38]: (-479391803)
08A7  04                 const type 4
08A8  0B                 string size (11)
08A9  4C6F7475735F4761+  "Lotus_Ga"
08B1  6D6500             "me\0"
                         const [39]: "Lotus_Game"
08B4  04                 const type 4
08B5  0E                 string size (14)
08B6  5072696D61727943+  "PrimaryC"
08BE  6F6C6F727300       "olors\0"
                         const [40]: "PrimaryColors"
08C4  01                 const type 3
08C5  2ED65E3A           const [41]: (979293742)
08C9  04                 const type 4
08CA  0C                 string size (12)
08CB  456E65726779436F+  "EnergyCo"
08D3  6C6F7200           "lor\0"
                         const [42]: "EnergyColor"
08D7  04                 const type 4
08D8  0D                 string size (13)
08D9  6D456E6572677943+  "mEnergyC"
08E1  6F6C6F7200         "olor\0"
                         const [43]: "mEnergyColor"
08E6  01                 const type 3
08E7  16367F76           const [44]: (1988048406)
08EB  04                 const type 4
08EC  04                 string size (4)
08ED  72656400           "red\0"
                         const [45]: "red"
08F1  04                 const type 4
08F2  06                 string size (6)
08F3  677265656E00       "green\0"
                         const [46]: "green"
08F9  04                 const type 4
08FA  05                 string size (5)
08FB  626C756500         "blue\0"
                         const [47]: "blue"
0900  04                 const type 4
0901  06                 string size (6)
0902  616C70686100       "alpha\0"
                         const [48]: "alpha"
0908  03                 const type 3
0909  00007F43           const [49]: (0)
                         * functions:
090D  00                 sizep (0)
                         * lines:
090F  01                 sizelineinfo (233)
                         [pc] (line)
0910  33                 [001] (51)
0911  00                 [002] (51)
0912  00                 [003] (52)
0913  00                 [004] (52)
0914  33                 [005] (52)
0915  00                 [006] (52)
0916  00                 [007] (54)
0917  00                 [008] (54)
0918  34                 [009] (54)
0919  00                 [010] (56)
091A  00                 [011] (56)
091B  00                 [012] (56)
091C  34                 [013] (56)
091D  00                 [014] (56)
091E  00                 [015] (57)
091F  00                 [016] (59)
0920  34                 [017] (59)
0921  00                 [018] (59)
0922  00                 [019] (60)
0923  00                 [020] (60)
0924  34                 [021] (60)
0925  00                 [022] (60)
0926  00                 [023] (60)
0927  00                 [024] (61)
0928  36                 [025] (61)
0929  00                 [026] (61)
092A  00                 [027] (61)
092B  00                 [028] (61)
092C  36                 [029] (61)
092D  00                 [030] (61)
092E  00                 [031] (61)
092F  00                 [032] (62)
0930  36                 [033] (64)
0931  00                 [034] (64)
0932  00                 [035] (64)
0933  00                 [036] (64)
0934  38                 [037] (64)
0935  00                 [038] (65)
0936  00                 [039] (65)
0937  00                 [040] (67)
0938  38                 [041] (68)
0939  00                 [042] (68)
093A  00                 [043] (68)
093B  00                 [044] (68)
093C  38                 [045] (68)
093D  00                 [046] (69)
093E  00                 [047] (69)
093F  00                 [048] (71)
0940  38                 [049] (71)
0941  00                 [050] (71)
0942  00                 [051] (73)
0943  00                 [052] (73)
0944  38                 [053] (73)
0945  00                 [054] (74)
0946  00                 [055] (74)
0947  00                 [056] (74)
0948  39                 [057] (75)
0949  00                 [058] (75)
094A  00                 [059] (75)
094B  00                 [060] (75)
094C  3B                 [061] (75)
094D  00                 [062] (76)
094E  00                 [063] (76)
094F  00                 [064] (78)
0950  3B                 [065] (78)
0951  00                 [066] (79)
0952  00                 [067] (79)
0953  00                 [068] (79)
0954  3B                 [069] (79)
0955  00                 [070] (79)
0956  00                 [071] (79)
0957  00                 [072] (79)
0958  3C                 [073] (79)
0959  00                 [074] (79)
095A  00                 [075] (79)
095B  00                 [076] (80)
095C  3C                 [077] (80)
095D  00                 [078] (80)
095E  00                 [079] (80)
095F  00                 [080] (82)
0960  3C                 [081] (82)
0961  00                 [082] (82)
0962  00                 [083] (82)
0963  00                 [084] (82)
0964  3C                 [085] (83)
0965  00                 [086] (83)
0966  00                 [087] (83)
0967  00                 [088] (83)
0968  3C                 [089] (85)
0969  00                 [090] (85)
096A  00                 [091] (85)
096B  00                 [092] (88)
096C  3D                 [093] (88)
096D  00                 [094] (88)
096E  00                 [095] (88)
096F  00                 [096] (88)
0970  3D                 [097] (89)
0971  00                 [098] (89)
0972  00                 [099] (89)
0973  00                 [100] (89)
0974  3D                 [101] (89)
0975  00                 [102] (89)
0976  00                 [103] (89)
0977  00                 [104] (89)
0978  3D                 [105] (90)
0979  00                 [106] (90)
097A  00                 [107] (90)
097B  00                 [108] (91)
097C  3D                 [109] (91)
097D  00                 [110] (91)
097E  00                 [111] (91)
097F  00                 [112] (91)
0980  3D                 [113] (91)
0981  00                 [114] (91)
0982  00                 [115] (91)
0983  00                 [116] (91)
0984  3D                 [117] (91)
0985  00                 [118] (91)
0986  00                 [119] (93)
0987  00                 [120] (96)
0988  3D                 [121] (96)
0989  00                 [122] (96)
098A  00                 [123] (96)
098B  00                 [124] (96)
098C  3E                 [125] (96)
098D  00                 [126] (96)
098E  00                 [127] (96)
098F  00                 [128] (97)
0990  40                 [129] (97)
0991  00                 [130] (99)
0992  00                 [131] (99)
0993  00                 [132] (99)
0994  40                 [133] (99)
0995  00                 [134] (99)
0996  00                 [135] (100)
0997  00                 [136] (101)
0998  40                 [137] (101)
0999  00                 [138] (101)
099A  00                 [139] (102)
099B  00                 [140] (102)
099C  40                 [141] (104)
099D  00                 [142] (104)
099E  00                 [143] (104)
099F  00                 [144] (105)
09A0  40                 [145] (105)
09A1  00                 [146] (105)
09A2  00                 [147] (105)
09A3  00                 [148] (105)
09A4  41                 [149] (105)
09A5  00                 [150] (107)
09A6  00                 [151] (107)
09A7  00                 [152] (107)
09A8  41                 [153] (107)
09A9  00                 [154] (107)
09AA  00                 [155] (110)
09AB  00                 [156] (110)
09AC  43                 [157] (110)
09AD  00                 [158] (111)
09AE  00                 [159] (111)
09AF  00                 [160] (111)
09B0  44                 [161] (111)
09B1  00                 [162] (111)
09B2  00                 [163] (113)
09B3  00                 [164] (113)
09B4  44                 [165] (113)
09B5  00                 [166] (113)
09B6  00                 [167] (113)
09B7  00                 [168] (113)
09B8  44                 [169] (113)
09B9  00                 [170] (113)
09BA  00                 [171] (114)
09BB  00                 [172] (114)
09BC  44                 [173] (115)
09BD  00                 [174] (115)
09BE  00                 [175] (116)
09BF  00                 [176] (116)
09C0  44                 [177] (116)
09C1  00                 [178] (116)
09C2  00                 [179] (116)
09C3  00                 [180] (116)
09C4  45                 [181] (116)
09C5  00                 [182] (116)
09C6  00                 [183] (116)
09C7  00                 [184] (116)
09C8  45                 [185] (117)
09C9  00                 [186] (117)
09CA  00                 [187] (117)
09CB  00                 [188] (119)
09CC  47                 [189] (119)
09CD  00                 [190] (119)
09CE  00                 [191] (119)
09CF  00                 [192] (119)
09D0  47                 [193] (120)
09D1  00                 [194] (120)
09D2  00                 [195] (121)
09D3  00                 [196] (121)
09D4  47                 [197] (121)
09D5  00                 [198] (121)
09D6  00                 [199] (122)
09D7  00                 [200] (122)
09D8  49                 [201] (122)
09D9  00                 [202] (122)
09DA  00                 [203] (122)
09DB  00                 [204] (122)
09DC  49                 [205] (123)
09DD  00                 [206] (124)
09DE  00                 [207] (124)
09DF  00                 [208] (124)
09E0  49                 [209] (124)
09E1  00                 [210] (124)
09E2  00                 [211] (124)
09E3  00                 [212] (124)
09E4  4A                 [213] (124)
09E5  00                 [214] (124)
09E6  00                 [215] (124)
09E7  00                 [216] (124)
09E8  4A                 [217] (124)
09E9  00                 [218] (124)
09EA  00                 [219] (124)
09EB  00                 [220] (124)
09EC  4A                 [221] (124)
09ED  00                 [222] (124)
09EE  00                 [223] (124)
09EF  00                 [224] (124)
09F0  4B                 [225] (125)
09F1  00                 [226] (125)
09F2  00                 [227] (125)
09F3  00                 [228] (126)
09F4  4B                 [229] (126)
09F5  00                 [230] (126)
09F6  00                 [231] (126)
09F7  00                 [232] (126)
09F8  4B                 [233] (-125)
                         * locals:
0CB4  00                 sizelocvars (0)
                         * upvalues:
0CB5  00                 sizeupvalues (0)
                         ** end of function **

                         
0CB6                     ** function [1] definition (level 2)
                         ** start of function **
0CB6  00                 string size (0)
                         source name: (none)
0CB8  01                 line defined (133)
0CB9  B4                 last line defined (180)
0CBA  01                 nups (1)
0CBB  01                 numparams (1)
0CBC  01                 is_vararg (0)
0CBD  00                 maxstacksize (16)
                         * code:
0CBF  78                 sizecode (120)
0CC0  5D000000           [001] getglobal  1   0        ; Delay
fail op	33
0CC4  21408080           [002] tforloop   0       1    ; to [4] if exit
0CC8  1A800080           [003] jmp        3            ; to [7]
0CCC  5D800000           [004] getglobal  1   2        ; 538022378
0CD0  9D000000           [005] getglobal  2   0        ; Delay
0CD4  62400001           [006] call       1   2   1  
0CD8  5DC00000           [007] getglobal  1   3        ; applyToParent
0CDC  58000000           [008] test       1       0    ; to [10] if true
0CE0  1AC00180           [009] jmp        8            ; to [18]
0CE4  64004100           [010] self       1   0   260  ; -1870903749
0CE8  62800001           [011] call       1   2   2  
0CEC  9D400100           [012] getglobal  2   5        ; 1074689893
0CF0  D2008000           [013] move       3   1      
0CF4  A2800001           [014] call       2   2   2  
0CF8  98400000           [015] test       2       1    ; to [17] if false
0CFC  1A000080           [016] jmp        1            ; to [18]
0D00  12008000           [017] move       0   1      
0D04  9D800100           [018] getglobal  2   6        ; applyEnergyColor
0D08  98000000           [019] test       2       0    ; to [21] if true
0D0C  1A000180           [020] jmp        5            ; to [26]
0D10  93000000           [021] getupval   2   0      
0D14  D2000000           [022] move       3   0      
0D18  1DC10100           [023] getglobal  4   7        ; energyColorParam
0D1C  5D010200           [024] getglobal  5   8        ; getParentFirst
0D20  A2400002           [025] call       2   4   1  
0D24  99400000           [026] loadk      2   1        ; 0
0D28  C6008001           [027] loadnil    3   3      
0D2C  19410200           [028] loadk      4   9        ; 0
0D30  5D810200           [029] getglobal  5   10       ; getCastingSpeed
fail op	35
0D34  23C0C202           [030] close      0  
0D38  1A800780           [031] jmp        31           ; to [63]
0D3C  46018002           [032] loadnil    5   5      
0D40  9D010300           [033] getglobal  6   12       ; gcsGetCreator
0D44  98010000           [034] test       6       0    ; to [36] if true
0D48  1AC00080           [035] jmp        4            ; to [40]
0D4C  A4414300           [036] self       6   0   269  ; 129677183
0D50  A2810001           [037] call       6   2   2  
0D54  52010003           [038] move       5   6      
0D58  1A800080           [039] jmp        3            ; to [43]
0D5C  A4814300           [040] self       6   0   270  ; -704974830
0D60  A2810001           [041] call       6   2   2  
0D64  52010003           [042] move       5   6      
0D68  9D410100           [043] getglobal  6   5        ; 1074689893
0D6C  D2018002           [044] move       7   5      
0D70  A2810001           [045] call       6   2   2  
0D74  98410000           [046] test       6       1    ; to [48] if false
0D78  1A800380           [047] jmp        15           ; to [63]
0D7C  A4C1C302           [048] self       6   5   271  ; -1917464545
0D80  A2810001           [049] call       6   2   2  
0D84  E4014403           [050] self       7   6   272  ; 1769516121
0D88  E2810001           [051] call       7   2   2  
0D8C  24C2C302           [052] self       8   5   271  ; -1917464545
0D90  22820001           [053] call       8   2   2  
0D94  24424404           [054] self       8   8   273  ; -940929887
0D98  99420200           [055] loadk      10  9        ; 0
0D9C  DD820400           [056] getglobal  11  18       ; Game
0DA0  CEC2C405           [057] gettable   11  11  275  ; "AVATAR_CASTING_SPEED"
0DA4  2403C503           [058] self       12  7   276  ; -491574171
0DA8  22830001           [059] call       12  2   2  
0DAC  52038003           [060] move       13  7      
0DB0  22820003           [061] call       8   6   2  
0DB4  12010004           [062] move       4   8      
0DB8  1D420500           [063] getglobal  8   21       ; showAtStart
0DBC  18020000           [064] test       8       0    ; to [66] if true
0DC0  1A800080           [065] jmp        3            ; to [69]
0DC4  24824500           [066] self       8   0   278  ; 2109594123
0DC8  97028000           [067] loadbool   10  1   0    ; true
0DCC  22428001           [068] call       8   3   1  
0DD0  1DC20500           [069] getglobal  8   23       ; TimeLength
fail op	21
0DD4  15000201           [070] concat     0   2   8  
0DD8  1A800580           [071] jmp        23           ; to [95]
0DDC  1D020600           [072] getglobal  8   24       ; -1828500651
0DE0  5D420600           [073] getglobal  9   25       ; OriginalValue
0DE4  9D820600           [074] getglobal  10  26       ; NewValue
0DE8  DDC20500           [075] getglobal  11  23       ; TimeLength
0DEC  DCC20201           [076] div        11  2   11 
0DF0  22820002           [077] call       8   4   2  
0DF4  D2000004           [078] move       3   8      
0DF8  24C24600           [079] self       8   0   283  ; -786111647
0DFC  9D020700           [080] getglobal  10  28       ; Param
0E00  D2028001           [081] move       11  3      
0E04  19430000           [082] loadk      12  1        ; 0
0E08  59430000           [083] loadk      13  1        ; 0
0E0C  99430000           [084] loadk      14  1        ; 0
0E10  DD430700           [085] getglobal  15  29       ; applyToChildren
0E14  22420004           [086] call       8   8   1  
0E18  1D820700           [087] getglobal  8   30       ; 1289681407
0E1C  22828000           [088] call       8   1   2  
0E20  04020104           [089] mul        8   8   4  
0E24  83000201           [090] add        2   2   8  
0E28  1D820000           [091] getglobal  8   2        ; 538022378
0E2C  59420000           [092] loadk      9   1        ; 0
0E30  22420001           [093] call       8   2   1  
0E34  1A40F97F           [094] jmp        -26          ; to [69]
0E38  1D420100           [095] getglobal  8   5        ; 1074689893
0E3C  52020000           [096] move       9   0      
0E40  22820001           [097] call       8   2   2  
0E44  18420000           [098] test       8       1    ; to [100] if false
0E48  1AC00480           [099] jmp        20           ; to [120]
0E4C  24C24600           [100] self       8   0   283  ; -786111647
0E50  9D020700           [101] getglobal  10  28       ; Param
0E54  DD820600           [102] getglobal  11  26       ; NewValue
0E58  19430000           [103] loadk      12  1        ; 0
0E5C  59430000           [104] loadk      13  1        ; 0
0E60  99430000           [105] loadk      14  1        ; 0
0E64  DD430700           [106] getglobal  15  29       ; applyToChildren
0E68  22420004           [107] call       8   8   1  
0E6C  1DC20700           [108] getglobal  8   31       ; destroyAtEnd
0E70  18020000           [109] test       8       0    ; to [111] if true
0E74  1A800080           [110] jmp        3            ; to [114]
0E78  24024800           [111] self       8   0   288  ; -725453761
0E7C  22420001           [112] call       8   2   1  
0E80  1A400180           [113] jmp        6            ; to [120]
0E84  1D420800           [114] getglobal  8   33       ; hideAtEnd
0E88  18020000           [115] test       8       0    ; to [117] if true
0E8C  1A800080           [116] jmp        3            ; to [120]
0E90  24824500           [117] self       8   0   278  ; 2109594123
0E94  97020000           [118] loadbool   10  0   0    ; false
0E98  22428001           [119] call       8   3   1  
0E9C  1E008000           [120] return     0   1      
                         * constants:
0EA0  22                 sizek (34)
0EA1  04                 const type 4
0EA2  06                 string size (6)
0EA3  44656C617900       "Delay\0"
                         const [0]: "Delay"
0EA9  03                 const type 3
0EAA  00000000           const [1]: (0)
0EAE  01                 const type 3
0EAF  EA911120           const [2]: (538022378)
0EB3  04                 const type 4
0EB4  0E                 string size (14)
0EB5  6170706C79546F50+  "applyToP"
0EBD  6172656E7400       "arent\0"
                         const [3]: "applyToParent"
0EC3  01                 const type 3
0EC4  3B467C90           const [4]: (-1870903749)
0EC8  01                 const type 3
0EC9  65770E40           const [5]: (1074689893)
0ECD  04                 const type 4
0ECE  11                 string size (17)
0ECF  6170706C79456E65+  "applyEne"
0ED7  726779436F6C6F72+  "rgyColor"
0EDF  00                 "\0"
                         const [6]: "applyEnergyColor"
0EE0  04                 const type 4
0EE1  11                 string size (17)
0EE2  656E65726779436F+  "energyCo"
0EEA  6C6F72506172616D+  "lorParam"
0EF2  00                 "\0"
                         const [7]: "energyColorParam"
0EF3  04                 const type 4
0EF4  0F                 string size (15)
0EF5  676574506172656E+  "getParen"
0EFD  74466972737400     "tFirst\0"
                         const [8]: "getParentFirst"
0F04  03                 const type 3
0F05  0000803F           const [9]: (0)
0F09  04                 const type 4
0F0A  10                 string size (16)
0F0B  6765744361737469+  "getCasti"
0F13  6E67537065656400   "ngSpeed\0"
                         const [10]: "getCastingSpeed"
0F1B  01                 const type 3
0F1C  01000000           const [11]: (1)
0F20  04                 const type 4
0F21  0E                 string size (14)
0F22  6763734765744372+  "gcsGetCr"
0F2A  6561746F7200       "eator\0"
                         const [12]: "gcsGetCreator"
0F30  01                 const type 3
0F31  7FB7BA07           const [13]: (129677183)
0F35  01                 const type 3
0F36  12F0FAD5           const [14]: (-704974830)
0F3A  01                 const type 3
0F3B  1FD0B58D           const [15]: (-1917464545)
0F3F  01                 const type 3
0F40  59AC7869           const [16]: (1769516121)
0F44  01                 const type 3
0F45  A18CEAC7           const [17]: (-940929887)
0F49  04                 const type 4
0F4A  05                 string size (5)
0F4B  47616D6500         "Game\0"
                         const [18]: "Game"
0F50  04                 const type 4
0F51  15                 string size (21)
0F52  4156415441525F43+  "AVATAR_C"
0F5A  415354494E475F53+  "ASTING_S"
0F62  5045454400         "PEED\0"
                         const [19]: "AVATAR_CASTING_SPEED"
0F67  01                 const type 3
0F68  652CB3E2           const [20]: (-491574171)
0F6C  04                 const type 4
0F6D  0C                 string size (12)
0F6E  73686F7741745374+  "showAtSt"
0F76  61727400           "art\0"
                         const [21]: "showAtStart"
0F7A  01                 const type 3
0F7B  0BDABD7D           const [22]: (2109594123)
0F7F  04                 const type 4
0F80  0B                 string size (11)
0F81  54696D654C656E67+  "TimeLeng"
0F89  746800             "th\0"
                         const [23]: "TimeLength"
0F8C  01                 const type 3
0F8D  554B0393           const [24]: (-1828500651)
0F91  04                 const type 4
0F92  0E                 string size (14)
0F93  4F726967696E616C+  "Original"
0F9B  56616C756500       "Value\0"
                         const [25]: "OriginalValue"
0FA1  04                 const type 4
0FA2  09                 string size (9)
0FA3  4E657756616C7565+  "NewValue"
0FAB  00                 "\0"
                         const [26]: "NewValue"
0FAC  01                 const type 3
0FAD  61E324D1           const [27]: (-786111647)
0FB1  04                 const type 4
0FB2  06                 string size (6)
0FB3  506172616D00       "Param\0"
                         const [28]: "Param"
0FB9  04                 const type 4
0FBA  10                 string size (16)
0FBB  6170706C79546F43+  "applyToC"
0FC3  68696C6472656E00   "hildren\0"
                         const [29]: "applyToChildren"
0FCB  01                 const type 3
0FCC  FFF9DE4C           const [30]: (1289681407)
0FD0  04                 const type 4
0FD1  0D                 string size (13)
0FD2  64657374726F7941+  "destroyA"
0FDA  74456E6400         "tEnd\0"
                         const [31]: "destroyAtEnd"
0FDF  01                 const type 3
0FE0  3F74C2D4           const [32]: (-725453761)
0FE4  04                 const type 4
0FE5  0A                 string size (10)
0FE6  686964654174456E+  "hideAtEn"
0FEE  6400               "d\0"
                         const [33]: "hideAtEnd"
                         * functions:
0FF0  00                 sizep (0)
                         * lines:
0FF1  78                 sizelineinfo (120)
                         [pc] (line)
0FF2  86                 [001] (-122)
0FF3  00                 [002] (-122)
0FF4  00                 [003] (-122)
0FF5  00                 [004] (-121)
0FF6  86                 [005] (-121)
0FF7  00                 [006] (-121)
0FF8  00                 [007] (-119)
0FF9  00                 [008] (-119)
0FFA  86                 [009] (-119)
0FFB  00                 [010] (-118)
0FFC  00                 [011] (-118)
0FFD  00                 [012] (-117)
0FFE  87                 [013] (-117)
0FFF  00                 [014] (-117)
1000  00                 [015] (-117)
1001  00                 [016] (-117)
1002  87                 [017] (-116)
1003  00                 [018] (-113)
1004  00                 [019] (-113)
1005  00                 [020] (-113)
1006  87                 [021] (-112)
1007  00                 [022] (-112)
1008  00                 [023] (-112)
1009  00                 [024] (-112)
100A  89                 [025] (-112)
100B  00                 [026] (-110)
100C  00                 [027] (-109)
100D  00                 [028] (-108)
100E  89                 [029] (-107)
100F  00                 [030] (-107)
1010  00                 [031] (-107)
1011  00                 [032] (-106)
1012  89                 [033] (-105)
1013  00                 [034] (-105)
1014  00                 [035] (-105)
1015  00                 [036] (-104)
1016  8A                 [037] (-104)
1017  00                 [038] (-104)
1018  00                 [039] (-104)
1019  00                 [040] (-102)
101A  8A                 [041] (-102)
101B  00                 [042] (-102)
101C  00                 [043] (-100)
101D  00                 [044] (-100)
101E  8B                 [045] (-100)
101F  00                 [046] (-100)
1020  00                 [047] (-100)
1021  00                 [048] (-99)
1022  8B                 [049] (-99)
1023  00                 [050] (-98)
1024  00                 [051] (-98)
1025  00                 [052] (-97)
1026  8B                 [053] (-97)
1027  00                 [054] (-97)
1028  00                 [055] (-97)
1029  00                 [056] (-97)
102A  8B                 [057] (-97)
102B  00                 [058] (-97)
102C  00                 [059] (-97)
102D  00                 [060] (-97)
102E  8B                 [061] (-97)
102F  00                 [062] (-97)
1030  00                 [063] (-94)
1031  00                 [064] (-94)
1032  8C                 [065] (-94)
1033  00                 [066] (-93)
1034  00                 [067] (-93)
1035  00                 [068] (-93)
1036  8F                 [069] (-91)
1037  00                 [070] (-91)
1038  00                 [071] (-91)
1039  00                 [072] (-90)
103A  8F                 [073] (-90)
103B  00                 [074] (-90)
103C  00                 [075] (-90)
103D  00                 [076] (-90)
103E  8F                 [077] (-90)
103F  00                 [078] (-90)
1040  00                 [079] (-89)
1041  00                 [080] (-89)
1042  90                 [081] (-89)
1043  00                 [082] (-89)
1044  00                 [083] (-89)
1045  00                 [084] (-89)
1046  90                 [085] (-89)
1047  00                 [086] (-89)
1048  00                 [087] (-88)
1049  00                 [088] (-88)
104A  90                 [089] (-88)
104B  00                 [090] (-88)
104C  00                 [091] (-87)
104D  00                 [092] (-87)
104E  90                 [093] (-87)
104F  00                 [094] (-87)
1050  00                 [095] (-84)
1051  00                 [096] (-84)
1052  90                 [097] (-84)
1053  00                 [098] (-84)
1054  00                 [099] (-84)
1055  00                 [100] (-83)
1056  92                 [101] (-83)
1057  00                 [102] (-83)
1058  00                 [103] (-83)
1059  00                 [104] (-83)
105A  93                 [105] (-83)
105B  00                 [106] (-83)
105C  00                 [107] (-83)
105D  00                 [108] (-82)
105E  94                 [109] (-82)
105F  00                 [110] (-82)
1060  00                 [111] (-81)
1061  00                 [112] (-81)
1062  95                 [113] (-81)
1063  00                 [114] (-80)
1064  00                 [115] (-80)
1065  00                 [116] (-80)
1066  95                 [117] (-79)
1067  00                 [118] (-79)
1068  00                 [119] (-79)
1069  00                 [120] (-76)
                         * locals:
11D2  00                 sizelocvars (0)
                         * upvalues:
11D3  00                 sizeupvalues (0)
                         ** end of function **

                         
11D4                     ** function [2] definition (level 2)
                         ** start of function **
11D4  00                 string size (0)
                         source name: (none)
11D6  01                 line defined (182)
11D7  CA                 last line defined (202)
11D8  01                 nups (1)
11D9  01                 numparams (1)
11DA  01                 is_vararg (0)
11DB  00                 maxstacksize (7)
                         * code:
11DD  3A                 sizecode (58)
11DE  5D000000           [01] getglobal  1   0        ; Delay
fail op	33
11E2  21408080           [02] tforloop   0       1    ; to [4] if exit
11E6  1A800080           [03] jmp        3            ; to [7]
11EA  5D800000           [04] getglobal  1   2        ; 538022378
11EE  9D000000           [05] getglobal  2   0        ; Delay
11F2  62400001           [06] call       1   2   1  
11F6  5DC00000           [07] getglobal  1   3        ; applyEnergyColor
11FA  58000000           [08] test       1       0    ; to [10] if true
11FE  1A000180           [09] jmp        5            ; to [15]
1202  53000000           [10] getupval   1   0      
1206  92000000           [11] move       2   0      
120A  DD000100           [12] getglobal  3   4        ; energyColorParam
120E  1D410100           [13] getglobal  4   5        ; getParentFirst
1212  62400002           [14] call       1   4   1  
1216  59400000           [15] loadk      1   1        ; 0
121A  86000001           [16] loadnil    2   2      
121E  DD800100           [17] getglobal  3   6        ; TimeLength
fail op	21
1222  15C08000           [18] concat     0   1   3  
1226  1AC00680           [19] jmp        28           ; to [48]
122A  DDC00100           [20] getglobal  3   7        ; -1828500651
122E  1D010200           [21] getglobal  4   8        ; OriginalValue
1232  5D410200           [22] getglobal  5   9        ; NewValue
1236  9D810100           [23] getglobal  6   6        ; TimeLength
123A  9C818100           [24] div        6   1   6  
123E  E2800002           [25] call       3   4   2  
1242  92008001           [26] move       2   3      
1246  E4804200           [27] self       3   0   266  ; -786111647
124A  5DC10200           [28] getglobal  5   11       ; Param
124E  92010001           [29] move       6   2      
1252  E2400002           [30] call       3   4   1  
1256  DDC00100           [31] getglobal  3   7        ; -1828500651
125A  1D010300           [32] getglobal  4   12       ; OriginalScale
125E  5D410300           [33] getglobal  5   13       ; NewScale
1262  9D810100           [34] getglobal  6   6        ; TimeLength
1266  9C818100           [35] div        6   1   6  
126A  E2800002           [36] call       3   4   2  
126E  92008001           [37] move       2   3      
1272  E4804300           [38] self       3   0   270  ; 1786666898
1276  52010001           [39] move       5   2      
127A  E2408001           [40] call       3   3   1  
127E  DDC00300           [41] getglobal  3   15       ; 1289681407
1282  E2808000           [42] call       3   1   2  
1286  43C08000           [43] add        1   1   3  
128A  DD800000           [44] getglobal  3   2        ; 538022378
128E  19410000           [45] loadk      4   1        ; 0
1292  E2400001           [46] call       3   2   1  
1296  1A00F87F           [47] jmp        -31          ; to [17]
129A  DD000400           [48] getglobal  3   16       ; destroyAtEnd
129E  D8000000           [49] test       3       0    ; to [51] if true
12A2  1A800180           [50] jmp        7            ; to [58]
12A6  DD400400           [51] getglobal  3   17       ; 1074689893
12AA  12010000           [52] move       4   0      
12AE  E2800001           [53] call       3   2   2  
12B2  D8400000           [54] test       3       1    ; to [56] if false
12B6  1A400080           [55] jmp        2            ; to [58]
12BA  E4804400           [56] self       3   0   274  ; -725453761
12BE  E2400001           [57] call       3   2   1  
12C2  1E008000           [58] return     0   1      
                         * constants:
12C6  13                 sizek (19)
12C7  04                 const type 4
12C8  06                 string size (6)
12C9  44656C617900       "Delay\0"
                         const [0]: "Delay"
12CF  03                 const type 3
12D0  00000000           const [1]: (0)
12D4  01                 const type 3
12D5  EA911120           const [2]: (538022378)
12D9  04                 const type 4
12DA  11                 string size (17)
12DB  6170706C79456E65+  "applyEne"
12E3  726779436F6C6F72+  "rgyColor"
12EB  00                 "\0"
                         const [3]: "applyEnergyColor"
12EC  04                 const type 4
12ED  11                 string size (17)
12EE  656E65726779436F+  "energyCo"
12F6  6C6F72506172616D+  "lorParam"
12FE  00                 "\0"
                         const [4]: "energyColorParam"
12FF  04                 const type 4
1300  0F                 string size (15)
1301  676574506172656E+  "getParen"
1309  74466972737400     "tFirst\0"
                         const [5]: "getParentFirst"
1310  04                 const type 4
1311  0B                 string size (11)
1312  54696D654C656E67+  "TimeLeng"
131A  746800             "th\0"
                         const [6]: "TimeLength"
131D  01                 const type 3
131E  554B0393           const [7]: (-1828500651)
1322  04                 const type 4
1323  0E                 string size (14)
1324  4F726967696E616C+  "Original"
132C  56616C756500       "Value\0"
                         const [8]: "OriginalValue"
1332  04                 const type 4
1333  09                 string size (9)
1334  4E657756616C7565+  "NewValue"
133C  00                 "\0"
                         const [9]: "NewValue"
133D  01                 const type 3
133E  61E324D1           const [10]: (-786111647)
1342  04                 const type 4
1343  06                 string size (6)
1344  506172616D00       "Param\0"
                         const [11]: "Param"
134A  04                 const type 4
134B  0E                 string size (14)
134C  4F726967696E616C+  "Original"
1354  5363616C6500       "Scale\0"
                         const [12]: "OriginalScale"
135A  04                 const type 4
135B  09                 string size (9)
135C  4E65775363616C65+  "NewScale"
1364  00                 "\0"
                         const [13]: "NewScale"
1365  01                 const type 3
1366  925F7E6A           const [14]: (1786666898)
136A  01                 const type 3
136B  FFF9DE4C           const [15]: (1289681407)
136F  04                 const type 4
1370  0D                 string size (13)
1371  64657374726F7941+  "destroyA"
1379  74456E6400         "tEnd\0"
                         const [16]: "destroyAtEnd"
137E  01                 const type 3
137F  65770E40           const [17]: (1074689893)
1383  01                 const type 3
1384  3F74C2D4           const [18]: (-725453761)
                         * functions:
1388  00                 sizep (0)
                         * lines:
1389  3A                 sizelineinfo (58)
                         [pc] (line)
138A  B7                 [01] (-73)
138B  00                 [02] (-73)
138C  00                 [03] (-73)
138D  00                 [04] (-72)
138E  B7                 [05] (-72)
138F  00                 [06] (-72)
1390  00                 [07] (-70)
1391  00                 [08] (-70)
1392  B7                 [09] (-70)
1393  00                 [10] (-69)
1394  00                 [11] (-69)
1395  00                 [12] (-69)
1396  B8                 [13] (-69)
1397  00                 [14] (-69)
1398  00                 [15] (-67)
1399  00                 [16] (-66)
139A  B8                 [17] (-65)
139B  00                 [18] (-65)
139C  00                 [19] (-65)
139D  00                 [20] (-64)
139E  B8                 [21] (-64)
139F  00                 [22] (-64)
13A0  00                 [23] (-64)
13A1  00                 [24] (-64)
13A2  BA                 [25] (-64)
13A3  00                 [26] (-64)
13A4  00                 [27] (-63)
13A5  00                 [28] (-63)
13A6  BA                 [29] (-63)
13A7  00                 [30] (-63)
13A8  00                 [31] (-62)
13A9  00                 [32] (-62)
13AA  BA                 [33] (-62)
13AB  00                 [34] (-62)
13AC  00                 [35] (-62)
13AD  00                 [36] (-62)
13AE  BB                 [37] (-62)
13AF  00                 [38] (-61)
13B0  00                 [39] (-61)
13B1  00                 [40] (-61)
13B2  BB                 [41] (-60)
13B3  00                 [42] (-60)
13B4  00                 [43] (-60)
13B5  00                 [44] (-59)
13B6  BB                 [45] (-59)
13B7  00                 [46] (-59)
13B8  00                 [47] (-59)
13B9  00                 [48] (-57)
13BA  BB                 [49] (-57)
13BB  00                 [50] (-57)
13BC  00                 [51] (-57)
13BD  00                 [52] (-57)
13BE  BB                 [53] (-57)
13BF  00                 [54] (-57)
13C0  00                 [55] (-57)
13C1  00                 [56] (-56)
13C2  BD                 [57] (-56)
13C3  00                 [58] (-54)
                         * locals:
1472  00                 sizelocvars (0)
                         * upvalues:
1473  00                 sizeupvalues (0)
                         ** end of function **

                         
1474                     ** function [3] definition (level 2)
                         ** start of function **
1474  00                 string size (0)
                         source name: (none)
1476  01                 line defined (204)
1477  EC                 last line defined (236)
1478  01                 nups (1)
1479  01                 numparams (1)
147A  01                 is_vararg (0)
147B  00                 maxstacksize (8)
                         * code:
147D  4C                 sizecode (76)
147E  5D000000           [01] getglobal  1   0        ; Delay
fail op	33
1482  21408080           [02] tforloop   0       1    ; to [4] if exit
1486  1A800080           [03] jmp        3            ; to [7]
148A  5D800000           [04] getglobal  1   2        ; 538022378
148E  9D000000           [05] getglobal  2   0        ; Delay
1492  62400001           [06] call       1   2   1  
1496  5DC00000           [07] getglobal  1   3        ; applyEnergyColor
149A  58000000           [08] test       1       0    ; to [10] if true
149E  1A000180           [09] jmp        5            ; to [15]
14A2  53000000           [10] getupval   1   0      
14A6  92000000           [11] move       2   0      
14AA  DD000100           [12] getglobal  3   4        ; energyColorParam
14AE  1D410100           [13] getglobal  4   5        ; getParentFirst
14B2  62400002           [14] call       1   4   1  
14B6  5D800100           [15] getglobal  1   6        ; showAtStart
14BA  58000000           [16] test       1       0    ; to [18] if true
14BE  1A800080           [17] jmp        3            ; to [21]
14C2  64C04100           [18] self       1   0   263  ; 2109594123
14C6  D7008000           [19] loadbool   3   1   0    ; true
14CA  62408001           [20] call       1   3   1  
14CE  59400000           [21] loadk      1   1        ; 0
14D2  86008001           [22] loadnil    2   3      
14D6  1D010200           [23] getglobal  4   8        ; TimeLength
fail op	21
14DA  15008100           [24] concat     0   1   4  
14DE  1A000880           [25] jmp        33           ; to [59]
14E2  1D410200           [26] getglobal  4   9        ; Peak
fail op	21
14E6  15008100           [27] concat     0   1   4  
14EA  1A800080           [28] jmp        3            ; to [32]
14EE  1D410200           [29] getglobal  4   9        ; Peak
14F2  9C008100           [30] div        2   1   4  
14F6  1A800180           [31] jmp        7            ; to [39]
14FA  1D410200           [32] getglobal  4   9        ; Peak
14FE  0D018100           [33] sub        4   1   4  
1502  5D010200           [34] getglobal  5   8        ; TimeLength
1506  9D410200           [35] getglobal  6   9        ; Peak
150A  4D818102           [36] sub        5   5   6  
150E  1C410102           [37] div        4   4   5  
1512  8D000185           [38] sub        2   266 4    ; 0
fail op	21
1516  15404001           [39] concat     0   2   257
151A  1A000080           [40] jmp        1            ; to [42]
151E  99400000           [41] loadk      2   1        ; 0
1522  1DC10200           [42] getglobal  4   11       ; -1828500651
1526  5D010300           [43] getglobal  5   12       ; ValleyValue
152A  9D410300           [44] getglobal  6   13       ; PeakValue
152E  D2010001           [45] move       7   2      
1532  22810002           [46] call       4   4   2  
1536  D2000002           [47] move       3   4      
153A  24814300           [48] self       4   0   270  ; -786111647
153E  9DC10300           [49] getglobal  6   15       ; Param
1542  D2018001           [50] move       7   3      
1546  22410002           [51] call       4   4   1  
154A  1D010400           [52] getglobal  4   16       ; 1289681407
154E  22818000           [53] call       4   1   2  
1552  43008100           [54] add        1   1   4  
1556  1D810000           [55] getglobal  4   2        ; 538022378
155A  59410000           [56] loadk      5   1        ; 0
155E  22410001           [57] call       4   2   1  
1562  1AC0F67F           [58] jmp        -36          ; to [23]
1566  1D410400           [59] getglobal  4   17       ; destroyAtEnd
156A  18010000           [60] test       4       0    ; to [62] if true
156E  1AC00180           [61] jmp        8            ; to [70]
1572  1D810400           [62] getglobal  4   18       ; 1074689893
1576  52010000           [63] move       5   0      
157A  22810001           [64] call       4   2   2  
157E  18410000           [65] test       4       1    ; to [67] if false
1582  1A800080           [66] jmp        3            ; to [70]
1586  24C14400           [67] self       4   0   275  ; -725453761
158A  22410001           [68] call       4   2   1  
158E  1A400180           [69] jmp        6            ; to [76]
1592  1D010500           [70] getglobal  4   20       ; hideAtEnd
1596  18010000           [71] test       4       0    ; to [73] if true
159A  1A800080           [72] jmp        3            ; to [76]
159E  24C14100           [73] self       4   0   263  ; 2109594123
15A2  97010000           [74] loadbool   6   0   0    ; false
15A6  22418001           [75] call       4   3   1  
15AA  1E008000           [76] return     0   1      
                         * constants:
15AE  15                 sizek (21)
15AF  04                 const type 4
15B0  06                 string size (6)
15B1  44656C617900       "Delay\0"
                         const [0]: "Delay"
15B7  03                 const type 3
15B8  00000000           const [1]: (0)
15BC  01                 const type 3
15BD  EA911120           const [2]: (538022378)
15C1  04                 const type 4
15C2  11                 string size (17)
15C3  6170706C79456E65+  "applyEne"
15CB  726779436F6C6F72+  "rgyColor"
15D3  00                 "\0"
                         const [3]: "applyEnergyColor"
15D4  04                 const type 4
15D5  11                 string size (17)
15D6  656E65726779436F+  "energyCo"
15DE  6C6F72506172616D+  "lorParam"
15E6  00                 "\0"
                         const [4]: "energyColorParam"
15E7  04                 const type 4
15E8  0F                 string size (15)
15E9  676574506172656E+  "getParen"
15F1  74466972737400     "tFirst\0"
                         const [5]: "getParentFirst"
15F8  04                 const type 4
15F9  0C                 string size (12)
15FA  73686F7741745374+  "showAtSt"
1602  61727400           "art\0"
                         const [6]: "showAtStart"
1606  01                 const type 3
1607  0BDABD7D           const [7]: (2109594123)
160B  04                 const type 4
160C  0B                 string size (11)
160D  54696D654C656E67+  "TimeLeng"
1615  746800             "th\0"
                         const [8]: "TimeLength"
1618  04                 const type 4
1619  05                 string size (5)
161A  5065616B00         "Peak\0"
                         const [9]: "Peak"
161F  03                 const type 3
1620  0000803F           const [10]: (0)
1624  01                 const type 3
1625  554B0393           const [11]: (-1828500651)
1629  04                 const type 4
162A  0C                 string size (12)
162B  56616C6C65795661+  "ValleyVa"
1633  6C756500           "lue\0"
                         const [12]: "ValleyValue"
1637  04                 const type 4
1638  0A                 string size (10)
1639  5065616B56616C75+  "PeakValu"
1641  6500               "e\0"
                         const [13]: "PeakValue"
1643  01                 const type 3
1644  61E324D1           const [14]: (-786111647)
1648  04                 const type 4
1649  06                 string size (6)
164A  506172616D00       "Param\0"
                         const [15]: "Param"
1650  01                 const type 3
1651  FFF9DE4C           const [16]: (1289681407)
1655  04                 const type 4
1656  0D                 string size (13)
1657  64657374726F7941+  "destroyA"
165F  74456E6400         "tEnd\0"
                         const [17]: "destroyAtEnd"
1664  01                 const type 3
1665  65770E40           const [18]: (1074689893)
1669  01                 const type 3
166A  3F74C2D4           const [19]: (-725453761)
166E  04                 const type 4
166F  0A                 string size (10)
1670  686964654174456E+  "hideAtEn"
1678  6400               "d\0"
                         const [20]: "hideAtEnd"
                         * functions:
167A  00                 sizep (0)
                         * lines:
167B  4C                 sizelineinfo (76)
                         [pc] (line)
167C  CD                 [01] (-51)
167D  00                 [02] (-51)
167E  00                 [03] (-51)
167F  00                 [04] (-50)
1680  CD                 [05] (-50)
1681  00                 [06] (-50)
1682  00                 [07] (-48)
1683  00                 [08] (-48)
1684  CD                 [09] (-48)
1685  00                 [10] (-47)
1686  00                 [11] (-47)
1687  00                 [12] (-47)
1688  CE                 [13] (-47)
1689  00                 [14] (-47)
168A  00                 [15] (-45)
168B  00                 [16] (-45)
168C  CE                 [17] (-45)
168D  00                 [18] (-44)
168E  00                 [19] (-44)
168F  00                 [20] (-44)
1690  CE                 [21] (-42)
1691  00                 [22] (-41)
1692  00                 [23] (-39)
1693  00                 [24] (-39)
1694  D0                 [25] (-39)
1695  00                 [26] (-38)
1696  00                 [27] (-38)
1697  00                 [28] (-38)
1698  D0                 [29] (-37)
1699  00                 [30] (-37)
169A  00                 [31] (-37)
169B  00                 [32] (-35)
169C  D0                 [33] (-35)
169D  00                 [34] (-35)
169E  00                 [35] (-35)
169F  00                 [36] (-35)
16A0  D1                 [37] (-35)
16A1  00                 [38] (-35)
16A2  00                 [39] (-33)
16A3  00                 [40] (-33)
16A4  D1                 [41] (-32)
16A5  00                 [42] (-30)
16A6  00                 [43] (-30)
16A7  00                 [44] (-30)
16A8  D1                 [45] (-30)
16A9  00                 [46] (-30)
16AA  00                 [47] (-30)
16AB  00                 [48] (-29)
16AC  D1                 [49] (-29)
16AD  00                 [50] (-29)
16AE  00                 [51] (-29)
16AF  00                 [52] (-28)
16B0  D1                 [53] (-28)
16B1  00                 [54] (-28)
16B2  00                 [55] (-27)
16B3  00                 [56] (-27)
16B4  D3                 [57] (-27)
16B5  00                 [58] (-27)
16B6  00                 [59] (-25)
16B7  00                 [60] (-25)
16B8  D3                 [61] (-25)
16B9  00                 [62] (-25)
16BA  00                 [63] (-25)
16BB  00                 [64] (-25)
16BC  D3                 [65] (-25)
16BD  00                 [66] (-25)
16BE  00                 [67] (-24)
16BF  00                 [68] (-24)
16C0  D4                 [69] (-24)
16C1  00                 [70] (-23)
16C2  00                 [71] (-23)
16C3  00                 [72] (-23)
16C4  D4                 [73] (-22)
16C5  00                 [74] (-22)
16C6  00                 [75] (-22)
16C7  00                 [76] (-20)
                         * locals:
17AC  00                 sizelocvars (0)
                         * upvalues:
17AD  00                 sizeupvalues (0)
                         ** end of function **

                         
17AE                     ** function [4] definition (level 2)
                         ** start of function **
17AE  00                 string size (0)
                         source name: (none)
17B0  01                 line defined (238)
17B1  A3                 last line defined (291)
17B2  02                 nups (1)
17B3  01                 numparams (1)
17B4  01                 is_vararg (0)
17B5  00                 maxstacksize (17)
                         * code:
17B7  7F                 sizecode (127)
17B8  5D000000           [001] getglobal  1   0        ; Delay
fail op	33
17BC  21408080           [002] tforloop   0       1    ; to [4] if exit
17C0  1A800080           [003] jmp        3            ; to [7]
17C4  5D800000           [004] getglobal  1   2        ; 538022378
17C8  9D000000           [005] getglobal  2   0        ; Delay
17CC  62400001           [006] call       1   2   1  
17D0  5DC00000           [007] getglobal  1   3        ; applyToParent
17D4  58000000           [008] test       1       0    ; to [10] if true
17D8  1AC00180           [009] jmp        8            ; to [18]
17DC  64004100           [010] self       1   0   260  ; -1870903749
17E0  62800001           [011] call       1   2   2  
17E4  9D400100           [012] getglobal  2   5        ; 1074689893
17E8  D2008000           [013] move       3   1      
17EC  A2800001           [014] call       2   2   2  
17F0  98400000           [015] test       2       1    ; to [17] if false
17F4  1A000080           [016] jmp        1            ; to [18]
17F8  12008000           [017] move       0   1      
17FC  9D800100           [018] getglobal  2   6        ; applyEnergyColor
1800  98000000           [019] test       2       0    ; to [21] if true
1804  1A000180           [020] jmp        5            ; to [26]
1808  93000000           [021] getupval   2   0      
180C  D2000000           [022] move       3   0      
1810  1DC10100           [023] getglobal  4   7        ; energyColorParam
1814  5D010200           [024] getglobal  5   8        ; getParentFirst
1818  A2400002           [025] call       2   4   1  
181C  99400000           [026] loadk      2   1        ; 0
1820  C6000002           [027] loadnil    3   4      
1824  5D410200           [028] getglobal  5   9        ; ValleyValue
1828  9D810200           [029] getglobal  6   10       ; checkInstigator
fail op	35
182C  23C04203           [030] close      0  
1830  1A800A80           [031] jmp        43           ; to [75]
1834  A4014300           [032] self       6   0   268  ; 129677183
1838  A2810001           [033] call       6   2   2  
183C  C6018003           [034] loadnil    7   7      
1840  19420300           [035] loadk      8   13       ; 0
1844  46028004           [036] loadnil    9   9      
1848  9D420100           [037] getglobal  10  5        ; 1074689893
184C  D2020003           [038] move       11  6      
1850  A2820001           [039] call       10  2   2  
1854  98420000           [040] test       10      1    ; to [42] if false
1858  1A800380           [041] jmp        15           ; to [57]
185C  A4824303           [042] self       10  6   270  ; -1917464545
1860  A2820001           [043] call       10  2   2  
1864  52020005           [044] move       9   10     
1868  A4C2C304           [045] self       10  9   271  ; 1769516121
186C  A2820001           [046] call       10  2   2  
1870  D2010005           [047] move       7   10     
1874  9D020400           [048] getglobal  10  16       ; 1668611480
1878  E442C403           [049] self       11  7   273  ; 345555894
187C  5D830400           [050] getglobal  13  18       ; instigatorPower
1880  E2828001           [051] call       11  3   2  
1884  19430300           [052] loadk      12  13       ; 0
1888  5DC30400           [053] getglobal  13  19       ; instigatorDuration
188C  4A038006           [054] len        13  13     
1890  A2820002           [055] call       10  4   2  
1894  12020005           [056] move       8   10     
1898  9D020500           [057] getglobal  10  20       ; TimeLength
189C  DD420500           [058] getglobal  11  21       ; PeakEnd
18A0  8DC20205           [059] sub        10  10  11 
18A4  E4824303           [060] self       11  6   270  ; -1917464545
18A8  E2820001           [061] call       11  2   2  
18AC  E482C505           [062] self       11  11  278  ; -940929887
18B0  5DC30400           [063] getglobal  13  19       ; instigatorDuration
18B4  4E038206           [064] gettable   13  13  8  
18B8  9DC30500           [065] getglobal  14  23       ; Game
18BC  8E034607           [066] gettable   14  14  280  ; "AVATAR_ABILITY_DURATION"
18C0  E443C603           [067] self       15  7   281  ; -491574171
18C4  E2830001           [068] call       15  2   2  
18C8  12048003           [069] move       16  7      
18CC  E2820003           [070] call       11  6   2  
18D0  E0020500           [071] setglobal  11  20       ; TimeLength
18D4  DD020500           [072] getglobal  11  20       ; TimeLength
18D8  CD828205           [073] sub        11  11  10 
18DC  E0420500           [074] setglobal  11  21       ; PeakEnd
18E0  DD020500           [075] getglobal  11  20       ; TimeLength
fail op	21
18E4  15C00201           [076] concat     0   2   11 
18E8  1A800980           [077] jmp        39           ; to [117]
18EC  DD820600           [078] getglobal  11  26       ; Peak
fail op	21
18F0  15C00201           [079] concat     0   2   11 
18F4  1A800080           [080] jmp        3            ; to [84]
18F8  DD820600           [081] getglobal  11  26       ; Peak
18FC  DCC00201           [082] div        3   2   11 
1900  1A000380           [083] jmp        13           ; to [97]
1904  DD420500           [084] getglobal  11  21       ; PeakEnd
fail op	21
1908  15C00201           [085] concat     0   2   11 
190C  1A400080           [086] jmp        2            ; to [89]
1910  D9400300           [087] loadk      3   13       ; 0
1914  1AC00180           [088] jmp        8            ; to [97]
1918  5DC10600           [089] getglobal  5   27       ; ValleyEndValue
191C  DD420500           [090] getglobal  11  21       ; PeakEnd
1920  CDC20201           [091] sub        11  2   11 
1924  1D030500           [092] getglobal  12  20       ; TimeLength
1928  5D430500           [093] getglobal  13  21       ; PeakEnd
192C  0D430306           [094] sub        12  12  13 
1930  DC028305           [095] div        11  11  12 
1934  CDC08286           [096] sub        3   269 11   ; 0
fail op	21
1938  1540C001           [097] concat     0   3   257
193C  1A000080           [098] jmp        1            ; to [100]
1940  D9400000           [099] loadk      3   1        ; 0
1944  DD020700           [100] getglobal  11  28       ; -1828500651
1948  12038002           [101] move       12  5      
194C  5D430700           [102] getglobal  13  29       ; PeakValue
1950  92038001           [103] move       14  3      
1954  E2820002           [104] call       11  4   2  
1958  12018005           [105] move       4   11     
195C  E4824700           [106] self       11  0   286  ; -786111647
1960  5DC30700           [107] getglobal  13  31       ; Param
1964  92030002           [108] move       14  4      
1968  E2420002           [109] call       11  4   1  
196C  DD020800           [110] getglobal  11  32       ; 1289681407
1970  E2828000           [111] call       11  1   2  
1974  83C00201           [112] add        2   2   11 
1978  DD820000           [113] getglobal  11  2        ; 538022378
197C  19430000           [114] loadk      12  1        ; 0
1980  E2420001           [115] call       11  2   1  
1984  1A40F57F           [116] jmp        -42          ; to [75]
1988  DD420800           [117] getglobal  11  33       ; destroyAtEnd
198C  D8020000           [118] test       11      0    ; to [120] if true
1990  1A800180           [119] jmp        7            ; to [127]
1994  DD420100           [120] getglobal  11  5        ; 1074689893
1998  12030000           [121] move       12  0      
199C  E2820001           [122] call       11  2   2  
19A0  D8420000           [123] test       11      1    ; to [125] if false
19A4  1A400080           [124] jmp        2            ; to [127]
19A8  E4824800           [125] self       11  0   290  ; -725453761
19AC  E2420001           [126] call       11  2   1  
19B0  1E008000           [127] return     0   1      
                         * constants:
19B4  23                 sizek (35)
19B5  04                 const type 4
19B6  06                 string size (6)
19B7  44656C617900       "Delay\0"
                         const [0]: "Delay"
19BD  03                 const type 3
19BE  00000000           const [1]: (0)
19C2  01                 const type 3
19C3  EA911120           const [2]: (538022378)
19C7  04                 const type 4
19C8  0E                 string size (14)
19C9  6170706C79546F50+  "applyToP"
19D1  6172656E7400       "arent\0"
                         const [3]: "applyToParent"
19D7  01                 const type 3
19D8  3B467C90           const [4]: (-1870903749)
19DC  01                 const type 3
19DD  65770E40           const [5]: (1074689893)
19E1  04                 const type 4
19E2  11                 string size (17)
19E3  6170706C79456E65+  "applyEne"
19EB  726779436F6C6F72+  "rgyColor"
19F3  00                 "\0"
                         const [6]: "applyEnergyColor"
19F4  04                 const type 4
19F5  11                 string size (17)
19F6  656E65726779436F+  "energyCo"
19FE  6C6F72506172616D+  "lorParam"
1A06  00                 "\0"
                         const [7]: "energyColorParam"
1A07  04                 const type 4
1A08  0F                 string size (15)
1A09  676574506172656E+  "getParen"
1A11  74466972737400     "tFirst\0"
                         const [8]: "getParentFirst"
1A18  04                 const type 4
1A19  0C                 string size (12)
1A1A  56616C6C65795661+  "ValleyVa"
1A22  6C756500           "lue\0"
                         const [9]: "ValleyValue"
1A26  04                 const type 4
1A27  10                 string size (16)
1A28  636865636B496E73+  "checkIns"
1A30  74696761746F7200   "tigator\0"
                         const [10]: "checkInstigator"
1A38  01                 const type 3
1A39  01000000           const [11]: (1)
1A3D  01                 const type 3
1A3E  7FB7BA07           const [12]: (129677183)
1A42  03                 const type 3
1A43  0000803F           const [13]: (0)
1A47  01                 const type 3
1A48  1FD0B58D           const [14]: (-1917464545)
1A4C  01                 const type 3
1A4D  59AC7869           const [15]: (1769516121)
1A51  01                 const type 3
1A52  98FD7463           const [16]: (1668611480)
1A56  01                 const type 3
1A57  B6C39814           const [17]: (345555894)
1A5B  04                 const type 4
1A5C  10                 string size (16)
1A5D  696E737469676174+  "instigat"
1A65  6F72506F77657200   "orPower\0"
                         const [18]: "instigatorPower"
1A6D  04                 const type 4
1A6E  13                 string size (19)
1A6F  696E737469676174+  "instigat"
1A77  6F72447572617469+  "orDurati"
1A7F  6F6E00             "on\0"
                         const [19]: "instigatorDuration"
1A82  04                 const type 4
1A83  0B                 string size (11)
1A84  54696D654C656E67+  "TimeLeng"
1A8C  746800             "th\0"
                         const [20]: "TimeLength"
1A8F  04                 const type 4
1A90  08                 string size (8)
1A91  5065616B456E6400   "PeakEnd\0"
                         const [21]: "PeakEnd"
1A99  01                 const type 3
1A9A  A18CEAC7           const [22]: (-940929887)
1A9E  04                 const type 4
1A9F  05                 string size (5)
1AA0  47616D6500         "Game\0"
                         const [23]: "Game"
1AA5  04                 const type 4
1AA6  18                 string size (24)
1AA7  4156415441525F41+  "AVATAR_A"
1AAF  42494C4954595F44+  "BILITY_D"
1AB7  55524154494F4E00   "URATION\0"
                         const [24]: "AVATAR_ABILITY_DURATION"
1ABF  01                 const type 3
1AC0  652CB3E2           const [25]: (-491574171)
1AC4  04                 const type 4
1AC5  05                 string size (5)
1AC6  5065616B00         "Peak\0"
                         const [26]: "Peak"
1ACB  04                 const type 4
1ACC  0F                 string size (15)
1ACD  56616C6C6579456E+  "ValleyEn"
1AD5  6456616C756500     "dValue\0"
                         const [27]: "ValleyEndValue"
1ADC  01                 const type 3
1ADD  554B0393           const [28]: (-1828500651)
1AE1  04                 const type 4
1AE2  0A                 string size (10)
1AE3  5065616B56616C75+  "PeakValu"
1AEB  6500               "e\0"
                         const [29]: "PeakValue"
1AED  01                 const type 3
1AEE  61E324D1           const [30]: (-786111647)
1AF2  04                 const type 4
1AF3  06                 string size (6)
1AF4  506172616D00       "Param\0"
                         const [31]: "Param"
1AFA  01                 const type 3
1AFB  FFF9DE4C           const [32]: (1289681407)
1AFF  04                 const type 4
1B00  0D                 string size (13)
1B01  64657374726F7941+  "destroyA"
1B09  74456E6400         "tEnd\0"
                         const [33]: "destroyAtEnd"
1B0E  01                 const type 3
1B0F  3F74C2D4           const [34]: (-725453761)
                         * functions:
1B13  00                 sizep (0)
                         * lines:
1B14  7F                 sizelineinfo (127)
                         [pc] (line)
1B15  EF                 [001] (-17)
1B16  00                 [002] (-17)
1B17  00                 [003] (-17)
1B18  00                 [004] (-16)
1B19  EF                 [005] (-16)
1B1A  00                 [006] (-16)
1B1B  00                 [007] (-14)
1B1C  00                 [008] (-14)
1B1D  EF                 [009] (-14)
1B1E  00                 [010] (-13)
1B1F  00                 [011] (-13)
1B20  00                 [012] (-12)
1B21  F0                 [013] (-12)
1B22  00                 [014] (-12)
1B23  00                 [015] (-12)
1B24  00                 [016] (-12)
1B25  F0                 [017] (-11)
1B26  00                 [018] (-8)
1B27  00                 [019] (-8)
1B28  00                 [020] (-8)
1B29  F0                 [021] (-7)
1B2A  00                 [022] (-7)
1B2B  00                 [023] (-7)
1B2C  00                 [024] (-7)
1B2D  F2                 [025] (-7)
1B2E  00                 [026] (-5)
1B2F  00                 [027] (-4)
1B30  00                 [028] (-2)
1B31  F2                 [029] (-1)
1B32  00                 [030] (-1)
1B33  00                 [031] (-1)
1B34  00                 [032] (0)
1B35  F2                 [033] (0)
1B36  00                 [034] (1)
1B37  00                 [035] (2)
1B38  00                 [036] (3)
1B39  F3                 [037] (4)
1B3A  00                 [038] (4)
1B3B  00                 [039] (4)
1B3C  00                 [040] (4)
1B3D  F3                 [041] (4)
1B3E  00                 [042] (5)
1B3F  00                 [043] (5)
1B40  00                 [044] (5)
1B41  F4                 [045] (6)
1B42  00                 [046] (6)
1B43  00                 [047] (6)
1B44  00                 [048] (7)
1B45  F4                 [049] (7)
1B46  00                 [050] (7)
1B47  00                 [051] (7)
1B48  00                 [052] (7)
1B49  F4                 [053] (7)
1B4A  00                 [054] (7)
1B4B  00                 [055] (7)
1B4C  00                 [056] (7)
1B4D  F4                 [057] (9)
1B4E  00                 [058] (9)
1B4F  00                 [059] (9)
1B50  00                 [060] (10)
1B51  F4                 [061] (10)
1B52  00                 [062] (10)
1B53  00                 [063] (10)
1B54  00                 [064] (10)
1B55  F5                 [065] (10)
1B56  00                 [066] (10)
1B57  00                 [067] (10)
1B58  00                 [068] (10)
1B59  F8                 [069] (10)
1B5A  00                 [070] (10)
1B5B  00                 [071] (10)
1B5C  00                 [072] (11)
1B5D  F8                 [073] (11)
1B5E  00                 [074] (11)
1B5F  00                 [075] (14)
1B60  00                 [076] (14)
1B61  F8                 [077] (14)
1B62  00                 [078] (15)
1B63  00                 [079] (15)
1B64  00                 [080] (15)
1B65  F9                 [081] (16)
1B66  00                 [082] (16)
1B67  00                 [083] (16)
1B68  00                 [084] (17)
1B69  F9                 [085] (17)
1B6A  00                 [086] (17)
1B6B  00                 [087] (18)
1B6C  00                 [088] (18)
1B6D  F9                 [089] (20)
1B6E  00                 [090] (21)
1B6F  00                 [091] (21)
1B70  00                 [092] (21)
1B71  F9                 [093] (21)
1B72  00                 [094] (21)
1B73  00                 [095] (21)
1B74  00                 [096] (21)
1B75  F9                 [097] (24)
1B76  00                 [098] (24)
1B77  00                 [099] (25)
1B78  00                 [100] (27)
1B79  FB                 [101] (27)
1B7A  00                 [102] (27)
1B7B  00                 [103] (27)
1B7C  00                 [104] (27)
1B7D  FC                 [105] (27)
1B7E  00                 [106] (28)
1B7F  00                 [107] (28)
1B80  00                 [108] (28)
1B81  FE                 [109] (28)
1B82  00                 [110] (29)
1B83  00                 [111] (29)
1B84  00                 [112] (29)
1B85  FF                 [113] (30)
1B86  00                 [114] (30)
1B87  00                 [115] (30)
1B88  00                 [116] (30)
1B89  FF                 [117] (32)
1B8A  00                 [118] (32)
1B8B  00                 [119] (32)
1B8C  00                 [120] (32)
1B8D  FF                 [121] (32)
1B8E  00                 [122] (32)
1B8F  00                 [123] (32)
1B90  00                 [124] (32)
1B91  00                 [125] (33)
1B92  01                 [126] (33)
1B93  00                 [127] (35)
                         * locals:
1D11  00                 sizelocvars (0)
                         * upvalues:
1D12  00                 sizeupvalues (0)
                         ** end of function **

                         
1D13                     ** function [5] definition (level 2)
                         ** start of function **
1D13  00                 string size (0)
                         source name: (none)
1D15  02                 line defined (293)
1D16  D0                 last line defined (336)
1D17  02                 nups (0)
1D18  00                 numparams (0)
1D19  00                 is_vararg (0)
1D1A  00                 maxstacksize (31)
                         * code:
1D1C  79                 sizecode (121)
1D1D  1D000000           [001] getglobal  0   0        ; Delay
fail op	33
1D21  21008080           [002] tforloop   0       0    ; to [4] if exit
1D25  1A800080           [003] jmp        3            ; to [7]
1D29  1D800000           [004] getglobal  0   2        ; 538022378
1D2D  5D000000           [005] getglobal  1   0        ; Delay
1D31  22400001           [006] call       0   2   1  
1D35  1DC00000           [007] getglobal  0   3        ; showAtStart
1D39  18000000           [008] test       0       0    ; to [10] if true
1D3D  1AC00380           [009] jmp        16           ; to [26]
1D41  1D000100           [010] getglobal  0   4        ; 1074689893
1D45  5D400100           [011] getglobal  1   5        ; TargetDeco
1D49  22800001           [012] call       0   2   2  
1D4D  18400000           [013] test       0       1    ; to [15] if false
1D51  1A800280           [014] jmp        11           ; to [26]
1D55  19800100           [015] loadk      0   6        ; 0
1D59  5D400100           [016] getglobal  1   5        ; TargetDeco
1D5D  4A008000           [017] len        1   1      
1D61  99800100           [018] loadk      2   6        ; 0
1D65  10000180           [019] forprep    0   5        ; to [25]
1D69  1D410100           [020] getglobal  4   5        ; TargetDeco
1D6D  0EC10002           [021] gettable   4   4   3  
1D71  64C14102           [022] self       5   4   263  ; 2109594123
1D75  D7018000           [023] loadbool   7   1   0    ; true
1D79  62418001           [024] call       5   3   1  
1D7D  1440FE7F           [025] forloop    0   -6       ; to [20] if loop
1D81  59410000           [026] loadk      5   1        ; 0
1D85  86010003           [027] loadnil    6   6      
1D89  DD010200           [028] getglobal  7   8        ; TimeLength
fail op	21
1D8D  15C08102           [029] concat     0   5   7  
1D91  1AC00C80           [030] jmp        52           ; to [83]
1D95  DD410200           [031] getglobal  7   9        ; -1828500651
1D99  1D820200           [032] getglobal  8   10       ; OriginalValue
1D9D  5DC20200           [033] getglobal  9   11       ; NewValue
1DA1  9D020200           [034] getglobal  10  8        ; TimeLength
1DA5  9C828202           [035] div        10  5   10 
1DA9  E2810002           [036] call       7   4   2  
1DAD  92018003           [037] move       6   7      
1DB1  DD010100           [038] getglobal  7   4        ; 1074689893
1DB5  1D420100           [039] getglobal  8   5        ; TargetDeco
1DB9  E2810001           [040] call       7   2   2  
1DBD  D8410000           [041] test       7       1    ; to [43] if false
1DC1  1A000880           [042] jmp        33           ; to [76]
1DC5  D9810100           [043] loadk      7   6        ; 0
1DC9  1D420100           [044] getglobal  8   5        ; TargetDeco
1DCD  0A020004           [045] len        8   8      
1DD1  59820100           [046] loadk      9   6        ; 0
1DD5  D0810680           [047] forprep    7   27       ; to [75]
1DD9  DD420100           [048] getglobal  11  5        ; TargetDeco
1DDD  CE828205           [049] gettable   11  11  10 
1DE1  2403C305           [050] self       12  11  268  ; -786111647
1DE5  9D430300           [051] getglobal  14  13       ; Param
1DE9  D2030003           [052] move       15  6      
1DED  22430002           [053] call       12  4   1  
1DF1  1D830300           [054] getglobal  12  14       ; applyToChildren
1DF5  18030000           [055] test       12      0    ; to [57] if true
1DF9  1A400480           [056] jmp        18           ; to [75]
1DFD  24C3C305           [057] self       12  11  271  ; 366271214
1E01  9D030400           [058] getglobal  14  16       ; gDecorationType
1E05  22838001           [059] call       12  3   2  
1E09  59830100           [060] loadk      13  6        ; 0
1E0D  8A030006           [061] len        14  12     
1E11  D9830100           [062] loadk      15  6        ; 0
1E15  50430280           [063] forprep    13  10       ; to [74]
1E19  4E040406           [064] gettable   17  12  16 
1E1D  9D040100           [065] getglobal  18  4        ; 1074689893
1E21  D2048008           [066] move       19  17     
1E25  A2840001           [067] call       18  2   2  
1E29  98440000           [068] test       18      1    ; to [70] if false
1E2D  1AC00080           [069] jmp        4            ; to [74]
1E31  A404C308           [070] self       18  17  268  ; -786111647
1E35  1D450300           [071] getglobal  20  13       ; Param
1E39  52050003           [072] move       21  6      
1E3D  A2440002           [073] call       18  4   1  
1E41  5403FD7F           [074] forloop    13  -11      ; to [64] if loop
1E45  D4C1F87F           [075] forloop    7   -28      ; to [48] if loop
1E49  9D440400           [076] getglobal  18  17       ; 1289681407
1E4D  A2848000           [077] call       18  1   2  
1E51  43818402           [078] add        5   5   18 
1E55  9D840000           [079] getglobal  18  2        ; 538022378
1E59  D9440000           [080] loadk      19  1        ; 0
1E5D  A2440001           [081] call       18  2   1  
1E61  1A00F27F           [082] jmp        -55          ; to [28]
1E65  9D840400           [083] getglobal  18  18       ; destroyAtEnd
1E69  98040000           [084] test       18      0    ; to [86] if true
1E6D  1AC00380           [085] jmp        16           ; to [102]
1E71  9D040100           [086] getglobal  18  4        ; 1074689893
1E75  DD440100           [087] getglobal  19  5        ; TargetDeco
1E79  A2840001           [088] call       18  2   2  
1E7D  98440000           [089] test       18      1    ; to [91] if false
1E81  1A800280           [090] jmp        11           ; to [102]
1E85  99840100           [091] loadk      18  6        ; 0
1E89  DD440100           [092] getglobal  19  5        ; TargetDeco
1E8D  CA048009           [093] len        19  19     
1E91  19850100           [094] loadk      20  6        ; 0
1E95  90C40080           [095] forprep    18  4        ; to [100]
1E99  9D450100           [096] getglobal  22  5        ; TargetDeco
1E9D  8E45050B           [097] gettable   22  22  21 
1EA1  E4C5440B           [098] self       23  22  275  ; -725453761
1EA5  E2450001           [099] call       23  2   1  
1EA9  9484FE7F           [100] forloop    18  -5       ; to [96] if loop
1EAD  1A800480           [101] jmp        19           ; to [121]
1EB1  DD050500           [102] getglobal  23  20       ; hideAtEnd
1EB5  D8050000           [103] test       23      0    ; to [105] if true
1EB9  1AC00380           [104] jmp        16           ; to [121]
1EBD  DD050100           [105] getglobal  23  4        ; 1074689893
1EC1  1D460100           [106] getglobal  24  5        ; TargetDeco
1EC5  E2850001           [107] call       23  2   2  
1EC9  D8450000           [108] test       23      1    ; to [110] if false
1ECD  1A800280           [109] jmp        11           ; to [121]
1ED1  D9850100           [110] loadk      23  6        ; 0
1ED5  1D460100           [111] getglobal  24  5        ; TargetDeco
1ED9  0A06000C           [112] len        24  24     
1EDD  59860100           [113] loadk      25  6        ; 0
1EE1  D0050180           [114] forprep    23  5        ; to [120]
1EE5  DD460100           [115] getglobal  27  5        ; TargetDeco
1EE9  CE86860D           [116] gettable   27  27  26 
1EED  24C7C10D           [117] self       28  27  263  ; 2109594123
1EF1  97070000           [118] loadbool   30  0   0    ; false
1EF5  22478001           [119] call       28  3   1  
1EF9  D445FE7F           [120] forloop    23  -6       ; to [115] if loop
1EFD  1E008000           [121] return     0   1      
                         * constants:
1F01  15                 sizek (21)
1F02  04                 const type 4
1F03  06                 string size (6)
1F04  44656C617900       "Delay\0"
                         const [0]: "Delay"
1F0A  03                 const type 3
1F0B  00000000           const [1]: (0)
1F0F  01                 const type 3
1F10  EA911120           const [2]: (538022378)
1F14  04                 const type 4
1F15  0C                 string size (12)
1F16  73686F7741745374+  "showAtSt"
1F1E  61727400           "art\0"
                         const [3]: "showAtStart"
1F22  01                 const type 3
1F23  65770E40           const [4]: (1074689893)
1F27  04                 const type 4
1F28  0B                 string size (11)
1F29  5461726765744465+  "TargetDe"
1F31  636F00             "co\0"
                         const [5]: "TargetDeco"
1F34  03                 const type 3
1F35  0000803F           const [6]: (0)
1F39  01                 const type 3
1F3A  0BDABD7D           const [7]: (2109594123)
1F3E  04                 const type 4
1F3F  0B                 string size (11)
1F40  54696D654C656E67+  "TimeLeng"
1F48  746800             "th\0"
                         const [8]: "TimeLength"
1F4B  01                 const type 3
1F4C  554B0393           const [9]: (-1828500651)
1F50  04                 const type 4
1F51  0E                 string size (14)
1F52  4F726967696E616C+  "Original"
1F5A  56616C756500       "Value\0"
                         const [10]: "OriginalValue"
1F60  04                 const type 4
1F61  09                 string size (9)
1F62  4E657756616C7565+  "NewValue"
1F6A  00                 "\0"
                         const [11]: "NewValue"
1F6B  01                 const type 3
1F6C  61E324D1           const [12]: (-786111647)
1F70  04                 const type 4
1F71  06                 string size (6)
1F72  506172616D00       "Param\0"
                         const [13]: "Param"
1F78  04                 const type 4
1F79  10                 string size (16)
1F7A  6170706C79546F43+  "applyToC"
1F82  68696C6472656E00   "hildren\0"
                         const [14]: "applyToChildren"
1F8A  01                 const type 3
1F8B  EEDAD415           const [15]: (366271214)
1F8F  04                 const type 4
1F90  10                 string size (16)
1F91  674465636F726174+  "gDecorat"
1F99  696F6E5479706500   "ionType\0"
                         const [16]: "gDecorationType"
1FA1  01                 const type 3
1FA2  FFF9DE4C           const [17]: (1289681407)
1FA6  04                 const type 4
1FA7  0D                 string size (13)
1FA8  64657374726F7941+  "destroyA"
1FB0  74456E6400         "tEnd\0"
                         const [18]: "destroyAtEnd"
1FB5  01                 const type 3
1FB6  3F74C2D4           const [19]: (-725453761)
1FBA  04                 const type 4
1FBB  0A                 string size (10)
1FBC  686964654174456E+  "hideAtEn"
1FC4  6400               "d\0"
                         const [20]: "hideAtEnd"
                         * functions:
1FC6  00                 sizep (0)
                         * lines:
1FC7  79                 sizelineinfo (121)
                         [pc] (line)
1FC8  26                 [001] (38)
1FC9  01                 [002] (38)
1FCA  00                 [003] (38)
1FCB  00                 [004] (39)
1FCC  26                 [005] (39)
1FCD  01                 [006] (39)
1FCE  00                 [007] (41)
1FCF  00                 [008] (41)
1FD0  26                 [009] (41)
1FD1  01                 [010] (41)
1FD2  00                 [011] (41)
1FD3  00                 [012] (41)
1FD4  27                 [013] (41)
1FD5  01                 [014] (41)
1FD6  00                 [015] (42)
1FD7  00                 [016] (42)
1FD8  27                 [017] (42)
1FD9  01                 [018] (42)
1FDA  00                 [019] (42)
1FDB  00                 [020] (43)
1FDC  27                 [021] (43)
1FDD  01                 [022] (44)
1FDE  00                 [023] (44)
1FDF  00                 [024] (44)
1FE0  29                 [025] (42)
1FE1  01                 [026] (47)
1FE2  00                 [027] (48)
1FE3  00                 [028] (49)
1FE4  29                 [029] (49)
1FE5  01                 [030] (49)
1FE6  00                 [031] (50)
1FE7  00                 [032] (50)
1FE8  29                 [033] (50)
1FE9  01                 [034] (50)
1FEA  00                 [035] (50)
1FEB  00                 [036] (50)
1FEC  29                 [037] (50)
1FED  01                 [038] (51)
1FEE  00                 [039] (51)
1FEF  00                 [040] (51)
1FF0  29                 [041] (51)
1FF1  01                 [042] (51)
1FF2  00                 [043] (52)
1FF3  00                 [044] (52)
1FF4  29                 [045] (52)
1FF5  01                 [046] (52)
1FF6  00                 [047] (52)
1FF7  00                 [048] (53)
1FF8  29                 [049] (53)
1FF9  01                 [050] (54)
1FFA  00                 [051] (54)
1FFB  00                 [052] (54)
1FFC  29                 [053] (54)
1FFD  01                 [054] (55)
1FFE  00                 [055] (55)
1FFF  00                 [056] (55)
2000  2A                 [057] (56)
2001  01                 [058] (56)
2002  00                 [059] (56)
2003  00                 [060] (57)
2004  2A                 [061] (57)
2005  01                 [062] (57)
2006  00                 [063] (57)
2007  00                 [064] (58)
2008  2A                 [065] (59)
2009  01                 [066] (59)
200A  00                 [067] (59)
200B  00                 [068] (59)
200C  2A                 [069] (59)
200D  01                 [070] (60)
200E  00                 [071] (60)
200F  00                 [072] (60)
2010  2A                 [073] (60)
2011  01                 [074] (57)
2012  00                 [075] (52)
2013  00                 [076] (66)
2014  2B                 [077] (66)
2015  01                 [078] (66)
2016  00                 [079] (67)
2017  00                 [080] (67)
2018  2B                 [081] (67)
2019  01                 [082] (67)
201A  00                 [083] (69)
201B  00                 [084] (69)
201C  2C                 [085] (69)
201D  01                 [086] (69)
201E  00                 [087] (69)
201F  00                 [088] (69)
2020  2C                 [089] (69)
2021  01                 [090] (69)
2022  00                 [091] (70)
2023  00                 [092] (70)
2024  2C                 [093] (70)
2025  01                 [094] (70)
2026  00                 [095] (70)
2027  00                 [096] (71)
2028  2A                 [097] (71)
2029  01                 [098] (72)
202A  00                 [099] (72)
202B  00                 [100] (70)
202C  2F                 [101] (73)
202D  01                 [102] (74)
202E  00                 [103] (74)
202F  00                 [104] (74)
2030  30                 [105] (74)
2031  01                 [106] (74)
2032  00                 [107] (74)
2033  00                 [108] (74)
2034  31                 [109] (74)
2035  01                 [110] (75)
2036  00                 [111] (75)
2037  00                 [112] (75)
2038  31                 [113] (75)
2039  01                 [114] (75)
203A  00                 [115] (76)
203B  00                 [116] (76)
203C  31                 [117] (77)
203D  01                 [118] (77)
203E  00                 [119] (77)
203F  00                 [120] (75)
2040  32                 [121] (80)
                         * locals:
21AC  00                 sizelocvars (0)
                         * upvalues:
21AD  00                 sizeupvalues (0)
                         ** end of function **

                         
21AE                     ** function [6] definition (level 2)
                         ** start of function **
21AE  00                 string size (0)
                         source name: (none)
21B0  02                 line defined (338)
21B1  FE                 last line defined (382)
21B2  02                 nups (0)
21B3  00                 numparams (0)
21B4  00                 is_vararg (0)
21B5  00                 maxstacksize (26)
                         * code:
21B7  72                 sizecode (114)
21B8  1D000000           [001] getglobal  0   0        ; Delay
fail op	33
21BC  21008080           [002] tforloop   0       0    ; to [4] if exit
21C0  1A800080           [003] jmp        3            ; to [7]
21C4  1D800000           [004] getglobal  0   2        ; 538022378
21C8  5D000000           [005] getglobal  1   0        ; Delay
21CC  22400001           [006] call       0   2   1  
21D0  1DC00000           [007] getglobal  0   3        ; showAtStart
21D4  18000000           [008] test       0       0    ; to [10] if true
21D8  1AC00380           [009] jmp        16           ; to [26]
21DC  1D000100           [010] getglobal  0   4        ; 1074689893
21E0  5D400100           [011] getglobal  1   5        ; TargetDeco
21E4  22800001           [012] call       0   2   2  
21E8  18400000           [013] test       0       1    ; to [15] if false
21EC  1A800280           [014] jmp        11           ; to [26]
21F0  19800100           [015] loadk      0   6        ; 0
21F4  5D400100           [016] getglobal  1   5        ; TargetDeco
21F8  4A008000           [017] len        1   1      
21FC  99800100           [018] loadk      2   6        ; 0
2200  10000180           [019] forprep    0   5        ; to [25]
2204  1D410100           [020] getglobal  4   5        ; TargetDeco
2208  0EC10002           [021] gettable   4   4   3  
220C  64C14102           [022] self       5   4   263  ; 2109594123
2210  D7018000           [023] loadbool   7   1   0    ; true
2214  62418001           [024] call       5   3   1  
2218  1440FE7F           [025] forloop    0   -6       ; to [20] if loop
221C  59410000           [026] loadk      5   1        ; 0
2220  86018003           [027] loadnil    6   7      
2224  1D020200           [028] getglobal  8   8        ; TimeLength
fail op	21
2228  15008202           [029] concat     0   5   8  
222C  1A400B80           [030] jmp        46           ; to [77]
2230  1D420200           [031] getglobal  8   9        ; Peak
fail op	21
2234  15008202           [032] concat     0   5   8  
2238  1A800080           [033] jmp        3            ; to [37]
223C  1D420200           [034] getglobal  8   9        ; Peak
2240  9C018202           [035] div        6   5   8  
2244  1A800180           [036] jmp        7            ; to [44]
2248  1D420200           [037] getglobal  8   9        ; Peak
224C  0D028202           [038] sub        8   5   8  
2250  5D020200           [039] getglobal  9   8        ; TimeLength
2254  9D420200           [040] getglobal  10  9        ; Peak
2258  4D828204           [041] sub        9   9   10 
225C  1C420204           [042] div        8   8   9  
2260  8D010283           [043] sub        6   262 8    ; 0
fail op	21
2264  15404003           [044] concat     0   6   257
2268  1A000080           [045] jmp        1            ; to [47]
226C  99410000           [046] loadk      6   1        ; 0
2270  1D820200           [047] getglobal  8   10       ; -1828500651
2274  5DC20200           [048] getglobal  9   11       ; ValleyValue
2278  9D020300           [049] getglobal  10  12       ; PeakValue
227C  D2020003           [050] move       11  6      
2280  22820002           [051] call       8   4   2  
2284  D2010004           [052] move       7   8      
2288  1D020100           [053] getglobal  8   4        ; 1074689893
228C  5D420100           [054] getglobal  9   5        ; TargetDeco
2290  22820001           [055] call       8   2   2  
2294  18420000           [056] test       8       1    ; to [58] if false
2298  1AC00280           [057] jmp        12           ; to [70]
229C  19820100           [058] loadk      8   6        ; 0
22A0  5D420100           [059] getglobal  9   5        ; TargetDeco
22A4  4A028004           [060] len        9   9      
22A8  99820100           [061] loadk      10  6        ; 0
22AC  10420180           [062] forprep    8   6        ; to [69]
22B0  1D430100           [063] getglobal  12  5        ; TargetDeco
22B4  0EC30206           [064] gettable   12  12  11 
22B8  64434306           [065] self       13  12  269  ; -786111647
22BC  DD830300           [066] getglobal  15  14       ; Param
22C0  12048003           [067] move       16  7      
22C4  62430002           [068] call       13  4   1  
22C8  1402FE7F           [069] forloop    8   -7       ; to [63] if loop
22CC  5DC30300           [070] getglobal  13  15       ; 1289681407
22D0  62838000           [071] call       13  1   2  
22D4  43418302           [072] add        5   5   13 
22D8  5D830000           [073] getglobal  13  2        ; 538022378
22DC  99430000           [074] loadk      14  1        ; 0
22E0  62430001           [075] call       13  2   1  
22E4  1A80F37F           [076] jmp        -49          ; to [28]
22E8  5D030400           [077] getglobal  13  16       ; destroyAtEnd
22EC  58030000           [078] test       13      0    ; to [80] if true
22F0  1A800380           [079] jmp        15           ; to [95]
22F4  5D030100           [080] getglobal  13  4        ; 1074689893
22F8  9D430100           [081] getglobal  14  5        ; TargetDeco
22FC  62830001           [082] call       13  2   2  
2300  58430000           [083] test       13      1    ; to [85] if false
2304  1A400280           [084] jmp        10           ; to [95]
2308  59830100           [085] loadk      13  6        ; 0
230C  9D430100           [086] getglobal  14  5        ; TargetDeco
2310  8A030007           [087] len        14  14     
2314  D9830100           [088] loadk      15  6        ; 0
2318  50C30080           [089] forprep    13  4        ; to [94]
231C  5D440100           [090] getglobal  17  5        ; TargetDeco
2320  4E048408           [091] gettable   17  17  16 
2324  A444C408           [092] self       18  17  273  ; -725453761
2328  A2440001           [093] call       18  2   1  
232C  5483FE7F           [094] forloop    13  -5       ; to [90] if loop
2330  9D840400           [095] getglobal  18  18       ; hideAtEnd
2334  98040000           [096] test       18      0    ; to [98] if true
2338  1AC00380           [097] jmp        16           ; to [114]
233C  9D040100           [098] getglobal  18  4        ; 1074689893
2340  DD440100           [099] getglobal  19  5        ; TargetDeco
2344  A2840001           [100] call       18  2   2  
2348  98440000           [101] test       18      1    ; to [103] if false
234C  1A800280           [102] jmp        11           ; to [114]
2350  99840100           [103] loadk      18  6        ; 0
2354  DD440100           [104] getglobal  19  5        ; TargetDeco
2358  CA048009           [105] len        19  19     
235C  19850100           [106] loadk      20  6        ; 0
2360  90040180           [107] forprep    18  5        ; to [113]
2364  9D450100           [108] getglobal  22  5        ; TargetDeco
2368  8E45050B           [109] gettable   22  22  21 
236C  E4C5410B           [110] self       23  22  263  ; 2109594123
2370  57060000           [111] loadbool   25  0   0    ; false
2374  E2458001           [112] call       23  3   1  
2378  9444FE7F           [113] forloop    18  -6       ; to [108] if loop
237C  1E008000           [114] return     0   1      
                         * constants:
2380  13                 sizek (19)
2381  04                 const type 4
2382  06                 string size (6)
2383  44656C617900       "Delay\0"
                         const [0]: "Delay"
2389  03                 const type 3
238A  00000000           const [1]: (0)
238E  01                 const type 3
238F  EA911120           const [2]: (538022378)
2393  04                 const type 4
2394  0C                 string size (12)
2395  73686F7741745374+  "showAtSt"
239D  61727400           "art\0"
                         const [3]: "showAtStart"
23A1  01                 const type 3
23A2  65770E40           const [4]: (1074689893)
23A6  04                 const type 4
23A7  0B                 string size (11)
23A8  5461726765744465+  "TargetDe"
23B0  636F00             "co\0"
                         const [5]: "TargetDeco"
23B3  03                 const type 3
23B4  0000803F           const [6]: (0)
23B8  01                 const type 3
23B9  0BDABD7D           const [7]: (2109594123)
23BD  04                 const type 4
23BE  0B                 string size (11)
23BF  54696D654C656E67+  "TimeLeng"
23C7  746800             "th\0"
                         const [8]: "TimeLength"
23CA  04                 const type 4
23CB  05                 string size (5)
23CC  5065616B00         "Peak\0"
                         const [9]: "Peak"
23D1  01                 const type 3
23D2  554B0393           const [10]: (-1828500651)
23D6  04                 const type 4
23D7  0C                 string size (12)
23D8  56616C6C65795661+  "ValleyVa"
23E0  6C756500           "lue\0"
                         const [11]: "ValleyValue"
23E4  04                 const type 4
23E5  0A                 string size (10)
23E6  5065616B56616C75+  "PeakValu"
23EE  6500               "e\0"
                         const [12]: "PeakValue"
23F0  01                 const type 3
23F1  61E324D1           const [13]: (-786111647)
23F5  04                 const type 4
23F6  06                 string size (6)
23F7  506172616D00       "Param\0"
                         const [14]: "Param"
23FD  01                 const type 3
23FE  FFF9DE4C           const [15]: (1289681407)
2402  04                 const type 4
2403  0D                 string size (13)
2404  64657374726F7941+  "destroyA"
240C  74456E6400         "tEnd\0"
                         const [16]: "destroyAtEnd"
2411  01                 const type 3
2412  3F74C2D4           const [17]: (-725453761)
2416  04                 const type 4
2417  0A                 string size (10)
2418  686964654174456E+  "hideAtEn"
2420  6400               "d\0"
                         const [18]: "hideAtEnd"
                         * functions:
2422  00                 sizep (0)
                         * lines:
2423  72                 sizelineinfo (114)
                         [pc] (line)
2424  53                 [001] (83)
2425  01                 [002] (83)
2426  00                 [003] (83)
2427  00                 [004] (84)
2428  53                 [005] (84)
2429  01                 [006] (84)
242A  00                 [007] (86)
242B  00                 [008] (86)
242C  53                 [009] (86)
242D  01                 [010] (86)
242E  00                 [011] (86)
242F  00                 [012] (86)
2430  54                 [013] (86)
2431  01                 [014] (86)
2432  00                 [015] (87)
2433  00                 [016] (87)
2434  54                 [017] (87)
2435  01                 [018] (87)
2436  00                 [019] (87)
2437  00                 [020] (88)
2438  54                 [021] (88)
2439  01                 [022] (89)
243A  00                 [023] (89)
243B  00                 [024] (89)
243C  56                 [025] (87)
243D  01                 [026] (92)
243E  00                 [027] (93)
243F  00                 [028] (95)
2440  56                 [029] (95)
2441  01                 [030] (95)
2442  00                 [031] (96)
2443  00                 [032] (96)
2444  56                 [033] (96)
2445  01                 [034] (97)
2446  00                 [035] (97)
2447  00                 [036] (97)
2448  56                 [037] (99)
2449  01                 [038] (99)
244A  00                 [039] (99)
244B  00                 [040] (99)
244C  56                 [041] (99)
244D  01                 [042] (99)
244E  00                 [043] (99)
244F  00                 [044] (101)
2450  56                 [045] (101)
2451  01                 [046] (102)
2452  00                 [047] (104)
2453  00                 [048] (104)
2454  56                 [049] (104)
2455  01                 [050] (104)
2456  00                 [051] (104)
2457  00                 [052] (104)
2458  56                 [053] (105)
2459  01                 [054] (105)
245A  00                 [055] (105)
245B  00                 [056] (105)
245C  57                 [057] (105)
245D  01                 [058] (106)
245E  00                 [059] (106)
245F  00                 [060] (106)
2460  57                 [061] (106)
2461  01                 [062] (106)
2462  00                 [063] (107)
2463  00                 [064] (107)
2464  57                 [065] (108)
2465  01                 [066] (108)
2466  00                 [067] (108)
2467  00                 [068] (108)
2468  57                 [069] (106)
2469  01                 [070] (111)
246A  00                 [071] (111)
246B  00                 [072] (111)
246C  57                 [073] (112)
246D  01                 [074] (112)
246E  00                 [075] (112)
246F  00                 [076] (112)
2470  58                 [077] (114)
2471  01                 [078] (114)
2472  00                 [079] (114)
2473  00                 [080] (114)
2474  58                 [081] (114)
2475  01                 [082] (114)
2476  00                 [083] (114)
2477  00                 [084] (114)
2478  59                 [085] (115)
2479  01                 [086] (115)
247A  00                 [087] (115)
247B  00                 [088] (115)
247C  59                 [089] (115)
247D  01                 [090] (116)
247E  00                 [091] (116)
247F  00                 [092] (117)
2480  59                 [093] (117)
2481  01                 [094] (115)
2482  00                 [095] (120)
2483  00                 [096] (120)
2484  57                 [097] (120)
2485  01                 [098] (120)
2486  00                 [099] (120)
2487  00                 [100] (120)
2488  5C                 [101] (120)
2489  01                 [102] (120)
248A  00                 [103] (121)
248B  00                 [104] (121)
248C  5D                 [105] (121)
248D  01                 [106] (121)
248E  00                 [107] (121)
248F  00                 [108] (122)
2490  5F                 [109] (122)
2491  01                 [110] (123)
2492  00                 [111] (123)
2493  00                 [112] (123)
2494  5F                 [113] (121)
2495  01                 [114] (126)
                         * locals:
25EC  00                 sizelocvars (0)
                         * upvalues:
25ED  00                 sizeupvalues (0)
                         ** end of function **

                         
25EE                     ** function [7] definition (level 2)
                         ** start of function **
25EE  00                 string size (0)
                         source name: (none)
25F0  03                 line defined (384)
25F1  92                 last line defined (402)
25F2  03                 nups (0)
25F3  00                 numparams (0)
25F4  00                 is_vararg (0)
25F5  00                 maxstacksize (9)
                         * code:
25F7  30                 sizecode (48)
25F8  1D000000           [01] getglobal  0   0        ; Delay
fail op	33
25FC  21008080           [02] tforloop   0       0    ; to [4] if exit
2600  1A800080           [03] jmp        3            ; to [7]
2604  1D800000           [04] getglobal  0   2        ; 538022378
2608  5D000000           [05] getglobal  1   0        ; Delay
260C  22400001           [06] call       0   2   1  
2610  19400000           [07] loadk      0   1        ; 0
2614  46008000           [08] loadnil    1   1      
2618  9DC00000           [09] getglobal  2   3        ; TimeLength
fail op	21
261C  15800000           [10] concat     0   0   2  
2620  1AC00880           [11] jmp        36           ; to [48]
2624  9D000100           [12] getglobal  2   4        ; -1828500651
2628  DD400100           [13] getglobal  3   5        ; OriginalValue
262C  1D810100           [14] getglobal  4   6        ; NewValue
2630  5DC10000           [15] getglobal  5   3        ; TimeLength
2634  5C410100           [16] div        5   0   5  
2638  A2800002           [17] call       2   4   2  
263C  52000001           [18] move       1   2      
2640  9DC00100           [19] getglobal  2   7        ; 1074689893
2644  DD000200           [20] getglobal  3   8        ; TargetDeco
2648  A2800001           [21] call       2   2   2  
264C  98400000           [22] test       2       1    ; to [24] if false
2650  1A000480           [23] jmp        17           ; to [41]
2654  99400200           [24] loadk      2   9        ; 0
2658  DD000200           [25] getglobal  3   8        ; TargetDeco
265C  CA008001           [26] len        3   3      
2660  19410200           [27] loadk      4   9        ; 0
2664  90800280           [28] forprep    2   11       ; to [40]
2668  9DC10100           [29] getglobal  6   7        ; 1074689893
266C  DD010200           [30] getglobal  7   8        ; TargetDeco
2670  CE418103           [31] gettable   7   7   5  
2674  A2810001           [32] call       6   2   2  
2678  98410000           [33] test       6       1    ; to [35] if false
267C  1A000180           [34] jmp        5            ; to [40]
2680  9D010200           [35] getglobal  6   8        ; TargetDeco
2684  8E410103           [36] gettable   6   6   5  
2688  A4814203           [37] self       6   6   266  ; -703571861
268C  12028000           [38] move       8   1      
2690  A2418001           [39] call       6   3   1  
2694  94C0FC7F           [40] forloop    2   -12      ; to [29] if loop
2698  9DC10200           [41] getglobal  6   11       ; 1289681407
269C  A2818000           [42] call       6   1   2  
26A0  03800100           [43] add        0   0   6  
26A4  9D810000           [44] getglobal  6   2        ; 538022378
26A8  D9410000           [45] loadk      7   1        ; 0
26AC  A2410001           [46] call       6   2   1  
26B0  1A00F67F           [47] jmp        -39          ; to [9]
26B4  1E008000           [48] return     0   1      
                         * constants:
26B8  0C                 sizek (12)
26B9  04                 const type 4
26BA  06                 string size (6)
26BB  44656C617900       "Delay\0"
                         const [0]: "Delay"
26C1  03                 const type 3
26C2  00000000           const [1]: (0)
26C6  01                 const type 3
26C7  EA911120           const [2]: (538022378)
26CB  04                 const type 4
26CC  0B                 string size (11)
26CD  54696D654C656E67+  "TimeLeng"
26D5  746800             "th\0"
                         const [3]: "TimeLength"
26D8  01                 const type 3
26D9  554B0393           const [4]: (-1828500651)
26DD  04                 const type 4
26DE  0E                 string size (14)
26DF  4F726967696E616C+  "Original"
26E7  56616C756500       "Value\0"
                         const [5]: "OriginalValue"
26ED  04                 const type 4
26EE  09                 string size (9)
26EF  4E657756616C7565+  "NewValue"
26F7  00                 "\0"
                         const [6]: "NewValue"
26F8  01                 const type 3
26F9  65770E40           const [7]: (1074689893)
26FD  04                 const type 4
26FE  0B                 string size (11)
26FF  5461726765744465+  "TargetDe"
2707  636F00             "co\0"
                         const [8]: "TargetDeco"
270A  03                 const type 3
270B  0000803F           const [9]: (0)
270F  01                 const type 3
2710  6B5810D6           const [10]: (-703571861)
2714  01                 const type 3
2715  FFF9DE4C           const [11]: (1289681407)
                         * functions:
2719  00                 sizep (0)
                         * lines:
271A  30                 sizelineinfo (48)
                         [pc] (line)
271B  81                 [01] (-127)
271C  01                 [02] (-127)
271D  00                 [03] (-127)
271E  00                 [04] (-126)
271F  81                 [05] (-126)
2720  01                 [06] (-126)
2721  00                 [07] (-124)
2722  00                 [08] (-123)
2723  81                 [09] (-122)
2724  01                 [10] (-122)
2725  00                 [11] (-122)
2726  00                 [12] (-121)
2727  82                 [13] (-121)
2728  01                 [14] (-121)
2729  00                 [15] (-121)
272A  00                 [16] (-121)
272B  82                 [17] (-121)
272C  01                 [18] (-121)
272D  00                 [19] (-120)
272E  00                 [20] (-120)
272F  82                 [21] (-120)
2730  01                 [22] (-120)
2731  00                 [23] (-120)
2732  00                 [24] (-119)
2733  84                 [25] (-119)
2734  01                 [26] (-119)
2735  00                 [27] (-119)
2736  00                 [28] (-119)
2737  85                 [29] (-118)
2738  01                 [30] (-118)
2739  00                 [31] (-118)
273A  00                 [32] (-118)
273B  86                 [33] (-118)
273C  01                 [34] (-118)
273D  00                 [35] (-117)
273E  00                 [36] (-117)
273F  86                 [37] (-117)
2740  01                 [38] (-117)
2741  00                 [39] (-117)
2742  00                 [40] (-119)
2743  86                 [41] (-113)
2744  01                 [42] (-113)
2745  00                 [43] (-113)
2746  00                 [44] (-112)
2747  87                 [45] (-112)
2748  01                 [46] (-112)
2749  00                 [47] (-112)
274A  00                 [48] (-110)
                         * locals:
27DB  00                 sizelocvars (0)
                         * upvalues:
27DC  00                 sizeupvalues (0)
                         ** end of function **

                         
27DD                     ** function [8] definition (level 2)
                         ** start of function **
27DD  00                 string size (0)
                         source name: (none)
27DF  03                 line defined (404)
27E0  B5                 last line defined (437)
27E1  03                 nups (1)
27E2  01                 numparams (1)
27E3  01                 is_vararg (0)
27E4  00                 maxstacksize (8)
                         * code:
27E6  59                 sizecode (89)
27E7  5D000000           [01] getglobal  1   0        ; checkKilled
27EB  58000000           [02] test       1       0    ; to [4] if true
27EF  1A800780           [03] jmp        31           ; to [35]
27F3  64404000           [04] self       1   0   257  ; -1957065004
27F7  DD800000           [05] getglobal  3   2        ; gRagdollType
27FB  62808001           [06] call       1   3   2  
27FF  58000000           [07] test       1       0    ; to [9] if true
2803  1A400680           [08] jmp        26           ; to [35]
2807  64C04000           [09] self       1   0   259  ; 332067969
280B  62800001           [10] call       1   2   2  
280F  9D000100           [11] getglobal  2   4        ; 1074689893
2813  D2000000           [12] move       3   0      
2817  A2800001           [13] call       2   2   2  
281B  98400000           [14] test       2       1    ; to [16] if false
281F  1A000380           [15] jmp        13           ; to [29]
2823  9D000100           [16] getglobal  2   4        ; 1074689893
2827  D2008000           [17] move       3   1      
282B  A2800001           [18] call       2   2   2  
282F  98400000           [19] test       2       1    ; to [21] if false
2833  1AC00180           [20] jmp        8            ; to [29]
2837  A440C100           [21] self       2   1   261  ; 1511086594
283B  A2800001           [22] call       2   2   2  
283F  98400000           [23] test       2       1    ; to [25] if false
2843  1AC00080           [24] jmp        4            ; to [29]
2847  9D800100           [25] getglobal  2   6        ; 538022378
284B  D9C00100           [26] loadk      3   7        ; 0
284F  A2400001           [27] call       2   2   1  
2853  1A40FB7F           [28] jmp        -18          ; to [11]
2857  9D000100           [29] getglobal  2   4        ; 1074689893
285B  D2000000           [30] move       3   0      
285F  A2800001           [31] call       2   2   2  
2863  98000000           [32] test       2       0    ; to [34] if true
2867  1A000080           [33] jmp        1            ; to [35]
286B  1E008000           [34] return     0   1      
286F  9D000200           [35] getglobal  2   8        ; Delay
fail op	33
2873  21808083           [36] tforloop   0       2    ; to [38] if exit
2877  1A800080           [37] jmp        3            ; to [41]
287B  9D800100           [38] getglobal  2   6        ; 538022378
287F  DD000200           [39] getglobal  3   8        ; Delay
2883  A2400001           [40] call       2   2   1  
2887  9D400200           [41] getglobal  2   9        ; applyEnergyColor
288B  98000000           [42] test       2       0    ; to [44] if true
288F  1A000180           [43] jmp        5            ; to [49]
2893  93000000           [44] getupval   2   0      
2897  D2000000           [45] move       3   0      
289B  1D810200           [46] getglobal  4   10       ; energyColorParam
289F  5DC10200           [47] getglobal  5   11       ; getParentFirst
28A3  A2400002           [48] call       2   4   1  
28A7  99C00100           [49] loadk      2   7        ; 0
28AB  C6008001           [50] loadnil    3   3      
28AF  1D010300           [51] getglobal  4   12       ; TimeLength
fail op	21
28B3  15000101           [52] concat     0   2   4  
28B7  1A000480           [53] jmp        17           ; to [71]
28BB  1D410300           [54] getglobal  4   13       ; -1828500651
28BF  5D810300           [55] getglobal  5   14       ; OriginalValue
28C3  9DC10300           [56] getglobal  6   15       ; NewValue
28C7  DD010300           [57] getglobal  7   12       ; TimeLength
28CB  DCC10101           [58] div        7   2   7  
28CF  22810002           [59] call       4   4   2  
28D3  D2000002           [60] move       3   4      
28D7  24014400           [61] self       4   0   272  ; -703571861
28DB  92018001           [62] move       6   3      
28DF  22418001           [63] call       4   3   1  
28E3  1D410400           [64] getglobal  4   17       ; 1289681407
28E7  22818000           [65] call       4   1   2  
28EB  83000101           [66] add        2   2   4  
28EF  1D810100           [67] getglobal  4   6        ; 538022378
28F3  59C10100           [68] loadk      5   7        ; 0
28F7  22410001           [69] call       4   2   1  
28FB  1AC0FA7F           [70] jmp        -20          ; to [51]
28FF  1D010100           [71] getglobal  4   4        ; 1074689893
2903  52010000           [72] move       5   0      
2907  22810001           [73] call       4   2   2  
290B  18410000           [74] test       4       1    ; to [76] if false
290F  1A800080           [75] jmp        3            ; to [79]
2913  24014400           [76] self       4   0   272  ; -703571861
2917  9DC10300           [77] getglobal  6   15       ; NewValue
291B  22418001           [78] call       4   3   1  
291F  1D810400           [79] getglobal  4   18       ; destroyAtEnd
2923  18010000           [80] test       4       0    ; to [82] if true
2927  1A800180           [81] jmp        7            ; to [89]
292B  1D010100           [82] getglobal  4   4        ; 1074689893
292F  52010000           [83] move       5   0      
2933  22810001           [84] call       4   2   2  
2937  18410000           [85] test       4       1    ; to [87] if false
293B  1A400080           [86] jmp        2            ; to [89]
293F  24C14400           [87] self       4   0   275  ; -725453761
2943  22410001           [88] call       4   2   1  
2947  1E008000           [89] return     0   1      
                         * constants:
294B  14                 sizek (20)
294C  04                 const type 4
294D  0C                 string size (12)
294E  636865636B4B696C+  "checkKil"
2956  6C656400           "led\0"
                         const [0]: "checkKilled"
295A  01                 const type 3
295B  D48E598B           const [1]: (-1957065004)
295F  04                 const type 4
2960  0D                 string size (13)
2961  67526167646F6C6C+  "gRagdoll"
2969  5479706500         "Type\0"
                         const [2]: "gRagdollType"
296E  01                 const type 3
296F  81F4CA13           const [3]: (332067969)
2973  01                 const type 3
2974  65770E40           const [4]: (1074689893)
2978  01                 const type 3
2979  025A115A           const [5]: (1511086594)
297D  01                 const type 3
297E  EA911120           const [6]: (538022378)
2982  03                 const type 3
2983  00000000           const [7]: (0)
2987  04                 const type 4
2988  06                 string size (6)
2989  44656C617900       "Delay\0"
                         const [8]: "Delay"
298F  04                 const type 4
2990  11                 string size (17)
2991  6170706C79456E65+  "applyEne"
2999  726779436F6C6F72+  "rgyColor"
29A1  00                 "\0"
                         const [9]: "applyEnergyColor"
29A2  04                 const type 4
29A3  11                 string size (17)
29A4  656E65726779436F+  "energyCo"
29AC  6C6F72506172616D+  "lorParam"
29B4  00                 "\0"
                         const [10]: "energyColorParam"
29B5  04                 const type 4
29B6  0F                 string size (15)
29B7  676574506172656E+  "getParen"
29BF  74466972737400     "tFirst\0"
                         const [11]: "getParentFirst"
29C6  04                 const type 4
29C7  0B                 string size (11)
29C8  54696D654C656E67+  "TimeLeng"
29D0  746800             "th\0"
                         const [12]: "TimeLength"
29D3  01                 const type 3
29D4  554B0393           const [13]: (-1828500651)
29D8  04                 const type 4
29D9  0E                 string size (14)
29DA  4F726967696E616C+  "Original"
29E2  56616C756500       "Value\0"
                         const [14]: "OriginalValue"
29E8  04                 const type 4
29E9  09                 string size (9)
29EA  4E657756616C7565+  "NewValue"
29F2  00                 "\0"
                         const [15]: "NewValue"
29F3  01                 const type 3
29F4  6B5810D6           const [16]: (-703571861)
29F8  01                 const type 3
29F9  FFF9DE4C           const [17]: (1289681407)
29FD  04                 const type 4
29FE  0D                 string size (13)
29FF  64657374726F7941+  "destroyA"
2A07  74456E6400         "tEnd\0"
                         const [18]: "destroyAtEnd"
2A0C  01                 const type 3
2A0D  3F74C2D4           const [19]: (-725453761)
                         * functions:
2A11  00                 sizep (0)
                         * lines:
2A12  59                 sizelineinfo (89)
                         [pc] (line)
2A13  95                 [01] (-107)
2A14  01                 [02] (-107)
2A15  00                 [03] (-107)
2A16  00                 [04] (-106)
2A17  95                 [05] (-106)
2A18  01                 [06] (-106)
2A19  00                 [07] (-106)
2A1A  00                 [08] (-106)
2A1B  95                 [09] (-105)
2A1C  01                 [10] (-105)
2A1D  00                 [11] (-104)
2A1E  00                 [12] (-104)
2A1F  96                 [13] (-104)
2A20  01                 [14] (-104)
2A21  00                 [15] (-104)
2A22  00                 [16] (-104)
2A23  96                 [17] (-104)
2A24  01                 [18] (-104)
2A25  00                 [19] (-104)
2A26  00                 [20] (-104)
2A27  96                 [21] (-104)
2A28  01                 [22] (-104)
2A29  00                 [23] (-104)
2A2A  00                 [24] (-104)
2A2B  96                 [25] (-103)
2A2C  01                 [26] (-103)
2A2D  00                 [27] (-103)
2A2E  00                 [28] (-103)
2A2F  96                 [29] (-101)
2A30  01                 [30] (-101)
2A31  00                 [31] (-101)
2A32  00                 [32] (-101)
2A33  97                 [33] (-101)
2A34  01                 [34] (-100)
2A35  00                 [35] (-96)
2A36  00                 [36] (-96)
2A37  97                 [37] (-96)
2A38  01                 [38] (-95)
2A39  00                 [39] (-95)
2A3A  00                 [40] (-95)
2A3B  98                 [41] (-93)
2A3C  01                 [42] (-93)
2A3D  00                 [43] (-93)
2A3E  00                 [44] (-92)
2A3F  98                 [45] (-92)
2A40  01                 [46] (-92)
2A41  00                 [47] (-92)
2A42  00                 [48] (-92)
2A43  98                 [49] (-90)
2A44  01                 [50] (-89)
2A45  00                 [51] (-88)
2A46  00                 [52] (-88)
2A47  98                 [53] (-88)
2A48  01                 [54] (-87)
2A49  00                 [55] (-87)
2A4A  00                 [56] (-87)
2A4B  98                 [57] (-87)
2A4C  01                 [58] (-87)
2A4D  00                 [59] (-87)
2A4E  00                 [60] (-87)
2A4F  98                 [61] (-86)
2A50  01                 [62] (-86)
2A51  00                 [63] (-86)
2A52  00                 [64] (-85)
2A53  98                 [65] (-85)
2A54  01                 [66] (-85)
2A55  00                 [67] (-84)
2A56  00                 [68] (-84)
2A57  98                 [69] (-84)
2A58  01                 [70] (-84)
2A59  00                 [71] (-81)
2A5A  00                 [72] (-81)
2A5B  98                 [73] (-81)
2A5C  01                 [74] (-81)
2A5D  00                 [75] (-81)
2A5E  00                 [76] (-80)
2A5F  98                 [77] (-80)
2A60  01                 [78] (-80)
2A61  00                 [79] (-78)
2A62  00                 [80] (-78)
2A63  98                 [81] (-78)
2A64  01                 [82] (-78)
2A65  00                 [83] (-78)
2A66  00                 [84] (-78)
2A67  98                 [85] (-78)
2A68  01                 [86] (-78)
2A69  00                 [87] (-77)
2A6A  00                 [88] (-77)
2A6B  98                 [89] (-75)
                         * locals:
2B77  00                 sizelocvars (0)
                         * upvalues:
2B78  00                 sizeupvalues (0)
                         ** end of function **

                         
2B79                     ** function [9] definition (level 2)
                         ** start of function **
2B79  00                 string size (0)
                         source name: (none)
2B7B  03                 line defined (439)
2B7C  D0                 last line defined (464)
2B7D  03                 nups (1)
2B7E  01                 numparams (1)
2B7F  01                 is_vararg (0)
2B80  00                 maxstacksize (7)
                         * code:
2B82  45                 sizecode (69)
2B83  5D000000           [01] getglobal  1   0        ; isRandomMeshScale
2B87  58000000           [02] test       1       0    ; to [4] if true
2B8B  1A400180           [03] jmp        6            ; to [10]
2B8F  64404000           [04] self       1   0   257  ; 1786666898
2B93  DD800000           [05] getglobal  3   2        ; -1941280958
2B97  1DC10000           [06] getglobal  4   3        ; OriginalScale
2B9B  5D010100           [07] getglobal  5   4        ; NewScale
2B9F  E2008001           [08] call       3   3   0  
2BA3  62400000           [09] call       1   0   1  
2BA7  5D400100           [10] getglobal  1   5        ; Delay
fail op	33
2BAB  21400083           [11] tforloop   0       1    ; to [13] if exit
2BAF  1A800080           [12] jmp        3            ; to [16]
2BB3  5DC00100           [13] getglobal  1   7        ; 538022378
2BB7  9D400100           [14] getglobal  2   5        ; Delay
2BBB  62400001           [15] call       1   2   1  
2BBF  5D000200           [16] getglobal  1   8        ; applyEnergyColor
2BC3  58000000           [17] test       1       0    ; to [19] if true
2BC7  1A000180           [18] jmp        5            ; to [24]
2BCB  53000000           [19] getupval   1   0      
2BCF  92000000           [20] move       2   0      
2BD3  DD400200           [21] getglobal  3   9        ; energyColorParam
2BD7  1D810200           [22] getglobal  4   10       ; getParentFirst
2BDB  62400002           [23] call       1   4   1  
2BDF  59800100           [24] loadk      1   6        ; 0
2BE3  86000001           [25] loadnil    2   2      
2BE7  DDC00200           [26] getglobal  3   11       ; TimeLength
fail op	21
2BEB  15C08000           [27] concat     0   1   3  
2BEF  1A400780           [28] jmp        30           ; to [59]
2BF3  DD000300           [29] getglobal  3   12       ; -1828500651
2BF7  1D410300           [30] getglobal  4   13       ; OriginalValue
2BFB  5D810300           [31] getglobal  5   14       ; NewValue
2BFF  9DC10200           [32] getglobal  6   11       ; TimeLength
2C03  9C818100           [33] div        6   1   6  
2C07  E2800002           [34] call       3   4   2  
2C0B  92008001           [35] move       2   3      
2C0F  E4C04300           [36] self       3   0   271  ; -703571861
2C13  52010001           [37] move       5   2      
2C17  E2408001           [38] call       3   3   1  
2C1B  DD000000           [39] getglobal  3   0        ; isRandomMeshScale
2C1F  D8400000           [40] test       3       1    ; to [42] if false
2C23  1A400280           [41] jmp        10           ; to [52]
2C27  DD000300           [42] getglobal  3   12       ; -1828500651
2C2B  1DC10000           [43] getglobal  4   3        ; OriginalScale
2C2F  5D010100           [44] getglobal  5   4        ; NewScale
2C33  9DC10200           [45] getglobal  6   11       ; TimeLength
2C37  9C818100           [46] div        6   1   6  
2C3B  E2800002           [47] call       3   4   2  
2C3F  92008001           [48] move       2   3      
2C43  E4404000           [49] self       3   0   257  ; 1786666898
2C47  52010001           [50] move       5   2      
2C4B  E2408001           [51] call       3   3   1  
2C4F  DD000400           [52] getglobal  3   16       ; 1289681407
2C53  E2808000           [53] call       3   1   2  
2C57  43C08000           [54] add        1   1   3  
2C5B  DDC00100           [55] getglobal  3   7        ; 538022378
2C5F  19810100           [56] loadk      4   6        ; 0
2C63  E2400001           [57] call       3   2   1  
2C67  1A80F77F           [58] jmp        -33          ; to [26]
2C6B  DD400400           [59] getglobal  3   17       ; destroyAtEnd
2C6F  D8000000           [60] test       3       0    ; to [62] if true
2C73  1A800180           [61] jmp        7            ; to [69]
2C77  DD800400           [62] getglobal  3   18       ; 1074689893
2C7B  12010000           [63] move       4   0      
2C7F  E2800001           [64] call       3   2   2  
2C83  D8400000           [65] test       3       1    ; to [67] if false
2C87  1A400080           [66] jmp        2            ; to [69]
2C8B  E4C04400           [67] self       3   0   275  ; -725453761
2C8F  E2400001           [68] call       3   2   1  
2C93  1E008000           [69] return     0   1      
                         * constants:
2C97  14                 sizek (20)
2C98  04                 const type 4
2C99  12                 string size (18)
2C9A  697352616E646F6D+  "isRandom"
2CA2  4D6573685363616C+  "MeshScal"
2CAA  6500               "e\0"
                         const [0]: "isRandomMeshScale"
2CAC  01                 const type 3
2CAD  925F7E6A           const [1]: (1786666898)
2CB1  01                 const type 3
2CB2  42674A8C           const [2]: (-1941280958)
2CB6  04                 const type 4
2CB7  0E                 string size (14)
2CB8  4F726967696E616C+  "Original"
2CC0  5363616C6500       "Scale\0"
                         const [3]: "OriginalScale"
2CC6  04                 const type 4
2CC7  09                 string size (9)
2CC8  4E65775363616C65+  "NewScale"
2CD0  00                 "\0"
                         const [4]: "NewScale"
2CD1  04                 const type 4
2CD2  06                 string size (6)
2CD3  44656C617900       "Delay\0"
                         const [5]: "Delay"
2CD9  03                 const type 3
2CDA  00000000           const [6]: (0)
2CDE  01                 const type 3
2CDF  EA911120           const [7]: (538022378)
2CE3  04                 const type 4
2CE4  11                 string size (17)
2CE5  6170706C79456E65+  "applyEne"
2CED  726779436F6C6F72+  "rgyColor"
2CF5  00                 "\0"
                         const [8]: "applyEnergyColor"
2CF6  04                 const type 4
2CF7  11                 string size (17)
2CF8  656E65726779436F+  "energyCo"
2D00  6C6F72506172616D+  "lorParam"
2D08  00                 "\0"
                         const [9]: "energyColorParam"
2D09  04                 const type 4
2D0A  0F                 string size (15)
2D0B  676574506172656E+  "getParen"
2D13  74466972737400     "tFirst\0"
                         const [10]: "getParentFirst"
2D1A  04                 const type 4
2D1B  0B                 string size (11)
2D1C  54696D654C656E67+  "TimeLeng"
2D24  746800             "th\0"
                         const [11]: "TimeLength"
2D27  01                 const type 3
2D28  554B0393           const [12]: (-1828500651)
2D2C  04                 const type 4
2D2D  0E                 string size (14)
2D2E  4F726967696E616C+  "Original"
2D36  56616C756500       "Value\0"
                         const [13]: "OriginalValue"
2D3C  04                 const type 4
2D3D  09                 string size (9)
2D3E  4E657756616C7565+  "NewValue"
2D46  00                 "\0"
                         const [14]: "NewValue"
2D47  01                 const type 3
2D48  6B5810D6           const [15]: (-703571861)
2D4C  01                 const type 3
2D4D  FFF9DE4C           const [16]: (1289681407)
2D51  04                 const type 4
2D52  0D                 string size (13)
2D53  64657374726F7941+  "destroyA"
2D5B  74456E6400         "tEnd\0"
                         const [17]: "destroyAtEnd"
2D60  01                 const type 3
2D61  65770E40           const [18]: (1074689893)
2D65  01                 const type 3
2D66  3F74C2D4           const [19]: (-725453761)
                         * functions:
2D6A  00                 sizep (0)
                         * lines:
2D6B  45                 sizelineinfo (69)
                         [pc] (line)
2D6C  B8                 [01] (-72)
2D6D  01                 [02] (-72)
2D6E  00                 [03] (-72)
2D6F  00                 [04] (-71)
2D70  B8                 [05] (-71)
2D71  01                 [06] (-71)
2D72  00                 [07] (-71)
2D73  00                 [08] (-71)
2D74  B8                 [09] (-71)
2D75  01                 [10] (-69)
2D76  00                 [11] (-69)
2D77  00                 [12] (-69)
2D78  B9                 [13] (-68)
2D79  01                 [14] (-68)
2D7A  00                 [15] (-68)
2D7B  00                 [16] (-66)
2D7C  B9                 [17] (-66)
2D7D  01                 [18] (-66)
2D7E  00                 [19] (-65)
2D7F  00                 [20] (-65)
2D80  B9                 [21] (-65)
2D81  01                 [22] (-65)
2D82  00                 [23] (-65)
2D83  00                 [24] (-63)
2D84  B9                 [25] (-62)
2D85  01                 [26] (-61)
2D86  00                 [27] (-61)
2D87  00                 [28] (-61)
2D88  B9                 [29] (-60)
2D89  01                 [30] (-60)
2D8A  00                 [31] (-60)
2D8B  00                 [32] (-60)
2D8C  B9                 [33] (-60)
2D8D  01                 [34] (-60)
2D8E  00                 [35] (-60)
2D8F  00                 [36] (-59)
2D90  BB                 [37] (-59)
2D91  01                 [38] (-59)
2D92  00                 [39] (-58)
2D93  00                 [40] (-58)
2D94  BB                 [41] (-58)
2D95  01                 [42] (-57)
2D96  00                 [43] (-57)
2D97  00                 [44] (-57)
2D98  BB                 [45] (-57)
2D99  01                 [46] (-57)
2D9A  00                 [47] (-57)
2D9B  00                 [48] (-57)
2D9C  BC                 [49] (-56)
2D9D  01                 [50] (-56)
2D9E  00                 [51] (-56)
2D9F  00                 [52] (-54)
2DA0  BC                 [53] (-54)
2DA1  01                 [54] (-54)
2DA2  00                 [55] (-53)
2DA3  00                 [56] (-53)
2DA4  BC                 [57] (-53)
2DA5  01                 [58] (-53)
2DA6  00                 [59] (-51)
2DA7  00                 [60] (-51)
2DA8  BE                 [61] (-51)
2DA9  01                 [62] (-51)
2DAA  00                 [63] (-51)
2DAB  00                 [64] (-51)
2DAC  BE                 [65] (-51)
2DAD  01                 [66] (-51)
2DAE  00                 [67] (-50)
2DAF  00                 [68] (-50)
2DB0  BE                 [69] (-48)
                         * locals:
2E80  00                 sizelocvars (0)
                         * upvalues:
2E81  00                 sizeupvalues (0)
                         ** end of function **

                         
2E82                     ** function [10] definition (level 2)
                         ** start of function **
2E82  00                 string size (0)
                         source name: (none)
2E84  03                 line defined (466)
2E85  DA                 last line defined (474)
2E86  03                 nups (0)
2E87  00                 numparams (0)
2E88  00                 is_vararg (0)
2E89  00                 maxstacksize (9)
                         * code:
2E8B  13                 sizecode (19)
2E8C  1D000000           [01] getglobal  0   0        ; Delay
fail op	33
2E90  21008080           [02] tforloop   0       0    ; to [4] if exit
2E94  1A800080           [03] jmp        3            ; to [7]
2E98  1D800000           [04] getglobal  0   2        ; 538022378
2E9C  5D000000           [05] getglobal  1   0        ; Delay
2EA0  22400001           [06] call       0   2   1  
2EA4  19C00000           [07] loadk      0   3        ; 0
2EA8  5D000100           [08] getglobal  1   4        ; TargetDeco
2EAC  4A008000           [09] len        1   1      
2EB0  99C00000           [10] loadk      2   3        ; 0
2EB4  10400180           [11] forprep    0   6        ; to [18]
2EB8  1D010100           [12] getglobal  4   4        ; TargetDeco
2EBC  0EC10002           [13] gettable   4   4   3  
2EC0  64414102           [14] self       5   4   261  ; -786111647
2EC4  DD810100           [15] getglobal  7   6        ; Param
2EC8  1DC20100           [16] getglobal  8   7        ; NewValue
2ECC  62410002           [17] call       5   4   1  
2ED0  1400FE7F           [18] forloop    0   -7       ; to [12] if loop
2ED4  1E008000           [19] return     0   1      
                         * constants:
2ED8  08                 sizek (8)
2ED9  04                 const type 4
2EDA  06                 string size (6)
2EDB  44656C617900       "Delay\0"
                         const [0]: "Delay"
2EE1  03                 const type 3
2EE2  00000000           const [1]: (0)
2EE6  01                 const type 3
2EE7  EA911120           const [2]: (538022378)
2EEB  03                 const type 3
2EEC  0000803F           const [3]: (0)
2EF0  04                 const type 4
2EF1  0B                 string size (11)
2EF2  5461726765744465+  "TargetDe"
2EFA  636F00             "co\0"
                         const [4]: "TargetDeco"
2EFD  01                 const type 3
2EFE  61E324D1           const [5]: (-786111647)
2F02  04                 const type 4
2F03  06                 string size (6)
2F04  506172616D00       "Param\0"
                         const [6]: "Param"
2F0A  04                 const type 4
2F0B  09                 string size (9)
2F0C  4E657756616C7565+  "NewValue"
2F14  00                 "\0"
                         const [7]: "NewValue"
                         * functions:
2F15  00                 sizep (0)
                         * lines:
2F16  13                 sizelineinfo (19)
                         [pc] (line)
2F17  D3                 [01] (-45)
2F18  01                 [02] (-45)
2F19  00                 [03] (-45)
2F1A  00                 [04] (-44)
2F1B  D3                 [05] (-44)
2F1C  01                 [06] (-44)
2F1D  00                 [07] (-42)
2F1E  00                 [08] (-42)
2F1F  D3                 [09] (-42)
2F20  01                 [10] (-42)
2F21  00                 [11] (-42)
2F22  00                 [12] (-41)
2F23  D4                 [13] (-41)
2F24  01                 [14] (-40)
2F25  00                 [15] (-40)
2F26  00                 [16] (-40)
2F27  D4                 [17] (-40)
2F28  01                 [18] (-42)
2F29  00                 [19] (-38)
                         * locals:
2F63  00                 sizelocvars (0)
                         * upvalues:
2F64  00                 sizeupvalues (0)
                         ** end of function **

                         
2F65                     ** function [11] definition (level 2)
                         ** start of function **
2F65  00                 string size (0)
                         source name: (none)
2F67  03                 line defined (476)
2F68  E4                 last line defined (484)
2F69  03                 nups (0)
2F6A  00                 numparams (0)
2F6B  00                 is_vararg (0)
2F6C  00                 maxstacksize (8)
                         * code:
2F6E  12                 sizecode (18)
2F6F  1D000000           [01] getglobal  0   0        ; Delay
fail op	33
2F73  21008080           [02] tforloop   0       0    ; to [4] if exit
2F77  1A800080           [03] jmp        3            ; to [7]
2F7B  1D800000           [04] getglobal  0   2        ; 538022378
2F7F  5D000000           [05] getglobal  1   0        ; Delay
2F83  22400001           [06] call       0   2   1  
2F87  19C00000           [07] loadk      0   3        ; 0
2F8B  5D000100           [08] getglobal  1   4        ; TargetDeco
2F8F  4A008000           [09] len        1   1      
2F93  99C00000           [10] loadk      2   3        ; 0
2F97  10000180           [11] forprep    0   5        ; to [17]
2F9B  1D010100           [12] getglobal  4   4        ; TargetDeco
2F9F  0EC10002           [13] gettable   4   4   3  
2FA3  64414102           [14] self       5   4   261  ; -703571861
2FA7  DD810100           [15] getglobal  7   6        ; NewValue
2FAB  62418001           [16] call       5   3   1  
2FAF  1440FE7F           [17] forloop    0   -6       ; to [12] if loop
2FB3  1E008000           [18] return     0   1      
                         * constants:
2FB7  07                 sizek (7)
2FB8  04                 const type 4
2FB9  06                 string size (6)
2FBA  44656C617900       "Delay\0"
                         const [0]: "Delay"
2FC0  03                 const type 3
2FC1  00000000           const [1]: (0)
2FC5  01                 const type 3
2FC6  EA911120           const [2]: (538022378)
2FCA  03                 const type 3
2FCB  0000803F           const [3]: (0)
2FCF  04                 const type 4
2FD0  0B                 string size (11)
2FD1  5461726765744465+  "TargetDe"
2FD9  636F00             "co\0"
                         const [4]: "TargetDeco"
2FDC  01                 const type 3
2FDD  6B5810D6           const [5]: (-703571861)
2FE1  04                 const type 4
2FE2  09                 string size (9)
2FE3  4E657756616C7565+  "NewValue"
2FEB  00                 "\0"
                         const [6]: "NewValue"
                         * functions:
2FEC  00                 sizep (0)
                         * lines:
2FED  12                 sizelineinfo (18)
                         [pc] (line)
2FEE  DD                 [01] (-35)
2FEF  01                 [02] (-35)
2FF0  00                 [03] (-35)
2FF1  00                 [04] (-34)
2FF2  DD                 [05] (-34)
2FF3  01                 [06] (-34)
2FF4  00                 [07] (-32)
2FF5  00                 [08] (-32)
2FF6  DD                 [09] (-32)
2FF7  01                 [10] (-32)
2FF8  00                 [11] (-32)
2FF9  00                 [12] (-31)
2FFA  DE                 [13] (-31)
2FFB  01                 [14] (-30)
2FFC  00                 [15] (-30)
2FFD  00                 [16] (-30)
2FFE  DE                 [17] (-32)
2FFF  01                 [18] (-28)
                         * locals:
3036  00                 sizelocvars (0)
                         * upvalues:
3037  00                 sizeupvalues (0)
                         ** end of function **

                         
3038                     ** function [12] definition (level 2)
                         ** start of function **
3038  00                 string size (0)
                         source name: (none)
303A  03                 line defined (486)
303B  FD                 last line defined (509)
303C  03                 nups (0)
303D  00                 numparams (1)
303E  01                 is_vararg (0)
303F  00                 maxstacksize (8)
                         * code:
3041  3B                 sizecode (59)
3042  5D000000           [01] getglobal  1   0        ; Delay
fail op	33
3046  21408080           [02] tforloop   0       1    ; to [4] if exit
304A  1A800080           [03] jmp        3            ; to [7]
304E  5D800000           [04] getglobal  1   2        ; 538022378
3052  9D000000           [05] getglobal  2   0        ; Delay
3056  62400001           [06] call       1   2   1  
305A  59400000           [07] loadk      1   1        ; 0
305E  86000001           [08] loadnil    2   2      
3062  E4C04000           [09] self       3   0   259  ; -1870903749
3066  E2800001           [10] call       3   2   2  
306A  1D010100           [11] getglobal  4   4        ; 1074689893
306E  52018001           [12] move       5   3      
3072  22810001           [13] call       4   2   2  
3076  18410000           [14] test       4       1    ; to [16] if false
307A  1A000880           [15] jmp        33           ; to [49]
307E  1D410100           [16] getglobal  4   5        ; TimeLength
fail op	21
3082  15008100           [17] concat     0   1   4  
3086  1A400580           [18] jmp        22           ; to [41]
308A  1D810100           [19] getglobal  4   6        ; -1828500651
308E  5DC10100           [20] getglobal  5   7        ; OriginalValue
3092  9D010200           [21] getglobal  6   8        ; NewValue
3096  DD410100           [22] getglobal  7   5        ; TimeLength
309A  DCC18100           [23] div        7   1   7  
309E  22810002           [24] call       4   4   2  
30A2  92000002           [25] move       2   4      
30A6  1D010100           [26] getglobal  4   4        ; 1074689893
30AA  52018001           [27] move       5   3      
30AE  22810001           [28] call       4   2   2  
30B2  18410000           [29] test       4       1    ; to [31] if false
30B6  1A800080           [30] jmp        3            ; to [34]
30BA  2441C201           [31] self       4   3   265  ; -703571861
30BE  92010001           [32] move       6   2      
30C2  22418001           [33] call       4   3   1  
30C6  1D810200           [34] getglobal  4   10       ; 1289681407
30CA  22818000           [35] call       4   1   2  
30CE  43008100           [36] add        1   1   4  
30D2  1D810000           [37] getglobal  4   2        ; 538022378
30D6  59410000           [38] loadk      5   1        ; 0
30DA  22410001           [39] call       4   2   1  
30DE  1A80F97F           [40] jmp        -25          ; to [16]
30E2  1D010100           [41] getglobal  4   4        ; 1074689893
30E6  52018001           [42] move       5   3      
30EA  22810001           [43] call       4   2   2  
30EE  18410000           [44] test       4       1    ; to [46] if false
30F2  1A800080           [45] jmp        3            ; to [49]
30F6  2441C201           [46] self       4   3   265  ; -703571861
30FA  9D010200           [47] getglobal  6   8        ; NewValue
30FE  22418001           [48] call       4   3   1  
3102  1DC10200           [49] getglobal  4   11       ; destroyAtEnd
3106  18010000           [50] test       4       0    ; to [52] if true
310A  1A800180           [51] jmp        7            ; to [59]
310E  1D010100           [52] getglobal  4   4        ; 1074689893
3112  52018001           [53] move       5   3      
3116  22810001           [54] call       4   2   2  
311A  18410000           [55] test       4       1    ; to [57] if false
311E  1A400080           [56] jmp        2            ; to [59]
3122  2401C301           [57] self       4   3   268  ; -725453761
3126  22410001           [58] call       4   2   1  
312A  1E008000           [59] return     0   1      
                         * constants:
312E  0D                 sizek (13)
312F  04                 const type 4
3130  06                 string size (6)
3131  44656C617900       "Delay\0"
                         const [0]: "Delay"
3137  03                 const type 3
3138  00000000           const [1]: (0)
313C  01                 const type 3
313D  EA911120           const [2]: (538022378)
3141  01                 const type 3
3142  3B467C90           const [3]: (-1870903749)
3146  01                 const type 3
3147  65770E40           const [4]: (1074689893)
314B  04                 const type 4
314C  0B                 string size (11)
314D  54696D654C656E67+  "TimeLeng"
3155  746800             "th\0"
                         const [5]: "TimeLength"
3158  01                 const type 3
3159  554B0393           const [6]: (-1828500651)
315D  04                 const type 4
315E  0E                 string size (14)
315F  4F726967696E616C+  "Original"
3167  56616C756500       "Value\0"
                         const [7]: "OriginalValue"
316D  04                 const type 4
316E  09                 string size (9)
316F  4E657756616C7565+  "NewValue"
3177  00                 "\0"
                         const [8]: "NewValue"
3178  01                 const type 3
3179  6B5810D6           const [9]: (-703571861)
317D  01                 const type 3
317E  FFF9DE4C           const [10]: (1289681407)
3182  04                 const type 4
3183  0D                 string size (13)
3184  64657374726F7941+  "destroyA"
318C  74456E6400         "tEnd\0"
                         const [11]: "destroyAtEnd"
3191  01                 const type 3
3192  3F74C2D4           const [12]: (-725453761)
                         * functions:
3196  00                 sizep (0)
                         * lines:
3197  3B                 sizelineinfo (59)
                         [pc] (line)
3198  E7                 [01] (-25)
3199  01                 [02] (-25)
319A  00                 [03] (-25)
319B  00                 [04] (-24)
319C  E7                 [05] (-24)
319D  01                 [06] (-24)
319E  00                 [07] (-22)
319F  00                 [08] (-21)
31A0  E7                 [09] (-20)
31A1  01                 [10] (-20)
31A2  00                 [11] (-19)
31A3  00                 [12] (-19)
31A4  E8                 [13] (-19)
31A5  01                 [14] (-19)
31A6  00                 [15] (-19)
31A7  00                 [16] (-18)
31A8  E8                 [17] (-18)
31A9  01                 [18] (-18)
31AA  00                 [19] (-17)
31AB  00                 [20] (-17)
31AC  E8                 [21] (-17)
31AD  01                 [22] (-17)
31AE  00                 [23] (-17)
31AF  00                 [24] (-17)
31B0  EA                 [25] (-17)
31B1  01                 [26] (-16)
31B2  00                 [27] (-16)
31B3  00                 [28] (-16)
31B4  EB                 [29] (-16)
31B5  01                 [30] (-16)
31B6  00                 [31] (-15)
31B7  00                 [32] (-15)
31B8  EC                 [33] (-15)
31B9  01                 [34] (-13)
31BA  00                 [35] (-13)
31BB  00                 [36] (-13)
31BC  EC                 [37] (-12)
31BD  01                 [38] (-12)
31BE  00                 [39] (-12)
31BF  00                 [40] (-12)
31C0  ED                 [41] (-10)
31C1  01                 [42] (-10)
31C2  00                 [43] (-10)
31C3  00                 [44] (-10)
31C4  ED                 [45] (-10)
31C5  01                 [46] (-9)
31C6  00                 [47] (-9)
31C7  00                 [48] (-9)
31C8  ED                 [49] (-6)
31C9  01                 [50] (-6)
31CA  00                 [51] (-6)
31CB  00                 [52] (-6)
31CC  ED                 [53] (-6)
31CD  01                 [54] (-6)
31CE  00                 [55] (-6)
31CF  00                 [56] (-6)
31D0  ED                 [57] (-5)
31D1  01                 [58] (-5)
31D2  00                 [59] (-3)
                         * locals:
3284  00                 sizelocvars (0)
                         * upvalues:
3285  00                 sizeupvalues (0)
                         ** end of function **

                         
3286                     ** function [13] definition (level 2)
                         ** start of function **
3286  00                 string size (0)
                         source name: (none)
3288  03                 line defined (511)
3289  AC                 last line defined (556)
328A  04                 nups (1)
328B  01                 numparams (1)
328C  01                 is_vararg (0)
328D  00                 maxstacksize (13)
                         * code:
328F  7A                 sizecode (122)
3290  64004000           [001] self       1   0   256  ; -786111647
3294  DD400000           [002] getglobal  3   1        ; Param
3298  1D810000           [003] getglobal  4   2        ; OriginalValue
329C  62400002           [004] call       1   4   1  
32A0  64004000           [005] self       1   0   256  ; -786111647
32A4  DDC00000           [006] getglobal  3   3        ; ParamTwo
32A8  1D010100           [007] getglobal  4   4        ; OriginalValueTwo
32AC  62400002           [008] call       1   4   1  
32B0  5D400100           [009] getglobal  1   5        ; applyEnergyColor
32B4  58000000           [010] test       1       0    ; to [12] if true
32B8  1A000180           [011] jmp        5            ; to [17]
32BC  53000000           [012] getupval   1   0      
32C0  92000000           [013] move       2   0      
32C4  DD800100           [014] getglobal  3   6        ; energyColorParam
32C8  1DC10100           [015] getglobal  4   7        ; getParentFirst
32CC  62400002           [016] call       1   4   1  
32D0  5D000200           [017] getglobal  1   8        ; Delay
fail op	33
32D4  21408084           [018] tforloop   0       1    ; to [20] if exit
32D8  1A800080           [019] jmp        3            ; to [23]
32DC  5D800200           [020] getglobal  1   10       ; 538022378
32E0  9D000200           [021] getglobal  2   8        ; Delay
32E4  62400001           [022] call       1   2   1  
32E8  59C00200           [023] loadk      1   11       ; 0
32EC  9D000300           [024] getglobal  2   12       ; getCastingSpeed
fail op	35
32F0  23404301           [025] close      0  
32F4  1A800780           [026] jmp        31           ; to [58]
32F8  86000001           [027] loadnil    2   2      
32FC  DD800300           [028] getglobal  3   14       ; gcsGetCreator
3300  D8000000           [029] test       3       0    ; to [31] if true
3304  1AC00080           [030] jmp        4            ; to [35]
3308  E4C04300           [031] self       3   0   271  ; 129677183
330C  E2800001           [032] call       3   2   2  
3310  92008001           [033] move       2   3      
3314  1A800080           [034] jmp        3            ; to [38]
3318  E4004400           [035] self       3   0   272  ; -704974830
331C  E2800001           [036] call       3   2   2  
3320  92008001           [037] move       2   3      
3324  DD400400           [038] getglobal  3   17       ; 1074689893
3328  12010001           [039] move       4   2      
332C  E2800001           [040] call       3   2   2  
3330  D8400000           [041] test       3       1    ; to [43] if false
3334  1A800380           [042] jmp        15           ; to [58]
3338  E4804401           [043] self       3   2   274  ; -1917464545
333C  E2800001           [044] call       3   2   2  
3340  24C1C401           [045] self       4   3   275  ; 1769516121
3344  22810001           [046] call       4   2   2  
3348  64814401           [047] self       5   2   274  ; -1917464545
334C  62810001           [048] call       5   2   2  
3350  6401C502           [049] self       5   5   276  ; -940929887
3354  D9C10200           [050] loadk      7   11       ; 0
3358  1D420500           [051] getglobal  8   21       ; Game
335C  0E824504           [052] gettable   8   8   278  ; "AVATAR_CASTING_SPEED"
3360  64C24502           [053] self       9   4   279  ; -491574171
3364  62820001           [054] call       9   2   2  
3368  92020002           [055] move       10  4      
336C  62810003           [056] call       5   6   2  
3370  52008002           [057] move       1   5      
3374  59410200           [058] loadk      5   9        ; 0
3378  86018003           [059] loadnil    6   7      
337C  1D020600           [060] getglobal  8   24       ; TimeLength
fail op	21
3380  15008202           [061] concat     0   5   8  
3384  1A000C80           [062] jmp        49           ; to [112]
3388  1D020600           [063] getglobal  8   24       ; TimeLength
338C  1C028202           [064] div        8   5   8  
3390  5D420600           [065] getglobal  9   25       ; powScale
3394  58020000           [066] test       9       0    ; to [68] if true
3398  1AC00380           [067] jmp        16           ; to [84]
339C  5D820600           [068] getglobal  9   26       ; invertPowScale
33A0  58020000           [069] test       9       0    ; to [71] if true
33A4  1A800180           [070] jmp        7            ; to [78]
33A8  5DC20600           [071] getglobal  9   27       ; math
33AC  4E02C704           [072] gettable   9   9   284  ; -688728047
33B0  8D028285           [073] sub        10  267 8    ; 0
33B4  DD420700           [074] getglobal  11  29       ; powerAmount
33B8  62828001           [075] call       9   3   2  
33BC  0D428285           [076] sub        8   267 9    ; 0
33C0  1A400180           [077] jmp        6            ; to [84]
33C4  5DC20600           [078] getglobal  9   27       ; math
33C8  4E02C704           [079] gettable   9   9   284  ; -688728047
33CC  92020004           [080] move       10  8      
33D0  DD420700           [081] getglobal  11  29       ; powerAmount
33D4  62828001           [082] call       9   3   2  
33D8  12028004           [083] move       8   9      
33DC  5D820700           [084] getglobal  9   30       ; -1828500651
33E0  9D820000           [085] getglobal  10  2        ; OriginalValue
33E4  DDC20700           [086] getglobal  11  31       ; NewValue
33E8  12030004           [087] move       12  8      
33EC  62820002           [088] call       9   4   2  
33F0  92018004           [089] move       6   9      
33F4  5D820700           [090] getglobal  9   30       ; -1828500651
33F8  9D020100           [091] getglobal  10  4        ; OriginalValueTwo
33FC  DD020800           [092] getglobal  11  32       ; NewValueTwo
3400  12030004           [093] move       12  8      
3404  62820002           [094] call       9   4   2  
3408  D2018004           [095] move       7   9      
340C  64024000           [096] self       9   0   256  ; -786111647
3410  DD420000           [097] getglobal  11  1        ; Param
3414  12030003           [098] move       12  6      
3418  62420002           [099] call       9   4   1  
341C  64024000           [100] self       9   0   256  ; -786111647
3420  DDC20000           [101] getglobal  11  3        ; ParamTwo
3424  12038003           [102] move       12  7      
3428  62420002           [103] call       9   4   1  
342C  5D420800           [104] getglobal  9   33       ; 1289681407
3430  62828000           [105] call       9   1   2  
3434  44428004           [106] mul        9   9   1  
3438  43418202           [107] add        5   5   9  
343C  5D820200           [108] getglobal  9   10       ; 538022378
3440  99420200           [109] loadk      10  9        ; 0
3444  62420001           [110] call       9   2   1  
3448  1AC0F27F           [111] jmp        -52          ; to [60]
344C  5D820800           [112] getglobal  9   34       ; destroyAtEnd
3450  58020000           [113] test       9       0    ; to [115] if true
3454  1A800180           [114] jmp        7            ; to [122]
3458  5D420400           [115] getglobal  9   17       ; 1074689893
345C  92020000           [116] move       10  0      
3460  62820001           [117] call       9   2   2  
3464  58420000           [118] test       9       1    ; to [120] if false
3468  1A400080           [119] jmp        2            ; to [122]
346C  64C24800           [120] self       9   0   291  ; -725453761
3470  62420001           [121] call       9   2   1  
3474  1E008000           [122] return     0   1      
                         * constants:
3478  24                 sizek (36)
3479  01                 const type 3
347A  61E324D1           const [0]: (-786111647)
347E  04                 const type 4
347F  06                 string size (6)
3480  506172616D00       "Param\0"
                         const [1]: "Param"
3486  04                 const type 4
3487  0E                 string size (14)
3488  4F726967696E616C+  "Original"
3490  56616C756500       "Value\0"
                         const [2]: "OriginalValue"
3496  04                 const type 4
3497  09                 string size (9)
3498  506172616D54776F+  "ParamTwo"
34A0  00                 "\0"
                         const [3]: "ParamTwo"
34A1  04                 const type 4
34A2  11                 string size (17)
34A3  4F726967696E616C+  "Original"
34AB  56616C756554776F+  "ValueTwo"
34B3  00                 "\0"
                         const [4]: "OriginalValueTwo"
34B4  04                 const type 4
34B5  11                 string size (17)
34B6  6170706C79456E65+  "applyEne"
34BE  726779436F6C6F72+  "rgyColor"
34C6  00                 "\0"
                         const [5]: "applyEnergyColor"
34C7  04                 const type 4
34C8  11                 string size (17)
34C9  656E65726779436F+  "energyCo"
34D1  6C6F72506172616D+  "lorParam"
34D9  00                 "\0"
                         const [6]: "energyColorParam"
34DA  04                 const type 4
34DB  0F                 string size (15)
34DC  676574506172656E+  "getParen"
34E4  74466972737400     "tFirst\0"
                         const [7]: "getParentFirst"
34EB  04                 const type 4
34EC  06                 string size (6)
34ED  44656C617900       "Delay\0"
                         const [8]: "Delay"
34F3  03                 const type 3
34F4  00000000           const [9]: (0)
34F8  01                 const type 3
34F9  EA911120           const [10]: (538022378)
34FD  03                 const type 3
34FE  0000803F           const [11]: (0)
3502  04                 const type 4
3503  10                 string size (16)
3504  6765744361737469+  "getCasti"
350C  6E67537065656400   "ngSpeed\0"
                         const [12]: "getCastingSpeed"
3514  01                 const type 3
3515  01000000           const [13]: (1)
3519  04                 const type 4
351A  0E                 string size (14)
351B  6763734765744372+  "gcsGetCr"
3523  6561746F7200       "eator\0"
                         const [14]: "gcsGetCreator"
3529  01                 const type 3
352A  7FB7BA07           const [15]: (129677183)
352E  01                 const type 3
352F  12F0FAD5           const [16]: (-704974830)
3533  01                 const type 3
3534  65770E40           const [17]: (1074689893)
3538  01                 const type 3
3539  1FD0B58D           const [18]: (-1917464545)
353D  01                 const type 3
353E  59AC7869           const [19]: (1769516121)
3542  01                 const type 3
3543  A18CEAC7           const [20]: (-940929887)
3547  04                 const type 4
3548  05                 string size (5)
3549  47616D6500         "Game\0"
                         const [21]: "Game"
354E  04                 const type 4
354F  15                 string size (21)
3550  4156415441525F43+  "AVATAR_C"
3558  415354494E475F53+  "ASTING_S"
3560  5045454400         "PEED\0"
                         const [22]: "AVATAR_CASTING_SPEED"
3565  01                 const type 3
3566  652CB3E2           const [23]: (-491574171)
356A  04                 const type 4
356B  0B                 string size (11)
356C  54696D654C656E67+  "TimeLeng"
3574  746800             "th\0"
                         const [24]: "TimeLength"
3577  04                 const type 4
3578  09                 string size (9)
3579  706F775363616C65+  "powScale"
3581  00                 "\0"
                         const [25]: "powScale"
3582  04                 const type 4
3583  0F                 string size (15)
3584  696E76657274506F+  "invertPo"
358C  775363616C6500     "wScale\0"
                         const [26]: "invertPowScale"
3593  04                 const type 4
3594  05                 string size (5)
3595  6D61746800         "math\0"
                         const [27]: "math"
359A  01                 const type 3
359B  11D8F2D6           const [28]: (-688728047)
359F  04                 const type 4
35A0  0C                 string size (12)
35A1  706F776572416D6F+  "powerAmo"
35A9  756E7400           "unt\0"
                         const [29]: "powerAmount"
35AD  01                 const type 3
35AE  554B0393           const [30]: (-1828500651)
35B2  04                 const type 4
35B3  09                 string size (9)
35B4  4E657756616C7565+  "NewValue"
35BC  00                 "\0"
                         const [31]: "NewValue"
35BD  04                 const type 4
35BE  0C                 string size (12)
35BF  4E657756616C7565+  "NewValue"
35C7  54776F00           "Two\0"
                         const [32]: "NewValueTwo"
35CB  01                 const type 3
35CC  FFF9DE4C           const [33]: (1289681407)
35D0  04                 const type 4
35D1  0D                 string size (13)
35D2  64657374726F7941+  "destroyA"
35DA  74456E6400         "tEnd\0"
                         const [34]: "destroyAtEnd"
35DF  01                 const type 3
35E0  3F74C2D4           const [35]: (-725453761)
                         * functions:
35E4  00                 sizep (0)
                         * lines:
35E5  7A                 sizelineinfo (122)
                         [pc] (line)
35E6  00                 [001] (0)
35E7  02                 [002] (0)
35E8  00                 [003] (0)
35E9  00                 [004] (0)
35EA  00                 [005] (1)
35EB  02                 [006] (1)
35EC  00                 [007] (1)
35ED  00                 [008] (1)
35EE  00                 [009] (2)
35EF  02                 [010] (2)
35F0  00                 [011] (2)
35F1  00                 [012] (3)
35F2  00                 [013] (3)
35F3  02                 [014] (3)
35F4  00                 [015] (3)
35F5  00                 [016] (3)
35F6  01                 [017] (5)
35F7  02                 [018] (5)
35F8  00                 [019] (5)
35F9  00                 [020] (6)
35FA  01                 [021] (6)
35FB  02                 [022] (6)
35FC  00                 [023] (8)
35FD  00                 [024] (9)
35FE  01                 [025] (9)
35FF  02                 [026] (9)
3600  00                 [027] (10)
3601  00                 [028] (11)
3602  01                 [029] (11)
3603  02                 [030] (11)
3604  00                 [031] (12)
3605  00                 [032] (12)
3606  02                 [033] (12)
3607  02                 [034] (12)
3608  00                 [035] (14)
3609  00                 [036] (14)
360A  02                 [037] (14)
360B  02                 [038] (16)
360C  00                 [039] (16)
360D  00                 [040] (16)
360E  02                 [041] (16)
360F  02                 [042] (16)
3610  00                 [043] (17)
3611  00                 [044] (17)
3612  03                 [045] (18)
3613  02                 [046] (18)
3614  00                 [047] (19)
3615  00                 [048] (19)
3616  03                 [049] (19)
3617  02                 [050] (19)
3618  00                 [051] (19)
3619  00                 [052] (19)
361A  03                 [053] (19)
361B  02                 [054] (19)
361C  00                 [055] (19)
361D  00                 [056] (19)
361E  03                 [057] (19)
361F  02                 [058] (22)
3620  00                 [059] (23)
3621  00                 [060] (25)
3622  03                 [061] (25)
3623  02                 [062] (25)
3624  00                 [063] (26)
3625  00                 [064] (26)
3626  05                 [065] (27)
3627  02                 [066] (27)
3628  00                 [067] (27)
3629  00                 [068] (28)
362A  05                 [069] (28)
362B  02                 [070] (28)
362C  00                 [071] (29)
362D  00                 [072] (29)
362E  05                 [073] (29)
362F  02                 [074] (29)
3630  00                 [075] (29)
3631  00                 [076] (29)
3632  06                 [077] (29)
3633  02                 [078] (31)
3634  00                 [079] (31)
3635  00                 [080] (31)
3636  06                 [081] (31)
3637  02                 [082] (31)
3638  00                 [083] (31)
3639  00                 [084] (34)
363A  06                 [085] (34)
363B  02                 [086] (34)
363C  00                 [087] (34)
363D  00                 [088] (34)
363E  08                 [089] (34)
363F  02                 [090] (35)
3640  00                 [091] (35)
3641  00                 [092] (35)
3642  09                 [093] (35)
3643  02                 [094] (35)
3644  00                 [095] (35)
3645  00                 [096] (36)
3646  09                 [097] (36)
3647  02                 [098] (36)
3648  00                 [099] (36)
3649  00                 [100] (37)
364A  09                 [101] (37)
364B  02                 [102] (37)
364C  00                 [103] (37)
364D  00                 [104] (38)
364E  0A                 [105] (38)
364F  02                 [106] (38)
3650  00                 [107] (38)
3651  00                 [108] (39)
3652  0B                 [109] (39)
3653  02                 [110] (39)
3654  00                 [111] (39)
3655  00                 [112] (41)
3656  0B                 [113] (41)
3657  02                 [114] (41)
3658  00                 [115] (41)
3659  00                 [116] (41)
365A  0B                 [117] (41)
365B  02                 [118] (41)
365C  00                 [119] (41)
365D  00                 [120] (42)
365E  0C                 [121] (42)
365F  02                 [122] (44)
                         * locals:
37CE  00                 sizelocvars (0)
                         * upvalues:
37CF  00                 sizeupvalues (0)
                         ** end of function **

                         
37D0                     ** function [14] definition (level 2)
                         ** start of function **
37D0  00                 string size (0)
                         source name: (none)
37D2  04                 line defined (558)
37D3  CB                 last line defined (587)
37D4  04                 nups (0)
37D5  00                 numparams (1)
37D6  01                 is_vararg (0)
37D7  00                 maxstacksize (9)
                         * code:
37D9  3D                 sizecode (61)
37DA  5D000000           [01] getglobal  1   0        ; Delay
fail op	33
37DE  21408080           [02] tforloop   0       1    ; to [4] if exit
37E2  1A800080           [03] jmp        3            ; to [7]
37E6  5D800000           [04] getglobal  1   2        ; 538022378
37EA  9D000000           [05] getglobal  2   0        ; Delay
37EE  62400001           [06] call       1   2   1  
37F2  59400000           [07] loadk      1   1        ; 0
37F6  86008001           [08] loadnil    2   3      
37FA  1DC10000           [09] getglobal  4   3        ; ValleyValue
37FE  5D010100           [10] getglobal  5   4        ; TimeLength
fail op	21
3802  15408100           [11] concat     0   1   5  
3806  1A400980           [12] jmp        38           ; to [51]
380A  5D410100           [13] getglobal  5   5        ; Peak
fail op	21
380E  15408100           [14] concat     0   1   5  
3812  1A800080           [15] jmp        3            ; to [19]
3816  5D410100           [16] getglobal  5   5        ; Peak
381A  9C408100           [17] div        2   1   5  
381E  1A000380           [18] jmp        13           ; to [32]
3822  5D810100           [19] getglobal  5   6        ; PeakEnd
fail op	21
3826  15408100           [20] concat     0   1   5  
382A  1A400080           [21] jmp        2            ; to [24]
382E  99C00100           [22] loadk      2   7        ; 0
3832  1AC00180           [23] jmp        8            ; to [32]
3836  1D010200           [24] getglobal  4   8        ; ValleyEndValue
383A  5D810100           [25] getglobal  5   6        ; PeakEnd
383E  4D418100           [26] sub        5   1   5  
3842  9D010100           [27] getglobal  6   4        ; TimeLength
3846  DD810100           [28] getglobal  7   6        ; PeakEnd
384A  8DC10103           [29] sub        6   6   7  
384E  5C818102           [30] div        5   5   6  
3852  8D408183           [31] sub        2   263 5    ; 0
fail op	21
3856  15404001           [32] concat     0   2   257
385A  1A000080           [33] jmp        1            ; to [35]
385E  99400000           [34] loadk      2   1        ; 0
3862  5D410200           [35] getglobal  5   9        ; -1828500651
3866  92010002           [36] move       6   4      
386A  DD810200           [37] getglobal  7   10       ; PeakValue
386E  12020001           [38] move       8   2      
3872  62810002           [39] call       5   4   2  
3876  D2008002           [40] move       3   5      
387A  64C14200           [41] self       5   0   267  ; -703571861
387E  D2018001           [42] move       7   3      
3882  62418001           [43] call       5   3   1  
3886  5D010300           [44] getglobal  5   12       ; 1289681407
388A  62818000           [45] call       5   1   2  
388E  43408100           [46] add        1   1   5  
3892  5D810000           [47] getglobal  5   2        ; 538022378
3896  99410000           [48] loadk      6   1        ; 0
389A  62410001           [49] call       5   2   1  
389E  1A80F57F           [50] jmp        -41          ; to [10]
38A2  5D410300           [51] getglobal  5   13       ; destroyAtEnd
38A6  58010000           [52] test       5       0    ; to [54] if true
38AA  1A800180           [53] jmp        7            ; to [61]
38AE  5D810300           [54] getglobal  5   14       ; 1074689893
38B2  92010000           [55] move       6   0      
38B6  62810001           [56] call       5   2   2  
38BA  58410000           [57] test       5       1    ; to [59] if false
38BE  1A400080           [58] jmp        2            ; to [61]
38C2  64C14300           [59] self       5   0   271  ; -725453761
38C6  62410001           [60] call       5   2   1  
38CA  1E008000           [61] return     0   1      
                         * constants:
38CE  10                 sizek (16)
38CF  04                 const type 4
38D0  06                 string size (6)
38D1  44656C617900       "Delay\0"
                         const [0]: "Delay"
38D7  03                 const type 3
38D8  00000000           const [1]: (0)
38DC  01                 const type 3
38DD  EA911120           const [2]: (538022378)
38E1  04                 const type 4
38E2  0C                 string size (12)
38E3  56616C6C65795661+  "ValleyVa"
38EB  6C756500           "lue\0"
                         const [3]: "ValleyValue"
38EF  04                 const type 4
38F0  0B                 string size (11)
38F1  54696D654C656E67+  "TimeLeng"
38F9  746800             "th\0"
                         const [4]: "TimeLength"
38FC  04                 const type 4
38FD  05                 string size (5)
38FE  5065616B00         "Peak\0"
                         const [5]: "Peak"
3903  04                 const type 4
3904  08                 string size (8)
3905  5065616B456E6400   "PeakEnd\0"
                         const [6]: "PeakEnd"
390D  03                 const type 3
390E  0000803F           const [7]: (0)
3912  04                 const type 4
3913  0F                 string size (15)
3914  56616C6C6579456E+  "ValleyEn"
391C  6456616C756500     "dValue\0"
                         const [8]: "ValleyEndValue"
3923  01                 const type 3
3924  554B0393           const [9]: (-1828500651)
3928  04                 const type 4
3929  0A                 string size (10)
392A  5065616B56616C75+  "PeakValu"
3932  6500               "e\0"
                         const [10]: "PeakValue"
3934  01                 const type 3
3935  6B5810D6           const [11]: (-703571861)
3939  01                 const type 3
393A  FFF9DE4C           const [12]: (1289681407)
393E  04                 const type 4
393F  0D                 string size (13)
3940  64657374726F7941+  "destroyA"
3948  74456E6400         "tEnd\0"
                         const [13]: "destroyAtEnd"
394D  01                 const type 3
394E  65770E40           const [14]: (1074689893)
3952  01                 const type 3
3953  3F74C2D4           const [15]: (-725453761)
                         * functions:
3957  00                 sizep (0)
                         * lines:
3958  3D                 sizelineinfo (61)
                         [pc] (line)
3959  2F                 [01] (47)
395A  02                 [02] (47)
395B  00                 [03] (47)
395C  00                 [04] (48)
395D  2F                 [05] (48)
395E  02                 [06] (48)
395F  00                 [07] (50)
3960  00                 [08] (51)
3961  2F                 [09] (53)
3962  02                 [10] (54)
3963  00                 [11] (54)
3964  00                 [12] (54)
3965  30                 [13] (55)
3966  02                 [14] (55)
3967  00                 [15] (55)
3968  00                 [16] (56)
3969  30                 [17] (56)
396A  02                 [18] (56)
396B  00                 [19] (57)
396C  00                 [20] (57)
396D  30                 [21] (57)
396E  02                 [22] (58)
396F  00                 [23] (58)
3970  00                 [24] (60)
3971  32                 [25] (61)
3972  02                 [26] (61)
3973  00                 [27] (61)
3974  00                 [28] (61)
3975  33                 [29] (61)
3976  02                 [30] (61)
3977  00                 [31] (61)
3978  00                 [32] (64)
3979  35                 [33] (64)
397A  02                 [34] (65)
397B  00                 [35] (67)
397C  00                 [36] (67)
397D  36                 [37] (67)
397E  02                 [38] (67)
397F  00                 [39] (67)
3980  00                 [40] (67)
3981  36                 [41] (68)
3982  02                 [42] (68)
3983  00                 [43] (68)
3984  00                 [44] (69)
3985  36                 [45] (69)
3986  02                 [46] (69)
3987  00                 [47] (70)
3988  00                 [48] (70)
3989  37                 [49] (70)
398A  02                 [50] (70)
398B  00                 [51] (72)
398C  00                 [52] (72)
398D  37                 [53] (72)
398E  02                 [54] (72)
398F  00                 [55] (72)
3990  00                 [56] (72)
3991  37                 [57] (72)
3992  02                 [58] (72)
3993  00                 [59] (73)
3994  00                 [60] (73)
3995  38                 [61] (75)
                         * locals:
3A4D  00                 sizelocvars (0)
                         * upvalues:
3A4E  00                 sizeupvalues (0)
                         ** end of function **

                         
3A4F                     ** function [15] definition (level 2)
                         ** start of function **
3A4F  00                 string size (0)
                         source name: (none)
3A51  04                 line defined (589)
3A52  ED                 last line defined (621)
3A53  04                 nups (0)
3A54  00                 numparams (1)
3A55  01                 is_vararg (0)
3A56  00                 maxstacksize (10)
                         * code:
3A58  47                 sizecode (71)
3A59  5D000000           [01] getglobal  1   0        ; Delay
fail op	33
3A5D  21408080           [02] tforloop   0       1    ; to [4] if exit
3A61  1A800080           [03] jmp        3            ; to [7]
3A65  5D800000           [04] getglobal  1   2        ; 538022378
3A69  9D000000           [05] getglobal  2   0        ; Delay
3A6D  62400001           [06] call       1   2   1  
3A71  59400000           [07] loadk      1   1        ; 0
3A75  86008001           [08] loadnil    2   3      
3A79  1DC10000           [09] getglobal  4   3        ; ValleyValue
3A7D  5D010100           [10] getglobal  5   4        ; meshScaleValley
3A81  9D410100           [11] getglobal  6   5        ; TimeLength
fail op	21
3A85  15808100           [12] concat     0   1   6  
3A89  1A800B80           [13] jmp        47           ; to [61]
3A8D  9D810100           [14] getglobal  6   6        ; Peak
fail op	21
3A91  15808100           [15] concat     0   1   6  
3A95  1A800080           [16] jmp        3            ; to [20]
3A99  9D810100           [17] getglobal  6   6        ; Peak
3A9D  9C808100           [18] div        2   1   6  
3AA1  1A000380           [19] jmp        13           ; to [33]
3AA5  9DC10100           [20] getglobal  6   7        ; PeakEnd
fail op	21
3AA9  15808100           [21] concat     0   1   6  
3AAD  1A400080           [22] jmp        2            ; to [25]
3AB1  99000200           [23] loadk      2   8        ; 0
3AB5  1AC00180           [24] jmp        8            ; to [33]
3AB9  1D410200           [25] getglobal  4   9        ; ValleyEndValue
3ABD  9DC10100           [26] getglobal  6   7        ; PeakEnd
3AC1  8D818100           [27] sub        6   1   6  
3AC5  DD410100           [28] getglobal  7   5        ; TimeLength
3AC9  1DC20100           [29] getglobal  8   7        ; PeakEnd
3ACD  CD018203           [30] sub        7   7   8  
3AD1  9CC10103           [31] div        6   6   7  
3AD5  8D800184           [32] sub        2   264 6    ; 0
fail op	21
3AD9  15404001           [33] concat     0   2   257
3ADD  1A000080           [34] jmp        1            ; to [36]
3AE1  99400000           [35] loadk      2   1        ; 0
3AE5  9D810200           [36] getglobal  6   10       ; -1828500651
3AE9  D2010002           [37] move       7   4      
3AED  1DC20200           [38] getglobal  8   11       ; PeakValue
3AF1  52020001           [39] move       9   2      
3AF5  A2810002           [40] call       6   4   2  
3AF9  D2000003           [41] move       3   6      
3AFD  A4014300           [42] self       6   0   268  ; -703571861
3B01  12028001           [43] move       8   3      
3B05  A2418001           [44] call       6   3   1  
3B09  9D810200           [45] getglobal  6   10       ; -1828500651
3B0D  D2018002           [46] move       7   5      
3B11  1D420300           [47] getglobal  8   13       ; meshScalePeak
3B15  52020001           [48] move       9   2      
3B19  A2810002           [49] call       6   4   2  
3B1D  D2000003           [50] move       3   6      
3B21  A4814300           [51] self       6   0   270  ; 1786666898
3B25  12028001           [52] move       8   3      
3B29  A2418001           [53] call       6   3   1  
3B2D  9DC10300           [54] getglobal  6   15       ; 1289681407
3B31  A2818000           [55] call       6   1   2  
3B35  43808100           [56] add        1   1   6  
3B39  9D810000           [57] getglobal  6   2        ; 538022378
3B3D  D9410000           [58] loadk      7   1        ; 0
3B41  A2410001           [59] call       6   2   1  
3B45  1A40F37F           [60] jmp        -50          ; to [11]
3B49  9D010400           [61] getglobal  6   16       ; destroyAtEnd
3B4D  98010000           [62] test       6       0    ; to [64] if true
3B51  1A800180           [63] jmp        7            ; to [71]
3B55  9D410400           [64] getglobal  6   17       ; 1074689893
3B59  D2010000           [65] move       7   0      
3B5D  A2810001           [66] call       6   2   2  
3B61  98410000           [67] test       6       1    ; to [69] if false
3B65  1A400080           [68] jmp        2            ; to [71]
3B69  A4814400           [69] self       6   0   274  ; -725453761
3B6D  A2410001           [70] call       6   2   1  
3B71  1E008000           [71] return     0   1      
                         * constants:
3B75  13                 sizek (19)
3B76  04                 const type 4
3B77  06                 string size (6)
3B78  44656C617900       "Delay\0"
                         const [0]: "Delay"
3B7E  03                 const type 3
3B7F  00000000           const [1]: (0)
3B83  01                 const type 3
3B84  EA911120           const [2]: (538022378)
3B88  04                 const type 4
3B89  0C                 string size (12)
3B8A  56616C6C65795661+  "ValleyVa"
3B92  6C756500           "lue\0"
                         const [3]: "ValleyValue"
3B96  04                 const type 4
3B97  10                 string size (16)
3B98  6D6573685363616C+  "meshScal"
3BA0  6556616C6C657900   "eValley\0"
                         const [4]: "meshScaleValley"
3BA8  04                 const type 4
3BA9  0B                 string size (11)
3BAA  54696D654C656E67+  "TimeLeng"
3BB2  746800             "th\0"
                         const [5]: "TimeLength"
3BB5  04                 const type 4
3BB6  05                 string size (5)
3BB7  5065616B00         "Peak\0"
                         const [6]: "Peak"
3BBC  04                 const type 4
3BBD  08                 string size (8)
3BBE  5065616B456E6400   "PeakEnd\0"
                         const [7]: "PeakEnd"
3BC6  03                 const type 3
3BC7  0000803F           const [8]: (0)
3BCB  04                 const type 4
3BCC  0F                 string size (15)
3BCD  56616C6C6579456E+  "ValleyEn"
3BD5  6456616C756500     "dValue\0"
                         const [9]: "ValleyEndValue"
3BDC  01                 const type 3
3BDD  554B0393           const [10]: (-1828500651)
3BE1  04                 const type 4
3BE2  0A                 string size (10)
3BE3  5065616B56616C75+  "PeakValu"
3BEB  6500               "e\0"
                         const [11]: "PeakValue"
3BED  01                 const type 3
3BEE  6B5810D6           const [12]: (-703571861)
3BF2  04                 const type 4
3BF3  0E                 string size (14)
3BF4  6D6573685363616C+  "meshScal"
3BFC  655065616B00       "ePeak\0"
                         const [13]: "meshScalePeak"
3C02  01                 const type 3
3C03  925F7E6A           const [14]: (1786666898)
3C07  01                 const type 3
3C08  FFF9DE4C           const [15]: (1289681407)
3C0C  04                 const type 4
3C0D  0D                 string size (13)
3C0E  64657374726F7941+  "destroyA"
3C16  74456E6400         "tEnd\0"
                         const [16]: "destroyAtEnd"
3C1B  01                 const type 3
3C1C  65770E40           const [17]: (1074689893)
3C20  01                 const type 3
3C21  3F74C2D4           const [18]: (-725453761)
                         * functions:
3C25  00                 sizep (0)
                         * lines:
3C26  47                 sizelineinfo (71)
                         [pc] (line)
3C27  4E                 [01] (78)
3C28  02                 [02] (78)
3C29  00                 [03] (78)
3C2A  00                 [04] (79)
3C2B  4E                 [05] (79)
3C2C  02                 [06] (79)
3C2D  00                 [07] (81)
3C2E  00                 [08] (82)
3C2F  4E                 [09] (84)
3C30  02                 [10] (85)
3C31  00                 [11] (86)
3C32  00                 [12] (86)
3C33  4F                 [13] (86)
3C34  02                 [14] (87)
3C35  00                 [15] (87)
3C36  00                 [16] (87)
3C37  4F                 [17] (88)
3C38  02                 [18] (88)
3C39  00                 [19] (88)
3C3A  00                 [20] (89)
3C3B  4F                 [21] (89)
3C3C  02                 [22] (89)
3C3D  00                 [23] (90)
3C3E  00                 [24] (90)
3C3F  51                 [25] (92)
3C40  02                 [26] (93)
3C41  00                 [27] (93)
3C42  00                 [28] (93)
3C43  52                 [29] (93)
3C44  02                 [30] (93)
3C45  00                 [31] (93)
3C46  00                 [32] (93)
3C47  54                 [33] (96)
3C48  02                 [34] (96)
3C49  00                 [35] (97)
3C4A  00                 [36] (99)
3C4B  55                 [37] (99)
3C4C  02                 [38] (99)
3C4D  00                 [39] (99)
3C4E  00                 [40] (99)
3C4F  56                 [41] (99)
3C50  02                 [42] (100)
3C51  00                 [43] (100)
3C52  00                 [44] (100)
3C53  56                 [45] (101)
3C54  02                 [46] (101)
3C55  00                 [47] (101)
3C56  00                 [48] (101)
3C57  56                 [49] (101)
3C58  02                 [50] (101)
3C59  00                 [51] (102)
3C5A  00                 [52] (102)
3C5B  57                 [53] (102)
3C5C  02                 [54] (103)
3C5D  00                 [55] (103)
3C5E  00                 [56] (103)
3C5F  57                 [57] (104)
3C60  02                 [58] (104)
3C61  00                 [59] (104)
3C62  00                 [60] (104)
3C63  57                 [61] (106)
3C64  02                 [62] (106)
3C65  00                 [63] (106)
3C66  00                 [64] (106)
3C67  58                 [65] (106)
3C68  02                 [66] (106)
3C69  00                 [67] (106)
3C6A  00                 [68] (106)
3C6B  58                 [69] (107)
3C6C  02                 [70] (107)
3C6D  00                 [71] (109)
                         * locals:
3D43  00                 sizelocvars (0)
                         * upvalues:
3D44  00                 sizeupvalues (0)
                         ** end of function **

                         
3D45                     ** function [16] definition (level 2)
                         ** start of function **
3D45  00                 string size (0)
                         source name: (none)
3D47  04                 line defined (623)
3D48  90                 last line defined (656)
3D49  05                 nups (1)
3D4A  01                 numparams (1)
3D4B  01                 is_vararg (0)
3D4C  00                 maxstacksize (10)
                         * code:
3D4E  4B                 sizecode (75)
3D4F  5D000000           [01] getglobal  1   0        ; Delay
fail op	33
3D53  21408080           [02] tforloop   0       1    ; to [4] if exit
3D57  1A800080           [03] jmp        3            ; to [7]
3D5B  5D800000           [04] getglobal  1   2        ; 538022378
3D5F  9D000000           [05] getglobal  2   0        ; Delay
3D63  62400001           [06] call       1   2   1  
3D67  59400000           [07] loadk      1   1        ; 0
3D6B  86008001           [08] loadnil    2   3      
3D6F  1DC10000           [09] getglobal  4   3        ; ValleyValue
3D73  5D010100           [10] getglobal  5   4        ; applyEnergyColor
3D77  58010000           [11] test       5       0    ; to [13] if true
3D7B  1A000180           [12] jmp        5            ; to [18]
3D7F  53010000           [13] getupval   5   0      
3D83  92010000           [14] move       6   0      
3D87  DD410100           [15] getglobal  7   5        ; energyColorParam
3D8B  1D820100           [16] getglobal  8   6        ; getParentFirst
3D8F  62410002           [17] call       5   4   1  
3D93  64C14100           [18] self       5   0   263  ; 1786666898
3D97  DD010200           [19] getglobal  7   8        ; -1941280958
3D9B  1D420200           [20] getglobal  8   9        ; meshScaleValley
3D9F  5D820200           [21] getglobal  9   10       ; meshScalePeak
3DA3  E2018001           [22] call       7   3   0  
3DA7  62410000           [23] call       5   0   1  
3DAB  5DC10200           [24] getglobal  5   11       ; TimeLength
fail op	21
3DAF  15408100           [25] concat     0   1   5  
3DB3  1A400980           [26] jmp        38           ; to [65]
3DB7  5D010300           [27] getglobal  5   12       ; Peak
fail op	21
3DBB  15408100           [28] concat     0   1   5  
3DBF  1A800080           [29] jmp        3            ; to [33]
3DC3  5D010300           [30] getglobal  5   12       ; Peak
3DC7  9C408100           [31] div        2   1   5  
3DCB  1A000380           [32] jmp        13           ; to [46]
3DCF  5D410300           [33] getglobal  5   13       ; PeakEnd
fail op	21
3DD3  15408100           [34] concat     0   1   5  
3DD7  1A400080           [35] jmp        2            ; to [38]
3DDB  99800300           [36] loadk      2   14       ; 0
3DDF  1AC00180           [37] jmp        8            ; to [46]
3DE3  1DC10300           [38] getglobal  4   15       ; ValleyEndValue
3DE7  5D410300           [39] getglobal  5   13       ; PeakEnd
3DEB  4D418100           [40] sub        5   1   5  
3DEF  9DC10200           [41] getglobal  6   11       ; TimeLength
3DF3  DD410300           [42] getglobal  7   13       ; PeakEnd
3DF7  8DC10103           [43] sub        6   6   7  
3DFB  5C818102           [44] div        5   5   6  
3DFF  8D400187           [45] sub        2   270 5    ; 0
fail op	21
3E03  15404001           [46] concat     0   2   257
3E07  1A000080           [47] jmp        1            ; to [49]
3E0B  99400000           [48] loadk      2   1        ; 0
3E0F  5D010400           [49] getglobal  5   16       ; -1828500651
3E13  92010002           [50] move       6   4      
3E17  DD410400           [51] getglobal  7   17       ; PeakValue
3E1B  12020001           [52] move       8   2      
3E1F  62810002           [53] call       5   4   2  
3E23  D2008002           [54] move       3   5      
3E27  64814400           [55] self       5   0   274  ; -703571861
3E2B  D2018001           [56] move       7   3      
3E2F  62418001           [57] call       5   3   1  
3E33  5DC10400           [58] getglobal  5   19       ; 1289681407
3E37  62818000           [59] call       5   1   2  
3E3B  43408100           [60] add        1   1   5  
3E3F  5D810000           [61] getglobal  5   2        ; 538022378
3E43  99410000           [62] loadk      6   1        ; 0
3E47  62410001           [63] call       5   2   1  
3E4B  1A80F57F           [64] jmp        -41          ; to [24]
3E4F  5D010500           [65] getglobal  5   20       ; destroyAtEnd
3E53  58010000           [66] test       5       0    ; to [68] if true
3E57  1A800180           [67] jmp        7            ; to [75]
3E5B  5D410500           [68] getglobal  5   21       ; 1074689893
3E5F  92010000           [69] move       6   0      
3E63  62810001           [70] call       5   2   2  
3E67  58410000           [71] test       5       1    ; to [73] if false
3E6B  1A400080           [72] jmp        2            ; to [75]
3E6F  64814500           [73] self       5   0   278  ; -725453761
3E73  62410001           [74] call       5   2   1  
3E77  1E008000           [75] return     0   1      
                         * constants:
3E7B  17                 sizek (23)
3E7C  04                 const type 4
3E7D  06                 string size (6)
3E7E  44656C617900       "Delay\0"
                         const [0]: "Delay"
3E84  03                 const type 3
3E85  00000000           const [1]: (0)
3E89  01                 const type 3
3E8A  EA911120           const [2]: (538022378)
3E8E  04                 const type 4
3E8F  0C                 string size (12)
3E90  56616C6C65795661+  "ValleyVa"
3E98  6C756500           "lue\0"
                         const [3]: "ValleyValue"
3E9C  04                 const type 4
3E9D  11                 string size (17)
3E9E  6170706C79456E65+  "applyEne"
3EA6  726779436F6C6F72+  "rgyColor"
3EAE  00                 "\0"
                         const [4]: "applyEnergyColor"
3EAF  04                 const type 4
3EB0  11                 string size (17)
3EB1  656E65726779436F+  "energyCo"
3EB9  6C6F72506172616D+  "lorParam"
3EC1  00                 "\0"
                         const [5]: "energyColorParam"
3EC2  04                 const type 4
3EC3  0F                 string size (15)
3EC4  676574506172656E+  "getParen"
3ECC  74466972737400     "tFirst\0"
                         const [6]: "getParentFirst"
3ED3  01                 const type 3
3ED4  925F7E6A           const [7]: (1786666898)
3ED8  01                 const type 3
3ED9  42674A8C           const [8]: (-1941280958)
3EDD  04                 const type 4
3EDE  10                 string size (16)
3EDF  6D6573685363616C+  "meshScal"
3EE7  6556616C6C657900   "eValley\0"
                         const [9]: "meshScaleValley"
3EEF  04                 const type 4
3EF0  0E                 string size (14)
3EF1  6D6573685363616C+  "meshScal"
3EF9  655065616B00       "ePeak\0"
                         const [10]: "meshScalePeak"
3EFF  04                 const type 4
3F00  0B                 string size (11)
3F01  54696D654C656E67+  "TimeLeng"
3F09  746800             "th\0"
                         const [11]: "TimeLength"
3F0C  04                 const type 4
3F0D  05                 string size (5)
3F0E  5065616B00         "Peak\0"
                         const [12]: "Peak"
3F13  04                 const type 4
3F14  08                 string size (8)
3F15  5065616B456E6400   "PeakEnd\0"
                         const [13]: "PeakEnd"
3F1D  03                 const type 3
3F1E  0000803F           const [14]: (0)
3F22  04                 const type 4
3F23  0F                 string size (15)
3F24  56616C6C6579456E+  "ValleyEn"
3F2C  6456616C756500     "dValue\0"
                         const [15]: "ValleyEndValue"
3F33  01                 const type 3
3F34  554B0393           const [16]: (-1828500651)
3F38  04                 const type 4
3F39  0A                 string size (10)
3F3A  5065616B56616C75+  "PeakValu"
3F42  6500               "e\0"
                         const [17]: "PeakValue"
3F44  01                 const type 3
3F45  6B5810D6           const [18]: (-703571861)
3F49  01                 const type 3
3F4A  FFF9DE4C           const [19]: (1289681407)
3F4E  04                 const type 4
3F4F  0D                 string size (13)
3F50  64657374726F7941+  "destroyA"
3F58  74456E6400         "tEnd\0"
                         const [20]: "destroyAtEnd"
3F5D  01                 const type 3
3F5E  65770E40           const [21]: (1074689893)
3F62  01                 const type 3
3F63  3F74C2D4           const [22]: (-725453761)
                         * functions:
3F67  00                 sizep (0)
                         * lines:
3F68  4B                 sizelineinfo (75)
                         [pc] (line)
3F69  70                 [01] (112)
3F6A  02                 [02] (112)
3F6B  00                 [03] (112)
3F6C  00                 [04] (113)
3F6D  70                 [05] (113)
3F6E  02                 [06] (113)
3F6F  00                 [07] (115)
3F70  00                 [08] (116)
3F71  70                 [09] (118)
3F72  02                 [10] (119)
3F73  00                 [11] (119)
3F74  00                 [12] (119)
3F75  71                 [13] (120)
3F76  02                 [14] (120)
3F77  00                 [15] (120)
3F78  00                 [16] (120)
3F79  71                 [17] (120)
3F7A  02                 [18] (122)
3F7B  00                 [19] (122)
3F7C  00                 [20] (122)
3F7D  71                 [21] (122)
3F7E  02                 [22] (122)
3F7F  00                 [23] (122)
3F80  00                 [24] (123)
3F81  73                 [25] (123)
3F82  02                 [26] (123)
3F83  00                 [27] (124)
3F84  00                 [28] (124)
3F85  74                 [29] (124)
3F86  02                 [30] (125)
3F87  00                 [31] (125)
3F88  00                 [32] (125)
3F89  76                 [33] (126)
3F8A  02                 [34] (126)
3F8B  00                 [35] (126)
3F8C  00                 [36] (127)
3F8D  77                 [37] (127)
3F8E  02                 [38] (-127)
3F8F  00                 [39] (-126)
3F90  00                 [40] (-126)
3F91  77                 [41] (-126)
3F92  02                 [42] (-126)
3F93  00                 [43] (-126)
3F94  00                 [44] (-126)
3F95  77                 [45] (-126)
3F96  02                 [46] (-123)
3F97  00                 [47] (-123)
3F98  00                 [48] (-122)
3F99  78                 [49] (-120)
3F9A  02                 [50] (-120)
3F9B  00                 [51] (-120)
3F9C  00                 [52] (-120)
3F9D  78                 [53] (-120)
3F9E  02                 [54] (-120)
3F9F  00                 [55] (-119)
3FA0  00                 [56] (-119)
3FA1  78                 [57] (-119)
3FA2  02                 [58] (-118)
3FA3  00                 [59] (-118)
3FA4  00                 [60] (-118)
3FA5  78                 [61] (-117)
3FA6  02                 [62] (-117)
3FA7  00                 [63] (-117)
3FA8  00                 [64] (-117)
3FA9  78                 [65] (-115)
3FAA  02                 [66] (-115)
3FAB  00                 [67] (-115)
3FAC  00                 [68] (-115)
3FAD  7A                 [69] (-115)
3FAE  02                 [70] (-115)
3FAF  00                 [71] (-115)
3FB0  00                 [72] (-115)
3FB1  7A                 [73] (-114)
3FB2  02                 [74] (-114)
3FB3  00                 [75] (-112)
                         * locals:
4095  00                 sizelocvars (0)
                         * upvalues:
4096  00                 sizeupvalues (0)
                         ** end of function **

                         
4097                     ** function [17] definition (level 2)
                         ** start of function **
4097  00                 string size (0)
                         source name: (none)
4099  05                 line defined (658)
409A  AB                 last line defined (683)
409B  05                 nups (1)
409C  01                 numparams (1)
409D  01                 is_vararg (0)
409E  00                 maxstacksize (8)
                         * code:
40A0  40                 sizecode (64)
40A1  5D000000           [01] getglobal  1   0        ; Delay
fail op	33
40A5  21408080           [02] tforloop   0       1    ; to [4] if exit
40A9  1A800080           [03] jmp        3            ; to [7]
40AD  5D800000           [04] getglobal  1   2        ; 538022378
40B1  9D000000           [05] getglobal  2   0        ; Delay
40B5  62400001           [06] call       1   2   1  
40B9  5DC00000           [07] getglobal  1   3        ; 1074689893
40BD  92000000           [08] move       2   0      
40C1  62800001           [09] call       1   2   2  
40C5  58000000           [10] test       1       0    ; to [12] if true
40C9  1A000080           [11] jmp        1            ; to [13]
40CD  1E008000           [12] return     0   1      
40D1  5D000100           [13] getglobal  1   4        ; applyEnergyColor
40D5  58000000           [14] test       1       0    ; to [16] if true
40D9  1A000180           [15] jmp        5            ; to [21]
40DD  53000000           [16] getupval   1   0      
40E1  92000000           [17] move       2   0      
40E5  DD400100           [18] getglobal  3   5        ; energyColorParam
40E9  1D810100           [19] getglobal  4   6        ; getParentFirst
40ED  62400002           [20] call       1   4   1  
40F1  64C04100           [21] self       1   0   263  ; -1870903749
40F5  62800001           [22] call       1   2   2  
40F9  9DC00000           [23] getglobal  2   3        ; 1074689893
40FD  D2008000           [24] move       3   1      
4101  A2800001           [25] call       2   2   2  
4105  98400000           [26] test       2       1    ; to [28] if false
4109  1A800180           [27] jmp        7            ; to [35]
410D  9D800000           [28] getglobal  2   2        ; 538022378
4111  E400C200           [29] self       3   1   264  ; 672280738
4115  E2800001           [30] call       3   2   2  
4119  1D010000           [31] getglobal  4   0        ; Delay
411D  CD008101           [32] sub        3   3   4  
4121  CD40C201           [33] sub        3   3   265  ; 0
4125  A2400001           [34] call       2   2   1  
4129  99400000           [35] loadk      2   1        ; 0
412D  C6008001           [36] loadnil    3   3      
4131  1D810200           [37] getglobal  4   10       ; TimeLength
fail op	21
4135  15000101           [38] concat     0   2   4  
4139  1AC00580           [39] jmp        24           ; to [64]
413D  1DC10000           [40] getglobal  4   3        ; 1074689893
4141  52010000           [41] move       5   0      
4145  22810001           [42] call       4   2   2  
4149  18010000           [43] test       4       0    ; to [45] if true
414D  1A000080           [44] jmp        1            ; to [46]
4151  1E008000           [45] return     0   1      
4155  1DC10200           [46] getglobal  4   11       ; -1828500651
4159  5D010300           [47] getglobal  5   12       ; OriginalValue
415D  9D410300           [48] getglobal  6   13       ; NewValue
4161  DD810200           [49] getglobal  7   10       ; TimeLength
4165  DCC10101           [50] div        7   2   7  
4169  22810002           [51] call       4   4   2  
416D  D2000002           [52] move       3   4      
4171  24814300           [53] self       4   0   270  ; -786111647
4175  9DC10300           [54] getglobal  6   15       ; Param
4179  D2018001           [55] move       7   3      
417D  22410002           [56] call       4   4   1  
4181  1D010400           [57] getglobal  4   16       ; 1289681407
4185  22818000           [58] call       4   1   2  
4189  83000101           [59] add        2   2   4  
418D  1D810000           [60] getglobal  4   2        ; 538022378
4191  59410000           [61] loadk      5   1        ; 0
4195  22410001           [62] call       4   2   1  
4199  1A00F97F           [63] jmp        -27          ; to [37]
419D  1E008000           [64] return     0   1      
                         * constants:
41A1  11                 sizek (17)
41A2  04                 const type 4
41A3  06                 string size (6)
41A4  44656C617900       "Delay\0"
                         const [0]: "Delay"
41AA  03                 const type 3
41AB  00000000           const [1]: (0)
41AF  01                 const type 3
41B0  EA911120           const [2]: (538022378)
41B4  01                 const type 3
41B5  65770E40           const [3]: (1074689893)
41B9  04                 const type 4
41BA  11                 string size (17)
41BB  6170706C79456E65+  "applyEne"
41C3  726779436F6C6F72+  "rgyColor"
41CB  00                 "\0"
                         const [4]: "applyEnergyColor"
41CC  04                 const type 4
41CD  11                 string size (17)
41CE  656E65726779436F+  "energyCo"
41D6  6C6F72506172616D+  "lorParam"
41DE  00                 "\0"
                         const [5]: "energyColorParam"
41DF  04                 const type 4
41E0  0F                 string size (15)
41E1  676574506172656E+  "getParen"
41E9  74466972737400     "tFirst\0"
                         const [6]: "getParentFirst"
41F0  01                 const type 3
41F1  3B467C90           const [7]: (-1870903749)
41F5  01                 const type 3
41F6  A2301228           const [8]: (672280738)
41FA  03                 const type 3
41FB  0000803F           const [9]: (0)
41FF  04                 const type 4
4200  0B                 string size (11)
4201  54696D654C656E67+  "TimeLeng"
4209  746800             "th\0"
                         const [10]: "TimeLength"
420C  01                 const type 3
420D  554B0393           const [11]: (-1828500651)
4211  04                 const type 4
4212  0E                 string size (14)
4213  4F726967696E616C+  "Original"
421B  56616C756500       "Value\0"
                         const [12]: "OriginalValue"
4221  04                 const type 4
4222  09                 string size (9)
4223  4E657756616C7565+  "NewValue"
422B  00                 "\0"
                         const [13]: "NewValue"
422C  01                 const type 3
422D  61E324D1           const [14]: (-786111647)
4231  04                 const type 4
4232  06                 string size (6)
4233  506172616D00       "Param\0"
                         const [15]: "Param"
4239  01                 const type 3
423A  FFF9DE4C           const [16]: (1289681407)
                         * functions:
423E  00                 sizep (0)
                         * lines:
423F  40                 sizelineinfo (64)
                         [pc] (line)
4240  93                 [01] (-109)
4241  02                 [02] (-109)
4242  00                 [03] (-109)
4243  00                 [04] (-108)
4244  93                 [05] (-108)
4245  02                 [06] (-108)
4246  00                 [07] (-106)
4247  00                 [08] (-106)
4248  93                 [09] (-106)
4249  02                 [10] (-106)
424A  00                 [11] (-106)
424B  00                 [12] (-105)
424C  94                 [13] (-103)
424D  02                 [14] (-103)
424E  00                 [15] (-103)
424F  00                 [16] (-102)
4250  94                 [17] (-102)
4251  02                 [18] (-102)
4252  00                 [19] (-102)
4253  00                 [20] (-102)
4254  94                 [21] (-100)
4255  02                 [22] (-100)
4256  00                 [23] (-99)
4257  00                 [24] (-99)
4258  96                 [25] (-99)
4259  02                 [26] (-99)
425A  00                 [27] (-99)
425B  00                 [28] (-98)
425C  96                 [29] (-98)
425D  02                 [30] (-98)
425E  00                 [31] (-98)
425F  00                 [32] (-98)
4260  96                 [33] (-98)
4261  02                 [34] (-98)
4262  00                 [35] (-96)
4263  00                 [36] (-95)
4264  96                 [37] (-94)
4265  02                 [38] (-94)
4266  00                 [39] (-94)
4267  00                 [40] (-93)
4268  96                 [41] (-93)
4269  02                 [42] (-93)
426A  00                 [43] (-93)
426B  00                 [44] (-93)
426C  97                 [45] (-92)
426D  02                 [46] (-90)
426E  00                 [47] (-90)
426F  00                 [48] (-90)
4270  99                 [49] (-90)
4271  02                 [50] (-90)
4272  00                 [51] (-90)
4273  00                 [52] (-90)
4274  99                 [53] (-89)
4275  02                 [54] (-89)
4276  00                 [55] (-89)
4277  00                 [56] (-89)
4278  99                 [57] (-88)
4279  02                 [58] (-88)
427A  00                 [59] (-88)
427B  00                 [60] (-87)
427C  9A                 [61] (-87)
427D  02                 [62] (-87)
427E  00                 [63] (-87)
427F  00                 [64] (-85)
                         * locals:
4340  00                 sizelocvars (0)
                         * upvalues:
4341  00                 sizeupvalues (0)
                         ** end of function **

                         
4342                     ** function [18] definition (level 2)
                         ** start of function **
4342  00                 string size (0)
                         source name: (none)
4344  05                 line defined (685)
4345  D9                 last line defined (729)
4346  05                 nups (0)
4347  00                 numparams (0)
4348  00                 is_vararg (0)
4349  00                 maxstacksize (26)
                         * code:
434B  72                 sizecode (114)
434C  1D000000           [001] getglobal  0   0        ; Delay
fail op	33
4350  21008080           [002] tforloop   0       0    ; to [4] if exit
4354  1A800080           [003] jmp        3            ; to [7]
4358  1D800000           [004] getglobal  0   2        ; 538022378
435C  5D000000           [005] getglobal  1   0        ; Delay
4360  22400001           [006] call       0   2   1  
4364  1DC00000           [007] getglobal  0   3        ; showAtStart
4368  18000000           [008] test       0       0    ; to [10] if true
436C  1AC00380           [009] jmp        16           ; to [26]
4370  1D000100           [010] getglobal  0   4        ; 1074689893
4374  5D400100           [011] getglobal  1   5        ; TargetDeco
4378  22800001           [012] call       0   2   2  
437C  18400000           [013] test       0       1    ; to [15] if false
4380  1A800280           [014] jmp        11           ; to [26]
4384  19800100           [015] loadk      0   6        ; 0
4388  5D400100           [016] getglobal  1   5        ; TargetDeco
438C  4A008000           [017] len        1   1      
4390  99800100           [018] loadk      2   6        ; 0
4394  10000180           [019] forprep    0   5        ; to [25]
4398  1D410100           [020] getglobal  4   5        ; TargetDeco
439C  0EC10002           [021] gettable   4   4   3  
43A0  64C14102           [022] self       5   4   263  ; 2109594123
43A4  D7018000           [023] loadbool   7   1   0    ; true
43A8  62418001           [024] call       5   3   1  
43AC  1440FE7F           [025] forloop    0   -6       ; to [20] if loop
43B0  59410000           [026] loadk      5   1        ; 0
43B4  86018003           [027] loadnil    6   7      
43B8  1D020200           [028] getglobal  8   8        ; TimeLength
fail op	21
43BC  15008202           [029] concat     0   5   8  
43C0  1A400B80           [030] jmp        46           ; to [77]
43C4  1D420200           [031] getglobal  8   9        ; Peak
fail op	21
43C8  15008202           [032] concat     0   5   8  
43CC  1A800080           [033] jmp        3            ; to [37]
43D0  1D420200           [034] getglobal  8   9        ; Peak
43D4  9C018202           [035] div        6   5   8  
43D8  1A800180           [036] jmp        7            ; to [44]
43DC  1D420200           [037] getglobal  8   9        ; Peak
43E0  0D028202           [038] sub        8   5   8  
43E4  5D020200           [039] getglobal  9   8        ; TimeLength
43E8  9D420200           [040] getglobal  10  9        ; Peak
43EC  4D828204           [041] sub        9   9   10 
43F0  1C420204           [042] div        8   8   9  
43F4  8D010283           [043] sub        6   262 8    ; 0
fail op	21
43F8  15404003           [044] concat     0   6   257
43FC  1A000080           [045] jmp        1            ; to [47]
4400  99410000           [046] loadk      6   1        ; 0
4404  1D820200           [047] getglobal  8   10       ; -1828500651
4408  5DC20200           [048] getglobal  9   11       ; ValleyValue
440C  9D020300           [049] getglobal  10  12       ; PeakValue
4410  D2020003           [050] move       11  6      
4414  22820002           [051] call       8   4   2  
4418  D2010004           [052] move       7   8      
441C  1D020100           [053] getglobal  8   4        ; 1074689893
4420  5D420100           [054] getglobal  9   5        ; TargetDeco
4424  22820001           [055] call       8   2   2  
4428  18420000           [056] test       8       1    ; to [58] if false
442C  1AC00280           [057] jmp        12           ; to [70]
4430  19820100           [058] loadk      8   6        ; 0
4434  5D420100           [059] getglobal  9   5        ; TargetDeco
4438  4A028004           [060] len        9   9      
443C  99820100           [061] loadk      10  6        ; 0
4440  10420180           [062] forprep    8   6        ; to [69]
4444  1D430100           [063] getglobal  12  5        ; TargetDeco
4448  0EC30206           [064] gettable   12  12  11 
444C  64434306           [065] self       13  12  269  ; -786111647
4450  DD830300           [066] getglobal  15  14       ; Param
4454  12048003           [067] move       16  7      
4458  62430002           [068] call       13  4   1  
445C  1402FE7F           [069] forloop    8   -7       ; to [63] if loop
4460  5DC30300           [070] getglobal  13  15       ; 1289681407
4464  62838000           [071] call       13  1   2  
4468  43418302           [072] add        5   5   13 
446C  5D830000           [073] getglobal  13  2        ; 538022378
4470  99430000           [074] loadk      14  1        ; 0
4474  62430001           [075] call       13  2   1  
4478  1A80F37F           [076] jmp        -49          ; to [28]
447C  5D030400           [077] getglobal  13  16       ; destroyAtEnd
4480  58030000           [078] test       13      0    ; to [80] if true
4484  1A800380           [079] jmp        15           ; to [95]
4488  5D030100           [080] getglobal  13  4        ; 1074689893
448C  9D430100           [081] getglobal  14  5        ; TargetDeco
4490  62830001           [082] call       13  2   2  
4494  58430000           [083] test       13      1    ; to [85] if false
4498  1A400280           [084] jmp        10           ; to [95]
449C  59830100           [085] loadk      13  6        ; 0
44A0  9D430100           [086] getglobal  14  5        ; TargetDeco
44A4  8A030007           [087] len        14  14     
44A8  D9830100           [088] loadk      15  6        ; 0
44AC  50C30080           [089] forprep    13  4        ; to [94]
44B0  5D440100           [090] getglobal  17  5        ; TargetDeco
44B4  4E048408           [091] gettable   17  17  16 
44B8  A444C408           [092] self       18  17  273  ; -725453761
44BC  A2440001           [093] call       18  2   1  
44C0  5483FE7F           [094] forloop    13  -5       ; to [90] if loop
44C4  9D840400           [095] getglobal  18  18       ; hideAtEnd
44C8  98040000           [096] test       18      0    ; to [98] if true
44CC  1AC00380           [097] jmp        16           ; to [114]
44D0  9D040100           [098] getglobal  18  4        ; 1074689893
44D4  DD440100           [099] getglobal  19  5        ; TargetDeco
44D8  A2840001           [100] call       18  2   2  
44DC  98440000           [101] test       18      1    ; to [103] if false
44E0  1A800280           [102] jmp        11           ; to [114]
44E4  99840100           [103] loadk      18  6        ; 0
44E8  DD440100           [104] getglobal  19  5        ; TargetDeco
44EC  CA048009           [105] len        19  19     
44F0  19850100           [106] loadk      20  6        ; 0
44F4  90040180           [107] forprep    18  5        ; to [113]
44F8  9D450100           [108] getglobal  22  5        ; TargetDeco
44FC  8E45050B           [109] gettable   22  22  21 
4500  E4C5410B           [110] self       23  22  263  ; 2109594123
4504  57060000           [111] loadbool   25  0   0    ; false
4508  E2458001           [112] call       23  3   1  
450C  9444FE7F           [113] forloop    18  -6       ; to [108] if loop
4510  1E008000           [114] return     0   1      
                         * constants:
4514  13                 sizek (19)
4515  04                 const type 4
4516  06                 string size (6)
4517  44656C617900       "Delay\0"
                         const [0]: "Delay"
451D  03                 const type 3
451E  00000000           const [1]: (0)
4522  01                 const type 3
4523  EA911120           const [2]: (538022378)
4527  04                 const type 4
4528  0C                 string size (12)
4529  73686F7741745374+  "showAtSt"
4531  61727400           "art\0"
                         const [3]: "showAtStart"
4535  01                 const type 3
4536  65770E40           const [4]: (1074689893)
453A  04                 const type 4
453B  0B                 string size (11)
453C  5461726765744465+  "TargetDe"
4544  636F00             "co\0"
                         const [5]: "TargetDeco"
4547  03                 const type 3
4548  0000803F           const [6]: (0)
454C  01                 const type 3
454D  0BDABD7D           const [7]: (2109594123)
4551  04                 const type 4
4552  0B                 string size (11)
4553  54696D654C656E67+  "TimeLeng"
455B  746800             "th\0"
                         const [8]: "TimeLength"
455E  04                 const type 4
455F  05                 string size (5)
4560  5065616B00         "Peak\0"
                         const [9]: "Peak"
4565  01                 const type 3
4566  554B0393           const [10]: (-1828500651)
456A  04                 const type 4
456B  0C                 string size (12)
456C  56616C6C65795661+  "ValleyVa"
4574  6C756500           "lue\0"
                         const [11]: "ValleyValue"
4578  04                 const type 4
4579  0A                 string size (10)
457A  5065616B56616C75+  "PeakValu"
4582  6500               "e\0"
                         const [12]: "PeakValue"
4584  01                 const type 3
4585  61E324D1           const [13]: (-786111647)
4589  04                 const type 4
458A  06                 string size (6)
458B  506172616D00       "Param\0"
                         const [14]: "Param"
4591  01                 const type 3
4592  FFF9DE4C           const [15]: (1289681407)
4596  04                 const type 4
4597  0D                 string size (13)
4598  64657374726F7941+  "destroyA"
45A0  74456E6400         "tEnd\0"
                         const [16]: "destroyAtEnd"
45A5  01                 const type 3
45A6  3F74C2D4           const [17]: (-725453761)
45AA  04                 const type 4
45AB  0A                 string size (10)
45AC  686964654174456E+  "hideAtEn"
45B4  6400               "d\0"
                         const [18]: "hideAtEnd"
                         * functions:
45B6  00                 sizep (0)
                         * lines:
45B7  72                 sizelineinfo (114)
                         [pc] (line)
45B8  AE                 [001] (-82)
45B9  02                 [002] (-82)
45BA  00                 [003] (-82)
45BB  00                 [004] (-81)
45BC  AE                 [005] (-81)
45BD  02                 [006] (-81)
45BE  00                 [007] (-79)
45BF  00                 [008] (-79)
45C0  AE                 [009] (-79)
45C1  02                 [010] (-79)
45C2  00                 [011] (-79)
45C3  00                 [012] (-79)
45C4  AF                 [013] (-79)
45C5  02                 [014] (-79)
45C6  00                 [015] (-78)
45C7  00                 [016] (-78)
45C8  AF                 [017] (-78)
45C9  02                 [018] (-78)
45CA  00                 [019] (-78)
45CB  00                 [020] (-77)
45CC  AF                 [021] (-77)
45CD  02                 [022] (-76)
45CE  00                 [023] (-76)
45CF  00                 [024] (-76)
45D0  B1                 [025] (-78)
45D1  02                 [026] (-73)
45D2  00                 [027] (-72)
45D3  00                 [028] (-70)
45D4  B1                 [029] (-70)
45D5  02                 [030] (-70)
45D6  00                 [031] (-69)
45D7  00                 [032] (-69)
45D8  B1                 [033] (-69)
45D9  02                 [034] (-68)
45DA  00                 [035] (-68)
45DB  00                 [036] (-68)
45DC  B1                 [037] (-66)
45DD  02                 [038] (-66)
45DE  00                 [039] (-66)
45DF  00                 [040] (-66)
45E0  B1                 [041] (-66)
45E1  02                 [042] (-66)
45E2  00                 [043] (-66)
45E3  00                 [044] (-64)
45E4  B1                 [045] (-64)
45E5  02                 [046] (-63)
45E6  00                 [047] (-61)
45E7  00                 [048] (-61)
45E8  B1                 [049] (-61)
45E9  02                 [050] (-61)
45EA  00                 [051] (-61)
45EB  00                 [052] (-61)
45EC  B1                 [053] (-60)
45ED  02                 [054] (-60)
45EE  00                 [055] (-60)
45EF  00                 [056] (-60)
45F0  B2                 [057] (-60)
45F1  02                 [058] (-59)
45F2  00                 [059] (-59)
45F3  00                 [060] (-59)
45F4  B2                 [061] (-59)
45F5  02                 [062] (-59)
45F6  00                 [063] (-58)
45F7  00                 [064] (-58)
45F8  B2                 [065] (-57)
45F9  02                 [066] (-57)
45FA  00                 [067] (-57)
45FB  00                 [068] (-57)
45FC  B2                 [069] (-59)
45FD  02                 [070] (-54)
45FE  00                 [071] (-54)
45FF  00                 [072] (-54)
4600  B2                 [073] (-53)
4601  02                 [074] (-53)
4602  00                 [075] (-53)
4603  00                 [076] (-53)
4604  B3                 [077] (-51)
4605  02                 [078] (-51)
4606  00                 [079] (-51)
4607  00                 [080] (-51)
4608  B3                 [081] (-51)
4609  02                 [082] (-51)
460A  00                 [083] (-51)
460B  00                 [084] (-51)
460C  B4                 [085] (-50)
460D  02                 [086] (-50)
460E  00                 [087] (-50)
460F  00                 [088] (-50)
4610  B4                 [089] (-50)
4611  02                 [090] (-49)
4612  00                 [091] (-49)
4613  00                 [092] (-48)
4614  B4                 [093] (-48)
4615  02                 [094] (-50)
4616  00                 [095] (-45)
4617  00                 [096] (-45)
4618  B2                 [097] (-45)
4619  02                 [098] (-45)
461A  00                 [099] (-45)
461B  00                 [100] (-45)
461C  B7                 [101] (-45)
461D  02                 [102] (-45)
461E  00                 [103] (-44)
461F  00                 [104] (-44)
4620  B8                 [105] (-44)
4621  02                 [106] (-44)
4622  00                 [107] (-44)
4623  00                 [108] (-43)
4624  BA                 [109] (-43)
4625  02                 [110] (-42)
4626  00                 [111] (-42)
4627  00                 [112] (-42)
4628  BA                 [113] (-44)
4629  02                 [114] (-39)
                         * locals:
4780  00                 sizelocvars (0)
                         * upvalues:
4781  00                 sizeupvalues (0)
                         ** end of function **

                         * lines:
4782  45                 sizelineinfo (69)
                         [pc] (line)
4783  2E                 [01] (46)
4784  00                 [02] (46)
4785  00                 [03] (46)
4786  00                 [04] (-125)
4787  2E                 [05] (-125)
4788  00                 [06] (-76)
4789  00                 [07] (-76)
478A  00                 [08] (-76)
478B  2E                 [09] (-123)
478C  00                 [10] (-54)
478D  00                 [11] (-54)
478E  00                 [12] (-54)
478F  83                 [13] (-74)
4790  00                 [14] (-20)
4791  00                 [15] (-20)
4792  00                 [16] (-20)
4793  83                 [17] (-52)
4794  00                 [18] (35)
4795  00                 [19] (35)
4796  00                 [20] (35)
4797  B4                 [21] (-18)
4798  00                 [22] (80)
4799  00                 [23] (80)
479A  00                 [24] (37)
479B  B4                 [25] (126)
479C  00                 [26] (126)
479D  00                 [27] (82)
479E  00                 [28] (-110)
479F  B4                 [29] (-110)
47A0  00                 [30] (-128)
47A1  00                 [31] (-75)
47A2  00                 [32] (-75)
47A3  85                 [33] (-75)
47A4  00                 [34] (-108)
47A5  00                 [35] (-48)
47A6  00                 [36] (-48)
47A7  CA                 [37] (-48)
47A8  00                 [38] (-73)
47A9  00                 [39] (-38)
47AA  00                 [40] (-38)
47AB  CA                 [41] (-46)
47AC  00                 [42] (-28)
47AD  00                 [43] (-28)
47AE  00                 [44] (-36)
47AF  CA                 [45] (-3)
47B0  00                 [46] (-3)
47B1  00                 [47] (-26)
47B2  00                 [48] (44)
47B3  B6                 [49] (44)
47B4  00                 [50] (44)
47B5  00                 [51] (-1)
47B6  00                 [52] (75)
47B7  EC                 [53] (75)
47B8  00                 [54] (46)
47B9  00                 [55] (109)
47BA  00                 [56] (109)
47BB  EC                 [57] (77)
47BC  00                 [58] (-112)
47BD  00                 [59] (-112)
47BE  00                 [60] (-112)
47BF  EC                 [61] (111)
47C0  00                 [62] (-85)
47C1  00                 [63] (-85)
47C2  00                 [64] (-85)
47C3  CC                 [65] (-110)
47C4  00                 [66] (-39)
47C5  00                 [67] (-39)
47C6  00                 [68] (-83)
47C7  23                 [69] (-39)
                         * locals:
4897  00                 sizelocvars (0)
                         * upvalues:
4898  00                 sizeupvalues (0)
                         ** end of function **

4899                     ** end of chunk **
